ARM GAS  /tmp/ccztuyKP.s 			page 1


   1              		.cpu cortex-m3
   2              		.eabi_attribute 20, 1
   3              		.eabi_attribute 21, 1
   4              		.eabi_attribute 23, 3
   5              		.eabi_attribute 24, 1
   6              		.eabi_attribute 25, 1
   7              		.eabi_attribute 26, 1
   8              		.eabi_attribute 30, 1
   9              		.eabi_attribute 34, 1
  10              		.eabi_attribute 18, 4
  11              		.file	"conf.c"
  12              		.text
  13              	.Ltext0:
  14              		.cfi_sections	.debug_frame
  15              		.align	1
  16              		.global	USART_Conf
  17              		.syntax unified
  18              		.thumb
  19              		.thumb_func
  20              		.fpu softvfp
  21              		.type	USART_Conf, %function
  22              	USART_Conf:
  23              	.LFB64:
  24              		.file 1 "drivers/conf.c"
   1:drivers/conf.c **** #include "conf.h"
   2:drivers/conf.c **** 
   3:drivers/conf.c **** ErrorStatus HSEStartUpStatus;
   4:drivers/conf.c **** // 串口相关配置
   5:drivers/conf.c **** void USART_Conf(void)
   6:drivers/conf.c **** {
  25              		.loc 1 6 0
  26              		.cfi_startproc
  27              		@ args = 0, pretend = 0, frame = 16
  28              		@ frame_needed = 0, uses_anonymous_args = 0
  29 0000 10B5     		push	{r4, lr}
  30              		.cfi_def_cfa_offset 8
  31              		.cfi_offset 4, -8
  32              		.cfi_offset 14, -4
  33 0002 84B0     		sub	sp, sp, #16
  34              		.cfi_def_cfa_offset 24
   7:drivers/conf.c ****   USART_InitTypeDef USART_InitStructure;
   8:drivers/conf.c ****   //串口配置： 波特率 115200 数据位 8 停止位 1  奇偶位 NONE  
   9:drivers/conf.c ****   USART_InitStructure.USART_BaudRate = 115200;
  35              		.loc 1 9 0
  36 0004 4FF4E133 		mov	r3, #115200
  37 0008 0093     		str	r3, [sp]
  10:drivers/conf.c ****   USART_InitStructure.USART_WordLength = USART_WordLength_8b;
  38              		.loc 1 10 0
  39 000a 0023     		movs	r3, #0
  40 000c ADF80430 		strh	r3, [sp, #4]	@ movhi
  11:drivers/conf.c ****   USART_InitStructure.USART_StopBits = USART_StopBits_1;
  41              		.loc 1 11 0
  42 0010 ADF80630 		strh	r3, [sp, #6]	@ movhi
  12:drivers/conf.c ****   USART_InitStructure.USART_Parity =  USART_Parity_No ;
  43              		.loc 1 12 0
  44 0014 ADF80830 		strh	r3, [sp, #8]	@ movhi
  13:drivers/conf.c ****   USART_InitStructure.USART_HardwareFlowControl = USART_HardwareFlowControl_None;
ARM GAS  /tmp/ccztuyKP.s 			page 2


  45              		.loc 1 13 0
  46 0018 ADF80C30 		strh	r3, [sp, #12]	@ movhi
  14:drivers/conf.c ****   USART_InitStructure.USART_Mode = USART_Mode_Rx | USART_Mode_Tx;
  47              		.loc 1 14 0
  48 001c 0C23     		movs	r3, #12
  49 001e ADF80A30 		strh	r3, [sp, #10]	@ movhi
  15:drivers/conf.c ****   //初始化串口
  16:drivers/conf.c ****   USART_Init(USART2, &USART_InitStructure);
  50              		.loc 1 16 0
  51 0022 054C     		ldr	r4, .L3
  52 0024 6946     		mov	r1, sp
  53 0026 2046     		mov	r0, r4
  54 0028 FFF7FEFF 		bl	USART_Init
  55              	.LVL0:
  17:drivers/conf.c ****   //启动串口
  18:drivers/conf.c ****   USART_Cmd(USART2, ENABLE);
  56              		.loc 1 18 0
  57 002c 0121     		movs	r1, #1
  58 002e 2046     		mov	r0, r4
  59 0030 FFF7FEFF 		bl	USART_Cmd
  60              	.LVL1:
  19:drivers/conf.c **** }
  61              		.loc 1 19 0
  62 0034 04B0     		add	sp, sp, #16
  63              		.cfi_def_cfa_offset 8
  64              		@ sp needed
  65 0036 10BD     		pop	{r4, pc}
  66              	.L4:
  67              		.align	2
  68              	.L3:
  69 0038 00440040 		.word	1073759232
  70              		.cfi_endproc
  71              	.LFE64:
  72              		.size	USART_Conf, .-USART_Conf
  73              		.align	1
  74              		.global	I2C_Conf
  75              		.syntax unified
  76              		.thumb
  77              		.thumb_func
  78              		.fpu softvfp
  79              		.type	I2C_Conf, %function
  80              	I2C_Conf:
  81              	.LFB65:
  20:drivers/conf.c **** 
  21:drivers/conf.c **** // I2C通讯的配置，主要用来和陀螺仪芯片通讯
  22:drivers/conf.c **** void I2C_Conf(void)
  23:drivers/conf.c **** {
  82              		.loc 1 23 0
  83              		.cfi_startproc
  84              		@ args = 0, pretend = 0, frame = 16
  85              		@ frame_needed = 0, uses_anonymous_args = 0
  86 003c 10B5     		push	{r4, lr}
  87              		.cfi_def_cfa_offset 8
  88              		.cfi_offset 4, -8
  89              		.cfi_offset 14, -4
  90 003e 84B0     		sub	sp, sp, #16
  91              		.cfi_def_cfa_offset 24
ARM GAS  /tmp/ccztuyKP.s 			page 3


  24:drivers/conf.c ****   I2C_InitTypeDef  I2C_InitStructure; 
  25:drivers/conf.c **** 
  26:drivers/conf.c ****   /*[> I2C configuration <]*/
  27:drivers/conf.c ****   I2C_InitStructure.I2C_Mode = I2C_Mode_I2C;
  92              		.loc 1 27 0
  93 0040 0023     		movs	r3, #0
  94 0042 ADF80430 		strh	r3, [sp, #4]	@ movhi
  28:drivers/conf.c ****   I2C_InitStructure.I2C_DutyCycle = I2C_DutyCycle_2;
  95              		.loc 1 28 0
  96 0046 4BF6FF73 		movw	r3, #49151
  97 004a ADF80630 		strh	r3, [sp, #6]	@ movhi
  29:drivers/conf.c ****   I2C_InitStructure.I2C_OwnAddress1 = I2C_SLAVE_ADDRESS;
  98              		.loc 1 29 0
  99 004e D023     		movs	r3, #208
 100 0050 ADF80830 		strh	r3, [sp, #8]	@ movhi
  30:drivers/conf.c ****   I2C_InitStructure.I2C_Ack = I2C_Ack_Enable;
 101              		.loc 1 30 0
 102 0054 4FF48063 		mov	r3, #1024
 103 0058 ADF80A30 		strh	r3, [sp, #10]	@ movhi
  31:drivers/conf.c ****   I2C_InitStructure.I2C_AcknowledgedAddress = I2C_AcknowledgedAddress_7bit;
 104              		.loc 1 31 0
 105 005c 4FF48043 		mov	r3, #16384
 106 0060 ADF80C30 		strh	r3, [sp, #12]	@ movhi
  32:drivers/conf.c ****   I2C_InitStructure.I2C_ClockSpeed = I2C_Speed;
 107              		.loc 1 32 0
 108 0064 04A9     		add	r1, sp, #16
 109 0066 064B     		ldr	r3, .L7
 110 0068 41F8103D 		str	r3, [r1, #-16]!
  33:drivers/conf.c ****   
  34:drivers/conf.c ****   /*[> Apply I2C configuration after enabling it <]*/
  35:drivers/conf.c ****   I2C_Init(MPU_I2Cx, &I2C_InitStructure);
 111              		.loc 1 35 0
 112 006c 054C     		ldr	r4, .L7+4
 113 006e 2046     		mov	r0, r4
 114 0070 FFF7FEFF 		bl	I2C_Init
 115              	.LVL2:
  36:drivers/conf.c ****   /*[> I2C Peripheral Enable <]*/
  37:drivers/conf.c ****   I2C_Cmd(MPU_I2Cx, ENABLE);
 116              		.loc 1 37 0
 117 0074 0121     		movs	r1, #1
 118 0076 2046     		mov	r0, r4
 119 0078 FFF7FEFF 		bl	I2C_Cmd
 120              	.LVL3:
  38:drivers/conf.c **** }
 121              		.loc 1 38 0
 122 007c 04B0     		add	sp, sp, #16
 123              		.cfi_def_cfa_offset 8
 124              		@ sp needed
 125 007e 10BD     		pop	{r4, pc}
 126              	.L8:
 127              		.align	2
 128              	.L7:
 129 0080 801A0600 		.word	400000
 130 0084 00580040 		.word	1073764352
 131              		.cfi_endproc
 132              	.LFE65:
 133              		.size	I2C_Conf, .-I2C_Conf
ARM GAS  /tmp/ccztuyKP.s 			page 4


 134              		.align	1
 135              		.global	RCC_Conf
 136              		.syntax unified
 137              		.thumb
 138              		.thumb_func
 139              		.fpu softvfp
 140              		.type	RCC_Conf, %function
 141              	RCC_Conf:
 142              	.LFB66:
  39:drivers/conf.c **** 
  40:drivers/conf.c **** void RCC_Conf(void)
  41:drivers/conf.c **** {
 143              		.loc 1 41 0
 144              		.cfi_startproc
 145              		@ args = 0, pretend = 0, frame = 0
 146              		@ frame_needed = 0, uses_anonymous_args = 0
 147 0088 10B5     		push	{r4, lr}
 148              		.cfi_def_cfa_offset 8
 149              		.cfi_offset 4, -8
 150              		.cfi_offset 14, -4
  42:drivers/conf.c ****   //复位RCC外部设备寄存器到默认值
  43:drivers/conf.c ****   RCC_DeInit();  
 151              		.loc 1 43 0
 152 008a FFF7FEFF 		bl	RCC_DeInit
 153              	.LVL4:
  44:drivers/conf.c ****   //打开外部高速晶振
  45:drivers/conf.c ****   RCC_HSEConfig(RCC_HSE_ON); 
 154              		.loc 1 45 0
 155 008e 4FF48030 		mov	r0, #65536
 156 0092 FFF7FEFF 		bl	RCC_HSEConfig
 157              	.LVL5:
  46:drivers/conf.c ****   //等待外部高速时钟准备好
  47:drivers/conf.c ****   HSEStartUpStatus = RCC_WaitForHSEStartUp(); 
 158              		.loc 1 47 0
 159 0096 FFF7FEFF 		bl	RCC_WaitForHSEStartUp
 160              	.LVL6:
 161 009a 254B     		ldr	r3, .L17
 162 009c 1870     		strb	r0, [r3]
  48:drivers/conf.c ****   if(HSEStartUpStatus == SUCCESS){
 163              		.loc 1 48 0
 164 009e 0128     		cmp	r0, #1
 165 00a0 16D0     		beq	.L16
 166              	.L10:
  49:drivers/conf.c ****   FLASH_PrefetchBufferCmd(FLASH_PrefetchBuffer_Enable);
  50:drivers/conf.c ****   FLASH_SetLatency(FLASH_Latency_2);
  51:drivers/conf.c ****   //配置AHB(HCLK)时钟=SYSCLK
  52:drivers/conf.c ****   RCC_HCLKConfig(RCC_SYSCLK_Div1);
  53:drivers/conf.c ****   //配置APB2(PCLK2)钟=AHB时钟
  54:drivers/conf.c ****   RCC_PCLK2Config(RCC_HCLK_Div1); 
  55:drivers/conf.c ****   //配置APB1(PCLK1)钟=AHB 1/2时钟
  56:drivers/conf.c ****   RCC_PCLK1Config(RCC_HCLK_Div2);  
  57:drivers/conf.c ****   //配置ADC时钟=PCLK2 1/4
  58:drivers/conf.c ****   RCC_ADCCLKConfig(RCC_PCLK2_Div4); 
  59:drivers/conf.c ****   //配置PLL时钟 == 外部高速晶体时钟*9
  60:drivers/conf.c ****   RCC_PLLConfig(RCC_PLLSource_HSE_Div1, RCC_PLLMul_9); 
  61:drivers/conf.c ****   //配置ADC时钟= PCLK2/4
  62:drivers/conf.c ****   RCC_ADCCLKConfig(RCC_PCLK2_Div4);
ARM GAS  /tmp/ccztuyKP.s 			page 5


  63:drivers/conf.c ****   //使能PLL时钟
  64:drivers/conf.c ****   RCC_PLLCmd(ENABLE);  
  65:drivers/conf.c ****   //等待PLL时钟就绪
  66:drivers/conf.c ****   while(RCC_GetFlagStatus(RCC_FLAG_PLLRDY) == RESET)  {
  67:drivers/conf.c ****   }
  68:drivers/conf.c ****   //配置系统时钟 = PLL时钟
  69:drivers/conf.c ****   RCC_SYSCLKConfig(RCC_SYSCLKSource_PLLCLK); 
  70:drivers/conf.c ****   //检查PLL时钟是否作为系统时钟
  71:drivers/conf.c ****   while(RCC_GetSYSCLKSource() != 0x08)  {
  72:drivers/conf.c ****   }
  73:drivers/conf.c ****   }
  74:drivers/conf.c ****   
  75:drivers/conf.c ****   RCC_APB2PeriphClockCmd(RCC_APB2Periph_AFIO, ENABLE);
 167              		.loc 1 75 0
 168 00a2 0121     		movs	r1, #1
 169 00a4 0846     		mov	r0, r1
 170 00a6 FFF7FEFF 		bl	RCC_APB2PeriphClockCmd
 171              	.LVL7:
  76:drivers/conf.c ****   //Enable GPIO timer
  77:drivers/conf.c ****   RCC_APB2PeriphClockCmd(RCC_APB2Periph_GPIOA, ENABLE);
 172              		.loc 1 77 0
 173 00aa 0121     		movs	r1, #1
 174 00ac 0420     		movs	r0, #4
 175 00ae FFF7FEFF 		bl	RCC_APB2PeriphClockCmd
 176              	.LVL8:
  78:drivers/conf.c ****   /*RCC_APB2PeriphClockCmd(RCC_APB2Periph_GPIOB, ENABLE);//使能I2C的IO口    */
  79:drivers/conf.c **** 
  80:drivers/conf.c ****   RCC_APB1PeriphClockCmd(RCC_APB1Periph_I2C2, ENABLE);//使能I2C的IO口    
 177              		.loc 1 80 0
 178 00b2 0121     		movs	r1, #1
 179 00b4 4FF48000 		mov	r0, #4194304
 180 00b8 FFF7FEFF 		bl	RCC_APB1PeriphClockCmd
 181              	.LVL9:
  81:drivers/conf.c ****   /*RCC_APB1PeriphClockCmd(RCC_APB1Periph_I2C1, ENABLE);//使能I2C的IO口    */
  82:drivers/conf.c **** 
  83:drivers/conf.c ****   //Enable serial timer
  84:drivers/conf.c ****   RCC_APB1PeriphClockCmd(RCC_APB1Periph_USART2, ENABLE);
 182              		.loc 1 84 0
 183 00bc 0121     		movs	r1, #1
 184 00be 4FF40030 		mov	r0, #131072
 185 00c2 FFF7FEFF 		bl	RCC_APB1PeriphClockCmd
 186              	.LVL10:
  85:drivers/conf.c **** 
  86:drivers/conf.c ****   RCC_APB1PeriphClockCmd(RCC_APB1Periph_TIM2, ENABLE); //配置RCC，使能TIM2
 187              		.loc 1 86 0
 188 00c6 0121     		movs	r1, #1
 189 00c8 0846     		mov	r0, r1
 190 00ca FFF7FEFF 		bl	RCC_APB1PeriphClockCmd
 191              	.LVL11:
 192 00ce 10BD     		pop	{r4, pc}
 193              	.L16:
  49:drivers/conf.c ****   FLASH_SetLatency(FLASH_Latency_2);
 194              		.loc 1 49 0
 195 00d0 1020     		movs	r0, #16
 196 00d2 FFF7FEFF 		bl	FLASH_PrefetchBufferCmd
 197              	.LVL12:
  50:drivers/conf.c ****   //配置AHB(HCLK)时钟=SYSCLK
ARM GAS  /tmp/ccztuyKP.s 			page 6


 198              		.loc 1 50 0
 199 00d6 0220     		movs	r0, #2
 200 00d8 FFF7FEFF 		bl	FLASH_SetLatency
 201              	.LVL13:
  52:drivers/conf.c ****   //配置APB2(PCLK2)钟=AHB时钟
 202              		.loc 1 52 0
 203 00dc 0020     		movs	r0, #0
 204 00de FFF7FEFF 		bl	RCC_HCLKConfig
 205              	.LVL14:
  54:drivers/conf.c ****   //配置APB1(PCLK1)钟=AHB 1/2时钟
 206              		.loc 1 54 0
 207 00e2 0020     		movs	r0, #0
 208 00e4 FFF7FEFF 		bl	RCC_PCLK2Config
 209              	.LVL15:
  56:drivers/conf.c ****   //配置ADC时钟=PCLK2 1/4
 210              		.loc 1 56 0
 211 00e8 4FF48060 		mov	r0, #1024
 212 00ec FFF7FEFF 		bl	RCC_PCLK1Config
 213              	.LVL16:
  58:drivers/conf.c ****   //配置PLL时钟 == 外部高速晶体时钟*9
 214              		.loc 1 58 0
 215 00f0 4FF48040 		mov	r0, #16384
 216 00f4 FFF7FEFF 		bl	RCC_ADCCLKConfig
 217              	.LVL17:
  60:drivers/conf.c ****   //配置ADC时钟= PCLK2/4
 218              		.loc 1 60 0
 219 00f8 4FF4E011 		mov	r1, #1835008
 220 00fc 4FF48030 		mov	r0, #65536
 221 0100 FFF7FEFF 		bl	RCC_PLLConfig
 222              	.LVL18:
  62:drivers/conf.c ****   //使能PLL时钟
 223              		.loc 1 62 0
 224 0104 4FF48040 		mov	r0, #16384
 225 0108 FFF7FEFF 		bl	RCC_ADCCLKConfig
 226              	.LVL19:
  64:drivers/conf.c ****   //等待PLL时钟就绪
 227              		.loc 1 64 0
 228 010c 0120     		movs	r0, #1
 229 010e FFF7FEFF 		bl	RCC_PLLCmd
 230              	.LVL20:
  66:drivers/conf.c ****   }
 231              		.loc 1 66 0
 232 0112 3924     		movs	r4, #57
 233              	.L11:
  66:drivers/conf.c ****   }
 234              		.loc 1 66 0 is_stmt 0 discriminator 1
 235 0114 2046     		mov	r0, r4
 236 0116 FFF7FEFF 		bl	RCC_GetFlagStatus
 237              	.LVL21:
 238 011a 0028     		cmp	r0, #0
 239 011c FAD0     		beq	.L11
  69:drivers/conf.c ****   //检查PLL时钟是否作为系统时钟
 240              		.loc 1 69 0 is_stmt 1
 241 011e 0220     		movs	r0, #2
 242 0120 FFF7FEFF 		bl	RCC_SYSCLKConfig
 243              	.LVL22:
 244              	.L12:
ARM GAS  /tmp/ccztuyKP.s 			page 7


  71:drivers/conf.c ****   }
 245              		.loc 1 71 0 discriminator 1
 246 0124 FFF7FEFF 		bl	RCC_GetSYSCLKSource
 247              	.LVL23:
 248 0128 0828     		cmp	r0, #8
 249 012a FBD1     		bne	.L12
 250 012c B9E7     		b	.L10
 251              	.L18:
 252 012e 00BF     		.align	2
 253              	.L17:
 254 0130 00000000 		.word	.LANCHOR0
 255              		.cfi_endproc
 256              	.LFE66:
 257              		.size	RCC_Conf, .-RCC_Conf
 258              		.align	1
 259              		.global	TIMER_Conf
 260              		.syntax unified
 261              		.thumb
 262              		.thumb_func
 263              		.fpu softvfp
 264              		.type	TIMER_Conf, %function
 265              	TIMER_Conf:
 266              	.LFB67:
  87:drivers/conf.c **** 
  88:drivers/conf.c ****   //开启AFIO时钟
  89:drivers/conf.c **** }
  90:drivers/conf.c **** 
  91:drivers/conf.c **** // 定时器设置 
  92:drivers/conf.c **** void TIMER_Conf(void)
  93:drivers/conf.c **** {
 267              		.loc 1 93 0
 268              		.cfi_startproc
 269              		@ args = 0, pretend = 0, frame = 16
 270              		@ frame_needed = 0, uses_anonymous_args = 0
 271 0134 00B5     		push	{lr}
 272              		.cfi_def_cfa_offset 4
 273              		.cfi_offset 14, -4
 274 0136 85B0     		sub	sp, sp, #20
 275              		.cfi_def_cfa_offset 24
  94:drivers/conf.c ****   TIM_TimeBaseInitTypeDef  TIM_TimeBaseStructure;
  95:drivers/conf.c ****   
  96:drivers/conf.c ****   TIM_TimeBaseStructure.TIM_Prescaler = 71;  //时钟预分频数 例如:时钟频率=72/(时钟预
 276              		.loc 1 96 0
 277 0138 4723     		movs	r3, #71
 278 013a ADF80430 		strh	r3, [sp, #4]	@ movhi
  97:drivers/conf.c ****   TIM_TimeBaseStructure.TIM_CounterMode = TIM_CounterMode_Up; ////定时器模式 向上计数  
 279              		.loc 1 97 0
 280 013e 0023     		movs	r3, #0
 281 0140 ADF80630 		strh	r3, [sp, #6]	@ movhi
  98:drivers/conf.c ****   TIM_TimeBaseStructure.TIM_Period = 0xffff;//自动重装载寄存器周期的值(定时时间)累
 282              		.loc 1 98 0
 283 0144 4FF6FF72 		movw	r2, #65535
 284 0148 ADF80820 		strh	r2, [sp, #8]	@ movhi
  99:drivers/conf.c ****   TIM_TimeBaseStructure.TIM_ClockDivision = 0; ////时间分割值  
 285              		.loc 1 99 0
 286 014c ADF80A30 		strh	r3, [sp, #10]	@ movhi
 100:drivers/conf.c ****   TIM_TimeBaseStructure.TIM_RepetitionCounter = 0;
ARM GAS  /tmp/ccztuyKP.s 			page 8


 287              		.loc 1 100 0
 288 0150 8DF80C30 		strb	r3, [sp, #12]
 101:drivers/conf.c ****   TIM_TimeBaseInit(TIM2, &TIM_TimeBaseStructure); //初始化定时器2
 289              		.loc 1 101 0
 290 0154 01A9     		add	r1, sp, #4
 291 0156 4FF08040 		mov	r0, #1073741824
 292 015a FFF7FEFF 		bl	TIM_TimeBaseInit
 293              	.LVL24:
 102:drivers/conf.c ****   TIM_ClearFlag(TIM2, TIM_FLAG_Update);
 294              		.loc 1 102 0
 295 015e 0121     		movs	r1, #1
 296 0160 4FF08040 		mov	r0, #1073741824
 297 0164 FFF7FEFF 		bl	TIM_ClearFlag
 298              	.LVL25:
 103:drivers/conf.c ****   TIM_ITConfig(TIM2, TIM_IT_Update, ENABLE); //打开中断 溢出中断  
 299              		.loc 1 103 0
 300 0168 0122     		movs	r2, #1
 301 016a 1146     		mov	r1, r2
 302 016c 4FF08040 		mov	r0, #1073741824
 303 0170 FFF7FEFF 		bl	TIM_ITConfig
 304              	.LVL26:
 104:drivers/conf.c **** 
 105:drivers/conf.c **** }
 305              		.loc 1 105 0
 306 0174 05B0     		add	sp, sp, #20
 307              		.cfi_def_cfa_offset 4
 308              		@ sp needed
 309 0176 5DF804FB 		ldr	pc, [sp], #4
 310              		.cfi_endproc
 311              	.LFE67:
 312              		.size	TIMER_Conf, .-TIMER_Conf
 313              		.align	1
 314              		.global	GPIO_Conf
 315              		.syntax unified
 316              		.thumb
 317              		.thumb_func
 318              		.fpu softvfp
 319              		.type	GPIO_Conf, %function
 320              	GPIO_Conf:
 321              	.LFB68:
 106:drivers/conf.c **** 
 107:drivers/conf.c **** 
 108:drivers/conf.c **** 
 109:drivers/conf.c **** void GPIO_Conf(void)
 110:drivers/conf.c **** {
 322              		.loc 1 110 0
 323              		.cfi_startproc
 324              		@ args = 0, pretend = 0, frame = 8
 325              		@ frame_needed = 0, uses_anonymous_args = 0
 326 017a 30B5     		push	{r4, r5, lr}
 327              		.cfi_def_cfa_offset 12
 328              		.cfi_offset 4, -12
 329              		.cfi_offset 5, -8
 330              		.cfi_offset 14, -4
 331 017c 83B0     		sub	sp, sp, #12
 332              		.cfi_def_cfa_offset 24
 111:drivers/conf.c ****   GPIO_InitTypeDef GPIO_InitStructure;
ARM GAS  /tmp/ccztuyKP.s 			page 9


 112:drivers/conf.c ****   
 113:drivers/conf.c ****   //USARTx_Tx为复合推挽输出
 114:drivers/conf.c ****   GPIO_InitStructure.GPIO_Pin = GPIO_TxPin;
 333              		.loc 1 114 0
 334 017e 0425     		movs	r5, #4
 335 0180 ADF80450 		strh	r5, [sp, #4]	@ movhi
 115:drivers/conf.c ****   GPIO_InitStructure.GPIO_Speed = GPIO_Speed_50MHz;
 336              		.loc 1 115 0
 337 0184 0323     		movs	r3, #3
 338 0186 8DF80630 		strb	r3, [sp, #6]
 116:drivers/conf.c ****   GPIO_InitStructure.GPIO_Mode = GPIO_Mode_AF_PP;
 339              		.loc 1 116 0
 340 018a 1823     		movs	r3, #24
 341 018c 8DF80730 		strb	r3, [sp, #7]
 117:drivers/conf.c ****   GPIO_Init(GPIOA, &GPIO_InitStructure);
 342              		.loc 1 117 0
 343 0190 134C     		ldr	r4, .L23
 344 0192 0DEB0501 		add	r1, sp, r5
 345 0196 2046     		mov	r0, r4
 346 0198 FFF7FEFF 		bl	GPIO_Init
 347              	.LVL27:
 118:drivers/conf.c ****   
 119:drivers/conf.c ****   //USARTx_Rx 为浮空输入
 120:drivers/conf.c ****   GPIO_InitStructure.GPIO_Pin = GPIO_RxPin;
 348              		.loc 1 120 0
 349 019c 0823     		movs	r3, #8
 350 019e ADF80430 		strh	r3, [sp, #4]	@ movhi
 121:drivers/conf.c ****   GPIO_InitStructure.GPIO_Mode = GPIO_Mode_IN_FLOATING;
 351              		.loc 1 121 0
 352 01a2 8DF80750 		strb	r5, [sp, #7]
 122:drivers/conf.c ****   GPIO_Init(GPIOA, &GPIO_InitStructure);
 353              		.loc 1 122 0
 354 01a6 0DEB0501 		add	r1, sp, r5
 355 01aa 2046     		mov	r0, r4
 356 01ac FFF7FEFF 		bl	GPIO_Init
 357              	.LVL28:
 123:drivers/conf.c ****   
 124:drivers/conf.c ****   //HC-SR04 
 125:drivers/conf.c ****   GPIO_InitStructure.GPIO_Pin = TRIG_Pin; 
 358              		.loc 1 125 0
 359 01b0 0223     		movs	r3, #2
 360 01b2 ADF80430 		strh	r3, [sp, #4]	@ movhi
 126:drivers/conf.c ****   GPIO_InitStructure.GPIO_Mode = GPIO_Mode_Out_PP;
 361              		.loc 1 126 0
 362 01b6 1023     		movs	r3, #16
 363 01b8 8DF80730 		strb	r3, [sp, #7]
 127:drivers/conf.c ****   GPIO_Init(GPIOA, &GPIO_InitStructure);
 364              		.loc 1 127 0
 365 01bc 0DEB0501 		add	r1, sp, r5
 366 01c0 2046     		mov	r0, r4
 367 01c2 FFF7FEFF 		bl	GPIO_Init
 368              	.LVL29:
 128:drivers/conf.c ****   GPIO_InitStructure.GPIO_Pin = ECHO_Pin; 
 369              		.loc 1 128 0
 370 01c6 0123     		movs	r3, #1
 371 01c8 ADF80430 		strh	r3, [sp, #4]	@ movhi
 129:drivers/conf.c ****   GPIO_InitStructure.GPIO_Mode = GPIO_Mode_IN_FLOATING;
ARM GAS  /tmp/ccztuyKP.s 			page 10


 372              		.loc 1 129 0
 373 01cc 8DF80750 		strb	r5, [sp, #7]
 130:drivers/conf.c ****   GPIO_Init(GPIOA, &GPIO_InitStructure);
 374              		.loc 1 130 0
 375 01d0 0DEB0501 		add	r1, sp, r5
 376 01d4 2046     		mov	r0, r4
 377 01d6 FFF7FEFF 		bl	GPIO_Init
 378              	.LVL30:
 131:drivers/conf.c **** 
 132:drivers/conf.c ****   //I2C配置
 133:drivers/conf.c ****   /*GPIO_InitStructure.GPIO_Pin = SDA_Pin | SCL_Pin;*/
 134:drivers/conf.c ****   /*GPIO_InitStructure.GPIO_Mode = GPIO_Mode_Out_PP;// 开漏输出*/
 135:drivers/conf.c ****   /*GPIO_Init(GPIOB, &GPIO_InitStructure);//初始化结构体配置*/
 136:drivers/conf.c **** }
 379              		.loc 1 136 0
 380 01da 03B0     		add	sp, sp, #12
 381              		.cfi_def_cfa_offset 12
 382              		@ sp needed
 383 01dc 30BD     		pop	{r4, r5, pc}
 384              	.L24:
 385 01de 00BF     		.align	2
 386              	.L23:
 387 01e0 00080140 		.word	1073809408
 388              		.cfi_endproc
 389              	.LFE68:
 390              		.size	GPIO_Conf, .-GPIO_Conf
 391              		.align	1
 392              		.global	NVIC_Conf
 393              		.syntax unified
 394              		.thumb
 395              		.thumb_func
 396              		.fpu softvfp
 397              		.type	NVIC_Conf, %function
 398              	NVIC_Conf:
 399              	.LFB69:
 137:drivers/conf.c **** 
 138:drivers/conf.c **** // 系统中断控制
 139:drivers/conf.c **** void NVIC_Conf(void)
 140:drivers/conf.c **** { 
 400              		.loc 1 140 0
 401              		.cfi_startproc
 402              		@ args = 0, pretend = 0, frame = 8
 403              		@ frame_needed = 0, uses_anonymous_args = 0
 404 01e4 00B5     		push	{lr}
 405              		.cfi_def_cfa_offset 4
 406              		.cfi_offset 14, -4
 407 01e6 83B0     		sub	sp, sp, #12
 408              		.cfi_def_cfa_offset 16
 141:drivers/conf.c ****   NVIC_InitTypeDef NVIC_InitStructure;
 142:drivers/conf.c ****   // 设置中断向量表位置 FLASH:0x08000000
 143:drivers/conf.c ****   NVIC_SetVectorTable(NVIC_VectTab_FLASH, 0x0); 
 409              		.loc 1 143 0
 410 01e8 0021     		movs	r1, #0
 411 01ea 4FF00060 		mov	r0, #134217728
 412 01ee FFF7FEFF 		bl	NVIC_SetVectorTable
 413              	.LVL31:
 144:drivers/conf.c **** 
ARM GAS  /tmp/ccztuyKP.s 			page 11


 145:drivers/conf.c ****   // 打开TIM2中断
 146:drivers/conf.c ****   NVIC_InitStructure.NVIC_IRQChannel = TIM2_IRQn;
 414              		.loc 1 146 0
 415 01f2 1C23     		movs	r3, #28
 416 01f4 8DF80430 		strb	r3, [sp, #4]
 147:drivers/conf.c ****   NVIC_InitStructure.NVIC_IRQChannelPreemptionPriority = 0;
 417              		.loc 1 147 0
 418 01f8 0023     		movs	r3, #0
 419 01fa 8DF80530 		strb	r3, [sp, #5]
 148:drivers/conf.c ****   NVIC_InitStructure.NVIC_IRQChannelSubPriority = 0;
 420              		.loc 1 148 0
 421 01fe 8DF80630 		strb	r3, [sp, #6]
 149:drivers/conf.c ****   NVIC_InitStructure.NVIC_IRQChannelCmd = ENABLE;
 422              		.loc 1 149 0
 423 0202 0123     		movs	r3, #1
 424 0204 8DF80730 		strb	r3, [sp, #7]
 150:drivers/conf.c ****   NVIC_Init(&NVIC_InitStructure);
 425              		.loc 1 150 0
 426 0208 01A8     		add	r0, sp, #4
 427 020a FFF7FEFF 		bl	NVIC_Init
 428              	.LVL32:
 151:drivers/conf.c **** }
 429              		.loc 1 151 0
 430 020e 03B0     		add	sp, sp, #12
 431              		.cfi_def_cfa_offset 4
 432              		@ sp needed
 433 0210 5DF804FB 		ldr	pc, [sp], #4
 434              		.cfi_endproc
 435              	.LFE69:
 436              		.size	NVIC_Conf, .-NVIC_Conf
 437              		.global	HSEStartUpStatus
 438              		.bss
 439              		.set	.LANCHOR0,. + 0
 440              		.type	HSEStartUpStatus, %object
 441              		.size	HSEStartUpStatus, 1
 442              	HSEStartUpStatus:
 443 0000 00       		.space	1
 444              		.text
 445              	.Letext0:
 446              		.file 2 "/usr/arm-none-eabi/include/machine/_default_types.h"
 447              		.file 3 "/usr/arm-none-eabi/include/sys/_stdint.h"
 448              		.file 4 "/home/enbin/Documents/code/STM/stm32-quadrocopter/cmsis/core_cm3.h"
 449              		.file 5 "/home/enbin/Documents/code/STM/stm32-quadrocopter/lib/inc/system_stm32f10x.h"
 450              		.file 6 "/home/enbin/Documents/code/STM/stm32-quadrocopter/lib/inc/stm32f10x.h"
 451              		.file 7 "/home/enbin/Documents/code/STM/stm32-quadrocopter/lib/inc/stm32f10x_i2c.h"
 452              		.file 8 "/home/enbin/Documents/code/STM/stm32-quadrocopter/lib/inc/stm32f10x_tim.h"
 453              		.file 9 "/home/enbin/Documents/code/STM/stm32-quadrocopter/lib/inc/stm32f10x_gpio.h"
 454              		.file 10 "/home/enbin/Documents/code/STM/stm32-quadrocopter/lib/inc/stm32f10x_usart.h"
 455              		.file 11 "/home/enbin/Documents/code/STM/stm32-quadrocopter/lib/inc/misc.h"
 456              		.file 12 "/home/enbin/Documents/code/STM/stm32-quadrocopter/drivers/MPU6050.h"
 457              		.file 13 "/usr/arm-none-eabi/include/sys/lock.h"
 458              		.file 14 "/usr/arm-none-eabi/include/sys/_types.h"
 459              		.file 15 "/usr/lib/gcc/arm-none-eabi/6.1.1/include/stddef.h"
 460              		.file 16 "/usr/arm-none-eabi/include/sys/reent.h"
 461              		.file 17 "/usr/arm-none-eabi/include/stdlib.h"
 462              		.file 18 "/usr/arm-none-eabi/include/math.h"
 463              		.file 19 "/usr/arm-none-eabi/include/sys/errno.h"
ARM GAS  /tmp/ccztuyKP.s 			page 12


 464              		.file 20 "/home/enbin/Documents/code/STM/stm32-quadrocopter/project/conf.h"
 465              		.file 21 "/home/enbin/Documents/code/STM/stm32-quadrocopter/lib/inc/stm32f10x_rcc.h"
 466              		.file 22 "/home/enbin/Documents/code/STM/stm32-quadrocopter/lib/inc/stm32f10x_flash.h"