ARM GAS  /tmp/ccztuyKP.s 			page 1


   1              		.cpu cortex-m3
   2              		.eabi_attribute 20, 1
   3              		.eabi_attribute 21, 1
   4              		.eabi_attribute 23, 3
   5              		.eabi_attribute 24, 1
   6              		.eabi_attribute 25, 1
   7              		.eabi_attribute 26, 1
   8              		.eabi_attribute 30, 1
   9              		.eabi_attribute 34, 1
  10              		.eabi_attribute 18, 4
  11              		.file	"conf.c"
  12              		.text
  13              	.Ltext0:
  14              		.cfi_sections	.debug_frame
  15              		.align	1
  16              		.global	USART_Conf
  17              		.syntax unified
  18              		.thumb
  19              		.thumb_func
  20              		.fpu softvfp
  21              		.type	USART_Conf, %function
  22              	USART_Conf:
  23              	.LFB64:
  24              		.file 1 "drivers/conf.c"
   1:drivers/conf.c **** #include "conf.h"
   2:drivers/conf.c **** 
   3:drivers/conf.c **** ErrorStatus HSEStartUpStatus;
   4:drivers/conf.c **** // 串口相关配置
   5:drivers/conf.c **** void USART_Conf(void)
   6:drivers/conf.c **** {
  25              		.loc 1 6 0
  26              		.cfi_startproc
  27              		@ args = 0, pretend = 0, frame = 16
  28              		@ frame_needed = 0, uses_anonymous_args = 0
  29 0000 10B5     		push	{r4, lr}
  30              		.cfi_def_cfa_offset 8
  31              		.cfi_offset 4, -8
  32              		.cfi_offset 14, -4
  33 0002 84B0     		sub	sp, sp, #16
  34              		.cfi_def_cfa_offset 24
   7:drivers/conf.c ****   USART_InitTypeDef USART_InitStructure;
   8:drivers/conf.c ****   //串口配置： 波特率 115200 数据位 8 停止位 1  奇偶位 NONE  
   9:drivers/conf.c ****   USART_InitStructure.USART_BaudRate = 115200;
  35              		.loc 1 9 0
  36 0004 4FF4E133 		mov	r3, #115200
  37 0008 0093     		str	r3, [sp]
  10:drivers/conf.c ****   USART_InitStructure.USART_WordLength = USART_WordLength_8b;
  38              		.loc 1 10 0
  39 000a 0023     		movs	r3, #0
  40 000c ADF80430 		strh	r3, [sp, #4]	@ movhi
  11:drivers/conf.c ****   USART_InitStructure.USART_StopBits = USART_StopBits_1;
  41              		.loc 1 11 0
  42 0010 ADF80630 		strh	r3, [sp, #6]	@ movhi
  12:drivers/conf.c ****   USART_InitStructure.USART_Parity =  USART_Parity_No ;
  43              		.loc 1 12 0
  44 0014 ADF80830 		strh	r3, [sp, #8]	@ movhi
  13:drivers/conf.c ****   USART_InitStructure.USART_HardwareFlowControl = USART_HardwareFlowControl_None;
ARM GAS  /tmp/ccztuyKP.s 			page 2


  45              		.loc 1 13 0
  46 0018 ADF80C30 		strh	r3, [sp, #12]	@ movhi
  14:drivers/conf.c ****   USART_InitStructure.USART_Mode = USART_Mode_Rx | USART_Mode_Tx;
  47              		.loc 1 14 0
  48 001c 0C23     		movs	r3, #12
  49 001e ADF80A30 		strh	r3, [sp, #10]	@ movhi
  15:drivers/conf.c ****   //初始化串口
  16:drivers/conf.c ****   USART_Init(USART2, &USART_InitStructure);
  50              		.loc 1 16 0
  51 0022 054C     		ldr	r4, .L3
  52 0024 6946     		mov	r1, sp
  53 0026 2046     		mov	r0, r4
  54 0028 FFF7FEFF 		bl	USART_Init
  55              	.LVL0:
  17:drivers/conf.c ****   //启动串口
  18:drivers/conf.c ****   USART_Cmd(USART2, ENABLE);
  56              		.loc 1 18 0
  57 002c 0121     		movs	r1, #1
  58 002e 2046     		mov	r0, r4
  59 0030 FFF7FEFF 		bl	USART_Cmd
  60              	.LVL1:
  19:drivers/conf.c **** }
  61              		.loc 1 19 0
  62 0034 04B0     		add	sp, sp, #16
  63              		.cfi_def_cfa_offset 8
  64              		@ sp needed
  65 0036 10BD     		pop	{r4, pc}
  66              	.L4:
  67              		.align	2
  68              	.L3:
  69 0038 00440040 		.word	1073759232
  70              		.cfi_endproc
  71              	.LFE64:
  72              		.size	USART_Conf, .-USART_Conf
  73              		.align	1
  74              		.global	I2C_Conf
  75              		.syntax unified
  76              		.thumb
  77              		.thumb_func
  78              		.fpu softvfp
  79              		.type	I2C_Conf, %function
  80              	I2C_Conf:
  81              	.LFB65:
  20:drivers/conf.c **** 
  21:drivers/conf.c **** // I2C通讯的配置，主要用来和陀螺仪芯片通讯
  22:drivers/conf.c **** void I2C_Conf(void)
  23:drivers/conf.c **** {
  82              		.loc 1 23 0
  83              		.cfi_startproc
  84              		@ args = 0, pretend = 0, frame = 16
  85              		@ frame_needed = 0, uses_anonymous_args = 0
  86 003c 10B5     		push	{r4, lr}
  87              		.cfi_def_cfa_offset 8
  88              		.cfi_offset 4, -8
  89              		.cfi_offset 14, -4
  90 003e 84B0     		sub	sp, sp, #16
  91              		.cfi_def_cfa_offset 24
ARM GAS  /tmp/ccztuyKP.s 			page 3


  24:drivers/conf.c ****   I2C_InitTypeDef  I2C_InitStructure; 
  25:drivers/conf.c **** 
  26:drivers/conf.c ****   /*[> I2C configuration <]*/
  27:drivers/conf.c ****   I2C_InitStructure.I2C_Mode = I2C_Mode_I2C;
  92              		.loc 1 27 0
  93 0040 0023     		movs	r3, #0
  94 0042 ADF80430 		strh	r3, [sp, #4]	@ movhi
  28:drivers/conf.c ****   I2C_InitStructure.I2C_DutyCycle = I2C_DutyCycle_2;
  95              		.loc 1 28 0
  96 0046 4BF6FF73 		movw	r3, #49151
  97 004a ADF80630 		strh	r3, [sp, #6]	@ movhi
  29:drivers/conf.c ****   I2C_InitStructure.I2C_OwnAddress1 = I2C_SLAVE_ADDRESS;
  98              		.loc 1 29 0
  99 004e D023     		movs	r3, #208
 100 0050 ADF80830 		strh	r3, [sp, #8]	@ movhi
  30:drivers/conf.c ****   I2C_InitStructure.I2C_Ack = I2C_Ack_Enable;
 101              		.loc 1 30 0
 102 0054 4FF48063 		mov	r3, #1024
 103 0058 ADF80A30 		strh	r3, [sp, #10]	@ movhi
  31:drivers/conf.c ****   I2C_InitStructure.I2C_AcknowledgedAddress = I2C_AcknowledgedAddress_7bit;
 104              		.loc 1 31 0
 105 005c 4FF48043 		mov	r3, #16384
 106 0060 ADF80C30 		strh	r3, [sp, #12]	@ movhi
  32:drivers/conf.c ****   I2C_InitStructure.I2C_ClockSpeed = I2C_Speed;
 107              		.loc 1 32 0
 108 0064 04A9     		add	r1, sp, #16
 109 0066 064B     		ldr	r3, .L7
 110 0068 41F8103D 		str	r3, [r1, #-16]!
  33:drivers/conf.c ****   
  34:drivers/conf.c ****   /*[> Apply I2C configuration after enabling it <]*/
  35:drivers/conf.c ****   I2C_Init(MPU_I2Cx, &I2C_InitStructure);
 111              		.loc 1 35 0
 112 006c 054C     		ldr	r4, .L7+4
 113 006e 2046     		mov	r0, r4
 114 0070 FFF7FEFF 		bl	I2C_Init
 115              	.LVL2:
  36:drivers/conf.c ****   /*[> I2C Peripheral Enable <]*/
  37:drivers/conf.c ****   I2C_Cmd(MPU_I2Cx, ENABLE);
 116              		.loc 1 37 0
 117 0074 0121     		movs	r1, #1
 118 0076 2046     		mov	r0, r4
 119 0078 FFF7FEFF 		bl	I2C_Cmd
 120              	.LVL3:
  38:drivers/conf.c **** }
 121              		.loc 1 38 0
 122 007c 04B0     		add	sp, sp, #16
 123              		.cfi_def_cfa_offset 8
 124              		@ sp needed
 125 007e 10BD     		pop	{r4, pc}
 126              	.L8:
 127              		.align	2
 128              	.L7:
 129 0080 801A0600 		.word	400000
 130 0084 00580040 		.word	1073764352
 131              		.cfi_endproc
 132              	.LFE65:
 133              		.size	I2C_Conf, .-I2C_Conf
ARM GAS  /tmp/ccztuyKP.s 			page 4


 134              		.align	1
 135              		.global	RCC_Conf
 136              		.syntax unified
 137              		.thumb
 138              		.thumb_func
 139              		.fpu softvfp
 140              		.type	RCC_Conf, %function
 141              	RCC_Conf:
 142              	.LFB66:
  39:drivers/conf.c **** 
  40:drivers/conf.c **** void RCC_Conf(void)
  41:drivers/conf.c **** {
 143              		.loc 1 41 0
 144              		.cfi_startproc
 145              		@ args = 0, pretend = 0, frame = 0
 146              		@ frame_needed = 0, uses_anonymous_args = 0
 147 0088 10B5     		push	{r4, lr}
 148              		.cfi_def_cfa_offset 8
 149              		.cfi_offset 4, -8
 150              		.cfi_offset 14, -4
  42:drivers/conf.c ****   //复位RCC外部设备寄存器到默认值
  43:drivers/conf.c ****   RCC_DeInit();  
 151              		.loc 1 43 0
 152 008a FFF7FEFF 		bl	RCC_DeInit
 153              	.LVL4:
  44:drivers/conf.c ****   //打开外部高速晶振
  45:drivers/conf.c ****   RCC_HSEConfig(RCC_HSE_ON); 
 154              		.loc 1 45 0
 155 008e 4FF48030 		mov	r0, #65536
 156 0092 FFF7FEFF 		bl	RCC_HSEConfig
 157              	.LVL5:
  46:drivers/conf.c ****   //等待外部高速时钟准备好
  47:drivers/conf.c ****   HSEStartUpStatus = RCC_WaitForHSEStartUp(); 
 158              		.loc 1 47 0
 159 0096 FFF7FEFF 		bl	RCC_WaitForHSEStartUp
 160              	.LVL6:
 161 009a 254B     		ldr	r3, .L17
 162 009c 1870     		strb	r0, [r3]
  48:drivers/conf.c ****   if(HSEStartUpStatus == SUCCESS){
 163              		.loc 1 48 0
 164 009e 0128     		cmp	r0, #1
 165 00a0 16D0     		beq	.L16
 166              	.L10:
  49:drivers/conf.c ****   FLASH_PrefetchBufferCmd(FLASH_PrefetchBuffer_Enable);
  50:drivers/conf.c ****   FLASH_SetLatency(FLASH_Latency_2);
  51:drivers/conf.c ****   //配置AHB(HCLK)时钟=SYSCLK
  52:drivers/conf.c ****   RCC_HCLKConfig(RCC_SYSCLK_Div1);
  53:drivers/conf.c ****   //配置APB2(PCLK2)钟=AHB时钟
  54:drivers/conf.c ****   RCC_PCLK2Config(RCC_HCLK_Div1); 
  55:drivers/conf.c ****   //配置APB1(PCLK1)钟=AHB 1/2时钟
  56:drivers/conf.c ****   RCC_PCLK1Config(RCC_HCLK_Div2);  
  57:drivers/conf.c ****   //配置ADC时钟=PCLK2 1/4
  58:drivers/conf.c ****   RCC_ADCCLKConfig(RCC_PCLK2_Div4); 
  59:drivers/conf.c ****   //配置PLL时钟 == 外部高速晶体时钟*9
  60:drivers/conf.c ****   RCC_PLLConfig(RCC_PLLSource_HSE_Div1, RCC_PLLMul_9); 
  61:drivers/conf.c ****   //配置ADC时钟= PCLK2/4
  62:drivers/conf.c ****   RCC_ADCCLKConfig(RCC_PCLK2_Div4);
ARM GAS  /tmp/ccztuyKP.s 			page 5


  63:drivers/conf.c ****   //使能PLL时钟
  64:drivers/conf.c ****   RCC_PLLCmd(ENABLE);  
  65:drivers/conf.c ****   //等待PLL时钟就绪
  66:drivers/conf.c ****   while(RCC_GetFlagStatus(RCC_FLAG_PLLRDY) == RESET)  {
  67:drivers/conf.c ****   }
  68:drivers/conf.c ****   //配置系统时钟 = PLL时钟
  69:drivers/conf.c ****   RCC_SYSCLKConfig(RCC_SYSCLKSource_PLLCLK); 
  70:drivers/conf.c ****   //检查PLL时钟是否作为系统时钟
  71:drivers/conf.c ****   while(RCC_GetSYSCLKSource() != 0x08)  {
  72:drivers/conf.c ****   }
  73:drivers/conf.c ****   }
  74:drivers/conf.c ****   
  75:drivers/conf.c ****   RCC_APB2PeriphClockCmd(RCC_APB2Periph_AFIO, ENABLE);
 167              		.loc 1 75 0
 168 00a2 0121     		movs	r1, #1
 169 00a4 0846     		mov	r0, r1
 170 00a6 FFF7FEFF 		bl	RCC_APB2PeriphClockCmd
 171              	.LVL7:
  76:drivers/conf.c ****   //Enable GPIO timer
  77:drivers/conf.c ****   RCC_APB2PeriphClockCmd(RCC_APB2Periph_GPIOA, ENABLE);
 172              		.loc 1 77 0
 173 00aa 0121     		movs	r1, #1
 174 00ac 0420     		movs	r0, #4
 175 00ae FFF7FEFF 		bl	RCC_APB2PeriphClockCmd
 176              	.LVL8:
  78:drivers/conf.c ****   /*RCC_APB2PeriphClockCmd(RCC_APB2Periph_GPIOB, ENABLE);//使能I2C的IO口    */
  79:drivers/conf.c **** 
  80:drivers/conf.c ****   RCC_APB1PeriphClockCmd(RCC_APB1Periph_I2C2, ENABLE);//使能I2C的IO口    
 177              		.loc 1 80 0
 178 00b2 0121     		movs	r1, #1
 179 00b4 4FF48000 		mov	r0, #4194304
 180 00b8 FFF7FEFF 		bl	RCC_APB1PeriphClockCmd
 181              	.LVL9:
  81:drivers/conf.c ****   /*RCC_APB1PeriphClockCmd(RCC_APB1Periph_I2C1, ENABLE);//使能I2C的IO口    */
  82:drivers/conf.c **** 
  83:drivers/conf.c ****   //Enable serial timer
  84:drivers/conf.c ****   RCC_APB1PeriphClockCmd(RCC_APB1Periph_USART2, ENABLE);
 182              		.loc 1 84 0
 183 00bc 0121     		movs	r1, #1
 184 00be 4FF40030 		mov	r0, #131072
 185 00c2 FFF7FEFF 		bl	RCC_APB1PeriphClockCmd
 186              	.LVL10:
  85:drivers/conf.c **** 
  86:drivers/conf.c ****   RCC_APB1PeriphClockCmd(RCC_APB1Periph_TIM2, ENABLE); //配置RCC，使能TIM2
 187              		.loc 1 86 0
 188 00c6 0121     		movs	r1, #1
 189 00c8 0846     		mov	r0, r1
 190 00ca FFF7FEFF 		bl	RCC_APB1PeriphClockCmd
 191              	.LVL11:
 192 00ce 10BD     		pop	{r4, pc}
 193              	.L16:
  49:drivers/conf.c ****   FLASH_SetLatency(FLASH_Latency_2);
 194              		.loc 1 49 0
 195 00d0 1020     		movs	r0, #16
 196 00d2 FFF7FEFF 		bl	FLASH_PrefetchBufferCmd
 197              	.LVL12:
  50:drivers/conf.c ****   //配置AHB(HCLK)时钟=SYSCLK
ARM GAS  /tmp/ccztuyKP.s 			page 6


 198              		.loc 1 50 0
 199 00d6 0220     		movs	r0, #2
 200 00d8 FFF7FEFF 		bl	FLASH_SetLatency
 201              	.LVL13:
  52:drivers/conf.c ****   //配置APB2(PCLK2)钟=AHB时钟
 202              		.loc 1 52 0
 203 00dc 0020     		movs	r0, #0
 204 00de FFF7FEFF 		bl	RCC_HCLKConfig
 205              	.LVL14:
  54:drivers/conf.c ****   //配置APB1(PCLK1)钟=AHB 1/2时钟
 206              		.loc 1 54 0
 207 00e2 0020     		movs	r0, #0
 208 00e4 FFF7FEFF 		bl	RCC_PCLK2Config
 209              	.LVL15:
  56:drivers/conf.c ****   //配置ADC时钟=PCLK2 1/4
 210              		.loc 1 56 0
 211 00e8 4FF48060 		mov	r0, #1024
 212 00ec FFF7FEFF 		bl	RCC_PCLK1Config
 213              	.LVL16:
  58:drivers/conf.c ****   //配置PLL时钟 == 外部高速晶体时钟*9
 214              		.loc 1 58 0
 215 00f0 4FF48040 		mov	r0, #16384
 216 00f4 FFF7FEFF 		bl	RCC_ADCCLKConfig
 217              	.LVL17:
  60:drivers/conf.c ****   //配置ADC时钟= PCLK2/4
 218              		.loc 1 60 0
 219 00f8 4FF4E011 		mov	r1, #1835008
 220 00fc 4FF48030 		mov	r0, #65536
 221 0100 FFF7FEFF 		bl	RCC_PLLConfig
 222              	.LVL18:
  62:drivers/conf.c ****   //使能PLL时钟
 223              		.loc 1 62 0
 224 0104 4FF48040 		mov	r0, #16384
 225 0108 FFF7FEFF 		bl	RCC_ADCCLKConfig
 226              	.LVL19:
  64:drivers/conf.c ****   //等待PLL时钟就绪
 227              		.loc 1 64 0
 228 010c 0120     		movs	r0, #1
 229 010e FFF7FEFF 		bl	RCC_PLLCmd
 230              	.LVL20:
  66:drivers/conf.c ****   }
 231              		.loc 1 66 0
 232 0112 3924     		movs	r4, #57
 233              	.L11:
  66:drivers/conf.c ****   }
 234              		.loc 1 66 0 is_stmt 0 discriminator 1
 235 0114 2046     		mov	r0, r4
 236 0116 FFF7FEFF 		bl	RCC_GetFlagStatus
 237              	.LVL21:
 238 011a 0028     		cmp	r0, #0
 239 011c FAD0     		beq	.L11
  69:drivers/conf.c ****   //检查PLL时钟是否作为系统时钟
 240              		.loc 1 69 0 is_stmt 1
 241 011e 0220     		movs	r0, #2
 242 0120 FFF7FEFF 		bl	RCC_SYSCLKConfig
 243              	.LVL22:
 244              	.L12:
ARM GAS  /tmp/ccztuyKP.s 			page 7


  71:drivers/conf.c ****   }
 245              		.loc 1 71 0 discriminator 1
 246 0124 FFF7FEFF 		bl	RCC_GetSYSCLKSource
 247              	.LVL23:
 248 0128 0828     		cmp	r0, #8
 249 012a FBD1     		bne	.L12
 250 012c B9E7     		b	.L10
 251              	.L18:
 252 012e 00BF     		.align	2
 253              	.L17:
 254 0130 00000000 		.word	.LANCHOR0
 255              		.cfi_endproc
 256              	.LFE66:
 257              		.size	RCC_Conf, .-RCC_Conf
 258              		.align	1
 259              		.global	TIMER_Conf
 260              		.syntax unified
 261              		.thumb
 262              		.thumb_func
 263              		.fpu softvfp
 264              		.type	TIMER_Conf, %function
 265              	TIMER_Conf:
 266              	.LFB67:
  87:drivers/conf.c **** 
  88:drivers/conf.c ****   //开启AFIO时钟
  89:drivers/conf.c **** }
  90:drivers/conf.c **** 
  91:drivers/conf.c **** // 定时器设置 
  92:drivers/conf.c **** void TIMER_Conf(void)
  93:drivers/conf.c **** {
 267              		.loc 1 93 0
 268              		.cfi_startproc
 269              		@ args = 0, pretend = 0, frame = 16
 270              		@ frame_needed = 0, uses_anonymous_args = 0
 271 0134 00B5     		push	{lr}
 272              		.cfi_def_cfa_offset 4
 273              		.cfi_offset 14, -4
 274 0136 85B0     		sub	sp, sp, #20
 275              		.cfi_def_cfa_offset 24
  94:drivers/conf.c ****   TIM_TimeBaseInitTypeDef  TIM_TimeBaseStructure;
  95:drivers/conf.c ****   
  96:drivers/conf.c ****   TIM_TimeBaseStructure.TIM_Prescaler = 71;  //时钟预分频数 例如:时钟频率=72/(时钟预
 276              		.loc 1 96 0
 277 0138 4723     		movs	r3, #71
 278 013a ADF80430 		strh	r3, [sp, #4]	@ movhi
  97:drivers/conf.c ****   TIM_TimeBaseStructure.TIM_CounterMode = TIM_CounterMode_Up; ////定时器模式 向上计数  
 279              		.loc 1 97 0
 280 013e 0023     		movs	r3, #0
 281 0140 ADF80630 		strh	r3, [sp, #6]	@ movhi
  98:drivers/conf.c ****   TIM_TimeBaseStructure.TIM_Period = 0xffff;//自动重装载寄存器周期的值(定时时间)累
 282              		.loc 1 98 0
 283 0144 4FF6FF72 		movw	r2, #65535
 284 0148 ADF80820 		strh	r2, [sp, #8]	@ movhi
  99:drivers/conf.c ****   TIM_TimeBaseStructure.TIM_ClockDivision = 0; ////时间分割值  
 285              		.loc 1 99 0
 286 014c ADF80A30 		strh	r3, [sp, #10]	@ movhi
 100:drivers/conf.c ****   TIM_TimeBaseStructure.TIM_RepetitionCounter = 0;
ARM GAS  /tmp/ccztuyKP.s 			page 8


 287              		.loc 1 100 0
 288 0150 8DF80C30 		strb	r3, [sp, #12]
 101:drivers/conf.c ****   TIM_TimeBaseInit(TIM2, &TIM_TimeBaseStructure); //初始化定时器2
 289              		.loc 1 101 0
 290 0154 01A9     		add	r1, sp, #4
 291 0156 4FF08040 		mov	r0, #1073741824
 292 015a FFF7FEFF 		bl	TIM_TimeBaseInit
 293              	.LVL24:
 102:drivers/conf.c ****   TIM_ClearFlag(TIM2, TIM_FLAG_Update);
 294              		.loc 1 102 0
 295 015e 0121     		movs	r1, #1
 296 0160 4FF08040 		mov	r0, #1073741824
 297 0164 FFF7FEFF 		bl	TIM_ClearFlag
 298              	.LVL25:
 103:drivers/conf.c ****   TIM_ITConfig(TIM2, TIM_IT_Update, ENABLE); //打开中断 溢出中断  
 299              		.loc 1 103 0
 300 0168 0122     		movs	r2, #1
 301 016a 1146     		mov	r1, r2
 302 016c 4FF08040 		mov	r0, #1073741824
 303 0170 FFF7FEFF 		bl	TIM_ITConfig
 304              	.LVL26:
 104:drivers/conf.c **** 
 105:drivers/conf.c **** }
 305              		.loc 1 105 0
 306 0174 05B0     		add	sp, sp, #20
 307              		.cfi_def_cfa_offset 4
 308              		@ sp needed
 309 0176 5DF804FB 		ldr	pc, [sp], #4
 310              		.cfi_endproc
 311              	.LFE67:
 312              		.size	TIMER_Conf, .-TIMER_Conf
 313              		.align	1
 314              		.global	GPIO_Conf
 315              		.syntax unified
 316              		.thumb
 317              		.thumb_func
 318              		.fpu softvfp
 319              		.type	GPIO_Conf, %function
 320              	GPIO_Conf:
 321              	.LFB68:
 106:drivers/conf.c **** 
 107:drivers/conf.c **** 
 108:drivers/conf.c **** 
 109:drivers/conf.c **** void GPIO_Conf(void)
 110:drivers/conf.c **** {
 322              		.loc 1 110 0
 323              		.cfi_startproc
 324              		@ args = 0, pretend = 0, frame = 8
 325              		@ frame_needed = 0, uses_anonymous_args = 0
 326 017a 30B5     		push	{r4, r5, lr}
 327              		.cfi_def_cfa_offset 12
 328              		.cfi_offset 4, -12
 329              		.cfi_offset 5, -8
 330              		.cfi_offset 14, -4
 331 017c 83B0     		sub	sp, sp, #12
 332              		.cfi_def_cfa_offset 24
 111:drivers/conf.c ****   GPIO_InitTypeDef GPIO_InitStructure;
ARM GAS  /tmp/ccztuyKP.s 			page 9


 112:drivers/conf.c ****   
 113:drivers/conf.c ****   //USARTx_Tx为复合推挽输出
 114:drivers/conf.c ****   GPIO_InitStructure.GPIO_Pin = GPIO_TxPin;
 333              		.loc 1 114 0
 334 017e 0425     		movs	r5, #4
 335 0180 ADF80450 		strh	r5, [sp, #4]	@ movhi
 115:drivers/conf.c ****   GPIO_InitStructure.GPIO_Speed = GPIO_Speed_50MHz;
 336              		.loc 1 115 0
 337 0184 0323     		movs	r3, #3
 338 0186 8DF80630 		strb	r3, [sp, #6]
 116:drivers/conf.c ****   GPIO_InitStructure.GPIO_Mode = GPIO_Mode_AF_PP;
 339              		.loc 1 116 0
 340 018a 1823     		movs	r3, #24
 341 018c 8DF80730 		strb	r3, [sp, #7]
 117:drivers/conf.c ****   GPIO_Init(GPIOA, &GPIO_InitStructure);
 342              		.loc 1 117 0
 343 0190 134C     		ldr	r4, .L23
 344 0192 0DEB0501 		add	r1, sp, r5
 345 0196 2046     		mov	r0, r4
 346 0198 FFF7FEFF 		bl	GPIO_Init
 347              	.LVL27:
 118:drivers/conf.c ****   
 119:drivers/conf.c ****   //USARTx_Rx 为浮空输入
 120:drivers/conf.c ****   GPIO_InitStructure.GPIO_Pin = GPIO_RxPin;
 348              		.loc 1 120 0
 349 019c 0823     		movs	r3, #8
 350 019e ADF80430 		strh	r3, [sp, #4]	@ movhi
 121:drivers/conf.c ****   GPIO_InitStructure.GPIO_Mode = GPIO_Mode_IN_FLOATING;
 351              		.loc 1 121 0
 352 01a2 8DF80750 		strb	r5, [sp, #7]
 122:drivers/conf.c ****   GPIO_Init(GPIOA, &GPIO_InitStructure);
 353              		.loc 1 122 0
 354 01a6 0DEB0501 		add	r1, sp, r5
 355 01aa 2046     		mov	r0, r4
 356 01ac FFF7FEFF 		bl	GPIO_Init
 357              	.LVL28:
 123:drivers/conf.c ****   
 124:drivers/conf.c ****   //HC-SR04 
 125:drivers/conf.c ****   GPIO_InitStructure.GPIO_Pin = TRIG_Pin; 
 358              		.loc 1 125 0
 359 01b0 0223     		movs	r3, #2
 360 01b2 ADF80430 		strh	r3, [sp, #4]	@ movhi
 126:drivers/conf.c ****   GPIO_InitStructure.GPIO_Mode = GPIO_Mode_Out_PP;
 361              		.loc 1 126 0
 362 01b6 1023     		movs	r3, #16
 363 01b8 8DF80730 		strb	r3, [sp, #7]
 127:drivers/conf.c ****   GPIO_Init(GPIOA, &GPIO_InitStructure);
 364              		.loc 1 127 0
 365 01bc 0DEB0501 		add	r1, sp, r5
 366 01c0 2046     		mov	r0, r4
 367 01c2 FFF7FEFF 		bl	GPIO_Init
 368              	.LVL29:
 128:drivers/conf.c ****   GPIO_InitStructure.GPIO_Pin = ECHO_Pin; 
 369              		.loc 1 128 0
 370 01c6 0123     		movs	r3, #1
 371 01c8 ADF80430 		strh	r3, [sp, #4]	@ movhi
 129:drivers/conf.c ****   GPIO_InitStructure.GPIO_Mode = GPIO_Mode_IN_FLOATING;
ARM GAS  /tmp/ccztuyKP.s 			page 10


 372              		.loc 1 129 0
 373 01cc 8DF80750 		strb	r5, [sp, #7]
 130:drivers/conf.c ****   GPIO_Init(GPIOA, &GPIO_InitStructure);
 374              		.loc 1 130 0
 375 01d0 0DEB0501 		add	r1, sp, r5
 376 01d4 2046     		mov	r0, r4
 377 01d6 FFF7FEFF 		bl	GPIO_Init
 378              	.LVL30:
 131:drivers/conf.c **** 
 132:drivers/conf.c ****   //I2C配置
 133:drivers/conf.c ****   /*GPIO_InitStructure.GPIO_Pin = SDA_Pin | SCL_Pin;*/
 134:drivers/conf.c ****   /*GPIO_InitStructure.GPIO_Mode = GPIO_Mode_Out_PP;// 开漏输出*/
 135:drivers/conf.c ****   /*GPIO_Init(GPIOB, &GPIO_InitStructure);//初始化结构体配置*/
 136:drivers/conf.c **** }
 379              		.loc 1 136 0
 380 01da 03B0     		add	sp, sp, #12
 381              		.cfi_def_cfa_offset 12
 382              		@ sp needed
 383 01dc 30BD     		pop	{r4, r5, pc}
 384              	.L24:
 385 01de 00BF     		.align	2
 386              	.L23:
 387 01e0 00080140 		.word	1073809408
 388              		.cfi_endproc
 389              	.LFE68:
 390              		.size	GPIO_Conf, .-GPIO_Conf
 391              		.align	1
 392              		.global	NVIC_Conf
 393              		.syntax unified
 394              		.thumb
 395              		.thumb_func
 396              		.fpu softvfp
 397              		.type	NVIC_Conf, %function
 398              	NVIC_Conf:
 399              	.LFB69:
 137:drivers/conf.c **** 
 138:drivers/conf.c **** // 系统中断控制
 139:drivers/conf.c **** void NVIC_Conf(void)
 140:drivers/conf.c **** { 
 400              		.loc 1 140 0
 401              		.cfi_startproc
 402              		@ args = 0, pretend = 0, frame = 8
 403              		@ frame_needed = 0, uses_anonymous_args = 0
 404 01e4 00B5     		push	{lr}
 405              		.cfi_def_cfa_offset 4
 406              		.cfi_offset 14, -4
 407 01e6 83B0     		sub	sp, sp, #12
 408              		.cfi_def_cfa_offset 16
 141:drivers/conf.c ****   NVIC_InitTypeDef NVIC_InitStructure;
 142:drivers/conf.c ****   // 设置中断向量表位置 FLASH:0x08000000
 143:drivers/conf.c ****   NVIC_SetVectorTable(NVIC_VectTab_FLASH, 0x0); 
 409              		.loc 1 143 0
 410 01e8 0021     		movs	r1, #0
 411 01ea 4FF00060 		mov	r0, #134217728
 412 01ee FFF7FEFF 		bl	NVIC_SetVectorTable
 413              	.LVL31:
 144:drivers/conf.c **** 
ARM GAS  /tmp/ccztuyKP.s 			page 11


 145:drivers/conf.c ****   // 打开TIM2中断
 146:drivers/conf.c ****   NVIC_InitStructure.NVIC_IRQChannel = TIM2_IRQn;
 414              		.loc 1 146 0
 415 01f2 1C23     		movs	r3, #28
 416 01f4 8DF80430 		strb	r3, [sp, #4]
 147:drivers/conf.c ****   NVIC_InitStructure.NVIC_IRQChannelPreemptionPriority = 0;
 417              		.loc 1 147 0
 418 01f8 0023     		movs	r3, #0
 419 01fa 8DF80530 		strb	r3, [sp, #5]
 148:drivers/conf.c ****   NVIC_InitStructure.NVIC_IRQChannelSubPriority = 0;
 420              		.loc 1 148 0
 421 01fe 8DF80630 		strb	r3, [sp, #6]
 149:drivers/conf.c ****   NVIC_InitStructure.NVIC_IRQChannelCmd = ENABLE;
 422              		.loc 1 149 0
 423 0202 0123     		movs	r3, #1
 424 0204 8DF80730 		strb	r3, [sp, #7]
 150:drivers/conf.c ****   NVIC_Init(&NVIC_InitStructure);
 425              		.loc 1 150 0
 426 0208 01A8     		add	r0, sp, #4
 427 020a FFF7FEFF 		bl	NVIC_Init
 428              	.LVL32:
 151:drivers/conf.c **** }
 429              		.loc 1 151 0
 430 020e 03B0     		add	sp, sp, #12
 431              		.cfi_def_cfa_offset 4
 432              		@ sp needed
 433 0210 5DF804FB 		ldr	pc, [sp], #4
 434              		.cfi_endproc
 435              	.LFE69:
 436              		.size	NVIC_Conf, .-NVIC_Conf
 437              		.global	HSEStartUpStatus
 438              		.bss
 439              		.set	.LANCHOR0,. + 0
 440              		.type	HSEStartUpStatus, %object
 441              		.size	HSEStartUpStatus, 1
 442              	HSEStartUpStatus:
 443 0000 00       		.space	1
 444              		.text
 445              	.Letext0:
 446              		.file 2 "/usr/arm-none-eabi/include/machine/_default_types.h"
 447              		.file 3 "/usr/arm-none-eabi/include/sys/_stdint.h"
 448              		.file 4 "/home/enbin/Documents/code/STM/stm32-quadrocopter/cmsis/core_cm3.h"
 449              		.file 5 "/home/enbin/Documents/code/STM/stm32-quadrocopter/lib/inc/system_stm32f10x.h"
 450              		.file 6 "/home/enbin/Documents/code/STM/stm32-quadrocopter/lib/inc/stm32f10x.h"
 451              		.file 7 "/home/enbin/Documents/code/STM/stm32-quadrocopter/lib/inc/stm32f10x_i2c.h"
 452              		.file 8 "/home/enbin/Documents/code/STM/stm32-quadrocopter/lib/inc/stm32f10x_tim.h"
 453              		.file 9 "/home/enbin/Documents/code/STM/stm32-quadrocopter/lib/inc/stm32f10x_gpio.h"
 454              		.file 10 "/home/enbin/Documents/code/STM/stm32-quadrocopter/lib/inc/stm32f10x_usart.h"
 455              		.file 11 "/home/enbin/Documents/code/STM/stm32-quadrocopter/lib/inc/misc.h"
 456              		.file 12 "/home/enbin/Documents/code/STM/stm32-quadrocopter/drivers/MPU6050.h"
 457              		.file 13 "/usr/arm-none-eabi/include/sys/lock.h"
 458              		.file 14 "/usr/arm-none-eabi/include/sys/_types.h"
 459              		.file 15 "/usr/lib/gcc/arm-none-eabi/6.1.1/include/stddef.h"
 460              		.file 16 "/usr/arm-none-eabi/include/sys/reent.h"
 461              		.file 17 "/usr/arm-none-eabi/include/stdlib.h"
 462              		.file 18 "/usr/arm-none-eabi/include/math.h"
 463              		.file 19 "/usr/arm-none-eabi/include/sys/errno.h"
ARM GAS  /tmp/ccztuyKP.s 			page 12


 464              		.file 20 "/home/enbin/Documents/code/STM/stm32-quadrocopter/project/conf.h"
 465              		.file 21 "/home/enbin/Documents/code/STM/stm32-quadrocopter/lib/inc/stm32f10x_rcc.h"
 466              		.file 22 "/home/enbin/Documents/code/STM/stm32-quadrocopter/lib/inc/stm32f10x_flash.h"
 467              		.section	.debug_info,"",%progbits
 468              	.Ldebug_info0:
 469 0000 E4160000 		.4byte	0x16e4
 470 0004 0400     		.2byte	0x4
 471 0006 00000000 		.4byte	.Ldebug_abbrev0
 472 000a 04       		.byte	0x4
 473 000b 01       		.uleb128 0x1
 474 000c A2040000 		.4byte	.LASF331
 475 0010 01       		.byte	0x1
 476 0011 4E050000 		.4byte	.LASF332
 477 0015 F6000000 		.4byte	.LASF333
 478 0019 00000000 		.4byte	.Ltext0
 479 001d 14020000 		.4byte	.Letext0-.Ltext0
 480 0021 00000000 		.4byte	.Ldebug_line0
 481 0025 02       		.uleb128 0x2
 482 0026 78020000 		.4byte	.LASF284
 483 002a 01       		.byte	0x1
 484 002b 68010000 		.4byte	0x168
 485 002f 06       		.byte	0x6
 486 0030 A7       		.byte	0xa7
 487 0031 68010000 		.4byte	0x168
 488 0035 03       		.uleb128 0x3
 489 0036 AB060000 		.4byte	.LASF0
 490 003a 72       		.sleb128 -14
 491 003b 03       		.uleb128 0x3
 492 003c 49070000 		.4byte	.LASF1
 493 0040 74       		.sleb128 -12
 494 0041 03       		.uleb128 0x3
 495 0042 3C080000 		.4byte	.LASF2
 496 0046 75       		.sleb128 -11
 497 0047 03       		.uleb128 0x3
 498 0048 62040000 		.4byte	.LASF3
 499 004c 76       		.sleb128 -10
 500 004d 03       		.uleb128 0x3
 501 004e E6080000 		.4byte	.LASF4
 502 0052 7B       		.sleb128 -5
 503 0053 03       		.uleb128 0x3
 504 0054 DA0C0000 		.4byte	.LASF5
 505 0058 7C       		.sleb128 -4
 506 0059 03       		.uleb128 0x3
 507 005a 240F0000 		.4byte	.LASF6
 508 005e 7E       		.sleb128 -2
 509 005f 03       		.uleb128 0x3
 510 0060 C5020000 		.4byte	.LASF7
 511 0064 7F       		.sleb128 -1
 512 0065 04       		.uleb128 0x4
 513 0066 EE060000 		.4byte	.LASF8
 514 006a 00       		.byte	0
 515 006b 04       		.uleb128 0x4
 516 006c 870C0000 		.4byte	.LASF9
 517 0070 01       		.byte	0x1
 518 0071 04       		.uleb128 0x4
 519 0072 6C020000 		.4byte	.LASF10
 520 0076 02       		.byte	0x2
ARM GAS  /tmp/ccztuyKP.s 			page 13


 521 0077 04       		.uleb128 0x4
 522 0078 980F0000 		.4byte	.LASF11
 523 007c 03       		.byte	0x3
 524 007d 04       		.uleb128 0x4
 525 007e DA000000 		.4byte	.LASF12
 526 0082 04       		.byte	0x4
 527 0083 04       		.uleb128 0x4
 528 0084 610D0000 		.4byte	.LASF13
 529 0088 05       		.byte	0x5
 530 0089 04       		.uleb128 0x4
 531 008a A30C0000 		.4byte	.LASF14
 532 008e 06       		.byte	0x6
 533 008f 04       		.uleb128 0x4
 534 0090 87060000 		.4byte	.LASF15
 535 0094 07       		.byte	0x7
 536 0095 04       		.uleb128 0x4
 537 0096 00000000 		.4byte	.LASF16
 538 009a 08       		.byte	0x8
 539 009b 04       		.uleb128 0x4
 540 009c 190F0000 		.4byte	.LASF17
 541 00a0 09       		.byte	0x9
 542 00a1 04       		.uleb128 0x4
 543 00a2 60090000 		.4byte	.LASF18
 544 00a6 0A       		.byte	0xa
 545 00a7 04       		.uleb128 0x4
 546 00a8 25040000 		.4byte	.LASF19
 547 00ac 0B       		.byte	0xb
 548 00ad 04       		.uleb128 0x4
 549 00ae ED0D0000 		.4byte	.LASF20
 550 00b2 0C       		.byte	0xc
 551 00b3 04       		.uleb128 0x4
 552 00b4 260D0000 		.4byte	.LASF21
 553 00b8 0D       		.byte	0xd
 554 00b9 04       		.uleb128 0x4
 555 00ba 5F070000 		.4byte	.LASF22
 556 00be 0E       		.byte	0xe
 557 00bf 04       		.uleb128 0x4
 558 00c0 90000000 		.4byte	.LASF23
 559 00c4 0F       		.byte	0xf
 560 00c5 04       		.uleb128 0x4
 561 00c6 5E0F0000 		.4byte	.LASF24
 562 00ca 10       		.byte	0x10
 563 00cb 04       		.uleb128 0x4
 564 00cc B2090000 		.4byte	.LASF25
 565 00d0 11       		.byte	0x11
 566 00d1 04       		.uleb128 0x4
 567 00d2 AA0D0000 		.4byte	.LASF26
 568 00d6 12       		.byte	0x12
 569 00d7 04       		.uleb128 0x4
 570 00d8 78040000 		.4byte	.LASF27
 571 00dc 13       		.byte	0x13
 572 00dd 04       		.uleb128 0x4
 573 00de 020D0000 		.4byte	.LASF28
 574 00e2 14       		.byte	0x14
 575 00e3 04       		.uleb128 0x4
 576 00e4 660E0000 		.4byte	.LASF29
 577 00e8 15       		.byte	0x15
ARM GAS  /tmp/ccztuyKP.s 			page 14


 578 00e9 04       		.uleb128 0x4
 579 00ea 8F070000 		.4byte	.LASF30
 580 00ee 16       		.byte	0x16
 581 00ef 04       		.uleb128 0x4
 582 00f0 8E0E0000 		.4byte	.LASF31
 583 00f4 17       		.byte	0x17
 584 00f5 04       		.uleb128 0x4
 585 00f6 38040000 		.4byte	.LASF32
 586 00fa 18       		.byte	0x18
 587 00fb 04       		.uleb128 0x4
 588 00fc 510E0000 		.4byte	.LASF33
 589 0100 19       		.byte	0x19
 590 0101 04       		.uleb128 0x4
 591 0102 AD0A0000 		.4byte	.LASF34
 592 0106 1A       		.byte	0x1a
 593 0107 04       		.uleb128 0x4
 594 0108 7A060000 		.4byte	.LASF35
 595 010c 1B       		.byte	0x1b
 596 010d 04       		.uleb128 0x4
 597 010e 37010000 		.4byte	.LASF36
 598 0112 1C       		.byte	0x1c
 599 0113 04       		.uleb128 0x4
 600 0114 340B0000 		.4byte	.LASF37
 601 0118 1D       		.byte	0x1d
 602 0119 04       		.uleb128 0x4
 603 011a B2050000 		.4byte	.LASF38
 604 011e 1E       		.byte	0x1e
 605 011f 04       		.uleb128 0x4
 606 0120 22060000 		.4byte	.LASF39
 607 0124 1F       		.byte	0x1f
 608 0125 04       		.uleb128 0x4
 609 0126 F5030000 		.4byte	.LASF40
 610 012a 20       		.byte	0x20
 611 012b 04       		.uleb128 0x4
 612 012c 74090000 		.4byte	.LASF41
 613 0130 21       		.byte	0x21
 614 0131 04       		.uleb128 0x4
 615 0132 05080000 		.4byte	.LASF42
 616 0136 22       		.byte	0x22
 617 0137 04       		.uleb128 0x4
 618 0138 AE080000 		.4byte	.LASF43
 619 013c 23       		.byte	0x23
 620 013d 04       		.uleb128 0x4
 621 013e 85010000 		.4byte	.LASF44
 622 0142 24       		.byte	0x24
 623 0143 04       		.uleb128 0x4
 624 0144 4E0B0000 		.4byte	.LASF45
 625 0148 25       		.byte	0x25
 626 0149 04       		.uleb128 0x4
 627 014a BC050000 		.4byte	.LASF46
 628 014e 26       		.byte	0x26
 629 014f 04       		.uleb128 0x4
 630 0150 E4020000 		.4byte	.LASF47
 631 0154 27       		.byte	0x27
 632 0155 04       		.uleb128 0x4
 633 0156 F10A0000 		.4byte	.LASF48
 634 015a 28       		.byte	0x28
ARM GAS  /tmp/ccztuyKP.s 			page 15


 635 015b 04       		.uleb128 0x4
 636 015c 4C090000 		.4byte	.LASF49
 637 0160 29       		.byte	0x29
 638 0161 04       		.uleb128 0x4
 639 0162 92050000 		.4byte	.LASF50
 640 0166 2A       		.byte	0x2a
 641 0167 00       		.byte	0
 642 0168 05       		.uleb128 0x5
 643 0169 01       		.byte	0x1
 644 016a 06       		.byte	0x6
 645 016b 0E030000 		.4byte	.LASF51
 646 016f 06       		.uleb128 0x6
 647 0170 7B010000 		.4byte	.LASF53
 648 0174 02       		.byte	0x2
 649 0175 1D       		.byte	0x1d
 650 0176 7A010000 		.4byte	0x17a
 651 017a 05       		.uleb128 0x5
 652 017b 01       		.byte	0x1
 653 017c 08       		.byte	0x8
 654 017d 80030000 		.4byte	.LASF52
 655 0181 06       		.uleb128 0x6
 656 0182 550C0000 		.4byte	.LASF54
 657 0186 02       		.byte	0x2
 658 0187 29       		.byte	0x29
 659 0188 8C010000 		.4byte	0x18c
 660 018c 05       		.uleb128 0x5
 661 018d 02       		.byte	0x2
 662 018e 05       		.byte	0x5
 663 018f 570D0000 		.4byte	.LASF55
 664 0193 06       		.uleb128 0x6
 665 0194 43050000 		.4byte	.LASF56
 666 0198 02       		.byte	0x2
 667 0199 2B       		.byte	0x2b
 668 019a 9E010000 		.4byte	0x19e
 669 019e 05       		.uleb128 0x5
 670 019f 02       		.byte	0x2
 671 01a0 07       		.byte	0x7
 672 01a1 C90E0000 		.4byte	.LASF57
 673 01a5 06       		.uleb128 0x6
 674 01a6 410F0000 		.4byte	.LASF58
 675 01aa 02       		.byte	0x2
 676 01ab 3F       		.byte	0x3f
 677 01ac B0010000 		.4byte	0x1b0
 678 01b0 05       		.uleb128 0x5
 679 01b1 04       		.byte	0x4
 680 01b2 05       		.byte	0x5
 681 01b3 05020000 		.4byte	.LASF59
 682 01b7 06       		.uleb128 0x6
 683 01b8 61080000 		.4byte	.LASF60
 684 01bc 02       		.byte	0x2
 685 01bd 41       		.byte	0x41
 686 01be C2010000 		.4byte	0x1c2
 687 01c2 05       		.uleb128 0x5
 688 01c3 04       		.byte	0x4
 689 01c4 07       		.byte	0x7
 690 01c5 08070000 		.4byte	.LASF61
 691 01c9 05       		.uleb128 0x5
ARM GAS  /tmp/ccztuyKP.s 			page 16


 692 01ca 08       		.byte	0x8
 693 01cb 05       		.byte	0x5
 694 01cc 8F080000 		.4byte	.LASF62
 695 01d0 05       		.uleb128 0x5
 696 01d1 08       		.byte	0x8
 697 01d2 07       		.byte	0x7
 698 01d3 000B0000 		.4byte	.LASF63
 699 01d7 07       		.uleb128 0x7
 700 01d8 04       		.byte	0x4
 701 01d9 05       		.byte	0x5
 702 01da 696E7400 		.ascii	"int\000"
 703 01de 05       		.uleb128 0x5
 704 01df 04       		.byte	0x4
 705 01e0 07       		.byte	0x7
 706 01e1 81090000 		.4byte	.LASF64
 707 01e5 06       		.uleb128 0x6
 708 01e6 1A030000 		.4byte	.LASF65
 709 01ea 03       		.byte	0x3
 710 01eb 18       		.byte	0x18
 711 01ec 6F010000 		.4byte	0x16f
 712 01f0 06       		.uleb128 0x6
 713 01f1 8F0D0000 		.4byte	.LASF66
 714 01f5 03       		.byte	0x3
 715 01f6 20       		.byte	0x20
 716 01f7 81010000 		.4byte	0x181
 717 01fb 06       		.uleb128 0x6
 718 01fc 170B0000 		.4byte	.LASF67
 719 0200 03       		.byte	0x3
 720 0201 24       		.byte	0x24
 721 0202 93010000 		.4byte	0x193
 722 0206 08       		.uleb128 0x8
 723 0207 FB010000 		.4byte	0x1fb
 724 020b 06       		.uleb128 0x6
 725 020c 6E000000 		.4byte	.LASF68
 726 0210 03       		.byte	0x3
 727 0211 2C       		.byte	0x2c
 728 0212 A5010000 		.4byte	0x1a5
 729 0216 08       		.uleb128 0x8
 730 0217 0B020000 		.4byte	0x20b
 731 021b 06       		.uleb128 0x6
 732 021c 480E0000 		.4byte	.LASF69
 733 0220 03       		.byte	0x3
 734 0221 30       		.byte	0x30
 735 0222 B7010000 		.4byte	0x1b7
 736 0226 08       		.uleb128 0x8
 737 0227 1B020000 		.4byte	0x21b
 738 022b 05       		.uleb128 0x5
 739 022c 04       		.byte	0x4
 740 022d 07       		.byte	0x7
 741 022e 33000000 		.4byte	.LASF70
 742 0232 09       		.uleb128 0x9
 743 0233 39090000 		.4byte	.LASF71
 744 0237 04       		.byte	0x4
 745 0238 9606     		.2byte	0x696
 746 023a 16020000 		.4byte	0x216
 747 023e 0A       		.uleb128 0xa
 748 023f 7F070000 		.4byte	.LASF72
ARM GAS  /tmp/ccztuyKP.s 			page 17


 749 0243 05       		.byte	0x5
 750 0244 35       		.byte	0x35
 751 0245 1B020000 		.4byte	0x21b
 752 0249 0B       		.uleb128 0xb
 753 024a 01       		.byte	0x1
 754 024b 7A010000 		.4byte	0x17a
 755 024f 06       		.byte	0x6
 756 0250 0702     		.2byte	0x207
 757 0252 63020000 		.4byte	0x263
 758 0256 04       		.uleb128 0x4
 759 0257 5F0C0000 		.4byte	.LASF73
 760 025b 00       		.byte	0
 761 025c 0C       		.uleb128 0xc
 762 025d 53455400 		.ascii	"SET\000"
 763 0261 01       		.byte	0x1
 764 0262 00       		.byte	0
 765 0263 0B       		.uleb128 0xb
 766 0264 01       		.byte	0x1
 767 0265 7A010000 		.4byte	0x17a
 768 0269 06       		.byte	0x6
 769 026a 0902     		.2byte	0x209
 770 026c 7D020000 		.4byte	0x27d
 771 0270 04       		.uleb128 0x4
 772 0271 310A0000 		.4byte	.LASF74
 773 0275 00       		.byte	0
 774 0276 04       		.uleb128 0x4
 775 0277 B60D0000 		.4byte	.LASF75
 776 027b 01       		.byte	0x1
 777 027c 00       		.byte	0
 778 027d 0D       		.uleb128 0xd
 779 027e E10A0000 		.4byte	.LASF76
 780 0282 06       		.byte	0x6
 781 0283 0902     		.2byte	0x209
 782 0285 63020000 		.4byte	0x263
 783 0289 0B       		.uleb128 0xb
 784 028a 01       		.byte	0x1
 785 028b 7A010000 		.4byte	0x17a
 786 028f 06       		.byte	0x6
 787 0290 0C02     		.2byte	0x20c
 788 0292 A3020000 		.4byte	0x2a3
 789 0296 04       		.uleb128 0x4
 790 0297 E9070000 		.4byte	.LASF77
 791 029b 00       		.byte	0
 792 029c 04       		.uleb128 0x4
 793 029d E50B0000 		.4byte	.LASF78
 794 02a1 01       		.byte	0x1
 795 02a2 00       		.byte	0
 796 02a3 0D       		.uleb128 0xd
 797 02a4 770A0000 		.4byte	.LASF79
 798 02a8 06       		.byte	0x6
 799 02a9 0C02     		.2byte	0x20c
 800 02ab 89020000 		.4byte	0x289
 801 02af 0E       		.uleb128 0xe
 802 02b0 1C       		.byte	0x1c
 803 02b1 06       		.byte	0x6
 804 02b2 E903     		.2byte	0x3e9
 805 02b4 14030000 		.4byte	0x314
ARM GAS  /tmp/ccztuyKP.s 			page 18


 806 02b8 0F       		.uleb128 0xf
 807 02b9 43524C00 		.ascii	"CRL\000"
 808 02bd 06       		.byte	0x6
 809 02be EB03     		.2byte	0x3eb
 810 02c0 26020000 		.4byte	0x226
 811 02c4 00       		.byte	0
 812 02c5 0F       		.uleb128 0xf
 813 02c6 43524800 		.ascii	"CRH\000"
 814 02ca 06       		.byte	0x6
 815 02cb EC03     		.2byte	0x3ec
 816 02cd 26020000 		.4byte	0x226
 817 02d1 04       		.byte	0x4
 818 02d2 0F       		.uleb128 0xf
 819 02d3 49445200 		.ascii	"IDR\000"
 820 02d7 06       		.byte	0x6
 821 02d8 ED03     		.2byte	0x3ed
 822 02da 26020000 		.4byte	0x226
 823 02de 08       		.byte	0x8
 824 02df 0F       		.uleb128 0xf
 825 02e0 4F445200 		.ascii	"ODR\000"
 826 02e4 06       		.byte	0x6
 827 02e5 EE03     		.2byte	0x3ee
 828 02e7 26020000 		.4byte	0x226
 829 02eb 0C       		.byte	0xc
 830 02ec 10       		.uleb128 0x10
 831 02ed C70D0000 		.4byte	.LASF80
 832 02f1 06       		.byte	0x6
 833 02f2 EF03     		.2byte	0x3ef
 834 02f4 26020000 		.4byte	0x226
 835 02f8 10       		.byte	0x10
 836 02f9 0F       		.uleb128 0xf
 837 02fa 42525200 		.ascii	"BRR\000"
 838 02fe 06       		.byte	0x6
 839 02ff F003     		.2byte	0x3f0
 840 0301 26020000 		.4byte	0x226
 841 0305 14       		.byte	0x14
 842 0306 10       		.uleb128 0x10
 843 0307 E4070000 		.4byte	.LASF81
 844 030b 06       		.byte	0x6
 845 030c F103     		.2byte	0x3f1
 846 030e 26020000 		.4byte	0x226
 847 0312 18       		.byte	0x18
 848 0313 00       		.byte	0
 849 0314 0D       		.uleb128 0xd
 850 0315 CC0D0000 		.4byte	.LASF82
 851 0319 06       		.byte	0x6
 852 031a F203     		.2byte	0x3f2
 853 031c AF020000 		.4byte	0x2af
 854 0320 0E       		.uleb128 0xe
 855 0321 24       		.byte	0x24
 856 0322 06       		.byte	0x6
 857 0323 0404     		.2byte	0x404
 858 0325 13040000 		.4byte	0x413
 859 0329 0F       		.uleb128 0xf
 860 032a 43523100 		.ascii	"CR1\000"
 861 032e 06       		.byte	0x6
 862 032f 0604     		.2byte	0x406
ARM GAS  /tmp/ccztuyKP.s 			page 19


 863 0331 06020000 		.4byte	0x206
 864 0335 00       		.byte	0
 865 0336 10       		.uleb128 0x10
 866 0337 6C030000 		.4byte	.LASF83
 867 033b 06       		.byte	0x6
 868 033c 0704     		.2byte	0x407
 869 033e FB010000 		.4byte	0x1fb
 870 0342 02       		.byte	0x2
 871 0343 0F       		.uleb128 0xf
 872 0344 43523200 		.ascii	"CR2\000"
 873 0348 06       		.byte	0x6
 874 0349 0804     		.2byte	0x408
 875 034b 06020000 		.4byte	0x206
 876 034f 04       		.byte	0x4
 877 0350 10       		.uleb128 0x10
 878 0351 76030000 		.4byte	.LASF84
 879 0355 06       		.byte	0x6
 880 0356 0904     		.2byte	0x409
 881 0358 FB010000 		.4byte	0x1fb
 882 035c 06       		.byte	0x6
 883 035d 10       		.uleb128 0x10
 884 035e AE0C0000 		.4byte	.LASF85
 885 0362 06       		.byte	0x6
 886 0363 0A04     		.2byte	0x40a
 887 0365 06020000 		.4byte	0x206
 888 0369 08       		.byte	0x8
 889 036a 10       		.uleb128 0x10
 890 036b 46040000 		.4byte	.LASF86
 891 036f 06       		.byte	0x6
 892 0370 0B04     		.2byte	0x40b
 893 0372 FB010000 		.4byte	0x1fb
 894 0376 0A       		.byte	0xa
 895 0377 10       		.uleb128 0x10
 896 0378 B30C0000 		.4byte	.LASF87
 897 037c 06       		.byte	0x6
 898 037d 0C04     		.2byte	0x40c
 899 037f 06020000 		.4byte	0x206
 900 0383 0C       		.byte	0xc
 901 0384 10       		.uleb128 0x10
 902 0385 8E030000 		.4byte	.LASF88
 903 0389 06       		.byte	0x6
 904 038a 0D04     		.2byte	0x40d
 905 038c FB010000 		.4byte	0x1fb
 906 0390 0E       		.byte	0xe
 907 0391 0F       		.uleb128 0xf
 908 0392 445200   		.ascii	"DR\000"
 909 0395 06       		.byte	0x6
 910 0396 0E04     		.2byte	0x40e
 911 0398 06020000 		.4byte	0x206
 912 039c 10       		.byte	0x10
 913 039d 10       		.uleb128 0x10
 914 039e 98030000 		.4byte	.LASF89
 915 03a2 06       		.byte	0x6
 916 03a3 0F04     		.2byte	0x40f
 917 03a5 FB010000 		.4byte	0x1fb
 918 03a9 12       		.byte	0x12
 919 03aa 0F       		.uleb128 0xf
ARM GAS  /tmp/ccztuyKP.s 			page 20


 920 03ab 53523100 		.ascii	"SR1\000"
 921 03af 06       		.byte	0x6
 922 03b0 1004     		.2byte	0x410
 923 03b2 06020000 		.4byte	0x206
 924 03b6 14       		.byte	0x14
 925 03b7 10       		.uleb128 0x10
 926 03b8 A2030000 		.4byte	.LASF90
 927 03bc 06       		.byte	0x6
 928 03bd 1104     		.2byte	0x411
 929 03bf FB010000 		.4byte	0x1fb
 930 03c3 16       		.byte	0x16
 931 03c4 0F       		.uleb128 0xf
 932 03c5 53523200 		.ascii	"SR2\000"
 933 03c9 06       		.byte	0x6
 934 03ca 1204     		.2byte	0x412
 935 03cc 06020000 		.4byte	0x206
 936 03d0 18       		.byte	0x18
 937 03d1 10       		.uleb128 0x10
 938 03d2 AC030000 		.4byte	.LASF91
 939 03d6 06       		.byte	0x6
 940 03d7 1304     		.2byte	0x413
 941 03d9 FB010000 		.4byte	0x1fb
 942 03dd 1A       		.byte	0x1a
 943 03de 0F       		.uleb128 0xf
 944 03df 43435200 		.ascii	"CCR\000"
 945 03e3 06       		.byte	0x6
 946 03e4 1404     		.2byte	0x414
 947 03e6 06020000 		.4byte	0x206
 948 03ea 1C       		.byte	0x1c
 949 03eb 10       		.uleb128 0x10
 950 03ec B6030000 		.4byte	.LASF92
 951 03f0 06       		.byte	0x6
 952 03f1 1504     		.2byte	0x415
 953 03f3 FB010000 		.4byte	0x1fb
 954 03f7 1E       		.byte	0x1e
 955 03f8 10       		.uleb128 0x10
 956 03f9 B6070000 		.4byte	.LASF93
 957 03fd 06       		.byte	0x6
 958 03fe 1604     		.2byte	0x416
 959 0400 06020000 		.4byte	0x206
 960 0404 20       		.byte	0x20
 961 0405 10       		.uleb128 0x10
 962 0406 C0030000 		.4byte	.LASF94
 963 040a 06       		.byte	0x6
 964 040b 1704     		.2byte	0x417
 965 040d FB010000 		.4byte	0x1fb
 966 0411 22       		.byte	0x22
 967 0412 00       		.byte	0
 968 0413 0D       		.uleb128 0xd
 969 0414 0E0C0000 		.4byte	.LASF95
 970 0418 06       		.byte	0x6
 971 0419 1804     		.2byte	0x418
 972 041b 20030000 		.4byte	0x320
 973 041f 0E       		.uleb128 0xe
 974 0420 50       		.byte	0x50
 975 0421 06       		.byte	0x6
 976 0422 A204     		.2byte	0x4a2
ARM GAS  /tmp/ccztuyKP.s 			page 21


 977 0424 30060000 		.4byte	0x630
 978 0428 0F       		.uleb128 0xf
 979 0429 43523100 		.ascii	"CR1\000"
 980 042d 06       		.byte	0x6
 981 042e A404     		.2byte	0x4a4
 982 0430 06020000 		.4byte	0x206
 983 0434 00       		.byte	0
 984 0435 10       		.uleb128 0x10
 985 0436 6C030000 		.4byte	.LASF83
 986 043a 06       		.byte	0x6
 987 043b A504     		.2byte	0x4a5
 988 043d FB010000 		.4byte	0x1fb
 989 0441 02       		.byte	0x2
 990 0442 0F       		.uleb128 0xf
 991 0443 43523200 		.ascii	"CR2\000"
 992 0447 06       		.byte	0x6
 993 0448 A604     		.2byte	0x4a6
 994 044a 06020000 		.4byte	0x206
 995 044e 04       		.byte	0x4
 996 044f 10       		.uleb128 0x10
 997 0450 76030000 		.4byte	.LASF84
 998 0454 06       		.byte	0x6
 999 0455 A704     		.2byte	0x4a7
 1000 0457 FB010000 		.4byte	0x1fb
 1001 045b 06       		.byte	0x6
 1002 045c 10       		.uleb128 0x10
 1003 045d 290C0000 		.4byte	.LASF96
 1004 0461 06       		.byte	0x6
 1005 0462 A804     		.2byte	0x4a8
 1006 0464 06020000 		.4byte	0x206
 1007 0468 08       		.byte	0x8
 1008 0469 10       		.uleb128 0x10
 1009 046a 46040000 		.4byte	.LASF86
 1010 046e 06       		.byte	0x6
 1011 046f A904     		.2byte	0x4a9
 1012 0471 FB010000 		.4byte	0x1fb
 1013 0475 0A       		.byte	0xa
 1014 0476 10       		.uleb128 0x10
 1015 0477 72070000 		.4byte	.LASF97
 1016 047b 06       		.byte	0x6
 1017 047c AA04     		.2byte	0x4aa
 1018 047e 06020000 		.4byte	0x206
 1019 0482 0C       		.byte	0xc
 1020 0483 10       		.uleb128 0x10
 1021 0484 8E030000 		.4byte	.LASF88
 1022 0488 06       		.byte	0x6
 1023 0489 AB04     		.2byte	0x4ab
 1024 048b FB010000 		.4byte	0x1fb
 1025 048f 0E       		.byte	0xe
 1026 0490 0F       		.uleb128 0xf
 1027 0491 535200   		.ascii	"SR\000"
 1028 0494 06       		.byte	0x6
 1029 0495 AC04     		.2byte	0x4ac
 1030 0497 06020000 		.4byte	0x206
 1031 049b 10       		.byte	0x10
 1032 049c 10       		.uleb128 0x10
 1033 049d 98030000 		.4byte	.LASF89
ARM GAS  /tmp/ccztuyKP.s 			page 22


 1034 04a1 06       		.byte	0x6
 1035 04a2 AD04     		.2byte	0x4ad
 1036 04a4 FB010000 		.4byte	0x1fb
 1037 04a8 12       		.byte	0x12
 1038 04a9 0F       		.uleb128 0xf
 1039 04aa 45475200 		.ascii	"EGR\000"
 1040 04ae 06       		.byte	0x6
 1041 04af AE04     		.2byte	0x4ae
 1042 04b1 06020000 		.4byte	0x206
 1043 04b5 14       		.byte	0x14
 1044 04b6 10       		.uleb128 0x10
 1045 04b7 A2030000 		.4byte	.LASF90
 1046 04bb 06       		.byte	0x6
 1047 04bc AF04     		.2byte	0x4af
 1048 04be FB010000 		.4byte	0x1fb
 1049 04c2 16       		.byte	0x16
 1050 04c3 10       		.uleb128 0x10
 1051 04c4 72040000 		.4byte	.LASF98
 1052 04c8 06       		.byte	0x6
 1053 04c9 B004     		.2byte	0x4b0
 1054 04cb 06020000 		.4byte	0x206
 1055 04cf 18       		.byte	0x18
 1056 04d0 10       		.uleb128 0x10
 1057 04d1 AC030000 		.4byte	.LASF91
 1058 04d5 06       		.byte	0x6
 1059 04d6 B104     		.2byte	0x4b1
 1060 04d8 FB010000 		.4byte	0x1fb
 1061 04dc 1A       		.byte	0x1a
 1062 04dd 10       		.uleb128 0x10
 1063 04de 8E090000 		.4byte	.LASF99
 1064 04e2 06       		.byte	0x6
 1065 04e3 B204     		.2byte	0x4b2
 1066 04e5 06020000 		.4byte	0x206
 1067 04e9 1C       		.byte	0x1c
 1068 04ea 10       		.uleb128 0x10
 1069 04eb B6030000 		.4byte	.LASF92
 1070 04ef 06       		.byte	0x6
 1071 04f0 B304     		.2byte	0x4b3
 1072 04f2 FB010000 		.4byte	0x1fb
 1073 04f6 1E       		.byte	0x1e
 1074 04f7 10       		.uleb128 0x10
 1075 04f8 3E0B0000 		.4byte	.LASF100
 1076 04fc 06       		.byte	0x6
 1077 04fd B404     		.2byte	0x4b4
 1078 04ff 06020000 		.4byte	0x206
 1079 0503 20       		.byte	0x20
 1080 0504 10       		.uleb128 0x10
 1081 0505 C0030000 		.4byte	.LASF94
 1082 0509 06       		.byte	0x6
 1083 050a B504     		.2byte	0x4b5
 1084 050c FB010000 		.4byte	0x1fb
 1085 0510 22       		.byte	0x22
 1086 0511 0F       		.uleb128 0xf
 1087 0512 434E5400 		.ascii	"CNT\000"
 1088 0516 06       		.byte	0x6
 1089 0517 B604     		.2byte	0x4b6
 1090 0519 06020000 		.4byte	0x206
ARM GAS  /tmp/ccztuyKP.s 			page 23


 1091 051d 24       		.byte	0x24
 1092 051e 10       		.uleb128 0x10
 1093 051f CA030000 		.4byte	.LASF101
 1094 0523 06       		.byte	0x6
 1095 0524 B704     		.2byte	0x4b7
 1096 0526 FB010000 		.4byte	0x1fb
 1097 052a 26       		.byte	0x26
 1098 052b 0F       		.uleb128 0xf
 1099 052c 50534300 		.ascii	"PSC\000"
 1100 0530 06       		.byte	0x6
 1101 0531 B804     		.2byte	0x4b8
 1102 0533 06020000 		.4byte	0x206
 1103 0537 28       		.byte	0x28
 1104 0538 10       		.uleb128 0x10
 1105 0539 F80E0000 		.4byte	.LASF102
 1106 053d 06       		.byte	0x6
 1107 053e B904     		.2byte	0x4b9
 1108 0540 FB010000 		.4byte	0x1fb
 1109 0544 2A       		.byte	0x2a
 1110 0545 0F       		.uleb128 0xf
 1111 0546 41525200 		.ascii	"ARR\000"
 1112 054a 06       		.byte	0x6
 1113 054b BA04     		.2byte	0x4ba
 1114 054d 06020000 		.4byte	0x206
 1115 0551 2C       		.byte	0x2c
 1116 0552 10       		.uleb128 0x10
 1117 0553 030F0000 		.4byte	.LASF103
 1118 0557 06       		.byte	0x6
 1119 0558 BB04     		.2byte	0x4bb
 1120 055a FB010000 		.4byte	0x1fb
 1121 055e 2E       		.byte	0x2e
 1122 055f 0F       		.uleb128 0xf
 1123 0560 52435200 		.ascii	"RCR\000"
 1124 0564 06       		.byte	0x6
 1125 0565 BC04     		.2byte	0x4bc
 1126 0567 06020000 		.4byte	0x206
 1127 056b 30       		.byte	0x30
 1128 056c 10       		.uleb128 0x10
 1129 056d 430B0000 		.4byte	.LASF104
 1130 0571 06       		.byte	0x6
 1131 0572 BD04     		.2byte	0x4bd
 1132 0574 FB010000 		.4byte	0x1fb
 1133 0578 32       		.byte	0x32
 1134 0579 10       		.uleb128 0x10
 1135 057a 67010000 		.4byte	.LASF105
 1136 057e 06       		.byte	0x6
 1137 057f BE04     		.2byte	0x4be
 1138 0581 06020000 		.4byte	0x206
 1139 0585 34       		.byte	0x34
 1140 0586 10       		.uleb128 0x10
 1141 0587 0E0F0000 		.4byte	.LASF106
 1142 058b 06       		.byte	0x6
 1143 058c BF04     		.2byte	0x4bf
 1144 058e FB010000 		.4byte	0x1fb
 1145 0592 36       		.byte	0x36
 1146 0593 10       		.uleb128 0x10
 1147 0594 6C010000 		.4byte	.LASF107
ARM GAS  /tmp/ccztuyKP.s 			page 24


 1148 0598 06       		.byte	0x6
 1149 0599 C004     		.2byte	0x4c0
 1150 059b 06020000 		.4byte	0x206
 1151 059f 38       		.byte	0x38
 1152 05a0 10       		.uleb128 0x10
 1153 05a1 5A0B0000 		.4byte	.LASF108
 1154 05a5 06       		.byte	0x6
 1155 05a6 C104     		.2byte	0x4c1
 1156 05a8 FB010000 		.4byte	0x1fb
 1157 05ac 3A       		.byte	0x3a
 1158 05ad 10       		.uleb128 0x10
 1159 05ae 71010000 		.4byte	.LASF109
 1160 05b2 06       		.byte	0x6
 1161 05b3 C204     		.2byte	0x4c2
 1162 05b5 06020000 		.4byte	0x206
 1163 05b9 3C       		.byte	0x3c
 1164 05ba 10       		.uleb128 0x10
 1165 05bb 650B0000 		.4byte	.LASF110
 1166 05bf 06       		.byte	0x6
 1167 05c0 C304     		.2byte	0x4c3
 1168 05c2 FB010000 		.4byte	0x1fb
 1169 05c6 3E       		.byte	0x3e
 1170 05c7 10       		.uleb128 0x10
 1171 05c8 76010000 		.4byte	.LASF111
 1172 05cc 06       		.byte	0x6
 1173 05cd C404     		.2byte	0x4c4
 1174 05cf 06020000 		.4byte	0x206
 1175 05d3 40       		.byte	0x40
 1176 05d4 10       		.uleb128 0x10
 1177 05d5 700B0000 		.4byte	.LASF112
 1178 05d9 06       		.byte	0x6
 1179 05da C504     		.2byte	0x4c5
 1180 05dc FB010000 		.4byte	0x1fb
 1181 05e0 42       		.byte	0x42
 1182 05e1 10       		.uleb128 0x10
 1183 05e2 430E0000 		.4byte	.LASF113
 1184 05e6 06       		.byte	0x6
 1185 05e7 C604     		.2byte	0x4c6
 1186 05e9 06020000 		.4byte	0x206
 1187 05ed 44       		.byte	0x44
 1188 05ee 10       		.uleb128 0x10
 1189 05ef 7B0B0000 		.4byte	.LASF114
 1190 05f3 06       		.byte	0x6
 1191 05f4 C704     		.2byte	0x4c7
 1192 05f6 FB010000 		.4byte	0x1fb
 1193 05fa 46       		.byte	0x46
 1194 05fb 0F       		.uleb128 0xf
 1195 05fc 44435200 		.ascii	"DCR\000"
 1196 0600 06       		.byte	0x6
 1197 0601 C804     		.2byte	0x4c8
 1198 0603 06020000 		.4byte	0x206
 1199 0607 48       		.byte	0x48
 1200 0608 10       		.uleb128 0x10
 1201 0609 860B0000 		.4byte	.LASF115
 1202 060d 06       		.byte	0x6
 1203 060e C904     		.2byte	0x4c9
 1204 0610 FB010000 		.4byte	0x1fb
ARM GAS  /tmp/ccztuyKP.s 			page 25


 1205 0614 4A       		.byte	0x4a
 1206 0615 10       		.uleb128 0x10
 1207 0616 4F010000 		.4byte	.LASF116
 1208 061a 06       		.byte	0x6
 1209 061b CA04     		.2byte	0x4ca
 1210 061d 06020000 		.4byte	0x206
 1211 0621 4C       		.byte	0x4c
 1212 0622 10       		.uleb128 0x10
 1213 0623 910B0000 		.4byte	.LASF117
 1214 0627 06       		.byte	0x6
 1215 0628 CB04     		.2byte	0x4cb
 1216 062a FB010000 		.4byte	0x1fb
 1217 062e 4E       		.byte	0x4e
 1218 062f 00       		.byte	0
 1219 0630 0D       		.uleb128 0xd
 1220 0631 49030000 		.4byte	.LASF118
 1221 0635 06       		.byte	0x6
 1222 0636 CC04     		.2byte	0x4cc
 1223 0638 1F040000 		.4byte	0x41f
 1224 063c 0E       		.uleb128 0xe
 1225 063d 1C       		.byte	0x1c
 1226 063e 06       		.byte	0x6
 1227 063f D204     		.2byte	0x4d2
 1228 0641 FA060000 		.4byte	0x6fa
 1229 0645 0F       		.uleb128 0xf
 1230 0646 535200   		.ascii	"SR\000"
 1231 0649 06       		.byte	0x6
 1232 064a D404     		.2byte	0x4d4
 1233 064c 06020000 		.4byte	0x206
 1234 0650 00       		.byte	0
 1235 0651 10       		.uleb128 0x10
 1236 0652 6C030000 		.4byte	.LASF83
 1237 0656 06       		.byte	0x6
 1238 0657 D504     		.2byte	0x4d5
 1239 0659 FB010000 		.4byte	0x1fb
 1240 065d 02       		.byte	0x2
 1241 065e 0F       		.uleb128 0xf
 1242 065f 445200   		.ascii	"DR\000"
 1243 0662 06       		.byte	0x6
 1244 0663 D604     		.2byte	0x4d6
 1245 0665 06020000 		.4byte	0x206
 1246 0669 04       		.byte	0x4
 1247 066a 10       		.uleb128 0x10
 1248 066b 76030000 		.4byte	.LASF84
 1249 066f 06       		.byte	0x6
 1250 0670 D704     		.2byte	0x4d7
 1251 0672 FB010000 		.4byte	0x1fb
 1252 0676 06       		.byte	0x6
 1253 0677 0F       		.uleb128 0xf
 1254 0678 42525200 		.ascii	"BRR\000"
 1255 067c 06       		.byte	0x6
 1256 067d D804     		.2byte	0x4d8
 1257 067f 06020000 		.4byte	0x206
 1258 0683 08       		.byte	0x8
 1259 0684 10       		.uleb128 0x10
 1260 0685 46040000 		.4byte	.LASF86
 1261 0689 06       		.byte	0x6
ARM GAS  /tmp/ccztuyKP.s 			page 26


 1262 068a D904     		.2byte	0x4d9
 1263 068c FB010000 		.4byte	0x1fb
 1264 0690 0A       		.byte	0xa
 1265 0691 0F       		.uleb128 0xf
 1266 0692 43523100 		.ascii	"CR1\000"
 1267 0696 06       		.byte	0x6
 1268 0697 DA04     		.2byte	0x4da
 1269 0699 06020000 		.4byte	0x206
 1270 069d 0C       		.byte	0xc
 1271 069e 10       		.uleb128 0x10
 1272 069f 8E030000 		.4byte	.LASF88
 1273 06a3 06       		.byte	0x6
 1274 06a4 DB04     		.2byte	0x4db
 1275 06a6 FB010000 		.4byte	0x1fb
 1276 06aa 0E       		.byte	0xe
 1277 06ab 0F       		.uleb128 0xf
 1278 06ac 43523200 		.ascii	"CR2\000"
 1279 06b0 06       		.byte	0x6
 1280 06b1 DC04     		.2byte	0x4dc
 1281 06b3 06020000 		.4byte	0x206
 1282 06b7 10       		.byte	0x10
 1283 06b8 10       		.uleb128 0x10
 1284 06b9 98030000 		.4byte	.LASF89
 1285 06bd 06       		.byte	0x6
 1286 06be DD04     		.2byte	0x4dd
 1287 06c0 FB010000 		.4byte	0x1fb
 1288 06c4 12       		.byte	0x12
 1289 06c5 0F       		.uleb128 0xf
 1290 06c6 43523300 		.ascii	"CR3\000"
 1291 06ca 06       		.byte	0x6
 1292 06cb DE04     		.2byte	0x4de
 1293 06cd 06020000 		.4byte	0x206
 1294 06d1 14       		.byte	0x14
 1295 06d2 10       		.uleb128 0x10
 1296 06d3 A2030000 		.4byte	.LASF90
 1297 06d7 06       		.byte	0x6
 1298 06d8 DF04     		.2byte	0x4df
 1299 06da FB010000 		.4byte	0x1fb
 1300 06de 16       		.byte	0x16
 1301 06df 10       		.uleb128 0x10
 1302 06e0 76000000 		.4byte	.LASF119
 1303 06e4 06       		.byte	0x6
 1304 06e5 E004     		.2byte	0x4e0
 1305 06e7 06020000 		.4byte	0x206
 1306 06eb 18       		.byte	0x18
 1307 06ec 10       		.uleb128 0x10
 1308 06ed AC030000 		.4byte	.LASF91
 1309 06f1 06       		.byte	0x6
 1310 06f2 E104     		.2byte	0x4e1
 1311 06f4 FB010000 		.4byte	0x1fb
 1312 06f8 1A       		.byte	0x1a
 1313 06f9 00       		.byte	0
 1314 06fa 0D       		.uleb128 0xd
 1315 06fb 75050000 		.4byte	.LASF120
 1316 06ff 06       		.byte	0x6
 1317 0700 E204     		.2byte	0x4e2
 1318 0702 3C060000 		.4byte	0x63c
ARM GAS  /tmp/ccztuyKP.s 			page 27


 1319 0706 11       		.uleb128 0x11
 1320 0707 10       		.byte	0x10
 1321 0708 07       		.byte	0x7
 1322 0709 32       		.byte	0x32
 1323 070a 57070000 		.4byte	0x757
 1324 070e 12       		.uleb128 0x12
 1325 070f 260E0000 		.4byte	.LASF121
 1326 0713 07       		.byte	0x7
 1327 0714 34       		.byte	0x34
 1328 0715 1B020000 		.4byte	0x21b
 1329 0719 00       		.byte	0
 1330 071a 12       		.uleb128 0x12
 1331 071b 28010000 		.4byte	.LASF122
 1332 071f 07       		.byte	0x7
 1333 0720 37       		.byte	0x37
 1334 0721 FB010000 		.4byte	0x1fb
 1335 0725 04       		.byte	0x4
 1336 0726 12       		.uleb128 0x12
 1337 0727 22030000 		.4byte	.LASF123
 1338 072b 07       		.byte	0x7
 1339 072c 3A       		.byte	0x3a
 1340 072d FB010000 		.4byte	0x1fb
 1341 0731 06       		.byte	0x6
 1342 0732 12       		.uleb128 0x12
 1343 0733 1A080000 		.4byte	.LASF124
 1344 0737 07       		.byte	0x7
 1345 0738 3D       		.byte	0x3d
 1346 0739 FB010000 		.4byte	0x1fb
 1347 073d 08       		.byte	0x8
 1348 073e 12       		.uleb128 0x12
 1349 073f 930A0000 		.4byte	.LASF125
 1350 0743 07       		.byte	0x7
 1351 0744 40       		.byte	0x40
 1352 0745 FB010000 		.4byte	0x1fb
 1353 0749 0A       		.byte	0xa
 1354 074a 12       		.uleb128 0x12
 1355 074b 31070000 		.4byte	.LASF126
 1356 074f 07       		.byte	0x7
 1357 0750 43       		.byte	0x43
 1358 0751 FB010000 		.4byte	0x1fb
 1359 0755 0C       		.byte	0xc
 1360 0756 00       		.byte	0
 1361 0757 06       		.uleb128 0x6
 1362 0758 C8050000 		.4byte	.LASF127
 1363 075c 07       		.byte	0x7
 1364 075d 45       		.byte	0x45
 1365 075e 06070000 		.4byte	0x706
 1366 0762 11       		.uleb128 0x11
 1367 0763 0A       		.byte	0xa
 1368 0764 08       		.byte	0x8
 1369 0765 33       		.byte	0x33
 1370 0766 A7070000 		.4byte	0x7a7
 1371 076a 12       		.uleb128 0x12
 1372 076b 14060000 		.4byte	.LASF128
 1373 076f 08       		.byte	0x8
 1374 0770 35       		.byte	0x35
 1375 0771 FB010000 		.4byte	0x1fb
ARM GAS  /tmp/ccztuyKP.s 			page 28


 1376 0775 00       		.byte	0
 1377 0776 12       		.uleb128 0x12
 1378 0777 060A0000 		.4byte	.LASF129
 1379 077b 08       		.byte	0x8
 1380 077c 38       		.byte	0x38
 1381 077d FB010000 		.4byte	0x1fb
 1382 0781 02       		.byte	0x2
 1383 0782 12       		.uleb128 0x12
 1384 0783 BF060000 		.4byte	.LASF130
 1385 0787 08       		.byte	0x8
 1386 0788 3B       		.byte	0x3b
 1387 0789 FB010000 		.4byte	0x1fb
 1388 078d 04       		.byte	0x4
 1389 078e 12       		.uleb128 0x12
 1390 078f 2F060000 		.4byte	.LASF131
 1391 0793 08       		.byte	0x8
 1392 0794 3F       		.byte	0x3f
 1393 0795 FB010000 		.4byte	0x1fb
 1394 0799 06       		.byte	0x6
 1395 079a 12       		.uleb128 0x12
 1396 079b D0080000 		.4byte	.LASF132
 1397 079f 08       		.byte	0x8
 1398 07a0 42       		.byte	0x42
 1399 07a1 E5010000 		.4byte	0x1e5
 1400 07a5 08       		.byte	0x8
 1401 07a6 00       		.byte	0
 1402 07a7 06       		.uleb128 0x6
 1403 07a8 A10F0000 		.4byte	.LASF133
 1404 07ac 08       		.byte	0x8
 1405 07ad 4A       		.byte	0x4a
 1406 07ae 62070000 		.4byte	0x762
 1407 07b2 13       		.uleb128 0x13
 1408 07b3 01       		.byte	0x1
 1409 07b4 7A010000 		.4byte	0x17a
 1410 07b8 09       		.byte	0x9
 1411 07b9 3B       		.byte	0x3b
 1412 07ba D1070000 		.4byte	0x7d1
 1413 07be 04       		.uleb128 0x4
 1414 07bf A70E0000 		.4byte	.LASF134
 1415 07c3 01       		.byte	0x1
 1416 07c4 04       		.uleb128 0x4
 1417 07c5 B80C0000 		.4byte	.LASF135
 1418 07c9 02       		.byte	0x2
 1419 07ca 04       		.uleb128 0x4
 1420 07cb 64050000 		.4byte	.LASF136
 1421 07cf 03       		.byte	0x3
 1422 07d0 00       		.byte	0
 1423 07d1 06       		.uleb128 0x6
 1424 07d2 C80C0000 		.4byte	.LASF137
 1425 07d6 09       		.byte	0x9
 1426 07d7 3F       		.byte	0x3f
 1427 07d8 B2070000 		.4byte	0x7b2
 1428 07dc 13       		.uleb128 0x13
 1429 07dd 01       		.byte	0x1
 1430 07de 7A010000 		.4byte	0x17a
 1431 07e2 09       		.byte	0x9
 1432 07e3 48       		.byte	0x48
ARM GAS  /tmp/ccztuyKP.s 			page 29


 1433 07e4 19080000 		.4byte	0x819
 1434 07e8 04       		.uleb128 0x4
 1435 07e9 46020000 		.4byte	.LASF138
 1436 07ed 00       		.byte	0
 1437 07ee 04       		.uleb128 0x4
 1438 07ef 790D0000 		.4byte	.LASF139
 1439 07f3 04       		.byte	0x4
 1440 07f4 04       		.uleb128 0x4
 1441 07f5 B90F0000 		.4byte	.LASF140
 1442 07f9 28       		.byte	0x28
 1443 07fa 04       		.uleb128 0x4
 1444 07fb 0B000000 		.4byte	.LASF141
 1445 07ff 48       		.byte	0x48
 1446 0800 04       		.uleb128 0x4
 1447 0801 32050000 		.4byte	.LASF142
 1448 0805 14       		.byte	0x14
 1449 0806 04       		.uleb128 0x4
 1450 0807 92060000 		.4byte	.LASF143
 1451 080b 10       		.byte	0x10
 1452 080c 04       		.uleb128 0x4
 1453 080d B5020000 		.4byte	.LASF144
 1454 0811 1C       		.byte	0x1c
 1455 0812 04       		.uleb128 0x4
 1456 0813 D4030000 		.4byte	.LASF145
 1457 0817 18       		.byte	0x18
 1458 0818 00       		.byte	0
 1459 0819 06       		.uleb128 0x6
 1460 081a 440C0000 		.4byte	.LASF146
 1461 081e 09       		.byte	0x9
 1462 081f 50       		.byte	0x50
 1463 0820 DC070000 		.4byte	0x7dc
 1464 0824 11       		.uleb128 0x11
 1465 0825 04       		.byte	0x4
 1466 0826 09       		.byte	0x9
 1467 0827 5B       		.byte	0x5b
 1468 0828 51080000 		.4byte	0x851
 1469 082c 12       		.uleb128 0x12
 1470 082d EC0C0000 		.4byte	.LASF147
 1471 0831 09       		.byte	0x9
 1472 0832 5D       		.byte	0x5d
 1473 0833 FB010000 		.4byte	0x1fb
 1474 0837 00       		.byte	0
 1475 0838 12       		.uleb128 0x12
 1476 0839 B3010000 		.4byte	.LASF148
 1477 083d 09       		.byte	0x9
 1478 083e 60       		.byte	0x60
 1479 083f D1070000 		.4byte	0x7d1
 1480 0843 02       		.byte	0x2
 1481 0844 12       		.uleb128 0x12
 1482 0845 ED0B0000 		.4byte	.LASF149
 1483 0849 09       		.byte	0x9
 1484 084a 63       		.byte	0x63
 1485 084b 19080000 		.4byte	0x819
 1486 084f 03       		.byte	0x3
 1487 0850 00       		.byte	0
 1488 0851 06       		.uleb128 0x6
 1489 0852 30030000 		.4byte	.LASF150
ARM GAS  /tmp/ccztuyKP.s 			page 30


 1490 0856 09       		.byte	0x9
 1491 0857 65       		.byte	0x65
 1492 0858 24080000 		.4byte	0x824
 1493 085c 11       		.uleb128 0x11
 1494 085d 10       		.byte	0x10
 1495 085e 0A       		.byte	0xa
 1496 085f 32       		.byte	0x32
 1497 0860 AD080000 		.4byte	0x8ad
 1498 0864 12       		.uleb128 0x12
 1499 0865 58060000 		.4byte	.LASF151
 1500 0869 0A       		.byte	0xa
 1501 086a 34       		.byte	0x34
 1502 086b 1B020000 		.4byte	0x21b
 1503 086f 00       		.byte	0
 1504 0870 12       		.uleb128 0x12
 1505 0871 E4030000 		.4byte	.LASF152
 1506 0875 0A       		.byte	0xa
 1507 0876 39       		.byte	0x39
 1508 0877 FB010000 		.4byte	0x1fb
 1509 087b 04       		.byte	0x4
 1510 087c 12       		.uleb128 0x12
 1511 087d C9070000 		.4byte	.LASF153
 1512 0881 0A       		.byte	0xa
 1513 0882 3C       		.byte	0x3c
 1514 0883 FB010000 		.4byte	0x1fb
 1515 0887 06       		.byte	0x6
 1516 0888 12       		.uleb128 0x12
 1517 0889 55040000 		.4byte	.LASF154
 1518 088d 0A       		.byte	0xa
 1519 088e 3F       		.byte	0x3f
 1520 088f FB010000 		.4byte	0x1fb
 1521 0893 08       		.byte	0x8
 1522 0894 12       		.uleb128 0x12
 1523 0895 67060000 		.4byte	.LASF155
 1524 0899 0A       		.byte	0xa
 1525 089a 46       		.byte	0x46
 1526 089b FB010000 		.4byte	0x1fb
 1527 089f 0A       		.byte	0xa
 1528 08a0 12       		.uleb128 0x12
 1529 08a1 740E0000 		.4byte	.LASF156
 1530 08a5 0A       		.byte	0xa
 1531 08a6 49       		.byte	0x49
 1532 08a7 FB010000 		.4byte	0x1fb
 1533 08ab 0C       		.byte	0xc
 1534 08ac 00       		.byte	0
 1535 08ad 06       		.uleb128 0x6
 1536 08ae 750C0000 		.4byte	.LASF157
 1537 08b2 0A       		.byte	0xa
 1538 08b3 4C       		.byte	0x4c
 1539 08b4 5C080000 		.4byte	0x85c
 1540 08b8 11       		.uleb128 0x11
 1541 08b9 04       		.byte	0x4
 1542 08ba 0B       		.byte	0xb
 1543 08bb 32       		.byte	0x32
 1544 08bc F1080000 		.4byte	0x8f1
 1545 08c0 12       		.uleb128 0x12
 1546 08c1 19000000 		.4byte	.LASF158
ARM GAS  /tmp/ccztuyKP.s 			page 31


 1547 08c5 0B       		.byte	0xb
 1548 08c6 34       		.byte	0x34
 1549 08c7 E5010000 		.4byte	0x1e5
 1550 08cb 00       		.byte	0
 1551 08cc 12       		.uleb128 0x12
 1552 08cd 10050000 		.4byte	.LASF159
 1553 08d1 0B       		.byte	0xb
 1554 08d2 39       		.byte	0x39
 1555 08d3 E5010000 		.4byte	0x1e5
 1556 08d7 01       		.byte	0x1
 1557 08d8 12       		.uleb128 0x12
 1558 08d9 160A0000 		.4byte	.LASF160
 1559 08dd 0B       		.byte	0xb
 1560 08de 3D       		.byte	0x3d
 1561 08df E5010000 		.4byte	0x1e5
 1562 08e3 02       		.byte	0x2
 1563 08e4 12       		.uleb128 0x12
 1564 08e5 BE010000 		.4byte	.LASF161
 1565 08e9 0B       		.byte	0xb
 1566 08ea 41       		.byte	0x41
 1567 08eb 7D020000 		.4byte	0x27d
 1568 08ef 03       		.byte	0x3
 1569 08f0 00       		.byte	0
 1570 08f1 06       		.uleb128 0x6
 1571 08f2 B80E0000 		.4byte	.LASF162
 1572 08f6 0B       		.byte	0xb
 1573 08f7 44       		.byte	0x44
 1574 08f8 B8080000 		.4byte	0x8b8
 1575 08fc 14       		.uleb128 0x14
 1576 08fd 15       		.uleb128 0x15
 1577 08fe 04       		.byte	0x4
 1578 08ff FC080000 		.4byte	0x8fc
 1579 0903 16       		.uleb128 0x16
 1580 0904 8C010000 		.4byte	0x18c
 1581 0908 13090000 		.4byte	0x913
 1582 090c 17       		.uleb128 0x17
 1583 090d 2B020000 		.4byte	0x22b
 1584 0911 02       		.byte	0x2
 1585 0912 00       		.byte	0
 1586 0913 09       		.uleb128 0x9
 1587 0914 96040000 		.4byte	.LASF163
 1588 0918 0C       		.byte	0xc
 1589 0919 6401     		.2byte	0x164
 1590 091b 03090000 		.4byte	0x903
 1591 091f 09       		.uleb128 0x9
 1592 0920 E20D0000 		.4byte	.LASF164
 1593 0924 0C       		.byte	0xc
 1594 0925 6401     		.2byte	0x164
 1595 0927 03090000 		.4byte	0x903
 1596 092b 09       		.uleb128 0x9
 1597 092c 000E0000 		.4byte	.LASF165
 1598 0930 0C       		.byte	0xc
 1599 0931 6501     		.2byte	0x165
 1600 0933 F0010000 		.4byte	0x1f0
 1601 0937 09       		.uleb128 0x9
 1602 0938 A4080000 		.4byte	.LASF166
 1603 093c 0C       		.byte	0xc
ARM GAS  /tmp/ccztuyKP.s 			page 32


 1604 093d 6501     		.2byte	0x165
 1605 093f F0010000 		.4byte	0x1f0
 1606 0943 09       		.uleb128 0x9
 1607 0944 ED010000 		.4byte	.LASF167
 1608 0948 0C       		.byte	0xc
 1609 0949 6501     		.2byte	0x165
 1610 094b F0010000 		.4byte	0x1f0
 1611 094f 09       		.uleb128 0x9
 1612 0950 BC070000 		.4byte	.LASF168
 1613 0954 0C       		.byte	0xc
 1614 0955 6601     		.2byte	0x166
 1615 0957 5B090000 		.4byte	0x95b
 1616 095b 05       		.uleb128 0x5
 1617 095c 04       		.byte	0x4
 1618 095d 04       		.byte	0x4
 1619 095e 5A090000 		.4byte	.LASF169
 1620 0962 09       		.uleb128 0x9
 1621 0963 350E0000 		.4byte	.LASF170
 1622 0967 0C       		.byte	0xc
 1623 0968 6701     		.2byte	0x167
 1624 096a 5B090000 		.4byte	0x95b
 1625 096e 09       		.uleb128 0x9
 1626 096f 8B050000 		.4byte	.LASF171
 1627 0973 0C       		.byte	0xc
 1628 0974 6801     		.2byte	0x168
 1629 0976 FB010000 		.4byte	0x1fb
 1630 097a 18       		.uleb128 0x18
 1631 097b 04       		.byte	0x4
 1632 097c 06       		.uleb128 0x6
 1633 097d 9D070000 		.4byte	.LASF172
 1634 0981 0D       		.byte	0xd
 1635 0982 07       		.byte	0x7
 1636 0983 D7010000 		.4byte	0x1d7
 1637 0987 06       		.uleb128 0x6
 1638 0988 9B0E0000 		.4byte	.LASF173
 1639 098c 0E       		.byte	0xe
 1640 098d 2C       		.byte	0x2c
 1641 098e B0010000 		.4byte	0x1b0
 1642 0992 06       		.uleb128 0x6
 1643 0993 8B0A0000 		.4byte	.LASF174
 1644 0997 0E       		.byte	0xe
 1645 0998 72       		.byte	0x72
 1646 0999 B0010000 		.4byte	0x1b0
 1647 099d 0D       		.uleb128 0xd
 1648 099e 900C0000 		.4byte	.LASF175
 1649 09a2 0F       		.byte	0xf
 1650 09a3 6501     		.2byte	0x165
 1651 09a5 DE010000 		.4byte	0x1de
 1652 09a9 19       		.uleb128 0x19
 1653 09aa 04       		.byte	0x4
 1654 09ab 0E       		.byte	0xe
 1655 09ac A6       		.byte	0xa6
 1656 09ad C8090000 		.4byte	0x9c8
 1657 09b1 1A       		.uleb128 0x1a
 1658 09b2 D1010000 		.4byte	.LASF176
 1659 09b6 0E       		.byte	0xe
 1660 09b7 A8       		.byte	0xa8
ARM GAS  /tmp/ccztuyKP.s 			page 33


 1661 09b8 9D090000 		.4byte	0x99d
 1662 09bc 1A       		.uleb128 0x1a
 1663 09bd 9B0A0000 		.4byte	.LASF177
 1664 09c1 0E       		.byte	0xe
 1665 09c2 A9       		.byte	0xa9
 1666 09c3 C8090000 		.4byte	0x9c8
 1667 09c7 00       		.byte	0
 1668 09c8 16       		.uleb128 0x16
 1669 09c9 7A010000 		.4byte	0x17a
 1670 09cd D8090000 		.4byte	0x9d8
 1671 09d1 17       		.uleb128 0x17
 1672 09d2 2B020000 		.4byte	0x22b
 1673 09d6 03       		.byte	0x3
 1674 09d7 00       		.byte	0
 1675 09d8 11       		.uleb128 0x11
 1676 09d9 08       		.byte	0x8
 1677 09da 0E       		.byte	0xe
 1678 09db A3       		.byte	0xa3
 1679 09dc F9090000 		.4byte	0x9f9
 1680 09e0 12       		.uleb128 0x12
 1681 09e1 FE090000 		.4byte	.LASF178
 1682 09e5 0E       		.byte	0xe
 1683 09e6 A5       		.byte	0xa5
 1684 09e7 D7010000 		.4byte	0x1d7
 1685 09eb 00       		.byte	0
 1686 09ec 12       		.uleb128 0x12
 1687 09ed 3C000000 		.4byte	.LASF179
 1688 09f1 0E       		.byte	0xe
 1689 09f2 AA       		.byte	0xaa
 1690 09f3 A9090000 		.4byte	0x9a9
 1691 09f7 04       		.byte	0x4
 1692 09f8 00       		.byte	0
 1693 09f9 06       		.uleb128 0x6
 1694 09fa 650C0000 		.4byte	.LASF180
 1695 09fe 0E       		.byte	0xe
 1696 09ff AB       		.byte	0xab
 1697 0a00 D8090000 		.4byte	0x9d8
 1698 0a04 06       		.uleb128 0x6
 1699 0a05 63020000 		.4byte	.LASF181
 1700 0a09 0E       		.byte	0xe
 1701 0a0a AF       		.byte	0xaf
 1702 0a0b 7C090000 		.4byte	0x97c
 1703 0a0f 06       		.uleb128 0x6
 1704 0a10 3B0E0000 		.4byte	.LASF182
 1705 0a14 10       		.byte	0x10
 1706 0a15 16       		.byte	0x16
 1707 0a16 C2010000 		.4byte	0x1c2
 1708 0a1a 1B       		.uleb128 0x1b
 1709 0a1b 12080000 		.4byte	.LASF187
 1710 0a1f 18       		.byte	0x18
 1711 0a20 10       		.byte	0x10
 1712 0a21 2D       		.byte	0x2d
 1713 0a22 6D0A0000 		.4byte	0xa6d
 1714 0a26 12       		.uleb128 0x12
 1715 0a27 970C0000 		.4byte	.LASF183
 1716 0a2b 10       		.byte	0x10
 1717 0a2c 2F       		.byte	0x2f
ARM GAS  /tmp/ccztuyKP.s 			page 34


 1718 0a2d 6D0A0000 		.4byte	0xa6d
 1719 0a31 00       		.byte	0
 1720 0a32 1C       		.uleb128 0x1c
 1721 0a33 5F6B00   		.ascii	"_k\000"
 1722 0a36 10       		.byte	0x10
 1723 0a37 30       		.byte	0x30
 1724 0a38 D7010000 		.4byte	0x1d7
 1725 0a3c 04       		.byte	0x4
 1726 0a3d 12       		.uleb128 0x12
 1727 0a3e 2A080000 		.4byte	.LASF184
 1728 0a42 10       		.byte	0x10
 1729 0a43 30       		.byte	0x30
 1730 0a44 D7010000 		.4byte	0x1d7
 1731 0a48 08       		.byte	0x8
 1732 0a49 12       		.uleb128 0x12
 1733 0a4a 46090000 		.4byte	.LASF185
 1734 0a4e 10       		.byte	0x10
 1735 0a4f 30       		.byte	0x30
 1736 0a50 D7010000 		.4byte	0x1d7
 1737 0a54 0C       		.byte	0xc
 1738 0a55 12       		.uleb128 0x12
 1739 0a56 49060000 		.4byte	.LASF186
 1740 0a5a 10       		.byte	0x10
 1741 0a5b 30       		.byte	0x30
 1742 0a5c D7010000 		.4byte	0x1d7
 1743 0a60 10       		.byte	0x10
 1744 0a61 1C       		.uleb128 0x1c
 1745 0a62 5F7800   		.ascii	"_x\000"
 1746 0a65 10       		.byte	0x10
 1747 0a66 31       		.byte	0x31
 1748 0a67 730A0000 		.4byte	0xa73
 1749 0a6b 14       		.byte	0x14
 1750 0a6c 00       		.byte	0
 1751 0a6d 15       		.uleb128 0x15
 1752 0a6e 04       		.byte	0x4
 1753 0a6f 1A0A0000 		.4byte	0xa1a
 1754 0a73 16       		.uleb128 0x16
 1755 0a74 0F0A0000 		.4byte	0xa0f
 1756 0a78 830A0000 		.4byte	0xa83
 1757 0a7c 17       		.uleb128 0x17
 1758 0a7d 2B020000 		.4byte	0x22b
 1759 0a81 00       		.byte	0
 1760 0a82 00       		.byte	0
 1761 0a83 1B       		.uleb128 0x1b
 1762 0a84 AB000000 		.4byte	.LASF188
 1763 0a88 24       		.byte	0x24
 1764 0a89 10       		.byte	0x10
 1765 0a8a 35       		.byte	0x35
 1766 0a8b FC0A0000 		.4byte	0xafc
 1767 0a8f 12       		.uleb128 0x12
 1768 0a90 C7000000 		.4byte	.LASF189
 1769 0a94 10       		.byte	0x10
 1770 0a95 37       		.byte	0x37
 1771 0a96 D7010000 		.4byte	0x1d7
 1772 0a9a 00       		.byte	0
 1773 0a9b 12       		.uleb128 0x12
 1774 0a9c 710F0000 		.4byte	.LASF190
ARM GAS  /tmp/ccztuyKP.s 			page 35


 1775 0aa0 10       		.byte	0x10
 1776 0aa1 38       		.byte	0x38
 1777 0aa2 D7010000 		.4byte	0x1d7
 1778 0aa6 04       		.byte	0x4
 1779 0aa7 12       		.uleb128 0x12
 1780 0aa8 DC0E0000 		.4byte	.LASF191
 1781 0aac 10       		.byte	0x10
 1782 0aad 39       		.byte	0x39
 1783 0aae D7010000 		.4byte	0x1d7
 1784 0ab2 08       		.byte	0x8
 1785 0ab3 12       		.uleb128 0x12
 1786 0ab4 9D090000 		.4byte	.LASF192
 1787 0ab8 10       		.byte	0x10
 1788 0ab9 3A       		.byte	0x3a
 1789 0aba D7010000 		.4byte	0x1d7
 1790 0abe 0C       		.byte	0xc
 1791 0abf 12       		.uleb128 0x12
 1792 0ac0 98020000 		.4byte	.LASF193
 1793 0ac4 10       		.byte	0x10
 1794 0ac5 3B       		.byte	0x3b
 1795 0ac6 D7010000 		.4byte	0x1d7
 1796 0aca 10       		.byte	0x10
 1797 0acb 12       		.uleb128 0x12
 1798 0acc BD0D0000 		.4byte	.LASF194
 1799 0ad0 10       		.byte	0x10
 1800 0ad1 3C       		.byte	0x3c
 1801 0ad2 D7010000 		.4byte	0x1d7
 1802 0ad6 14       		.byte	0x14
 1803 0ad7 12       		.uleb128 0x12
 1804 0ad8 EE0E0000 		.4byte	.LASF195
 1805 0adc 10       		.byte	0x10
 1806 0add 3D       		.byte	0x3d
 1807 0ade D7010000 		.4byte	0x1d7
 1808 0ae2 18       		.byte	0x18
 1809 0ae3 12       		.uleb128 0x12
 1810 0ae4 450A0000 		.4byte	.LASF196
 1811 0ae8 10       		.byte	0x10
 1812 0ae9 3E       		.byte	0x3e
 1813 0aea D7010000 		.4byte	0x1d7
 1814 0aee 1C       		.byte	0x1c
 1815 0aef 12       		.uleb128 0x12
 1816 0af0 530F0000 		.4byte	.LASF197
 1817 0af4 10       		.byte	0x10
 1818 0af5 3F       		.byte	0x3f
 1819 0af6 D7010000 		.4byte	0x1d7
 1820 0afa 20       		.byte	0x20
 1821 0afb 00       		.byte	0
 1822 0afc 1D       		.uleb128 0x1d
 1823 0afd A5010000 		.4byte	.LASF198
 1824 0b01 0801     		.2byte	0x108
 1825 0b03 10       		.byte	0x10
 1826 0b04 48       		.byte	0x48
 1827 0b05 3C0B0000 		.4byte	0xb3c
 1828 0b09 12       		.uleb128 0x12
 1829 0b0a 4B0F0000 		.4byte	.LASF199
 1830 0b0e 10       		.byte	0x10
 1831 0b0f 49       		.byte	0x49
ARM GAS  /tmp/ccztuyKP.s 			page 36


 1832 0b10 3C0B0000 		.4byte	0xb3c
 1833 0b14 00       		.byte	0
 1834 0b15 12       		.uleb128 0x12
 1835 0b16 200B0000 		.4byte	.LASF200
 1836 0b1a 10       		.byte	0x10
 1837 0b1b 4A       		.byte	0x4a
 1838 0b1c 3C0B0000 		.4byte	0xb3c
 1839 0b20 80       		.byte	0x80
 1840 0b21 1E       		.uleb128 0x1e
 1841 0b22 A10D0000 		.4byte	.LASF201
 1842 0b26 10       		.byte	0x10
 1843 0b27 4C       		.byte	0x4c
 1844 0b28 0F0A0000 		.4byte	0xa0f
 1845 0b2c 0001     		.2byte	0x100
 1846 0b2e 1E       		.uleb128 0x1e
 1847 0b2f 83050000 		.4byte	.LASF202
 1848 0b33 10       		.byte	0x10
 1849 0b34 4F       		.byte	0x4f
 1850 0b35 0F0A0000 		.4byte	0xa0f
 1851 0b39 0401     		.2byte	0x104
 1852 0b3b 00       		.byte	0
 1853 0b3c 16       		.uleb128 0x16
 1854 0b3d 7A090000 		.4byte	0x97a
 1855 0b41 4C0B0000 		.4byte	0xb4c
 1856 0b45 17       		.uleb128 0x17
 1857 0b46 2B020000 		.4byte	0x22b
 1858 0b4a 1F       		.byte	0x1f
 1859 0b4b 00       		.byte	0
 1860 0b4c 1D       		.uleb128 0x1d
 1861 0b4d F6090000 		.4byte	.LASF203
 1862 0b51 9001     		.2byte	0x190
 1863 0b53 10       		.byte	0x10
 1864 0b54 5B       		.byte	0x5b
 1865 0b55 8A0B0000 		.4byte	0xb8a
 1866 0b59 12       		.uleb128 0x12
 1867 0b5a 970C0000 		.4byte	.LASF183
 1868 0b5e 10       		.byte	0x10
 1869 0b5f 5C       		.byte	0x5c
 1870 0b60 8A0B0000 		.4byte	0xb8a
 1871 0b64 00       		.byte	0
 1872 0b65 12       		.uleb128 0x12
 1873 0b66 50040000 		.4byte	.LASF204
 1874 0b6a 10       		.byte	0x10
 1875 0b6b 5D       		.byte	0x5d
 1876 0b6c D7010000 		.4byte	0x1d7
 1877 0b70 04       		.byte	0x4
 1878 0b71 12       		.uleb128 0x12
 1879 0b72 91040000 		.4byte	.LASF205
 1880 0b76 10       		.byte	0x10
 1881 0b77 5F       		.byte	0x5f
 1882 0b78 900B0000 		.4byte	0xb90
 1883 0b7c 08       		.byte	0x8
 1884 0b7d 12       		.uleb128 0x12
 1885 0b7e A5010000 		.4byte	.LASF198
 1886 0b82 10       		.byte	0x10
 1887 0b83 60       		.byte	0x60
 1888 0b84 FC0A0000 		.4byte	0xafc
ARM GAS  /tmp/ccztuyKP.s 			page 37


 1889 0b88 88       		.byte	0x88
 1890 0b89 00       		.byte	0
 1891 0b8a 15       		.uleb128 0x15
 1892 0b8b 04       		.byte	0x4
 1893 0b8c 4C0B0000 		.4byte	0xb4c
 1894 0b90 16       		.uleb128 0x16
 1895 0b91 FD080000 		.4byte	0x8fd
 1896 0b95 A00B0000 		.4byte	0xba0
 1897 0b99 17       		.uleb128 0x17
 1898 0b9a 2B020000 		.4byte	0x22b
 1899 0b9e 1F       		.byte	0x1f
 1900 0b9f 00       		.byte	0
 1901 0ba0 1B       		.uleb128 0x1b
 1902 0ba1 180E0000 		.4byte	.LASF206
 1903 0ba5 08       		.byte	0x8
 1904 0ba6 10       		.byte	0x10
 1905 0ba7 73       		.byte	0x73
 1906 0ba8 C50B0000 		.4byte	0xbc5
 1907 0bac 12       		.uleb128 0x12
 1908 0bad DF0B0000 		.4byte	.LASF207
 1909 0bb1 10       		.byte	0x10
 1910 0bb2 74       		.byte	0x74
 1911 0bb3 C50B0000 		.4byte	0xbc5
 1912 0bb7 00       		.byte	0
 1913 0bb8 12       		.uleb128 0x12
 1914 0bb9 40020000 		.4byte	.LASF208
 1915 0bbd 10       		.byte	0x10
 1916 0bbe 75       		.byte	0x75
 1917 0bbf D7010000 		.4byte	0x1d7
 1918 0bc3 04       		.byte	0x4
 1919 0bc4 00       		.byte	0
 1920 0bc5 15       		.uleb128 0x15
 1921 0bc6 04       		.byte	0x4
 1922 0bc7 7A010000 		.4byte	0x17a
 1923 0bcb 1B       		.uleb128 0x1b
 1924 0bcc E60E0000 		.4byte	.LASF209
 1925 0bd0 68       		.byte	0x68
 1926 0bd1 10       		.byte	0x10
 1927 0bd2 B3       		.byte	0xb3
 1928 0bd3 F50C0000 		.4byte	0xcf5
 1929 0bd7 1C       		.uleb128 0x1c
 1930 0bd8 5F7000   		.ascii	"_p\000"
 1931 0bdb 10       		.byte	0x10
 1932 0bdc B4       		.byte	0xb4
 1933 0bdd C50B0000 		.4byte	0xbc5
 1934 0be1 00       		.byte	0
 1935 0be2 1C       		.uleb128 0x1c
 1936 0be3 5F7200   		.ascii	"_r\000"
 1937 0be6 10       		.byte	0x10
 1938 0be7 B5       		.byte	0xb5
 1939 0be8 D7010000 		.4byte	0x1d7
 1940 0bec 04       		.byte	0x4
 1941 0bed 1C       		.uleb128 0x1c
 1942 0bee 5F7700   		.ascii	"_w\000"
 1943 0bf1 10       		.byte	0x10
 1944 0bf2 B6       		.byte	0xb6
 1945 0bf3 D7010000 		.4byte	0x1d7
ARM GAS  /tmp/ccztuyKP.s 			page 38


 1946 0bf7 08       		.byte	0x8
 1947 0bf8 12       		.uleb128 0x12
 1948 0bf9 EF090000 		.4byte	.LASF210
 1949 0bfd 10       		.byte	0x10
 1950 0bfe B7       		.byte	0xb7
 1951 0bff 8C010000 		.4byte	0x18c
 1952 0c03 0C       		.byte	0xc
 1953 0c04 12       		.uleb128 0x12
 1954 0c05 9F010000 		.4byte	.LASF211
 1955 0c09 10       		.byte	0x10
 1956 0c0a B8       		.byte	0xb8
 1957 0c0b 8C010000 		.4byte	0x18c
 1958 0c0f 0E       		.byte	0xe
 1959 0c10 1C       		.uleb128 0x1c
 1960 0c11 5F626600 		.ascii	"_bf\000"
 1961 0c15 10       		.byte	0x10
 1962 0c16 B9       		.byte	0xb9
 1963 0c17 A00B0000 		.4byte	0xba0
 1964 0c1b 10       		.byte	0x10
 1965 0c1c 12       		.uleb128 0x12
 1966 0c1d D90D0000 		.4byte	.LASF212
 1967 0c21 10       		.byte	0x10
 1968 0c22 BA       		.byte	0xba
 1969 0c23 D7010000 		.4byte	0x1d7
 1970 0c27 18       		.byte	0x18
 1971 0c28 12       		.uleb128 0x12
 1972 0c29 41060000 		.4byte	.LASF213
 1973 0c2d 10       		.byte	0x10
 1974 0c2e C1       		.byte	0xc1
 1975 0c2f 7A090000 		.4byte	0x97a
 1976 0c33 1C       		.byte	0x1c
 1977 0c34 12       		.uleb128 0x12
 1978 0c35 49000000 		.4byte	.LASF214
 1979 0c39 10       		.byte	0x10
 1980 0c3a C3       		.byte	0xc3
 1981 0c3b 620E0000 		.4byte	0xe62
 1982 0c3f 20       		.byte	0x20
 1983 0c40 12       		.uleb128 0x12
 1984 0c41 67000000 		.4byte	.LASF215
 1985 0c45 10       		.byte	0x10
 1986 0c46 C5       		.byte	0xc5
 1987 0c47 910E0000 		.4byte	0xe91
 1988 0c4b 24       		.byte	0x24
 1989 0c4c 12       		.uleb128 0x12
 1990 0c4d 710A0000 		.4byte	.LASF216
 1991 0c51 10       		.byte	0x10
 1992 0c52 C8       		.byte	0xc8
 1993 0c53 B50E0000 		.4byte	0xeb5
 1994 0c57 28       		.byte	0x28
 1995 0c58 12       		.uleb128 0x12
 1996 0c59 9B040000 		.4byte	.LASF217
 1997 0c5d 10       		.byte	0x10
 1998 0c5e C9       		.byte	0xc9
 1999 0c5f CF0E0000 		.4byte	0xecf
 2000 0c63 2C       		.byte	0x2c
 2001 0c64 1C       		.uleb128 0x1c
 2002 0c65 5F756200 		.ascii	"_ub\000"
ARM GAS  /tmp/ccztuyKP.s 			page 39


 2003 0c69 10       		.byte	0x10
 2004 0c6a CC       		.byte	0xcc
 2005 0c6b A00B0000 		.4byte	0xba0
 2006 0c6f 30       		.byte	0x30
 2007 0c70 1C       		.uleb128 0x1c
 2008 0c71 5F757000 		.ascii	"_up\000"
 2009 0c75 10       		.byte	0x10
 2010 0c76 CD       		.byte	0xcd
 2011 0c77 C50B0000 		.4byte	0xbc5
 2012 0c7b 38       		.byte	0x38
 2013 0c7c 1C       		.uleb128 0x1c
 2014 0c7d 5F757200 		.ascii	"_ur\000"
 2015 0c81 10       		.byte	0x10
 2016 0c82 CE       		.byte	0xce
 2017 0c83 D7010000 		.4byte	0x1d7
 2018 0c87 3C       		.byte	0x3c
 2019 0c88 12       		.uleb128 0x12
 2020 0c89 AC090000 		.4byte	.LASF218
 2021 0c8d 10       		.byte	0x10
 2022 0c8e D1       		.byte	0xd1
 2023 0c8f D50E0000 		.4byte	0xed5
 2024 0c93 40       		.byte	0x40
 2025 0c94 12       		.uleb128 0x12
 2026 0c95 C1000000 		.4byte	.LASF219
 2027 0c99 10       		.byte	0x10
 2028 0c9a D2       		.byte	0xd2
 2029 0c9b E50E0000 		.4byte	0xee5
 2030 0c9f 43       		.byte	0x43
 2031 0ca0 1C       		.uleb128 0x1c
 2032 0ca1 5F6C6200 		.ascii	"_lb\000"
 2033 0ca5 10       		.byte	0x10
 2034 0ca6 D5       		.byte	0xd5
 2035 0ca7 A00B0000 		.4byte	0xba0
 2036 0cab 44       		.byte	0x44
 2037 0cac 12       		.uleb128 0x12
 2038 0cad C30B0000 		.4byte	.LASF220
 2039 0cb1 10       		.byte	0x10
 2040 0cb2 D8       		.byte	0xd8
 2041 0cb3 D7010000 		.4byte	0x1d7
 2042 0cb7 4C       		.byte	0x4c
 2043 0cb8 12       		.uleb128 0x12
 2044 0cb9 830A0000 		.4byte	.LASF221
 2045 0cbd 10       		.byte	0x10
 2046 0cbe D9       		.byte	0xd9
 2047 0cbf 87090000 		.4byte	0x987
 2048 0cc3 50       		.byte	0x50
 2049 0cc4 12       		.uleb128 0x12
 2050 0cc5 9D0C0000 		.4byte	.LASF222
 2051 0cc9 10       		.byte	0x10
 2052 0cca DC       		.byte	0xdc
 2053 0ccb 130D0000 		.4byte	0xd13
 2054 0ccf 54       		.byte	0x54
 2055 0cd0 12       		.uleb128 0x12
 2056 0cd1 F0000000 		.4byte	.LASF223
 2057 0cd5 10       		.byte	0x10
 2058 0cd6 E0       		.byte	0xe0
 2059 0cd7 040A0000 		.4byte	0xa04
ARM GAS  /tmp/ccztuyKP.s 			page 40


 2060 0cdb 58       		.byte	0x58
 2061 0cdc 12       		.uleb128 0x12
 2062 0cdd DB090000 		.4byte	.LASF224
 2063 0ce1 10       		.byte	0x10
 2064 0ce2 E2       		.byte	0xe2
 2065 0ce3 F9090000 		.4byte	0x9f9
 2066 0ce7 5C       		.byte	0x5c
 2067 0ce8 12       		.uleb128 0x12
 2068 0ce9 77070000 		.4byte	.LASF225
 2069 0ced 10       		.byte	0x10
 2070 0cee E3       		.byte	0xe3
 2071 0cef D7010000 		.4byte	0x1d7
 2072 0cf3 64       		.byte	0x64
 2073 0cf4 00       		.byte	0
 2074 0cf5 1F       		.uleb128 0x1f
 2075 0cf6 D7010000 		.4byte	0x1d7
 2076 0cfa 130D0000 		.4byte	0xd13
 2077 0cfe 20       		.uleb128 0x20
 2078 0cff 130D0000 		.4byte	0xd13
 2079 0d03 20       		.uleb128 0x20
 2080 0d04 7A090000 		.4byte	0x97a
 2081 0d08 20       		.uleb128 0x20
 2082 0d09 500E0000 		.4byte	0xe50
 2083 0d0d 20       		.uleb128 0x20
 2084 0d0e D7010000 		.4byte	0x1d7
 2085 0d12 00       		.byte	0
 2086 0d13 15       		.uleb128 0x15
 2087 0d14 04       		.byte	0x4
 2088 0d15 1E0D0000 		.4byte	0xd1e
 2089 0d19 21       		.uleb128 0x21
 2090 0d1a 130D0000 		.4byte	0xd13
 2091 0d1e 22       		.uleb128 0x22
 2092 0d1f 02040000 		.4byte	.LASF226
 2093 0d23 2804     		.2byte	0x428
 2094 0d25 10       		.byte	0x10
 2095 0d26 3802     		.2byte	0x238
 2096 0d28 500E0000 		.4byte	0xe50
 2097 0d2c 10       		.uleb128 0x10
 2098 0d2d AF070000 		.4byte	.LASF227
 2099 0d31 10       		.byte	0x10
 2100 0d32 3A02     		.2byte	0x23a
 2101 0d34 D7010000 		.4byte	0x1d7
 2102 0d38 00       		.byte	0
 2103 0d39 10       		.uleb128 0x10
 2104 0d3a 5D050000 		.4byte	.LASF228
 2105 0d3e 10       		.byte	0x10
 2106 0d3f 3F02     		.2byte	0x23f
 2107 0d41 3C0F0000 		.4byte	0xf3c
 2108 0d45 04       		.byte	0x4
 2109 0d46 10       		.uleb128 0x10
 2110 0d47 41030000 		.4byte	.LASF229
 2111 0d4b 10       		.byte	0x10
 2112 0d4c 3F02     		.2byte	0x23f
 2113 0d4e 3C0F0000 		.4byte	0xf3c
 2114 0d52 08       		.byte	0x8
 2115 0d53 10       		.uleb128 0x10
 2116 0d54 C5090000 		.4byte	.LASF230
ARM GAS  /tmp/ccztuyKP.s 			page 41


 2117 0d58 10       		.byte	0x10
 2118 0d59 3F02     		.2byte	0x23f
 2119 0d5b 3C0F0000 		.4byte	0xf3c
 2120 0d5f 0C       		.byte	0xc
 2121 0d60 10       		.uleb128 0x10
 2122 0d61 E80D0000 		.4byte	.LASF231
 2123 0d65 10       		.byte	0x10
 2124 0d66 4102     		.2byte	0x241
 2125 0d68 D7010000 		.4byte	0x1d7
 2126 0d6c 10       		.byte	0x10
 2127 0d6d 10       		.uleb128 0x10
 2128 0d6e 6C080000 		.4byte	.LASF232
 2129 0d72 10       		.byte	0x10
 2130 0d73 4202     		.2byte	0x242
 2131 0d75 1E110000 		.4byte	0x111e
 2132 0d79 14       		.byte	0x14
 2133 0d7a 10       		.uleb128 0x10
 2134 0d7b D2020000 		.4byte	.LASF233
 2135 0d7f 10       		.byte	0x10
 2136 0d80 4402     		.2byte	0x244
 2137 0d82 D7010000 		.4byte	0x1d7
 2138 0d86 30       		.byte	0x30
 2139 0d87 10       		.uleb128 0x10
 2140 0d88 13090000 		.4byte	.LASF234
 2141 0d8c 10       		.byte	0x10
 2142 0d8d 4502     		.2byte	0x245
 2143 0d8f 860E0000 		.4byte	0xe86
 2144 0d93 34       		.byte	0x34
 2145 0d94 10       		.uleb128 0x10
 2146 0d95 E5000000 		.4byte	.LASF235
 2147 0d99 10       		.byte	0x10
 2148 0d9a 4702     		.2byte	0x247
 2149 0d9c D7010000 		.4byte	0x1d7
 2150 0da0 38       		.byte	0x38
 2151 0da1 10       		.uleb128 0x10
 2152 0da2 32080000 		.4byte	.LASF236
 2153 0da6 10       		.byte	0x10
 2154 0da7 4902     		.2byte	0x249
 2155 0da9 39110000 		.4byte	0x1139
 2156 0dad 3C       		.byte	0x3c
 2157 0dae 10       		.uleb128 0x10
 2158 0daf 5E0E0000 		.4byte	.LASF237
 2159 0db3 10       		.byte	0x10
 2160 0db4 4C02     		.2byte	0x24c
 2161 0db6 6D0A0000 		.4byte	0xa6d
 2162 0dba 40       		.byte	0x40
 2163 0dbb 10       		.uleb128 0x10
 2164 0dbc 36020000 		.4byte	.LASF238
 2165 0dc0 10       		.byte	0x10
 2166 0dc1 4D02     		.2byte	0x24d
 2167 0dc3 D7010000 		.4byte	0x1d7
 2168 0dc7 44       		.byte	0x44
 2169 0dc8 10       		.uleb128 0x10
 2170 0dc9 03070000 		.4byte	.LASF239
 2171 0dcd 10       		.byte	0x10
 2172 0dce 4E02     		.2byte	0x24e
 2173 0dd0 6D0A0000 		.4byte	0xa6d
ARM GAS  /tmp/ccztuyKP.s 			page 42


 2174 0dd4 48       		.byte	0x48
 2175 0dd5 10       		.uleb128 0x10
 2176 0dd6 23090000 		.4byte	.LASF240
 2177 0dda 10       		.byte	0x10
 2178 0ddb 4F02     		.2byte	0x24f
 2179 0ddd 3F110000 		.4byte	0x113f
 2180 0de1 4C       		.byte	0x4c
 2181 0de2 10       		.uleb128 0x10
 2182 0de3 88000000 		.4byte	.LASF241
 2183 0de7 10       		.byte	0x10
 2184 0de8 5202     		.2byte	0x252
 2185 0dea D7010000 		.4byte	0x1d7
 2186 0dee 50       		.byte	0x50
 2187 0def 10       		.uleb128 0x10
 2188 0df0 72060000 		.4byte	.LASF242
 2189 0df4 10       		.byte	0x10
 2190 0df5 5302     		.2byte	0x253
 2191 0df7 500E0000 		.4byte	0xe50
 2192 0dfb 54       		.byte	0x54
 2193 0dfc 10       		.uleb128 0x10
 2194 0dfd A7090000 		.4byte	.LASF243
 2195 0e01 10       		.byte	0x10
 2196 0e02 7602     		.2byte	0x276
 2197 0e04 FC100000 		.4byte	0x10fc
 2198 0e08 58       		.byte	0x58
 2199 0e09 23       		.uleb128 0x23
 2200 0e0a F6090000 		.4byte	.LASF203
 2201 0e0e 10       		.byte	0x10
 2202 0e0f 7A02     		.2byte	0x27a
 2203 0e11 8A0B0000 		.4byte	0xb8a
 2204 0e15 4801     		.2byte	0x148
 2205 0e17 23       		.uleb128 0x23
 2206 0e18 4A080000 		.4byte	.LASF244
 2207 0e1c 10       		.byte	0x10
 2208 0e1d 7B02     		.2byte	0x27b
 2209 0e1f 4C0B0000 		.4byte	0xb4c
 2210 0e23 4C01     		.2byte	0x14c
 2211 0e25 23       		.uleb128 0x23
 2212 0e26 4E060000 		.4byte	.LASF245
 2213 0e2a 10       		.byte	0x10
 2214 0e2b 7F02     		.2byte	0x27f
 2215 0e2d 50110000 		.4byte	0x1150
 2216 0e31 DC02     		.2byte	0x2dc
 2217 0e33 23       		.uleb128 0x23
 2218 0e34 B8080000 		.4byte	.LASF246
 2219 0e38 10       		.byte	0x10
 2220 0e39 8402     		.2byte	0x284
 2221 0e3b 010F0000 		.4byte	0xf01
 2222 0e3f E002     		.2byte	0x2e0
 2223 0e41 23       		.uleb128 0x23
 2224 0e42 44000000 		.4byte	.LASF247
 2225 0e46 10       		.byte	0x10
 2226 0e47 8502     		.2byte	0x285
 2227 0e49 5C110000 		.4byte	0x115c
 2228 0e4d EC02     		.2byte	0x2ec
 2229 0e4f 00       		.byte	0
 2230 0e50 15       		.uleb128 0x15
ARM GAS  /tmp/ccztuyKP.s 			page 43


 2231 0e51 04       		.byte	0x4
 2232 0e52 560E0000 		.4byte	0xe56
 2233 0e56 05       		.uleb128 0x5
 2234 0e57 01       		.byte	0x1
 2235 0e58 08       		.byte	0x8
 2236 0e59 8C040000 		.4byte	.LASF248
 2237 0e5d 21       		.uleb128 0x21
 2238 0e5e 560E0000 		.4byte	0xe56
 2239 0e62 15       		.uleb128 0x15
 2240 0e63 04       		.byte	0x4
 2241 0e64 F50C0000 		.4byte	0xcf5
 2242 0e68 1F       		.uleb128 0x1f
 2243 0e69 D7010000 		.4byte	0x1d7
 2244 0e6d 860E0000 		.4byte	0xe86
 2245 0e71 20       		.uleb128 0x20
 2246 0e72 130D0000 		.4byte	0xd13
 2247 0e76 20       		.uleb128 0x20
 2248 0e77 7A090000 		.4byte	0x97a
 2249 0e7b 20       		.uleb128 0x20
 2250 0e7c 860E0000 		.4byte	0xe86
 2251 0e80 20       		.uleb128 0x20
 2252 0e81 D7010000 		.4byte	0x1d7
 2253 0e85 00       		.byte	0
 2254 0e86 15       		.uleb128 0x15
 2255 0e87 04       		.byte	0x4
 2256 0e88 5D0E0000 		.4byte	0xe5d
 2257 0e8c 21       		.uleb128 0x21
 2258 0e8d 860E0000 		.4byte	0xe86
 2259 0e91 15       		.uleb128 0x15
 2260 0e92 04       		.byte	0x4
 2261 0e93 680E0000 		.4byte	0xe68
 2262 0e97 1F       		.uleb128 0x1f
 2263 0e98 92090000 		.4byte	0x992
 2264 0e9c B50E0000 		.4byte	0xeb5
 2265 0ea0 20       		.uleb128 0x20
 2266 0ea1 130D0000 		.4byte	0xd13
 2267 0ea5 20       		.uleb128 0x20
 2268 0ea6 7A090000 		.4byte	0x97a
 2269 0eaa 20       		.uleb128 0x20
 2270 0eab 92090000 		.4byte	0x992
 2271 0eaf 20       		.uleb128 0x20
 2272 0eb0 D7010000 		.4byte	0x1d7
 2273 0eb4 00       		.byte	0
 2274 0eb5 15       		.uleb128 0x15
 2275 0eb6 04       		.byte	0x4
 2276 0eb7 970E0000 		.4byte	0xe97
 2277 0ebb 1F       		.uleb128 0x1f
 2278 0ebc D7010000 		.4byte	0x1d7
 2279 0ec0 CF0E0000 		.4byte	0xecf
 2280 0ec4 20       		.uleb128 0x20
 2281 0ec5 130D0000 		.4byte	0xd13
 2282 0ec9 20       		.uleb128 0x20
 2283 0eca 7A090000 		.4byte	0x97a
 2284 0ece 00       		.byte	0
 2285 0ecf 15       		.uleb128 0x15
 2286 0ed0 04       		.byte	0x4
 2287 0ed1 BB0E0000 		.4byte	0xebb
ARM GAS  /tmp/ccztuyKP.s 			page 44


 2288 0ed5 16       		.uleb128 0x16
 2289 0ed6 7A010000 		.4byte	0x17a
 2290 0eda E50E0000 		.4byte	0xee5
 2291 0ede 17       		.uleb128 0x17
 2292 0edf 2B020000 		.4byte	0x22b
 2293 0ee3 02       		.byte	0x2
 2294 0ee4 00       		.byte	0
 2295 0ee5 16       		.uleb128 0x16
 2296 0ee6 7A010000 		.4byte	0x17a
 2297 0eea F50E0000 		.4byte	0xef5
 2298 0eee 17       		.uleb128 0x17
 2299 0eef 2B020000 		.4byte	0x22b
 2300 0ef3 00       		.byte	0
 2301 0ef4 00       		.byte	0
 2302 0ef5 0D       		.uleb128 0xd
 2303 0ef6 2E0C0000 		.4byte	.LASF249
 2304 0efa 10       		.byte	0x10
 2305 0efb 1D01     		.2byte	0x11d
 2306 0efd CB0B0000 		.4byte	0xbcb
 2307 0f01 24       		.uleb128 0x24
 2308 0f02 33090000 		.4byte	.LASF250
 2309 0f06 0C       		.byte	0xc
 2310 0f07 10       		.byte	0x10
 2311 0f08 2101     		.2byte	0x121
 2312 0f0a 360F0000 		.4byte	0xf36
 2313 0f0e 10       		.uleb128 0x10
 2314 0f0f 970C0000 		.4byte	.LASF183
 2315 0f13 10       		.byte	0x10
 2316 0f14 2301     		.2byte	0x123
 2317 0f16 360F0000 		.4byte	0xf36
 2318 0f1a 00       		.byte	0
 2319 0f1b 10       		.uleb128 0x10
 2320 0f1c 9D080000 		.4byte	.LASF251
 2321 0f20 10       		.byte	0x10
 2322 0f21 2401     		.2byte	0x124
 2323 0f23 D7010000 		.4byte	0x1d7
 2324 0f27 04       		.byte	0x4
 2325 0f28 10       		.uleb128 0x10
 2326 0f29 2D090000 		.4byte	.LASF252
 2327 0f2d 10       		.byte	0x10
 2328 0f2e 2501     		.2byte	0x125
 2329 0f30 3C0F0000 		.4byte	0xf3c
 2330 0f34 08       		.byte	0x8
 2331 0f35 00       		.byte	0
 2332 0f36 15       		.uleb128 0x15
 2333 0f37 04       		.byte	0x4
 2334 0f38 010F0000 		.4byte	0xf01
 2335 0f3c 15       		.uleb128 0x15
 2336 0f3d 04       		.byte	0x4
 2337 0f3e F50E0000 		.4byte	0xef5
 2338 0f42 24       		.uleb128 0x24
 2339 0f43 2C0B0000 		.4byte	.LASF253
 2340 0f47 0E       		.byte	0xe
 2341 0f48 10       		.byte	0x10
 2342 0f49 3D01     		.2byte	0x13d
 2343 0f4b 770F0000 		.4byte	0xf77
 2344 0f4f 10       		.uleb128 0x10
ARM GAS  /tmp/ccztuyKP.s 			page 45


 2345 0f50 600A0000 		.4byte	.LASF254
 2346 0f54 10       		.byte	0x10
 2347 0f55 3E01     		.2byte	0x13e
 2348 0f57 770F0000 		.4byte	0xf77
 2349 0f5b 00       		.byte	0
 2350 0f5c 10       		.uleb128 0x10
 2351 0f5d 31010000 		.4byte	.LASF255
 2352 0f61 10       		.byte	0x10
 2353 0f62 3F01     		.2byte	0x13f
 2354 0f64 770F0000 		.4byte	0xf77
 2355 0f68 06       		.byte	0x6
 2356 0f69 10       		.uleb128 0x10
 2357 0f6a A20E0000 		.4byte	.LASF256
 2358 0f6e 10       		.byte	0x10
 2359 0f6f 4001     		.2byte	0x140
 2360 0f71 9E010000 		.4byte	0x19e
 2361 0f75 0C       		.byte	0xc
 2362 0f76 00       		.byte	0
 2363 0f77 16       		.uleb128 0x16
 2364 0f78 9E010000 		.4byte	0x19e
 2365 0f7c 870F0000 		.4byte	0xf87
 2366 0f80 17       		.uleb128 0x17
 2367 0f81 2B020000 		.4byte	0x22b
 2368 0f85 02       		.byte	0x2
 2369 0f86 00       		.byte	0
 2370 0f87 0E       		.uleb128 0xe
 2371 0f88 D0       		.byte	0xd0
 2372 0f89 10       		.byte	0x10
 2373 0f8a 5702     		.2byte	0x257
 2374 0f8c 88100000 		.4byte	0x1088
 2375 0f90 10       		.uleb128 0x10
 2376 0f91 01030000 		.4byte	.LASF257
 2377 0f95 10       		.byte	0x10
 2378 0f96 5902     		.2byte	0x259
 2379 0f98 DE010000 		.4byte	0x1de
 2380 0f9c 00       		.byte	0
 2381 0f9d 10       		.uleb128 0x10
 2382 0f9e 010C0000 		.4byte	.LASF258
 2383 0fa2 10       		.byte	0x10
 2384 0fa3 5A02     		.2byte	0x25a
 2385 0fa5 500E0000 		.4byte	0xe50
 2386 0fa9 04       		.byte	0x4
 2387 0faa 10       		.uleb128 0x10
 2388 0fab 7B000000 		.4byte	.LASF259
 2389 0faf 10       		.byte	0x10
 2390 0fb0 5B02     		.2byte	0x25b
 2391 0fb2 88100000 		.4byte	0x1088
 2392 0fb6 08       		.byte	0x8
 2393 0fb7 10       		.uleb128 0x10
 2394 0fb8 54020000 		.4byte	.LASF260
 2395 0fbc 10       		.byte	0x10
 2396 0fbd 5C02     		.2byte	0x25c
 2397 0fbf 830A0000 		.4byte	0xa83
 2398 0fc3 24       		.byte	0x24
 2399 0fc4 10       		.uleb128 0x10
 2400 0fc5 F2080000 		.4byte	.LASF261
 2401 0fc9 10       		.byte	0x10
ARM GAS  /tmp/ccztuyKP.s 			page 46


 2402 0fca 5D02     		.2byte	0x25d
 2403 0fcc D7010000 		.4byte	0x1d7
 2404 0fd0 48       		.byte	0x48
 2405 0fd1 10       		.uleb128 0x10
 2406 0fd2 E4090000 		.4byte	.LASF262
 2407 0fd6 10       		.byte	0x10
 2408 0fd7 5E02     		.2byte	0x25e
 2409 0fd9 D0010000 		.4byte	0x1d0
 2410 0fdd 50       		.byte	0x50
 2411 0fde 10       		.uleb128 0x10
 2412 0fdf 700C0000 		.4byte	.LASF263
 2413 0fe3 10       		.byte	0x10
 2414 0fe4 5F02     		.2byte	0x25f
 2415 0fe6 420F0000 		.4byte	0xf42
 2416 0fea 58       		.byte	0x58
 2417 0feb 10       		.uleb128 0x10
 2418 0fec 4A0D0000 		.4byte	.LASF264
 2419 0ff0 10       		.byte	0x10
 2420 0ff1 6002     		.2byte	0x260
 2421 0ff3 F9090000 		.4byte	0x9f9
 2422 0ff7 68       		.byte	0x68
 2423 0ff8 10       		.uleb128 0x10
 2424 0ff9 C90A0000 		.4byte	.LASF265
 2425 0ffd 10       		.byte	0x10
 2426 0ffe 6102     		.2byte	0x261
 2427 1000 F9090000 		.4byte	0x9f9
 2428 1004 70       		.byte	0x70
 2429 1005 10       		.uleb128 0x10
 2430 1006 CD090000 		.4byte	.LASF266
 2431 100a 10       		.byte	0x10
 2432 100b 6202     		.2byte	0x262
 2433 100d F9090000 		.4byte	0x9f9
 2434 1011 78       		.byte	0x78
 2435 1012 10       		.uleb128 0x10
 2436 1013 D0000000 		.4byte	.LASF267
 2437 1017 10       		.byte	0x10
 2438 1018 6302     		.2byte	0x263
 2439 101a 98100000 		.4byte	0x1098
 2440 101e 80       		.byte	0x80
 2441 101f 10       		.uleb128 0x10
 2442 1020 D8070000 		.4byte	.LASF268
 2443 1024 10       		.byte	0x10
 2444 1025 6402     		.2byte	0x264
 2445 1027 A8100000 		.4byte	0x10a8
 2446 102b 88       		.byte	0x88
 2447 102c 10       		.uleb128 0x10
 2448 102d 7A0F0000 		.4byte	.LASF269
 2449 1031 10       		.byte	0x10
 2450 1032 6502     		.2byte	0x265
 2451 1034 D7010000 		.4byte	0x1d7
 2452 1038 A0       		.byte	0xa0
 2453 1039 10       		.uleb128 0x10
 2454 103a F7010000 		.4byte	.LASF270
 2455 103e 10       		.byte	0x10
 2456 103f 6602     		.2byte	0x266
 2457 1041 F9090000 		.4byte	0x9f9
 2458 1045 A4       		.byte	0xa4
ARM GAS  /tmp/ccztuyKP.s 			page 47


 2459 1046 10       		.uleb128 0x10
 2460 1047 1A0C0000 		.4byte	.LASF271
 2461 104b 10       		.byte	0x10
 2462 104c 6702     		.2byte	0x267
 2463 104e F9090000 		.4byte	0x9f9
 2464 1052 AC       		.byte	0xac
 2465 1053 10       		.uleb128 0x10
 2466 1054 300F0000 		.4byte	.LASF272
 2467 1058 10       		.byte	0x10
 2468 1059 6802     		.2byte	0x268
 2469 105b F9090000 		.4byte	0x9f9
 2470 105f B4       		.byte	0xb4
 2471 1060 10       		.uleb128 0x10
 2472 1061 350C0000 		.4byte	.LASF273
 2473 1065 10       		.byte	0x10
 2474 1066 6902     		.2byte	0x269
 2475 1068 F9090000 		.4byte	0x9f9
 2476 106c BC       		.byte	0xbc
 2477 106d 10       		.uleb128 0x10
 2478 106e B0000000 		.4byte	.LASF274
 2479 1072 10       		.byte	0x10
 2480 1073 6A02     		.2byte	0x26a
 2481 1075 F9090000 		.4byte	0x9f9
 2482 1079 C4       		.byte	0xc4
 2483 107a 10       		.uleb128 0x10
 2484 107b 6B090000 		.4byte	.LASF275
 2485 107f 10       		.byte	0x10
 2486 1080 6B02     		.2byte	0x26b
 2487 1082 D7010000 		.4byte	0x1d7
 2488 1086 CC       		.byte	0xcc
 2489 1087 00       		.byte	0
 2490 1088 16       		.uleb128 0x16
 2491 1089 560E0000 		.4byte	0xe56
 2492 108d 98100000 		.4byte	0x1098
 2493 1091 17       		.uleb128 0x17
 2494 1092 2B020000 		.4byte	0x22b
 2495 1096 19       		.byte	0x19
 2496 1097 00       		.byte	0
 2497 1098 16       		.uleb128 0x16
 2498 1099 560E0000 		.4byte	0xe56
 2499 109d A8100000 		.4byte	0x10a8
 2500 10a1 17       		.uleb128 0x17
 2501 10a2 2B020000 		.4byte	0x22b
 2502 10a6 07       		.byte	0x7
 2503 10a7 00       		.byte	0
 2504 10a8 16       		.uleb128 0x16
 2505 10a9 560E0000 		.4byte	0xe56
 2506 10ad B8100000 		.4byte	0x10b8
 2507 10b1 17       		.uleb128 0x17
 2508 10b2 2B020000 		.4byte	0x22b
 2509 10b6 17       		.byte	0x17
 2510 10b7 00       		.byte	0
 2511 10b8 0E       		.uleb128 0xe
 2512 10b9 F0       		.byte	0xf0
 2513 10ba 10       		.byte	0x10
 2514 10bb 7002     		.2byte	0x270
 2515 10bd DC100000 		.4byte	0x10dc
ARM GAS  /tmp/ccztuyKP.s 			page 48


 2516 10c1 10       		.uleb128 0x10
 2517 10c2 1F0E0000 		.4byte	.LASF276
 2518 10c6 10       		.byte	0x10
 2519 10c7 7302     		.2byte	0x273
 2520 10c9 DC100000 		.4byte	0x10dc
 2521 10cd 00       		.byte	0
 2522 10ce 10       		.uleb128 0x10
 2523 10cf C0080000 		.4byte	.LASF277
 2524 10d3 10       		.byte	0x10
 2525 10d4 7402     		.2byte	0x274
 2526 10d6 EC100000 		.4byte	0x10ec
 2527 10da 78       		.byte	0x78
 2528 10db 00       		.byte	0
 2529 10dc 16       		.uleb128 0x16
 2530 10dd C50B0000 		.4byte	0xbc5
 2531 10e1 EC100000 		.4byte	0x10ec
 2532 10e5 17       		.uleb128 0x17
 2533 10e6 2B020000 		.4byte	0x22b
 2534 10ea 1D       		.byte	0x1d
 2535 10eb 00       		.byte	0
 2536 10ec 16       		.uleb128 0x16
 2537 10ed DE010000 		.4byte	0x1de
 2538 10f1 FC100000 		.4byte	0x10fc
 2539 10f5 17       		.uleb128 0x17
 2540 10f6 2B020000 		.4byte	0x22b
 2541 10fa 1D       		.byte	0x1d
 2542 10fb 00       		.byte	0
 2543 10fc 25       		.uleb128 0x25
 2544 10fd F0       		.byte	0xf0
 2545 10fe 10       		.byte	0x10
 2546 10ff 5502     		.2byte	0x255
 2547 1101 1E110000 		.4byte	0x111e
 2548 1105 26       		.uleb128 0x26
 2549 1106 02040000 		.4byte	.LASF226
 2550 110a 10       		.byte	0x10
 2551 110b 6C02     		.2byte	0x26c
 2552 110d 870F0000 		.4byte	0xf87
 2553 1111 26       		.uleb128 0x26
 2554 1112 A3000000 		.4byte	.LASF278
 2555 1116 10       		.byte	0x10
 2556 1117 7502     		.2byte	0x275
 2557 1119 B8100000 		.4byte	0x10b8
 2558 111d 00       		.byte	0
 2559 111e 16       		.uleb128 0x16
 2560 111f 560E0000 		.4byte	0xe56
 2561 1123 2E110000 		.4byte	0x112e
 2562 1127 17       		.uleb128 0x17
 2563 1128 2B020000 		.4byte	0x22b
 2564 112c 18       		.byte	0x18
 2565 112d 00       		.byte	0
 2566 112e 27       		.uleb128 0x27
 2567 112f 39110000 		.4byte	0x1139
 2568 1133 20       		.uleb128 0x20
 2569 1134 130D0000 		.4byte	0xd13
 2570 1138 00       		.byte	0
 2571 1139 15       		.uleb128 0x15
 2572 113a 04       		.byte	0x4
ARM GAS  /tmp/ccztuyKP.s 			page 49


 2573 113b 2E110000 		.4byte	0x112e
 2574 113f 15       		.uleb128 0x15
 2575 1140 04       		.byte	0x4
 2576 1141 6D0A0000 		.4byte	0xa6d
 2577 1145 27       		.uleb128 0x27
 2578 1146 50110000 		.4byte	0x1150
 2579 114a 20       		.uleb128 0x20
 2580 114b D7010000 		.4byte	0x1d7
 2581 114f 00       		.byte	0
 2582 1150 15       		.uleb128 0x15
 2583 1151 04       		.byte	0x4
 2584 1152 56110000 		.4byte	0x1156
 2585 1156 15       		.uleb128 0x15
 2586 1157 04       		.byte	0x4
 2587 1158 45110000 		.4byte	0x1145
 2588 115c 16       		.uleb128 0x16
 2589 115d F50E0000 		.4byte	0xef5
 2590 1161 6C110000 		.4byte	0x116c
 2591 1165 17       		.uleb128 0x17
 2592 1166 2B020000 		.4byte	0x22b
 2593 116a 02       		.byte	0x2
 2594 116b 00       		.byte	0
 2595 116c 09       		.uleb128 0x9
 2596 116d 20020000 		.4byte	.LASF279
 2597 1171 10       		.byte	0x10
 2598 1172 FD02     		.2byte	0x2fd
 2599 1174 130D0000 		.4byte	0xd13
 2600 1178 09       		.uleb128 0x9
 2601 1179 09040000 		.4byte	.LASF280
 2602 117d 10       		.byte	0x10
 2603 117e FE02     		.2byte	0x2fe
 2604 1180 190D0000 		.4byte	0xd19
 2605 1184 0A       		.uleb128 0xa
 2606 1185 970D0000 		.4byte	.LASF281
 2607 1189 11       		.byte	0x11
 2608 118a 5F       		.byte	0x5f
 2609 118b 500E0000 		.4byte	0xe50
 2610 118f 05       		.uleb128 0x5
 2611 1190 08       		.byte	0x8
 2612 1191 04       		.byte	0x4
 2613 1192 C9080000 		.4byte	.LASF282
 2614 1196 05       		.uleb128 0x5
 2615 1197 08       		.byte	0x8
 2616 1198 04       		.byte	0x4
 2617 1199 390A0000 		.4byte	.LASF283
 2618 119d 28       		.uleb128 0x28
 2619 119e B20B0000 		.4byte	.LASF285
 2620 11a2 01       		.byte	0x1
 2621 11a3 68010000 		.4byte	0x168
 2622 11a7 12       		.byte	0x12
 2623 11a8 9902     		.2byte	0x299
 2624 11aa C7110000 		.4byte	0x11c7
 2625 11ae 03       		.uleb128 0x3
 2626 11af 0A0E0000 		.4byte	.LASF286
 2627 11b3 7F       		.sleb128 -1
 2628 11b4 04       		.uleb128 0x4
 2629 11b5 53080000 		.4byte	.LASF287
ARM GAS  /tmp/ccztuyKP.s 			page 50


 2630 11b9 00       		.byte	0
 2631 11ba 04       		.uleb128 0x4
 2632 11bb 6A0D0000 		.4byte	.LASF288
 2633 11bf 01       		.byte	0x1
 2634 11c0 04       		.uleb128 0x4
 2635 11c1 170D0000 		.4byte	.LASF289
 2636 11c5 02       		.byte	0x2
 2637 11c6 00       		.byte	0
 2638 11c7 09       		.uleb128 0x9
 2639 11c8 DE060000 		.4byte	.LASF290
 2640 11cc 12       		.byte	0x12
 2641 11cd A402     		.2byte	0x2a4
 2642 11cf 9D110000 		.4byte	0x119d
 2643 11d3 16       		.uleb128 0x16
 2644 11d4 8C0E0000 		.4byte	0xe8c
 2645 11d8 DE110000 		.4byte	0x11de
 2646 11dc 29       		.uleb128 0x29
 2647 11dd 00       		.byte	0
 2648 11de 21       		.uleb128 0x21
 2649 11df D3110000 		.4byte	0x11d3
 2650 11e3 0A       		.uleb128 0xa
 2651 11e4 EF070000 		.4byte	.LASF291
 2652 11e8 13       		.byte	0x13
 2653 11e9 14       		.byte	0x14
 2654 11ea DE110000 		.4byte	0x11de
 2655 11ee 0A       		.uleb128 0xa
 2656 11ef 77080000 		.4byte	.LASF292
 2657 11f3 13       		.byte	0x13
 2658 11f4 15       		.byte	0x15
 2659 11f5 D7010000 		.4byte	0x1d7
 2660 11f9 2A       		.uleb128 0x2a
 2661 11fa 4F0A0000 		.4byte	.LASF293
 2662 11fe 01       		.byte	0x1
 2663 11ff 03       		.byte	0x3
 2664 1200 A3020000 		.4byte	0x2a3
 2665 1204 05       		.uleb128 0x5
 2666 1205 03       		.byte	0x3
 2667 1206 00000000 		.4byte	HSEStartUpStatus
 2668 120a 2B       		.uleb128 0x2b
 2669 120b 29000000 		.4byte	.LASF294
 2670 120f 14       		.byte	0x14
 2671 1210 43       		.byte	0x43
 2672 1211 E4010000 		.4byte	.LFB69
 2673 1215 30000000 		.4byte	.LFE69-.LFB69
 2674 1219 01       		.uleb128 0x1
 2675 121a 9C       		.byte	0x9c
 2676 121b 58120000 		.4byte	0x1258
 2677 121f 2C       		.uleb128 0x2c
 2678 1220 54010000 		.4byte	.LASF296
 2679 1224 01       		.byte	0x1
 2680 1225 8D       		.byte	0x8d
 2681 1226 F1080000 		.4byte	0x8f1
 2682 122a 02       		.uleb128 0x2
 2683 122b 91       		.byte	0x91
 2684 122c 74       		.sleb128 -12
 2685 122d 2D       		.uleb128 0x2d
 2686 122e F2010000 		.4byte	.LVL31
ARM GAS  /tmp/ccztuyKP.s 			page 51


 2687 1232 B1150000 		.4byte	0x15b1
 2688 1236 47120000 		.4byte	0x1247
 2689 123a 2E       		.uleb128 0x2e
 2690 123b 01       		.uleb128 0x1
 2691 123c 50       		.byte	0x50
 2692 123d 03       		.uleb128 0x3
 2693 123e 40       		.byte	0x40
 2694 123f 47       		.byte	0x47
 2695 1240 24       		.byte	0x24
 2696 1241 2E       		.uleb128 0x2e
 2697 1242 01       		.uleb128 0x1
 2698 1243 51       		.byte	0x51
 2699 1244 01       		.uleb128 0x1
 2700 1245 30       		.byte	0x30
 2701 1246 00       		.byte	0
 2702 1247 2F       		.uleb128 0x2f
 2703 1248 0E020000 		.4byte	.LVL32
 2704 124c BC150000 		.4byte	0x15bc
 2705 1250 2E       		.uleb128 0x2e
 2706 1251 01       		.uleb128 0x1
 2707 1252 50       		.byte	0x50
 2708 1253 02       		.uleb128 0x2
 2709 1254 91       		.byte	0x91
 2710 1255 74       		.sleb128 -12
 2711 1256 00       		.byte	0
 2712 1257 00       		.byte	0
 2713 1258 2B       		.uleb128 0x2b
 2714 1259 2C020000 		.4byte	.LASF295
 2715 125d 14       		.byte	0x14
 2716 125e 42       		.byte	0x42
 2717 125f 7A010000 		.4byte	.LFB68
 2718 1263 6A000000 		.4byte	.LFE68-.LFB68
 2719 1267 01       		.uleb128 0x1
 2720 1268 9C       		.byte	0x9c
 2721 1269 F4120000 		.4byte	0x12f4
 2722 126d 2C       		.uleb128 0x2c
 2723 126e CC0B0000 		.4byte	.LASF297
 2724 1272 01       		.byte	0x1
 2725 1273 6F       		.byte	0x6f
 2726 1274 51080000 		.4byte	0x851
 2727 1278 02       		.uleb128 0x2
 2728 1279 91       		.byte	0x91
 2729 127a 6C       		.sleb128 -20
 2730 127b 2D       		.uleb128 0x2d
 2731 127c 9C010000 		.4byte	.LVL27
 2732 1280 C7150000 		.4byte	0x15c7
 2733 1284 9A120000 		.4byte	0x129a
 2734 1288 2E       		.uleb128 0x2e
 2735 1289 01       		.uleb128 0x1
 2736 128a 50       		.byte	0x50
 2737 128b 02       		.uleb128 0x2
 2738 128c 74       		.byte	0x74
 2739 128d 00       		.sleb128 0
 2740 128e 2E       		.uleb128 0x2e
 2741 128f 01       		.uleb128 0x1
 2742 1290 51       		.byte	0x51
 2743 1291 07       		.uleb128 0x7
ARM GAS  /tmp/ccztuyKP.s 			page 52


 2744 1292 91       		.byte	0x91
 2745 1293 00       		.sleb128 0
 2746 1294 75       		.byte	0x75
 2747 1295 00       		.sleb128 0
 2748 1296 22       		.byte	0x22
 2749 1297 48       		.byte	0x48
 2750 1298 1C       		.byte	0x1c
 2751 1299 00       		.byte	0
 2752 129a 2D       		.uleb128 0x2d
 2753 129b B0010000 		.4byte	.LVL28
 2754 129f C7150000 		.4byte	0x15c7
 2755 12a3 B9120000 		.4byte	0x12b9
 2756 12a7 2E       		.uleb128 0x2e
 2757 12a8 01       		.uleb128 0x1
 2758 12a9 50       		.byte	0x50
 2759 12aa 02       		.uleb128 0x2
 2760 12ab 74       		.byte	0x74
 2761 12ac 00       		.sleb128 0
 2762 12ad 2E       		.uleb128 0x2e
 2763 12ae 01       		.uleb128 0x1
 2764 12af 51       		.byte	0x51
 2765 12b0 07       		.uleb128 0x7
 2766 12b1 91       		.byte	0x91
 2767 12b2 00       		.sleb128 0
 2768 12b3 75       		.byte	0x75
 2769 12b4 00       		.sleb128 0
 2770 12b5 22       		.byte	0x22
 2771 12b6 48       		.byte	0x48
 2772 12b7 1C       		.byte	0x1c
 2773 12b8 00       		.byte	0
 2774 12b9 2D       		.uleb128 0x2d
 2775 12ba C6010000 		.4byte	.LVL29
 2776 12be C7150000 		.4byte	0x15c7
 2777 12c2 D8120000 		.4byte	0x12d8
 2778 12c6 2E       		.uleb128 0x2e
 2779 12c7 01       		.uleb128 0x1
 2780 12c8 50       		.byte	0x50
 2781 12c9 02       		.uleb128 0x2
 2782 12ca 74       		.byte	0x74
 2783 12cb 00       		.sleb128 0
 2784 12cc 2E       		.uleb128 0x2e
 2785 12cd 01       		.uleb128 0x1
 2786 12ce 51       		.byte	0x51
 2787 12cf 07       		.uleb128 0x7
 2788 12d0 91       		.byte	0x91
 2789 12d1 00       		.sleb128 0
 2790 12d2 75       		.byte	0x75
 2791 12d3 00       		.sleb128 0
 2792 12d4 22       		.byte	0x22
 2793 12d5 48       		.byte	0x48
 2794 12d6 1C       		.byte	0x1c
 2795 12d7 00       		.byte	0
 2796 12d8 2F       		.uleb128 0x2f
 2797 12d9 DA010000 		.4byte	.LVL30
 2798 12dd C7150000 		.4byte	0x15c7
 2799 12e1 2E       		.uleb128 0x2e
 2800 12e2 01       		.uleb128 0x1
ARM GAS  /tmp/ccztuyKP.s 			page 53


 2801 12e3 50       		.byte	0x50
 2802 12e4 02       		.uleb128 0x2
 2803 12e5 74       		.byte	0x74
 2804 12e6 00       		.sleb128 0
 2805 12e7 2E       		.uleb128 0x2e
 2806 12e8 01       		.uleb128 0x1
 2807 12e9 51       		.byte	0x51
 2808 12ea 07       		.uleb128 0x7
 2809 12eb 91       		.byte	0x91
 2810 12ec 00       		.sleb128 0
 2811 12ed 75       		.byte	0x75
 2812 12ee 00       		.sleb128 0
 2813 12ef 22       		.byte	0x22
 2814 12f0 48       		.byte	0x48
 2815 12f1 1C       		.byte	0x1c
 2816 12f2 00       		.byte	0
 2817 12f3 00       		.byte	0
 2818 12f4 2B       		.uleb128 0x2b
 2819 12f5 F8060000 		.4byte	.LASF298
 2820 12f9 14       		.byte	0x14
 2821 12fa 41       		.byte	0x41
 2822 12fb 34010000 		.4byte	.LFB67
 2823 12ff 46000000 		.4byte	.LFE67-.LFB67
 2824 1303 01       		.uleb128 0x1
 2825 1304 9C       		.byte	0x9c
 2826 1305 68130000 		.4byte	0x1368
 2827 1309 2C       		.uleb128 0x2c
 2828 130a D7010000 		.4byte	.LASF299
 2829 130e 01       		.byte	0x1
 2830 130f 5E       		.byte	0x5e
 2831 1310 A7070000 		.4byte	0x7a7
 2832 1314 02       		.uleb128 0x2
 2833 1315 91       		.byte	0x91
 2834 1316 6C       		.sleb128 -20
 2835 1317 2D       		.uleb128 0x2d
 2836 1318 5E010000 		.4byte	.LVL24
 2837 131c D3150000 		.4byte	0x15d3
 2838 1320 32130000 		.4byte	0x1332
 2839 1324 2E       		.uleb128 0x2e
 2840 1325 01       		.uleb128 0x1
 2841 1326 50       		.byte	0x50
 2842 1327 03       		.uleb128 0x3
 2843 1328 40       		.byte	0x40
 2844 1329 4A       		.byte	0x4a
 2845 132a 24       		.byte	0x24
 2846 132b 2E       		.uleb128 0x2e
 2847 132c 01       		.uleb128 0x1
 2848 132d 51       		.byte	0x51
 2849 132e 02       		.uleb128 0x2
 2850 132f 91       		.byte	0x91
 2851 1330 6C       		.sleb128 -20
 2852 1331 00       		.byte	0
 2853 1332 2D       		.uleb128 0x2d
 2854 1333 68010000 		.4byte	.LVL25
 2855 1337 DF150000 		.4byte	0x15df
 2856 133b 4C130000 		.4byte	0x134c
 2857 133f 2E       		.uleb128 0x2e
ARM GAS  /tmp/ccztuyKP.s 			page 54


 2858 1340 01       		.uleb128 0x1
 2859 1341 50       		.byte	0x50
 2860 1342 03       		.uleb128 0x3
 2861 1343 40       		.byte	0x40
 2862 1344 4A       		.byte	0x4a
 2863 1345 24       		.byte	0x24
 2864 1346 2E       		.uleb128 0x2e
 2865 1347 01       		.uleb128 0x1
 2866 1348 51       		.byte	0x51
 2867 1349 01       		.uleb128 0x1
 2868 134a 31       		.byte	0x31
 2869 134b 00       		.byte	0
 2870 134c 2F       		.uleb128 0x2f
 2871 134d 74010000 		.4byte	.LVL26
 2872 1351 EB150000 		.4byte	0x15eb
 2873 1355 2E       		.uleb128 0x2e
 2874 1356 01       		.uleb128 0x1
 2875 1357 50       		.byte	0x50
 2876 1358 03       		.uleb128 0x3
 2877 1359 40       		.byte	0x40
 2878 135a 4A       		.byte	0x4a
 2879 135b 24       		.byte	0x24
 2880 135c 2E       		.uleb128 0x2e
 2881 135d 01       		.uleb128 0x1
 2882 135e 51       		.byte	0x51
 2883 135f 01       		.uleb128 0x1
 2884 1360 31       		.byte	0x31
 2885 1361 2E       		.uleb128 0x2e
 2886 1362 01       		.uleb128 0x1
 2887 1363 52       		.byte	0x52
 2888 1364 01       		.uleb128 0x1
 2889 1365 31       		.byte	0x31
 2890 1366 00       		.byte	0
 2891 1367 00       		.byte	0
 2892 1368 2B       		.uleb128 0x2b
 2893 1369 94090000 		.4byte	.LASF300
 2894 136d 14       		.byte	0x14
 2895 136e 40       		.byte	0x40
 2896 136f 88000000 		.4byte	.LFB66
 2897 1373 AC000000 		.4byte	.LFE66-.LFB66
 2898 1377 01       		.uleb128 0x1
 2899 1378 9C       		.byte	0x9c
 2900 1379 0B150000 		.4byte	0x150b
 2901 137d 30       		.uleb128 0x30
 2902 137e 8E000000 		.4byte	.LVL4
 2903 1382 F7150000 		.4byte	0x15f7
 2904 1386 2D       		.uleb128 0x2d
 2905 1387 96000000 		.4byte	.LVL5
 2906 138b 03160000 		.4byte	0x1603
 2907 138f 9B130000 		.4byte	0x139b
 2908 1393 2E       		.uleb128 0x2e
 2909 1394 01       		.uleb128 0x1
 2910 1395 50       		.byte	0x50
 2911 1396 03       		.uleb128 0x3
 2912 1397 40       		.byte	0x40
 2913 1398 3C       		.byte	0x3c
 2914 1399 24       		.byte	0x24
ARM GAS  /tmp/ccztuyKP.s 			page 55


 2915 139a 00       		.byte	0
 2916 139b 30       		.uleb128 0x30
 2917 139c 9A000000 		.4byte	.LVL6
 2918 13a0 0F160000 		.4byte	0x160f
 2919 13a4 2D       		.uleb128 0x2d
 2920 13a5 AA000000 		.4byte	.LVL7
 2921 13a9 1B160000 		.4byte	0x161b
 2922 13ad BC130000 		.4byte	0x13bc
 2923 13b1 2E       		.uleb128 0x2e
 2924 13b2 01       		.uleb128 0x1
 2925 13b3 50       		.byte	0x50
 2926 13b4 01       		.uleb128 0x1
 2927 13b5 31       		.byte	0x31
 2928 13b6 2E       		.uleb128 0x2e
 2929 13b7 01       		.uleb128 0x1
 2930 13b8 51       		.byte	0x51
 2931 13b9 01       		.uleb128 0x1
 2932 13ba 31       		.byte	0x31
 2933 13bb 00       		.byte	0
 2934 13bc 2D       		.uleb128 0x2d
 2935 13bd B2000000 		.4byte	.LVL8
 2936 13c1 1B160000 		.4byte	0x161b
 2937 13c5 D4130000 		.4byte	0x13d4
 2938 13c9 2E       		.uleb128 0x2e
 2939 13ca 01       		.uleb128 0x1
 2940 13cb 50       		.byte	0x50
 2941 13cc 01       		.uleb128 0x1
 2942 13cd 34       		.byte	0x34
 2943 13ce 2E       		.uleb128 0x2e
 2944 13cf 01       		.uleb128 0x1
 2945 13d0 51       		.byte	0x51
 2946 13d1 01       		.uleb128 0x1
 2947 13d2 31       		.byte	0x31
 2948 13d3 00       		.byte	0
 2949 13d4 2D       		.uleb128 0x2d
 2950 13d5 BC000000 		.4byte	.LVL9
 2951 13d9 27160000 		.4byte	0x1627
 2952 13dd EE130000 		.4byte	0x13ee
 2953 13e1 2E       		.uleb128 0x2e
 2954 13e2 01       		.uleb128 0x1
 2955 13e3 50       		.byte	0x50
 2956 13e4 03       		.uleb128 0x3
 2957 13e5 40       		.byte	0x40
 2958 13e6 42       		.byte	0x42
 2959 13e7 24       		.byte	0x24
 2960 13e8 2E       		.uleb128 0x2e
 2961 13e9 01       		.uleb128 0x1
 2962 13ea 51       		.byte	0x51
 2963 13eb 01       		.uleb128 0x1
 2964 13ec 31       		.byte	0x31
 2965 13ed 00       		.byte	0
 2966 13ee 2D       		.uleb128 0x2d
 2967 13ef C6000000 		.4byte	.LVL10
 2968 13f3 27160000 		.4byte	0x1627
 2969 13f7 08140000 		.4byte	0x1408
 2970 13fb 2E       		.uleb128 0x2e
 2971 13fc 01       		.uleb128 0x1
ARM GAS  /tmp/ccztuyKP.s 			page 56


 2972 13fd 50       		.byte	0x50
 2973 13fe 03       		.uleb128 0x3
 2974 13ff 40       		.byte	0x40
 2975 1400 3D       		.byte	0x3d
 2976 1401 24       		.byte	0x24
 2977 1402 2E       		.uleb128 0x2e
 2978 1403 01       		.uleb128 0x1
 2979 1404 51       		.byte	0x51
 2980 1405 01       		.uleb128 0x1
 2981 1406 31       		.byte	0x31
 2982 1407 00       		.byte	0
 2983 1408 2D       		.uleb128 0x2d
 2984 1409 CE000000 		.4byte	.LVL11
 2985 140d 27160000 		.4byte	0x1627
 2986 1411 20140000 		.4byte	0x1420
 2987 1415 2E       		.uleb128 0x2e
 2988 1416 01       		.uleb128 0x1
 2989 1417 50       		.byte	0x50
 2990 1418 01       		.uleb128 0x1
 2991 1419 31       		.byte	0x31
 2992 141a 2E       		.uleb128 0x2e
 2993 141b 01       		.uleb128 0x1
 2994 141c 51       		.byte	0x51
 2995 141d 01       		.uleb128 0x1
 2996 141e 31       		.byte	0x31
 2997 141f 00       		.byte	0
 2998 1420 2D       		.uleb128 0x2d
 2999 1421 D6000000 		.4byte	.LVL12
 3000 1425 33160000 		.4byte	0x1633
 3001 1429 33140000 		.4byte	0x1433
 3002 142d 2E       		.uleb128 0x2e
 3003 142e 01       		.uleb128 0x1
 3004 142f 50       		.byte	0x50
 3005 1430 01       		.uleb128 0x1
 3006 1431 40       		.byte	0x40
 3007 1432 00       		.byte	0
 3008 1433 2D       		.uleb128 0x2d
 3009 1434 DC000000 		.4byte	.LVL13
 3010 1438 3F160000 		.4byte	0x163f
 3011 143c 46140000 		.4byte	0x1446
 3012 1440 2E       		.uleb128 0x2e
 3013 1441 01       		.uleb128 0x1
 3014 1442 50       		.byte	0x50
 3015 1443 01       		.uleb128 0x1
 3016 1444 32       		.byte	0x32
 3017 1445 00       		.byte	0
 3018 1446 2D       		.uleb128 0x2d
 3019 1447 E2000000 		.4byte	.LVL14
 3020 144b 4B160000 		.4byte	0x164b
 3021 144f 59140000 		.4byte	0x1459
 3022 1453 2E       		.uleb128 0x2e
 3023 1454 01       		.uleb128 0x1
 3024 1455 50       		.byte	0x50
 3025 1456 01       		.uleb128 0x1
 3026 1457 30       		.byte	0x30
 3027 1458 00       		.byte	0
 3028 1459 2D       		.uleb128 0x2d
ARM GAS  /tmp/ccztuyKP.s 			page 57


 3029 145a E8000000 		.4byte	.LVL15
 3030 145e 57160000 		.4byte	0x1657
 3031 1462 6C140000 		.4byte	0x146c
 3032 1466 2E       		.uleb128 0x2e
 3033 1467 01       		.uleb128 0x1
 3034 1468 50       		.byte	0x50
 3035 1469 01       		.uleb128 0x1
 3036 146a 30       		.byte	0x30
 3037 146b 00       		.byte	0
 3038 146c 2D       		.uleb128 0x2d
 3039 146d F0000000 		.4byte	.LVL16
 3040 1471 63160000 		.4byte	0x1663
 3041 1475 81140000 		.4byte	0x1481
 3042 1479 2E       		.uleb128 0x2e
 3043 147a 01       		.uleb128 0x1
 3044 147b 50       		.byte	0x50
 3045 147c 03       		.uleb128 0x3
 3046 147d 0A       		.byte	0xa
 3047 147e 0004     		.2byte	0x400
 3048 1480 00       		.byte	0
 3049 1481 2D       		.uleb128 0x2d
 3050 1482 F8000000 		.4byte	.LVL17
 3051 1486 6F160000 		.4byte	0x166f
 3052 148a 96140000 		.4byte	0x1496
 3053 148e 2E       		.uleb128 0x2e
 3054 148f 01       		.uleb128 0x1
 3055 1490 50       		.byte	0x50
 3056 1491 03       		.uleb128 0x3
 3057 1492 0A       		.byte	0xa
 3058 1493 0040     		.2byte	0x4000
 3059 1495 00       		.byte	0
 3060 1496 2D       		.uleb128 0x2d
 3061 1497 04010000 		.4byte	.LVL18
 3062 149b 7B160000 		.4byte	0x167b
 3063 149f B2140000 		.4byte	0x14b2
 3064 14a3 2E       		.uleb128 0x2e
 3065 14a4 01       		.uleb128 0x1
 3066 14a5 50       		.byte	0x50
 3067 14a6 03       		.uleb128 0x3
 3068 14a7 40       		.byte	0x40
 3069 14a8 3C       		.byte	0x3c
 3070 14a9 24       		.byte	0x24
 3071 14aa 2E       		.uleb128 0x2e
 3072 14ab 01       		.uleb128 0x1
 3073 14ac 51       		.byte	0x51
 3074 14ad 03       		.uleb128 0x3
 3075 14ae 4C       		.byte	0x4c
 3076 14af 40       		.byte	0x40
 3077 14b0 24       		.byte	0x24
 3078 14b1 00       		.byte	0
 3079 14b2 2D       		.uleb128 0x2d
 3080 14b3 0C010000 		.4byte	.LVL19
 3081 14b7 6F160000 		.4byte	0x166f
 3082 14bb C7140000 		.4byte	0x14c7
 3083 14bf 2E       		.uleb128 0x2e
 3084 14c0 01       		.uleb128 0x1
 3085 14c1 50       		.byte	0x50
ARM GAS  /tmp/ccztuyKP.s 			page 58


 3086 14c2 03       		.uleb128 0x3
 3087 14c3 0A       		.byte	0xa
 3088 14c4 0040     		.2byte	0x4000
 3089 14c6 00       		.byte	0
 3090 14c7 2D       		.uleb128 0x2d
 3091 14c8 12010000 		.4byte	.LVL20
 3092 14cc 87160000 		.4byte	0x1687
 3093 14d0 DA140000 		.4byte	0x14da
 3094 14d4 2E       		.uleb128 0x2e
 3095 14d5 01       		.uleb128 0x1
 3096 14d6 50       		.byte	0x50
 3097 14d7 01       		.uleb128 0x1
 3098 14d8 31       		.byte	0x31
 3099 14d9 00       		.byte	0
 3100 14da 2D       		.uleb128 0x2d
 3101 14db 1A010000 		.4byte	.LVL21
 3102 14df 93160000 		.4byte	0x1693
 3103 14e3 EE140000 		.4byte	0x14ee
 3104 14e7 2E       		.uleb128 0x2e
 3105 14e8 01       		.uleb128 0x1
 3106 14e9 50       		.byte	0x50
 3107 14ea 02       		.uleb128 0x2
 3108 14eb 74       		.byte	0x74
 3109 14ec 00       		.sleb128 0
 3110 14ed 00       		.byte	0
 3111 14ee 2D       		.uleb128 0x2d
 3112 14ef 24010000 		.4byte	.LVL22
 3113 14f3 9F160000 		.4byte	0x169f
 3114 14f7 01150000 		.4byte	0x1501
 3115 14fb 2E       		.uleb128 0x2e
 3116 14fc 01       		.uleb128 0x1
 3117 14fd 50       		.byte	0x50
 3118 14fe 01       		.uleb128 0x1
 3119 14ff 32       		.byte	0x32
 3120 1500 00       		.byte	0
 3121 1501 30       		.uleb128 0x30
 3122 1502 28010000 		.4byte	.LVL23
 3123 1506 AB160000 		.4byte	0x16ab
 3124 150a 00       		.byte	0
 3125 150b 2B       		.uleb128 0x2b
 3126 150c 1C040000 		.4byte	.LASF301
 3127 1510 14       		.byte	0x14
 3128 1511 3F       		.byte	0x3f
 3129 1512 3C000000 		.4byte	.LFB65
 3130 1516 4C000000 		.4byte	.LFE65-.LFB65
 3131 151a 01       		.uleb128 0x1
 3132 151b 9C       		.byte	0x9c
 3133 151c 5E150000 		.4byte	0x155e
 3134 1520 2C       		.uleb128 0x2c
 3135 1521 0E020000 		.4byte	.LASF302
 3136 1525 01       		.byte	0x1
 3137 1526 18       		.byte	0x18
 3138 1527 57070000 		.4byte	0x757
 3139 152b 02       		.uleb128 0x2
 3140 152c 91       		.byte	0x91
 3141 152d 68       		.sleb128 -24
 3142 152e 2D       		.uleb128 0x2d
ARM GAS  /tmp/ccztuyKP.s 			page 59


 3143 152f 74000000 		.4byte	.LVL2
 3144 1533 B7160000 		.4byte	0x16b7
 3145 1537 48150000 		.4byte	0x1548
 3146 153b 2E       		.uleb128 0x2e
 3147 153c 01       		.uleb128 0x1
 3148 153d 50       		.byte	0x50
 3149 153e 02       		.uleb128 0x2
 3150 153f 74       		.byte	0x74
 3151 1540 00       		.sleb128 0
 3152 1541 2E       		.uleb128 0x2e
 3153 1542 01       		.uleb128 0x1
 3154 1543 51       		.byte	0x51
 3155 1544 02       		.uleb128 0x2
 3156 1545 91       		.byte	0x91
 3157 1546 68       		.sleb128 -24
 3158 1547 00       		.byte	0
 3159 1548 2F       		.uleb128 0x2f
 3160 1549 7C000000 		.4byte	.LVL3
 3161 154d C3160000 		.4byte	0x16c3
 3162 1551 2E       		.uleb128 0x2e
 3163 1552 01       		.uleb128 0x1
 3164 1553 50       		.byte	0x50
 3165 1554 02       		.uleb128 0x2
 3166 1555 74       		.byte	0x74
 3167 1556 00       		.sleb128 0
 3168 1557 2E       		.uleb128 0x2e
 3169 1558 01       		.uleb128 0x1
 3170 1559 51       		.byte	0x51
 3171 155a 01       		.uleb128 0x1
 3172 155b 31       		.byte	0x31
 3173 155c 00       		.byte	0
 3174 155d 00       		.byte	0
 3175 155e 2B       		.uleb128 0x2b
 3176 155f 660A0000 		.4byte	.LASF303
 3177 1563 14       		.byte	0x14
 3178 1564 3E       		.byte	0x3e
 3179 1565 00000000 		.4byte	.LFB64
 3180 1569 3C000000 		.4byte	.LFE64-.LFB64
 3181 156d 01       		.uleb128 0x1
 3182 156e 9C       		.byte	0x9c
 3183 156f B1150000 		.4byte	0x15b1
 3184 1573 2C       		.uleb128 0x2c
 3185 1574 A1020000 		.4byte	.LASF304
 3186 1578 01       		.byte	0x1
 3187 1579 07       		.byte	0x7
 3188 157a AD080000 		.4byte	0x8ad
 3189 157e 02       		.uleb128 0x2
 3190 157f 91       		.byte	0x91
 3191 1580 68       		.sleb128 -24
 3192 1581 2D       		.uleb128 0x2d
 3193 1582 2C000000 		.4byte	.LVL0
 3194 1586 CF160000 		.4byte	0x16cf
 3195 158a 9B150000 		.4byte	0x159b
 3196 158e 2E       		.uleb128 0x2e
 3197 158f 01       		.uleb128 0x1
 3198 1590 50       		.byte	0x50
 3199 1591 02       		.uleb128 0x2
ARM GAS  /tmp/ccztuyKP.s 			page 60


 3200 1592 74       		.byte	0x74
 3201 1593 00       		.sleb128 0
 3202 1594 2E       		.uleb128 0x2e
 3203 1595 01       		.uleb128 0x1
 3204 1596 51       		.byte	0x51
 3205 1597 02       		.uleb128 0x2
 3206 1598 7D       		.byte	0x7d
 3207 1599 00       		.sleb128 0
 3208 159a 00       		.byte	0
 3209 159b 2F       		.uleb128 0x2f
 3210 159c 34000000 		.4byte	.LVL1
 3211 15a0 DB160000 		.4byte	0x16db
 3212 15a4 2E       		.uleb128 0x2e
 3213 15a5 01       		.uleb128 0x1
 3214 15a6 50       		.byte	0x50
 3215 15a7 02       		.uleb128 0x2
 3216 15a8 74       		.byte	0x74
 3217 15a9 00       		.sleb128 0
 3218 15aa 2E       		.uleb128 0x2e
 3219 15ab 01       		.uleb128 0x1
 3220 15ac 51       		.byte	0x51
 3221 15ad 01       		.uleb128 0x1
 3222 15ae 31       		.byte	0x31
 3223 15af 00       		.byte	0
 3224 15b0 00       		.byte	0
 3225 15b1 31       		.uleb128 0x31
 3226 15b2 CA060000 		.4byte	.LASF305
 3227 15b6 CA060000 		.4byte	.LASF305
 3228 15ba 0B       		.byte	0xb
 3229 15bb C6       		.byte	0xc6
 3230 15bc 31       		.uleb128 0x31
 3231 15bd D70A0000 		.4byte	.LASF306
 3232 15c1 D70A0000 		.4byte	.LASF306
 3233 15c5 0B       		.byte	0xb
 3234 15c6 C5       		.byte	0xc5
 3235 15c7 32       		.uleb128 0x32
 3236 15c8 BF0A0000 		.4byte	.LASF307
 3237 15cc BF0A0000 		.4byte	.LASF307
 3238 15d0 09       		.byte	0x9
 3239 15d1 5F01     		.2byte	0x15f
 3240 15d3 32       		.uleb128 0x32
 3241 15d4 A1050000 		.4byte	.LASF308
 3242 15d8 A1050000 		.4byte	.LASF308
 3243 15dc 08       		.byte	0x8
 3244 15dd 1F04     		.2byte	0x41f
 3245 15df 32       		.uleb128 0x32
 3246 15e0 81080000 		.4byte	.LASF309
 3247 15e4 81080000 		.4byte	.LASF309
 3248 15e8 08       		.byte	0x8
 3249 15e9 7704     		.2byte	0x477
 3250 15eb 32       		.uleb128 0x32
 3251 15ec F50C0000 		.4byte	.LASF310
 3252 15f0 F50C0000 		.4byte	.LASF310
 3253 15f4 08       		.byte	0x8
 3254 15f5 2D04     		.2byte	0x42d
 3255 15f7 32       		.uleb128 0x32
 3256 15f8 8D020000 		.4byte	.LASF311
ARM GAS  /tmp/ccztuyKP.s 			page 61


 3257 15fc 8D020000 		.4byte	.LASF311
 3258 1600 15       		.byte	0x15
 3259 1601 8702     		.2byte	0x287
 3260 1603 32       		.uleb128 0x32
 3261 1604 F2050000 		.4byte	.LASF312
 3262 1608 F2050000 		.4byte	.LASF312
 3263 160c 15       		.byte	0x15
 3264 160d 8802     		.2byte	0x288
 3265 160f 32       		.uleb128 0x32
 3266 1610 9C0B0000 		.4byte	.LASF313
 3267 1614 9C0B0000 		.4byte	.LASF313
 3268 1618 15       		.byte	0x15
 3269 1619 8902     		.2byte	0x289
 3270 161b 32       		.uleb128 0x32
 3271 161c 1A070000 		.4byte	.LASF314
 3272 1620 1A070000 		.4byte	.LASF314
 3273 1624 15       		.byte	0x15
 3274 1625 B502     		.2byte	0x2b5
 3275 1627 32       		.uleb128 0x32
 3276 1628 55030000 		.4byte	.LASF315
 3277 162c 55030000 		.4byte	.LASF315
 3278 1630 15       		.byte	0x15
 3279 1631 B602     		.2byte	0x2b6
 3280 1633 32       		.uleb128 0x32
 3281 1634 4F000000 		.4byte	.LASF316
 3282 1638 4F000000 		.4byte	.LASF316
 3283 163c 16       		.byte	0x16
 3284 163d 7201     		.2byte	0x172
 3285 163f 32       		.uleb128 0x32
 3286 1640 390D0000 		.4byte	.LASF317
 3287 1644 390D0000 		.4byte	.LASF317
 3288 1648 16       		.byte	0x16
 3289 1649 7001     		.2byte	0x170
 3290 164b 32       		.uleb128 0x32
 3291 164c D8050000 		.4byte	.LASF318
 3292 1650 D8050000 		.4byte	.LASF318
 3293 1654 15       		.byte	0x15
 3294 1655 9D02     		.2byte	0x29d
 3295 1657 32       		.uleb128 0x32
 3296 1658 7D020000 		.4byte	.LASF319
 3297 165c 7D020000 		.4byte	.LASF319
 3298 1660 15       		.byte	0x15
 3299 1661 9F02     		.2byte	0x29f
 3300 1663 32       		.uleb128 0x32
 3301 1664 8F010000 		.4byte	.LASF320
 3302 1668 8F010000 		.4byte	.LASF320
 3303 166c 15       		.byte	0x15
 3304 166d 9E02     		.2byte	0x29e
 3305 166f 32       		.uleb128 0x32
 3306 1670 F0020000 		.4byte	.LASF321
 3307 1674 F0020000 		.4byte	.LASF321
 3308 1678 15       		.byte	0x15
 3309 1679 A802     		.2byte	0x2a8
 3310 167b 32       		.uleb128 0x32
 3311 167c 41010000 		.4byte	.LASF322
 3312 1680 41010000 		.4byte	.LASF322
 3313 1684 15       		.byte	0x15
ARM GAS  /tmp/ccztuyKP.s 			page 62


 3314 1685 8C02     		.2byte	0x28c
 3315 1687 32       		.uleb128 0x32
 3316 1688 A20A0000 		.4byte	.LASF323
 3317 168c A20A0000 		.4byte	.LASF323
 3318 1690 15       		.byte	0x15
 3319 1691 8D02     		.2byte	0x28d
 3320 1693 32       		.uleb128 0x32
 3321 1694 01090000 		.4byte	.LASF324
 3322 1698 01090000 		.4byte	.LASF324
 3323 169c 15       		.byte	0x15
 3324 169d C102     		.2byte	0x2c1
 3325 169f 32       		.uleb128 0x32
 3326 16a0 870F0000 		.4byte	.LASF325
 3327 16a4 870F0000 		.4byte	.LASF325
 3328 16a8 15       		.byte	0x15
 3329 16a9 9B02     		.2byte	0x29b
 3330 16ab 32       		.uleb128 0x32
 3331 16ac 00060000 		.4byte	.LASF326
 3332 16b0 00060000 		.4byte	.LASF326
 3333 16b4 15       		.byte	0x15
 3334 16b5 9C02     		.2byte	0x29c
 3335 16b7 32       		.uleb128 0x32
 3336 16b8 FC070000 		.4byte	.LASF327
 3337 16bc FC070000 		.4byte	.LASF327
 3338 16c0 07       		.byte	0x7
 3339 16c1 1702     		.2byte	0x217
 3340 16c3 32       		.uleb128 0x32
 3341 16c4 A3060000 		.4byte	.LASF328
 3342 16c8 A3060000 		.4byte	.LASF328
 3343 16cc 07       		.byte	0x7
 3344 16cd 1902     		.2byte	0x219
 3345 16cf 32       		.uleb128 0x32
 3346 16d0 E7050000 		.4byte	.LASF329
 3347 16d4 E7050000 		.4byte	.LASF329
 3348 16d8 0A       		.byte	0xa
 3349 16d9 6E01     		.2byte	0x16e
 3350 16db 32       		.uleb128 0x32
 3351 16dc F70B0000 		.4byte	.LASF330
 3352 16e0 F70B0000 		.4byte	.LASF330
 3353 16e4 0A       		.byte	0xa
 3354 16e5 7201     		.2byte	0x172
 3355 16e7 00       		.byte	0
 3356              		.section	.debug_abbrev,"",%progbits
 3357              	.Ldebug_abbrev0:
 3358 0000 01       		.uleb128 0x1
 3359 0001 11       		.uleb128 0x11
 3360 0002 01       		.byte	0x1
 3361 0003 25       		.uleb128 0x25
 3362 0004 0E       		.uleb128 0xe
 3363 0005 13       		.uleb128 0x13
 3364 0006 0B       		.uleb128 0xb
 3365 0007 03       		.uleb128 0x3
 3366 0008 0E       		.uleb128 0xe
 3367 0009 1B       		.uleb128 0x1b
 3368 000a 0E       		.uleb128 0xe
 3369 000b 11       		.uleb128 0x11
 3370 000c 01       		.uleb128 0x1
ARM GAS  /tmp/ccztuyKP.s 			page 63


 3371 000d 12       		.uleb128 0x12
 3372 000e 06       		.uleb128 0x6
 3373 000f 10       		.uleb128 0x10
 3374 0010 17       		.uleb128 0x17
 3375 0011 00       		.byte	0
 3376 0012 00       		.byte	0
 3377 0013 02       		.uleb128 0x2
 3378 0014 04       		.uleb128 0x4
 3379 0015 01       		.byte	0x1
 3380 0016 03       		.uleb128 0x3
 3381 0017 0E       		.uleb128 0xe
 3382 0018 0B       		.uleb128 0xb
 3383 0019 0B       		.uleb128 0xb
 3384 001a 49       		.uleb128 0x49
 3385 001b 13       		.uleb128 0x13
 3386 001c 3A       		.uleb128 0x3a
 3387 001d 0B       		.uleb128 0xb
 3388 001e 3B       		.uleb128 0x3b
 3389 001f 0B       		.uleb128 0xb
 3390 0020 01       		.uleb128 0x1
 3391 0021 13       		.uleb128 0x13
 3392 0022 00       		.byte	0
 3393 0023 00       		.byte	0
 3394 0024 03       		.uleb128 0x3
 3395 0025 28       		.uleb128 0x28
 3396 0026 00       		.byte	0
 3397 0027 03       		.uleb128 0x3
 3398 0028 0E       		.uleb128 0xe
 3399 0029 1C       		.uleb128 0x1c
 3400 002a 0D       		.uleb128 0xd
 3401 002b 00       		.byte	0
 3402 002c 00       		.byte	0
 3403 002d 04       		.uleb128 0x4
 3404 002e 28       		.uleb128 0x28
 3405 002f 00       		.byte	0
 3406 0030 03       		.uleb128 0x3
 3407 0031 0E       		.uleb128 0xe
 3408 0032 1C       		.uleb128 0x1c
 3409 0033 0B       		.uleb128 0xb
 3410 0034 00       		.byte	0
 3411 0035 00       		.byte	0
 3412 0036 05       		.uleb128 0x5
 3413 0037 24       		.uleb128 0x24
 3414 0038 00       		.byte	0
 3415 0039 0B       		.uleb128 0xb
 3416 003a 0B       		.uleb128 0xb
 3417 003b 3E       		.uleb128 0x3e
 3418 003c 0B       		.uleb128 0xb
 3419 003d 03       		.uleb128 0x3
 3420 003e 0E       		.uleb128 0xe
 3421 003f 00       		.byte	0
 3422 0040 00       		.byte	0
 3423 0041 06       		.uleb128 0x6
 3424 0042 16       		.uleb128 0x16
 3425 0043 00       		.byte	0
 3426 0044 03       		.uleb128 0x3
 3427 0045 0E       		.uleb128 0xe
ARM GAS  /tmp/ccztuyKP.s 			page 64


 3428 0046 3A       		.uleb128 0x3a
 3429 0047 0B       		.uleb128 0xb
 3430 0048 3B       		.uleb128 0x3b
 3431 0049 0B       		.uleb128 0xb
 3432 004a 49       		.uleb128 0x49
 3433 004b 13       		.uleb128 0x13
 3434 004c 00       		.byte	0
 3435 004d 00       		.byte	0
 3436 004e 07       		.uleb128 0x7
 3437 004f 24       		.uleb128 0x24
 3438 0050 00       		.byte	0
 3439 0051 0B       		.uleb128 0xb
 3440 0052 0B       		.uleb128 0xb
 3441 0053 3E       		.uleb128 0x3e
 3442 0054 0B       		.uleb128 0xb
 3443 0055 03       		.uleb128 0x3
 3444 0056 08       		.uleb128 0x8
 3445 0057 00       		.byte	0
 3446 0058 00       		.byte	0
 3447 0059 08       		.uleb128 0x8
 3448 005a 35       		.uleb128 0x35
 3449 005b 00       		.byte	0
 3450 005c 49       		.uleb128 0x49
 3451 005d 13       		.uleb128 0x13
 3452 005e 00       		.byte	0
 3453 005f 00       		.byte	0
 3454 0060 09       		.uleb128 0x9
 3455 0061 34       		.uleb128 0x34
 3456 0062 00       		.byte	0
 3457 0063 03       		.uleb128 0x3
 3458 0064 0E       		.uleb128 0xe
 3459 0065 3A       		.uleb128 0x3a
 3460 0066 0B       		.uleb128 0xb
 3461 0067 3B       		.uleb128 0x3b
 3462 0068 05       		.uleb128 0x5
 3463 0069 49       		.uleb128 0x49
 3464 006a 13       		.uleb128 0x13
 3465 006b 3F       		.uleb128 0x3f
 3466 006c 19       		.uleb128 0x19
 3467 006d 3C       		.uleb128 0x3c
 3468 006e 19       		.uleb128 0x19
 3469 006f 00       		.byte	0
 3470 0070 00       		.byte	0
 3471 0071 0A       		.uleb128 0xa
 3472 0072 34       		.uleb128 0x34
 3473 0073 00       		.byte	0
 3474 0074 03       		.uleb128 0x3
 3475 0075 0E       		.uleb128 0xe
 3476 0076 3A       		.uleb128 0x3a
 3477 0077 0B       		.uleb128 0xb
 3478 0078 3B       		.uleb128 0x3b
 3479 0079 0B       		.uleb128 0xb
 3480 007a 49       		.uleb128 0x49
 3481 007b 13       		.uleb128 0x13
 3482 007c 3F       		.uleb128 0x3f
 3483 007d 19       		.uleb128 0x19
 3484 007e 3C       		.uleb128 0x3c
ARM GAS  /tmp/ccztuyKP.s 			page 65


 3485 007f 19       		.uleb128 0x19
 3486 0080 00       		.byte	0
 3487 0081 00       		.byte	0
 3488 0082 0B       		.uleb128 0xb
 3489 0083 04       		.uleb128 0x4
 3490 0084 01       		.byte	0x1
 3491 0085 0B       		.uleb128 0xb
 3492 0086 0B       		.uleb128 0xb
 3493 0087 49       		.uleb128 0x49
 3494 0088 13       		.uleb128 0x13
 3495 0089 3A       		.uleb128 0x3a
 3496 008a 0B       		.uleb128 0xb
 3497 008b 3B       		.uleb128 0x3b
 3498 008c 05       		.uleb128 0x5
 3499 008d 01       		.uleb128 0x1
 3500 008e 13       		.uleb128 0x13
 3501 008f 00       		.byte	0
 3502 0090 00       		.byte	0
 3503 0091 0C       		.uleb128 0xc
 3504 0092 28       		.uleb128 0x28
 3505 0093 00       		.byte	0
 3506 0094 03       		.uleb128 0x3
 3507 0095 08       		.uleb128 0x8
 3508 0096 1C       		.uleb128 0x1c
 3509 0097 0B       		.uleb128 0xb
 3510 0098 00       		.byte	0
 3511 0099 00       		.byte	0
 3512 009a 0D       		.uleb128 0xd
 3513 009b 16       		.uleb128 0x16
 3514 009c 00       		.byte	0
 3515 009d 03       		.uleb128 0x3
 3516 009e 0E       		.uleb128 0xe
 3517 009f 3A       		.uleb128 0x3a
 3518 00a0 0B       		.uleb128 0xb
 3519 00a1 3B       		.uleb128 0x3b
 3520 00a2 05       		.uleb128 0x5
 3521 00a3 49       		.uleb128 0x49
 3522 00a4 13       		.uleb128 0x13
 3523 00a5 00       		.byte	0
 3524 00a6 00       		.byte	0
 3525 00a7 0E       		.uleb128 0xe
 3526 00a8 13       		.uleb128 0x13
 3527 00a9 01       		.byte	0x1
 3528 00aa 0B       		.uleb128 0xb
 3529 00ab 0B       		.uleb128 0xb
 3530 00ac 3A       		.uleb128 0x3a
 3531 00ad 0B       		.uleb128 0xb
 3532 00ae 3B       		.uleb128 0x3b
 3533 00af 05       		.uleb128 0x5
 3534 00b0 01       		.uleb128 0x1
 3535 00b1 13       		.uleb128 0x13
 3536 00b2 00       		.byte	0
 3537 00b3 00       		.byte	0
 3538 00b4 0F       		.uleb128 0xf
 3539 00b5 0D       		.uleb128 0xd
 3540 00b6 00       		.byte	0
 3541 00b7 03       		.uleb128 0x3
ARM GAS  /tmp/ccztuyKP.s 			page 66


 3542 00b8 08       		.uleb128 0x8
 3543 00b9 3A       		.uleb128 0x3a
 3544 00ba 0B       		.uleb128 0xb
 3545 00bb 3B       		.uleb128 0x3b
 3546 00bc 05       		.uleb128 0x5
 3547 00bd 49       		.uleb128 0x49
 3548 00be 13       		.uleb128 0x13
 3549 00bf 38       		.uleb128 0x38
 3550 00c0 0B       		.uleb128 0xb
 3551 00c1 00       		.byte	0
 3552 00c2 00       		.byte	0
 3553 00c3 10       		.uleb128 0x10
 3554 00c4 0D       		.uleb128 0xd
 3555 00c5 00       		.byte	0
 3556 00c6 03       		.uleb128 0x3
 3557 00c7 0E       		.uleb128 0xe
 3558 00c8 3A       		.uleb128 0x3a
 3559 00c9 0B       		.uleb128 0xb
 3560 00ca 3B       		.uleb128 0x3b
 3561 00cb 05       		.uleb128 0x5
 3562 00cc 49       		.uleb128 0x49
 3563 00cd 13       		.uleb128 0x13
 3564 00ce 38       		.uleb128 0x38
 3565 00cf 0B       		.uleb128 0xb
 3566 00d0 00       		.byte	0
 3567 00d1 00       		.byte	0
 3568 00d2 11       		.uleb128 0x11
 3569 00d3 13       		.uleb128 0x13
 3570 00d4 01       		.byte	0x1
 3571 00d5 0B       		.uleb128 0xb
 3572 00d6 0B       		.uleb128 0xb
 3573 00d7 3A       		.uleb128 0x3a
 3574 00d8 0B       		.uleb128 0xb
 3575 00d9 3B       		.uleb128 0x3b
 3576 00da 0B       		.uleb128 0xb
 3577 00db 01       		.uleb128 0x1
 3578 00dc 13       		.uleb128 0x13
 3579 00dd 00       		.byte	0
 3580 00de 00       		.byte	0
 3581 00df 12       		.uleb128 0x12
 3582 00e0 0D       		.uleb128 0xd
 3583 00e1 00       		.byte	0
 3584 00e2 03       		.uleb128 0x3
 3585 00e3 0E       		.uleb128 0xe
 3586 00e4 3A       		.uleb128 0x3a
 3587 00e5 0B       		.uleb128 0xb
 3588 00e6 3B       		.uleb128 0x3b
 3589 00e7 0B       		.uleb128 0xb
 3590 00e8 49       		.uleb128 0x49
 3591 00e9 13       		.uleb128 0x13
 3592 00ea 38       		.uleb128 0x38
 3593 00eb 0B       		.uleb128 0xb
 3594 00ec 00       		.byte	0
 3595 00ed 00       		.byte	0
 3596 00ee 13       		.uleb128 0x13
 3597 00ef 04       		.uleb128 0x4
 3598 00f0 01       		.byte	0x1
ARM GAS  /tmp/ccztuyKP.s 			page 67


 3599 00f1 0B       		.uleb128 0xb
 3600 00f2 0B       		.uleb128 0xb
 3601 00f3 49       		.uleb128 0x49
 3602 00f4 13       		.uleb128 0x13
 3603 00f5 3A       		.uleb128 0x3a
 3604 00f6 0B       		.uleb128 0xb
 3605 00f7 3B       		.uleb128 0x3b
 3606 00f8 0B       		.uleb128 0xb
 3607 00f9 01       		.uleb128 0x1
 3608 00fa 13       		.uleb128 0x13
 3609 00fb 00       		.byte	0
 3610 00fc 00       		.byte	0
 3611 00fd 14       		.uleb128 0x14
 3612 00fe 15       		.uleb128 0x15
 3613 00ff 00       		.byte	0
 3614 0100 27       		.uleb128 0x27
 3615 0101 19       		.uleb128 0x19
 3616 0102 00       		.byte	0
 3617 0103 00       		.byte	0
 3618 0104 15       		.uleb128 0x15
 3619 0105 0F       		.uleb128 0xf
 3620 0106 00       		.byte	0
 3621 0107 0B       		.uleb128 0xb
 3622 0108 0B       		.uleb128 0xb
 3623 0109 49       		.uleb128 0x49
 3624 010a 13       		.uleb128 0x13
 3625 010b 00       		.byte	0
 3626 010c 00       		.byte	0
 3627 010d 16       		.uleb128 0x16
 3628 010e 01       		.uleb128 0x1
 3629 010f 01       		.byte	0x1
 3630 0110 49       		.uleb128 0x49
 3631 0111 13       		.uleb128 0x13
 3632 0112 01       		.uleb128 0x1
 3633 0113 13       		.uleb128 0x13
 3634 0114 00       		.byte	0
 3635 0115 00       		.byte	0
 3636 0116 17       		.uleb128 0x17
 3637 0117 21       		.uleb128 0x21
 3638 0118 00       		.byte	0
 3639 0119 49       		.uleb128 0x49
 3640 011a 13       		.uleb128 0x13
 3641 011b 2F       		.uleb128 0x2f
 3642 011c 0B       		.uleb128 0xb
 3643 011d 00       		.byte	0
 3644 011e 00       		.byte	0
 3645 011f 18       		.uleb128 0x18
 3646 0120 0F       		.uleb128 0xf
 3647 0121 00       		.byte	0
 3648 0122 0B       		.uleb128 0xb
 3649 0123 0B       		.uleb128 0xb
 3650 0124 00       		.byte	0
 3651 0125 00       		.byte	0
 3652 0126 19       		.uleb128 0x19
 3653 0127 17       		.uleb128 0x17
 3654 0128 01       		.byte	0x1
 3655 0129 0B       		.uleb128 0xb
ARM GAS  /tmp/ccztuyKP.s 			page 68


 3656 012a 0B       		.uleb128 0xb
 3657 012b 3A       		.uleb128 0x3a
 3658 012c 0B       		.uleb128 0xb
 3659 012d 3B       		.uleb128 0x3b
 3660 012e 0B       		.uleb128 0xb
 3661 012f 01       		.uleb128 0x1
 3662 0130 13       		.uleb128 0x13
 3663 0131 00       		.byte	0
 3664 0132 00       		.byte	0
 3665 0133 1A       		.uleb128 0x1a
 3666 0134 0D       		.uleb128 0xd
 3667 0135 00       		.byte	0
 3668 0136 03       		.uleb128 0x3
 3669 0137 0E       		.uleb128 0xe
 3670 0138 3A       		.uleb128 0x3a
 3671 0139 0B       		.uleb128 0xb
 3672 013a 3B       		.uleb128 0x3b
 3673 013b 0B       		.uleb128 0xb
 3674 013c 49       		.uleb128 0x49
 3675 013d 13       		.uleb128 0x13
 3676 013e 00       		.byte	0
 3677 013f 00       		.byte	0
 3678 0140 1B       		.uleb128 0x1b
 3679 0141 13       		.uleb128 0x13
 3680 0142 01       		.byte	0x1
 3681 0143 03       		.uleb128 0x3
 3682 0144 0E       		.uleb128 0xe
 3683 0145 0B       		.uleb128 0xb
 3684 0146 0B       		.uleb128 0xb
 3685 0147 3A       		.uleb128 0x3a
 3686 0148 0B       		.uleb128 0xb
 3687 0149 3B       		.uleb128 0x3b
 3688 014a 0B       		.uleb128 0xb
 3689 014b 01       		.uleb128 0x1
 3690 014c 13       		.uleb128 0x13
 3691 014d 00       		.byte	0
 3692 014e 00       		.byte	0
 3693 014f 1C       		.uleb128 0x1c
 3694 0150 0D       		.uleb128 0xd
 3695 0151 00       		.byte	0
 3696 0152 03       		.uleb128 0x3
 3697 0153 08       		.uleb128 0x8
 3698 0154 3A       		.uleb128 0x3a
 3699 0155 0B       		.uleb128 0xb
 3700 0156 3B       		.uleb128 0x3b
 3701 0157 0B       		.uleb128 0xb
 3702 0158 49       		.uleb128 0x49
 3703 0159 13       		.uleb128 0x13
 3704 015a 38       		.uleb128 0x38
 3705 015b 0B       		.uleb128 0xb
 3706 015c 00       		.byte	0
 3707 015d 00       		.byte	0
 3708 015e 1D       		.uleb128 0x1d
 3709 015f 13       		.uleb128 0x13
 3710 0160 01       		.byte	0x1
 3711 0161 03       		.uleb128 0x3
 3712 0162 0E       		.uleb128 0xe
ARM GAS  /tmp/ccztuyKP.s 			page 69


 3713 0163 0B       		.uleb128 0xb
 3714 0164 05       		.uleb128 0x5
 3715 0165 3A       		.uleb128 0x3a
 3716 0166 0B       		.uleb128 0xb
 3717 0167 3B       		.uleb128 0x3b
 3718 0168 0B       		.uleb128 0xb
 3719 0169 01       		.uleb128 0x1
 3720 016a 13       		.uleb128 0x13
 3721 016b 00       		.byte	0
 3722 016c 00       		.byte	0
 3723 016d 1E       		.uleb128 0x1e
 3724 016e 0D       		.uleb128 0xd
 3725 016f 00       		.byte	0
 3726 0170 03       		.uleb128 0x3
 3727 0171 0E       		.uleb128 0xe
 3728 0172 3A       		.uleb128 0x3a
 3729 0173 0B       		.uleb128 0xb
 3730 0174 3B       		.uleb128 0x3b
 3731 0175 0B       		.uleb128 0xb
 3732 0176 49       		.uleb128 0x49
 3733 0177 13       		.uleb128 0x13
 3734 0178 38       		.uleb128 0x38
 3735 0179 05       		.uleb128 0x5
 3736 017a 00       		.byte	0
 3737 017b 00       		.byte	0
 3738 017c 1F       		.uleb128 0x1f
 3739 017d 15       		.uleb128 0x15
 3740 017e 01       		.byte	0x1
 3741 017f 27       		.uleb128 0x27
 3742 0180 19       		.uleb128 0x19
 3743 0181 49       		.uleb128 0x49
 3744 0182 13       		.uleb128 0x13
 3745 0183 01       		.uleb128 0x1
 3746 0184 13       		.uleb128 0x13
 3747 0185 00       		.byte	0
 3748 0186 00       		.byte	0
 3749 0187 20       		.uleb128 0x20
 3750 0188 05       		.uleb128 0x5
 3751 0189 00       		.byte	0
 3752 018a 49       		.uleb128 0x49
 3753 018b 13       		.uleb128 0x13
 3754 018c 00       		.byte	0
 3755 018d 00       		.byte	0
 3756 018e 21       		.uleb128 0x21
 3757 018f 26       		.uleb128 0x26
 3758 0190 00       		.byte	0
 3759 0191 49       		.uleb128 0x49
 3760 0192 13       		.uleb128 0x13
 3761 0193 00       		.byte	0
 3762 0194 00       		.byte	0
 3763 0195 22       		.uleb128 0x22
 3764 0196 13       		.uleb128 0x13
 3765 0197 01       		.byte	0x1
 3766 0198 03       		.uleb128 0x3
 3767 0199 0E       		.uleb128 0xe
 3768 019a 0B       		.uleb128 0xb
 3769 019b 05       		.uleb128 0x5
ARM GAS  /tmp/ccztuyKP.s 			page 70


 3770 019c 3A       		.uleb128 0x3a
 3771 019d 0B       		.uleb128 0xb
 3772 019e 3B       		.uleb128 0x3b
 3773 019f 05       		.uleb128 0x5
 3774 01a0 01       		.uleb128 0x1
 3775 01a1 13       		.uleb128 0x13
 3776 01a2 00       		.byte	0
 3777 01a3 00       		.byte	0
 3778 01a4 23       		.uleb128 0x23
 3779 01a5 0D       		.uleb128 0xd
 3780 01a6 00       		.byte	0
 3781 01a7 03       		.uleb128 0x3
 3782 01a8 0E       		.uleb128 0xe
 3783 01a9 3A       		.uleb128 0x3a
 3784 01aa 0B       		.uleb128 0xb
 3785 01ab 3B       		.uleb128 0x3b
 3786 01ac 05       		.uleb128 0x5
 3787 01ad 49       		.uleb128 0x49
 3788 01ae 13       		.uleb128 0x13
 3789 01af 38       		.uleb128 0x38
 3790 01b0 05       		.uleb128 0x5
 3791 01b1 00       		.byte	0
 3792 01b2 00       		.byte	0
 3793 01b3 24       		.uleb128 0x24
 3794 01b4 13       		.uleb128 0x13
 3795 01b5 01       		.byte	0x1
 3796 01b6 03       		.uleb128 0x3
 3797 01b7 0E       		.uleb128 0xe
 3798 01b8 0B       		.uleb128 0xb
 3799 01b9 0B       		.uleb128 0xb
 3800 01ba 3A       		.uleb128 0x3a
 3801 01bb 0B       		.uleb128 0xb
 3802 01bc 3B       		.uleb128 0x3b
 3803 01bd 05       		.uleb128 0x5
 3804 01be 01       		.uleb128 0x1
 3805 01bf 13       		.uleb128 0x13
 3806 01c0 00       		.byte	0
 3807 01c1 00       		.byte	0
 3808 01c2 25       		.uleb128 0x25
 3809 01c3 17       		.uleb128 0x17
 3810 01c4 01       		.byte	0x1
 3811 01c5 0B       		.uleb128 0xb
 3812 01c6 0B       		.uleb128 0xb
 3813 01c7 3A       		.uleb128 0x3a
 3814 01c8 0B       		.uleb128 0xb
 3815 01c9 3B       		.uleb128 0x3b
 3816 01ca 05       		.uleb128 0x5
 3817 01cb 01       		.uleb128 0x1
 3818 01cc 13       		.uleb128 0x13
 3819 01cd 00       		.byte	0
 3820 01ce 00       		.byte	0
 3821 01cf 26       		.uleb128 0x26
 3822 01d0 0D       		.uleb128 0xd
 3823 01d1 00       		.byte	0
 3824 01d2 03       		.uleb128 0x3
 3825 01d3 0E       		.uleb128 0xe
 3826 01d4 3A       		.uleb128 0x3a
ARM GAS  /tmp/ccztuyKP.s 			page 71


 3827 01d5 0B       		.uleb128 0xb
 3828 01d6 3B       		.uleb128 0x3b
 3829 01d7 05       		.uleb128 0x5
 3830 01d8 49       		.uleb128 0x49
 3831 01d9 13       		.uleb128 0x13
 3832 01da 00       		.byte	0
 3833 01db 00       		.byte	0
 3834 01dc 27       		.uleb128 0x27
 3835 01dd 15       		.uleb128 0x15
 3836 01de 01       		.byte	0x1
 3837 01df 27       		.uleb128 0x27
 3838 01e0 19       		.uleb128 0x19
 3839 01e1 01       		.uleb128 0x1
 3840 01e2 13       		.uleb128 0x13
 3841 01e3 00       		.byte	0
 3842 01e4 00       		.byte	0
 3843 01e5 28       		.uleb128 0x28
 3844 01e6 04       		.uleb128 0x4
 3845 01e7 01       		.byte	0x1
 3846 01e8 03       		.uleb128 0x3
 3847 01e9 0E       		.uleb128 0xe
 3848 01ea 0B       		.uleb128 0xb
 3849 01eb 0B       		.uleb128 0xb
 3850 01ec 49       		.uleb128 0x49
 3851 01ed 13       		.uleb128 0x13
 3852 01ee 3A       		.uleb128 0x3a
 3853 01ef 0B       		.uleb128 0xb
 3854 01f0 3B       		.uleb128 0x3b
 3855 01f1 05       		.uleb128 0x5
 3856 01f2 01       		.uleb128 0x1
 3857 01f3 13       		.uleb128 0x13
 3858 01f4 00       		.byte	0
 3859 01f5 00       		.byte	0
 3860 01f6 29       		.uleb128 0x29
 3861 01f7 21       		.uleb128 0x21
 3862 01f8 00       		.byte	0
 3863 01f9 00       		.byte	0
 3864 01fa 00       		.byte	0
 3865 01fb 2A       		.uleb128 0x2a
 3866 01fc 34       		.uleb128 0x34
 3867 01fd 00       		.byte	0
 3868 01fe 03       		.uleb128 0x3
 3869 01ff 0E       		.uleb128 0xe
 3870 0200 3A       		.uleb128 0x3a
 3871 0201 0B       		.uleb128 0xb
 3872 0202 3B       		.uleb128 0x3b
 3873 0203 0B       		.uleb128 0xb
 3874 0204 49       		.uleb128 0x49
 3875 0205 13       		.uleb128 0x13
 3876 0206 3F       		.uleb128 0x3f
 3877 0207 19       		.uleb128 0x19
 3878 0208 02       		.uleb128 0x2
 3879 0209 18       		.uleb128 0x18
 3880 020a 00       		.byte	0
 3881 020b 00       		.byte	0
 3882 020c 2B       		.uleb128 0x2b
 3883 020d 2E       		.uleb128 0x2e
ARM GAS  /tmp/ccztuyKP.s 			page 72


 3884 020e 01       		.byte	0x1
 3885 020f 3F       		.uleb128 0x3f
 3886 0210 19       		.uleb128 0x19
 3887 0211 03       		.uleb128 0x3
 3888 0212 0E       		.uleb128 0xe
 3889 0213 3A       		.uleb128 0x3a
 3890 0214 0B       		.uleb128 0xb
 3891 0215 3B       		.uleb128 0x3b
 3892 0216 0B       		.uleb128 0xb
 3893 0217 27       		.uleb128 0x27
 3894 0218 19       		.uleb128 0x19
 3895 0219 11       		.uleb128 0x11
 3896 021a 01       		.uleb128 0x1
 3897 021b 12       		.uleb128 0x12
 3898 021c 06       		.uleb128 0x6
 3899 021d 40       		.uleb128 0x40
 3900 021e 18       		.uleb128 0x18
 3901 021f 9742     		.uleb128 0x2117
 3902 0221 19       		.uleb128 0x19
 3903 0222 01       		.uleb128 0x1
 3904 0223 13       		.uleb128 0x13
 3905 0224 00       		.byte	0
 3906 0225 00       		.byte	0
 3907 0226 2C       		.uleb128 0x2c
 3908 0227 34       		.uleb128 0x34
 3909 0228 00       		.byte	0
 3910 0229 03       		.uleb128 0x3
 3911 022a 0E       		.uleb128 0xe
 3912 022b 3A       		.uleb128 0x3a
 3913 022c 0B       		.uleb128 0xb
 3914 022d 3B       		.uleb128 0x3b
 3915 022e 0B       		.uleb128 0xb
 3916 022f 49       		.uleb128 0x49
 3917 0230 13       		.uleb128 0x13
 3918 0231 02       		.uleb128 0x2
 3919 0232 18       		.uleb128 0x18
 3920 0233 00       		.byte	0
 3921 0234 00       		.byte	0
 3922 0235 2D       		.uleb128 0x2d
 3923 0236 898201   		.uleb128 0x4109
 3924 0239 01       		.byte	0x1
 3925 023a 11       		.uleb128 0x11
 3926 023b 01       		.uleb128 0x1
 3927 023c 31       		.uleb128 0x31
 3928 023d 13       		.uleb128 0x13
 3929 023e 01       		.uleb128 0x1
 3930 023f 13       		.uleb128 0x13
 3931 0240 00       		.byte	0
 3932 0241 00       		.byte	0
 3933 0242 2E       		.uleb128 0x2e
 3934 0243 8A8201   		.uleb128 0x410a
 3935 0246 00       		.byte	0
 3936 0247 02       		.uleb128 0x2
 3937 0248 18       		.uleb128 0x18
 3938 0249 9142     		.uleb128 0x2111
 3939 024b 18       		.uleb128 0x18
 3940 024c 00       		.byte	0
ARM GAS  /tmp/ccztuyKP.s 			page 73


 3941 024d 00       		.byte	0
 3942 024e 2F       		.uleb128 0x2f
 3943 024f 898201   		.uleb128 0x4109
 3944 0252 01       		.byte	0x1
 3945 0253 11       		.uleb128 0x11
 3946 0254 01       		.uleb128 0x1
 3947 0255 31       		.uleb128 0x31
 3948 0256 13       		.uleb128 0x13
 3949 0257 00       		.byte	0
 3950 0258 00       		.byte	0
 3951 0259 30       		.uleb128 0x30
 3952 025a 898201   		.uleb128 0x4109
 3953 025d 00       		.byte	0
 3954 025e 11       		.uleb128 0x11
 3955 025f 01       		.uleb128 0x1
 3956 0260 31       		.uleb128 0x31
 3957 0261 13       		.uleb128 0x13
 3958 0262 00       		.byte	0
 3959 0263 00       		.byte	0
 3960 0264 31       		.uleb128 0x31
 3961 0265 2E       		.uleb128 0x2e
 3962 0266 00       		.byte	0
 3963 0267 3F       		.uleb128 0x3f
 3964 0268 19       		.uleb128 0x19
 3965 0269 3C       		.uleb128 0x3c
 3966 026a 19       		.uleb128 0x19
 3967 026b 6E       		.uleb128 0x6e
 3968 026c 0E       		.uleb128 0xe
 3969 026d 03       		.uleb128 0x3
 3970 026e 0E       		.uleb128 0xe
 3971 026f 3A       		.uleb128 0x3a
 3972 0270 0B       		.uleb128 0xb
 3973 0271 3B       		.uleb128 0x3b
 3974 0272 0B       		.uleb128 0xb
 3975 0273 00       		.byte	0
 3976 0274 00       		.byte	0
 3977 0275 32       		.uleb128 0x32
 3978 0276 2E       		.uleb128 0x2e
 3979 0277 00       		.byte	0
 3980 0278 3F       		.uleb128 0x3f
 3981 0279 19       		.uleb128 0x19
 3982 027a 3C       		.uleb128 0x3c
 3983 027b 19       		.uleb128 0x19
 3984 027c 6E       		.uleb128 0x6e
 3985 027d 0E       		.uleb128 0xe
 3986 027e 03       		.uleb128 0x3
 3987 027f 0E       		.uleb128 0xe
 3988 0280 3A       		.uleb128 0x3a
 3989 0281 0B       		.uleb128 0xb
 3990 0282 3B       		.uleb128 0x3b
 3991 0283 05       		.uleb128 0x5
 3992 0284 00       		.byte	0
 3993 0285 00       		.byte	0
 3994 0286 00       		.byte	0
 3995              		.section	.debug_aranges,"",%progbits
 3996 0000 1C000000 		.4byte	0x1c
 3997 0004 0200     		.2byte	0x2
ARM GAS  /tmp/ccztuyKP.s 			page 74


 3998 0006 00000000 		.4byte	.Ldebug_info0
 3999 000a 04       		.byte	0x4
 4000 000b 00       		.byte	0
 4001 000c 0000     		.2byte	0
 4002 000e 0000     		.2byte	0
 4003 0010 00000000 		.4byte	.Ltext0
 4004 0014 14020000 		.4byte	.Letext0-.Ltext0
 4005 0018 00000000 		.4byte	0
 4006 001c 00000000 		.4byte	0
 4007              		.section	.debug_line,"",%progbits
 4008              	.Ldebug_line0:
 4009 0000 39030000 		.section	.debug_str,"MS",%progbits,1
 4009      0200CB02 
 4009      00000201 
 4009      FB0E0D00 
 4009      01010101 
 4010              	.LASF16:
 4011 0000 45585449 		.ascii	"EXTI2_IRQn\000"
 4011      325F4952 
 4011      516E00
 4012              	.LASF141:
 4013 000b 4750494F 		.ascii	"GPIO_Mode_IPU\000"
 4013      5F4D6F64 
 4013      655F4950 
 4013      5500
 4014              	.LASF158:
 4015 0019 4E564943 		.ascii	"NVIC_IRQChannel\000"
 4015      5F495251 
 4015      4368616E 
 4015      6E656C00 
 4016              	.LASF294:
 4017 0029 4E564943 		.ascii	"NVIC_Conf\000"
 4017      5F436F6E 
 4017      6600
 4018              	.LASF70:
 4019 0033 73697A65 		.ascii	"sizetype\000"
 4019      74797065 
 4019      00
 4020              	.LASF179:
 4021 003c 5F5F7661 		.ascii	"__value\000"
 4021      6C756500 
 4022              	.LASF247:
 4023 0044 5F5F7366 		.ascii	"__sf\000"
 4023      00
 4024              	.LASF214:
 4025 0049 5F726561 		.ascii	"_read\000"
 4025      6400
 4026              	.LASF316:
 4027 004f 464C4153 		.ascii	"FLASH_PrefetchBufferCmd\000"
 4027      485F5072 
 4027      65666574 
 4027      63684275 
 4027      66666572 
 4028              	.LASF215:
 4029 0067 5F777269 		.ascii	"_write\000"
 4029      746500
 4030              	.LASF68:
ARM GAS  /tmp/ccztuyKP.s 			page 75


 4031 006e 696E7433 		.ascii	"int32_t\000"
 4031      325F7400 
 4032              	.LASF119:
 4033 0076 47545052 		.ascii	"GTPR\000"
 4033      00
 4034              	.LASF259:
 4035 007b 5F617363 		.ascii	"_asctime_buf\000"
 4035      74696D65 
 4035      5F627566 
 4035      00
 4036              	.LASF241:
 4037 0088 5F637674 		.ascii	"_cvtlen\000"
 4037      6C656E00 
 4038              	.LASF23:
 4039 0090 444D4131 		.ascii	"DMA1_Channel5_IRQn\000"
 4039      5F436861 
 4039      6E6E656C 
 4039      355F4952 
 4039      516E00
 4040              	.LASF278:
 4041 00a3 5F756E75 		.ascii	"_unused\000"
 4041      73656400 
 4042              	.LASF188:
 4043 00ab 5F5F746D 		.ascii	"__tm\000"
 4043      00
 4044              	.LASF274:
 4045 00b0 5F776373 		.ascii	"_wcsrtombs_state\000"
 4045      72746F6D 
 4045      62735F73 
 4045      74617465 
 4045      00
 4046              	.LASF219:
 4047 00c1 5F6E6275 		.ascii	"_nbuf\000"
 4047      6600
 4048              	.LASF189:
 4049 00c7 5F5F746D 		.ascii	"__tm_sec\000"
 4049      5F736563 
 4049      00
 4050              	.LASF267:
 4051 00d0 5F6C3634 		.ascii	"_l64a_buf\000"
 4051      615F6275 
 4051      6600
 4052              	.LASF12:
 4053 00da 464C4153 		.ascii	"FLASH_IRQn\000"
 4053      485F4952 
 4053      516E00
 4054              	.LASF235:
 4055 00e5 5F5F7364 		.ascii	"__sdidinit\000"
 4055      6964696E 
 4055      697400
 4056              	.LASF223:
 4057 00f0 5F6C6F63 		.ascii	"_lock\000"
 4057      6B00
 4058              	.LASF333:
 4059 00f6 2F686F6D 		.ascii	"/home/enbin/Documents/code/STM/stm32-quadrocopter\000"
 4059      652F656E 
 4059      62696E2F 
ARM GAS  /tmp/ccztuyKP.s 			page 76


 4059      446F6375 
 4059      6D656E74 
 4060              	.LASF122:
 4061 0128 4932435F 		.ascii	"I2C_Mode\000"
 4061      4D6F6465 
 4061      00
 4062              	.LASF255:
 4063 0131 5F6D756C 		.ascii	"_mult\000"
 4063      7400
 4064              	.LASF36:
 4065 0137 54494D32 		.ascii	"TIM2_IRQn\000"
 4065      5F495251 
 4065      6E00
 4066              	.LASF322:
 4067 0141 5243435F 		.ascii	"RCC_PLLConfig\000"
 4067      504C4C43 
 4067      6F6E6669 
 4067      6700
 4068              	.LASF116:
 4069 014f 444D4152 		.ascii	"DMAR\000"
 4069      00
 4070              	.LASF296:
 4071 0154 4E564943 		.ascii	"NVIC_InitStructure\000"
 4071      5F496E69 
 4071      74537472 
 4071      75637475 
 4071      726500
 4072              	.LASF105:
 4073 0167 43435231 		.ascii	"CCR1\000"
 4073      00
 4074              	.LASF107:
 4075 016c 43435232 		.ascii	"CCR2\000"
 4075      00
 4076              	.LASF109:
 4077 0171 43435233 		.ascii	"CCR3\000"
 4077      00
 4078              	.LASF111:
 4079 0176 43435234 		.ascii	"CCR4\000"
 4079      00
 4080              	.LASF53:
 4081 017b 5F5F7569 		.ascii	"__uint8_t\000"
 4081      6E74385F 
 4081      7400
 4082              	.LASF44:
 4083 0185 53504932 		.ascii	"SPI2_IRQn\000"
 4083      5F495251 
 4083      6E00
 4084              	.LASF320:
 4085 018f 5243435F 		.ascii	"RCC_PCLK1Config\000"
 4085      50434C4B 
 4085      31436F6E 
 4085      66696700 
 4086              	.LASF211:
 4087 019f 5F66696C 		.ascii	"_file\000"
 4087      6500
 4088              	.LASF198:
 4089 01a5 5F6F6E5F 		.ascii	"_on_exit_args\000"
ARM GAS  /tmp/ccztuyKP.s 			page 77


 4089      65786974 
 4089      5F617267 
 4089      7300
 4090              	.LASF148:
 4091 01b3 4750494F 		.ascii	"GPIO_Speed\000"
 4091      5F537065 
 4091      656400
 4092              	.LASF161:
 4093 01be 4E564943 		.ascii	"NVIC_IRQChannelCmd\000"
 4093      5F495251 
 4093      4368616E 
 4093      6E656C43 
 4093      6D6400
 4094              	.LASF176:
 4095 01d1 5F5F7763 		.ascii	"__wch\000"
 4095      6800
 4096              	.LASF299:
 4097 01d7 54494D5F 		.ascii	"TIM_TimeBaseStructure\000"
 4097      54696D65 
 4097      42617365 
 4097      53747275 
 4097      63747572 
 4098              	.LASF167:
 4099 01ed 477A5F6F 		.ascii	"Gz_offset\000"
 4099      66667365 
 4099      7400
 4100              	.LASF270:
 4101 01f7 5F6D6272 		.ascii	"_mbrlen_state\000"
 4101      6C656E5F 
 4101      73746174 
 4101      6500
 4102              	.LASF59:
 4103 0205 6C6F6E67 		.ascii	"long int\000"
 4103      20696E74 
 4103      00
 4104              	.LASF302:
 4105 020e 4932435F 		.ascii	"I2C_InitStructure\000"
 4105      496E6974 
 4105      53747275 
 4105      63747572 
 4105      6500
 4106              	.LASF279:
 4107 0220 5F696D70 		.ascii	"_impure_ptr\000"
 4107      7572655F 
 4107      70747200 
 4108              	.LASF295:
 4109 022c 4750494F 		.ascii	"GPIO_Conf\000"
 4109      5F436F6E 
 4109      6600
 4110              	.LASF238:
 4111 0236 5F726573 		.ascii	"_result_k\000"
 4111      756C745F 
 4111      6B00
 4112              	.LASF208:
 4113 0240 5F73697A 		.ascii	"_size\000"
 4113      6500
 4114              	.LASF138:
ARM GAS  /tmp/ccztuyKP.s 			page 78


 4115 0246 4750494F 		.ascii	"GPIO_Mode_AIN\000"
 4115      5F4D6F64 
 4115      655F4149 
 4115      4E00
 4116              	.LASF260:
 4117 0254 5F6C6F63 		.ascii	"_localtime_buf\000"
 4117      616C7469 
 4117      6D655F62 
 4117      756600
 4118              	.LASF181:
 4119 0263 5F666C6F 		.ascii	"_flock_t\000"
 4119      636B5F74 
 4119      00
 4120              	.LASF10:
 4121 026c 54414D50 		.ascii	"TAMPER_IRQn\000"
 4121      45525F49 
 4121      52516E00 
 4122              	.LASF284:
 4123 0278 4952516E 		.ascii	"IRQn\000"
 4123      00
 4124              	.LASF319:
 4125 027d 5243435F 		.ascii	"RCC_PCLK2Config\000"
 4125      50434C4B 
 4125      32436F6E 
 4125      66696700 
 4126              	.LASF311:
 4127 028d 5243435F 		.ascii	"RCC_DeInit\000"
 4127      4465496E 
 4127      697400
 4128              	.LASF193:
 4129 0298 5F5F746D 		.ascii	"__tm_mon\000"
 4129      5F6D6F6E 
 4129      00
 4130              	.LASF304:
 4131 02a1 55534152 		.ascii	"USART_InitStructure\000"
 4131      545F496E 
 4131      69745374 
 4131      72756374 
 4131      75726500 
 4132              	.LASF144:
 4133 02b5 4750494F 		.ascii	"GPIO_Mode_AF_OD\000"
 4133      5F4D6F64 
 4133      655F4146 
 4133      5F4F4400 
 4134              	.LASF7:
 4135 02c5 53797354 		.ascii	"SysTick_IRQn\000"
 4135      69636B5F 
 4135      4952516E 
 4135      00
 4136              	.LASF233:
 4137 02d2 5F637572 		.ascii	"_current_category\000"
 4137      72656E74 
 4137      5F636174 
 4137      65676F72 
 4137      7900
 4138              	.LASF47:
 4139 02e4 55534152 		.ascii	"USART3_IRQn\000"
ARM GAS  /tmp/ccztuyKP.s 			page 79


 4139      54335F49 
 4139      52516E00 
 4140              	.LASF321:
 4141 02f0 5243435F 		.ascii	"RCC_ADCCLKConfig\000"
 4141      41444343 
 4141      4C4B436F 
 4141      6E666967 
 4141      00
 4142              	.LASF257:
 4143 0301 5F756E75 		.ascii	"_unused_rand\000"
 4143      7365645F 
 4143      72616E64 
 4143      00
 4144              	.LASF51:
 4145 030e 7369676E 		.ascii	"signed char\000"
 4145      65642063 
 4145      68617200 
 4146              	.LASF65:
 4147 031a 75696E74 		.ascii	"uint8_t\000"
 4147      385F7400 
 4148              	.LASF123:
 4149 0322 4932435F 		.ascii	"I2C_DutyCycle\000"
 4149      44757479 
 4149      4379636C 
 4149      6500
 4150              	.LASF150:
 4151 0330 4750494F 		.ascii	"GPIO_InitTypeDef\000"
 4151      5F496E69 
 4151      74547970 
 4151      65446566 
 4151      00
 4152              	.LASF229:
 4153 0341 5F737464 		.ascii	"_stdout\000"
 4153      6F757400 
 4154              	.LASF118:
 4155 0349 54494D5F 		.ascii	"TIM_TypeDef\000"
 4155      54797065 
 4155      44656600 
 4156              	.LASF315:
 4157 0355 5243435F 		.ascii	"RCC_APB1PeriphClockCmd\000"
 4157      41504231 
 4157      50657269 
 4157      7068436C 
 4157      6F636B43 
 4158              	.LASF83:
 4159 036c 52455345 		.ascii	"RESERVED0\000"
 4159      52564544 
 4159      3000
 4160              	.LASF84:
 4161 0376 52455345 		.ascii	"RESERVED1\000"
 4161      52564544 
 4161      3100
 4162              	.LASF52:
 4163 0380 756E7369 		.ascii	"unsigned char\000"
 4163      676E6564 
 4163      20636861 
 4163      7200
ARM GAS  /tmp/ccztuyKP.s 			page 80


 4164              	.LASF88:
 4165 038e 52455345 		.ascii	"RESERVED3\000"
 4165      52564544 
 4165      3300
 4166              	.LASF89:
 4167 0398 52455345 		.ascii	"RESERVED4\000"
 4167      52564544 
 4167      3400
 4168              	.LASF90:
 4169 03a2 52455345 		.ascii	"RESERVED5\000"
 4169      52564544 
 4169      3500
 4170              	.LASF91:
 4171 03ac 52455345 		.ascii	"RESERVED6\000"
 4171      52564544 
 4171      3600
 4172              	.LASF92:
 4173 03b6 52455345 		.ascii	"RESERVED7\000"
 4173      52564544 
 4173      3700
 4174              	.LASF94:
 4175 03c0 52455345 		.ascii	"RESERVED8\000"
 4175      52564544 
 4175      3800
 4176              	.LASF101:
 4177 03ca 52455345 		.ascii	"RESERVED9\000"
 4177      52564544 
 4177      3900
 4178              	.LASF145:
 4179 03d4 4750494F 		.ascii	"GPIO_Mode_AF_PP\000"
 4179      5F4D6F64 
 4179      655F4146 
 4179      5F505000 
 4180              	.LASF152:
 4181 03e4 55534152 		.ascii	"USART_WordLength\000"
 4181      545F576F 
 4181      72644C65 
 4181      6E677468 
 4181      00
 4182              	.LASF40:
 4183 03f5 49324331 		.ascii	"I2C1_ER_IRQn\000"
 4183      5F45525F 
 4183      4952516E 
 4183      00
 4184              	.LASF226:
 4185 0402 5F726565 		.ascii	"_reent\000"
 4185      6E7400
 4186              	.LASF280:
 4187 0409 5F676C6F 		.ascii	"_global_impure_ptr\000"
 4187      62616C5F 
 4187      696D7075 
 4187      72655F70 
 4187      747200
 4188              	.LASF301:
 4189 041c 4932435F 		.ascii	"I2C_Conf\000"
 4189      436F6E66 
 4189      00
ARM GAS  /tmp/ccztuyKP.s 			page 81


 4190              	.LASF19:
 4191 0425 444D4131 		.ascii	"DMA1_Channel1_IRQn\000"
 4191      5F436861 
 4191      6E6E656C 
 4191      315F4952 
 4191      516E00
 4192              	.LASF32:
 4193 0438 54494D31 		.ascii	"TIM1_BRK_IRQn\000"
 4193      5F42524B 
 4193      5F495251 
 4193      6E00
 4194              	.LASF86:
 4195 0446 52455345 		.ascii	"RESERVED2\000"
 4195      52564544 
 4195      3200
 4196              	.LASF204:
 4197 0450 5F696E64 		.ascii	"_ind\000"
 4197      00
 4198              	.LASF154:
 4199 0455 55534152 		.ascii	"USART_Parity\000"
 4199      545F5061 
 4199      72697479 
 4199      00
 4200              	.LASF3:
 4201 0462 55736167 		.ascii	"UsageFault_IRQn\000"
 4201      65466175 
 4201      6C745F49 
 4201      52516E00 
 4202              	.LASF98:
 4203 0472 43434D52 		.ascii	"CCMR1\000"
 4203      3100
 4204              	.LASF27:
 4205 0478 5553425F 		.ascii	"USB_HP_CAN1_TX_IRQn\000"
 4205      48505F43 
 4205      414E315F 
 4205      54585F49 
 4205      52516E00 
 4206              	.LASF248:
 4207 048c 63686172 		.ascii	"char\000"
 4207      00
 4208              	.LASF205:
 4209 0491 5F666E73 		.ascii	"_fns\000"
 4209      00
 4210              	.LASF163:
 4211 0496 6779726F 		.ascii	"gyro\000"
 4211      00
 4212              	.LASF217:
 4213 049b 5F636C6F 		.ascii	"_close\000"
 4213      736500
 4214              	.LASF331:
 4215 04a2 474E5520 		.ascii	"GNU C89 6.1.1 20160526 -mcpu=cortex-m3 -mthumb -mfl"
 4215      43383920 
 4215      362E312E 
 4215      31203230 
 4215      31363035 
 4216 04d5 6F61742D 		.ascii	"oat-abi=soft -g -O1 -std=gnu90 -fno-common -fno-mat"
 4216      6162693D 
ARM GAS  /tmp/ccztuyKP.s 			page 82


 4216      736F6674 
 4216      202D6720 
 4216      2D4F3120 
 4217 0508 682D6572 		.ascii	"h-errno\000"
 4217      726E6F00 
 4218              	.LASF159:
 4219 0510 4E564943 		.ascii	"NVIC_IRQChannelPreemptionPriority\000"
 4219      5F495251 
 4219      4368616E 
 4219      6E656C50 
 4219      7265656D 
 4220              	.LASF142:
 4221 0532 4750494F 		.ascii	"GPIO_Mode_Out_OD\000"
 4221      5F4D6F64 
 4221      655F4F75 
 4221      745F4F44 
 4221      00
 4222              	.LASF56:
 4223 0543 5F5F7569 		.ascii	"__uint16_t\000"
 4223      6E743136 
 4223      5F7400
 4224              	.LASF332:
 4225 054e 64726976 		.ascii	"drivers/conf.c\000"
 4225      6572732F 
 4225      636F6E66 
 4225      2E6300
 4226              	.LASF228:
 4227 055d 5F737464 		.ascii	"_stdin\000"
 4227      696E00
 4228              	.LASF136:
 4229 0564 4750494F 		.ascii	"GPIO_Speed_50MHz\000"
 4229      5F537065 
 4229      65645F35 
 4229      304D487A 
 4229      00
 4230              	.LASF120:
 4231 0575 55534152 		.ascii	"USART_TypeDef\000"
 4231      545F5479 
 4231      70654465 
 4231      6600
 4232              	.LASF202:
 4233 0583 5F69735F 		.ascii	"_is_cxa\000"
 4233      63786100 
 4234              	.LASF171:
 4235 058b 69506974 		.ascii	"iPitch\000"
 4235      636800
 4236              	.LASF50:
 4237 0592 55534257 		.ascii	"USBWakeUp_IRQn\000"
 4237      616B6555 
 4237      705F4952 
 4237      516E00
 4238              	.LASF308:
 4239 05a1 54494D5F 		.ascii	"TIM_TimeBaseInit\000"
 4239      54696D65 
 4239      42617365 
 4239      496E6974 
 4239      00
ARM GAS  /tmp/ccztuyKP.s 			page 83


 4240              	.LASF38:
 4241 05b2 54494D34 		.ascii	"TIM4_IRQn\000"
 4241      5F495251 
 4241      6E00
 4242              	.LASF46:
 4243 05bc 55534152 		.ascii	"USART2_IRQn\000"
 4243      54325F49 
 4243      52516E00 
 4244              	.LASF127:
 4245 05c8 4932435F 		.ascii	"I2C_InitTypeDef\000"
 4245      496E6974 
 4245      54797065 
 4245      44656600 
 4246              	.LASF318:
 4247 05d8 5243435F 		.ascii	"RCC_HCLKConfig\000"
 4247      48434C4B 
 4247      436F6E66 
 4247      696700
 4248              	.LASF329:
 4249 05e7 55534152 		.ascii	"USART_Init\000"
 4249      545F496E 
 4249      697400
 4250              	.LASF312:
 4251 05f2 5243435F 		.ascii	"RCC_HSEConfig\000"
 4251      48534543 
 4251      6F6E6669 
 4251      6700
 4252              	.LASF326:
 4253 0600 5243435F 		.ascii	"RCC_GetSYSCLKSource\000"
 4253      47657453 
 4253      5953434C 
 4253      4B536F75 
 4253      72636500 
 4254              	.LASF128:
 4255 0614 54494D5F 		.ascii	"TIM_Prescaler\000"
 4255      50726573 
 4255      63616C65 
 4255      7200
 4256              	.LASF39:
 4257 0622 49324331 		.ascii	"I2C1_EV_IRQn\000"
 4257      5F45565F 
 4257      4952516E 
 4257      00
 4258              	.LASF131:
 4259 062f 54494D5F 		.ascii	"TIM_ClockDivision\000"
 4259      436C6F63 
 4259      6B446976 
 4259      6973696F 
 4259      6E00
 4260              	.LASF213:
 4261 0641 5F636F6F 		.ascii	"_cookie\000"
 4261      6B696500 
 4262              	.LASF186:
 4263 0649 5F776473 		.ascii	"_wds\000"
 4263      00
 4264              	.LASF245:
 4265 064e 5F736967 		.ascii	"_sig_func\000"
ARM GAS  /tmp/ccztuyKP.s 			page 84


 4265      5F66756E 
 4265      6300
 4266              	.LASF151:
 4267 0658 55534152 		.ascii	"USART_BaudRate\000"
 4267      545F4261 
 4267      75645261 
 4267      746500
 4268              	.LASF155:
 4269 0667 55534152 		.ascii	"USART_Mode\000"
 4269      545F4D6F 
 4269      646500
 4270              	.LASF242:
 4271 0672 5F637674 		.ascii	"_cvtbuf\000"
 4271      62756600 
 4272              	.LASF35:
 4273 067a 54494D31 		.ascii	"TIM1_CC_IRQn\000"
 4273      5F43435F 
 4273      4952516E 
 4273      00
 4274              	.LASF15:
 4275 0687 45585449 		.ascii	"EXTI1_IRQn\000"
 4275      315F4952 
 4275      516E00
 4276              	.LASF143:
 4277 0692 4750494F 		.ascii	"GPIO_Mode_Out_PP\000"
 4277      5F4D6F64 
 4277      655F4F75 
 4277      745F5050 
 4277      00
 4278              	.LASF328:
 4279 06a3 4932435F 		.ascii	"I2C_Cmd\000"
 4279      436D6400 
 4280              	.LASF0:
 4281 06ab 4E6F6E4D 		.ascii	"NonMaskableInt_IRQn\000"
 4281      61736B61 
 4281      626C6549 
 4281      6E745F49 
 4281      52516E00 
 4282              	.LASF130:
 4283 06bf 54494D5F 		.ascii	"TIM_Period\000"
 4283      50657269 
 4283      6F6400
 4284              	.LASF305:
 4285 06ca 4E564943 		.ascii	"NVIC_SetVectorTable\000"
 4285      5F536574 
 4285      56656374 
 4285      6F725461 
 4285      626C6500 
 4286              	.LASF290:
 4287 06de 5F5F6664 		.ascii	"__fdlib_version\000"
 4287      6C69625F 
 4287      76657273 
 4287      696F6E00 
 4288              	.LASF8:
 4289 06ee 57574447 		.ascii	"WWDG_IRQn\000"
 4289      5F495251 
 4289      6E00
ARM GAS  /tmp/ccztuyKP.s 			page 85


 4290              	.LASF298:
 4291 06f8 54494D45 		.ascii	"TIMER_Conf\000"
 4291      525F436F 
 4291      6E6600
 4292              	.LASF239:
 4293 0703 5F703573 		.ascii	"_p5s\000"
 4293      00
 4294              	.LASF61:
 4295 0708 6C6F6E67 		.ascii	"long unsigned int\000"
 4295      20756E73 
 4295      69676E65 
 4295      6420696E 
 4295      7400
 4296              	.LASF314:
 4297 071a 5243435F 		.ascii	"RCC_APB2PeriphClockCmd\000"
 4297      41504232 
 4297      50657269 
 4297      7068436C 
 4297      6F636B43 
 4298              	.LASF126:
 4299 0731 4932435F 		.ascii	"I2C_AcknowledgedAddress\000"
 4299      41636B6E 
 4299      6F776C65 
 4299      64676564 
 4299      41646472 
 4300              	.LASF1:
 4301 0749 4D656D6F 		.ascii	"MemoryManagement_IRQn\000"
 4301      72794D61 
 4301      6E616765 
 4301      6D656E74 
 4301      5F495251 
 4302              	.LASF22:
 4303 075f 444D4131 		.ascii	"DMA1_Channel4_IRQn\000"
 4303      5F436861 
 4303      6E6E656C 
 4303      345F4952 
 4303      516E00
 4304              	.LASF97:
 4305 0772 44494552 		.ascii	"DIER\000"
 4305      00
 4306              	.LASF225:
 4307 0777 5F666C61 		.ascii	"_flags2\000"
 4307      67733200 
 4308              	.LASF72:
 4309 077f 53797374 		.ascii	"SystemCoreClock\000"
 4309      656D436F 
 4309      7265436C 
 4309      6F636B00 
 4310              	.LASF30:
 4311 078f 43414E31 		.ascii	"CAN1_SCE_IRQn\000"
 4311      5F534345 
 4311      5F495251 
 4311      6E00
 4312              	.LASF172:
 4313 079d 5F4C4F43 		.ascii	"_LOCK_RECURSIVE_T\000"
 4313      4B5F5245 
 4313      43555253 
ARM GAS  /tmp/ccztuyKP.s 			page 86


 4313      4956455F 
 4313      5400
 4314              	.LASF227:
 4315 07af 5F657272 		.ascii	"_errno\000"
 4315      6E6F00
 4316              	.LASF93:
 4317 07b6 54524953 		.ascii	"TRISE\000"
 4317      4500
 4318              	.LASF168:
 4319 07bc 41636331 		.ascii	"Acc1G_Values\000"
 4319      475F5661 
 4319      6C756573 
 4319      00
 4320              	.LASF153:
 4321 07c9 55534152 		.ascii	"USART_StopBits\000"
 4321      545F5374 
 4321      6F704269 
 4321      747300
 4322              	.LASF268:
 4323 07d8 5F736967 		.ascii	"_signal_buf\000"
 4323      6E616C5F 
 4323      62756600 
 4324              	.LASF81:
 4325 07e4 4C434B52 		.ascii	"LCKR\000"
 4325      00
 4326              	.LASF77:
 4327 07e9 4552524F 		.ascii	"ERROR\000"
 4327      5200
 4328              	.LASF291:
 4329 07ef 5F737973 		.ascii	"_sys_errlist\000"
 4329      5F657272 
 4329      6C697374 
 4329      00
 4330              	.LASF327:
 4331 07fc 4932435F 		.ascii	"I2C_Init\000"
 4331      496E6974 
 4331      00
 4332              	.LASF42:
 4333 0805 49324332 		.ascii	"I2C2_ER_IRQn\000"
 4333      5F45525F 
 4333      4952516E 
 4333      00
 4334              	.LASF187:
 4335 0812 5F426967 		.ascii	"_Bigint\000"
 4335      696E7400 
 4336              	.LASF124:
 4337 081a 4932435F 		.ascii	"I2C_OwnAddress1\000"
 4337      4F776E41 
 4337      64647265 
 4337      73733100 
 4338              	.LASF184:
 4339 082a 5F6D6178 		.ascii	"_maxwds\000"
 4339      77647300 
 4340              	.LASF236:
 4341 0832 5F5F636C 		.ascii	"__cleanup\000"
 4341      65616E75 
 4341      7000
ARM GAS  /tmp/ccztuyKP.s 			page 87


 4342              	.LASF2:
 4343 083c 42757346 		.ascii	"BusFault_IRQn\000"
 4343      61756C74 
 4343      5F495251 
 4343      6E00
 4344              	.LASF244:
 4345 084a 5F617465 		.ascii	"_atexit0\000"
 4345      78697430 
 4345      00
 4346              	.LASF287:
 4347 0853 5F5F6664 		.ascii	"__fdlibm_svid\000"
 4347      6C69626D 
 4347      5F737669 
 4347      6400
 4348              	.LASF60:
 4349 0861 5F5F7569 		.ascii	"__uint32_t\000"
 4349      6E743332 
 4349      5F7400
 4350              	.LASF232:
 4351 086c 5F656D65 		.ascii	"_emergency\000"
 4351      7267656E 
 4351      637900
 4352              	.LASF292:
 4353 0877 5F737973 		.ascii	"_sys_nerr\000"
 4353      5F6E6572 
 4353      7200
 4354              	.LASF309:
 4355 0881 54494D5F 		.ascii	"TIM_ClearFlag\000"
 4355      436C6561 
 4355      72466C61 
 4355      6700
 4356              	.LASF62:
 4357 088f 6C6F6E67 		.ascii	"long long int\000"
 4357      206C6F6E 
 4357      6720696E 
 4357      7400
 4358              	.LASF251:
 4359 089d 5F6E696F 		.ascii	"_niobs\000"
 4359      627300
 4360              	.LASF166:
 4361 08a4 47795F6F 		.ascii	"Gy_offset\000"
 4361      66667365 
 4361      7400
 4362              	.LASF43:
 4363 08ae 53504931 		.ascii	"SPI1_IRQn\000"
 4363      5F495251 
 4363      6E00
 4364              	.LASF246:
 4365 08b8 5F5F7367 		.ascii	"__sglue\000"
 4365      6C756500 
 4366              	.LASF277:
 4367 08c0 5F6E6D61 		.ascii	"_nmalloc\000"
 4367      6C6C6F63 
 4367      00
 4368              	.LASF282:
 4369 08c9 646F7562 		.ascii	"double\000"
 4369      6C6500
ARM GAS  /tmp/ccztuyKP.s 			page 88


 4370              	.LASF132:
 4371 08d0 54494D5F 		.ascii	"TIM_RepetitionCounter\000"
 4371      52657065 
 4371      74697469 
 4371      6F6E436F 
 4371      756E7465 
 4372              	.LASF4:
 4373 08e6 53564361 		.ascii	"SVCall_IRQn\000"
 4373      6C6C5F49 
 4373      52516E00 
 4374              	.LASF261:
 4375 08f2 5F67616D 		.ascii	"_gamma_signgam\000"
 4375      6D615F73 
 4375      69676E67 
 4375      616D00
 4376              	.LASF324:
 4377 0901 5243435F 		.ascii	"RCC_GetFlagStatus\000"
 4377      47657446 
 4377      6C616753 
 4377      74617475 
 4377      7300
 4378              	.LASF234:
 4379 0913 5F637572 		.ascii	"_current_locale\000"
 4379      72656E74 
 4379      5F6C6F63 
 4379      616C6500 
 4380              	.LASF240:
 4381 0923 5F667265 		.ascii	"_freelist\000"
 4381      656C6973 
 4381      7400
 4382              	.LASF252:
 4383 092d 5F696F62 		.ascii	"_iobs\000"
 4383      7300
 4384              	.LASF250:
 4385 0933 5F676C75 		.ascii	"_glue\000"
 4385      6500
 4386              	.LASF71:
 4387 0939 49544D5F 		.ascii	"ITM_RxBuffer\000"
 4387      52784275 
 4387      66666572 
 4387      00
 4388              	.LASF185:
 4389 0946 5F736967 		.ascii	"_sign\000"
 4389      6E00
 4390              	.LASF49:
 4391 094c 52544341 		.ascii	"RTCAlarm_IRQn\000"
 4391      6C61726D 
 4391      5F495251 
 4391      6E00
 4392              	.LASF169:
 4393 095a 666C6F61 		.ascii	"float\000"
 4393      7400
 4394              	.LASF18:
 4395 0960 45585449 		.ascii	"EXTI4_IRQn\000"
 4395      345F4952 
 4395      516E00
 4396              	.LASF275:
ARM GAS  /tmp/ccztuyKP.s 			page 89


 4397 096b 5F685F65 		.ascii	"_h_errno\000"
 4397      72726E6F 
 4397      00
 4398              	.LASF41:
 4399 0974 49324332 		.ascii	"I2C2_EV_IRQn\000"
 4399      5F45565F 
 4399      4952516E 
 4399      00
 4400              	.LASF64:
 4401 0981 756E7369 		.ascii	"unsigned int\000"
 4401      676E6564 
 4401      20696E74 
 4401      00
 4402              	.LASF99:
 4403 098e 43434D52 		.ascii	"CCMR2\000"
 4403      3200
 4404              	.LASF300:
 4405 0994 5243435F 		.ascii	"RCC_Conf\000"
 4405      436F6E66 
 4405      00
 4406              	.LASF192:
 4407 099d 5F5F746D 		.ascii	"__tm_mday\000"
 4407      5F6D6461 
 4407      7900
 4408              	.LASF243:
 4409 09a7 5F6E6577 		.ascii	"_new\000"
 4409      00
 4410              	.LASF218:
 4411 09ac 5F756275 		.ascii	"_ubuf\000"
 4411      6600
 4412              	.LASF25:
 4413 09b2 444D4131 		.ascii	"DMA1_Channel7_IRQn\000"
 4413      5F436861 
 4413      6E6E656C 
 4413      375F4952 
 4413      516E00
 4414              	.LASF230:
 4415 09c5 5F737464 		.ascii	"_stderr\000"
 4415      65727200 
 4416              	.LASF266:
 4417 09cd 5F776374 		.ascii	"_wctomb_state\000"
 4417      6F6D625F 
 4417      73746174 
 4417      6500
 4418              	.LASF224:
 4419 09db 5F6D6273 		.ascii	"_mbstate\000"
 4419      74617465 
 4419      00
 4420              	.LASF262:
 4421 09e4 5F72616E 		.ascii	"_rand_next\000"
 4421      645F6E65 
 4421      787400
 4422              	.LASF210:
 4423 09ef 5F666C61 		.ascii	"_flags\000"
 4423      677300
 4424              	.LASF203:
 4425 09f6 5F617465 		.ascii	"_atexit\000"
ARM GAS  /tmp/ccztuyKP.s 			page 90


 4425      78697400 
 4426              	.LASF178:
 4427 09fe 5F5F636F 		.ascii	"__count\000"
 4427      756E7400 
 4428              	.LASF129:
 4429 0a06 54494D5F 		.ascii	"TIM_CounterMode\000"
 4429      436F756E 
 4429      7465724D 
 4429      6F646500 
 4430              	.LASF160:
 4431 0a16 4E564943 		.ascii	"NVIC_IRQChannelSubPriority\000"
 4431      5F495251 
 4431      4368616E 
 4431      6E656C53 
 4431      75625072 
 4432              	.LASF74:
 4433 0a31 44495341 		.ascii	"DISABLE\000"
 4433      424C4500 
 4434              	.LASF283:
 4435 0a39 6C6F6E67 		.ascii	"long double\000"
 4435      20646F75 
 4435      626C6500 
 4436              	.LASF196:
 4437 0a45 5F5F746D 		.ascii	"__tm_yday\000"
 4437      5F796461 
 4437      7900
 4438              	.LASF293:
 4439 0a4f 48534553 		.ascii	"HSEStartUpStatus\000"
 4439      74617274 
 4439      55705374 
 4439      61747573 
 4439      00
 4440              	.LASF254:
 4441 0a60 5F736565 		.ascii	"_seed\000"
 4441      6400
 4442              	.LASF303:
 4443 0a66 55534152 		.ascii	"USART_Conf\000"
 4443      545F436F 
 4443      6E6600
 4444              	.LASF216:
 4445 0a71 5F736565 		.ascii	"_seek\000"
 4445      6B00
 4446              	.LASF79:
 4447 0a77 4572726F 		.ascii	"ErrorStatus\000"
 4447      72537461 
 4447      74757300 
 4448              	.LASF221:
 4449 0a83 5F6F6666 		.ascii	"_offset\000"
 4449      73657400 
 4450              	.LASF174:
 4451 0a8b 5F66706F 		.ascii	"_fpos_t\000"
 4451      735F7400 
 4452              	.LASF125:
 4453 0a93 4932435F 		.ascii	"I2C_Ack\000"
 4453      41636B00 
 4454              	.LASF177:
 4455 0a9b 5F5F7763 		.ascii	"__wchb\000"
ARM GAS  /tmp/ccztuyKP.s 			page 91


 4455      686200
 4456              	.LASF323:
 4457 0aa2 5243435F 		.ascii	"RCC_PLLCmd\000"
 4457      504C4C43 
 4457      6D6400
 4458              	.LASF34:
 4459 0aad 54494D31 		.ascii	"TIM1_TRG_COM_IRQn\000"
 4459      5F545247 
 4459      5F434F4D 
 4459      5F495251 
 4459      6E00
 4460              	.LASF307:
 4461 0abf 4750494F 		.ascii	"GPIO_Init\000"
 4461      5F496E69 
 4461      7400
 4462              	.LASF265:
 4463 0ac9 5F6D6274 		.ascii	"_mbtowc_state\000"
 4463      6F77635F 
 4463      73746174 
 4463      6500
 4464              	.LASF306:
 4465 0ad7 4E564943 		.ascii	"NVIC_Init\000"
 4465      5F496E69 
 4465      7400
 4466              	.LASF76:
 4467 0ae1 46756E63 		.ascii	"FunctionalState\000"
 4467      74696F6E 
 4467      616C5374 
 4467      61746500 
 4468              	.LASF48:
 4469 0af1 45585449 		.ascii	"EXTI15_10_IRQn\000"
 4469      31355F31 
 4469      305F4952 
 4469      516E00
 4470              	.LASF63:
 4471 0b00 6C6F6E67 		.ascii	"long long unsigned int\000"
 4471      206C6F6E 
 4471      6720756E 
 4471      7369676E 
 4471      65642069 
 4472              	.LASF67:
 4473 0b17 75696E74 		.ascii	"uint16_t\000"
 4473      31365F74 
 4473      00
 4474              	.LASF200:
 4475 0b20 5F64736F 		.ascii	"_dso_handle\000"
 4475      5F68616E 
 4475      646C6500 
 4476              	.LASF253:
 4477 0b2c 5F72616E 		.ascii	"_rand48\000"
 4477      64343800 
 4478              	.LASF37:
 4479 0b34 54494D33 		.ascii	"TIM3_IRQn\000"
 4479      5F495251 
 4479      6E00
 4480              	.LASF100:
 4481 0b3e 43434552 		.ascii	"CCER\000"
ARM GAS  /tmp/ccztuyKP.s 			page 92


 4481      00
 4482              	.LASF104:
 4483 0b43 52455345 		.ascii	"RESERVED12\000"
 4483      52564544 
 4483      313200
 4484              	.LASF45:
 4485 0b4e 55534152 		.ascii	"USART1_IRQn\000"
 4485      54315F49 
 4485      52516E00 
 4486              	.LASF108:
 4487 0b5a 52455345 		.ascii	"RESERVED14\000"
 4487      52564544 
 4487      313400
 4488              	.LASF110:
 4489 0b65 52455345 		.ascii	"RESERVED15\000"
 4489      52564544 
 4489      313500
 4490              	.LASF112:
 4491 0b70 52455345 		.ascii	"RESERVED16\000"
 4491      52564544 
 4491      313600
 4492              	.LASF114:
 4493 0b7b 52455345 		.ascii	"RESERVED17\000"
 4493      52564544 
 4493      313700
 4494              	.LASF115:
 4495 0b86 52455345 		.ascii	"RESERVED18\000"
 4495      52564544 
 4495      313800
 4496              	.LASF117:
 4497 0b91 52455345 		.ascii	"RESERVED19\000"
 4497      52564544 
 4497      313900
 4498              	.LASF313:
 4499 0b9c 5243435F 		.ascii	"RCC_WaitForHSEStartUp\000"
 4499      57616974 
 4499      466F7248 
 4499      53455374 
 4499      61727455 
 4500              	.LASF285:
 4501 0bb2 5F5F6664 		.ascii	"__fdlibm_version\000"
 4501      6C69626D 
 4501      5F766572 
 4501      73696F6E 
 4501      00
 4502              	.LASF220:
 4503 0bc3 5F626C6B 		.ascii	"_blksize\000"
 4503      73697A65 
 4503      00
 4504              	.LASF297:
 4505 0bcc 4750494F 		.ascii	"GPIO_InitStructure\000"
 4505      5F496E69 
 4505      74537472 
 4505      75637475 
 4505      726500
 4506              	.LASF207:
 4507 0bdf 5F626173 		.ascii	"_base\000"
ARM GAS  /tmp/ccztuyKP.s 			page 93


 4507      6500
 4508              	.LASF78:
 4509 0be5 53554343 		.ascii	"SUCCESS\000"
 4509      45535300 
 4510              	.LASF149:
 4511 0bed 4750494F 		.ascii	"GPIO_Mode\000"
 4511      5F4D6F64 
 4511      6500
 4512              	.LASF330:
 4513 0bf7 55534152 		.ascii	"USART_Cmd\000"
 4513      545F436D 
 4513      6400
 4514              	.LASF258:
 4515 0c01 5F737472 		.ascii	"_strtok_last\000"
 4515      746F6B5F 
 4515      6C617374 
 4515      00
 4516              	.LASF95:
 4517 0c0e 4932435F 		.ascii	"I2C_TypeDef\000"
 4517      54797065 
 4517      44656600 
 4518              	.LASF271:
 4519 0c1a 5F6D6272 		.ascii	"_mbrtowc_state\000"
 4519      746F7763 
 4519      5F737461 
 4519      746500
 4520              	.LASF96:
 4521 0c29 534D4352 		.ascii	"SMCR\000"
 4521      00
 4522              	.LASF249:
 4523 0c2e 5F5F4649 		.ascii	"__FILE\000"
 4523      4C4500
 4524              	.LASF273:
 4525 0c35 5F776372 		.ascii	"_wcrtomb_state\000"
 4525      746F6D62 
 4525      5F737461 
 4525      746500
 4526              	.LASF146:
 4527 0c44 4750494F 		.ascii	"GPIOMode_TypeDef\000"
 4527      4D6F6465 
 4527      5F547970 
 4527      65446566 
 4527      00
 4528              	.LASF54:
 4529 0c55 5F5F696E 		.ascii	"__int16_t\000"
 4529      7431365F 
 4529      7400
 4530              	.LASF73:
 4531 0c5f 52455345 		.ascii	"RESET\000"
 4531      5400
 4532              	.LASF180:
 4533 0c65 5F6D6273 		.ascii	"_mbstate_t\000"
 4533      74617465 
 4533      5F7400
 4534              	.LASF263:
 4535 0c70 5F723438 		.ascii	"_r48\000"
 4535      00
ARM GAS  /tmp/ccztuyKP.s 			page 94


 4536              	.LASF157:
 4537 0c75 55534152 		.ascii	"USART_InitTypeDef\000"
 4537      545F496E 
 4537      69745479 
 4537      70654465 
 4537      6600
 4538              	.LASF9:
 4539 0c87 5056445F 		.ascii	"PVD_IRQn\000"
 4539      4952516E 
 4539      00
 4540              	.LASF175:
 4541 0c90 77696E74 		.ascii	"wint_t\000"
 4541      5F7400
 4542              	.LASF183:
 4543 0c97 5F6E6578 		.ascii	"_next\000"
 4543      7400
 4544              	.LASF222:
 4545 0c9d 5F646174 		.ascii	"_data\000"
 4545      6100
 4546              	.LASF14:
 4547 0ca3 45585449 		.ascii	"EXTI0_IRQn\000"
 4547      305F4952 
 4547      516E00
 4548              	.LASF85:
 4549 0cae 4F415231 		.ascii	"OAR1\000"
 4549      00
 4550              	.LASF87:
 4551 0cb3 4F415232 		.ascii	"OAR2\000"
 4551      00
 4552              	.LASF135:
 4553 0cb8 4750494F 		.ascii	"GPIO_Speed_2MHz\000"
 4553      5F537065 
 4553      65645F32 
 4553      4D487A00 
 4554              	.LASF137:
 4555 0cc8 4750494F 		.ascii	"GPIOSpeed_TypeDef\000"
 4555      53706565 
 4555      645F5479 
 4555      70654465 
 4555      6600
 4556              	.LASF5:
 4557 0cda 44656275 		.ascii	"DebugMonitor_IRQn\000"
 4557      674D6F6E 
 4557      69746F72 
 4557      5F495251 
 4557      6E00
 4558              	.LASF147:
 4559 0cec 4750494F 		.ascii	"GPIO_Pin\000"
 4559      5F50696E 
 4559      00
 4560              	.LASF310:
 4561 0cf5 54494D5F 		.ascii	"TIM_ITConfig\000"
 4561      4954436F 
 4561      6E666967 
 4561      00
 4562              	.LASF28:
 4563 0d02 5553425F 		.ascii	"USB_LP_CAN1_RX0_IRQn\000"
ARM GAS  /tmp/ccztuyKP.s 			page 95


 4563      4C505F43 
 4563      414E315F 
 4563      5258305F 
 4563      4952516E 
 4564              	.LASF289:
 4565 0d17 5F5F6664 		.ascii	"__fdlibm_posix\000"
 4565      6C69626D 
 4565      5F706F73 
 4565      697800
 4566              	.LASF21:
 4567 0d26 444D4131 		.ascii	"DMA1_Channel3_IRQn\000"
 4567      5F436861 
 4567      6E6E656C 
 4567      335F4952 
 4567      516E00
 4568              	.LASF317:
 4569 0d39 464C4153 		.ascii	"FLASH_SetLatency\000"
 4569      485F5365 
 4569      744C6174 
 4569      656E6379 
 4569      00
 4570              	.LASF264:
 4571 0d4a 5F6D626C 		.ascii	"_mblen_state\000"
 4571      656E5F73 
 4571      74617465 
 4571      00
 4572              	.LASF55:
 4573 0d57 73686F72 		.ascii	"short int\000"
 4573      7420696E 
 4573      7400
 4574              	.LASF13:
 4575 0d61 5243435F 		.ascii	"RCC_IRQn\000"
 4575      4952516E 
 4575      00
 4576              	.LASF288:
 4577 0d6a 5F5F6664 		.ascii	"__fdlibm_xopen\000"
 4577      6C69626D 
 4577      5F786F70 
 4577      656E00
 4578              	.LASF139:
 4579 0d79 4750494F 		.ascii	"GPIO_Mode_IN_FLOATING\000"
 4579      5F4D6F64 
 4579      655F494E 
 4579      5F464C4F 
 4579      4154494E 
 4580              	.LASF66:
 4581 0d8f 696E7431 		.ascii	"int16_t\000"
 4581      365F7400 
 4582              	.LASF281:
 4583 0d97 7375626F 		.ascii	"suboptarg\000"
 4583      70746172 
 4583      6700
 4584              	.LASF201:
 4585 0da1 5F666E74 		.ascii	"_fntypes\000"
 4585      79706573 
 4585      00
 4586              	.LASF26:
ARM GAS  /tmp/ccztuyKP.s 			page 96


 4587 0daa 41444331 		.ascii	"ADC1_2_IRQn\000"
 4587      5F325F49 
 4587      52516E00 
 4588              	.LASF75:
 4589 0db6 454E4142 		.ascii	"ENABLE\000"
 4589      4C4500
 4590              	.LASF194:
 4591 0dbd 5F5F746D 		.ascii	"__tm_year\000"
 4591      5F796561 
 4591      7200
 4592              	.LASF80:
 4593 0dc7 42535252 		.ascii	"BSRR\000"
 4593      00
 4594              	.LASF82:
 4595 0dcc 4750494F 		.ascii	"GPIO_TypeDef\000"
 4595      5F547970 
 4595      65446566 
 4595      00
 4596              	.LASF212:
 4597 0dd9 5F6C6266 		.ascii	"_lbfsize\000"
 4597      73697A65 
 4597      00
 4598              	.LASF164:
 4599 0de2 61636365 		.ascii	"accel\000"
 4599      6C00
 4600              	.LASF231:
 4601 0de8 5F696E63 		.ascii	"_inc\000"
 4601      00
 4602              	.LASF20:
 4603 0ded 444D4131 		.ascii	"DMA1_Channel2_IRQn\000"
 4603      5F436861 
 4603      6E6E656C 
 4603      325F4952 
 4603      516E00
 4604              	.LASF165:
 4605 0e00 47785F6F 		.ascii	"Gx_offset\000"
 4605      66667365 
 4605      7400
 4606              	.LASF286:
 4607 0e0a 5F5F6664 		.ascii	"__fdlibm_ieee\000"
 4607      6C69626D 
 4607      5F696565 
 4607      6500
 4608              	.LASF206:
 4609 0e18 5F5F7362 		.ascii	"__sbuf\000"
 4609      756600
 4610              	.LASF276:
 4611 0e1f 5F6E6578 		.ascii	"_nextf\000"
 4611      746600
 4612              	.LASF121:
 4613 0e26 4932435F 		.ascii	"I2C_ClockSpeed\000"
 4613      436C6F63 
 4613      6B537065 
 4613      656400
 4614              	.LASF170:
 4615 0e35 50697463 		.ascii	"Pitch\000"
 4615      6800
ARM GAS  /tmp/ccztuyKP.s 			page 97


 4616              	.LASF182:
 4617 0e3b 5F5F554C 		.ascii	"__ULong\000"
 4617      6F6E6700 
 4618              	.LASF113:
 4619 0e43 42445452 		.ascii	"BDTR\000"
 4619      00
 4620              	.LASF69:
 4621 0e48 75696E74 		.ascii	"uint32_t\000"
 4621      33325F74 
 4621      00
 4622              	.LASF33:
 4623 0e51 54494D31 		.ascii	"TIM1_UP_IRQn\000"
 4623      5F55505F 
 4623      4952516E 
 4623      00
 4624              	.LASF237:
 4625 0e5e 5F726573 		.ascii	"_result\000"
 4625      756C7400 
 4626              	.LASF29:
 4627 0e66 43414E31 		.ascii	"CAN1_RX1_IRQn\000"
 4627      5F525831 
 4627      5F495251 
 4627      6E00
 4628              	.LASF156:
 4629 0e74 55534152 		.ascii	"USART_HardwareFlowControl\000"
 4629      545F4861 
 4629      72647761 
 4629      7265466C 
 4629      6F77436F 
 4630              	.LASF31:
 4631 0e8e 45585449 		.ascii	"EXTI9_5_IRQn\000"
 4631      395F355F 
 4631      4952516E 
 4631      00
 4632              	.LASF173:
 4633 0e9b 5F6F6666 		.ascii	"_off_t\000"
 4633      5F7400
 4634              	.LASF256:
 4635 0ea2 5F616464 		.ascii	"_add\000"
 4635      00
 4636              	.LASF134:
 4637 0ea7 4750494F 		.ascii	"GPIO_Speed_10MHz\000"
 4637      5F537065 
 4637      65645F31 
 4637      304D487A 
 4637      00
 4638              	.LASF162:
 4639 0eb8 4E564943 		.ascii	"NVIC_InitTypeDef\000"
 4639      5F496E69 
 4639      74547970 
 4639      65446566 
 4639      00
 4640              	.LASF57:
 4641 0ec9 73686F72 		.ascii	"short unsigned int\000"
 4641      7420756E 
 4641      7369676E 
 4641      65642069 
ARM GAS  /tmp/ccztuyKP.s 			page 98


 4641      6E7400
 4642              	.LASF191:
 4643 0edc 5F5F746D 		.ascii	"__tm_hour\000"
 4643      5F686F75 
 4643      7200
 4644              	.LASF209:
 4645 0ee6 5F5F7346 		.ascii	"__sFILE\000"
 4645      494C4500 
 4646              	.LASF195:
 4647 0eee 5F5F746D 		.ascii	"__tm_wday\000"
 4647      5F776461 
 4647      7900
 4648              	.LASF102:
 4649 0ef8 52455345 		.ascii	"RESERVED10\000"
 4649      52564544 
 4649      313000
 4650              	.LASF103:
 4651 0f03 52455345 		.ascii	"RESERVED11\000"
 4651      52564544 
 4651      313100
 4652              	.LASF106:
 4653 0f0e 52455345 		.ascii	"RESERVED13\000"
 4653      52564544 
 4653      313300
 4654              	.LASF17:
 4655 0f19 45585449 		.ascii	"EXTI3_IRQn\000"
 4655      335F4952 
 4655      516E00
 4656              	.LASF6:
 4657 0f24 50656E64 		.ascii	"PendSV_IRQn\000"
 4657      53565F49 
 4657      52516E00 
 4658              	.LASF272:
 4659 0f30 5F6D6273 		.ascii	"_mbsrtowcs_state\000"
 4659      72746F77 
 4659      63735F73 
 4659      74617465 
 4659      00
 4660              	.LASF58:
 4661 0f41 5F5F696E 		.ascii	"__int32_t\000"
 4661      7433325F 
 4661      7400
 4662              	.LASF199:
 4663 0f4b 5F666E61 		.ascii	"_fnargs\000"
 4663      72677300 
 4664              	.LASF197:
 4665 0f53 5F5F746D 		.ascii	"__tm_isdst\000"
 4665      5F697364 
 4665      737400
 4666              	.LASF24:
 4667 0f5e 444D4131 		.ascii	"DMA1_Channel6_IRQn\000"
 4667      5F436861 
 4667      6E6E656C 
 4667      365F4952 
 4667      516E00
 4668              	.LASF190:
 4669 0f71 5F5F746D 		.ascii	"__tm_min\000"
ARM GAS  /tmp/ccztuyKP.s 			page 99


 4669      5F6D696E 
 4669      00
 4670              	.LASF269:
 4671 0f7a 5F676574 		.ascii	"_getdate_err\000"
 4671      64617465 
 4671      5F657272 
 4671      00
 4672              	.LASF325:
 4673 0f87 5243435F 		.ascii	"RCC_SYSCLKConfig\000"
 4673      53595343 
 4673      4C4B436F 
 4673      6E666967 
 4673      00
 4674              	.LASF11:
 4675 0f98 5254435F 		.ascii	"RTC_IRQn\000"
 4675      4952516E 
 4675      00
 4676              	.LASF133:
 4677 0fa1 54494D5F 		.ascii	"TIM_TimeBaseInitTypeDef\000"
 4677      54696D65 
 4677      42617365 
 4677      496E6974 
 4677      54797065 
 4678              	.LASF140:
 4679 0fb9 4750494F 		.ascii	"GPIO_Mode_IPD\000"
 4679      5F4D6F64 
 4679      655F4950 
 4679      4400
 4680              		.ident	"GCC: (Arch Repository) 6.1.1 20160526"
ARM GAS  /tmp/ccztuyKP.s 			page 100


DEFINED SYMBOLS
                            *ABS*:0000000000000000 conf.c
     /tmp/ccztuyKP.s:15     .text:0000000000000000 $t
     /tmp/ccztuyKP.s:22     .text:0000000000000000 USART_Conf
     /tmp/ccztuyKP.s:69     .text:0000000000000038 $d
     /tmp/ccztuyKP.s:73     .text:000000000000003c $t
     /tmp/ccztuyKP.s:80     .text:000000000000003c I2C_Conf
     /tmp/ccztuyKP.s:129    .text:0000000000000080 $d
     /tmp/ccztuyKP.s:134    .text:0000000000000088 $t
     /tmp/ccztuyKP.s:141    .text:0000000000000088 RCC_Conf
     /tmp/ccztuyKP.s:254    .text:0000000000000130 $d
     /tmp/ccztuyKP.s:258    .text:0000000000000134 $t
     /tmp/ccztuyKP.s:265    .text:0000000000000134 TIMER_Conf
     /tmp/ccztuyKP.s:320    .text:000000000000017a GPIO_Conf
     /tmp/ccztuyKP.s:387    .text:00000000000001e0 $d
     /tmp/ccztuyKP.s:391    .text:00000000000001e4 $t
     /tmp/ccztuyKP.s:398    .text:00000000000001e4 NVIC_Conf
     /tmp/ccztuyKP.s:442    .bss:0000000000000000 HSEStartUpStatus
     /tmp/ccztuyKP.s:443    .bss:0000000000000000 $d
                     .debug_frame:0000000000000010 $d

UNDEFINED SYMBOLS
USART_Init
USART_Cmd
I2C_Init
I2C_Cmd
RCC_DeInit
RCC_HSEConfig
RCC_WaitForHSEStartUp
RCC_APB2PeriphClockCmd
RCC_APB1PeriphClockCmd
FLASH_PrefetchBufferCmd
FLASH_SetLatency
RCC_HCLKConfig
RCC_PCLK2Config
RCC_PCLK1Config
RCC_ADCCLKConfig
RCC_PLLConfig
RCC_PLLCmd
RCC_GetFlagStatus
RCC_SYSCLKConfig
RCC_GetSYSCLKSource
TIM_TimeBaseInit
TIM_ClearFlag
TIM_ITConfig
GPIO_Init
NVIC_SetVectorTable
NVIC_Init
