ARM GAS  /tmp/cchgvlIx.s 			page 1


   1              		.cpu cortex-m3
   2              		.eabi_attribute 20, 1
   3              		.eabi_attribute 21, 1
   4              		.eabi_attribute 23, 3
   5              		.eabi_attribute 24, 1
   6              		.eabi_attribute 25, 1
   7              		.eabi_attribute 26, 1
   8              		.eabi_attribute 30, 1
   9              		.eabi_attribute 34, 1
  10              		.eabi_attribute 18, 4
  11              		.file	"conf.c"
  12              		.text
  13              	.Ltext0:
  14              		.cfi_sections	.debug_frame
  15              		.align	1
  16              		.global	USART_Conf
  17              		.syntax unified
  18              		.thumb
  19              		.thumb_func
  20              		.fpu softvfp
  21              		.type	USART_Conf, %function
  22              	USART_Conf:
  23              	.LFB64:
  24              		.file 1 "drivers/conf.c"
   1:drivers/conf.c **** #include "conf.h"
   2:drivers/conf.c **** 
   3:drivers/conf.c **** ErrorStatus HSEStartUpStatus;
   4:drivers/conf.c **** // 串口相关配置
   5:drivers/conf.c **** void USART_Conf(void)
   6:drivers/conf.c **** {
  25              		.loc 1 6 0
  26              		.cfi_startproc
  27              		@ args = 0, pretend = 0, frame = 16
  28              		@ frame_needed = 0, uses_anonymous_args = 0
  29 0000 10B5     		push	{r4, lr}
  30              		.cfi_def_cfa_offset 8
  31              		.cfi_offset 4, -8
  32              		.cfi_offset 14, -4
  33 0002 84B0     		sub	sp, sp, #16
  34              		.cfi_def_cfa_offset 24
   7:drivers/conf.c ****   USART_InitTypeDef USART_InitStructure;
   8:drivers/conf.c ****   //串口配置： 波特率 115200 数据位 8 停止位 1  奇偶位 NONE  
   9:drivers/conf.c ****   USART_InitStructure.USART_BaudRate = 115200;
  35              		.loc 1 9 0
  36 0004 4FF4E133 		mov	r3, #115200
  37 0008 0093     		str	r3, [sp]
  10:drivers/conf.c ****   USART_InitStructure.USART_WordLength = USART_WordLength_8b;
  38              		.loc 1 10 0
  39 000a 0023     		movs	r3, #0
  40 000c ADF80430 		strh	r3, [sp, #4]	@ movhi
  11:drivers/conf.c ****   USART_InitStructure.USART_StopBits = USART_StopBits_1;
  41              		.loc 1 11 0
  42 0010 ADF80630 		strh	r3, [sp, #6]	@ movhi
  12:drivers/conf.c ****   USART_InitStructure.USART_Parity =  USART_Parity_No ;
  43              		.loc 1 12 0
  44 0014 ADF80830 		strh	r3, [sp, #8]	@ movhi
  13:drivers/conf.c ****   USART_InitStructure.USART_HardwareFlowControl = USART_HardwareFlowControl_None;
ARM GAS  /tmp/cchgvlIx.s 			page 2


  45              		.loc 1 13 0
  46 0018 ADF80C30 		strh	r3, [sp, #12]	@ movhi
  14:drivers/conf.c ****   USART_InitStructure.USART_Mode = USART_Mode_Rx | USART_Mode_Tx;
  47              		.loc 1 14 0
  48 001c 0C23     		movs	r3, #12
  49 001e ADF80A30 		strh	r3, [sp, #10]	@ movhi
  15:drivers/conf.c ****   //初始化串口
  16:drivers/conf.c ****   USART_Init(USART2, &USART_InitStructure);
  50              		.loc 1 16 0
  51 0022 054C     		ldr	r4, .L3
  52 0024 6946     		mov	r1, sp
  53 0026 2046     		mov	r0, r4
  54 0028 FFF7FEFF 		bl	USART_Init
  55              	.LVL0:
  17:drivers/conf.c ****   //启动串口
  18:drivers/conf.c ****   USART_Cmd(USART2, ENABLE);
  56              		.loc 1 18 0
  57 002c 0121     		movs	r1, #1
  58 002e 2046     		mov	r0, r4
  59 0030 FFF7FEFF 		bl	USART_Cmd
  60              	.LVL1:
  19:drivers/conf.c **** }
  61              		.loc 1 19 0
  62 0034 04B0     		add	sp, sp, #16
  63              		.cfi_def_cfa_offset 8
  64              		@ sp needed
  65 0036 10BD     		pop	{r4, pc}
  66              	.L4:
  67              		.align	2
  68              	.L3:
  69 0038 00440040 		.word	1073759232
  70              		.cfi_endproc
  71              	.LFE64:
  72              		.size	USART_Conf, .-USART_Conf
  73              		.align	1
  74              		.global	I2C_Conf
  75              		.syntax unified
  76              		.thumb
  77              		.thumb_func
  78              		.fpu softvfp
  79              		.type	I2C_Conf, %function
  80              	I2C_Conf:
  81              	.LFB65:
  20:drivers/conf.c **** 
  21:drivers/conf.c **** // I2C通讯的配置，主要用来和陀螺仪芯片通讯
  22:drivers/conf.c **** void I2C_Conf(void)
  23:drivers/conf.c **** {
  82              		.loc 1 23 0
  83              		.cfi_startproc
  84              		@ args = 0, pretend = 0, frame = 16
  85              		@ frame_needed = 0, uses_anonymous_args = 0
  86 003c 10B5     		push	{r4, lr}
  87              		.cfi_def_cfa_offset 8
  88              		.cfi_offset 4, -8
  89              		.cfi_offset 14, -4
  90 003e 84B0     		sub	sp, sp, #16
  91              		.cfi_def_cfa_offset 24
ARM GAS  /tmp/cchgvlIx.s 			page 3


  24:drivers/conf.c ****   I2C_InitTypeDef  I2C_InitStructure; 
  25:drivers/conf.c **** 
  26:drivers/conf.c ****   /*[> I2C configuration <]*/
  27:drivers/conf.c ****   I2C_InitStructure.I2C_Mode = I2C_Mode_I2C;
  92              		.loc 1 27 0
  93 0040 0023     		movs	r3, #0
  94 0042 ADF80430 		strh	r3, [sp, #4]	@ movhi
  28:drivers/conf.c ****   I2C_InitStructure.I2C_DutyCycle = I2C_DutyCycle_2;
  95              		.loc 1 28 0
  96 0046 4BF6FF73 		movw	r3, #49151
  97 004a ADF80630 		strh	r3, [sp, #6]	@ movhi
  29:drivers/conf.c ****   I2C_InitStructure.I2C_OwnAddress1 = I2C_SLAVE_ADDRESS;
  98              		.loc 1 29 0
  99 004e D023     		movs	r3, #208
 100 0050 ADF80830 		strh	r3, [sp, #8]	@ movhi
  30:drivers/conf.c ****   I2C_InitStructure.I2C_Ack = I2C_Ack_Enable;
 101              		.loc 1 30 0
 102 0054 4FF48063 		mov	r3, #1024
 103 0058 ADF80A30 		strh	r3, [sp, #10]	@ movhi
  31:drivers/conf.c ****   I2C_InitStructure.I2C_AcknowledgedAddress = I2C_AcknowledgedAddress_7bit;
 104              		.loc 1 31 0
 105 005c 4FF48043 		mov	r3, #16384
 106 0060 ADF80C30 		strh	r3, [sp, #12]	@ movhi
  32:drivers/conf.c ****   I2C_InitStructure.I2C_ClockSpeed = I2C_Speed;
 107              		.loc 1 32 0
 108 0064 04A9     		add	r1, sp, #16
 109 0066 064B     		ldr	r3, .L7
 110 0068 41F8103D 		str	r3, [r1, #-16]!
  33:drivers/conf.c ****   
  34:drivers/conf.c ****   /*[> Apply I2C configuration after enabling it <]*/
  35:drivers/conf.c ****   I2C_Init(MPU_I2Cx, &I2C_InitStructure);
 111              		.loc 1 35 0
 112 006c 054C     		ldr	r4, .L7+4
 113 006e 2046     		mov	r0, r4
 114 0070 FFF7FEFF 		bl	I2C_Init
 115              	.LVL2:
  36:drivers/conf.c ****   /*[> I2C Peripheral Enable <]*/
  37:drivers/conf.c ****   I2C_Cmd(MPU_I2Cx, ENABLE);
 116              		.loc 1 37 0
 117 0074 0121     		movs	r1, #1
 118 0076 2046     		mov	r0, r4
 119 0078 FFF7FEFF 		bl	I2C_Cmd
 120              	.LVL3:
  38:drivers/conf.c **** }
 121              		.loc 1 38 0
 122 007c 04B0     		add	sp, sp, #16
 123              		.cfi_def_cfa_offset 8
 124              		@ sp needed
 125 007e 10BD     		pop	{r4, pc}
 126              	.L8:
 127              		.align	2
 128              	.L7:
 129 0080 801A0600 		.word	400000
 130 0084 00580040 		.word	1073764352
 131              		.cfi_endproc
 132              	.LFE65:
 133              		.size	I2C_Conf, .-I2C_Conf
ARM GAS  /tmp/cchgvlIx.s 			page 4


 134              		.align	1
 135              		.global	RCC_Conf
 136              		.syntax unified
 137              		.thumb
 138              		.thumb_func
 139              		.fpu softvfp
 140              		.type	RCC_Conf, %function
 141              	RCC_Conf:
 142              	.LFB66:
  39:drivers/conf.c **** 
  40:drivers/conf.c **** void RCC_Conf(void)
  41:drivers/conf.c **** {
 143              		.loc 1 41 0
 144              		.cfi_startproc
 145              		@ args = 0, pretend = 0, frame = 0
 146              		@ frame_needed = 0, uses_anonymous_args = 0
 147 0088 10B5     		push	{r4, lr}
 148              		.cfi_def_cfa_offset 8
 149              		.cfi_offset 4, -8
 150              		.cfi_offset 14, -4
  42:drivers/conf.c ****   //复位RCC外部设备寄存器到默认值
  43:drivers/conf.c ****   RCC_DeInit();  
 151              		.loc 1 43 0
 152 008a FFF7FEFF 		bl	RCC_DeInit
 153              	.LVL4:
  44:drivers/conf.c ****   //打开外部高速晶振
  45:drivers/conf.c ****   RCC_HSEConfig(RCC_HSE_ON); 
 154              		.loc 1 45 0
 155 008e 4FF48030 		mov	r0, #65536
 156 0092 FFF7FEFF 		bl	RCC_HSEConfig
 157              	.LVL5:
  46:drivers/conf.c ****   //等待外部高速时钟准备好
  47:drivers/conf.c ****   HSEStartUpStatus = RCC_WaitForHSEStartUp(); 
 158              		.loc 1 47 0
 159 0096 FFF7FEFF 		bl	RCC_WaitForHSEStartUp
 160              	.LVL6:
 161 009a 224B     		ldr	r3, .L17
 162 009c 1870     		strb	r0, [r3]
  48:drivers/conf.c ****   if(HSEStartUpStatus == SUCCESS){
 163              		.loc 1 48 0
 164 009e 0128     		cmp	r0, #1
 165 00a0 11D0     		beq	.L16
 166              	.L10:
  49:drivers/conf.c ****   FLASH_PrefetchBufferCmd(FLASH_PrefetchBuffer_Enable);
  50:drivers/conf.c ****   FLASH_SetLatency(FLASH_Latency_2);
  51:drivers/conf.c ****   //配置AHB(HCLK)时钟=SYSCLK
  52:drivers/conf.c ****   RCC_HCLKConfig(RCC_SYSCLK_Div1);
  53:drivers/conf.c ****   //配置APB2(PCLK2)钟=AHB时钟
  54:drivers/conf.c ****   RCC_PCLK2Config(RCC_HCLK_Div1); 
  55:drivers/conf.c ****   //配置APB1(PCLK1)钟=AHB 1/2时钟
  56:drivers/conf.c ****   RCC_PCLK1Config(RCC_HCLK_Div2);  
  57:drivers/conf.c ****   //配置ADC时钟=PCLK2 1/4
  58:drivers/conf.c ****   RCC_ADCCLKConfig(RCC_PCLK2_Div4); 
  59:drivers/conf.c ****   //配置PLL时钟 == 外部高速晶体时钟*9
  60:drivers/conf.c ****   RCC_PLLConfig(RCC_PLLSource_HSE_Div1, RCC_PLLMul_9); 
  61:drivers/conf.c ****   //配置ADC时钟= PCLK2/4
  62:drivers/conf.c ****   RCC_ADCCLKConfig(RCC_PCLK2_Div4);
ARM GAS  /tmp/cchgvlIx.s 			page 5


  63:drivers/conf.c ****   //使能PLL时钟
  64:drivers/conf.c ****   RCC_PLLCmd(ENABLE);  
  65:drivers/conf.c ****   //等待PLL时钟就绪
  66:drivers/conf.c ****   while(RCC_GetFlagStatus(RCC_FLAG_PLLRDY) == RESET)  {
  67:drivers/conf.c ****   }
  68:drivers/conf.c ****   //配置系统时钟 = PLL时钟
  69:drivers/conf.c ****   RCC_SYSCLKConfig(RCC_SYSCLKSource_PLLCLK); 
  70:drivers/conf.c ****   //检查PLL时钟是否作为系统时钟
  71:drivers/conf.c ****   while(RCC_GetSYSCLKSource() != 0x08)  {
  72:drivers/conf.c ****   }
  73:drivers/conf.c ****   }
  74:drivers/conf.c ****   
  75:drivers/conf.c ****   //开启AFIO时钟
  76:drivers/conf.c ****   RCC_APB2PeriphClockCmd(RCC_APB2Periph_AFIO, ENABLE);
 167              		.loc 1 76 0
 168 00a2 0121     		movs	r1, #1
 169 00a4 0846     		mov	r0, r1
 170 00a6 FFF7FEFF 		bl	RCC_APB2PeriphClockCmd
 171              	.LVL7:
  77:drivers/conf.c ****   //Enable GPIO timer
  78:drivers/conf.c ****   RCC_APB2PeriphClockCmd(RCC_APB2Periph_GPIOA, ENABLE);
 172              		.loc 1 78 0
 173 00aa 0121     		movs	r1, #1
 174 00ac 0420     		movs	r0, #4
 175 00ae FFF7FEFF 		bl	RCC_APB2PeriphClockCmd
 176              	.LVL8:
  79:drivers/conf.c **** 
  80:drivers/conf.c ****   //Enable serial timer
  81:drivers/conf.c ****   RCC_APB1PeriphClockCmd(RCC_APB1Periph_USART2, ENABLE);
 177              		.loc 1 81 0
 178 00b2 0121     		movs	r1, #1
 179 00b4 4FF40030 		mov	r0, #131072
 180 00b8 FFF7FEFF 		bl	RCC_APB1PeriphClockCmd
 181              	.LVL9:
  82:drivers/conf.c **** 
  83:drivers/conf.c ****   RCC_APB1PeriphClockCmd(RCC_APB1Periph_TIM2, ENABLE); //配置RCC，使能TIM2
 182              		.loc 1 83 0
 183 00bc 0121     		movs	r1, #1
 184 00be 0846     		mov	r0, r1
 185 00c0 FFF7FEFF 		bl	RCC_APB1PeriphClockCmd
 186              	.LVL10:
 187 00c4 10BD     		pop	{r4, pc}
 188              	.L16:
  49:drivers/conf.c ****   FLASH_SetLatency(FLASH_Latency_2);
 189              		.loc 1 49 0
 190 00c6 1020     		movs	r0, #16
 191 00c8 FFF7FEFF 		bl	FLASH_PrefetchBufferCmd
 192              	.LVL11:
  50:drivers/conf.c ****   //配置AHB(HCLK)时钟=SYSCLK
 193              		.loc 1 50 0
 194 00cc 0220     		movs	r0, #2
 195 00ce FFF7FEFF 		bl	FLASH_SetLatency
 196              	.LVL12:
  52:drivers/conf.c ****   //配置APB2(PCLK2)钟=AHB时钟
 197              		.loc 1 52 0
 198 00d2 0020     		movs	r0, #0
 199 00d4 FFF7FEFF 		bl	RCC_HCLKConfig
ARM GAS  /tmp/cchgvlIx.s 			page 6


 200              	.LVL13:
  54:drivers/conf.c ****   //配置APB1(PCLK1)钟=AHB 1/2时钟
 201              		.loc 1 54 0
 202 00d8 0020     		movs	r0, #0
 203 00da FFF7FEFF 		bl	RCC_PCLK2Config
 204              	.LVL14:
  56:drivers/conf.c ****   //配置ADC时钟=PCLK2 1/4
 205              		.loc 1 56 0
 206 00de 4FF48060 		mov	r0, #1024
 207 00e2 FFF7FEFF 		bl	RCC_PCLK1Config
 208              	.LVL15:
  58:drivers/conf.c ****   //配置PLL时钟 == 外部高速晶体时钟*9
 209              		.loc 1 58 0
 210 00e6 4FF48040 		mov	r0, #16384
 211 00ea FFF7FEFF 		bl	RCC_ADCCLKConfig
 212              	.LVL16:
  60:drivers/conf.c ****   //配置ADC时钟= PCLK2/4
 213              		.loc 1 60 0
 214 00ee 4FF4E011 		mov	r1, #1835008
 215 00f2 4FF48030 		mov	r0, #65536
 216 00f6 FFF7FEFF 		bl	RCC_PLLConfig
 217              	.LVL17:
  62:drivers/conf.c ****   //使能PLL时钟
 218              		.loc 1 62 0
 219 00fa 4FF48040 		mov	r0, #16384
 220 00fe FFF7FEFF 		bl	RCC_ADCCLKConfig
 221              	.LVL18:
  64:drivers/conf.c ****   //等待PLL时钟就绪
 222              		.loc 1 64 0
 223 0102 0120     		movs	r0, #1
 224 0104 FFF7FEFF 		bl	RCC_PLLCmd
 225              	.LVL19:
  66:drivers/conf.c ****   }
 226              		.loc 1 66 0
 227 0108 3924     		movs	r4, #57
 228              	.L11:
  66:drivers/conf.c ****   }
 229              		.loc 1 66 0 is_stmt 0 discriminator 1
 230 010a 2046     		mov	r0, r4
 231 010c FFF7FEFF 		bl	RCC_GetFlagStatus
 232              	.LVL20:
 233 0110 0028     		cmp	r0, #0
 234 0112 FAD0     		beq	.L11
  69:drivers/conf.c ****   //检查PLL时钟是否作为系统时钟
 235              		.loc 1 69 0 is_stmt 1
 236 0114 0220     		movs	r0, #2
 237 0116 FFF7FEFF 		bl	RCC_SYSCLKConfig
 238              	.LVL21:
 239              	.L12:
  71:drivers/conf.c ****   }
 240              		.loc 1 71 0 discriminator 1
 241 011a FFF7FEFF 		bl	RCC_GetSYSCLKSource
 242              	.LVL22:
 243 011e 0828     		cmp	r0, #8
 244 0120 FBD1     		bne	.L12
 245 0122 BEE7     		b	.L10
 246              	.L18:
ARM GAS  /tmp/cchgvlIx.s 			page 7


 247              		.align	2
 248              	.L17:
 249 0124 00000000 		.word	.LANCHOR0
 250              		.cfi_endproc
 251              	.LFE66:
 252              		.size	RCC_Conf, .-RCC_Conf
 253              		.align	1
 254              		.global	TIMER_Conf
 255              		.syntax unified
 256              		.thumb
 257              		.thumb_func
 258              		.fpu softvfp
 259              		.type	TIMER_Conf, %function
 260              	TIMER_Conf:
 261              	.LFB67:
  84:drivers/conf.c **** 
  85:drivers/conf.c **** }
  86:drivers/conf.c **** 
  87:drivers/conf.c **** // 定时器设置 
  88:drivers/conf.c **** void TIMER_Conf(void)
  89:drivers/conf.c **** {
 262              		.loc 1 89 0
 263              		.cfi_startproc
 264              		@ args = 0, pretend = 0, frame = 16
 265              		@ frame_needed = 0, uses_anonymous_args = 0
 266 0128 00B5     		push	{lr}
 267              		.cfi_def_cfa_offset 4
 268              		.cfi_offset 14, -4
 269 012a 85B0     		sub	sp, sp, #20
 270              		.cfi_def_cfa_offset 24
  90:drivers/conf.c ****   TIM_TimeBaseInitTypeDef  TIM_TimeBaseStructure;
  91:drivers/conf.c ****   
  92:drivers/conf.c ****   TIM_TimeBaseStructure.TIM_Prescaler = 71;  //时钟预分频数 例如:时钟频率=72/(时钟预
 271              		.loc 1 92 0
 272 012c 4723     		movs	r3, #71
 273 012e ADF80430 		strh	r3, [sp, #4]	@ movhi
  93:drivers/conf.c ****   TIM_TimeBaseStructure.TIM_CounterMode = TIM_CounterMode_Up; ////定时器模式 向上计数  
 274              		.loc 1 93 0
 275 0132 0023     		movs	r3, #0
 276 0134 ADF80630 		strh	r3, [sp, #6]	@ movhi
  94:drivers/conf.c ****   TIM_TimeBaseStructure.TIM_Period = 0xffff;//自动重装载寄存器周期的值(定时时间)累
 277              		.loc 1 94 0
 278 0138 4FF6FF72 		movw	r2, #65535
 279 013c ADF80820 		strh	r2, [sp, #8]	@ movhi
  95:drivers/conf.c ****   TIM_TimeBaseStructure.TIM_ClockDivision = 0; ////时间分割值  
 280              		.loc 1 95 0
 281 0140 ADF80A30 		strh	r3, [sp, #10]	@ movhi
  96:drivers/conf.c ****   TIM_TimeBaseStructure.TIM_RepetitionCounter = 0;
 282              		.loc 1 96 0
 283 0144 8DF80C30 		strb	r3, [sp, #12]
  97:drivers/conf.c ****   TIM_TimeBaseInit(TIM2, &TIM_TimeBaseStructure); //初始化定时器2
 284              		.loc 1 97 0
 285 0148 01A9     		add	r1, sp, #4
 286 014a 4FF08040 		mov	r0, #1073741824
 287 014e FFF7FEFF 		bl	TIM_TimeBaseInit
 288              	.LVL23:
  98:drivers/conf.c ****   TIM_ClearFlag(TIM2, TIM_FLAG_Update);
ARM GAS  /tmp/cchgvlIx.s 			page 8


 289              		.loc 1 98 0
 290 0152 0121     		movs	r1, #1
 291 0154 4FF08040 		mov	r0, #1073741824
 292 0158 FFF7FEFF 		bl	TIM_ClearFlag
 293              	.LVL24:
  99:drivers/conf.c ****   TIM_ITConfig(TIM2, TIM_IT_Update, ENABLE); //打开中断 溢出中断  
 294              		.loc 1 99 0
 295 015c 0122     		movs	r2, #1
 296 015e 1146     		mov	r1, r2
 297 0160 4FF08040 		mov	r0, #1073741824
 298 0164 FFF7FEFF 		bl	TIM_ITConfig
 299              	.LVL25:
 100:drivers/conf.c **** 
 101:drivers/conf.c **** }
 300              		.loc 1 101 0
 301 0168 05B0     		add	sp, sp, #20
 302              		.cfi_def_cfa_offset 4
 303              		@ sp needed
 304 016a 5DF804FB 		ldr	pc, [sp], #4
 305              		.cfi_endproc
 306              	.LFE67:
 307              		.size	TIMER_Conf, .-TIMER_Conf
 308              		.align	1
 309              		.global	GPIO_Conf
 310              		.syntax unified
 311              		.thumb
 312              		.thumb_func
 313              		.fpu softvfp
 314              		.type	GPIO_Conf, %function
 315              	GPIO_Conf:
 316              	.LFB68:
 102:drivers/conf.c **** 
 103:drivers/conf.c **** 
 104:drivers/conf.c **** 
 105:drivers/conf.c **** void GPIO_Conf(void)
 106:drivers/conf.c **** {
 317              		.loc 1 106 0
 318              		.cfi_startproc
 319              		@ args = 0, pretend = 0, frame = 8
 320              		@ frame_needed = 0, uses_anonymous_args = 0
 321 016e 30B5     		push	{r4, r5, lr}
 322              		.cfi_def_cfa_offset 12
 323              		.cfi_offset 4, -12
 324              		.cfi_offset 5, -8
 325              		.cfi_offset 14, -4
 326 0170 83B0     		sub	sp, sp, #12
 327              		.cfi_def_cfa_offset 24
 107:drivers/conf.c ****   GPIO_InitTypeDef GPIO_InitStructure;
 108:drivers/conf.c ****   
 109:drivers/conf.c ****   //USARTx_Tx为复合推挽输出
 110:drivers/conf.c ****   GPIO_InitStructure.GPIO_Pin = GPIO_TxPin;
 328              		.loc 1 110 0
 329 0172 0425     		movs	r5, #4
 330 0174 ADF80450 		strh	r5, [sp, #4]	@ movhi
 111:drivers/conf.c ****   GPIO_InitStructure.GPIO_Speed = GPIO_Speed_50MHz;
 331              		.loc 1 111 0
 332 0178 0323     		movs	r3, #3
ARM GAS  /tmp/cchgvlIx.s 			page 9


 333 017a 8DF80630 		strb	r3, [sp, #6]
 112:drivers/conf.c ****   GPIO_InitStructure.GPIO_Mode = GPIO_Mode_AF_PP;
 334              		.loc 1 112 0
 335 017e 1823     		movs	r3, #24
 336 0180 8DF80730 		strb	r3, [sp, #7]
 113:drivers/conf.c ****   GPIO_Init(GPIOA, &GPIO_InitStructure);
 337              		.loc 1 113 0
 338 0184 134C     		ldr	r4, .L23
 339 0186 0DEB0501 		add	r1, sp, r5
 340 018a 2046     		mov	r0, r4
 341 018c FFF7FEFF 		bl	GPIO_Init
 342              	.LVL26:
 114:drivers/conf.c ****   
 115:drivers/conf.c ****   //USARTx_Rx 为浮空输入
 116:drivers/conf.c ****   GPIO_InitStructure.GPIO_Pin = GPIO_RxPin;
 343              		.loc 1 116 0
 344 0190 0823     		movs	r3, #8
 345 0192 ADF80430 		strh	r3, [sp, #4]	@ movhi
 117:drivers/conf.c ****   GPIO_InitStructure.GPIO_Mode = GPIO_Mode_IN_FLOATING;
 346              		.loc 1 117 0
 347 0196 8DF80750 		strb	r5, [sp, #7]
 118:drivers/conf.c ****   GPIO_Init(GPIOA, &GPIO_InitStructure);
 348              		.loc 1 118 0
 349 019a 0DEB0501 		add	r1, sp, r5
 350 019e 2046     		mov	r0, r4
 351 01a0 FFF7FEFF 		bl	GPIO_Init
 352              	.LVL27:
 119:drivers/conf.c ****   
 120:drivers/conf.c ****   //HC-SR04 
 121:drivers/conf.c ****   GPIO_InitStructure.GPIO_Pin = TRIG_Pin; 
 353              		.loc 1 121 0
 354 01a4 0223     		movs	r3, #2
 355 01a6 ADF80430 		strh	r3, [sp, #4]	@ movhi
 122:drivers/conf.c ****   GPIO_InitStructure.GPIO_Mode = GPIO_Mode_Out_PP;
 356              		.loc 1 122 0
 357 01aa 1023     		movs	r3, #16
 358 01ac 8DF80730 		strb	r3, [sp, #7]
 123:drivers/conf.c ****   GPIO_Init(GPIOA, &GPIO_InitStructure);
 359              		.loc 1 123 0
 360 01b0 0DEB0501 		add	r1, sp, r5
 361 01b4 2046     		mov	r0, r4
 362 01b6 FFF7FEFF 		bl	GPIO_Init
 363              	.LVL28:
 124:drivers/conf.c ****   GPIO_InitStructure.GPIO_Pin = ECHO_Pin; 
 364              		.loc 1 124 0
 365 01ba 0123     		movs	r3, #1
 366 01bc ADF80430 		strh	r3, [sp, #4]	@ movhi
 125:drivers/conf.c ****   GPIO_InitStructure.GPIO_Mode = GPIO_Mode_IN_FLOATING;
 367              		.loc 1 125 0
 368 01c0 8DF80750 		strb	r5, [sp, #7]
 126:drivers/conf.c ****   GPIO_Init(GPIOA, &GPIO_InitStructure);
 369              		.loc 1 126 0
 370 01c4 0DEB0501 		add	r1, sp, r5
 371 01c8 2046     		mov	r0, r4
 372 01ca FFF7FEFF 		bl	GPIO_Init
 373              	.LVL29:
 127:drivers/conf.c **** }
ARM GAS  /tmp/cchgvlIx.s 			page 10


 374              		.loc 1 127 0
 375 01ce 03B0     		add	sp, sp, #12
 376              		.cfi_def_cfa_offset 12
 377              		@ sp needed
 378 01d0 30BD     		pop	{r4, r5, pc}
 379              	.L24:
 380 01d2 00BF     		.align	2
 381              	.L23:
 382 01d4 00080140 		.word	1073809408
 383              		.cfi_endproc
 384              	.LFE68:
 385              		.size	GPIO_Conf, .-GPIO_Conf
 386              		.align	1
 387              		.global	NVIC_Conf
 388              		.syntax unified
 389              		.thumb
 390              		.thumb_func
 391              		.fpu softvfp
 392              		.type	NVIC_Conf, %function
 393              	NVIC_Conf:
 394              	.LFB69:
 128:drivers/conf.c **** 
 129:drivers/conf.c **** // 系统中断控制
 130:drivers/conf.c **** void NVIC_Conf(void)
 131:drivers/conf.c **** { 
 395              		.loc 1 131 0
 396              		.cfi_startproc
 397              		@ args = 0, pretend = 0, frame = 8
 398              		@ frame_needed = 0, uses_anonymous_args = 0
 399 01d8 00B5     		push	{lr}
 400              		.cfi_def_cfa_offset 4
 401              		.cfi_offset 14, -4
 402 01da 83B0     		sub	sp, sp, #12
 403              		.cfi_def_cfa_offset 16
 132:drivers/conf.c ****   NVIC_InitTypeDef NVIC_InitStructure;
 133:drivers/conf.c ****   // 设置中断向量表位置 FLASH:0x08000000
 134:drivers/conf.c ****   NVIC_SetVectorTable(NVIC_VectTab_FLASH, 0x0); 
 404              		.loc 1 134 0
 405 01dc 0021     		movs	r1, #0
 406 01de 4FF00060 		mov	r0, #134217728
 407 01e2 FFF7FEFF 		bl	NVIC_SetVectorTable
 408              	.LVL30:
 135:drivers/conf.c **** 
 136:drivers/conf.c ****   // 打开TIM2中断
 137:drivers/conf.c ****   NVIC_InitStructure.NVIC_IRQChannel = TIM2_IRQn;
 409              		.loc 1 137 0
 410 01e6 1C23     		movs	r3, #28
 411 01e8 8DF80430 		strb	r3, [sp, #4]
 138:drivers/conf.c ****   NVIC_InitStructure.NVIC_IRQChannelPreemptionPriority = 0;
 412              		.loc 1 138 0
 413 01ec 0023     		movs	r3, #0
 414 01ee 8DF80530 		strb	r3, [sp, #5]
 139:drivers/conf.c ****   NVIC_InitStructure.NVIC_IRQChannelSubPriority = 0;
 415              		.loc 1 139 0
 416 01f2 8DF80630 		strb	r3, [sp, #6]
 140:drivers/conf.c ****   NVIC_InitStructure.NVIC_IRQChannelCmd = ENABLE;
 417              		.loc 1 140 0
ARM GAS  /tmp/cchgvlIx.s 			page 11


 418 01f6 0123     		movs	r3, #1
 419 01f8 8DF80730 		strb	r3, [sp, #7]
 141:drivers/conf.c ****   NVIC_Init(&NVIC_InitStructure);
 420              		.loc 1 141 0
 421 01fc 01A8     		add	r0, sp, #4
 422 01fe FFF7FEFF 		bl	NVIC_Init
 423              	.LVL31:
 142:drivers/conf.c **** }
 424              		.loc 1 142 0
 425 0202 03B0     		add	sp, sp, #12
 426              		.cfi_def_cfa_offset 4
 427              		@ sp needed
 428 0204 5DF804FB 		ldr	pc, [sp], #4
 429              		.cfi_endproc
 430              	.LFE69:
 431              		.size	NVIC_Conf, .-NVIC_Conf
 432              		.global	HSEStartUpStatus
 433              		.bss
 434              		.set	.LANCHOR0,. + 0
 435              		.type	HSEStartUpStatus, %object
 436              		.size	HSEStartUpStatus, 1
 437              	HSEStartUpStatus:
 438 0000 00       		.space	1
 439              		.text
 440              	.Letext0:
 441              		.file 2 "/usr/arm-none-eabi/include/machine/_default_types.h"
 442              		.file 3 "/usr/arm-none-eabi/include/sys/_stdint.h"
 443              		.file 4 "cmsis/core_cm3.h"
 444              		.file 5 "lib/inc/system_stm32f10x.h"
 445              		.file 6 "lib/inc/stm32f10x.h"
 446              		.file 7 "lib/inc/stm32f10x_i2c.h"
 447              		.file 8 "lib/inc/stm32f10x_tim.h"
 448              		.file 9 "lib/inc/stm32f10x_gpio.h"
 449              		.file 10 "lib/inc/stm32f10x_usart.h"
 450              		.file 11 "lib/inc/misc.h"
 451              		.file 12 "/usr/arm-none-eabi/include/sys/lock.h"
 452              		.file 13 "/usr/arm-none-eabi/include/sys/_types.h"
 453              		.file 14 "/usr/lib/gcc/arm-none-eabi/6.1.1/include/stddef.h"
 454              		.file 15 "/usr/arm-none-eabi/include/sys/reent.h"
 455              		.file 16 "/usr/arm-none-eabi/include/stdlib.h"
 456              		.file 17 "/usr/arm-none-eabi/include/math.h"
 457              		.file 18 "/usr/arm-none-eabi/include/sys/errno.h"
 458              		.file 19 "lib/inc/stm32f10x_rcc.h"
 459              		.file 20 "lib/inc/stm32f10x_flash.h"
 460              		.section	.debug_info,"",%progbits
 461              	.Ldebug_info0:
 462 0000 44160000 		.4byte	0x1644
 463 0004 0400     		.2byte	0x4
 464 0006 00000000 		.4byte	.Ldebug_abbrev0
 465 000a 04       		.byte	0x4
 466 000b 01       		.uleb128 0x1
 467 000c 81070000 		.4byte	.LASF321
 468 0010 0C       		.byte	0xc
 469 0011 DE040000 		.4byte	.LASF322
 470 0015 2A010000 		.4byte	.LASF323
 471 0019 00000000 		.4byte	.Ltext0
 472 001d 08020000 		.4byte	.Letext0-.Ltext0
ARM GAS  /tmp/cchgvlIx.s 			page 12


 473 0021 00000000 		.4byte	.Ldebug_line0
 474 0025 02       		.uleb128 0x2
 475 0026 7B020000 		.4byte	.LASF274
 476 002a 01       		.byte	0x1
 477 002b 68010000 		.4byte	0x168
 478 002f 06       		.byte	0x6
 479 0030 A7       		.byte	0xa7
 480 0031 68010000 		.4byte	0x168
 481 0035 03       		.uleb128 0x3
 482 0036 34060000 		.4byte	.LASF0
 483 003a 72       		.sleb128 -14
 484 003b 03       		.uleb128 0x3
 485 003c D2060000 		.4byte	.LASF1
 486 0040 74       		.sleb128 -12
 487 0041 03       		.uleb128 0x3
 488 0042 ED070000 		.4byte	.LASF2
 489 0046 75       		.sleb128 -11
 490 0047 03       		.uleb128 0x3
 491 0048 65040000 		.4byte	.LASF3
 492 004c 76       		.sleb128 -10
 493 004d 03       		.uleb128 0x3
 494 004e 8D080000 		.4byte	.LASF4
 495 0052 7B       		.sleb128 -5
 496 0053 03       		.uleb128 0x3
 497 0054 770C0000 		.4byte	.LASF5
 498 0058 7C       		.sleb128 -4
 499 0059 03       		.uleb128 0x3
 500 005a A30E0000 		.4byte	.LASF6
 501 005e 7E       		.sleb128 -2
 502 005f 03       		.uleb128 0x3
 503 0060 C8020000 		.4byte	.LASF7
 504 0064 7F       		.sleb128 -1
 505 0065 04       		.uleb128 0x4
 506 0066 77060000 		.4byte	.LASF8
 507 006a 00       		.byte	0
 508 006b 04       		.uleb128 0x4
 509 006c 240C0000 		.4byte	.LASF9
 510 0070 01       		.byte	0x1
 511 0071 04       		.uleb128 0x4
 512 0072 6F020000 		.4byte	.LASF10
 513 0076 02       		.byte	0x2
 514 0077 04       		.uleb128 0x4
 515 0078 170F0000 		.4byte	.LASF11
 516 007c 03       		.byte	0x3
 517 007d 04       		.uleb128 0x4
 518 007e E7000000 		.4byte	.LASF12
 519 0082 04       		.byte	0x4
 520 0083 04       		.uleb128 0x4
 521 0084 FE0C0000 		.4byte	.LASF13
 522 0088 05       		.byte	0x5
 523 0089 04       		.uleb128 0x4
 524 008a 400C0000 		.4byte	.LASF14
 525 008e 06       		.byte	0x6
 526 008f 04       		.uleb128 0x4
 527 0090 10060000 		.4byte	.LASF15
 528 0094 07       		.byte	0x7
 529 0095 04       		.uleb128 0x4
ARM GAS  /tmp/cchgvlIx.s 			page 13


 530 0096 00000000 		.4byte	.LASF16
 531 009a 08       		.byte	0x8
 532 009b 04       		.uleb128 0x4
 533 009c 980E0000 		.4byte	.LASF17
 534 00a0 09       		.byte	0x9
 535 00a1 04       		.uleb128 0x4
 536 00a2 07090000 		.4byte	.LASF18
 537 00a6 0A       		.byte	0xa
 538 00a7 04       		.uleb128 0x4
 539 00a8 28040000 		.4byte	.LASF19
 540 00ac 0B       		.byte	0xb
 541 00ad 04       		.uleb128 0x4
 542 00ae 7C0D0000 		.4byte	.LASF20
 543 00b2 0C       		.byte	0xc
 544 00b3 04       		.uleb128 0x4
 545 00b4 C30C0000 		.4byte	.LASF21
 546 00b8 0D       		.byte	0xd
 547 00b9 04       		.uleb128 0x4
 548 00ba E8060000 		.4byte	.LASF22
 549 00be 0E       		.byte	0xe
 550 00bf 04       		.uleb128 0x4
 551 00c0 90000000 		.4byte	.LASF23
 552 00c4 0F       		.byte	0xf
 553 00c5 04       		.uleb128 0x4
 554 00c6 DD0E0000 		.4byte	.LASF24
 555 00ca 10       		.byte	0x10
 556 00cb 04       		.uleb128 0x4
 557 00cc 59090000 		.4byte	.LASF25
 558 00d0 11       		.byte	0x11
 559 00d1 04       		.uleb128 0x4
 560 00d2 3F0D0000 		.4byte	.LASF26
 561 00d6 12       		.byte	0x12
 562 00d7 04       		.uleb128 0x4
 563 00d8 7B040000 		.4byte	.LASF27
 564 00dc 13       		.byte	0x13
 565 00dd 04       		.uleb128 0x4
 566 00de 9F0C0000 		.4byte	.LASF28
 567 00e2 14       		.byte	0x14
 568 00e3 04       		.uleb128 0x4
 569 00e4 E50D0000 		.4byte	.LASF29
 570 00e8 15       		.byte	0x15
 571 00e9 04       		.uleb128 0x4
 572 00ea 18070000 		.4byte	.LASF30
 573 00ee 16       		.byte	0x16
 574 00ef 04       		.uleb128 0x4
 575 00f0 0D0E0000 		.4byte	.LASF31
 576 00f4 17       		.byte	0x17
 577 00f5 04       		.uleb128 0x4
 578 00f6 3B040000 		.4byte	.LASF32
 579 00fa 18       		.byte	0x18
 580 00fb 04       		.uleb128 0x4
 581 00fc D00D0000 		.4byte	.LASF33
 582 0100 19       		.byte	0x19
 583 0101 04       		.uleb128 0x4
 584 0102 540A0000 		.4byte	.LASF34
 585 0106 1A       		.byte	0x1a
 586 0107 04       		.uleb128 0x4
ARM GAS  /tmp/cchgvlIx.s 			page 14


 587 0108 03060000 		.4byte	.LASF35
 588 010c 1B       		.byte	0x1b
 589 010d 04       		.uleb128 0x4
 590 010e 12010000 		.4byte	.LASF36
 591 0112 1C       		.byte	0x1c
 592 0113 04       		.uleb128 0x4
 593 0114 DB0A0000 		.4byte	.LASF37
 594 0118 1D       		.byte	0x1d
 595 0119 04       		.uleb128 0x4
 596 011a 3B050000 		.4byte	.LASF38
 597 011e 1E       		.byte	0x1e
 598 011f 04       		.uleb128 0x4
 599 0120 AB050000 		.4byte	.LASF39
 600 0124 1F       		.byte	0x1f
 601 0125 04       		.uleb128 0x4
 602 0126 F8030000 		.4byte	.LASF40
 603 012a 20       		.byte	0x20
 604 012b 04       		.uleb128 0x4
 605 012c 1B090000 		.4byte	.LASF41
 606 0130 21       		.byte	0x21
 607 0131 04       		.uleb128 0x4
 608 0132 DA000000 		.4byte	.LASF42
 609 0136 22       		.byte	0x22
 610 0137 04       		.uleb128 0x4
 611 0138 55080000 		.4byte	.LASF43
 612 013c 23       		.byte	0x23
 613 013d 04       		.uleb128 0x4
 614 013e 92010000 		.4byte	.LASF44
 615 0142 24       		.byte	0x24
 616 0143 04       		.uleb128 0x4
 617 0144 F50A0000 		.4byte	.LASF45
 618 0148 25       		.byte	0x25
 619 0149 04       		.uleb128 0x4
 620 014a 45050000 		.4byte	.LASF46
 621 014e 26       		.byte	0x26
 622 014f 04       		.uleb128 0x4
 623 0150 E7020000 		.4byte	.LASF47
 624 0154 27       		.byte	0x27
 625 0155 04       		.uleb128 0x4
 626 0156 980A0000 		.4byte	.LASF48
 627 015a 28       		.byte	0x28
 628 015b 04       		.uleb128 0x4
 629 015c F3080000 		.4byte	.LASF49
 630 0160 29       		.byte	0x29
 631 0161 04       		.uleb128 0x4
 632 0162 1B050000 		.4byte	.LASF50
 633 0166 2A       		.byte	0x2a
 634 0167 00       		.byte	0
 635 0168 05       		.uleb128 0x5
 636 0169 01       		.byte	0x1
 637 016a 06       		.byte	0x6
 638 016b 11030000 		.4byte	.LASF51
 639 016f 06       		.uleb128 0x6
 640 0170 88010000 		.4byte	.LASF54
 641 0174 02       		.byte	0x2
 642 0175 1D       		.byte	0x1d
 643 0176 7A010000 		.4byte	0x17a
ARM GAS  /tmp/cchgvlIx.s 			page 15


 644 017a 05       		.uleb128 0x5
 645 017b 01       		.byte	0x1
 646 017c 08       		.byte	0x8
 647 017d 83030000 		.4byte	.LASF52
 648 0181 05       		.uleb128 0x5
 649 0182 02       		.byte	0x2
 650 0183 05       		.byte	0x5
 651 0184 F40C0000 		.4byte	.LASF53
 652 0188 06       		.uleb128 0x6
 653 0189 D3040000 		.4byte	.LASF55
 654 018d 02       		.byte	0x2
 655 018e 2B       		.byte	0x2b
 656 018f 93010000 		.4byte	0x193
 657 0193 05       		.uleb128 0x5
 658 0194 02       		.byte	0x2
 659 0195 07       		.byte	0x7
 660 0196 480E0000 		.4byte	.LASF56
 661 019a 06       		.uleb128 0x6
 662 019b C00E0000 		.4byte	.LASF57
 663 019f 02       		.byte	0x2
 664 01a0 3F       		.byte	0x3f
 665 01a1 A5010000 		.4byte	0x1a5
 666 01a5 05       		.uleb128 0x5
 667 01a6 04       		.byte	0x4
 668 01a7 05       		.byte	0x5
 669 01a8 08020000 		.4byte	.LASF58
 670 01ac 06       		.uleb128 0x6
 671 01ad 12080000 		.4byte	.LASF59
 672 01b1 02       		.byte	0x2
 673 01b2 41       		.byte	0x41
 674 01b3 B7010000 		.4byte	0x1b7
 675 01b7 05       		.uleb128 0x5
 676 01b8 04       		.byte	0x4
 677 01b9 07       		.byte	0x7
 678 01ba 91060000 		.4byte	.LASF60
 679 01be 05       		.uleb128 0x5
 680 01bf 08       		.byte	0x8
 681 01c0 05       		.byte	0x5
 682 01c1 40080000 		.4byte	.LASF61
 683 01c5 05       		.uleb128 0x5
 684 01c6 08       		.byte	0x8
 685 01c7 07       		.byte	0x7
 686 01c8 A70A0000 		.4byte	.LASF62
 687 01cc 07       		.uleb128 0x7
 688 01cd 04       		.byte	0x4
 689 01ce 05       		.byte	0x5
 690 01cf 696E7400 		.ascii	"int\000"
 691 01d3 05       		.uleb128 0x5
 692 01d4 04       		.byte	0x4
 693 01d5 07       		.byte	0x7
 694 01d6 28090000 		.4byte	.LASF63
 695 01da 06       		.uleb128 0x6
 696 01db 1D030000 		.4byte	.LASF64
 697 01df 03       		.byte	0x3
 698 01e0 18       		.byte	0x18
 699 01e1 6F010000 		.4byte	0x16f
 700 01e5 06       		.uleb128 0x6
ARM GAS  /tmp/cchgvlIx.s 			page 16


 701 01e6 BE0A0000 		.4byte	.LASF65
 702 01ea 03       		.byte	0x3
 703 01eb 24       		.byte	0x24
 704 01ec 88010000 		.4byte	0x188
 705 01f0 08       		.uleb128 0x8
 706 01f1 E5010000 		.4byte	0x1e5
 707 01f5 06       		.uleb128 0x6
 708 01f6 6E000000 		.4byte	.LASF66
 709 01fa 03       		.byte	0x3
 710 01fb 2C       		.byte	0x2c
 711 01fc 9A010000 		.4byte	0x19a
 712 0200 08       		.uleb128 0x8
 713 0201 F5010000 		.4byte	0x1f5
 714 0205 06       		.uleb128 0x6
 715 0206 C70D0000 		.4byte	.LASF67
 716 020a 03       		.byte	0x3
 717 020b 30       		.byte	0x30
 718 020c AC010000 		.4byte	0x1ac
 719 0210 08       		.uleb128 0x8
 720 0211 05020000 		.4byte	0x205
 721 0215 05       		.uleb128 0x5
 722 0216 04       		.byte	0x4
 723 0217 07       		.byte	0x7
 724 0218 33000000 		.4byte	.LASF68
 725 021c 09       		.uleb128 0x9
 726 021d E0080000 		.4byte	.LASF69
 727 0221 04       		.byte	0x4
 728 0222 9606     		.2byte	0x696
 729 0224 00020000 		.4byte	0x200
 730 0228 0A       		.uleb128 0xa
 731 0229 08070000 		.4byte	.LASF70
 732 022d 05       		.byte	0x5
 733 022e 35       		.byte	0x35
 734 022f 05020000 		.4byte	0x205
 735 0233 0B       		.uleb128 0xb
 736 0234 01       		.byte	0x1
 737 0235 7A010000 		.4byte	0x17a
 738 0239 06       		.byte	0x6
 739 023a 0702     		.2byte	0x207
 740 023c 4D020000 		.4byte	0x24d
 741 0240 04       		.uleb128 0x4
 742 0241 FC0B0000 		.4byte	.LASF71
 743 0245 00       		.byte	0
 744 0246 0C       		.uleb128 0xc
 745 0247 53455400 		.ascii	"SET\000"
 746 024b 01       		.byte	0x1
 747 024c 00       		.byte	0
 748 024d 0B       		.uleb128 0xb
 749 024e 01       		.byte	0x1
 750 024f 7A010000 		.4byte	0x17a
 751 0253 06       		.byte	0x6
 752 0254 0902     		.2byte	0x209
 753 0256 67020000 		.4byte	0x267
 754 025a 04       		.uleb128 0x4
 755 025b D8090000 		.4byte	.LASF72
 756 025f 00       		.byte	0
 757 0260 04       		.uleb128 0x4
ARM GAS  /tmp/cchgvlIx.s 			page 17


 758 0261 4B0D0000 		.4byte	.LASF73
 759 0265 01       		.byte	0x1
 760 0266 00       		.byte	0
 761 0267 0D       		.uleb128 0xd
 762 0268 880A0000 		.4byte	.LASF74
 763 026c 06       		.byte	0x6
 764 026d 0902     		.2byte	0x209
 765 026f 4D020000 		.4byte	0x24d
 766 0273 0B       		.uleb128 0xb
 767 0274 01       		.byte	0x1
 768 0275 7A010000 		.4byte	0x17a
 769 0279 06       		.byte	0x6
 770 027a 0C02     		.2byte	0x20c
 771 027c 8D020000 		.4byte	0x28d
 772 0280 04       		.uleb128 0x4
 773 0281 65070000 		.4byte	.LASF75
 774 0285 00       		.byte	0
 775 0286 04       		.uleb128 0x4
 776 0287 8C0B0000 		.4byte	.LASF76
 777 028b 01       		.byte	0x1
 778 028c 00       		.byte	0
 779 028d 0D       		.uleb128 0xd
 780 028e 1E0A0000 		.4byte	.LASF77
 781 0292 06       		.byte	0x6
 782 0293 0C02     		.2byte	0x20c
 783 0295 73020000 		.4byte	0x273
 784 0299 0E       		.uleb128 0xe
 785 029a 1C       		.byte	0x1c
 786 029b 06       		.byte	0x6
 787 029c E903     		.2byte	0x3e9
 788 029e FE020000 		.4byte	0x2fe
 789 02a2 0F       		.uleb128 0xf
 790 02a3 43524C00 		.ascii	"CRL\000"
 791 02a7 06       		.byte	0x6
 792 02a8 EB03     		.2byte	0x3eb
 793 02aa 10020000 		.4byte	0x210
 794 02ae 00       		.byte	0
 795 02af 0F       		.uleb128 0xf
 796 02b0 43524800 		.ascii	"CRH\000"
 797 02b4 06       		.byte	0x6
 798 02b5 EC03     		.2byte	0x3ec
 799 02b7 10020000 		.4byte	0x210
 800 02bb 04       		.byte	0x4
 801 02bc 0F       		.uleb128 0xf
 802 02bd 49445200 		.ascii	"IDR\000"
 803 02c1 06       		.byte	0x6
 804 02c2 ED03     		.2byte	0x3ed
 805 02c4 10020000 		.4byte	0x210
 806 02c8 08       		.byte	0x8
 807 02c9 0F       		.uleb128 0xf
 808 02ca 4F445200 		.ascii	"ODR\000"
 809 02ce 06       		.byte	0x6
 810 02cf EE03     		.2byte	0x3ee
 811 02d1 10020000 		.4byte	0x210
 812 02d5 0C       		.byte	0xc
 813 02d6 10       		.uleb128 0x10
 814 02d7 5C0D0000 		.4byte	.LASF78
ARM GAS  /tmp/cchgvlIx.s 			page 18


 815 02db 06       		.byte	0x6
 816 02dc EF03     		.2byte	0x3ef
 817 02de 10020000 		.4byte	0x210
 818 02e2 10       		.byte	0x10
 819 02e3 0F       		.uleb128 0xf
 820 02e4 42525200 		.ascii	"BRR\000"
 821 02e8 06       		.byte	0x6
 822 02e9 F003     		.2byte	0x3f0
 823 02eb 10020000 		.4byte	0x210
 824 02ef 14       		.byte	0x14
 825 02f0 10       		.uleb128 0x10
 826 02f1 60070000 		.4byte	.LASF79
 827 02f5 06       		.byte	0x6
 828 02f6 F103     		.2byte	0x3f1
 829 02f8 10020000 		.4byte	0x210
 830 02fc 18       		.byte	0x18
 831 02fd 00       		.byte	0
 832 02fe 0D       		.uleb128 0xd
 833 02ff 610D0000 		.4byte	.LASF80
 834 0303 06       		.byte	0x6
 835 0304 F203     		.2byte	0x3f2
 836 0306 99020000 		.4byte	0x299
 837 030a 0E       		.uleb128 0xe
 838 030b 24       		.byte	0x24
 839 030c 06       		.byte	0x6
 840 030d 0404     		.2byte	0x404
 841 030f FD030000 		.4byte	0x3fd
 842 0313 0F       		.uleb128 0xf
 843 0314 43523100 		.ascii	"CR1\000"
 844 0318 06       		.byte	0x6
 845 0319 0604     		.2byte	0x406
 846 031b F0010000 		.4byte	0x1f0
 847 031f 00       		.byte	0
 848 0320 10       		.uleb128 0x10
 849 0321 6F030000 		.4byte	.LASF81
 850 0325 06       		.byte	0x6
 851 0326 0704     		.2byte	0x407
 852 0328 E5010000 		.4byte	0x1e5
 853 032c 02       		.byte	0x2
 854 032d 0F       		.uleb128 0xf
 855 032e 43523200 		.ascii	"CR2\000"
 856 0332 06       		.byte	0x6
 857 0333 0804     		.2byte	0x408
 858 0335 F0010000 		.4byte	0x1f0
 859 0339 04       		.byte	0x4
 860 033a 10       		.uleb128 0x10
 861 033b 79030000 		.4byte	.LASF82
 862 033f 06       		.byte	0x6
 863 0340 0904     		.2byte	0x409
 864 0342 E5010000 		.4byte	0x1e5
 865 0346 06       		.byte	0x6
 866 0347 10       		.uleb128 0x10
 867 0348 4B0C0000 		.4byte	.LASF83
 868 034c 06       		.byte	0x6
 869 034d 0A04     		.2byte	0x40a
 870 034f F0010000 		.4byte	0x1f0
 871 0353 08       		.byte	0x8
ARM GAS  /tmp/cchgvlIx.s 			page 19


 872 0354 10       		.uleb128 0x10
 873 0355 49040000 		.4byte	.LASF84
 874 0359 06       		.byte	0x6
 875 035a 0B04     		.2byte	0x40b
 876 035c E5010000 		.4byte	0x1e5
 877 0360 0A       		.byte	0xa
 878 0361 10       		.uleb128 0x10
 879 0362 500C0000 		.4byte	.LASF85
 880 0366 06       		.byte	0x6
 881 0367 0C04     		.2byte	0x40c
 882 0369 F0010000 		.4byte	0x1f0
 883 036d 0C       		.byte	0xc
 884 036e 10       		.uleb128 0x10
 885 036f 91030000 		.4byte	.LASF86
 886 0373 06       		.byte	0x6
 887 0374 0D04     		.2byte	0x40d
 888 0376 E5010000 		.4byte	0x1e5
 889 037a 0E       		.byte	0xe
 890 037b 0F       		.uleb128 0xf
 891 037c 445200   		.ascii	"DR\000"
 892 037f 06       		.byte	0x6
 893 0380 0E04     		.2byte	0x40e
 894 0382 F0010000 		.4byte	0x1f0
 895 0386 10       		.byte	0x10
 896 0387 10       		.uleb128 0x10
 897 0388 9B030000 		.4byte	.LASF87
 898 038c 06       		.byte	0x6
 899 038d 0F04     		.2byte	0x40f
 900 038f E5010000 		.4byte	0x1e5
 901 0393 12       		.byte	0x12
 902 0394 0F       		.uleb128 0xf
 903 0395 53523100 		.ascii	"SR1\000"
 904 0399 06       		.byte	0x6
 905 039a 1004     		.2byte	0x410
 906 039c F0010000 		.4byte	0x1f0
 907 03a0 14       		.byte	0x14
 908 03a1 10       		.uleb128 0x10
 909 03a2 A5030000 		.4byte	.LASF88
 910 03a6 06       		.byte	0x6
 911 03a7 1104     		.2byte	0x411
 912 03a9 E5010000 		.4byte	0x1e5
 913 03ad 16       		.byte	0x16
 914 03ae 0F       		.uleb128 0xf
 915 03af 53523200 		.ascii	"SR2\000"
 916 03b3 06       		.byte	0x6
 917 03b4 1204     		.2byte	0x412
 918 03b6 F0010000 		.4byte	0x1f0
 919 03ba 18       		.byte	0x18
 920 03bb 10       		.uleb128 0x10
 921 03bc AF030000 		.4byte	.LASF89
 922 03c0 06       		.byte	0x6
 923 03c1 1304     		.2byte	0x413
 924 03c3 E5010000 		.4byte	0x1e5
 925 03c7 1A       		.byte	0x1a
 926 03c8 0F       		.uleb128 0xf
 927 03c9 43435200 		.ascii	"CCR\000"
 928 03cd 06       		.byte	0x6
ARM GAS  /tmp/cchgvlIx.s 			page 20


 929 03ce 1404     		.2byte	0x414
 930 03d0 F0010000 		.4byte	0x1f0
 931 03d4 1C       		.byte	0x1c
 932 03d5 10       		.uleb128 0x10
 933 03d6 B9030000 		.4byte	.LASF90
 934 03da 06       		.byte	0x6
 935 03db 1504     		.2byte	0x415
 936 03dd E5010000 		.4byte	0x1e5
 937 03e1 1E       		.byte	0x1e
 938 03e2 10       		.uleb128 0x10
 939 03e3 3F070000 		.4byte	.LASF91
 940 03e7 06       		.byte	0x6
 941 03e8 1604     		.2byte	0x416
 942 03ea F0010000 		.4byte	0x1f0
 943 03ee 20       		.byte	0x20
 944 03ef 10       		.uleb128 0x10
 945 03f0 C3030000 		.4byte	.LASF92
 946 03f4 06       		.byte	0x6
 947 03f5 1704     		.2byte	0x417
 948 03f7 E5010000 		.4byte	0x1e5
 949 03fb 22       		.byte	0x22
 950 03fc 00       		.byte	0
 951 03fd 0D       		.uleb128 0xd
 952 03fe B50B0000 		.4byte	.LASF93
 953 0402 06       		.byte	0x6
 954 0403 1804     		.2byte	0x418
 955 0405 0A030000 		.4byte	0x30a
 956 0409 0E       		.uleb128 0xe
 957 040a 50       		.byte	0x50
 958 040b 06       		.byte	0x6
 959 040c A204     		.2byte	0x4a2
 960 040e 1A060000 		.4byte	0x61a
 961 0412 0F       		.uleb128 0xf
 962 0413 43523100 		.ascii	"CR1\000"
 963 0417 06       		.byte	0x6
 964 0418 A404     		.2byte	0x4a4
 965 041a F0010000 		.4byte	0x1f0
 966 041e 00       		.byte	0
 967 041f 10       		.uleb128 0x10
 968 0420 6F030000 		.4byte	.LASF81
 969 0424 06       		.byte	0x6
 970 0425 A504     		.2byte	0x4a5
 971 0427 E5010000 		.4byte	0x1e5
 972 042b 02       		.byte	0x2
 973 042c 0F       		.uleb128 0xf
 974 042d 43523200 		.ascii	"CR2\000"
 975 0431 06       		.byte	0x6
 976 0432 A604     		.2byte	0x4a6
 977 0434 F0010000 		.4byte	0x1f0
 978 0438 04       		.byte	0x4
 979 0439 10       		.uleb128 0x10
 980 043a 79030000 		.4byte	.LASF82
 981 043e 06       		.byte	0x6
 982 043f A704     		.2byte	0x4a7
 983 0441 E5010000 		.4byte	0x1e5
 984 0445 06       		.byte	0x6
 985 0446 10       		.uleb128 0x10
ARM GAS  /tmp/cchgvlIx.s 			page 21


 986 0447 D00B0000 		.4byte	.LASF94
 987 044b 06       		.byte	0x6
 988 044c A804     		.2byte	0x4a8
 989 044e F0010000 		.4byte	0x1f0
 990 0452 08       		.byte	0x8
 991 0453 10       		.uleb128 0x10
 992 0454 49040000 		.4byte	.LASF84
 993 0458 06       		.byte	0x6
 994 0459 A904     		.2byte	0x4a9
 995 045b E5010000 		.4byte	0x1e5
 996 045f 0A       		.byte	0xa
 997 0460 10       		.uleb128 0x10
 998 0461 FB060000 		.4byte	.LASF95
 999 0465 06       		.byte	0x6
 1000 0466 AA04     		.2byte	0x4aa
 1001 0468 F0010000 		.4byte	0x1f0
 1002 046c 0C       		.byte	0xc
 1003 046d 10       		.uleb128 0x10
 1004 046e 91030000 		.4byte	.LASF86
 1005 0472 06       		.byte	0x6
 1006 0473 AB04     		.2byte	0x4ab
 1007 0475 E5010000 		.4byte	0x1e5
 1008 0479 0E       		.byte	0xe
 1009 047a 0F       		.uleb128 0xf
 1010 047b 535200   		.ascii	"SR\000"
 1011 047e 06       		.byte	0x6
 1012 047f AC04     		.2byte	0x4ac
 1013 0481 F0010000 		.4byte	0x1f0
 1014 0485 10       		.byte	0x10
 1015 0486 10       		.uleb128 0x10
 1016 0487 9B030000 		.4byte	.LASF87
 1017 048b 06       		.byte	0x6
 1018 048c AD04     		.2byte	0x4ad
 1019 048e E5010000 		.4byte	0x1e5
 1020 0492 12       		.byte	0x12
 1021 0493 0F       		.uleb128 0xf
 1022 0494 45475200 		.ascii	"EGR\000"
 1023 0498 06       		.byte	0x6
 1024 0499 AE04     		.2byte	0x4ae
 1025 049b F0010000 		.4byte	0x1f0
 1026 049f 14       		.byte	0x14
 1027 04a0 10       		.uleb128 0x10
 1028 04a1 A5030000 		.4byte	.LASF88
 1029 04a5 06       		.byte	0x6
 1030 04a6 AF04     		.2byte	0x4af
 1031 04a8 E5010000 		.4byte	0x1e5
 1032 04ac 16       		.byte	0x16
 1033 04ad 10       		.uleb128 0x10
 1034 04ae 75040000 		.4byte	.LASF96
 1035 04b2 06       		.byte	0x6
 1036 04b3 B004     		.2byte	0x4b0
 1037 04b5 F0010000 		.4byte	0x1f0
 1038 04b9 18       		.byte	0x18
 1039 04ba 10       		.uleb128 0x10
 1040 04bb AF030000 		.4byte	.LASF89
 1041 04bf 06       		.byte	0x6
 1042 04c0 B104     		.2byte	0x4b1
ARM GAS  /tmp/cchgvlIx.s 			page 22


 1043 04c2 E5010000 		.4byte	0x1e5
 1044 04c6 1A       		.byte	0x1a
 1045 04c7 10       		.uleb128 0x10
 1046 04c8 35090000 		.4byte	.LASF97
 1047 04cc 06       		.byte	0x6
 1048 04cd B204     		.2byte	0x4b2
 1049 04cf F0010000 		.4byte	0x1f0
 1050 04d3 1C       		.byte	0x1c
 1051 04d4 10       		.uleb128 0x10
 1052 04d5 B9030000 		.4byte	.LASF90
 1053 04d9 06       		.byte	0x6
 1054 04da B304     		.2byte	0x4b3
 1055 04dc E5010000 		.4byte	0x1e5
 1056 04e0 1E       		.byte	0x1e
 1057 04e1 10       		.uleb128 0x10
 1058 04e2 E50A0000 		.4byte	.LASF98
 1059 04e6 06       		.byte	0x6
 1060 04e7 B404     		.2byte	0x4b4
 1061 04e9 F0010000 		.4byte	0x1f0
 1062 04ed 20       		.byte	0x20
 1063 04ee 10       		.uleb128 0x10
 1064 04ef C3030000 		.4byte	.LASF92
 1065 04f3 06       		.byte	0x6
 1066 04f4 B504     		.2byte	0x4b5
 1067 04f6 E5010000 		.4byte	0x1e5
 1068 04fa 22       		.byte	0x22
 1069 04fb 0F       		.uleb128 0xf
 1070 04fc 434E5400 		.ascii	"CNT\000"
 1071 0500 06       		.byte	0x6
 1072 0501 B604     		.2byte	0x4b6
 1073 0503 F0010000 		.4byte	0x1f0
 1074 0507 24       		.byte	0x24
 1075 0508 10       		.uleb128 0x10
 1076 0509 CD030000 		.4byte	.LASF99
 1077 050d 06       		.byte	0x6
 1078 050e B704     		.2byte	0x4b7
 1079 0510 E5010000 		.4byte	0x1e5
 1080 0514 26       		.byte	0x26
 1081 0515 0F       		.uleb128 0xf
 1082 0516 50534300 		.ascii	"PSC\000"
 1083 051a 06       		.byte	0x6
 1084 051b B804     		.2byte	0x4b8
 1085 051d F0010000 		.4byte	0x1f0
 1086 0521 28       		.byte	0x28
 1087 0522 10       		.uleb128 0x10
 1088 0523 770E0000 		.4byte	.LASF100
 1089 0527 06       		.byte	0x6
 1090 0528 B904     		.2byte	0x4b9
 1091 052a E5010000 		.4byte	0x1e5
 1092 052e 2A       		.byte	0x2a
 1093 052f 0F       		.uleb128 0xf
 1094 0530 41525200 		.ascii	"ARR\000"
 1095 0534 06       		.byte	0x6
 1096 0535 BA04     		.2byte	0x4ba
 1097 0537 F0010000 		.4byte	0x1f0
 1098 053b 2C       		.byte	0x2c
 1099 053c 10       		.uleb128 0x10
ARM GAS  /tmp/cchgvlIx.s 			page 23


 1100 053d 820E0000 		.4byte	.LASF101
 1101 0541 06       		.byte	0x6
 1102 0542 BB04     		.2byte	0x4bb
 1103 0544 E5010000 		.4byte	0x1e5
 1104 0548 2E       		.byte	0x2e
 1105 0549 0F       		.uleb128 0xf
 1106 054a 52435200 		.ascii	"RCR\000"
 1107 054e 06       		.byte	0x6
 1108 054f BC04     		.2byte	0x4bc
 1109 0551 F0010000 		.4byte	0x1f0
 1110 0555 30       		.byte	0x30
 1111 0556 10       		.uleb128 0x10
 1112 0557 EA0A0000 		.4byte	.LASF102
 1113 055b 06       		.byte	0x6
 1114 055c BD04     		.2byte	0x4bd
 1115 055e E5010000 		.4byte	0x1e5
 1116 0562 32       		.byte	0x32
 1117 0563 10       		.uleb128 0x10
 1118 0564 74010000 		.4byte	.LASF103
 1119 0568 06       		.byte	0x6
 1120 0569 BE04     		.2byte	0x4be
 1121 056b F0010000 		.4byte	0x1f0
 1122 056f 34       		.byte	0x34
 1123 0570 10       		.uleb128 0x10
 1124 0571 8D0E0000 		.4byte	.LASF104
 1125 0575 06       		.byte	0x6
 1126 0576 BF04     		.2byte	0x4bf
 1127 0578 E5010000 		.4byte	0x1e5
 1128 057c 36       		.byte	0x36
 1129 057d 10       		.uleb128 0x10
 1130 057e 79010000 		.4byte	.LASF105
 1131 0582 06       		.byte	0x6
 1132 0583 C004     		.2byte	0x4c0
 1133 0585 F0010000 		.4byte	0x1f0
 1134 0589 38       		.byte	0x38
 1135 058a 10       		.uleb128 0x10
 1136 058b 010B0000 		.4byte	.LASF106
 1137 058f 06       		.byte	0x6
 1138 0590 C104     		.2byte	0x4c1
 1139 0592 E5010000 		.4byte	0x1e5
 1140 0596 3A       		.byte	0x3a
 1141 0597 10       		.uleb128 0x10
 1142 0598 7E010000 		.4byte	.LASF107
 1143 059c 06       		.byte	0x6
 1144 059d C204     		.2byte	0x4c2
 1145 059f F0010000 		.4byte	0x1f0
 1146 05a3 3C       		.byte	0x3c
 1147 05a4 10       		.uleb128 0x10
 1148 05a5 0C0B0000 		.4byte	.LASF108
 1149 05a9 06       		.byte	0x6
 1150 05aa C304     		.2byte	0x4c3
 1151 05ac E5010000 		.4byte	0x1e5
 1152 05b0 3E       		.byte	0x3e
 1153 05b1 10       		.uleb128 0x10
 1154 05b2 83010000 		.4byte	.LASF109
 1155 05b6 06       		.byte	0x6
 1156 05b7 C404     		.2byte	0x4c4
ARM GAS  /tmp/cchgvlIx.s 			page 24


 1157 05b9 F0010000 		.4byte	0x1f0
 1158 05bd 40       		.byte	0x40
 1159 05be 10       		.uleb128 0x10
 1160 05bf 170B0000 		.4byte	.LASF110
 1161 05c3 06       		.byte	0x6
 1162 05c4 C504     		.2byte	0x4c5
 1163 05c6 E5010000 		.4byte	0x1e5
 1164 05ca 42       		.byte	0x42
 1165 05cb 10       		.uleb128 0x10
 1166 05cc C20D0000 		.4byte	.LASF111
 1167 05d0 06       		.byte	0x6
 1168 05d1 C604     		.2byte	0x4c6
 1169 05d3 F0010000 		.4byte	0x1f0
 1170 05d7 44       		.byte	0x44
 1171 05d8 10       		.uleb128 0x10
 1172 05d9 220B0000 		.4byte	.LASF112
 1173 05dd 06       		.byte	0x6
 1174 05de C704     		.2byte	0x4c7
 1175 05e0 E5010000 		.4byte	0x1e5
 1176 05e4 46       		.byte	0x46
 1177 05e5 0F       		.uleb128 0xf
 1178 05e6 44435200 		.ascii	"DCR\000"
 1179 05ea 06       		.byte	0x6
 1180 05eb C804     		.2byte	0x4c8
 1181 05ed F0010000 		.4byte	0x1f0
 1182 05f1 48       		.byte	0x48
 1183 05f2 10       		.uleb128 0x10
 1184 05f3 2D0B0000 		.4byte	.LASF113
 1185 05f7 06       		.byte	0x6
 1186 05f8 C904     		.2byte	0x4c9
 1187 05fa E5010000 		.4byte	0x1e5
 1188 05fe 4A       		.byte	0x4a
 1189 05ff 10       		.uleb128 0x10
 1190 0600 5C010000 		.4byte	.LASF114
 1191 0604 06       		.byte	0x6
 1192 0605 CA04     		.2byte	0x4ca
 1193 0607 F0010000 		.4byte	0x1f0
 1194 060b 4C       		.byte	0x4c
 1195 060c 10       		.uleb128 0x10
 1196 060d 380B0000 		.4byte	.LASF115
 1197 0611 06       		.byte	0x6
 1198 0612 CB04     		.2byte	0x4cb
 1199 0614 E5010000 		.4byte	0x1e5
 1200 0618 4E       		.byte	0x4e
 1201 0619 00       		.byte	0
 1202 061a 0D       		.uleb128 0xd
 1203 061b 4C030000 		.4byte	.LASF116
 1204 061f 06       		.byte	0x6
 1205 0620 CC04     		.2byte	0x4cc
 1206 0622 09040000 		.4byte	0x409
 1207 0626 0E       		.uleb128 0xe
 1208 0627 1C       		.byte	0x1c
 1209 0628 06       		.byte	0x6
 1210 0629 D204     		.2byte	0x4d2
 1211 062b E4060000 		.4byte	0x6e4
 1212 062f 0F       		.uleb128 0xf
 1213 0630 535200   		.ascii	"SR\000"
ARM GAS  /tmp/cchgvlIx.s 			page 25


 1214 0633 06       		.byte	0x6
 1215 0634 D404     		.2byte	0x4d4
 1216 0636 F0010000 		.4byte	0x1f0
 1217 063a 00       		.byte	0
 1218 063b 10       		.uleb128 0x10
 1219 063c 6F030000 		.4byte	.LASF81
 1220 0640 06       		.byte	0x6
 1221 0641 D504     		.2byte	0x4d5
 1222 0643 E5010000 		.4byte	0x1e5
 1223 0647 02       		.byte	0x2
 1224 0648 0F       		.uleb128 0xf
 1225 0649 445200   		.ascii	"DR\000"
 1226 064c 06       		.byte	0x6
 1227 064d D604     		.2byte	0x4d6
 1228 064f F0010000 		.4byte	0x1f0
 1229 0653 04       		.byte	0x4
 1230 0654 10       		.uleb128 0x10
 1231 0655 79030000 		.4byte	.LASF82
 1232 0659 06       		.byte	0x6
 1233 065a D704     		.2byte	0x4d7
 1234 065c E5010000 		.4byte	0x1e5
 1235 0660 06       		.byte	0x6
 1236 0661 0F       		.uleb128 0xf
 1237 0662 42525200 		.ascii	"BRR\000"
 1238 0666 06       		.byte	0x6
 1239 0667 D804     		.2byte	0x4d8
 1240 0669 F0010000 		.4byte	0x1f0
 1241 066d 08       		.byte	0x8
 1242 066e 10       		.uleb128 0x10
 1243 066f 49040000 		.4byte	.LASF84
 1244 0673 06       		.byte	0x6
 1245 0674 D904     		.2byte	0x4d9
 1246 0676 E5010000 		.4byte	0x1e5
 1247 067a 0A       		.byte	0xa
 1248 067b 0F       		.uleb128 0xf
 1249 067c 43523100 		.ascii	"CR1\000"
 1250 0680 06       		.byte	0x6
 1251 0681 DA04     		.2byte	0x4da
 1252 0683 F0010000 		.4byte	0x1f0
 1253 0687 0C       		.byte	0xc
 1254 0688 10       		.uleb128 0x10
 1255 0689 91030000 		.4byte	.LASF86
 1256 068d 06       		.byte	0x6
 1257 068e DB04     		.2byte	0x4db
 1258 0690 E5010000 		.4byte	0x1e5
 1259 0694 0E       		.byte	0xe
 1260 0695 0F       		.uleb128 0xf
 1261 0696 43523200 		.ascii	"CR2\000"
 1262 069a 06       		.byte	0x6
 1263 069b DC04     		.2byte	0x4dc
 1264 069d F0010000 		.4byte	0x1f0
 1265 06a1 10       		.byte	0x10
 1266 06a2 10       		.uleb128 0x10
 1267 06a3 9B030000 		.4byte	.LASF87
 1268 06a7 06       		.byte	0x6
 1269 06a8 DD04     		.2byte	0x4dd
 1270 06aa E5010000 		.4byte	0x1e5
ARM GAS  /tmp/cchgvlIx.s 			page 26


 1271 06ae 12       		.byte	0x12
 1272 06af 0F       		.uleb128 0xf
 1273 06b0 43523300 		.ascii	"CR3\000"
 1274 06b4 06       		.byte	0x6
 1275 06b5 DE04     		.2byte	0x4de
 1276 06b7 F0010000 		.4byte	0x1f0
 1277 06bb 14       		.byte	0x14
 1278 06bc 10       		.uleb128 0x10
 1279 06bd A5030000 		.4byte	.LASF88
 1280 06c1 06       		.byte	0x6
 1281 06c2 DF04     		.2byte	0x4df
 1282 06c4 E5010000 		.4byte	0x1e5
 1283 06c8 16       		.byte	0x16
 1284 06c9 10       		.uleb128 0x10
 1285 06ca 76000000 		.4byte	.LASF117
 1286 06ce 06       		.byte	0x6
 1287 06cf E004     		.2byte	0x4e0
 1288 06d1 F0010000 		.4byte	0x1f0
 1289 06d5 18       		.byte	0x18
 1290 06d6 10       		.uleb128 0x10
 1291 06d7 AF030000 		.4byte	.LASF89
 1292 06db 06       		.byte	0x6
 1293 06dc E104     		.2byte	0x4e1
 1294 06de E5010000 		.4byte	0x1e5
 1295 06e2 1A       		.byte	0x1a
 1296 06e3 00       		.byte	0
 1297 06e4 0D       		.uleb128 0xd
 1298 06e5 05050000 		.4byte	.LASF118
 1299 06e9 06       		.byte	0x6
 1300 06ea E204     		.2byte	0x4e2
 1301 06ec 26060000 		.4byte	0x626
 1302 06f0 11       		.uleb128 0x11
 1303 06f1 10       		.byte	0x10
 1304 06f2 07       		.byte	0x7
 1305 06f3 32       		.byte	0x32
 1306 06f4 41070000 		.4byte	0x741
 1307 06f8 12       		.uleb128 0x12
 1308 06f9 AB0D0000 		.4byte	.LASF119
 1309 06fd 07       		.byte	0x7
 1310 06fe 34       		.byte	0x34
 1311 06ff 05020000 		.4byte	0x205
 1312 0703 00       		.byte	0
 1313 0704 12       		.uleb128 0x12
 1314 0705 03010000 		.4byte	.LASF120
 1315 0709 07       		.byte	0x7
 1316 070a 37       		.byte	0x37
 1317 070b E5010000 		.4byte	0x1e5
 1318 070f 04       		.byte	0x4
 1319 0710 12       		.uleb128 0x12
 1320 0711 25030000 		.4byte	.LASF121
 1321 0715 07       		.byte	0x7
 1322 0716 3A       		.byte	0x3a
 1323 0717 E5010000 		.4byte	0x1e5
 1324 071b 06       		.byte	0x6
 1325 071c 12       		.uleb128 0x12
 1326 071d CB070000 		.4byte	.LASF122
 1327 0721 07       		.byte	0x7
ARM GAS  /tmp/cchgvlIx.s 			page 27


 1328 0722 3D       		.byte	0x3d
 1329 0723 E5010000 		.4byte	0x1e5
 1330 0727 08       		.byte	0x8
 1331 0728 12       		.uleb128 0x12
 1332 0729 3A0A0000 		.4byte	.LASF123
 1333 072d 07       		.byte	0x7
 1334 072e 40       		.byte	0x40
 1335 072f E5010000 		.4byte	0x1e5
 1336 0733 0A       		.byte	0xa
 1337 0734 12       		.uleb128 0x12
 1338 0735 BA060000 		.4byte	.LASF124
 1339 0739 07       		.byte	0x7
 1340 073a 43       		.byte	0x43
 1341 073b E5010000 		.4byte	0x1e5
 1342 073f 0C       		.byte	0xc
 1343 0740 00       		.byte	0
 1344 0741 06       		.uleb128 0x6
 1345 0742 51050000 		.4byte	.LASF125
 1346 0746 07       		.byte	0x7
 1347 0747 45       		.byte	0x45
 1348 0748 F0060000 		.4byte	0x6f0
 1349 074c 11       		.uleb128 0x11
 1350 074d 0A       		.byte	0xa
 1351 074e 08       		.byte	0x8
 1352 074f 33       		.byte	0x33
 1353 0750 91070000 		.4byte	0x791
 1354 0754 12       		.uleb128 0x12
 1355 0755 9D050000 		.4byte	.LASF126
 1356 0759 08       		.byte	0x8
 1357 075a 35       		.byte	0x35
 1358 075b E5010000 		.4byte	0x1e5
 1359 075f 00       		.byte	0
 1360 0760 12       		.uleb128 0x12
 1361 0761 AD090000 		.4byte	.LASF127
 1362 0765 08       		.byte	0x8
 1363 0766 38       		.byte	0x38
 1364 0767 E5010000 		.4byte	0x1e5
 1365 076b 02       		.byte	0x2
 1366 076c 12       		.uleb128 0x12
 1367 076d 48060000 		.4byte	.LASF128
 1368 0771 08       		.byte	0x8
 1369 0772 3B       		.byte	0x3b
 1370 0773 E5010000 		.4byte	0x1e5
 1371 0777 04       		.byte	0x4
 1372 0778 12       		.uleb128 0x12
 1373 0779 B8050000 		.4byte	.LASF129
 1374 077d 08       		.byte	0x8
 1375 077e 3F       		.byte	0x3f
 1376 077f E5010000 		.4byte	0x1e5
 1377 0783 06       		.byte	0x6
 1378 0784 12       		.uleb128 0x12
 1379 0785 77080000 		.4byte	.LASF130
 1380 0789 08       		.byte	0x8
 1381 078a 42       		.byte	0x42
 1382 078b DA010000 		.4byte	0x1da
 1383 078f 08       		.byte	0x8
 1384 0790 00       		.byte	0
ARM GAS  /tmp/cchgvlIx.s 			page 28


 1385 0791 06       		.uleb128 0x6
 1386 0792 200F0000 		.4byte	.LASF131
 1387 0796 08       		.byte	0x8
 1388 0797 4A       		.byte	0x4a
 1389 0798 4C070000 		.4byte	0x74c
 1390 079c 13       		.uleb128 0x13
 1391 079d 01       		.byte	0x1
 1392 079e 7A010000 		.4byte	0x17a
 1393 07a2 09       		.byte	0x9
 1394 07a3 3B       		.byte	0x3b
 1395 07a4 BB070000 		.4byte	0x7bb
 1396 07a8 04       		.uleb128 0x4
 1397 07a9 260E0000 		.4byte	.LASF132
 1398 07ad 01       		.byte	0x1
 1399 07ae 04       		.uleb128 0x4
 1400 07af 550C0000 		.4byte	.LASF133
 1401 07b3 02       		.byte	0x2
 1402 07b4 04       		.uleb128 0x4
 1403 07b5 F4040000 		.4byte	.LASF134
 1404 07b9 03       		.byte	0x3
 1405 07ba 00       		.byte	0
 1406 07bb 06       		.uleb128 0x6
 1407 07bc 650C0000 		.4byte	.LASF135
 1408 07c0 09       		.byte	0x9
 1409 07c1 3F       		.byte	0x3f
 1410 07c2 9C070000 		.4byte	0x79c
 1411 07c6 13       		.uleb128 0x13
 1412 07c7 01       		.byte	0x1
 1413 07c8 7A010000 		.4byte	0x17a
 1414 07cc 09       		.byte	0x9
 1415 07cd 48       		.byte	0x48
 1416 07ce 03080000 		.4byte	0x803
 1417 07d2 04       		.uleb128 0x4
 1418 07d3 49020000 		.4byte	.LASF136
 1419 07d7 00       		.byte	0
 1420 07d8 04       		.uleb128 0x4
 1421 07d9 160D0000 		.4byte	.LASF137
 1422 07dd 04       		.byte	0x4
 1423 07de 04       		.uleb128 0x4
 1424 07df 380F0000 		.4byte	.LASF138
 1425 07e3 28       		.byte	0x28
 1426 07e4 04       		.uleb128 0x4
 1427 07e5 0B000000 		.4byte	.LASF139
 1428 07e9 48       		.byte	0x48
 1429 07ea 04       		.uleb128 0x4
 1430 07eb C2040000 		.4byte	.LASF140
 1431 07ef 14       		.byte	0x14
 1432 07f0 04       		.uleb128 0x4
 1433 07f1 1B060000 		.4byte	.LASF141
 1434 07f5 10       		.byte	0x10
 1435 07f6 04       		.uleb128 0x4
 1436 07f7 B8020000 		.4byte	.LASF142
 1437 07fb 1C       		.byte	0x1c
 1438 07fc 04       		.uleb128 0x4
 1439 07fd D7030000 		.4byte	.LASF143
 1440 0801 18       		.byte	0x18
 1441 0802 00       		.byte	0
ARM GAS  /tmp/cchgvlIx.s 			page 29


 1442 0803 06       		.uleb128 0x6
 1443 0804 EB0B0000 		.4byte	.LASF144
 1444 0808 09       		.byte	0x9
 1445 0809 50       		.byte	0x50
 1446 080a C6070000 		.4byte	0x7c6
 1447 080e 11       		.uleb128 0x11
 1448 080f 04       		.byte	0x4
 1449 0810 09       		.byte	0x9
 1450 0811 5B       		.byte	0x5b
 1451 0812 3B080000 		.4byte	0x83b
 1452 0816 12       		.uleb128 0x12
 1453 0817 890C0000 		.4byte	.LASF145
 1454 081b 09       		.byte	0x9
 1455 081c 5D       		.byte	0x5d
 1456 081d E5010000 		.4byte	0x1e5
 1457 0821 00       		.byte	0
 1458 0822 12       		.uleb128 0x12
 1459 0823 C0010000 		.4byte	.LASF146
 1460 0827 09       		.byte	0x9
 1461 0828 60       		.byte	0x60
 1462 0829 BB070000 		.4byte	0x7bb
 1463 082d 02       		.byte	0x2
 1464 082e 12       		.uleb128 0x12
 1465 082f 940B0000 		.4byte	.LASF147
 1466 0833 09       		.byte	0x9
 1467 0834 63       		.byte	0x63
 1468 0835 03080000 		.4byte	0x803
 1469 0839 03       		.byte	0x3
 1470 083a 00       		.byte	0
 1471 083b 06       		.uleb128 0x6
 1472 083c 33030000 		.4byte	.LASF148
 1473 0840 09       		.byte	0x9
 1474 0841 65       		.byte	0x65
 1475 0842 0E080000 		.4byte	0x80e
 1476 0846 11       		.uleb128 0x11
 1477 0847 10       		.byte	0x10
 1478 0848 0A       		.byte	0xa
 1479 0849 32       		.byte	0x32
 1480 084a 97080000 		.4byte	0x897
 1481 084e 12       		.uleb128 0x12
 1482 084f E1050000 		.4byte	.LASF149
 1483 0853 0A       		.byte	0xa
 1484 0854 34       		.byte	0x34
 1485 0855 05020000 		.4byte	0x205
 1486 0859 00       		.byte	0
 1487 085a 12       		.uleb128 0x12
 1488 085b E7030000 		.4byte	.LASF150
 1489 085f 0A       		.byte	0xa
 1490 0860 39       		.byte	0x39
 1491 0861 E5010000 		.4byte	0x1e5
 1492 0865 04       		.byte	0x4
 1493 0866 12       		.uleb128 0x12
 1494 0867 45070000 		.4byte	.LASF151
 1495 086b 0A       		.byte	0xa
 1496 086c 3C       		.byte	0x3c
 1497 086d E5010000 		.4byte	0x1e5
 1498 0871 06       		.byte	0x6
ARM GAS  /tmp/cchgvlIx.s 			page 30


 1499 0872 12       		.uleb128 0x12
 1500 0873 58040000 		.4byte	.LASF152
 1501 0877 0A       		.byte	0xa
 1502 0878 3F       		.byte	0x3f
 1503 0879 E5010000 		.4byte	0x1e5
 1504 087d 08       		.byte	0x8
 1505 087e 12       		.uleb128 0x12
 1506 087f F0050000 		.4byte	.LASF153
 1507 0883 0A       		.byte	0xa
 1508 0884 46       		.byte	0x46
 1509 0885 E5010000 		.4byte	0x1e5
 1510 0889 0A       		.byte	0xa
 1511 088a 12       		.uleb128 0x12
 1512 088b F30D0000 		.4byte	.LASF154
 1513 088f 0A       		.byte	0xa
 1514 0890 49       		.byte	0x49
 1515 0891 E5010000 		.4byte	0x1e5
 1516 0895 0C       		.byte	0xc
 1517 0896 00       		.byte	0
 1518 0897 06       		.uleb128 0x6
 1519 0898 120C0000 		.4byte	.LASF155
 1520 089c 0A       		.byte	0xa
 1521 089d 4C       		.byte	0x4c
 1522 089e 46080000 		.4byte	0x846
 1523 08a2 11       		.uleb128 0x11
 1524 08a3 04       		.byte	0x4
 1525 08a4 0B       		.byte	0xb
 1526 08a5 32       		.byte	0x32
 1527 08a6 DB080000 		.4byte	0x8db
 1528 08aa 12       		.uleb128 0x12
 1529 08ab 19000000 		.4byte	.LASF156
 1530 08af 0B       		.byte	0xb
 1531 08b0 34       		.byte	0x34
 1532 08b1 DA010000 		.4byte	0x1da
 1533 08b5 00       		.byte	0
 1534 08b6 12       		.uleb128 0x12
 1535 08b7 A0040000 		.4byte	.LASF157
 1536 08bb 0B       		.byte	0xb
 1537 08bc 39       		.byte	0x39
 1538 08bd DA010000 		.4byte	0x1da
 1539 08c1 01       		.byte	0x1
 1540 08c2 12       		.uleb128 0x12
 1541 08c3 BD090000 		.4byte	.LASF158
 1542 08c7 0B       		.byte	0xb
 1543 08c8 3D       		.byte	0x3d
 1544 08c9 DA010000 		.4byte	0x1da
 1545 08cd 02       		.byte	0x2
 1546 08ce 12       		.uleb128 0x12
 1547 08cf CB010000 		.4byte	.LASF159
 1548 08d3 0B       		.byte	0xb
 1549 08d4 41       		.byte	0x41
 1550 08d5 67020000 		.4byte	0x267
 1551 08d9 03       		.byte	0x3
 1552 08da 00       		.byte	0
 1553 08db 06       		.uleb128 0x6
 1554 08dc 370E0000 		.4byte	.LASF160
 1555 08e0 0B       		.byte	0xb
ARM GAS  /tmp/cchgvlIx.s 			page 31


 1556 08e1 44       		.byte	0x44
 1557 08e2 A2080000 		.4byte	0x8a2
 1558 08e6 05       		.uleb128 0x5
 1559 08e7 08       		.byte	0x8
 1560 08e8 04       		.byte	0x4
 1561 08e9 E0090000 		.4byte	.LASF161
 1562 08ed 14       		.uleb128 0x14
 1563 08ee 04       		.byte	0x4
 1564 08ef 06       		.uleb128 0x6
 1565 08f0 26070000 		.4byte	.LASF162
 1566 08f4 0C       		.byte	0xc
 1567 08f5 07       		.byte	0x7
 1568 08f6 CC010000 		.4byte	0x1cc
 1569 08fa 06       		.uleb128 0x6
 1570 08fb 1A0E0000 		.4byte	.LASF163
 1571 08ff 0D       		.byte	0xd
 1572 0900 2C       		.byte	0x2c
 1573 0901 A5010000 		.4byte	0x1a5
 1574 0905 06       		.uleb128 0x6
 1575 0906 320A0000 		.4byte	.LASF164
 1576 090a 0D       		.byte	0xd
 1577 090b 72       		.byte	0x72
 1578 090c A5010000 		.4byte	0x1a5
 1579 0910 0D       		.uleb128 0xd
 1580 0911 2D0C0000 		.4byte	.LASF165
 1581 0915 0E       		.byte	0xe
 1582 0916 6501     		.2byte	0x165
 1583 0918 D3010000 		.4byte	0x1d3
 1584 091c 15       		.uleb128 0x15
 1585 091d 04       		.byte	0x4
 1586 091e 0D       		.byte	0xd
 1587 091f A6       		.byte	0xa6
 1588 0920 3B090000 		.4byte	0x93b
 1589 0924 16       		.uleb128 0x16
 1590 0925 DE010000 		.4byte	.LASF166
 1591 0929 0D       		.byte	0xd
 1592 092a A8       		.byte	0xa8
 1593 092b 10090000 		.4byte	0x910
 1594 092f 16       		.uleb128 0x16
 1595 0930 420A0000 		.4byte	.LASF167
 1596 0934 0D       		.byte	0xd
 1597 0935 A9       		.byte	0xa9
 1598 0936 3B090000 		.4byte	0x93b
 1599 093a 00       		.byte	0
 1600 093b 17       		.uleb128 0x17
 1601 093c 7A010000 		.4byte	0x17a
 1602 0940 4B090000 		.4byte	0x94b
 1603 0944 18       		.uleb128 0x18
 1604 0945 15020000 		.4byte	0x215
 1605 0949 03       		.byte	0x3
 1606 094a 00       		.byte	0
 1607 094b 11       		.uleb128 0x11
 1608 094c 08       		.byte	0x8
 1609 094d 0D       		.byte	0xd
 1610 094e A3       		.byte	0xa3
 1611 094f 6C090000 		.4byte	0x96c
 1612 0953 12       		.uleb128 0x12
ARM GAS  /tmp/cchgvlIx.s 			page 32


 1613 0954 A5090000 		.4byte	.LASF168
 1614 0958 0D       		.byte	0xd
 1615 0959 A5       		.byte	0xa5
 1616 095a CC010000 		.4byte	0x1cc
 1617 095e 00       		.byte	0
 1618 095f 12       		.uleb128 0x12
 1619 0960 3C000000 		.4byte	.LASF169
 1620 0964 0D       		.byte	0xd
 1621 0965 AA       		.byte	0xaa
 1622 0966 1C090000 		.4byte	0x91c
 1623 096a 04       		.byte	0x4
 1624 096b 00       		.byte	0
 1625 096c 06       		.uleb128 0x6
 1626 096d 020C0000 		.4byte	.LASF170
 1627 0971 0D       		.byte	0xd
 1628 0972 AB       		.byte	0xab
 1629 0973 4B090000 		.4byte	0x94b
 1630 0977 06       		.uleb128 0x6
 1631 0978 66020000 		.4byte	.LASF171
 1632 097c 0D       		.byte	0xd
 1633 097d AF       		.byte	0xaf
 1634 097e EF080000 		.4byte	0x8ef
 1635 0982 06       		.uleb128 0x6
 1636 0983 BA0D0000 		.4byte	.LASF172
 1637 0987 0F       		.byte	0xf
 1638 0988 16       		.byte	0x16
 1639 0989 B7010000 		.4byte	0x1b7
 1640 098d 19       		.uleb128 0x19
 1641 098e C3070000 		.4byte	.LASF177
 1642 0992 18       		.byte	0x18
 1643 0993 0F       		.byte	0xf
 1644 0994 2D       		.byte	0x2d
 1645 0995 E0090000 		.4byte	0x9e0
 1646 0999 12       		.uleb128 0x12
 1647 099a 340C0000 		.4byte	.LASF173
 1648 099e 0F       		.byte	0xf
 1649 099f 2F       		.byte	0x2f
 1650 09a0 E0090000 		.4byte	0x9e0
 1651 09a4 00       		.byte	0
 1652 09a5 1A       		.uleb128 0x1a
 1653 09a6 5F6B00   		.ascii	"_k\000"
 1654 09a9 0F       		.byte	0xf
 1655 09aa 30       		.byte	0x30
 1656 09ab CC010000 		.4byte	0x1cc
 1657 09af 04       		.byte	0x4
 1658 09b0 12       		.uleb128 0x12
 1659 09b1 DB070000 		.4byte	.LASF174
 1660 09b5 0F       		.byte	0xf
 1661 09b6 30       		.byte	0x30
 1662 09b7 CC010000 		.4byte	0x1cc
 1663 09bb 08       		.byte	0x8
 1664 09bc 12       		.uleb128 0x12
 1665 09bd ED080000 		.4byte	.LASF175
 1666 09c1 0F       		.byte	0xf
 1667 09c2 30       		.byte	0x30
 1668 09c3 CC010000 		.4byte	0x1cc
 1669 09c7 0C       		.byte	0xc
ARM GAS  /tmp/cchgvlIx.s 			page 33


 1670 09c8 12       		.uleb128 0x12
 1671 09c9 D2050000 		.4byte	.LASF176
 1672 09cd 0F       		.byte	0xf
 1673 09ce 30       		.byte	0x30
 1674 09cf CC010000 		.4byte	0x1cc
 1675 09d3 10       		.byte	0x10
 1676 09d4 1A       		.uleb128 0x1a
 1677 09d5 5F7800   		.ascii	"_x\000"
 1678 09d8 0F       		.byte	0xf
 1679 09d9 31       		.byte	0x31
 1680 09da E6090000 		.4byte	0x9e6
 1681 09de 14       		.byte	0x14
 1682 09df 00       		.byte	0
 1683 09e0 1B       		.uleb128 0x1b
 1684 09e1 04       		.byte	0x4
 1685 09e2 8D090000 		.4byte	0x98d
 1686 09e6 17       		.uleb128 0x17
 1687 09e7 82090000 		.4byte	0x982
 1688 09eb F6090000 		.4byte	0x9f6
 1689 09ef 18       		.uleb128 0x18
 1690 09f0 15020000 		.4byte	0x215
 1691 09f4 00       		.byte	0
 1692 09f5 00       		.byte	0
 1693 09f6 19       		.uleb128 0x19
 1694 09f7 AB000000 		.4byte	.LASF178
 1695 09fb 24       		.byte	0x24
 1696 09fc 0F       		.byte	0xf
 1697 09fd 35       		.byte	0x35
 1698 09fe 6F0A0000 		.4byte	0xa6f
 1699 0a02 12       		.uleb128 0x12
 1700 0a03 C7000000 		.4byte	.LASF179
 1701 0a07 0F       		.byte	0xf
 1702 0a08 37       		.byte	0x37
 1703 0a09 CC010000 		.4byte	0x1cc
 1704 0a0d 00       		.byte	0
 1705 0a0e 12       		.uleb128 0x12
 1706 0a0f F00E0000 		.4byte	.LASF180
 1707 0a13 0F       		.byte	0xf
 1708 0a14 38       		.byte	0x38
 1709 0a15 CC010000 		.4byte	0x1cc
 1710 0a19 04       		.byte	0x4
 1711 0a1a 12       		.uleb128 0x12
 1712 0a1b 5B0E0000 		.4byte	.LASF181
 1713 0a1f 0F       		.byte	0xf
 1714 0a20 39       		.byte	0x39
 1715 0a21 CC010000 		.4byte	0x1cc
 1716 0a25 08       		.byte	0x8
 1717 0a26 12       		.uleb128 0x12
 1718 0a27 44090000 		.4byte	.LASF182
 1719 0a2b 0F       		.byte	0xf
 1720 0a2c 3A       		.byte	0x3a
 1721 0a2d CC010000 		.4byte	0x1cc
 1722 0a31 0C       		.byte	0xc
 1723 0a32 12       		.uleb128 0x12
 1724 0a33 9B020000 		.4byte	.LASF183
 1725 0a37 0F       		.byte	0xf
 1726 0a38 3B       		.byte	0x3b
ARM GAS  /tmp/cchgvlIx.s 			page 34


 1727 0a39 CC010000 		.4byte	0x1cc
 1728 0a3d 10       		.byte	0x10
 1729 0a3e 12       		.uleb128 0x12
 1730 0a3f 520D0000 		.4byte	.LASF184
 1731 0a43 0F       		.byte	0xf
 1732 0a44 3C       		.byte	0x3c
 1733 0a45 CC010000 		.4byte	0x1cc
 1734 0a49 14       		.byte	0x14
 1735 0a4a 12       		.uleb128 0x12
 1736 0a4b 6D0E0000 		.4byte	.LASF185
 1737 0a4f 0F       		.byte	0xf
 1738 0a50 3D       		.byte	0x3d
 1739 0a51 CC010000 		.4byte	0x1cc
 1740 0a55 18       		.byte	0x18
 1741 0a56 12       		.uleb128 0x12
 1742 0a57 EC090000 		.4byte	.LASF186
 1743 0a5b 0F       		.byte	0xf
 1744 0a5c 3E       		.byte	0x3e
 1745 0a5d CC010000 		.4byte	0x1cc
 1746 0a61 1C       		.byte	0x1c
 1747 0a62 12       		.uleb128 0x12
 1748 0a63 D20E0000 		.4byte	.LASF187
 1749 0a67 0F       		.byte	0xf
 1750 0a68 3F       		.byte	0x3f
 1751 0a69 CC010000 		.4byte	0x1cc
 1752 0a6d 20       		.byte	0x20
 1753 0a6e 00       		.byte	0
 1754 0a6f 1C       		.uleb128 0x1c
 1755 0a70 B2010000 		.4byte	.LASF188
 1756 0a74 0801     		.2byte	0x108
 1757 0a76 0F       		.byte	0xf
 1758 0a77 48       		.byte	0x48
 1759 0a78 AF0A0000 		.4byte	0xaaf
 1760 0a7c 12       		.uleb128 0x12
 1761 0a7d CA0E0000 		.4byte	.LASF189
 1762 0a81 0F       		.byte	0xf
 1763 0a82 49       		.byte	0x49
 1764 0a83 AF0A0000 		.4byte	0xaaf
 1765 0a87 00       		.byte	0
 1766 0a88 12       		.uleb128 0x12
 1767 0a89 C70A0000 		.4byte	.LASF190
 1768 0a8d 0F       		.byte	0xf
 1769 0a8e 4A       		.byte	0x4a
 1770 0a8f AF0A0000 		.4byte	0xaaf
 1771 0a93 80       		.byte	0x80
 1772 0a94 1D       		.uleb128 0x1d
 1773 0a95 360D0000 		.4byte	.LASF191
 1774 0a99 0F       		.byte	0xf
 1775 0a9a 4C       		.byte	0x4c
 1776 0a9b 82090000 		.4byte	0x982
 1777 0a9f 0001     		.2byte	0x100
 1778 0aa1 1D       		.uleb128 0x1d
 1779 0aa2 13050000 		.4byte	.LASF192
 1780 0aa6 0F       		.byte	0xf
 1781 0aa7 4F       		.byte	0x4f
 1782 0aa8 82090000 		.4byte	0x982
 1783 0aac 0401     		.2byte	0x104
ARM GAS  /tmp/cchgvlIx.s 			page 35


 1784 0aae 00       		.byte	0
 1785 0aaf 17       		.uleb128 0x17
 1786 0ab0 ED080000 		.4byte	0x8ed
 1787 0ab4 BF0A0000 		.4byte	0xabf
 1788 0ab8 18       		.uleb128 0x18
 1789 0ab9 15020000 		.4byte	0x215
 1790 0abd 1F       		.byte	0x1f
 1791 0abe 00       		.byte	0
 1792 0abf 1C       		.uleb128 0x1c
 1793 0ac0 9D090000 		.4byte	.LASF193
 1794 0ac4 9001     		.2byte	0x190
 1795 0ac6 0F       		.byte	0xf
 1796 0ac7 5B       		.byte	0x5b
 1797 0ac8 FD0A0000 		.4byte	0xafd
 1798 0acc 12       		.uleb128 0x12
 1799 0acd 340C0000 		.4byte	.LASF173
 1800 0ad1 0F       		.byte	0xf
 1801 0ad2 5C       		.byte	0x5c
 1802 0ad3 FD0A0000 		.4byte	0xafd
 1803 0ad7 00       		.byte	0
 1804 0ad8 12       		.uleb128 0x12
 1805 0ad9 53040000 		.4byte	.LASF194
 1806 0add 0F       		.byte	0xf
 1807 0ade 5D       		.byte	0x5d
 1808 0adf CC010000 		.4byte	0x1cc
 1809 0ae3 04       		.byte	0x4
 1810 0ae4 12       		.uleb128 0x12
 1811 0ae5 94040000 		.4byte	.LASF195
 1812 0ae9 0F       		.byte	0xf
 1813 0aea 5F       		.byte	0x5f
 1814 0aeb 030B0000 		.4byte	0xb03
 1815 0aef 08       		.byte	0x8
 1816 0af0 12       		.uleb128 0x12
 1817 0af1 B2010000 		.4byte	.LASF188
 1818 0af5 0F       		.byte	0xf
 1819 0af6 60       		.byte	0x60
 1820 0af7 6F0A0000 		.4byte	0xa6f
 1821 0afb 88       		.byte	0x88
 1822 0afc 00       		.byte	0
 1823 0afd 1B       		.uleb128 0x1b
 1824 0afe 04       		.byte	0x4
 1825 0aff BF0A0000 		.4byte	0xabf
 1826 0b03 17       		.uleb128 0x17
 1827 0b04 130B0000 		.4byte	0xb13
 1828 0b08 130B0000 		.4byte	0xb13
 1829 0b0c 18       		.uleb128 0x18
 1830 0b0d 15020000 		.4byte	0x215
 1831 0b11 1F       		.byte	0x1f
 1832 0b12 00       		.byte	0
 1833 0b13 1B       		.uleb128 0x1b
 1834 0b14 04       		.byte	0x4
 1835 0b15 190B0000 		.4byte	0xb19
 1836 0b19 1E       		.uleb128 0x1e
 1837 0b1a 19       		.uleb128 0x19
 1838 0b1b 9D0D0000 		.4byte	.LASF196
 1839 0b1f 08       		.byte	0x8
 1840 0b20 0F       		.byte	0xf
ARM GAS  /tmp/cchgvlIx.s 			page 36


 1841 0b21 73       		.byte	0x73
 1842 0b22 3F0B0000 		.4byte	0xb3f
 1843 0b26 12       		.uleb128 0x12
 1844 0b27 860B0000 		.4byte	.LASF197
 1845 0b2b 0F       		.byte	0xf
 1846 0b2c 74       		.byte	0x74
 1847 0b2d 3F0B0000 		.4byte	0xb3f
 1848 0b31 00       		.byte	0
 1849 0b32 12       		.uleb128 0x12
 1850 0b33 43020000 		.4byte	.LASF198
 1851 0b37 0F       		.byte	0xf
 1852 0b38 75       		.byte	0x75
 1853 0b39 CC010000 		.4byte	0x1cc
 1854 0b3d 04       		.byte	0x4
 1855 0b3e 00       		.byte	0
 1856 0b3f 1B       		.uleb128 0x1b
 1857 0b40 04       		.byte	0x4
 1858 0b41 7A010000 		.4byte	0x17a
 1859 0b45 19       		.uleb128 0x19
 1860 0b46 650E0000 		.4byte	.LASF199
 1861 0b4a 68       		.byte	0x68
 1862 0b4b 0F       		.byte	0xf
 1863 0b4c B3       		.byte	0xb3
 1864 0b4d 6F0C0000 		.4byte	0xc6f
 1865 0b51 1A       		.uleb128 0x1a
 1866 0b52 5F7000   		.ascii	"_p\000"
 1867 0b55 0F       		.byte	0xf
 1868 0b56 B4       		.byte	0xb4
 1869 0b57 3F0B0000 		.4byte	0xb3f
 1870 0b5b 00       		.byte	0
 1871 0b5c 1A       		.uleb128 0x1a
 1872 0b5d 5F7200   		.ascii	"_r\000"
 1873 0b60 0F       		.byte	0xf
 1874 0b61 B5       		.byte	0xb5
 1875 0b62 CC010000 		.4byte	0x1cc
 1876 0b66 04       		.byte	0x4
 1877 0b67 1A       		.uleb128 0x1a
 1878 0b68 5F7700   		.ascii	"_w\000"
 1879 0b6b 0F       		.byte	0xf
 1880 0b6c B6       		.byte	0xb6
 1881 0b6d CC010000 		.4byte	0x1cc
 1882 0b71 08       		.byte	0x8
 1883 0b72 12       		.uleb128 0x12
 1884 0b73 96090000 		.4byte	.LASF200
 1885 0b77 0F       		.byte	0xf
 1886 0b78 B7       		.byte	0xb7
 1887 0b79 81010000 		.4byte	0x181
 1888 0b7d 0C       		.byte	0xc
 1889 0b7e 12       		.uleb128 0x12
 1890 0b7f AC010000 		.4byte	.LASF201
 1891 0b83 0F       		.byte	0xf
 1892 0b84 B8       		.byte	0xb8
 1893 0b85 81010000 		.4byte	0x181
 1894 0b89 0E       		.byte	0xe
 1895 0b8a 1A       		.uleb128 0x1a
 1896 0b8b 5F626600 		.ascii	"_bf\000"
 1897 0b8f 0F       		.byte	0xf
ARM GAS  /tmp/cchgvlIx.s 			page 37


 1898 0b90 B9       		.byte	0xb9
 1899 0b91 1A0B0000 		.4byte	0xb1a
 1900 0b95 10       		.byte	0x10
 1901 0b96 12       		.uleb128 0x12
 1902 0b97 6E0D0000 		.4byte	.LASF202
 1903 0b9b 0F       		.byte	0xf
 1904 0b9c BA       		.byte	0xba
 1905 0b9d CC010000 		.4byte	0x1cc
 1906 0ba1 18       		.byte	0x18
 1907 0ba2 12       		.uleb128 0x12
 1908 0ba3 CA050000 		.4byte	.LASF203
 1909 0ba7 0F       		.byte	0xf
 1910 0ba8 C1       		.byte	0xc1
 1911 0ba9 ED080000 		.4byte	0x8ed
 1912 0bad 1C       		.byte	0x1c
 1913 0bae 12       		.uleb128 0x12
 1914 0baf 49000000 		.4byte	.LASF204
 1915 0bb3 0F       		.byte	0xf
 1916 0bb4 C3       		.byte	0xc3
 1917 0bb5 DC0D0000 		.4byte	0xddc
 1918 0bb9 20       		.byte	0x20
 1919 0bba 12       		.uleb128 0x12
 1920 0bbb 67000000 		.4byte	.LASF205
 1921 0bbf 0F       		.byte	0xf
 1922 0bc0 C5       		.byte	0xc5
 1923 0bc1 0B0E0000 		.4byte	0xe0b
 1924 0bc5 24       		.byte	0x24
 1925 0bc6 12       		.uleb128 0x12
 1926 0bc7 180A0000 		.4byte	.LASF206
 1927 0bcb 0F       		.byte	0xf
 1928 0bcc C8       		.byte	0xc8
 1929 0bcd 2F0E0000 		.4byte	0xe2f
 1930 0bd1 28       		.byte	0x28
 1931 0bd2 12       		.uleb128 0x12
 1932 0bd3 99040000 		.4byte	.LASF207
 1933 0bd7 0F       		.byte	0xf
 1934 0bd8 C9       		.byte	0xc9
 1935 0bd9 490E0000 		.4byte	0xe49
 1936 0bdd 2C       		.byte	0x2c
 1937 0bde 1A       		.uleb128 0x1a
 1938 0bdf 5F756200 		.ascii	"_ub\000"
 1939 0be3 0F       		.byte	0xf
 1940 0be4 CC       		.byte	0xcc
 1941 0be5 1A0B0000 		.4byte	0xb1a
 1942 0be9 30       		.byte	0x30
 1943 0bea 1A       		.uleb128 0x1a
 1944 0beb 5F757000 		.ascii	"_up\000"
 1945 0bef 0F       		.byte	0xf
 1946 0bf0 CD       		.byte	0xcd
 1947 0bf1 3F0B0000 		.4byte	0xb3f
 1948 0bf5 38       		.byte	0x38
 1949 0bf6 1A       		.uleb128 0x1a
 1950 0bf7 5F757200 		.ascii	"_ur\000"
 1951 0bfb 0F       		.byte	0xf
 1952 0bfc CE       		.byte	0xce
 1953 0bfd CC010000 		.4byte	0x1cc
 1954 0c01 3C       		.byte	0x3c
ARM GAS  /tmp/cchgvlIx.s 			page 38


 1955 0c02 12       		.uleb128 0x12
 1956 0c03 53090000 		.4byte	.LASF208
 1957 0c07 0F       		.byte	0xf
 1958 0c08 D1       		.byte	0xd1
 1959 0c09 4F0E0000 		.4byte	0xe4f
 1960 0c0d 40       		.byte	0x40
 1961 0c0e 12       		.uleb128 0x12
 1962 0c0f C1000000 		.4byte	.LASF209
 1963 0c13 0F       		.byte	0xf
 1964 0c14 D2       		.byte	0xd2
 1965 0c15 5F0E0000 		.4byte	0xe5f
 1966 0c19 43       		.byte	0x43
 1967 0c1a 1A       		.uleb128 0x1a
 1968 0c1b 5F6C6200 		.ascii	"_lb\000"
 1969 0c1f 0F       		.byte	0xf
 1970 0c20 D5       		.byte	0xd5
 1971 0c21 1A0B0000 		.4byte	0xb1a
 1972 0c25 44       		.byte	0x44
 1973 0c26 12       		.uleb128 0x12
 1974 0c27 6A0B0000 		.4byte	.LASF210
 1975 0c2b 0F       		.byte	0xf
 1976 0c2c D8       		.byte	0xd8
 1977 0c2d CC010000 		.4byte	0x1cc
 1978 0c31 4C       		.byte	0x4c
 1979 0c32 12       		.uleb128 0x12
 1980 0c33 2A0A0000 		.4byte	.LASF211
 1981 0c37 0F       		.byte	0xf
 1982 0c38 D9       		.byte	0xd9
 1983 0c39 FA080000 		.4byte	0x8fa
 1984 0c3d 50       		.byte	0x50
 1985 0c3e 12       		.uleb128 0x12
 1986 0c3f 3A0C0000 		.4byte	.LASF212
 1987 0c43 0F       		.byte	0xf
 1988 0c44 DC       		.byte	0xdc
 1989 0c45 8D0C0000 		.4byte	0xc8d
 1990 0c49 54       		.byte	0x54
 1991 0c4a 12       		.uleb128 0x12
 1992 0c4b FD000000 		.4byte	.LASF213
 1993 0c4f 0F       		.byte	0xf
 1994 0c50 E0       		.byte	0xe0
 1995 0c51 77090000 		.4byte	0x977
 1996 0c55 58       		.byte	0x58
 1997 0c56 12       		.uleb128 0x12
 1998 0c57 82090000 		.4byte	.LASF214
 1999 0c5b 0F       		.byte	0xf
 2000 0c5c E2       		.byte	0xe2
 2001 0c5d 6C090000 		.4byte	0x96c
 2002 0c61 5C       		.byte	0x5c
 2003 0c62 12       		.uleb128 0x12
 2004 0c63 00070000 		.4byte	.LASF215
 2005 0c67 0F       		.byte	0xf
 2006 0c68 E3       		.byte	0xe3
 2007 0c69 CC010000 		.4byte	0x1cc
 2008 0c6d 64       		.byte	0x64
 2009 0c6e 00       		.byte	0
 2010 0c6f 1F       		.uleb128 0x1f
 2011 0c70 CC010000 		.4byte	0x1cc
ARM GAS  /tmp/cchgvlIx.s 			page 39


 2012 0c74 8D0C0000 		.4byte	0xc8d
 2013 0c78 20       		.uleb128 0x20
 2014 0c79 8D0C0000 		.4byte	0xc8d
 2015 0c7d 20       		.uleb128 0x20
 2016 0c7e ED080000 		.4byte	0x8ed
 2017 0c82 20       		.uleb128 0x20
 2018 0c83 CA0D0000 		.4byte	0xdca
 2019 0c87 20       		.uleb128 0x20
 2020 0c88 CC010000 		.4byte	0x1cc
 2021 0c8c 00       		.byte	0
 2022 0c8d 1B       		.uleb128 0x1b
 2023 0c8e 04       		.byte	0x4
 2024 0c8f 980C0000 		.4byte	0xc98
 2025 0c93 21       		.uleb128 0x21
 2026 0c94 8D0C0000 		.4byte	0xc8d
 2027 0c98 22       		.uleb128 0x22
 2028 0c99 05040000 		.4byte	.LASF216
 2029 0c9d 2804     		.2byte	0x428
 2030 0c9f 0F       		.byte	0xf
 2031 0ca0 3802     		.2byte	0x238
 2032 0ca2 CA0D0000 		.4byte	0xdca
 2033 0ca6 10       		.uleb128 0x10
 2034 0ca7 38070000 		.4byte	.LASF217
 2035 0cab 0F       		.byte	0xf
 2036 0cac 3A02     		.2byte	0x23a
 2037 0cae CC010000 		.4byte	0x1cc
 2038 0cb2 00       		.byte	0
 2039 0cb3 10       		.uleb128 0x10
 2040 0cb4 ED040000 		.4byte	.LASF218
 2041 0cb8 0F       		.byte	0xf
 2042 0cb9 3F02     		.2byte	0x23f
 2043 0cbb B60E0000 		.4byte	0xeb6
 2044 0cbf 04       		.byte	0x4
 2045 0cc0 10       		.uleb128 0x10
 2046 0cc1 44030000 		.4byte	.LASF219
 2047 0cc5 0F       		.byte	0xf
 2048 0cc6 3F02     		.2byte	0x23f
 2049 0cc8 B60E0000 		.4byte	0xeb6
 2050 0ccc 08       		.byte	0x8
 2051 0ccd 10       		.uleb128 0x10
 2052 0cce 6C090000 		.4byte	.LASF220
 2053 0cd2 0F       		.byte	0xf
 2054 0cd3 3F02     		.2byte	0x23f
 2055 0cd5 B60E0000 		.4byte	0xeb6
 2056 0cd9 0C       		.byte	0xc
 2057 0cda 10       		.uleb128 0x10
 2058 0cdb 770D0000 		.4byte	.LASF221
 2059 0cdf 0F       		.byte	0xf
 2060 0ce0 4102     		.2byte	0x241
 2061 0ce2 CC010000 		.4byte	0x1cc
 2062 0ce6 10       		.byte	0x10
 2063 0ce7 10       		.uleb128 0x10
 2064 0ce8 1D080000 		.4byte	.LASF222
 2065 0cec 0F       		.byte	0xf
 2066 0ced 4202     		.2byte	0x242
 2067 0cef 98100000 		.4byte	0x1098
 2068 0cf3 14       		.byte	0x14
ARM GAS  /tmp/cchgvlIx.s 			page 40


 2069 0cf4 10       		.uleb128 0x10
 2070 0cf5 D5020000 		.4byte	.LASF223
 2071 0cf9 0F       		.byte	0xf
 2072 0cfa 4402     		.2byte	0x244
 2073 0cfc CC010000 		.4byte	0x1cc
 2074 0d00 30       		.byte	0x30
 2075 0d01 10       		.uleb128 0x10
 2076 0d02 BA080000 		.4byte	.LASF224
 2077 0d06 0F       		.byte	0xf
 2078 0d07 4502     		.2byte	0x245
 2079 0d09 000E0000 		.4byte	0xe00
 2080 0d0d 34       		.byte	0x34
 2081 0d0e 10       		.uleb128 0x10
 2082 0d0f F2000000 		.4byte	.LASF225
 2083 0d13 0F       		.byte	0xf
 2084 0d14 4702     		.2byte	0x247
 2085 0d16 CC010000 		.4byte	0x1cc
 2086 0d1a 38       		.byte	0x38
 2087 0d1b 10       		.uleb128 0x10
 2088 0d1c E3070000 		.4byte	.LASF226
 2089 0d20 0F       		.byte	0xf
 2090 0d21 4902     		.2byte	0x249
 2091 0d23 B3100000 		.4byte	0x10b3
 2092 0d27 3C       		.byte	0x3c
 2093 0d28 10       		.uleb128 0x10
 2094 0d29 DD0D0000 		.4byte	.LASF227
 2095 0d2d 0F       		.byte	0xf
 2096 0d2e 4C02     		.2byte	0x24c
 2097 0d30 E0090000 		.4byte	0x9e0
 2098 0d34 40       		.byte	0x40
 2099 0d35 10       		.uleb128 0x10
 2100 0d36 39020000 		.4byte	.LASF228
 2101 0d3a 0F       		.byte	0xf
 2102 0d3b 4D02     		.2byte	0x24d
 2103 0d3d CC010000 		.4byte	0x1cc
 2104 0d41 44       		.byte	0x44
 2105 0d42 10       		.uleb128 0x10
 2106 0d43 8C060000 		.4byte	.LASF229
 2107 0d47 0F       		.byte	0xf
 2108 0d48 4E02     		.2byte	0x24e
 2109 0d4a E0090000 		.4byte	0x9e0
 2110 0d4e 48       		.byte	0x48
 2111 0d4f 10       		.uleb128 0x10
 2112 0d50 CA080000 		.4byte	.LASF230
 2113 0d54 0F       		.byte	0xf
 2114 0d55 4F02     		.2byte	0x24f
 2115 0d57 B9100000 		.4byte	0x10b9
 2116 0d5b 4C       		.byte	0x4c
 2117 0d5c 10       		.uleb128 0x10
 2118 0d5d 88000000 		.4byte	.LASF231
 2119 0d61 0F       		.byte	0xf
 2120 0d62 5202     		.2byte	0x252
 2121 0d64 CC010000 		.4byte	0x1cc
 2122 0d68 50       		.byte	0x50
 2123 0d69 10       		.uleb128 0x10
 2124 0d6a FB050000 		.4byte	.LASF232
 2125 0d6e 0F       		.byte	0xf
ARM GAS  /tmp/cchgvlIx.s 			page 41


 2126 0d6f 5302     		.2byte	0x253
 2127 0d71 CA0D0000 		.4byte	0xdca
 2128 0d75 54       		.byte	0x54
 2129 0d76 10       		.uleb128 0x10
 2130 0d77 4E090000 		.4byte	.LASF233
 2131 0d7b 0F       		.byte	0xf
 2132 0d7c 7602     		.2byte	0x276
 2133 0d7e 76100000 		.4byte	0x1076
 2134 0d82 58       		.byte	0x58
 2135 0d83 23       		.uleb128 0x23
 2136 0d84 9D090000 		.4byte	.LASF193
 2137 0d88 0F       		.byte	0xf
 2138 0d89 7A02     		.2byte	0x27a
 2139 0d8b FD0A0000 		.4byte	0xafd
 2140 0d8f 4801     		.2byte	0x148
 2141 0d91 23       		.uleb128 0x23
 2142 0d92 FB070000 		.4byte	.LASF234
 2143 0d96 0F       		.byte	0xf
 2144 0d97 7B02     		.2byte	0x27b
 2145 0d99 BF0A0000 		.4byte	0xabf
 2146 0d9d 4C01     		.2byte	0x14c
 2147 0d9f 23       		.uleb128 0x23
 2148 0da0 D7050000 		.4byte	.LASF235
 2149 0da4 0F       		.byte	0xf
 2150 0da5 7F02     		.2byte	0x27f
 2151 0da7 CA100000 		.4byte	0x10ca
 2152 0dab DC02     		.2byte	0x2dc
 2153 0dad 23       		.uleb128 0x23
 2154 0dae 5F080000 		.4byte	.LASF236
 2155 0db2 0F       		.byte	0xf
 2156 0db3 8402     		.2byte	0x284
 2157 0db5 7B0E0000 		.4byte	0xe7b
 2158 0db9 E002     		.2byte	0x2e0
 2159 0dbb 23       		.uleb128 0x23
 2160 0dbc 44000000 		.4byte	.LASF237
 2161 0dc0 0F       		.byte	0xf
 2162 0dc1 8502     		.2byte	0x285
 2163 0dc3 D6100000 		.4byte	0x10d6
 2164 0dc7 EC02     		.2byte	0x2ec
 2165 0dc9 00       		.byte	0
 2166 0dca 1B       		.uleb128 0x1b
 2167 0dcb 04       		.byte	0x4
 2168 0dcc D00D0000 		.4byte	0xdd0
 2169 0dd0 05       		.uleb128 0x5
 2170 0dd1 01       		.byte	0x1
 2171 0dd2 08       		.byte	0x8
 2172 0dd3 8F040000 		.4byte	.LASF238
 2173 0dd7 21       		.uleb128 0x21
 2174 0dd8 D00D0000 		.4byte	0xdd0
 2175 0ddc 1B       		.uleb128 0x1b
 2176 0ddd 04       		.byte	0x4
 2177 0dde 6F0C0000 		.4byte	0xc6f
 2178 0de2 1F       		.uleb128 0x1f
 2179 0de3 CC010000 		.4byte	0x1cc
 2180 0de7 000E0000 		.4byte	0xe00
 2181 0deb 20       		.uleb128 0x20
 2182 0dec 8D0C0000 		.4byte	0xc8d
ARM GAS  /tmp/cchgvlIx.s 			page 42


 2183 0df0 20       		.uleb128 0x20
 2184 0df1 ED080000 		.4byte	0x8ed
 2185 0df5 20       		.uleb128 0x20
 2186 0df6 000E0000 		.4byte	0xe00
 2187 0dfa 20       		.uleb128 0x20
 2188 0dfb CC010000 		.4byte	0x1cc
 2189 0dff 00       		.byte	0
 2190 0e00 1B       		.uleb128 0x1b
 2191 0e01 04       		.byte	0x4
 2192 0e02 D70D0000 		.4byte	0xdd7
 2193 0e06 21       		.uleb128 0x21
 2194 0e07 000E0000 		.4byte	0xe00
 2195 0e0b 1B       		.uleb128 0x1b
 2196 0e0c 04       		.byte	0x4
 2197 0e0d E20D0000 		.4byte	0xde2
 2198 0e11 1F       		.uleb128 0x1f
 2199 0e12 05090000 		.4byte	0x905
 2200 0e16 2F0E0000 		.4byte	0xe2f
 2201 0e1a 20       		.uleb128 0x20
 2202 0e1b 8D0C0000 		.4byte	0xc8d
 2203 0e1f 20       		.uleb128 0x20
 2204 0e20 ED080000 		.4byte	0x8ed
 2205 0e24 20       		.uleb128 0x20
 2206 0e25 05090000 		.4byte	0x905
 2207 0e29 20       		.uleb128 0x20
 2208 0e2a CC010000 		.4byte	0x1cc
 2209 0e2e 00       		.byte	0
 2210 0e2f 1B       		.uleb128 0x1b
 2211 0e30 04       		.byte	0x4
 2212 0e31 110E0000 		.4byte	0xe11
 2213 0e35 1F       		.uleb128 0x1f
 2214 0e36 CC010000 		.4byte	0x1cc
 2215 0e3a 490E0000 		.4byte	0xe49
 2216 0e3e 20       		.uleb128 0x20
 2217 0e3f 8D0C0000 		.4byte	0xc8d
 2218 0e43 20       		.uleb128 0x20
 2219 0e44 ED080000 		.4byte	0x8ed
 2220 0e48 00       		.byte	0
 2221 0e49 1B       		.uleb128 0x1b
 2222 0e4a 04       		.byte	0x4
 2223 0e4b 350E0000 		.4byte	0xe35
 2224 0e4f 17       		.uleb128 0x17
 2225 0e50 7A010000 		.4byte	0x17a
 2226 0e54 5F0E0000 		.4byte	0xe5f
 2227 0e58 18       		.uleb128 0x18
 2228 0e59 15020000 		.4byte	0x215
 2229 0e5d 02       		.byte	0x2
 2230 0e5e 00       		.byte	0
 2231 0e5f 17       		.uleb128 0x17
 2232 0e60 7A010000 		.4byte	0x17a
 2233 0e64 6F0E0000 		.4byte	0xe6f
 2234 0e68 18       		.uleb128 0x18
 2235 0e69 15020000 		.4byte	0x215
 2236 0e6d 00       		.byte	0
 2237 0e6e 00       		.byte	0
 2238 0e6f 0D       		.uleb128 0xd
 2239 0e70 D50B0000 		.4byte	.LASF239
ARM GAS  /tmp/cchgvlIx.s 			page 43


 2240 0e74 0F       		.byte	0xf
 2241 0e75 1D01     		.2byte	0x11d
 2242 0e77 450B0000 		.4byte	0xb45
 2243 0e7b 24       		.uleb128 0x24
 2244 0e7c DA080000 		.4byte	.LASF240
 2245 0e80 0C       		.byte	0xc
 2246 0e81 0F       		.byte	0xf
 2247 0e82 2101     		.2byte	0x121
 2248 0e84 B00E0000 		.4byte	0xeb0
 2249 0e88 10       		.uleb128 0x10
 2250 0e89 340C0000 		.4byte	.LASF173
 2251 0e8d 0F       		.byte	0xf
 2252 0e8e 2301     		.2byte	0x123
 2253 0e90 B00E0000 		.4byte	0xeb0
 2254 0e94 00       		.byte	0
 2255 0e95 10       		.uleb128 0x10
 2256 0e96 4E080000 		.4byte	.LASF241
 2257 0e9a 0F       		.byte	0xf
 2258 0e9b 2401     		.2byte	0x124
 2259 0e9d CC010000 		.4byte	0x1cc
 2260 0ea1 04       		.byte	0x4
 2261 0ea2 10       		.uleb128 0x10
 2262 0ea3 D4080000 		.4byte	.LASF242
 2263 0ea7 0F       		.byte	0xf
 2264 0ea8 2501     		.2byte	0x125
 2265 0eaa B60E0000 		.4byte	0xeb6
 2266 0eae 08       		.byte	0x8
 2267 0eaf 00       		.byte	0
 2268 0eb0 1B       		.uleb128 0x1b
 2269 0eb1 04       		.byte	0x4
 2270 0eb2 7B0E0000 		.4byte	0xe7b
 2271 0eb6 1B       		.uleb128 0x1b
 2272 0eb7 04       		.byte	0x4
 2273 0eb8 6F0E0000 		.4byte	0xe6f
 2274 0ebc 24       		.uleb128 0x24
 2275 0ebd D30A0000 		.4byte	.LASF243
 2276 0ec1 0E       		.byte	0xe
 2277 0ec2 0F       		.byte	0xf
 2278 0ec3 3D01     		.2byte	0x13d
 2279 0ec5 F10E0000 		.4byte	0xef1
 2280 0ec9 10       		.uleb128 0x10
 2281 0eca 070A0000 		.4byte	.LASF244
 2282 0ece 0F       		.byte	0xf
 2283 0ecf 3E01     		.2byte	0x13e
 2284 0ed1 F10E0000 		.4byte	0xef1
 2285 0ed5 00       		.byte	0
 2286 0ed6 10       		.uleb128 0x10
 2287 0ed7 0C010000 		.4byte	.LASF245
 2288 0edb 0F       		.byte	0xf
 2289 0edc 3F01     		.2byte	0x13f
 2290 0ede F10E0000 		.4byte	0xef1
 2291 0ee2 06       		.byte	0x6
 2292 0ee3 10       		.uleb128 0x10
 2293 0ee4 210E0000 		.4byte	.LASF246
 2294 0ee8 0F       		.byte	0xf
 2295 0ee9 4001     		.2byte	0x140
 2296 0eeb 93010000 		.4byte	0x193
ARM GAS  /tmp/cchgvlIx.s 			page 44


 2297 0eef 0C       		.byte	0xc
 2298 0ef0 00       		.byte	0
 2299 0ef1 17       		.uleb128 0x17
 2300 0ef2 93010000 		.4byte	0x193
 2301 0ef6 010F0000 		.4byte	0xf01
 2302 0efa 18       		.uleb128 0x18
 2303 0efb 15020000 		.4byte	0x215
 2304 0eff 02       		.byte	0x2
 2305 0f00 00       		.byte	0
 2306 0f01 0E       		.uleb128 0xe
 2307 0f02 D0       		.byte	0xd0
 2308 0f03 0F       		.byte	0xf
 2309 0f04 5702     		.2byte	0x257
 2310 0f06 02100000 		.4byte	0x1002
 2311 0f0a 10       		.uleb128 0x10
 2312 0f0b 04030000 		.4byte	.LASF247
 2313 0f0f 0F       		.byte	0xf
 2314 0f10 5902     		.2byte	0x259
 2315 0f12 D3010000 		.4byte	0x1d3
 2316 0f16 00       		.byte	0
 2317 0f17 10       		.uleb128 0x10
 2318 0f18 A80B0000 		.4byte	.LASF248
 2319 0f1c 0F       		.byte	0xf
 2320 0f1d 5A02     		.2byte	0x25a
 2321 0f1f CA0D0000 		.4byte	0xdca
 2322 0f23 04       		.byte	0x4
 2323 0f24 10       		.uleb128 0x10
 2324 0f25 7B000000 		.4byte	.LASF249
 2325 0f29 0F       		.byte	0xf
 2326 0f2a 5B02     		.2byte	0x25b
 2327 0f2c 02100000 		.4byte	0x1002
 2328 0f30 08       		.byte	0x8
 2329 0f31 10       		.uleb128 0x10
 2330 0f32 57020000 		.4byte	.LASF250
 2331 0f36 0F       		.byte	0xf
 2332 0f37 5C02     		.2byte	0x25c
 2333 0f39 F6090000 		.4byte	0x9f6
 2334 0f3d 24       		.byte	0x24
 2335 0f3e 10       		.uleb128 0x10
 2336 0f3f 99080000 		.4byte	.LASF251
 2337 0f43 0F       		.byte	0xf
 2338 0f44 5D02     		.2byte	0x25d
 2339 0f46 CC010000 		.4byte	0x1cc
 2340 0f4a 48       		.byte	0x48
 2341 0f4b 10       		.uleb128 0x10
 2342 0f4c 8B090000 		.4byte	.LASF252
 2343 0f50 0F       		.byte	0xf
 2344 0f51 5E02     		.2byte	0x25e
 2345 0f53 C5010000 		.4byte	0x1c5
 2346 0f57 50       		.byte	0x50
 2347 0f58 10       		.uleb128 0x10
 2348 0f59 0D0C0000 		.4byte	.LASF253
 2349 0f5d 0F       		.byte	0xf
 2350 0f5e 5F02     		.2byte	0x25f
 2351 0f60 BC0E0000 		.4byte	0xebc
 2352 0f64 58       		.byte	0x58
 2353 0f65 10       		.uleb128 0x10
ARM GAS  /tmp/cchgvlIx.s 			page 45


 2354 0f66 E70C0000 		.4byte	.LASF254
 2355 0f6a 0F       		.byte	0xf
 2356 0f6b 6002     		.2byte	0x260
 2357 0f6d 6C090000 		.4byte	0x96c
 2358 0f71 68       		.byte	0x68
 2359 0f72 10       		.uleb128 0x10
 2360 0f73 700A0000 		.4byte	.LASF255
 2361 0f77 0F       		.byte	0xf
 2362 0f78 6102     		.2byte	0x261
 2363 0f7a 6C090000 		.4byte	0x96c
 2364 0f7e 70       		.byte	0x70
 2365 0f7f 10       		.uleb128 0x10
 2366 0f80 74090000 		.4byte	.LASF256
 2367 0f84 0F       		.byte	0xf
 2368 0f85 6202     		.2byte	0x262
 2369 0f87 6C090000 		.4byte	0x96c
 2370 0f8b 78       		.byte	0x78
 2371 0f8c 10       		.uleb128 0x10
 2372 0f8d D0000000 		.4byte	.LASF257
 2373 0f91 0F       		.byte	0xf
 2374 0f92 6302     		.2byte	0x263
 2375 0f94 12100000 		.4byte	0x1012
 2376 0f98 80       		.byte	0x80
 2377 0f99 10       		.uleb128 0x10
 2378 0f9a 54070000 		.4byte	.LASF258
 2379 0f9e 0F       		.byte	0xf
 2380 0f9f 6402     		.2byte	0x264
 2381 0fa1 22100000 		.4byte	0x1022
 2382 0fa5 88       		.byte	0x88
 2383 0fa6 10       		.uleb128 0x10
 2384 0fa7 F90E0000 		.4byte	.LASF259
 2385 0fab 0F       		.byte	0xf
 2386 0fac 6502     		.2byte	0x265
 2387 0fae CC010000 		.4byte	0x1cc
 2388 0fb2 A0       		.byte	0xa0
 2389 0fb3 10       		.uleb128 0x10
 2390 0fb4 FA010000 		.4byte	.LASF260
 2391 0fb8 0F       		.byte	0xf
 2392 0fb9 6602     		.2byte	0x266
 2393 0fbb 6C090000 		.4byte	0x96c
 2394 0fbf A4       		.byte	0xa4
 2395 0fc0 10       		.uleb128 0x10
 2396 0fc1 C10B0000 		.4byte	.LASF261
 2397 0fc5 0F       		.byte	0xf
 2398 0fc6 6702     		.2byte	0x267
 2399 0fc8 6C090000 		.4byte	0x96c
 2400 0fcc AC       		.byte	0xac
 2401 0fcd 10       		.uleb128 0x10
 2402 0fce AF0E0000 		.4byte	.LASF262
 2403 0fd2 0F       		.byte	0xf
 2404 0fd3 6802     		.2byte	0x268
 2405 0fd5 6C090000 		.4byte	0x96c
 2406 0fd9 B4       		.byte	0xb4
 2407 0fda 10       		.uleb128 0x10
 2408 0fdb DC0B0000 		.4byte	.LASF263
 2409 0fdf 0F       		.byte	0xf
 2410 0fe0 6902     		.2byte	0x269
ARM GAS  /tmp/cchgvlIx.s 			page 46


 2411 0fe2 6C090000 		.4byte	0x96c
 2412 0fe6 BC       		.byte	0xbc
 2413 0fe7 10       		.uleb128 0x10
 2414 0fe8 B0000000 		.4byte	.LASF264
 2415 0fec 0F       		.byte	0xf
 2416 0fed 6A02     		.2byte	0x26a
 2417 0fef 6C090000 		.4byte	0x96c
 2418 0ff3 C4       		.byte	0xc4
 2419 0ff4 10       		.uleb128 0x10
 2420 0ff5 12090000 		.4byte	.LASF265
 2421 0ff9 0F       		.byte	0xf
 2422 0ffa 6B02     		.2byte	0x26b
 2423 0ffc CC010000 		.4byte	0x1cc
 2424 1000 CC       		.byte	0xcc
 2425 1001 00       		.byte	0
 2426 1002 17       		.uleb128 0x17
 2427 1003 D00D0000 		.4byte	0xdd0
 2428 1007 12100000 		.4byte	0x1012
 2429 100b 18       		.uleb128 0x18
 2430 100c 15020000 		.4byte	0x215
 2431 1010 19       		.byte	0x19
 2432 1011 00       		.byte	0
 2433 1012 17       		.uleb128 0x17
 2434 1013 D00D0000 		.4byte	0xdd0
 2435 1017 22100000 		.4byte	0x1022
 2436 101b 18       		.uleb128 0x18
 2437 101c 15020000 		.4byte	0x215
 2438 1020 07       		.byte	0x7
 2439 1021 00       		.byte	0
 2440 1022 17       		.uleb128 0x17
 2441 1023 D00D0000 		.4byte	0xdd0
 2442 1027 32100000 		.4byte	0x1032
 2443 102b 18       		.uleb128 0x18
 2444 102c 15020000 		.4byte	0x215
 2445 1030 17       		.byte	0x17
 2446 1031 00       		.byte	0
 2447 1032 0E       		.uleb128 0xe
 2448 1033 F0       		.byte	0xf0
 2449 1034 0F       		.byte	0xf
 2450 1035 7002     		.2byte	0x270
 2451 1037 56100000 		.4byte	0x1056
 2452 103b 10       		.uleb128 0x10
 2453 103c A40D0000 		.4byte	.LASF266
 2454 1040 0F       		.byte	0xf
 2455 1041 7302     		.2byte	0x273
 2456 1043 56100000 		.4byte	0x1056
 2457 1047 00       		.byte	0
 2458 1048 10       		.uleb128 0x10
 2459 1049 67080000 		.4byte	.LASF267
 2460 104d 0F       		.byte	0xf
 2461 104e 7402     		.2byte	0x274
 2462 1050 66100000 		.4byte	0x1066
 2463 1054 78       		.byte	0x78
 2464 1055 00       		.byte	0
 2465 1056 17       		.uleb128 0x17
 2466 1057 3F0B0000 		.4byte	0xb3f
 2467 105b 66100000 		.4byte	0x1066
ARM GAS  /tmp/cchgvlIx.s 			page 47


 2468 105f 18       		.uleb128 0x18
 2469 1060 15020000 		.4byte	0x215
 2470 1064 1D       		.byte	0x1d
 2471 1065 00       		.byte	0
 2472 1066 17       		.uleb128 0x17
 2473 1067 D3010000 		.4byte	0x1d3
 2474 106b 76100000 		.4byte	0x1076
 2475 106f 18       		.uleb128 0x18
 2476 1070 15020000 		.4byte	0x215
 2477 1074 1D       		.byte	0x1d
 2478 1075 00       		.byte	0
 2479 1076 25       		.uleb128 0x25
 2480 1077 F0       		.byte	0xf0
 2481 1078 0F       		.byte	0xf
 2482 1079 5502     		.2byte	0x255
 2483 107b 98100000 		.4byte	0x1098
 2484 107f 26       		.uleb128 0x26
 2485 1080 05040000 		.4byte	.LASF216
 2486 1084 0F       		.byte	0xf
 2487 1085 6C02     		.2byte	0x26c
 2488 1087 010F0000 		.4byte	0xf01
 2489 108b 26       		.uleb128 0x26
 2490 108c A3000000 		.4byte	.LASF268
 2491 1090 0F       		.byte	0xf
 2492 1091 7502     		.2byte	0x275
 2493 1093 32100000 		.4byte	0x1032
 2494 1097 00       		.byte	0
 2495 1098 17       		.uleb128 0x17
 2496 1099 D00D0000 		.4byte	0xdd0
 2497 109d A8100000 		.4byte	0x10a8
 2498 10a1 18       		.uleb128 0x18
 2499 10a2 15020000 		.4byte	0x215
 2500 10a6 18       		.byte	0x18
 2501 10a7 00       		.byte	0
 2502 10a8 27       		.uleb128 0x27
 2503 10a9 B3100000 		.4byte	0x10b3
 2504 10ad 20       		.uleb128 0x20
 2505 10ae 8D0C0000 		.4byte	0xc8d
 2506 10b2 00       		.byte	0
 2507 10b3 1B       		.uleb128 0x1b
 2508 10b4 04       		.byte	0x4
 2509 10b5 A8100000 		.4byte	0x10a8
 2510 10b9 1B       		.uleb128 0x1b
 2511 10ba 04       		.byte	0x4
 2512 10bb E0090000 		.4byte	0x9e0
 2513 10bf 27       		.uleb128 0x27
 2514 10c0 CA100000 		.4byte	0x10ca
 2515 10c4 20       		.uleb128 0x20
 2516 10c5 CC010000 		.4byte	0x1cc
 2517 10c9 00       		.byte	0
 2518 10ca 1B       		.uleb128 0x1b
 2519 10cb 04       		.byte	0x4
 2520 10cc D0100000 		.4byte	0x10d0
 2521 10d0 1B       		.uleb128 0x1b
 2522 10d1 04       		.byte	0x4
 2523 10d2 BF100000 		.4byte	0x10bf
 2524 10d6 17       		.uleb128 0x17
ARM GAS  /tmp/cchgvlIx.s 			page 48


 2525 10d7 6F0E0000 		.4byte	0xe6f
 2526 10db E6100000 		.4byte	0x10e6
 2527 10df 18       		.uleb128 0x18
 2528 10e0 15020000 		.4byte	0x215
 2529 10e4 02       		.byte	0x2
 2530 10e5 00       		.byte	0
 2531 10e6 09       		.uleb128 0x9
 2532 10e7 23020000 		.4byte	.LASF269
 2533 10eb 0F       		.byte	0xf
 2534 10ec FD02     		.2byte	0x2fd
 2535 10ee 8D0C0000 		.4byte	0xc8d
 2536 10f2 09       		.uleb128 0x9
 2537 10f3 0C040000 		.4byte	.LASF270
 2538 10f7 0F       		.byte	0xf
 2539 10f8 FE02     		.2byte	0x2fe
 2540 10fa 930C0000 		.4byte	0xc93
 2541 10fe 0A       		.uleb128 0xa
 2542 10ff 2C0D0000 		.4byte	.LASF271
 2543 1103 10       		.byte	0x10
 2544 1104 5F       		.byte	0x5f
 2545 1105 CA0D0000 		.4byte	0xdca
 2546 1109 05       		.uleb128 0x5
 2547 110a 08       		.byte	0x8
 2548 110b 04       		.byte	0x4
 2549 110c 70080000 		.4byte	.LASF272
 2550 1110 05       		.uleb128 0x5
 2551 1111 04       		.byte	0x4
 2552 1112 04       		.byte	0x4
 2553 1113 01090000 		.4byte	.LASF273
 2554 1117 28       		.uleb128 0x28
 2555 1118 590B0000 		.4byte	.LASF275
 2556 111c 01       		.byte	0x1
 2557 111d 68010000 		.4byte	0x168
 2558 1121 11       		.byte	0x11
 2559 1122 9902     		.2byte	0x299
 2560 1124 41110000 		.4byte	0x1141
 2561 1128 03       		.uleb128 0x3
 2562 1129 8F0D0000 		.4byte	.LASF276
 2563 112d 7F       		.sleb128 -1
 2564 112e 04       		.uleb128 0x4
 2565 112f 04080000 		.4byte	.LASF277
 2566 1133 00       		.byte	0
 2567 1134 04       		.uleb128 0x4
 2568 1135 070D0000 		.4byte	.LASF278
 2569 1139 01       		.byte	0x1
 2570 113a 04       		.uleb128 0x4
 2571 113b B40C0000 		.4byte	.LASF279
 2572 113f 02       		.byte	0x2
 2573 1140 00       		.byte	0
 2574 1141 09       		.uleb128 0x9
 2575 1142 67060000 		.4byte	.LASF280
 2576 1146 11       		.byte	0x11
 2577 1147 A402     		.2byte	0x2a4
 2578 1149 17110000 		.4byte	0x1117
 2579 114d 17       		.uleb128 0x17
 2580 114e 060E0000 		.4byte	0xe06
 2581 1152 58110000 		.4byte	0x1158
ARM GAS  /tmp/cchgvlIx.s 			page 49


 2582 1156 29       		.uleb128 0x29
 2583 1157 00       		.byte	0
 2584 1158 21       		.uleb128 0x21
 2585 1159 4D110000 		.4byte	0x114d
 2586 115d 0A       		.uleb128 0xa
 2587 115e 6B070000 		.4byte	.LASF281
 2588 1162 12       		.byte	0x12
 2589 1163 14       		.byte	0x14
 2590 1164 58110000 		.4byte	0x1158
 2591 1168 0A       		.uleb128 0xa
 2592 1169 28080000 		.4byte	.LASF282
 2593 116d 12       		.byte	0x12
 2594 116e 15       		.byte	0x15
 2595 116f CC010000 		.4byte	0x1cc
 2596 1173 2A       		.uleb128 0x2a
 2597 1174 F6090000 		.4byte	.LASF283
 2598 1178 01       		.byte	0x1
 2599 1179 03       		.byte	0x3
 2600 117a 8D020000 		.4byte	0x28d
 2601 117e 05       		.uleb128 0x5
 2602 117f 03       		.byte	0x3
 2603 1180 00000000 		.4byte	HSEStartUpStatus
 2604 1184 2B       		.uleb128 0x2b
 2605 1185 29000000 		.4byte	.LASF284
 2606 1189 01       		.byte	0x1
 2607 118a 82       		.byte	0x82
 2608 118b D8010000 		.4byte	.LFB69
 2609 118f 30000000 		.4byte	.LFE69-.LFB69
 2610 1193 01       		.uleb128 0x1
 2611 1194 9C       		.byte	0x9c
 2612 1195 D2110000 		.4byte	0x11d2
 2613 1199 2C       		.uleb128 0x2c
 2614 119a 61010000 		.4byte	.LASF286
 2615 119e 01       		.byte	0x1
 2616 119f 84       		.byte	0x84
 2617 11a0 DB080000 		.4byte	0x8db
 2618 11a4 02       		.uleb128 0x2
 2619 11a5 91       		.byte	0x91
 2620 11a6 74       		.sleb128 -12
 2621 11a7 2D       		.uleb128 0x2d
 2622 11a8 E6010000 		.4byte	.LVL30
 2623 11ac 11150000 		.4byte	0x1511
 2624 11b0 C1110000 		.4byte	0x11c1
 2625 11b4 2E       		.uleb128 0x2e
 2626 11b5 01       		.uleb128 0x1
 2627 11b6 50       		.byte	0x50
 2628 11b7 03       		.uleb128 0x3
 2629 11b8 40       		.byte	0x40
 2630 11b9 47       		.byte	0x47
 2631 11ba 24       		.byte	0x24
 2632 11bb 2E       		.uleb128 0x2e
 2633 11bc 01       		.uleb128 0x1
 2634 11bd 51       		.byte	0x51
 2635 11be 01       		.uleb128 0x1
 2636 11bf 30       		.byte	0x30
 2637 11c0 00       		.byte	0
 2638 11c1 2F       		.uleb128 0x2f
ARM GAS  /tmp/cchgvlIx.s 			page 50


 2639 11c2 02020000 		.4byte	.LVL31
 2640 11c6 1C150000 		.4byte	0x151c
 2641 11ca 2E       		.uleb128 0x2e
 2642 11cb 01       		.uleb128 0x1
 2643 11cc 50       		.byte	0x50
 2644 11cd 02       		.uleb128 0x2
 2645 11ce 91       		.byte	0x91
 2646 11cf 74       		.sleb128 -12
 2647 11d0 00       		.byte	0
 2648 11d1 00       		.byte	0
 2649 11d2 2B       		.uleb128 0x2b
 2650 11d3 2F020000 		.4byte	.LASF285
 2651 11d7 01       		.byte	0x1
 2652 11d8 69       		.byte	0x69
 2653 11d9 6E010000 		.4byte	.LFB68
 2654 11dd 6A000000 		.4byte	.LFE68-.LFB68
 2655 11e1 01       		.uleb128 0x1
 2656 11e2 9C       		.byte	0x9c
 2657 11e3 6E120000 		.4byte	0x126e
 2658 11e7 2C       		.uleb128 0x2c
 2659 11e8 730B0000 		.4byte	.LASF287
 2660 11ec 01       		.byte	0x1
 2661 11ed 6B       		.byte	0x6b
 2662 11ee 3B080000 		.4byte	0x83b
 2663 11f2 02       		.uleb128 0x2
 2664 11f3 91       		.byte	0x91
 2665 11f4 6C       		.sleb128 -20
 2666 11f5 2D       		.uleb128 0x2d
 2667 11f6 90010000 		.4byte	.LVL26
 2668 11fa 27150000 		.4byte	0x1527
 2669 11fe 14120000 		.4byte	0x1214
 2670 1202 2E       		.uleb128 0x2e
 2671 1203 01       		.uleb128 0x1
 2672 1204 50       		.byte	0x50
 2673 1205 02       		.uleb128 0x2
 2674 1206 74       		.byte	0x74
 2675 1207 00       		.sleb128 0
 2676 1208 2E       		.uleb128 0x2e
 2677 1209 01       		.uleb128 0x1
 2678 120a 51       		.byte	0x51
 2679 120b 07       		.uleb128 0x7
 2680 120c 91       		.byte	0x91
 2681 120d 00       		.sleb128 0
 2682 120e 75       		.byte	0x75
 2683 120f 00       		.sleb128 0
 2684 1210 22       		.byte	0x22
 2685 1211 48       		.byte	0x48
 2686 1212 1C       		.byte	0x1c
 2687 1213 00       		.byte	0
 2688 1214 2D       		.uleb128 0x2d
 2689 1215 A4010000 		.4byte	.LVL27
 2690 1219 27150000 		.4byte	0x1527
 2691 121d 33120000 		.4byte	0x1233
 2692 1221 2E       		.uleb128 0x2e
 2693 1222 01       		.uleb128 0x1
 2694 1223 50       		.byte	0x50
 2695 1224 02       		.uleb128 0x2
ARM GAS  /tmp/cchgvlIx.s 			page 51


 2696 1225 74       		.byte	0x74
 2697 1226 00       		.sleb128 0
 2698 1227 2E       		.uleb128 0x2e
 2699 1228 01       		.uleb128 0x1
 2700 1229 51       		.byte	0x51
 2701 122a 07       		.uleb128 0x7
 2702 122b 91       		.byte	0x91
 2703 122c 00       		.sleb128 0
 2704 122d 75       		.byte	0x75
 2705 122e 00       		.sleb128 0
 2706 122f 22       		.byte	0x22
 2707 1230 48       		.byte	0x48
 2708 1231 1C       		.byte	0x1c
 2709 1232 00       		.byte	0
 2710 1233 2D       		.uleb128 0x2d
 2711 1234 BA010000 		.4byte	.LVL28
 2712 1238 27150000 		.4byte	0x1527
 2713 123c 52120000 		.4byte	0x1252
 2714 1240 2E       		.uleb128 0x2e
 2715 1241 01       		.uleb128 0x1
 2716 1242 50       		.byte	0x50
 2717 1243 02       		.uleb128 0x2
 2718 1244 74       		.byte	0x74
 2719 1245 00       		.sleb128 0
 2720 1246 2E       		.uleb128 0x2e
 2721 1247 01       		.uleb128 0x1
 2722 1248 51       		.byte	0x51
 2723 1249 07       		.uleb128 0x7
 2724 124a 91       		.byte	0x91
 2725 124b 00       		.sleb128 0
 2726 124c 75       		.byte	0x75
 2727 124d 00       		.sleb128 0
 2728 124e 22       		.byte	0x22
 2729 124f 48       		.byte	0x48
 2730 1250 1C       		.byte	0x1c
 2731 1251 00       		.byte	0
 2732 1252 2F       		.uleb128 0x2f
 2733 1253 CE010000 		.4byte	.LVL29
 2734 1257 27150000 		.4byte	0x1527
 2735 125b 2E       		.uleb128 0x2e
 2736 125c 01       		.uleb128 0x1
 2737 125d 50       		.byte	0x50
 2738 125e 02       		.uleb128 0x2
 2739 125f 74       		.byte	0x74
 2740 1260 00       		.sleb128 0
 2741 1261 2E       		.uleb128 0x2e
 2742 1262 01       		.uleb128 0x1
 2743 1263 51       		.byte	0x51
 2744 1264 07       		.uleb128 0x7
 2745 1265 91       		.byte	0x91
 2746 1266 00       		.sleb128 0
 2747 1267 75       		.byte	0x75
 2748 1268 00       		.sleb128 0
 2749 1269 22       		.byte	0x22
 2750 126a 48       		.byte	0x48
 2751 126b 1C       		.byte	0x1c
 2752 126c 00       		.byte	0
ARM GAS  /tmp/cchgvlIx.s 			page 52


 2753 126d 00       		.byte	0
 2754 126e 2B       		.uleb128 0x2b
 2755 126f 81060000 		.4byte	.LASF288
 2756 1273 01       		.byte	0x1
 2757 1274 58       		.byte	0x58
 2758 1275 28010000 		.4byte	.LFB67
 2759 1279 46000000 		.4byte	.LFE67-.LFB67
 2760 127d 01       		.uleb128 0x1
 2761 127e 9C       		.byte	0x9c
 2762 127f E2120000 		.4byte	0x12e2
 2763 1283 2C       		.uleb128 0x2c
 2764 1284 E4010000 		.4byte	.LASF289
 2765 1288 01       		.byte	0x1
 2766 1289 5A       		.byte	0x5a
 2767 128a 91070000 		.4byte	0x791
 2768 128e 02       		.uleb128 0x2
 2769 128f 91       		.byte	0x91
 2770 1290 6C       		.sleb128 -20
 2771 1291 2D       		.uleb128 0x2d
 2772 1292 52010000 		.4byte	.LVL23
 2773 1296 33150000 		.4byte	0x1533
 2774 129a AC120000 		.4byte	0x12ac
 2775 129e 2E       		.uleb128 0x2e
 2776 129f 01       		.uleb128 0x1
 2777 12a0 50       		.byte	0x50
 2778 12a1 03       		.uleb128 0x3
 2779 12a2 40       		.byte	0x40
 2780 12a3 4A       		.byte	0x4a
 2781 12a4 24       		.byte	0x24
 2782 12a5 2E       		.uleb128 0x2e
 2783 12a6 01       		.uleb128 0x1
 2784 12a7 51       		.byte	0x51
 2785 12a8 02       		.uleb128 0x2
 2786 12a9 91       		.byte	0x91
 2787 12aa 6C       		.sleb128 -20
 2788 12ab 00       		.byte	0
 2789 12ac 2D       		.uleb128 0x2d
 2790 12ad 5C010000 		.4byte	.LVL24
 2791 12b1 3F150000 		.4byte	0x153f
 2792 12b5 C6120000 		.4byte	0x12c6
 2793 12b9 2E       		.uleb128 0x2e
 2794 12ba 01       		.uleb128 0x1
 2795 12bb 50       		.byte	0x50
 2796 12bc 03       		.uleb128 0x3
 2797 12bd 40       		.byte	0x40
 2798 12be 4A       		.byte	0x4a
 2799 12bf 24       		.byte	0x24
 2800 12c0 2E       		.uleb128 0x2e
 2801 12c1 01       		.uleb128 0x1
 2802 12c2 51       		.byte	0x51
 2803 12c3 01       		.uleb128 0x1
 2804 12c4 31       		.byte	0x31
 2805 12c5 00       		.byte	0
 2806 12c6 2F       		.uleb128 0x2f
 2807 12c7 68010000 		.4byte	.LVL25
 2808 12cb 4B150000 		.4byte	0x154b
 2809 12cf 2E       		.uleb128 0x2e
ARM GAS  /tmp/cchgvlIx.s 			page 53


 2810 12d0 01       		.uleb128 0x1
 2811 12d1 50       		.byte	0x50
 2812 12d2 03       		.uleb128 0x3
 2813 12d3 40       		.byte	0x40
 2814 12d4 4A       		.byte	0x4a
 2815 12d5 24       		.byte	0x24
 2816 12d6 2E       		.uleb128 0x2e
 2817 12d7 01       		.uleb128 0x1
 2818 12d8 51       		.byte	0x51
 2819 12d9 01       		.uleb128 0x1
 2820 12da 31       		.byte	0x31
 2821 12db 2E       		.uleb128 0x2e
 2822 12dc 01       		.uleb128 0x1
 2823 12dd 52       		.byte	0x52
 2824 12de 01       		.uleb128 0x1
 2825 12df 31       		.byte	0x31
 2826 12e0 00       		.byte	0
 2827 12e1 00       		.byte	0
 2828 12e2 2B       		.uleb128 0x2b
 2829 12e3 3B090000 		.4byte	.LASF290
 2830 12e7 01       		.byte	0x1
 2831 12e8 28       		.byte	0x28
 2832 12e9 88000000 		.4byte	.LFB66
 2833 12ed A0000000 		.4byte	.LFE66-.LFB66
 2834 12f1 01       		.uleb128 0x1
 2835 12f2 9C       		.byte	0x9c
 2836 12f3 6B140000 		.4byte	0x146b
 2837 12f7 30       		.uleb128 0x30
 2838 12f8 8E000000 		.4byte	.LVL4
 2839 12fc 57150000 		.4byte	0x1557
 2840 1300 2D       		.uleb128 0x2d
 2841 1301 96000000 		.4byte	.LVL5
 2842 1305 63150000 		.4byte	0x1563
 2843 1309 15130000 		.4byte	0x1315
 2844 130d 2E       		.uleb128 0x2e
 2845 130e 01       		.uleb128 0x1
 2846 130f 50       		.byte	0x50
 2847 1310 03       		.uleb128 0x3
 2848 1311 40       		.byte	0x40
 2849 1312 3C       		.byte	0x3c
 2850 1313 24       		.byte	0x24
 2851 1314 00       		.byte	0
 2852 1315 30       		.uleb128 0x30
 2853 1316 9A000000 		.4byte	.LVL6
 2854 131a 6F150000 		.4byte	0x156f
 2855 131e 2D       		.uleb128 0x2d
 2856 131f AA000000 		.4byte	.LVL7
 2857 1323 7B150000 		.4byte	0x157b
 2858 1327 36130000 		.4byte	0x1336
 2859 132b 2E       		.uleb128 0x2e
 2860 132c 01       		.uleb128 0x1
 2861 132d 50       		.byte	0x50
 2862 132e 01       		.uleb128 0x1
 2863 132f 31       		.byte	0x31
 2864 1330 2E       		.uleb128 0x2e
 2865 1331 01       		.uleb128 0x1
 2866 1332 51       		.byte	0x51
ARM GAS  /tmp/cchgvlIx.s 			page 54


 2867 1333 01       		.uleb128 0x1
 2868 1334 31       		.byte	0x31
 2869 1335 00       		.byte	0
 2870 1336 2D       		.uleb128 0x2d
 2871 1337 B2000000 		.4byte	.LVL8
 2872 133b 7B150000 		.4byte	0x157b
 2873 133f 4E130000 		.4byte	0x134e
 2874 1343 2E       		.uleb128 0x2e
 2875 1344 01       		.uleb128 0x1
 2876 1345 50       		.byte	0x50
 2877 1346 01       		.uleb128 0x1
 2878 1347 34       		.byte	0x34
 2879 1348 2E       		.uleb128 0x2e
 2880 1349 01       		.uleb128 0x1
 2881 134a 51       		.byte	0x51
 2882 134b 01       		.uleb128 0x1
 2883 134c 31       		.byte	0x31
 2884 134d 00       		.byte	0
 2885 134e 2D       		.uleb128 0x2d
 2886 134f BC000000 		.4byte	.LVL9
 2887 1353 87150000 		.4byte	0x1587
 2888 1357 68130000 		.4byte	0x1368
 2889 135b 2E       		.uleb128 0x2e
 2890 135c 01       		.uleb128 0x1
 2891 135d 50       		.byte	0x50
 2892 135e 03       		.uleb128 0x3
 2893 135f 40       		.byte	0x40
 2894 1360 3D       		.byte	0x3d
 2895 1361 24       		.byte	0x24
 2896 1362 2E       		.uleb128 0x2e
 2897 1363 01       		.uleb128 0x1
 2898 1364 51       		.byte	0x51
 2899 1365 01       		.uleb128 0x1
 2900 1366 31       		.byte	0x31
 2901 1367 00       		.byte	0
 2902 1368 2D       		.uleb128 0x2d
 2903 1369 C4000000 		.4byte	.LVL10
 2904 136d 87150000 		.4byte	0x1587
 2905 1371 80130000 		.4byte	0x1380
 2906 1375 2E       		.uleb128 0x2e
 2907 1376 01       		.uleb128 0x1
 2908 1377 50       		.byte	0x50
 2909 1378 01       		.uleb128 0x1
 2910 1379 31       		.byte	0x31
 2911 137a 2E       		.uleb128 0x2e
 2912 137b 01       		.uleb128 0x1
 2913 137c 51       		.byte	0x51
 2914 137d 01       		.uleb128 0x1
 2915 137e 31       		.byte	0x31
 2916 137f 00       		.byte	0
 2917 1380 2D       		.uleb128 0x2d
 2918 1381 CC000000 		.4byte	.LVL11
 2919 1385 93150000 		.4byte	0x1593
 2920 1389 93130000 		.4byte	0x1393
 2921 138d 2E       		.uleb128 0x2e
 2922 138e 01       		.uleb128 0x1
 2923 138f 50       		.byte	0x50
ARM GAS  /tmp/cchgvlIx.s 			page 55


 2924 1390 01       		.uleb128 0x1
 2925 1391 40       		.byte	0x40
 2926 1392 00       		.byte	0
 2927 1393 2D       		.uleb128 0x2d
 2928 1394 D2000000 		.4byte	.LVL12
 2929 1398 9F150000 		.4byte	0x159f
 2930 139c A6130000 		.4byte	0x13a6
 2931 13a0 2E       		.uleb128 0x2e
 2932 13a1 01       		.uleb128 0x1
 2933 13a2 50       		.byte	0x50
 2934 13a3 01       		.uleb128 0x1
 2935 13a4 32       		.byte	0x32
 2936 13a5 00       		.byte	0
 2937 13a6 2D       		.uleb128 0x2d
 2938 13a7 D8000000 		.4byte	.LVL13
 2939 13ab AB150000 		.4byte	0x15ab
 2940 13af B9130000 		.4byte	0x13b9
 2941 13b3 2E       		.uleb128 0x2e
 2942 13b4 01       		.uleb128 0x1
 2943 13b5 50       		.byte	0x50
 2944 13b6 01       		.uleb128 0x1
 2945 13b7 30       		.byte	0x30
 2946 13b8 00       		.byte	0
 2947 13b9 2D       		.uleb128 0x2d
 2948 13ba DE000000 		.4byte	.LVL14
 2949 13be B7150000 		.4byte	0x15b7
 2950 13c2 CC130000 		.4byte	0x13cc
 2951 13c6 2E       		.uleb128 0x2e
 2952 13c7 01       		.uleb128 0x1
 2953 13c8 50       		.byte	0x50
 2954 13c9 01       		.uleb128 0x1
 2955 13ca 30       		.byte	0x30
 2956 13cb 00       		.byte	0
 2957 13cc 2D       		.uleb128 0x2d
 2958 13cd E6000000 		.4byte	.LVL15
 2959 13d1 C3150000 		.4byte	0x15c3
 2960 13d5 E1130000 		.4byte	0x13e1
 2961 13d9 2E       		.uleb128 0x2e
 2962 13da 01       		.uleb128 0x1
 2963 13db 50       		.byte	0x50
 2964 13dc 03       		.uleb128 0x3
 2965 13dd 0A       		.byte	0xa
 2966 13de 0004     		.2byte	0x400
 2967 13e0 00       		.byte	0
 2968 13e1 2D       		.uleb128 0x2d
 2969 13e2 EE000000 		.4byte	.LVL16
 2970 13e6 CF150000 		.4byte	0x15cf
 2971 13ea F6130000 		.4byte	0x13f6
 2972 13ee 2E       		.uleb128 0x2e
 2973 13ef 01       		.uleb128 0x1
 2974 13f0 50       		.byte	0x50
 2975 13f1 03       		.uleb128 0x3
 2976 13f2 0A       		.byte	0xa
 2977 13f3 0040     		.2byte	0x4000
 2978 13f5 00       		.byte	0
 2979 13f6 2D       		.uleb128 0x2d
 2980 13f7 FA000000 		.4byte	.LVL17
ARM GAS  /tmp/cchgvlIx.s 			page 56


 2981 13fb DB150000 		.4byte	0x15db
 2982 13ff 12140000 		.4byte	0x1412
 2983 1403 2E       		.uleb128 0x2e
 2984 1404 01       		.uleb128 0x1
 2985 1405 50       		.byte	0x50
 2986 1406 03       		.uleb128 0x3
 2987 1407 40       		.byte	0x40
 2988 1408 3C       		.byte	0x3c
 2989 1409 24       		.byte	0x24
 2990 140a 2E       		.uleb128 0x2e
 2991 140b 01       		.uleb128 0x1
 2992 140c 51       		.byte	0x51
 2993 140d 03       		.uleb128 0x3
 2994 140e 4C       		.byte	0x4c
 2995 140f 40       		.byte	0x40
 2996 1410 24       		.byte	0x24
 2997 1411 00       		.byte	0
 2998 1412 2D       		.uleb128 0x2d
 2999 1413 02010000 		.4byte	.LVL18
 3000 1417 CF150000 		.4byte	0x15cf
 3001 141b 27140000 		.4byte	0x1427
 3002 141f 2E       		.uleb128 0x2e
 3003 1420 01       		.uleb128 0x1
 3004 1421 50       		.byte	0x50
 3005 1422 03       		.uleb128 0x3
 3006 1423 0A       		.byte	0xa
 3007 1424 0040     		.2byte	0x4000
 3008 1426 00       		.byte	0
 3009 1427 2D       		.uleb128 0x2d
 3010 1428 08010000 		.4byte	.LVL19
 3011 142c E7150000 		.4byte	0x15e7
 3012 1430 3A140000 		.4byte	0x143a
 3013 1434 2E       		.uleb128 0x2e
 3014 1435 01       		.uleb128 0x1
 3015 1436 50       		.byte	0x50
 3016 1437 01       		.uleb128 0x1
 3017 1438 31       		.byte	0x31
 3018 1439 00       		.byte	0
 3019 143a 2D       		.uleb128 0x2d
 3020 143b 10010000 		.4byte	.LVL20
 3021 143f F3150000 		.4byte	0x15f3
 3022 1443 4E140000 		.4byte	0x144e
 3023 1447 2E       		.uleb128 0x2e
 3024 1448 01       		.uleb128 0x1
 3025 1449 50       		.byte	0x50
 3026 144a 02       		.uleb128 0x2
 3027 144b 74       		.byte	0x74
 3028 144c 00       		.sleb128 0
 3029 144d 00       		.byte	0
 3030 144e 2D       		.uleb128 0x2d
 3031 144f 1A010000 		.4byte	.LVL21
 3032 1453 FF150000 		.4byte	0x15ff
 3033 1457 61140000 		.4byte	0x1461
 3034 145b 2E       		.uleb128 0x2e
 3035 145c 01       		.uleb128 0x1
 3036 145d 50       		.byte	0x50
 3037 145e 01       		.uleb128 0x1
ARM GAS  /tmp/cchgvlIx.s 			page 57


 3038 145f 32       		.byte	0x32
 3039 1460 00       		.byte	0
 3040 1461 30       		.uleb128 0x30
 3041 1462 1E010000 		.4byte	.LVL22
 3042 1466 0B160000 		.4byte	0x160b
 3043 146a 00       		.byte	0
 3044 146b 2B       		.uleb128 0x2b
 3045 146c 1F040000 		.4byte	.LASF291
 3046 1470 01       		.byte	0x1
 3047 1471 16       		.byte	0x16
 3048 1472 3C000000 		.4byte	.LFB65
 3049 1476 4C000000 		.4byte	.LFE65-.LFB65
 3050 147a 01       		.uleb128 0x1
 3051 147b 9C       		.byte	0x9c
 3052 147c BE140000 		.4byte	0x14be
 3053 1480 2C       		.uleb128 0x2c
 3054 1481 11020000 		.4byte	.LASF292
 3055 1485 01       		.byte	0x1
 3056 1486 18       		.byte	0x18
 3057 1487 41070000 		.4byte	0x741
 3058 148b 02       		.uleb128 0x2
 3059 148c 91       		.byte	0x91
 3060 148d 68       		.sleb128 -24
 3061 148e 2D       		.uleb128 0x2d
 3062 148f 74000000 		.4byte	.LVL2
 3063 1493 17160000 		.4byte	0x1617
 3064 1497 A8140000 		.4byte	0x14a8
 3065 149b 2E       		.uleb128 0x2e
 3066 149c 01       		.uleb128 0x1
 3067 149d 50       		.byte	0x50
 3068 149e 02       		.uleb128 0x2
 3069 149f 74       		.byte	0x74
 3070 14a0 00       		.sleb128 0
 3071 14a1 2E       		.uleb128 0x2e
 3072 14a2 01       		.uleb128 0x1
 3073 14a3 51       		.byte	0x51
 3074 14a4 02       		.uleb128 0x2
 3075 14a5 91       		.byte	0x91
 3076 14a6 68       		.sleb128 -24
 3077 14a7 00       		.byte	0
 3078 14a8 2F       		.uleb128 0x2f
 3079 14a9 7C000000 		.4byte	.LVL3
 3080 14ad 23160000 		.4byte	0x1623
 3081 14b1 2E       		.uleb128 0x2e
 3082 14b2 01       		.uleb128 0x1
 3083 14b3 50       		.byte	0x50
 3084 14b4 02       		.uleb128 0x2
 3085 14b5 74       		.byte	0x74
 3086 14b6 00       		.sleb128 0
 3087 14b7 2E       		.uleb128 0x2e
 3088 14b8 01       		.uleb128 0x1
 3089 14b9 51       		.byte	0x51
 3090 14ba 01       		.uleb128 0x1
 3091 14bb 31       		.byte	0x31
 3092 14bc 00       		.byte	0
 3093 14bd 00       		.byte	0
 3094 14be 2B       		.uleb128 0x2b
ARM GAS  /tmp/cchgvlIx.s 			page 58


 3095 14bf 0D0A0000 		.4byte	.LASF293
 3096 14c3 01       		.byte	0x1
 3097 14c4 05       		.byte	0x5
 3098 14c5 00000000 		.4byte	.LFB64
 3099 14c9 3C000000 		.4byte	.LFE64-.LFB64
 3100 14cd 01       		.uleb128 0x1
 3101 14ce 9C       		.byte	0x9c
 3102 14cf 11150000 		.4byte	0x1511
 3103 14d3 2C       		.uleb128 0x2c
 3104 14d4 A4020000 		.4byte	.LASF294
 3105 14d8 01       		.byte	0x1
 3106 14d9 07       		.byte	0x7
 3107 14da 97080000 		.4byte	0x897
 3108 14de 02       		.uleb128 0x2
 3109 14df 91       		.byte	0x91
 3110 14e0 68       		.sleb128 -24
 3111 14e1 2D       		.uleb128 0x2d
 3112 14e2 2C000000 		.4byte	.LVL0
 3113 14e6 2F160000 		.4byte	0x162f
 3114 14ea FB140000 		.4byte	0x14fb
 3115 14ee 2E       		.uleb128 0x2e
 3116 14ef 01       		.uleb128 0x1
 3117 14f0 50       		.byte	0x50
 3118 14f1 02       		.uleb128 0x2
 3119 14f2 74       		.byte	0x74
 3120 14f3 00       		.sleb128 0
 3121 14f4 2E       		.uleb128 0x2e
 3122 14f5 01       		.uleb128 0x1
 3123 14f6 51       		.byte	0x51
 3124 14f7 02       		.uleb128 0x2
 3125 14f8 7D       		.byte	0x7d
 3126 14f9 00       		.sleb128 0
 3127 14fa 00       		.byte	0
 3128 14fb 2F       		.uleb128 0x2f
 3129 14fc 34000000 		.4byte	.LVL1
 3130 1500 3B160000 		.4byte	0x163b
 3131 1504 2E       		.uleb128 0x2e
 3132 1505 01       		.uleb128 0x1
 3133 1506 50       		.byte	0x50
 3134 1507 02       		.uleb128 0x2
 3135 1508 74       		.byte	0x74
 3136 1509 00       		.sleb128 0
 3137 150a 2E       		.uleb128 0x2e
 3138 150b 01       		.uleb128 0x1
 3139 150c 51       		.byte	0x51
 3140 150d 01       		.uleb128 0x1
 3141 150e 31       		.byte	0x31
 3142 150f 00       		.byte	0
 3143 1510 00       		.byte	0
 3144 1511 31       		.uleb128 0x31
 3145 1512 53060000 		.4byte	.LASF295
 3146 1516 53060000 		.4byte	.LASF295
 3147 151a 0B       		.byte	0xb
 3148 151b C6       		.byte	0xc6
 3149 151c 31       		.uleb128 0x31
 3150 151d 7E0A0000 		.4byte	.LASF296
 3151 1521 7E0A0000 		.4byte	.LASF296
ARM GAS  /tmp/cchgvlIx.s 			page 59


 3152 1525 0B       		.byte	0xb
 3153 1526 C5       		.byte	0xc5
 3154 1527 32       		.uleb128 0x32
 3155 1528 660A0000 		.4byte	.LASF297
 3156 152c 660A0000 		.4byte	.LASF297
 3157 1530 09       		.byte	0x9
 3158 1531 5F01     		.2byte	0x15f
 3159 1533 32       		.uleb128 0x32
 3160 1534 2A050000 		.4byte	.LASF298
 3161 1538 2A050000 		.4byte	.LASF298
 3162 153c 08       		.byte	0x8
 3163 153d 1F04     		.2byte	0x41f
 3164 153f 32       		.uleb128 0x32
 3165 1540 32080000 		.4byte	.LASF299
 3166 1544 32080000 		.4byte	.LASF299
 3167 1548 08       		.byte	0x8
 3168 1549 7704     		.2byte	0x477
 3169 154b 32       		.uleb128 0x32
 3170 154c 920C0000 		.4byte	.LASF300
 3171 1550 920C0000 		.4byte	.LASF300
 3172 1554 08       		.byte	0x8
 3173 1555 2D04     		.2byte	0x42d
 3174 1557 32       		.uleb128 0x32
 3175 1558 90020000 		.4byte	.LASF301
 3176 155c 90020000 		.4byte	.LASF301
 3177 1560 13       		.byte	0x13
 3178 1561 8702     		.2byte	0x287
 3179 1563 32       		.uleb128 0x32
 3180 1564 7B050000 		.4byte	.LASF302
 3181 1568 7B050000 		.4byte	.LASF302
 3182 156c 13       		.byte	0x13
 3183 156d 8802     		.2byte	0x288
 3184 156f 32       		.uleb128 0x32
 3185 1570 430B0000 		.4byte	.LASF303
 3186 1574 430B0000 		.4byte	.LASF303
 3187 1578 13       		.byte	0x13
 3188 1579 8902     		.2byte	0x289
 3189 157b 32       		.uleb128 0x32
 3190 157c A3060000 		.4byte	.LASF304
 3191 1580 A3060000 		.4byte	.LASF304
 3192 1584 13       		.byte	0x13
 3193 1585 B502     		.2byte	0x2b5
 3194 1587 32       		.uleb128 0x32
 3195 1588 58030000 		.4byte	.LASF305
 3196 158c 58030000 		.4byte	.LASF305
 3197 1590 13       		.byte	0x13
 3198 1591 B602     		.2byte	0x2b6
 3199 1593 32       		.uleb128 0x32
 3200 1594 4F000000 		.4byte	.LASF306
 3201 1598 4F000000 		.4byte	.LASF306
 3202 159c 14       		.byte	0x14
 3203 159d 7201     		.2byte	0x172
 3204 159f 32       		.uleb128 0x32
 3205 15a0 D60C0000 		.4byte	.LASF307
 3206 15a4 D60C0000 		.4byte	.LASF307
 3207 15a8 14       		.byte	0x14
 3208 15a9 7001     		.2byte	0x170
ARM GAS  /tmp/cchgvlIx.s 			page 60


 3209 15ab 32       		.uleb128 0x32
 3210 15ac 61050000 		.4byte	.LASF308
 3211 15b0 61050000 		.4byte	.LASF308
 3212 15b4 13       		.byte	0x13
 3213 15b5 9D02     		.2byte	0x29d
 3214 15b7 32       		.uleb128 0x32
 3215 15b8 80020000 		.4byte	.LASF309
 3216 15bc 80020000 		.4byte	.LASF309
 3217 15c0 13       		.byte	0x13
 3218 15c1 9F02     		.2byte	0x29f
 3219 15c3 32       		.uleb128 0x32
 3220 15c4 9C010000 		.4byte	.LASF310
 3221 15c8 9C010000 		.4byte	.LASF310
 3222 15cc 13       		.byte	0x13
 3223 15cd 9E02     		.2byte	0x29e
 3224 15cf 32       		.uleb128 0x32
 3225 15d0 F3020000 		.4byte	.LASF311
 3226 15d4 F3020000 		.4byte	.LASF311
 3227 15d8 13       		.byte	0x13
 3228 15d9 A802     		.2byte	0x2a8
 3229 15db 32       		.uleb128 0x32
 3230 15dc 1C010000 		.4byte	.LASF312
 3231 15e0 1C010000 		.4byte	.LASF312
 3232 15e4 13       		.byte	0x13
 3233 15e5 8C02     		.2byte	0x28c
 3234 15e7 32       		.uleb128 0x32
 3235 15e8 490A0000 		.4byte	.LASF313
 3236 15ec 490A0000 		.4byte	.LASF313
 3237 15f0 13       		.byte	0x13
 3238 15f1 8D02     		.2byte	0x28d
 3239 15f3 32       		.uleb128 0x32
 3240 15f4 A8080000 		.4byte	.LASF314
 3241 15f8 A8080000 		.4byte	.LASF314
 3242 15fc 13       		.byte	0x13
 3243 15fd C102     		.2byte	0x2c1
 3244 15ff 32       		.uleb128 0x32
 3245 1600 060F0000 		.4byte	.LASF315
 3246 1604 060F0000 		.4byte	.LASF315
 3247 1608 13       		.byte	0x13
 3248 1609 9B02     		.2byte	0x29b
 3249 160b 32       		.uleb128 0x32
 3250 160c 89050000 		.4byte	.LASF316
 3251 1610 89050000 		.4byte	.LASF316
 3252 1614 13       		.byte	0x13
 3253 1615 9C02     		.2byte	0x29c
 3254 1617 32       		.uleb128 0x32
 3255 1618 78070000 		.4byte	.LASF317
 3256 161c 78070000 		.4byte	.LASF317
 3257 1620 07       		.byte	0x7
 3258 1621 1702     		.2byte	0x217
 3259 1623 32       		.uleb128 0x32
 3260 1624 2C060000 		.4byte	.LASF318
 3261 1628 2C060000 		.4byte	.LASF318
 3262 162c 07       		.byte	0x7
 3263 162d 1902     		.2byte	0x219
 3264 162f 32       		.uleb128 0x32
 3265 1630 70050000 		.4byte	.LASF319
ARM GAS  /tmp/cchgvlIx.s 			page 61


 3266 1634 70050000 		.4byte	.LASF319
 3267 1638 0A       		.byte	0xa
 3268 1639 6E01     		.2byte	0x16e
 3269 163b 32       		.uleb128 0x32
 3270 163c 9E0B0000 		.4byte	.LASF320
 3271 1640 9E0B0000 		.4byte	.LASF320
 3272 1644 0A       		.byte	0xa
 3273 1645 7201     		.2byte	0x172
 3274 1647 00       		.byte	0
 3275              		.section	.debug_abbrev,"",%progbits
 3276              	.Ldebug_abbrev0:
 3277 0000 01       		.uleb128 0x1
 3278 0001 11       		.uleb128 0x11
 3279 0002 01       		.byte	0x1
 3280 0003 25       		.uleb128 0x25
 3281 0004 0E       		.uleb128 0xe
 3282 0005 13       		.uleb128 0x13
 3283 0006 0B       		.uleb128 0xb
 3284 0007 03       		.uleb128 0x3
 3285 0008 0E       		.uleb128 0xe
 3286 0009 1B       		.uleb128 0x1b
 3287 000a 0E       		.uleb128 0xe
 3288 000b 11       		.uleb128 0x11
 3289 000c 01       		.uleb128 0x1
 3290 000d 12       		.uleb128 0x12
 3291 000e 06       		.uleb128 0x6
 3292 000f 10       		.uleb128 0x10
 3293 0010 17       		.uleb128 0x17
 3294 0011 00       		.byte	0
 3295 0012 00       		.byte	0
 3296 0013 02       		.uleb128 0x2
 3297 0014 04       		.uleb128 0x4
 3298 0015 01       		.byte	0x1
 3299 0016 03       		.uleb128 0x3
 3300 0017 0E       		.uleb128 0xe
 3301 0018 0B       		.uleb128 0xb
 3302 0019 0B       		.uleb128 0xb
 3303 001a 49       		.uleb128 0x49
 3304 001b 13       		.uleb128 0x13
 3305 001c 3A       		.uleb128 0x3a
 3306 001d 0B       		.uleb128 0xb
 3307 001e 3B       		.uleb128 0x3b
 3308 001f 0B       		.uleb128 0xb
 3309 0020 01       		.uleb128 0x1
 3310 0021 13       		.uleb128 0x13
 3311 0022 00       		.byte	0
 3312 0023 00       		.byte	0
 3313 0024 03       		.uleb128 0x3
 3314 0025 28       		.uleb128 0x28
 3315 0026 00       		.byte	0
 3316 0027 03       		.uleb128 0x3
 3317 0028 0E       		.uleb128 0xe
 3318 0029 1C       		.uleb128 0x1c
 3319 002a 0D       		.uleb128 0xd
 3320 002b 00       		.byte	0
 3321 002c 00       		.byte	0
 3322 002d 04       		.uleb128 0x4
ARM GAS  /tmp/cchgvlIx.s 			page 62


 3323 002e 28       		.uleb128 0x28
 3324 002f 00       		.byte	0
 3325 0030 03       		.uleb128 0x3
 3326 0031 0E       		.uleb128 0xe
 3327 0032 1C       		.uleb128 0x1c
 3328 0033 0B       		.uleb128 0xb
 3329 0034 00       		.byte	0
 3330 0035 00       		.byte	0
 3331 0036 05       		.uleb128 0x5
 3332 0037 24       		.uleb128 0x24
 3333 0038 00       		.byte	0
 3334 0039 0B       		.uleb128 0xb
 3335 003a 0B       		.uleb128 0xb
 3336 003b 3E       		.uleb128 0x3e
 3337 003c 0B       		.uleb128 0xb
 3338 003d 03       		.uleb128 0x3
 3339 003e 0E       		.uleb128 0xe
 3340 003f 00       		.byte	0
 3341 0040 00       		.byte	0
 3342 0041 06       		.uleb128 0x6
 3343 0042 16       		.uleb128 0x16
 3344 0043 00       		.byte	0
 3345 0044 03       		.uleb128 0x3
 3346 0045 0E       		.uleb128 0xe
 3347 0046 3A       		.uleb128 0x3a
 3348 0047 0B       		.uleb128 0xb
 3349 0048 3B       		.uleb128 0x3b
 3350 0049 0B       		.uleb128 0xb
 3351 004a 49       		.uleb128 0x49
 3352 004b 13       		.uleb128 0x13
 3353 004c 00       		.byte	0
 3354 004d 00       		.byte	0
 3355 004e 07       		.uleb128 0x7
 3356 004f 24       		.uleb128 0x24
 3357 0050 00       		.byte	0
 3358 0051 0B       		.uleb128 0xb
 3359 0052 0B       		.uleb128 0xb
 3360 0053 3E       		.uleb128 0x3e
 3361 0054 0B       		.uleb128 0xb
 3362 0055 03       		.uleb128 0x3
 3363 0056 08       		.uleb128 0x8
 3364 0057 00       		.byte	0
 3365 0058 00       		.byte	0
 3366 0059 08       		.uleb128 0x8
 3367 005a 35       		.uleb128 0x35
 3368 005b 00       		.byte	0
 3369 005c 49       		.uleb128 0x49
 3370 005d 13       		.uleb128 0x13
 3371 005e 00       		.byte	0
 3372 005f 00       		.byte	0
 3373 0060 09       		.uleb128 0x9
 3374 0061 34       		.uleb128 0x34
 3375 0062 00       		.byte	0
 3376 0063 03       		.uleb128 0x3
 3377 0064 0E       		.uleb128 0xe
 3378 0065 3A       		.uleb128 0x3a
 3379 0066 0B       		.uleb128 0xb
ARM GAS  /tmp/cchgvlIx.s 			page 63


 3380 0067 3B       		.uleb128 0x3b
 3381 0068 05       		.uleb128 0x5
 3382 0069 49       		.uleb128 0x49
 3383 006a 13       		.uleb128 0x13
 3384 006b 3F       		.uleb128 0x3f
 3385 006c 19       		.uleb128 0x19
 3386 006d 3C       		.uleb128 0x3c
 3387 006e 19       		.uleb128 0x19
 3388 006f 00       		.byte	0
 3389 0070 00       		.byte	0
 3390 0071 0A       		.uleb128 0xa
 3391 0072 34       		.uleb128 0x34
 3392 0073 00       		.byte	0
 3393 0074 03       		.uleb128 0x3
 3394 0075 0E       		.uleb128 0xe
 3395 0076 3A       		.uleb128 0x3a
 3396 0077 0B       		.uleb128 0xb
 3397 0078 3B       		.uleb128 0x3b
 3398 0079 0B       		.uleb128 0xb
 3399 007a 49       		.uleb128 0x49
 3400 007b 13       		.uleb128 0x13
 3401 007c 3F       		.uleb128 0x3f
 3402 007d 19       		.uleb128 0x19
 3403 007e 3C       		.uleb128 0x3c
 3404 007f 19       		.uleb128 0x19
 3405 0080 00       		.byte	0
 3406 0081 00       		.byte	0
 3407 0082 0B       		.uleb128 0xb
 3408 0083 04       		.uleb128 0x4
 3409 0084 01       		.byte	0x1
 3410 0085 0B       		.uleb128 0xb
 3411 0086 0B       		.uleb128 0xb
 3412 0087 49       		.uleb128 0x49
 3413 0088 13       		.uleb128 0x13
 3414 0089 3A       		.uleb128 0x3a
 3415 008a 0B       		.uleb128 0xb
 3416 008b 3B       		.uleb128 0x3b
 3417 008c 05       		.uleb128 0x5
 3418 008d 01       		.uleb128 0x1
 3419 008e 13       		.uleb128 0x13
 3420 008f 00       		.byte	0
 3421 0090 00       		.byte	0
 3422 0091 0C       		.uleb128 0xc
 3423 0092 28       		.uleb128 0x28
 3424 0093 00       		.byte	0
 3425 0094 03       		.uleb128 0x3
 3426 0095 08       		.uleb128 0x8
 3427 0096 1C       		.uleb128 0x1c
 3428 0097 0B       		.uleb128 0xb
 3429 0098 00       		.byte	0
 3430 0099 00       		.byte	0
 3431 009a 0D       		.uleb128 0xd
 3432 009b 16       		.uleb128 0x16
 3433 009c 00       		.byte	0
 3434 009d 03       		.uleb128 0x3
 3435 009e 0E       		.uleb128 0xe
 3436 009f 3A       		.uleb128 0x3a
ARM GAS  /tmp/cchgvlIx.s 			page 64


 3437 00a0 0B       		.uleb128 0xb
 3438 00a1 3B       		.uleb128 0x3b
 3439 00a2 05       		.uleb128 0x5
 3440 00a3 49       		.uleb128 0x49
 3441 00a4 13       		.uleb128 0x13
 3442 00a5 00       		.byte	0
 3443 00a6 00       		.byte	0
 3444 00a7 0E       		.uleb128 0xe
 3445 00a8 13       		.uleb128 0x13
 3446 00a9 01       		.byte	0x1
 3447 00aa 0B       		.uleb128 0xb
 3448 00ab 0B       		.uleb128 0xb
 3449 00ac 3A       		.uleb128 0x3a
 3450 00ad 0B       		.uleb128 0xb
 3451 00ae 3B       		.uleb128 0x3b
 3452 00af 05       		.uleb128 0x5
 3453 00b0 01       		.uleb128 0x1
 3454 00b1 13       		.uleb128 0x13
 3455 00b2 00       		.byte	0
 3456 00b3 00       		.byte	0
 3457 00b4 0F       		.uleb128 0xf
 3458 00b5 0D       		.uleb128 0xd
 3459 00b6 00       		.byte	0
 3460 00b7 03       		.uleb128 0x3
 3461 00b8 08       		.uleb128 0x8
 3462 00b9 3A       		.uleb128 0x3a
 3463 00ba 0B       		.uleb128 0xb
 3464 00bb 3B       		.uleb128 0x3b
 3465 00bc 05       		.uleb128 0x5
 3466 00bd 49       		.uleb128 0x49
 3467 00be 13       		.uleb128 0x13
 3468 00bf 38       		.uleb128 0x38
 3469 00c0 0B       		.uleb128 0xb
 3470 00c1 00       		.byte	0
 3471 00c2 00       		.byte	0
 3472 00c3 10       		.uleb128 0x10
 3473 00c4 0D       		.uleb128 0xd
 3474 00c5 00       		.byte	0
 3475 00c6 03       		.uleb128 0x3
 3476 00c7 0E       		.uleb128 0xe
 3477 00c8 3A       		.uleb128 0x3a
 3478 00c9 0B       		.uleb128 0xb
 3479 00ca 3B       		.uleb128 0x3b
 3480 00cb 05       		.uleb128 0x5
 3481 00cc 49       		.uleb128 0x49
 3482 00cd 13       		.uleb128 0x13
 3483 00ce 38       		.uleb128 0x38
 3484 00cf 0B       		.uleb128 0xb
 3485 00d0 00       		.byte	0
 3486 00d1 00       		.byte	0
 3487 00d2 11       		.uleb128 0x11
 3488 00d3 13       		.uleb128 0x13
 3489 00d4 01       		.byte	0x1
 3490 00d5 0B       		.uleb128 0xb
 3491 00d6 0B       		.uleb128 0xb
 3492 00d7 3A       		.uleb128 0x3a
 3493 00d8 0B       		.uleb128 0xb
ARM GAS  /tmp/cchgvlIx.s 			page 65


 3494 00d9 3B       		.uleb128 0x3b
 3495 00da 0B       		.uleb128 0xb
 3496 00db 01       		.uleb128 0x1
 3497 00dc 13       		.uleb128 0x13
 3498 00dd 00       		.byte	0
 3499 00de 00       		.byte	0
 3500 00df 12       		.uleb128 0x12
 3501 00e0 0D       		.uleb128 0xd
 3502 00e1 00       		.byte	0
 3503 00e2 03       		.uleb128 0x3
 3504 00e3 0E       		.uleb128 0xe
 3505 00e4 3A       		.uleb128 0x3a
 3506 00e5 0B       		.uleb128 0xb
 3507 00e6 3B       		.uleb128 0x3b
 3508 00e7 0B       		.uleb128 0xb
 3509 00e8 49       		.uleb128 0x49
 3510 00e9 13       		.uleb128 0x13
 3511 00ea 38       		.uleb128 0x38
 3512 00eb 0B       		.uleb128 0xb
 3513 00ec 00       		.byte	0
 3514 00ed 00       		.byte	0
 3515 00ee 13       		.uleb128 0x13
 3516 00ef 04       		.uleb128 0x4
 3517 00f0 01       		.byte	0x1
 3518 00f1 0B       		.uleb128 0xb
 3519 00f2 0B       		.uleb128 0xb
 3520 00f3 49       		.uleb128 0x49
 3521 00f4 13       		.uleb128 0x13
 3522 00f5 3A       		.uleb128 0x3a
 3523 00f6 0B       		.uleb128 0xb
 3524 00f7 3B       		.uleb128 0x3b
 3525 00f8 0B       		.uleb128 0xb
 3526 00f9 01       		.uleb128 0x1
 3527 00fa 13       		.uleb128 0x13
 3528 00fb 00       		.byte	0
 3529 00fc 00       		.byte	0
 3530 00fd 14       		.uleb128 0x14
 3531 00fe 0F       		.uleb128 0xf
 3532 00ff 00       		.byte	0
 3533 0100 0B       		.uleb128 0xb
 3534 0101 0B       		.uleb128 0xb
 3535 0102 00       		.byte	0
 3536 0103 00       		.byte	0
 3537 0104 15       		.uleb128 0x15
 3538 0105 17       		.uleb128 0x17
 3539 0106 01       		.byte	0x1
 3540 0107 0B       		.uleb128 0xb
 3541 0108 0B       		.uleb128 0xb
 3542 0109 3A       		.uleb128 0x3a
 3543 010a 0B       		.uleb128 0xb
 3544 010b 3B       		.uleb128 0x3b
 3545 010c 0B       		.uleb128 0xb
 3546 010d 01       		.uleb128 0x1
 3547 010e 13       		.uleb128 0x13
 3548 010f 00       		.byte	0
 3549 0110 00       		.byte	0
 3550 0111 16       		.uleb128 0x16
ARM GAS  /tmp/cchgvlIx.s 			page 66


 3551 0112 0D       		.uleb128 0xd
 3552 0113 00       		.byte	0
 3553 0114 03       		.uleb128 0x3
 3554 0115 0E       		.uleb128 0xe
 3555 0116 3A       		.uleb128 0x3a
 3556 0117 0B       		.uleb128 0xb
 3557 0118 3B       		.uleb128 0x3b
 3558 0119 0B       		.uleb128 0xb
 3559 011a 49       		.uleb128 0x49
 3560 011b 13       		.uleb128 0x13
 3561 011c 00       		.byte	0
 3562 011d 00       		.byte	0
 3563 011e 17       		.uleb128 0x17
 3564 011f 01       		.uleb128 0x1
 3565 0120 01       		.byte	0x1
 3566 0121 49       		.uleb128 0x49
 3567 0122 13       		.uleb128 0x13
 3568 0123 01       		.uleb128 0x1
 3569 0124 13       		.uleb128 0x13
 3570 0125 00       		.byte	0
 3571 0126 00       		.byte	0
 3572 0127 18       		.uleb128 0x18
 3573 0128 21       		.uleb128 0x21
 3574 0129 00       		.byte	0
 3575 012a 49       		.uleb128 0x49
 3576 012b 13       		.uleb128 0x13
 3577 012c 2F       		.uleb128 0x2f
 3578 012d 0B       		.uleb128 0xb
 3579 012e 00       		.byte	0
 3580 012f 00       		.byte	0
 3581 0130 19       		.uleb128 0x19
 3582 0131 13       		.uleb128 0x13
 3583 0132 01       		.byte	0x1
 3584 0133 03       		.uleb128 0x3
 3585 0134 0E       		.uleb128 0xe
 3586 0135 0B       		.uleb128 0xb
 3587 0136 0B       		.uleb128 0xb
 3588 0137 3A       		.uleb128 0x3a
 3589 0138 0B       		.uleb128 0xb
 3590 0139 3B       		.uleb128 0x3b
 3591 013a 0B       		.uleb128 0xb
 3592 013b 01       		.uleb128 0x1
 3593 013c 13       		.uleb128 0x13
 3594 013d 00       		.byte	0
 3595 013e 00       		.byte	0
 3596 013f 1A       		.uleb128 0x1a
 3597 0140 0D       		.uleb128 0xd
 3598 0141 00       		.byte	0
 3599 0142 03       		.uleb128 0x3
 3600 0143 08       		.uleb128 0x8
 3601 0144 3A       		.uleb128 0x3a
 3602 0145 0B       		.uleb128 0xb
 3603 0146 3B       		.uleb128 0x3b
 3604 0147 0B       		.uleb128 0xb
 3605 0148 49       		.uleb128 0x49
 3606 0149 13       		.uleb128 0x13
 3607 014a 38       		.uleb128 0x38
ARM GAS  /tmp/cchgvlIx.s 			page 67


 3608 014b 0B       		.uleb128 0xb
 3609 014c 00       		.byte	0
 3610 014d 00       		.byte	0
 3611 014e 1B       		.uleb128 0x1b
 3612 014f 0F       		.uleb128 0xf
 3613 0150 00       		.byte	0
 3614 0151 0B       		.uleb128 0xb
 3615 0152 0B       		.uleb128 0xb
 3616 0153 49       		.uleb128 0x49
 3617 0154 13       		.uleb128 0x13
 3618 0155 00       		.byte	0
 3619 0156 00       		.byte	0
 3620 0157 1C       		.uleb128 0x1c
 3621 0158 13       		.uleb128 0x13
 3622 0159 01       		.byte	0x1
 3623 015a 03       		.uleb128 0x3
 3624 015b 0E       		.uleb128 0xe
 3625 015c 0B       		.uleb128 0xb
 3626 015d 05       		.uleb128 0x5
 3627 015e 3A       		.uleb128 0x3a
 3628 015f 0B       		.uleb128 0xb
 3629 0160 3B       		.uleb128 0x3b
 3630 0161 0B       		.uleb128 0xb
 3631 0162 01       		.uleb128 0x1
 3632 0163 13       		.uleb128 0x13
 3633 0164 00       		.byte	0
 3634 0165 00       		.byte	0
 3635 0166 1D       		.uleb128 0x1d
 3636 0167 0D       		.uleb128 0xd
 3637 0168 00       		.byte	0
 3638 0169 03       		.uleb128 0x3
 3639 016a 0E       		.uleb128 0xe
 3640 016b 3A       		.uleb128 0x3a
 3641 016c 0B       		.uleb128 0xb
 3642 016d 3B       		.uleb128 0x3b
 3643 016e 0B       		.uleb128 0xb
 3644 016f 49       		.uleb128 0x49
 3645 0170 13       		.uleb128 0x13
 3646 0171 38       		.uleb128 0x38
 3647 0172 05       		.uleb128 0x5
 3648 0173 00       		.byte	0
 3649 0174 00       		.byte	0
 3650 0175 1E       		.uleb128 0x1e
 3651 0176 15       		.uleb128 0x15
 3652 0177 00       		.byte	0
 3653 0178 27       		.uleb128 0x27
 3654 0179 19       		.uleb128 0x19
 3655 017a 00       		.byte	0
 3656 017b 00       		.byte	0
 3657 017c 1F       		.uleb128 0x1f
 3658 017d 15       		.uleb128 0x15
 3659 017e 01       		.byte	0x1
 3660 017f 27       		.uleb128 0x27
 3661 0180 19       		.uleb128 0x19
 3662 0181 49       		.uleb128 0x49
 3663 0182 13       		.uleb128 0x13
 3664 0183 01       		.uleb128 0x1
ARM GAS  /tmp/cchgvlIx.s 			page 68


 3665 0184 13       		.uleb128 0x13
 3666 0185 00       		.byte	0
 3667 0186 00       		.byte	0
 3668 0187 20       		.uleb128 0x20
 3669 0188 05       		.uleb128 0x5
 3670 0189 00       		.byte	0
 3671 018a 49       		.uleb128 0x49
 3672 018b 13       		.uleb128 0x13
 3673 018c 00       		.byte	0
 3674 018d 00       		.byte	0
 3675 018e 21       		.uleb128 0x21
 3676 018f 26       		.uleb128 0x26
 3677 0190 00       		.byte	0
 3678 0191 49       		.uleb128 0x49
 3679 0192 13       		.uleb128 0x13
 3680 0193 00       		.byte	0
 3681 0194 00       		.byte	0
 3682 0195 22       		.uleb128 0x22
 3683 0196 13       		.uleb128 0x13
 3684 0197 01       		.byte	0x1
 3685 0198 03       		.uleb128 0x3
 3686 0199 0E       		.uleb128 0xe
 3687 019a 0B       		.uleb128 0xb
 3688 019b 05       		.uleb128 0x5
 3689 019c 3A       		.uleb128 0x3a
 3690 019d 0B       		.uleb128 0xb
 3691 019e 3B       		.uleb128 0x3b
 3692 019f 05       		.uleb128 0x5
 3693 01a0 01       		.uleb128 0x1
 3694 01a1 13       		.uleb128 0x13
 3695 01a2 00       		.byte	0
 3696 01a3 00       		.byte	0
 3697 01a4 23       		.uleb128 0x23
 3698 01a5 0D       		.uleb128 0xd
 3699 01a6 00       		.byte	0
 3700 01a7 03       		.uleb128 0x3
 3701 01a8 0E       		.uleb128 0xe
 3702 01a9 3A       		.uleb128 0x3a
 3703 01aa 0B       		.uleb128 0xb
 3704 01ab 3B       		.uleb128 0x3b
 3705 01ac 05       		.uleb128 0x5
 3706 01ad 49       		.uleb128 0x49
 3707 01ae 13       		.uleb128 0x13
 3708 01af 38       		.uleb128 0x38
 3709 01b0 05       		.uleb128 0x5
 3710 01b1 00       		.byte	0
 3711 01b2 00       		.byte	0
 3712 01b3 24       		.uleb128 0x24
 3713 01b4 13       		.uleb128 0x13
 3714 01b5 01       		.byte	0x1
 3715 01b6 03       		.uleb128 0x3
 3716 01b7 0E       		.uleb128 0xe
 3717 01b8 0B       		.uleb128 0xb
 3718 01b9 0B       		.uleb128 0xb
 3719 01ba 3A       		.uleb128 0x3a
 3720 01bb 0B       		.uleb128 0xb
 3721 01bc 3B       		.uleb128 0x3b
ARM GAS  /tmp/cchgvlIx.s 			page 69


 3722 01bd 05       		.uleb128 0x5
 3723 01be 01       		.uleb128 0x1
 3724 01bf 13       		.uleb128 0x13
 3725 01c0 00       		.byte	0
 3726 01c1 00       		.byte	0
 3727 01c2 25       		.uleb128 0x25
 3728 01c3 17       		.uleb128 0x17
 3729 01c4 01       		.byte	0x1
 3730 01c5 0B       		.uleb128 0xb
 3731 01c6 0B       		.uleb128 0xb
 3732 01c7 3A       		.uleb128 0x3a
 3733 01c8 0B       		.uleb128 0xb
 3734 01c9 3B       		.uleb128 0x3b
 3735 01ca 05       		.uleb128 0x5
 3736 01cb 01       		.uleb128 0x1
 3737 01cc 13       		.uleb128 0x13
 3738 01cd 00       		.byte	0
 3739 01ce 00       		.byte	0
 3740 01cf 26       		.uleb128 0x26
 3741 01d0 0D       		.uleb128 0xd
 3742 01d1 00       		.byte	0
 3743 01d2 03       		.uleb128 0x3
 3744 01d3 0E       		.uleb128 0xe
 3745 01d4 3A       		.uleb128 0x3a
 3746 01d5 0B       		.uleb128 0xb
 3747 01d6 3B       		.uleb128 0x3b
 3748 01d7 05       		.uleb128 0x5
 3749 01d8 49       		.uleb128 0x49
 3750 01d9 13       		.uleb128 0x13
 3751 01da 00       		.byte	0
 3752 01db 00       		.byte	0
 3753 01dc 27       		.uleb128 0x27
 3754 01dd 15       		.uleb128 0x15
 3755 01de 01       		.byte	0x1
 3756 01df 27       		.uleb128 0x27
 3757 01e0 19       		.uleb128 0x19
 3758 01e1 01       		.uleb128 0x1
 3759 01e2 13       		.uleb128 0x13
 3760 01e3 00       		.byte	0
 3761 01e4 00       		.byte	0
 3762 01e5 28       		.uleb128 0x28
 3763 01e6 04       		.uleb128 0x4
 3764 01e7 01       		.byte	0x1
 3765 01e8 03       		.uleb128 0x3
 3766 01e9 0E       		.uleb128 0xe
 3767 01ea 0B       		.uleb128 0xb
 3768 01eb 0B       		.uleb128 0xb
 3769 01ec 49       		.uleb128 0x49
 3770 01ed 13       		.uleb128 0x13
 3771 01ee 3A       		.uleb128 0x3a
 3772 01ef 0B       		.uleb128 0xb
 3773 01f0 3B       		.uleb128 0x3b
 3774 01f1 05       		.uleb128 0x5
 3775 01f2 01       		.uleb128 0x1
 3776 01f3 13       		.uleb128 0x13
 3777 01f4 00       		.byte	0
 3778 01f5 00       		.byte	0
ARM GAS  /tmp/cchgvlIx.s 			page 70


 3779 01f6 29       		.uleb128 0x29
 3780 01f7 21       		.uleb128 0x21
 3781 01f8 00       		.byte	0
 3782 01f9 00       		.byte	0
 3783 01fa 00       		.byte	0
 3784 01fb 2A       		.uleb128 0x2a
 3785 01fc 34       		.uleb128 0x34
 3786 01fd 00       		.byte	0
 3787 01fe 03       		.uleb128 0x3
 3788 01ff 0E       		.uleb128 0xe
 3789 0200 3A       		.uleb128 0x3a
 3790 0201 0B       		.uleb128 0xb
 3791 0202 3B       		.uleb128 0x3b
 3792 0203 0B       		.uleb128 0xb
 3793 0204 49       		.uleb128 0x49
 3794 0205 13       		.uleb128 0x13
 3795 0206 3F       		.uleb128 0x3f
 3796 0207 19       		.uleb128 0x19
 3797 0208 02       		.uleb128 0x2
 3798 0209 18       		.uleb128 0x18
 3799 020a 00       		.byte	0
 3800 020b 00       		.byte	0
 3801 020c 2B       		.uleb128 0x2b
 3802 020d 2E       		.uleb128 0x2e
 3803 020e 01       		.byte	0x1
 3804 020f 3F       		.uleb128 0x3f
 3805 0210 19       		.uleb128 0x19
 3806 0211 03       		.uleb128 0x3
 3807 0212 0E       		.uleb128 0xe
 3808 0213 3A       		.uleb128 0x3a
 3809 0214 0B       		.uleb128 0xb
 3810 0215 3B       		.uleb128 0x3b
 3811 0216 0B       		.uleb128 0xb
 3812 0217 27       		.uleb128 0x27
 3813 0218 19       		.uleb128 0x19
 3814 0219 11       		.uleb128 0x11
 3815 021a 01       		.uleb128 0x1
 3816 021b 12       		.uleb128 0x12
 3817 021c 06       		.uleb128 0x6
 3818 021d 40       		.uleb128 0x40
 3819 021e 18       		.uleb128 0x18
 3820 021f 9742     		.uleb128 0x2117
 3821 0221 19       		.uleb128 0x19
 3822 0222 01       		.uleb128 0x1
 3823 0223 13       		.uleb128 0x13
 3824 0224 00       		.byte	0
 3825 0225 00       		.byte	0
 3826 0226 2C       		.uleb128 0x2c
 3827 0227 34       		.uleb128 0x34
 3828 0228 00       		.byte	0
 3829 0229 03       		.uleb128 0x3
 3830 022a 0E       		.uleb128 0xe
 3831 022b 3A       		.uleb128 0x3a
 3832 022c 0B       		.uleb128 0xb
 3833 022d 3B       		.uleb128 0x3b
 3834 022e 0B       		.uleb128 0xb
 3835 022f 49       		.uleb128 0x49
ARM GAS  /tmp/cchgvlIx.s 			page 71


 3836 0230 13       		.uleb128 0x13
 3837 0231 02       		.uleb128 0x2
 3838 0232 18       		.uleb128 0x18
 3839 0233 00       		.byte	0
 3840 0234 00       		.byte	0
 3841 0235 2D       		.uleb128 0x2d
 3842 0236 898201   		.uleb128 0x4109
 3843 0239 01       		.byte	0x1
 3844 023a 11       		.uleb128 0x11
 3845 023b 01       		.uleb128 0x1
 3846 023c 31       		.uleb128 0x31
 3847 023d 13       		.uleb128 0x13
 3848 023e 01       		.uleb128 0x1
 3849 023f 13       		.uleb128 0x13
 3850 0240 00       		.byte	0
 3851 0241 00       		.byte	0
 3852 0242 2E       		.uleb128 0x2e
 3853 0243 8A8201   		.uleb128 0x410a
 3854 0246 00       		.byte	0
 3855 0247 02       		.uleb128 0x2
 3856 0248 18       		.uleb128 0x18
 3857 0249 9142     		.uleb128 0x2111
 3858 024b 18       		.uleb128 0x18
 3859 024c 00       		.byte	0
 3860 024d 00       		.byte	0
 3861 024e 2F       		.uleb128 0x2f
 3862 024f 898201   		.uleb128 0x4109
 3863 0252 01       		.byte	0x1
 3864 0253 11       		.uleb128 0x11
 3865 0254 01       		.uleb128 0x1
 3866 0255 31       		.uleb128 0x31
 3867 0256 13       		.uleb128 0x13
 3868 0257 00       		.byte	0
 3869 0258 00       		.byte	0
 3870 0259 30       		.uleb128 0x30
 3871 025a 898201   		.uleb128 0x4109
 3872 025d 00       		.byte	0
 3873 025e 11       		.uleb128 0x11
 3874 025f 01       		.uleb128 0x1
 3875 0260 31       		.uleb128 0x31
 3876 0261 13       		.uleb128 0x13
 3877 0262 00       		.byte	0
 3878 0263 00       		.byte	0
 3879 0264 31       		.uleb128 0x31
 3880 0265 2E       		.uleb128 0x2e
 3881 0266 00       		.byte	0
 3882 0267 3F       		.uleb128 0x3f
 3883 0268 19       		.uleb128 0x19
 3884 0269 3C       		.uleb128 0x3c
 3885 026a 19       		.uleb128 0x19
 3886 026b 6E       		.uleb128 0x6e
 3887 026c 0E       		.uleb128 0xe
 3888 026d 03       		.uleb128 0x3
 3889 026e 0E       		.uleb128 0xe
 3890 026f 3A       		.uleb128 0x3a
 3891 0270 0B       		.uleb128 0xb
 3892 0271 3B       		.uleb128 0x3b
ARM GAS  /tmp/cchgvlIx.s 			page 72


 3893 0272 0B       		.uleb128 0xb
 3894 0273 00       		.byte	0
 3895 0274 00       		.byte	0
 3896 0275 32       		.uleb128 0x32
 3897 0276 2E       		.uleb128 0x2e
 3898 0277 00       		.byte	0
 3899 0278 3F       		.uleb128 0x3f
 3900 0279 19       		.uleb128 0x19
 3901 027a 3C       		.uleb128 0x3c
 3902 027b 19       		.uleb128 0x19
 3903 027c 6E       		.uleb128 0x6e
 3904 027d 0E       		.uleb128 0xe
 3905 027e 03       		.uleb128 0x3
 3906 027f 0E       		.uleb128 0xe
 3907 0280 3A       		.uleb128 0x3a
 3908 0281 0B       		.uleb128 0xb
 3909 0282 3B       		.uleb128 0x3b
 3910 0283 05       		.uleb128 0x5
 3911 0284 00       		.byte	0
 3912 0285 00       		.byte	0
 3913 0286 00       		.byte	0
 3914              		.section	.debug_aranges,"",%progbits
 3915 0000 1C000000 		.4byte	0x1c
 3916 0004 0200     		.2byte	0x2
 3917 0006 00000000 		.4byte	.Ldebug_info0
 3918 000a 04       		.byte	0x4
 3919 000b 00       		.byte	0
 3920 000c 0000     		.2byte	0
 3921 000e 0000     		.2byte	0
 3922 0010 00000000 		.4byte	.Ltext0
 3923 0014 08020000 		.4byte	.Letext0-.Ltext0
 3924 0018 00000000 		.4byte	0
 3925 001c 00000000 		.4byte	0
 3926              		.section	.debug_line,"",%progbits
 3927              	.Ldebug_line0:
 3928 0000 49020000 		.section	.debug_str,"MS",%progbits,1
 3928      0200DC01 
 3928      00000201 
 3928      FB0E0D00 
 3928      01010101 
 3929              	.LASF16:
 3930 0000 45585449 		.ascii	"EXTI2_IRQn\000"
 3930      325F4952 
 3930      516E00
 3931              	.LASF139:
 3932 000b 4750494F 		.ascii	"GPIO_Mode_IPU\000"
 3932      5F4D6F64 
 3932      655F4950 
 3932      5500
 3933              	.LASF156:
 3934 0019 4E564943 		.ascii	"NVIC_IRQChannel\000"
 3934      5F495251 
 3934      4368616E 
 3934      6E656C00 
 3935              	.LASF284:
 3936 0029 4E564943 		.ascii	"NVIC_Conf\000"
 3936      5F436F6E 
ARM GAS  /tmp/cchgvlIx.s 			page 73


 3936      6600
 3937              	.LASF68:
 3938 0033 73697A65 		.ascii	"sizetype\000"
 3938      74797065 
 3938      00
 3939              	.LASF169:
 3940 003c 5F5F7661 		.ascii	"__value\000"
 3940      6C756500 
 3941              	.LASF237:
 3942 0044 5F5F7366 		.ascii	"__sf\000"
 3942      00
 3943              	.LASF204:
 3944 0049 5F726561 		.ascii	"_read\000"
 3944      6400
 3945              	.LASF306:
 3946 004f 464C4153 		.ascii	"FLASH_PrefetchBufferCmd\000"
 3946      485F5072 
 3946      65666574 
 3946      63684275 
 3946      66666572 
 3947              	.LASF205:
 3948 0067 5F777269 		.ascii	"_write\000"
 3948      746500
 3949              	.LASF66:
 3950 006e 696E7433 		.ascii	"int32_t\000"
 3950      325F7400 
 3951              	.LASF117:
 3952 0076 47545052 		.ascii	"GTPR\000"
 3952      00
 3953              	.LASF249:
 3954 007b 5F617363 		.ascii	"_asctime_buf\000"
 3954      74696D65 
 3954      5F627566 
 3954      00
 3955              	.LASF231:
 3956 0088 5F637674 		.ascii	"_cvtlen\000"
 3956      6C656E00 
 3957              	.LASF23:
 3958 0090 444D4131 		.ascii	"DMA1_Channel5_IRQn\000"
 3958      5F436861 
 3958      6E6E656C 
 3958      355F4952 
 3958      516E00
 3959              	.LASF268:
 3960 00a3 5F756E75 		.ascii	"_unused\000"
 3960      73656400 
 3961              	.LASF178:
 3962 00ab 5F5F746D 		.ascii	"__tm\000"
 3962      00
 3963              	.LASF264:
 3964 00b0 5F776373 		.ascii	"_wcsrtombs_state\000"
 3964      72746F6D 
 3964      62735F73 
 3964      74617465 
 3964      00
 3965              	.LASF209:
 3966 00c1 5F6E6275 		.ascii	"_nbuf\000"
ARM GAS  /tmp/cchgvlIx.s 			page 74


 3966      6600
 3967              	.LASF179:
 3968 00c7 5F5F746D 		.ascii	"__tm_sec\000"
 3968      5F736563 
 3968      00
 3969              	.LASF257:
 3970 00d0 5F6C3634 		.ascii	"_l64a_buf\000"
 3970      615F6275 
 3970      6600
 3971              	.LASF42:
 3972 00da 49324332 		.ascii	"I2C2_ER_IRQn\000"
 3972      5F45525F 
 3972      4952516E 
 3972      00
 3973              	.LASF12:
 3974 00e7 464C4153 		.ascii	"FLASH_IRQn\000"
 3974      485F4952 
 3974      516E00
 3975              	.LASF225:
 3976 00f2 5F5F7364 		.ascii	"__sdidinit\000"
 3976      6964696E 
 3976      697400
 3977              	.LASF213:
 3978 00fd 5F6C6F63 		.ascii	"_lock\000"
 3978      6B00
 3979              	.LASF120:
 3980 0103 4932435F 		.ascii	"I2C_Mode\000"
 3980      4D6F6465 
 3980      00
 3981              	.LASF245:
 3982 010c 5F6D756C 		.ascii	"_mult\000"
 3982      7400
 3983              	.LASF36:
 3984 0112 54494D32 		.ascii	"TIM2_IRQn\000"
 3984      5F495251 
 3984      6E00
 3985              	.LASF312:
 3986 011c 5243435F 		.ascii	"RCC_PLLConfig\000"
 3986      504C4C43 
 3986      6F6E6669 
 3986      6700
 3987              	.LASF323:
 3988 012a 2F686F6D 		.ascii	"/home/faker/Documents/code/STM/stm32-quadrocopter\000"
 3988      652F6661 
 3988      6B65722F 
 3988      446F6375 
 3988      6D656E74 
 3989              	.LASF114:
 3990 015c 444D4152 		.ascii	"DMAR\000"
 3990      00
 3991              	.LASF286:
 3992 0161 4E564943 		.ascii	"NVIC_InitStructure\000"
 3992      5F496E69 
 3992      74537472 
 3992      75637475 
 3992      726500
 3993              	.LASF103:
ARM GAS  /tmp/cchgvlIx.s 			page 75


 3994 0174 43435231 		.ascii	"CCR1\000"
 3994      00
 3995              	.LASF105:
 3996 0179 43435232 		.ascii	"CCR2\000"
 3996      00
 3997              	.LASF107:
 3998 017e 43435233 		.ascii	"CCR3\000"
 3998      00
 3999              	.LASF109:
 4000 0183 43435234 		.ascii	"CCR4\000"
 4000      00
 4001              	.LASF54:
 4002 0188 5F5F7569 		.ascii	"__uint8_t\000"
 4002      6E74385F 
 4002      7400
 4003              	.LASF44:
 4004 0192 53504932 		.ascii	"SPI2_IRQn\000"
 4004      5F495251 
 4004      6E00
 4005              	.LASF310:
 4006 019c 5243435F 		.ascii	"RCC_PCLK1Config\000"
 4006      50434C4B 
 4006      31436F6E 
 4006      66696700 
 4007              	.LASF201:
 4008 01ac 5F66696C 		.ascii	"_file\000"
 4008      6500
 4009              	.LASF188:
 4010 01b2 5F6F6E5F 		.ascii	"_on_exit_args\000"
 4010      65786974 
 4010      5F617267 
 4010      7300
 4011              	.LASF146:
 4012 01c0 4750494F 		.ascii	"GPIO_Speed\000"
 4012      5F537065 
 4012      656400
 4013              	.LASF159:
 4014 01cb 4E564943 		.ascii	"NVIC_IRQChannelCmd\000"
 4014      5F495251 
 4014      4368616E 
 4014      6E656C43 
 4014      6D6400
 4015              	.LASF166:
 4016 01de 5F5F7763 		.ascii	"__wch\000"
 4016      6800
 4017              	.LASF289:
 4018 01e4 54494D5F 		.ascii	"TIM_TimeBaseStructure\000"
 4018      54696D65 
 4018      42617365 
 4018      53747275 
 4018      63747572 
 4019              	.LASF260:
 4020 01fa 5F6D6272 		.ascii	"_mbrlen_state\000"
 4020      6C656E5F 
 4020      73746174 
 4020      6500
 4021              	.LASF58:
ARM GAS  /tmp/cchgvlIx.s 			page 76


 4022 0208 6C6F6E67 		.ascii	"long int\000"
 4022      20696E74 
 4022      00
 4023              	.LASF292:
 4024 0211 4932435F 		.ascii	"I2C_InitStructure\000"
 4024      496E6974 
 4024      53747275 
 4024      63747572 
 4024      6500
 4025              	.LASF269:
 4026 0223 5F696D70 		.ascii	"_impure_ptr\000"
 4026      7572655F 
 4026      70747200 
 4027              	.LASF285:
 4028 022f 4750494F 		.ascii	"GPIO_Conf\000"
 4028      5F436F6E 
 4028      6600
 4029              	.LASF228:
 4030 0239 5F726573 		.ascii	"_result_k\000"
 4030      756C745F 
 4030      6B00
 4031              	.LASF198:
 4032 0243 5F73697A 		.ascii	"_size\000"
 4032      6500
 4033              	.LASF136:
 4034 0249 4750494F 		.ascii	"GPIO_Mode_AIN\000"
 4034      5F4D6F64 
 4034      655F4149 
 4034      4E00
 4035              	.LASF250:
 4036 0257 5F6C6F63 		.ascii	"_localtime_buf\000"
 4036      616C7469 
 4036      6D655F62 
 4036      756600
 4037              	.LASF171:
 4038 0266 5F666C6F 		.ascii	"_flock_t\000"
 4038      636B5F74 
 4038      00
 4039              	.LASF10:
 4040 026f 54414D50 		.ascii	"TAMPER_IRQn\000"
 4040      45525F49 
 4040      52516E00 
 4041              	.LASF274:
 4042 027b 4952516E 		.ascii	"IRQn\000"
 4042      00
 4043              	.LASF309:
 4044 0280 5243435F 		.ascii	"RCC_PCLK2Config\000"
 4044      50434C4B 
 4044      32436F6E 
 4044      66696700 
 4045              	.LASF301:
 4046 0290 5243435F 		.ascii	"RCC_DeInit\000"
 4046      4465496E 
 4046      697400
 4047              	.LASF183:
 4048 029b 5F5F746D 		.ascii	"__tm_mon\000"
 4048      5F6D6F6E 
ARM GAS  /tmp/cchgvlIx.s 			page 77


 4048      00
 4049              	.LASF294:
 4050 02a4 55534152 		.ascii	"USART_InitStructure\000"
 4050      545F496E 
 4050      69745374 
 4050      72756374 
 4050      75726500 
 4051              	.LASF142:
 4052 02b8 4750494F 		.ascii	"GPIO_Mode_AF_OD\000"
 4052      5F4D6F64 
 4052      655F4146 
 4052      5F4F4400 
 4053              	.LASF7:
 4054 02c8 53797354 		.ascii	"SysTick_IRQn\000"
 4054      69636B5F 
 4054      4952516E 
 4054      00
 4055              	.LASF223:
 4056 02d5 5F637572 		.ascii	"_current_category\000"
 4056      72656E74 
 4056      5F636174 
 4056      65676F72 
 4056      7900
 4057              	.LASF47:
 4058 02e7 55534152 		.ascii	"USART3_IRQn\000"
 4058      54335F49 
 4058      52516E00 
 4059              	.LASF311:
 4060 02f3 5243435F 		.ascii	"RCC_ADCCLKConfig\000"
 4060      41444343 
 4060      4C4B436F 
 4060      6E666967 
 4060      00
 4061              	.LASF247:
 4062 0304 5F756E75 		.ascii	"_unused_rand\000"
 4062      7365645F 
 4062      72616E64 
 4062      00
 4063              	.LASF51:
 4064 0311 7369676E 		.ascii	"signed char\000"
 4064      65642063 
 4064      68617200 
 4065              	.LASF64:
 4066 031d 75696E74 		.ascii	"uint8_t\000"
 4066      385F7400 
 4067              	.LASF121:
 4068 0325 4932435F 		.ascii	"I2C_DutyCycle\000"
 4068      44757479 
 4068      4379636C 
 4068      6500
 4069              	.LASF148:
 4070 0333 4750494F 		.ascii	"GPIO_InitTypeDef\000"
 4070      5F496E69 
 4070      74547970 
 4070      65446566 
 4070      00
 4071              	.LASF219:
ARM GAS  /tmp/cchgvlIx.s 			page 78


 4072 0344 5F737464 		.ascii	"_stdout\000"
 4072      6F757400 
 4073              	.LASF116:
 4074 034c 54494D5F 		.ascii	"TIM_TypeDef\000"
 4074      54797065 
 4074      44656600 
 4075              	.LASF305:
 4076 0358 5243435F 		.ascii	"RCC_APB1PeriphClockCmd\000"
 4076      41504231 
 4076      50657269 
 4076      7068436C 
 4076      6F636B43 
 4077              	.LASF81:
 4078 036f 52455345 		.ascii	"RESERVED0\000"
 4078      52564544 
 4078      3000
 4079              	.LASF82:
 4080 0379 52455345 		.ascii	"RESERVED1\000"
 4080      52564544 
 4080      3100
 4081              	.LASF52:
 4082 0383 756E7369 		.ascii	"unsigned char\000"
 4082      676E6564 
 4082      20636861 
 4082      7200
 4083              	.LASF86:
 4084 0391 52455345 		.ascii	"RESERVED3\000"
 4084      52564544 
 4084      3300
 4085              	.LASF87:
 4086 039b 52455345 		.ascii	"RESERVED4\000"
 4086      52564544 
 4086      3400
 4087              	.LASF88:
 4088 03a5 52455345 		.ascii	"RESERVED5\000"
 4088      52564544 
 4088      3500
 4089              	.LASF89:
 4090 03af 52455345 		.ascii	"RESERVED6\000"
 4090      52564544 
 4090      3600
 4091              	.LASF90:
 4092 03b9 52455345 		.ascii	"RESERVED7\000"
 4092      52564544 
 4092      3700
 4093              	.LASF92:
 4094 03c3 52455345 		.ascii	"RESERVED8\000"
 4094      52564544 
 4094      3800
 4095              	.LASF99:
 4096 03cd 52455345 		.ascii	"RESERVED9\000"
 4096      52564544 
 4096      3900
 4097              	.LASF143:
 4098 03d7 4750494F 		.ascii	"GPIO_Mode_AF_PP\000"
 4098      5F4D6F64 
 4098      655F4146 
ARM GAS  /tmp/cchgvlIx.s 			page 79


 4098      5F505000 
 4099              	.LASF150:
 4100 03e7 55534152 		.ascii	"USART_WordLength\000"
 4100      545F576F 
 4100      72644C65 
 4100      6E677468 
 4100      00
 4101              	.LASF40:
 4102 03f8 49324331 		.ascii	"I2C1_ER_IRQn\000"
 4102      5F45525F 
 4102      4952516E 
 4102      00
 4103              	.LASF216:
 4104 0405 5F726565 		.ascii	"_reent\000"
 4104      6E7400
 4105              	.LASF270:
 4106 040c 5F676C6F 		.ascii	"_global_impure_ptr\000"
 4106      62616C5F 
 4106      696D7075 
 4106      72655F70 
 4106      747200
 4107              	.LASF291:
 4108 041f 4932435F 		.ascii	"I2C_Conf\000"
 4108      436F6E66 
 4108      00
 4109              	.LASF19:
 4110 0428 444D4131 		.ascii	"DMA1_Channel1_IRQn\000"
 4110      5F436861 
 4110      6E6E656C 
 4110      315F4952 
 4110      516E00
 4111              	.LASF32:
 4112 043b 54494D31 		.ascii	"TIM1_BRK_IRQn\000"
 4112      5F42524B 
 4112      5F495251 
 4112      6E00
 4113              	.LASF84:
 4114 0449 52455345 		.ascii	"RESERVED2\000"
 4114      52564544 
 4114      3200
 4115              	.LASF194:
 4116 0453 5F696E64 		.ascii	"_ind\000"
 4116      00
 4117              	.LASF152:
 4118 0458 55534152 		.ascii	"USART_Parity\000"
 4118      545F5061 
 4118      72697479 
 4118      00
 4119              	.LASF3:
 4120 0465 55736167 		.ascii	"UsageFault_IRQn\000"
 4120      65466175 
 4120      6C745F49 
 4120      52516E00 
 4121              	.LASF96:
 4122 0475 43434D52 		.ascii	"CCMR1\000"
 4122      3100
 4123              	.LASF27:
ARM GAS  /tmp/cchgvlIx.s 			page 80


 4124 047b 5553425F 		.ascii	"USB_HP_CAN1_TX_IRQn\000"
 4124      48505F43 
 4124      414E315F 
 4124      54585F49 
 4124      52516E00 
 4125              	.LASF238:
 4126 048f 63686172 		.ascii	"char\000"
 4126      00
 4127              	.LASF195:
 4128 0494 5F666E73 		.ascii	"_fns\000"
 4128      00
 4129              	.LASF207:
 4130 0499 5F636C6F 		.ascii	"_close\000"
 4130      736500
 4131              	.LASF157:
 4132 04a0 4E564943 		.ascii	"NVIC_IRQChannelPreemptionPriority\000"
 4132      5F495251 
 4132      4368616E 
 4132      6E656C50 
 4132      7265656D 
 4133              	.LASF140:
 4134 04c2 4750494F 		.ascii	"GPIO_Mode_Out_OD\000"
 4134      5F4D6F64 
 4134      655F4F75 
 4134      745F4F44 
 4134      00
 4135              	.LASF55:
 4136 04d3 5F5F7569 		.ascii	"__uint16_t\000"
 4136      6E743136 
 4136      5F7400
 4137              	.LASF322:
 4138 04de 64726976 		.ascii	"drivers/conf.c\000"
 4138      6572732F 
 4138      636F6E66 
 4138      2E6300
 4139              	.LASF218:
 4140 04ed 5F737464 		.ascii	"_stdin\000"
 4140      696E00
 4141              	.LASF134:
 4142 04f4 4750494F 		.ascii	"GPIO_Speed_50MHz\000"
 4142      5F537065 
 4142      65645F35 
 4142      304D487A 
 4142      00
 4143              	.LASF118:
 4144 0505 55534152 		.ascii	"USART_TypeDef\000"
 4144      545F5479 
 4144      70654465 
 4144      6600
 4145              	.LASF192:
 4146 0513 5F69735F 		.ascii	"_is_cxa\000"
 4146      63786100 
 4147              	.LASF50:
 4148 051b 55534257 		.ascii	"USBWakeUp_IRQn\000"
 4148      616B6555 
 4148      705F4952 
 4148      516E00
ARM GAS  /tmp/cchgvlIx.s 			page 81


 4149              	.LASF298:
 4150 052a 54494D5F 		.ascii	"TIM_TimeBaseInit\000"
 4150      54696D65 
 4150      42617365 
 4150      496E6974 
 4150      00
 4151              	.LASF38:
 4152 053b 54494D34 		.ascii	"TIM4_IRQn\000"
 4152      5F495251 
 4152      6E00
 4153              	.LASF46:
 4154 0545 55534152 		.ascii	"USART2_IRQn\000"
 4154      54325F49 
 4154      52516E00 
 4155              	.LASF125:
 4156 0551 4932435F 		.ascii	"I2C_InitTypeDef\000"
 4156      496E6974 
 4156      54797065 
 4156      44656600 
 4157              	.LASF308:
 4158 0561 5243435F 		.ascii	"RCC_HCLKConfig\000"
 4158      48434C4B 
 4158      436F6E66 
 4158      696700
 4159              	.LASF319:
 4160 0570 55534152 		.ascii	"USART_Init\000"
 4160      545F496E 
 4160      697400
 4161              	.LASF302:
 4162 057b 5243435F 		.ascii	"RCC_HSEConfig\000"
 4162      48534543 
 4162      6F6E6669 
 4162      6700
 4163              	.LASF316:
 4164 0589 5243435F 		.ascii	"RCC_GetSYSCLKSource\000"
 4164      47657453 
 4164      5953434C 
 4164      4B536F75 
 4164      72636500 
 4165              	.LASF126:
 4166 059d 54494D5F 		.ascii	"TIM_Prescaler\000"
 4166      50726573 
 4166      63616C65 
 4166      7200
 4167              	.LASF39:
 4168 05ab 49324331 		.ascii	"I2C1_EV_IRQn\000"
 4168      5F45565F 
 4168      4952516E 
 4168      00
 4169              	.LASF129:
 4170 05b8 54494D5F 		.ascii	"TIM_ClockDivision\000"
 4170      436C6F63 
 4170      6B446976 
 4170      6973696F 
 4170      6E00
 4171              	.LASF203:
 4172 05ca 5F636F6F 		.ascii	"_cookie\000"
ARM GAS  /tmp/cchgvlIx.s 			page 82


 4172      6B696500 
 4173              	.LASF176:
 4174 05d2 5F776473 		.ascii	"_wds\000"
 4174      00
 4175              	.LASF235:
 4176 05d7 5F736967 		.ascii	"_sig_func\000"
 4176      5F66756E 
 4176      6300
 4177              	.LASF149:
 4178 05e1 55534152 		.ascii	"USART_BaudRate\000"
 4178      545F4261 
 4178      75645261 
 4178      746500
 4179              	.LASF153:
 4180 05f0 55534152 		.ascii	"USART_Mode\000"
 4180      545F4D6F 
 4180      646500
 4181              	.LASF232:
 4182 05fb 5F637674 		.ascii	"_cvtbuf\000"
 4182      62756600 
 4183              	.LASF35:
 4184 0603 54494D31 		.ascii	"TIM1_CC_IRQn\000"
 4184      5F43435F 
 4184      4952516E 
 4184      00
 4185              	.LASF15:
 4186 0610 45585449 		.ascii	"EXTI1_IRQn\000"
 4186      315F4952 
 4186      516E00
 4187              	.LASF141:
 4188 061b 4750494F 		.ascii	"GPIO_Mode_Out_PP\000"
 4188      5F4D6F64 
 4188      655F4F75 
 4188      745F5050 
 4188      00
 4189              	.LASF318:
 4190 062c 4932435F 		.ascii	"I2C_Cmd\000"
 4190      436D6400 
 4191              	.LASF0:
 4192 0634 4E6F6E4D 		.ascii	"NonMaskableInt_IRQn\000"
 4192      61736B61 
 4192      626C6549 
 4192      6E745F49 
 4192      52516E00 
 4193              	.LASF128:
 4194 0648 54494D5F 		.ascii	"TIM_Period\000"
 4194      50657269 
 4194      6F6400
 4195              	.LASF295:
 4196 0653 4E564943 		.ascii	"NVIC_SetVectorTable\000"
 4196      5F536574 
 4196      56656374 
 4196      6F725461 
 4196      626C6500 
 4197              	.LASF280:
 4198 0667 5F5F6664 		.ascii	"__fdlib_version\000"
 4198      6C69625F 
ARM GAS  /tmp/cchgvlIx.s 			page 83


 4198      76657273 
 4198      696F6E00 
 4199              	.LASF8:
 4200 0677 57574447 		.ascii	"WWDG_IRQn\000"
 4200      5F495251 
 4200      6E00
 4201              	.LASF288:
 4202 0681 54494D45 		.ascii	"TIMER_Conf\000"
 4202      525F436F 
 4202      6E6600
 4203              	.LASF229:
 4204 068c 5F703573 		.ascii	"_p5s\000"
 4204      00
 4205              	.LASF60:
 4206 0691 6C6F6E67 		.ascii	"long unsigned int\000"
 4206      20756E73 
 4206      69676E65 
 4206      6420696E 
 4206      7400
 4207              	.LASF304:
 4208 06a3 5243435F 		.ascii	"RCC_APB2PeriphClockCmd\000"
 4208      41504232 
 4208      50657269 
 4208      7068436C 
 4208      6F636B43 
 4209              	.LASF124:
 4210 06ba 4932435F 		.ascii	"I2C_AcknowledgedAddress\000"
 4210      41636B6E 
 4210      6F776C65 
 4210      64676564 
 4210      41646472 
 4211              	.LASF1:
 4212 06d2 4D656D6F 		.ascii	"MemoryManagement_IRQn\000"
 4212      72794D61 
 4212      6E616765 
 4212      6D656E74 
 4212      5F495251 
 4213              	.LASF22:
 4214 06e8 444D4131 		.ascii	"DMA1_Channel4_IRQn\000"
 4214      5F436861 
 4214      6E6E656C 
 4214      345F4952 
 4214      516E00
 4215              	.LASF95:
 4216 06fb 44494552 		.ascii	"DIER\000"
 4216      00
 4217              	.LASF215:
 4218 0700 5F666C61 		.ascii	"_flags2\000"
 4218      67733200 
 4219              	.LASF70:
 4220 0708 53797374 		.ascii	"SystemCoreClock\000"
 4220      656D436F 
 4220      7265436C 
 4220      6F636B00 
 4221              	.LASF30:
 4222 0718 43414E31 		.ascii	"CAN1_SCE_IRQn\000"
 4222      5F534345 
ARM GAS  /tmp/cchgvlIx.s 			page 84


 4222      5F495251 
 4222      6E00
 4223              	.LASF162:
 4224 0726 5F4C4F43 		.ascii	"_LOCK_RECURSIVE_T\000"
 4224      4B5F5245 
 4224      43555253 
 4224      4956455F 
 4224      5400
 4225              	.LASF217:
 4226 0738 5F657272 		.ascii	"_errno\000"
 4226      6E6F00
 4227              	.LASF91:
 4228 073f 54524953 		.ascii	"TRISE\000"
 4228      4500
 4229              	.LASF151:
 4230 0745 55534152 		.ascii	"USART_StopBits\000"
 4230      545F5374 
 4230      6F704269 
 4230      747300
 4231              	.LASF258:
 4232 0754 5F736967 		.ascii	"_signal_buf\000"
 4232      6E616C5F 
 4232      62756600 
 4233              	.LASF79:
 4234 0760 4C434B52 		.ascii	"LCKR\000"
 4234      00
 4235              	.LASF75:
 4236 0765 4552524F 		.ascii	"ERROR\000"
 4236      5200
 4237              	.LASF281:
 4238 076b 5F737973 		.ascii	"_sys_errlist\000"
 4238      5F657272 
 4238      6C697374 
 4238      00
 4239              	.LASF317:
 4240 0778 4932435F 		.ascii	"I2C_Init\000"
 4240      496E6974 
 4240      00
 4241              	.LASF321:
 4242 0781 474E5520 		.ascii	"GNU C11 6.1.1 20160526 -mcpu=cortex-m3 -mthumb -g -"
 4242      43313120 
 4242      362E312E 
 4242      31203230 
 4242      31363035 
 4243 07b4 4F31202D 		.ascii	"O1 -fno-common\000"
 4243      666E6F2D 
 4243      636F6D6D 
 4243      6F6E00
 4244              	.LASF177:
 4245 07c3 5F426967 		.ascii	"_Bigint\000"
 4245      696E7400 
 4246              	.LASF122:
 4247 07cb 4932435F 		.ascii	"I2C_OwnAddress1\000"
 4247      4F776E41 
 4247      64647265 
 4247      73733100 
 4248              	.LASF174:
ARM GAS  /tmp/cchgvlIx.s 			page 85


 4249 07db 5F6D6178 		.ascii	"_maxwds\000"
 4249      77647300 
 4250              	.LASF226:
 4251 07e3 5F5F636C 		.ascii	"__cleanup\000"
 4251      65616E75 
 4251      7000
 4252              	.LASF2:
 4253 07ed 42757346 		.ascii	"BusFault_IRQn\000"
 4253      61756C74 
 4253      5F495251 
 4253      6E00
 4254              	.LASF234:
 4255 07fb 5F617465 		.ascii	"_atexit0\000"
 4255      78697430 
 4255      00
 4256              	.LASF277:
 4257 0804 5F5F6664 		.ascii	"__fdlibm_svid\000"
 4257      6C69626D 
 4257      5F737669 
 4257      6400
 4258              	.LASF59:
 4259 0812 5F5F7569 		.ascii	"__uint32_t\000"
 4259      6E743332 
 4259      5F7400
 4260              	.LASF222:
 4261 081d 5F656D65 		.ascii	"_emergency\000"
 4261      7267656E 
 4261      637900
 4262              	.LASF282:
 4263 0828 5F737973 		.ascii	"_sys_nerr\000"
 4263      5F6E6572 
 4263      7200
 4264              	.LASF299:
 4265 0832 54494D5F 		.ascii	"TIM_ClearFlag\000"
 4265      436C6561 
 4265      72466C61 
 4265      6700
 4266              	.LASF61:
 4267 0840 6C6F6E67 		.ascii	"long long int\000"
 4267      206C6F6E 
 4267      6720696E 
 4267      7400
 4268              	.LASF241:
 4269 084e 5F6E696F 		.ascii	"_niobs\000"
 4269      627300
 4270              	.LASF43:
 4271 0855 53504931 		.ascii	"SPI1_IRQn\000"
 4271      5F495251 
 4271      6E00
 4272              	.LASF236:
 4273 085f 5F5F7367 		.ascii	"__sglue\000"
 4273      6C756500 
 4274              	.LASF267:
 4275 0867 5F6E6D61 		.ascii	"_nmalloc\000"
 4275      6C6C6F63 
 4275      00
 4276              	.LASF272:
ARM GAS  /tmp/cchgvlIx.s 			page 86


 4277 0870 646F7562 		.ascii	"double\000"
 4277      6C6500
 4278              	.LASF130:
 4279 0877 54494D5F 		.ascii	"TIM_RepetitionCounter\000"
 4279      52657065 
 4279      74697469 
 4279      6F6E436F 
 4279      756E7465 
 4280              	.LASF4:
 4281 088d 53564361 		.ascii	"SVCall_IRQn\000"
 4281      6C6C5F49 
 4281      52516E00 
 4282              	.LASF251:
 4283 0899 5F67616D 		.ascii	"_gamma_signgam\000"
 4283      6D615F73 
 4283      69676E67 
 4283      616D00
 4284              	.LASF314:
 4285 08a8 5243435F 		.ascii	"RCC_GetFlagStatus\000"
 4285      47657446 
 4285      6C616753 
 4285      74617475 
 4285      7300
 4286              	.LASF224:
 4287 08ba 5F637572 		.ascii	"_current_locale\000"
 4287      72656E74 
 4287      5F6C6F63 
 4287      616C6500 
 4288              	.LASF230:
 4289 08ca 5F667265 		.ascii	"_freelist\000"
 4289      656C6973 
 4289      7400
 4290              	.LASF242:
 4291 08d4 5F696F62 		.ascii	"_iobs\000"
 4291      7300
 4292              	.LASF240:
 4293 08da 5F676C75 		.ascii	"_glue\000"
 4293      6500
 4294              	.LASF69:
 4295 08e0 49544D5F 		.ascii	"ITM_RxBuffer\000"
 4295      52784275 
 4295      66666572 
 4295      00
 4296              	.LASF175:
 4297 08ed 5F736967 		.ascii	"_sign\000"
 4297      6E00
 4298              	.LASF49:
 4299 08f3 52544341 		.ascii	"RTCAlarm_IRQn\000"
 4299      6C61726D 
 4299      5F495251 
 4299      6E00
 4300              	.LASF273:
 4301 0901 666C6F61 		.ascii	"float\000"
 4301      7400
 4302              	.LASF18:
 4303 0907 45585449 		.ascii	"EXTI4_IRQn\000"
 4303      345F4952 
ARM GAS  /tmp/cchgvlIx.s 			page 87


 4303      516E00
 4304              	.LASF265:
 4305 0912 5F685F65 		.ascii	"_h_errno\000"
 4305      72726E6F 
 4305      00
 4306              	.LASF41:
 4307 091b 49324332 		.ascii	"I2C2_EV_IRQn\000"
 4307      5F45565F 
 4307      4952516E 
 4307      00
 4308              	.LASF63:
 4309 0928 756E7369 		.ascii	"unsigned int\000"
 4309      676E6564 
 4309      20696E74 
 4309      00
 4310              	.LASF97:
 4311 0935 43434D52 		.ascii	"CCMR2\000"
 4311      3200
 4312              	.LASF290:
 4313 093b 5243435F 		.ascii	"RCC_Conf\000"
 4313      436F6E66 
 4313      00
 4314              	.LASF182:
 4315 0944 5F5F746D 		.ascii	"__tm_mday\000"
 4315      5F6D6461 
 4315      7900
 4316              	.LASF233:
 4317 094e 5F6E6577 		.ascii	"_new\000"
 4317      00
 4318              	.LASF208:
 4319 0953 5F756275 		.ascii	"_ubuf\000"
 4319      6600
 4320              	.LASF25:
 4321 0959 444D4131 		.ascii	"DMA1_Channel7_IRQn\000"
 4321      5F436861 
 4321      6E6E656C 
 4321      375F4952 
 4321      516E00
 4322              	.LASF220:
 4323 096c 5F737464 		.ascii	"_stderr\000"
 4323      65727200 
 4324              	.LASF256:
 4325 0974 5F776374 		.ascii	"_wctomb_state\000"
 4325      6F6D625F 
 4325      73746174 
 4325      6500
 4326              	.LASF214:
 4327 0982 5F6D6273 		.ascii	"_mbstate\000"
 4327      74617465 
 4327      00
 4328              	.LASF252:
 4329 098b 5F72616E 		.ascii	"_rand_next\000"
 4329      645F6E65 
 4329      787400
 4330              	.LASF200:
 4331 0996 5F666C61 		.ascii	"_flags\000"
 4331      677300
ARM GAS  /tmp/cchgvlIx.s 			page 88


 4332              	.LASF193:
 4333 099d 5F617465 		.ascii	"_atexit\000"
 4333      78697400 
 4334              	.LASF168:
 4335 09a5 5F5F636F 		.ascii	"__count\000"
 4335      756E7400 
 4336              	.LASF127:
 4337 09ad 54494D5F 		.ascii	"TIM_CounterMode\000"
 4337      436F756E 
 4337      7465724D 
 4337      6F646500 
 4338              	.LASF158:
 4339 09bd 4E564943 		.ascii	"NVIC_IRQChannelSubPriority\000"
 4339      5F495251 
 4339      4368616E 
 4339      6E656C53 
 4339      75625072 
 4340              	.LASF72:
 4341 09d8 44495341 		.ascii	"DISABLE\000"
 4341      424C4500 
 4342              	.LASF161:
 4343 09e0 6C6F6E67 		.ascii	"long double\000"
 4343      20646F75 
 4343      626C6500 
 4344              	.LASF186:
 4345 09ec 5F5F746D 		.ascii	"__tm_yday\000"
 4345      5F796461 
 4345      7900
 4346              	.LASF283:
 4347 09f6 48534553 		.ascii	"HSEStartUpStatus\000"
 4347      74617274 
 4347      55705374 
 4347      61747573 
 4347      00
 4348              	.LASF244:
 4349 0a07 5F736565 		.ascii	"_seed\000"
 4349      6400
 4350              	.LASF293:
 4351 0a0d 55534152 		.ascii	"USART_Conf\000"
 4351      545F436F 
 4351      6E6600
 4352              	.LASF206:
 4353 0a18 5F736565 		.ascii	"_seek\000"
 4353      6B00
 4354              	.LASF77:
 4355 0a1e 4572726F 		.ascii	"ErrorStatus\000"
 4355      72537461 
 4355      74757300 
 4356              	.LASF211:
 4357 0a2a 5F6F6666 		.ascii	"_offset\000"
 4357      73657400 
 4358              	.LASF164:
 4359 0a32 5F66706F 		.ascii	"_fpos_t\000"
 4359      735F7400 
 4360              	.LASF123:
 4361 0a3a 4932435F 		.ascii	"I2C_Ack\000"
 4361      41636B00 
ARM GAS  /tmp/cchgvlIx.s 			page 89


 4362              	.LASF167:
 4363 0a42 5F5F7763 		.ascii	"__wchb\000"
 4363      686200
 4364              	.LASF313:
 4365 0a49 5243435F 		.ascii	"RCC_PLLCmd\000"
 4365      504C4C43 
 4365      6D6400
 4366              	.LASF34:
 4367 0a54 54494D31 		.ascii	"TIM1_TRG_COM_IRQn\000"
 4367      5F545247 
 4367      5F434F4D 
 4367      5F495251 
 4367      6E00
 4368              	.LASF297:
 4369 0a66 4750494F 		.ascii	"GPIO_Init\000"
 4369      5F496E69 
 4369      7400
 4370              	.LASF255:
 4371 0a70 5F6D6274 		.ascii	"_mbtowc_state\000"
 4371      6F77635F 
 4371      73746174 
 4371      6500
 4372              	.LASF296:
 4373 0a7e 4E564943 		.ascii	"NVIC_Init\000"
 4373      5F496E69 
 4373      7400
 4374              	.LASF74:
 4375 0a88 46756E63 		.ascii	"FunctionalState\000"
 4375      74696F6E 
 4375      616C5374 
 4375      61746500 
 4376              	.LASF48:
 4377 0a98 45585449 		.ascii	"EXTI15_10_IRQn\000"
 4377      31355F31 
 4377      305F4952 
 4377      516E00
 4378              	.LASF62:
 4379 0aa7 6C6F6E67 		.ascii	"long long unsigned int\000"
 4379      206C6F6E 
 4379      6720756E 
 4379      7369676E 
 4379      65642069 
 4380              	.LASF65:
 4381 0abe 75696E74 		.ascii	"uint16_t\000"
 4381      31365F74 
 4381      00
 4382              	.LASF190:
 4383 0ac7 5F64736F 		.ascii	"_dso_handle\000"
 4383      5F68616E 
 4383      646C6500 
 4384              	.LASF243:
 4385 0ad3 5F72616E 		.ascii	"_rand48\000"
 4385      64343800 
 4386              	.LASF37:
 4387 0adb 54494D33 		.ascii	"TIM3_IRQn\000"
 4387      5F495251 
 4387      6E00
ARM GAS  /tmp/cchgvlIx.s 			page 90


 4388              	.LASF98:
 4389 0ae5 43434552 		.ascii	"CCER\000"
 4389      00
 4390              	.LASF102:
 4391 0aea 52455345 		.ascii	"RESERVED12\000"
 4391      52564544 
 4391      313200
 4392              	.LASF45:
 4393 0af5 55534152 		.ascii	"USART1_IRQn\000"
 4393      54315F49 
 4393      52516E00 
 4394              	.LASF106:
 4395 0b01 52455345 		.ascii	"RESERVED14\000"
 4395      52564544 
 4395      313400
 4396              	.LASF108:
 4397 0b0c 52455345 		.ascii	"RESERVED15\000"
 4397      52564544 
 4397      313500
 4398              	.LASF110:
 4399 0b17 52455345 		.ascii	"RESERVED16\000"
 4399      52564544 
 4399      313600
 4400              	.LASF112:
 4401 0b22 52455345 		.ascii	"RESERVED17\000"
 4401      52564544 
 4401      313700
 4402              	.LASF113:
 4403 0b2d 52455345 		.ascii	"RESERVED18\000"
 4403      52564544 
 4403      313800
 4404              	.LASF115:
 4405 0b38 52455345 		.ascii	"RESERVED19\000"
 4405      52564544 
 4405      313900
 4406              	.LASF303:
 4407 0b43 5243435F 		.ascii	"RCC_WaitForHSEStartUp\000"
 4407      57616974 
 4407      466F7248 
 4407      53455374 
 4407      61727455 
 4408              	.LASF275:
 4409 0b59 5F5F6664 		.ascii	"__fdlibm_version\000"
 4409      6C69626D 
 4409      5F766572 
 4409      73696F6E 
 4409      00
 4410              	.LASF210:
 4411 0b6a 5F626C6B 		.ascii	"_blksize\000"
 4411      73697A65 
 4411      00
 4412              	.LASF287:
 4413 0b73 4750494F 		.ascii	"GPIO_InitStructure\000"
 4413      5F496E69 
 4413      74537472 
 4413      75637475 
 4413      726500
ARM GAS  /tmp/cchgvlIx.s 			page 91


 4414              	.LASF197:
 4415 0b86 5F626173 		.ascii	"_base\000"
 4415      6500
 4416              	.LASF76:
 4417 0b8c 53554343 		.ascii	"SUCCESS\000"
 4417      45535300 
 4418              	.LASF147:
 4419 0b94 4750494F 		.ascii	"GPIO_Mode\000"
 4419      5F4D6F64 
 4419      6500
 4420              	.LASF320:
 4421 0b9e 55534152 		.ascii	"USART_Cmd\000"
 4421      545F436D 
 4421      6400
 4422              	.LASF248:
 4423 0ba8 5F737472 		.ascii	"_strtok_last\000"
 4423      746F6B5F 
 4423      6C617374 
 4423      00
 4424              	.LASF93:
 4425 0bb5 4932435F 		.ascii	"I2C_TypeDef\000"
 4425      54797065 
 4425      44656600 
 4426              	.LASF261:
 4427 0bc1 5F6D6272 		.ascii	"_mbrtowc_state\000"
 4427      746F7763 
 4427      5F737461 
 4427      746500
 4428              	.LASF94:
 4429 0bd0 534D4352 		.ascii	"SMCR\000"
 4429      00
 4430              	.LASF239:
 4431 0bd5 5F5F4649 		.ascii	"__FILE\000"
 4431      4C4500
 4432              	.LASF263:
 4433 0bdc 5F776372 		.ascii	"_wcrtomb_state\000"
 4433      746F6D62 
 4433      5F737461 
 4433      746500
 4434              	.LASF144:
 4435 0beb 4750494F 		.ascii	"GPIOMode_TypeDef\000"
 4435      4D6F6465 
 4435      5F547970 
 4435      65446566 
 4435      00
 4436              	.LASF71:
 4437 0bfc 52455345 		.ascii	"RESET\000"
 4437      5400
 4438              	.LASF170:
 4439 0c02 5F6D6273 		.ascii	"_mbstate_t\000"
 4439      74617465 
 4439      5F7400
 4440              	.LASF253:
 4441 0c0d 5F723438 		.ascii	"_r48\000"
 4441      00
 4442              	.LASF155:
 4443 0c12 55534152 		.ascii	"USART_InitTypeDef\000"
ARM GAS  /tmp/cchgvlIx.s 			page 92


 4443      545F496E 
 4443      69745479 
 4443      70654465 
 4443      6600
 4444              	.LASF9:
 4445 0c24 5056445F 		.ascii	"PVD_IRQn\000"
 4445      4952516E 
 4445      00
 4446              	.LASF165:
 4447 0c2d 77696E74 		.ascii	"wint_t\000"
 4447      5F7400
 4448              	.LASF173:
 4449 0c34 5F6E6578 		.ascii	"_next\000"
 4449      7400
 4450              	.LASF212:
 4451 0c3a 5F646174 		.ascii	"_data\000"
 4451      6100
 4452              	.LASF14:
 4453 0c40 45585449 		.ascii	"EXTI0_IRQn\000"
 4453      305F4952 
 4453      516E00
 4454              	.LASF83:
 4455 0c4b 4F415231 		.ascii	"OAR1\000"
 4455      00
 4456              	.LASF85:
 4457 0c50 4F415232 		.ascii	"OAR2\000"
 4457      00
 4458              	.LASF133:
 4459 0c55 4750494F 		.ascii	"GPIO_Speed_2MHz\000"
 4459      5F537065 
 4459      65645F32 
 4459      4D487A00 
 4460              	.LASF135:
 4461 0c65 4750494F 		.ascii	"GPIOSpeed_TypeDef\000"
 4461      53706565 
 4461      645F5479 
 4461      70654465 
 4461      6600
 4462              	.LASF5:
 4463 0c77 44656275 		.ascii	"DebugMonitor_IRQn\000"
 4463      674D6F6E 
 4463      69746F72 
 4463      5F495251 
 4463      6E00
 4464              	.LASF145:
 4465 0c89 4750494F 		.ascii	"GPIO_Pin\000"
 4465      5F50696E 
 4465      00
 4466              	.LASF300:
 4467 0c92 54494D5F 		.ascii	"TIM_ITConfig\000"
 4467      4954436F 
 4467      6E666967 
 4467      00
 4468              	.LASF28:
 4469 0c9f 5553425F 		.ascii	"USB_LP_CAN1_RX0_IRQn\000"
 4469      4C505F43 
 4469      414E315F 
ARM GAS  /tmp/cchgvlIx.s 			page 93


 4469      5258305F 
 4469      4952516E 
 4470              	.LASF279:
 4471 0cb4 5F5F6664 		.ascii	"__fdlibm_posix\000"
 4471      6C69626D 
 4471      5F706F73 
 4471      697800
 4472              	.LASF21:
 4473 0cc3 444D4131 		.ascii	"DMA1_Channel3_IRQn\000"
 4473      5F436861 
 4473      6E6E656C 
 4473      335F4952 
 4473      516E00
 4474              	.LASF307:
 4475 0cd6 464C4153 		.ascii	"FLASH_SetLatency\000"
 4475      485F5365 
 4475      744C6174 
 4475      656E6379 
 4475      00
 4476              	.LASF254:
 4477 0ce7 5F6D626C 		.ascii	"_mblen_state\000"
 4477      656E5F73 
 4477      74617465 
 4477      00
 4478              	.LASF53:
 4479 0cf4 73686F72 		.ascii	"short int\000"
 4479      7420696E 
 4479      7400
 4480              	.LASF13:
 4481 0cfe 5243435F 		.ascii	"RCC_IRQn\000"
 4481      4952516E 
 4481      00
 4482              	.LASF278:
 4483 0d07 5F5F6664 		.ascii	"__fdlibm_xopen\000"
 4483      6C69626D 
 4483      5F786F70 
 4483      656E00
 4484              	.LASF137:
 4485 0d16 4750494F 		.ascii	"GPIO_Mode_IN_FLOATING\000"
 4485      5F4D6F64 
 4485      655F494E 
 4485      5F464C4F 
 4485      4154494E 
 4486              	.LASF271:
 4487 0d2c 7375626F 		.ascii	"suboptarg\000"
 4487      70746172 
 4487      6700
 4488              	.LASF191:
 4489 0d36 5F666E74 		.ascii	"_fntypes\000"
 4489      79706573 
 4489      00
 4490              	.LASF26:
 4491 0d3f 41444331 		.ascii	"ADC1_2_IRQn\000"
 4491      5F325F49 
 4491      52516E00 
 4492              	.LASF73:
 4493 0d4b 454E4142 		.ascii	"ENABLE\000"
ARM GAS  /tmp/cchgvlIx.s 			page 94


 4493      4C4500
 4494              	.LASF184:
 4495 0d52 5F5F746D 		.ascii	"__tm_year\000"
 4495      5F796561 
 4495      7200
 4496              	.LASF78:
 4497 0d5c 42535252 		.ascii	"BSRR\000"
 4497      00
 4498              	.LASF80:
 4499 0d61 4750494F 		.ascii	"GPIO_TypeDef\000"
 4499      5F547970 
 4499      65446566 
 4499      00
 4500              	.LASF202:
 4501 0d6e 5F6C6266 		.ascii	"_lbfsize\000"
 4501      73697A65 
 4501      00
 4502              	.LASF221:
 4503 0d77 5F696E63 		.ascii	"_inc\000"
 4503      00
 4504              	.LASF20:
 4505 0d7c 444D4131 		.ascii	"DMA1_Channel2_IRQn\000"
 4505      5F436861 
 4505      6E6E656C 
 4505      325F4952 
 4505      516E00
 4506              	.LASF276:
 4507 0d8f 5F5F6664 		.ascii	"__fdlibm_ieee\000"
 4507      6C69626D 
 4507      5F696565 
 4507      6500
 4508              	.LASF196:
 4509 0d9d 5F5F7362 		.ascii	"__sbuf\000"
 4509      756600
 4510              	.LASF266:
 4511 0da4 5F6E6578 		.ascii	"_nextf\000"
 4511      746600
 4512              	.LASF119:
 4513 0dab 4932435F 		.ascii	"I2C_ClockSpeed\000"
 4513      436C6F63 
 4513      6B537065 
 4513      656400
 4514              	.LASF172:
 4515 0dba 5F5F554C 		.ascii	"__ULong\000"
 4515      6F6E6700 
 4516              	.LASF111:
 4517 0dc2 42445452 		.ascii	"BDTR\000"
 4517      00
 4518              	.LASF67:
 4519 0dc7 75696E74 		.ascii	"uint32_t\000"
 4519      33325F74 
 4519      00
 4520              	.LASF33:
 4521 0dd0 54494D31 		.ascii	"TIM1_UP_IRQn\000"
 4521      5F55505F 
 4521      4952516E 
 4521      00
ARM GAS  /tmp/cchgvlIx.s 			page 95


 4522              	.LASF227:
 4523 0ddd 5F726573 		.ascii	"_result\000"
 4523      756C7400 
 4524              	.LASF29:
 4525 0de5 43414E31 		.ascii	"CAN1_RX1_IRQn\000"
 4525      5F525831 
 4525      5F495251 
 4525      6E00
 4526              	.LASF154:
 4527 0df3 55534152 		.ascii	"USART_HardwareFlowControl\000"
 4527      545F4861 
 4527      72647761 
 4527      7265466C 
 4527      6F77436F 
 4528              	.LASF31:
 4529 0e0d 45585449 		.ascii	"EXTI9_5_IRQn\000"
 4529      395F355F 
 4529      4952516E 
 4529      00
 4530              	.LASF163:
 4531 0e1a 5F6F6666 		.ascii	"_off_t\000"
 4531      5F7400
 4532              	.LASF246:
 4533 0e21 5F616464 		.ascii	"_add\000"
 4533      00
 4534              	.LASF132:
 4535 0e26 4750494F 		.ascii	"GPIO_Speed_10MHz\000"
 4535      5F537065 
 4535      65645F31 
 4535      304D487A 
 4535      00
 4536              	.LASF160:
 4537 0e37 4E564943 		.ascii	"NVIC_InitTypeDef\000"
 4537      5F496E69 
 4537      74547970 
 4537      65446566 
 4537      00
 4538              	.LASF56:
 4539 0e48 73686F72 		.ascii	"short unsigned int\000"
 4539      7420756E 
 4539      7369676E 
 4539      65642069 
 4539      6E7400
 4540              	.LASF181:
 4541 0e5b 5F5F746D 		.ascii	"__tm_hour\000"
 4541      5F686F75 
 4541      7200
 4542              	.LASF199:
 4543 0e65 5F5F7346 		.ascii	"__sFILE\000"
 4543      494C4500 
 4544              	.LASF185:
 4545 0e6d 5F5F746D 		.ascii	"__tm_wday\000"
 4545      5F776461 
 4545      7900
 4546              	.LASF100:
 4547 0e77 52455345 		.ascii	"RESERVED10\000"
 4547      52564544 
ARM GAS  /tmp/cchgvlIx.s 			page 96


 4547      313000
 4548              	.LASF101:
 4549 0e82 52455345 		.ascii	"RESERVED11\000"
 4549      52564544 
 4549      313100
 4550              	.LASF104:
 4551 0e8d 52455345 		.ascii	"RESERVED13\000"
 4551      52564544 
 4551      313300
 4552              	.LASF17:
 4553 0e98 45585449 		.ascii	"EXTI3_IRQn\000"
 4553      335F4952 
 4553      516E00
 4554              	.LASF6:
 4555 0ea3 50656E64 		.ascii	"PendSV_IRQn\000"
 4555      53565F49 
 4555      52516E00 
 4556              	.LASF262:
 4557 0eaf 5F6D6273 		.ascii	"_mbsrtowcs_state\000"
 4557      72746F77 
 4557      63735F73 
 4557      74617465 
 4557      00
 4558              	.LASF57:
 4559 0ec0 5F5F696E 		.ascii	"__int32_t\000"
 4559      7433325F 
 4559      7400
 4560              	.LASF189:
 4561 0eca 5F666E61 		.ascii	"_fnargs\000"
 4561      72677300 
 4562              	.LASF187:
 4563 0ed2 5F5F746D 		.ascii	"__tm_isdst\000"
 4563      5F697364 
 4563      737400
 4564              	.LASF24:
 4565 0edd 444D4131 		.ascii	"DMA1_Channel6_IRQn\000"
 4565      5F436861 
 4565      6E6E656C 
 4565      365F4952 
 4565      516E00
 4566              	.LASF180:
 4567 0ef0 5F5F746D 		.ascii	"__tm_min\000"
 4567      5F6D696E 
 4567      00
 4568              	.LASF259:
 4569 0ef9 5F676574 		.ascii	"_getdate_err\000"
 4569      64617465 
 4569      5F657272 
 4569      00
 4570              	.LASF315:
 4571 0f06 5243435F 		.ascii	"RCC_SYSCLKConfig\000"
 4571      53595343 
 4571      4C4B436F 
 4571      6E666967 
 4571      00
 4572              	.LASF11:
 4573 0f17 5254435F 		.ascii	"RTC_IRQn\000"
ARM GAS  /tmp/cchgvlIx.s 			page 97


 4573      4952516E 
 4573      00
 4574              	.LASF131:
 4575 0f20 54494D5F 		.ascii	"TIM_TimeBaseInitTypeDef\000"
 4575      54696D65 
 4575      42617365 
 4575      496E6974 
 4575      54797065 
 4576              	.LASF138:
 4577 0f38 4750494F 		.ascii	"GPIO_Mode_IPD\000"
 4577      5F4D6F64 
 4577      655F4950 
 4577      4400
 4578              		.ident	"GCC: (Arch Repository) 6.1.1 20160526"
ARM GAS  /tmp/cchgvlIx.s 			page 98


DEFINED SYMBOLS
                            *ABS*:0000000000000000 conf.c
     /tmp/cchgvlIx.s:15     .text:0000000000000000 $t
     /tmp/cchgvlIx.s:22     .text:0000000000000000 USART_Conf
     /tmp/cchgvlIx.s:69     .text:0000000000000038 $d
     /tmp/cchgvlIx.s:73     .text:000000000000003c $t
     /tmp/cchgvlIx.s:80     .text:000000000000003c I2C_Conf
     /tmp/cchgvlIx.s:129    .text:0000000000000080 $d
     /tmp/cchgvlIx.s:134    .text:0000000000000088 $t
     /tmp/cchgvlIx.s:141    .text:0000000000000088 RCC_Conf
     /tmp/cchgvlIx.s:249    .text:0000000000000124 $d
     /tmp/cchgvlIx.s:253    .text:0000000000000128 $t
     /tmp/cchgvlIx.s:260    .text:0000000000000128 TIMER_Conf
     /tmp/cchgvlIx.s:315    .text:000000000000016e GPIO_Conf
     /tmp/cchgvlIx.s:382    .text:00000000000001d4 $d
     /tmp/cchgvlIx.s:386    .text:00000000000001d8 $t
     /tmp/cchgvlIx.s:393    .text:00000000000001d8 NVIC_Conf
     /tmp/cchgvlIx.s:437    .bss:0000000000000000 HSEStartUpStatus
     /tmp/cchgvlIx.s:438    .bss:0000000000000000 $d
                     .debug_frame:0000000000000010 $d

UNDEFINED SYMBOLS
USART_Init
USART_Cmd
I2C_Init
I2C_Cmd
RCC_DeInit
RCC_HSEConfig
RCC_WaitForHSEStartUp
RCC_APB2PeriphClockCmd
RCC_APB1PeriphClockCmd
FLASH_PrefetchBufferCmd
FLASH_SetLatency
RCC_HCLKConfig
RCC_PCLK2Config
RCC_PCLK1Config
RCC_ADCCLKConfig
RCC_PLLConfig
RCC_PLLCmd
RCC_GetFlagStatus
RCC_SYSCLKConfig
RCC_GetSYSCLKSource
TIM_TimeBaseInit
TIM_ClearFlag
TIM_ITConfig
GPIO_Init
NVIC_SetVectorTable
NVIC_Init
