ARM GAS  /tmp/ccDmhAoc.s 			page 1


   1              		.cpu cortex-m3
   2              		.eabi_attribute 20, 1
   3              		.eabi_attribute 21, 1
   4              		.eabi_attribute 23, 3
   5              		.eabi_attribute 24, 1
   6              		.eabi_attribute 25, 1
   7              		.eabi_attribute 26, 1
   8              		.eabi_attribute 30, 1
   9              		.eabi_attribute 34, 1
  10              		.eabi_attribute 18, 4
  11              		.file	"filter.c"
  12              		.text
  13              	.Ltext0:
  14              		.cfi_sections	.debug_frame
  15              		.global	__aeabi_fsub
  16              		.global	__aeabi_fmul
  17              		.global	__aeabi_fadd
  18              		.global	__aeabi_i2f
  19              		.global	__aeabi_fdiv
  20              		.align	1
  21              		.global	Kalman_Filter
  22              		.syntax unified
  23              		.thumb
  24              		.thumb_func
  25              		.fpu softvfp
  26              		.type	Kalman_Filter, %function
  27              	Kalman_Filter:
  28              	.LFB0:
  29              		.file 1 "drivers/filter.c"
   1:drivers/filter.c **** #include "filter.h"
   2:drivers/filter.c **** float K1 =0.02; 
   3:drivers/filter.c **** float angle, angle_dot; 	
   4:drivers/filter.c **** float Q_angle=0.001;// 过程噪声的协方差
   5:drivers/filter.c **** float Q_gyro=0.003;//0.03 过程噪声的协方差 过程噪声的协方差为一个一行两列矩阵
   6:drivers/filter.c **** float R_angle=0.5;// 测量噪声的协方差 既测量偏差
   7:drivers/filter.c **** float dt=0.005;//                 
   8:drivers/filter.c **** char  C_0 = 1;
   9:drivers/filter.c **** float Q_bias, Angle_err;
  10:drivers/filter.c **** float PCt_0, PCt_1, E;
  11:drivers/filter.c **** float K_0, K_1, t_0, t_1;
  12:drivers/filter.c **** float Pdot[4] ={0,0,0,0};
  13:drivers/filter.c **** float PP[2][2] = { { 1, 0 },{ 0, 1 } };
  14:drivers/filter.c **** 
  15:drivers/filter.c **** /**************************************************************************
  16:drivers/filter.c **** 函数功能：简易卡尔曼滤波
  17:drivers/filter.c **** 入口参数：加速度、角速度
  18:drivers/filter.c **** 返回  值：无
  19:drivers/filter.c **** **************************************************************************/
  20:drivers/filter.c **** void Kalman_Filter(float Accel,float Gyro)		
  21:drivers/filter.c **** {
  30              		.loc 1 21 0
  31              		.cfi_startproc
  32              		@ args = 0, pretend = 0, frame = 40
  33              		@ frame_needed = 0, uses_anonymous_args = 0
  34              	.LVL0:
  35 0000 2DE9F04F 		push	{r4, r5, r6, r7, r8, r9, r10, fp, lr}
  36              		.cfi_def_cfa_offset 36
ARM GAS  /tmp/ccDmhAoc.s 			page 2


  37              		.cfi_offset 4, -36
  38              		.cfi_offset 5, -32
  39              		.cfi_offset 6, -28
  40              		.cfi_offset 7, -24
  41              		.cfi_offset 8, -20
  42              		.cfi_offset 9, -16
  43              		.cfi_offset 10, -12
  44              		.cfi_offset 11, -8
  45              		.cfi_offset 14, -4
  46 0004 8BB0     		sub	sp, sp, #44
  47              		.cfi_def_cfa_offset 80
  48 0006 8246     		mov	r10, r0
  49 0008 0846     		mov	r0, r1
  50              	.LVL1:
  22:drivers/filter.c **** 	angle+=(Gyro - Q_bias) * dt; //先验估计
  51              		.loc 1 22 0
  52 000a 5C4C     		ldr	r4, .L3
  53 000c 2368     		ldr	r3, [r4]	@ float
  54 000e 1A46     		mov	r2, r3
  55 0010 5B4D     		ldr	r5, .L3+4
  56 0012 2B68     		ldr	r3, [r5]	@ float
  57 0014 1E46     		mov	r6, r3
  58 0016 0592     		str	r2, [sp, #20]	@ float
  59 0018 1146     		mov	r1, r2
  60              	.LVL2:
  61 001a 0790     		str	r0, [sp, #28]	@ float
  62 001c FFF7FEFF 		bl	__aeabi_fsub
  63              	.LVL3:
  64 0020 0196     		str	r6, [sp, #4]	@ float
  65 0022 3146     		mov	r1, r6
  66 0024 FFF7FEFF 		bl	__aeabi_fmul
  67              	.LVL4:
  68 0028 6168     		ldr	r1, [r4, #4]	@ float
  69 002a FFF7FEFF 		bl	__aeabi_fadd
  70              	.LVL5:
  71 002e 0290     		str	r0, [sp, #8]	@ float
  23:drivers/filter.c **** 	Pdot[0]=Q_angle - PP[0][1] - PP[1][0]; // Pk-先验估计误差协方差的微分
  72              		.loc 1 23 0
  73 0030 D5F80880 		ldr	r8, [r5, #8]	@ float
  74 0034 EF68     		ldr	r7, [r5, #12]	@ float
  75 0036 4146     		mov	r1, r8
  76 0038 6869     		ldr	r0, [r5, #20]	@ float
  77 003a FFF7FEFF 		bl	__aeabi_fsub
  78              	.LVL6:
  79 003e 3946     		mov	r1, r7
  80 0040 FFF7FEFF 		bl	__aeabi_fsub
  81              	.LVL7:
  82 0044 0146     		mov	r1, r0
  83 0046 A060     		str	r0, [r4, #8]	@ float
  24:drivers/filter.c **** 
  25:drivers/filter.c **** 	Pdot[1]=-PP[1][1];
  84              		.loc 1 25 0
  85 0048 D5F810B0 		ldr	fp, [r5, #16]	@ float
  86 004c 0BF10046 		add	r6, fp, #-2147483648
  87 0050 E660     		str	r6, [r4, #12]	@ float
  26:drivers/filter.c **** 	Pdot[2]=-PP[1][1];
  88              		.loc 1 26 0
ARM GAS  /tmp/ccDmhAoc.s 			page 3


  89 0052 2661     		str	r6, [r4, #16]	@ float
  27:drivers/filter.c **** 	Pdot[3]=Q_gyro;
  90              		.loc 1 27 0
  91 0054 D5F81890 		ldr	r9, [r5, #24]	@ float
  92 0058 C4F81490 		str	r9, [r4, #20]	@ float
  28:drivers/filter.c **** 	PP[0][0] += Pdot[0] * dt;   // Pk-先验估计误差协方差微分的积分
  93              		.loc 1 28 0
  94 005c 0198     		ldr	r0, [sp, #4]	@ float
  95 005e FFF7FEFF 		bl	__aeabi_fmul
  96              	.LVL8:
  97 0062 6968     		ldr	r1, [r5, #4]	@ float
  98 0064 FFF7FEFF 		bl	__aeabi_fadd
  99              	.LVL9:
 100 0068 0390     		str	r0, [sp, #12]	@ float
  29:drivers/filter.c **** 	PP[0][1] += Pdot[1] * dt;   // =先验估计误差协方差
 101              		.loc 1 29 0
 102 006a 3146     		mov	r1, r6
 103 006c 0198     		ldr	r0, [sp, #4]	@ float
 104 006e FFF7FEFF 		bl	__aeabi_fmul
 105              	.LVL10:
 106 0072 0646     		mov	r6, r0
 107 0074 0146     		mov	r1, r0
 108 0076 4046     		mov	r0, r8
 109 0078 FFF7FEFF 		bl	__aeabi_fadd
 110              	.LVL11:
 111 007c 0490     		str	r0, [sp, #16]	@ float
  30:drivers/filter.c **** 	PP[1][0] += Pdot[2] * dt;
 112              		.loc 1 30 0
 113 007e 3146     		mov	r1, r6
 114 0080 3846     		mov	r0, r7
 115 0082 FFF7FEFF 		bl	__aeabi_fadd
 116              	.LVL12:
 117 0086 8046     		mov	r8, r0
  31:drivers/filter.c **** 	PP[1][1] += Pdot[3] * dt;
  32:drivers/filter.c **** 		
  33:drivers/filter.c **** 	Angle_err = Accel - angle;	//zk-先验估计
 118              		.loc 1 33 0
 119 0088 0299     		ldr	r1, [sp, #8]	@ float
 120 008a 5046     		mov	r0, r10
 121 008c FFF7FEFF 		bl	__aeabi_fsub
 122              	.LVL13:
 123 0090 0990     		str	r0, [sp, #36]	@ float
 124 0092 A061     		str	r0, [r4, #24]	@ float
  34:drivers/filter.c **** 	
  35:drivers/filter.c **** 	PCt_0 = C_0 * PP[0][0];
 125              		.loc 1 35 0
 126 0094 287F     		ldrb	r0, [r5, #28]	@ zero_extendqisi2
 127 0096 FFF7FEFF 		bl	__aeabi_i2f
 128              	.LVL14:
 129 009a 0746     		mov	r7, r0
 130 009c 0146     		mov	r1, r0
 131 009e 0398     		ldr	r0, [sp, #12]	@ float
 132 00a0 FFF7FEFF 		bl	__aeabi_fmul
 133              	.LVL15:
 134 00a4 0646     		mov	r6, r0
 135 00a6 E061     		str	r0, [r4, #28]	@ float
  36:drivers/filter.c **** 	PCt_1 = C_0 * PP[1][0];
ARM GAS  /tmp/ccDmhAoc.s 			page 4


 136              		.loc 1 36 0
 137 00a8 3946     		mov	r1, r7
 138 00aa CDF82080 		str	r8, [sp, #32]	@ float
 139 00ae 4046     		mov	r0, r8
 140 00b0 FFF7FEFF 		bl	__aeabi_fmul
 141              	.LVL16:
 142 00b4 8046     		mov	r8, r0
 143 00b6 2062     		str	r0, [r4, #32]	@ float
  37:drivers/filter.c **** 	
  38:drivers/filter.c **** 	E = R_angle + C_0 * PCt_0;
 144              		.loc 1 38 0
 145 00b8 3146     		mov	r1, r6
 146 00ba 0697     		str	r7, [sp, #24]	@ float
 147 00bc 3846     		mov	r0, r7
 148 00be FFF7FEFF 		bl	__aeabi_fmul
 149              	.LVL17:
 150 00c2 296A     		ldr	r1, [r5, #32]	@ float
 151 00c4 FFF7FEFF 		bl	__aeabi_fadd
 152              	.LVL18:
 153 00c8 8246     		mov	r10, r0
 154              	.LVL19:
 155 00ca 6062     		str	r0, [r4, #36]	@ float
  39:drivers/filter.c **** 	
  40:drivers/filter.c **** 	K_0 = PCt_0 / E;
 156              		.loc 1 40 0
 157 00cc 0146     		mov	r1, r0
 158 00ce 3046     		mov	r0, r6
 159 00d0 FFF7FEFF 		bl	__aeabi_fdiv
 160              	.LVL20:
 161 00d4 0746     		mov	r7, r0
 162 00d6 A062     		str	r0, [r4, #40]	@ float
  41:drivers/filter.c **** 	K_1 = PCt_1 / E;
 163              		.loc 1 41 0
 164 00d8 5146     		mov	r1, r10
 165 00da 4046     		mov	r0, r8
 166 00dc FFF7FEFF 		bl	__aeabi_fdiv
 167              	.LVL21:
 168 00e0 8246     		mov	r10, r0
 169 00e2 E062     		str	r0, [r4, #44]	@ float
  42:drivers/filter.c **** 	
  43:drivers/filter.c **** 	t_0 = PCt_0;
 170              		.loc 1 43 0
 171 00e4 2663     		str	r6, [r4, #48]	@ float
  44:drivers/filter.c **** 	t_1 = C_0 * PP[0][1];
 172              		.loc 1 44 0
 173 00e6 0699     		ldr	r1, [sp, #24]	@ float
 174 00e8 0498     		ldr	r0, [sp, #16]	@ float
 175 00ea FFF7FEFF 		bl	__aeabi_fmul
 176              	.LVL22:
 177 00ee 8046     		mov	r8, r0
 178 00f0 6063     		str	r0, [r4, #52]	@ float
  45:drivers/filter.c **** 
  46:drivers/filter.c **** 	PP[0][0] -= K_0 * t_0;		 //后验估计误差协方差
 179              		.loc 1 46 0
 180 00f2 3946     		mov	r1, r7
 181 00f4 3046     		mov	r0, r6
 182 00f6 FFF7FEFF 		bl	__aeabi_fmul
ARM GAS  /tmp/ccDmhAoc.s 			page 5


 183              	.LVL23:
 184 00fa 0146     		mov	r1, r0
 185 00fc 0398     		ldr	r0, [sp, #12]	@ float
 186 00fe FFF7FEFF 		bl	__aeabi_fsub
 187              	.LVL24:
 188 0102 6860     		str	r0, [r5, #4]	@ float
  47:drivers/filter.c **** 	PP[0][1] -= K_0 * t_1;
 189              		.loc 1 47 0
 190 0104 4146     		mov	r1, r8
 191 0106 3846     		mov	r0, r7
 192 0108 FFF7FEFF 		bl	__aeabi_fmul
 193              	.LVL25:
 194 010c 0146     		mov	r1, r0
 195 010e 0498     		ldr	r0, [sp, #16]	@ float
 196 0110 FFF7FEFF 		bl	__aeabi_fsub
 197              	.LVL26:
 198 0114 A860     		str	r0, [r5, #8]	@ float
  48:drivers/filter.c **** 	PP[1][0] -= K_1 * t_0;
 199              		.loc 1 48 0
 200 0116 5146     		mov	r1, r10
 201 0118 3046     		mov	r0, r6
 202 011a FFF7FEFF 		bl	__aeabi_fmul
 203              	.LVL27:
 204 011e 0146     		mov	r1, r0
 205 0120 0898     		ldr	r0, [sp, #32]	@ float
 206 0122 FFF7FEFF 		bl	__aeabi_fsub
 207              	.LVL28:
 208 0126 E860     		str	r0, [r5, #12]	@ float
  31:drivers/filter.c **** 		
 209              		.loc 1 31 0
 210 0128 4946     		mov	r1, r9
 211 012a 0198     		ldr	r0, [sp, #4]	@ float
 212 012c FFF7FEFF 		bl	__aeabi_fmul
 213              	.LVL29:
 214 0130 5946     		mov	r1, fp
 215 0132 FFF7FEFF 		bl	__aeabi_fadd
 216              	.LVL30:
 217 0136 0646     		mov	r6, r0
  49:drivers/filter.c **** 	PP[1][1] -= K_1 * t_1;
 218              		.loc 1 49 0
 219 0138 4146     		mov	r1, r8
 220 013a 5046     		mov	r0, r10
 221 013c FFF7FEFF 		bl	__aeabi_fmul
 222              	.LVL31:
 223 0140 0146     		mov	r1, r0
 224 0142 3046     		mov	r0, r6
 225 0144 FFF7FEFF 		bl	__aeabi_fsub
 226              	.LVL32:
 227 0148 2861     		str	r0, [r5, #16]	@ float
  50:drivers/filter.c **** 		
  51:drivers/filter.c **** 	angle	+= K_0 * Angle_err;	 //后验估计
 228              		.loc 1 51 0
 229 014a 3946     		mov	r1, r7
 230 014c 099D     		ldr	r5, [sp, #36]	@ float
 231 014e 2846     		mov	r0, r5
 232 0150 FFF7FEFF 		bl	__aeabi_fmul
 233              	.LVL33:
ARM GAS  /tmp/ccDmhAoc.s 			page 6


 234 0154 0299     		ldr	r1, [sp, #8]	@ float
 235 0156 FFF7FEFF 		bl	__aeabi_fadd
 236              	.LVL34:
 237 015a 6060     		str	r0, [r4, #4]	@ float
  52:drivers/filter.c **** 	Q_bias	+= K_1 * Angle_err;	 //后验估计
 238              		.loc 1 52 0
 239 015c 5146     		mov	r1, r10
 240 015e 2846     		mov	r0, r5
 241 0160 FFF7FEFF 		bl	__aeabi_fmul
 242              	.LVL35:
 243 0164 0599     		ldr	r1, [sp, #20]	@ float
 244 0166 FFF7FEFF 		bl	__aeabi_fadd
 245              	.LVL36:
 246 016a 0146     		mov	r1, r0
 247 016c 2060     		str	r0, [r4]	@ float
  53:drivers/filter.c **** 	angle_dot   = Gyro - Q_bias;	 //输出值(后验估计)的微分=角速度
 248              		.loc 1 53 0
 249 016e 0798     		ldr	r0, [sp, #28]	@ float
 250 0170 FFF7FEFF 		bl	__aeabi_fsub
 251              	.LVL37:
 252 0174 A063     		str	r0, [r4, #56]	@ float
  54:drivers/filter.c **** }
 253              		.loc 1 54 0
 254 0176 0BB0     		add	sp, sp, #44
 255              		.cfi_def_cfa_offset 36
 256              		@ sp needed
 257 0178 BDE8F08F 		pop	{r4, r5, r6, r7, r8, r9, r10, fp, pc}
 258              	.LVL38:
 259              	.L4:
 260              		.align	2
 261              	.L3:
 262 017c 00000000 		.word	.LANCHOR0
 263 0180 00000000 		.word	.LANCHOR1
 264              		.cfi_endproc
 265              	.LFE0:
 266              		.size	Kalman_Filter, .-Kalman_Filter
 267              		.global	__aeabi_f2d
 268              		.global	__aeabi_dmul
 269              		.global	__aeabi_dadd
 270              		.global	__aeabi_d2f
 271              		.align	1
 272              		.global	Yijielvbo
 273              		.syntax unified
 274              		.thumb
 275              		.thumb_func
 276              		.fpu softvfp
 277              		.type	Yijielvbo, %function
 278              	Yijielvbo:
 279              	.LFB1:
  55:drivers/filter.c **** 
  56:drivers/filter.c **** /**************************************************************************
  57:drivers/filter.c **** 函数功能：一阶互补滤波
  58:drivers/filter.c **** 入口参数：加速度、角速度
  59:drivers/filter.c **** 返回  值：无
  60:drivers/filter.c **** **************************************************************************/
  61:drivers/filter.c **** void Yijielvbo(float angle_m, float gyro_m)
  62:drivers/filter.c **** {
ARM GAS  /tmp/ccDmhAoc.s 			page 7


 280              		.loc 1 62 0
 281              		.cfi_startproc
 282              		@ args = 0, pretend = 0, frame = 0
 283              		@ frame_needed = 0, uses_anonymous_args = 0
 284              	.LVL39:
 285 0184 2DE9F843 		push	{r3, r4, r5, r6, r7, r8, r9, lr}
 286              		.cfi_def_cfa_offset 32
 287              		.cfi_offset 3, -32
 288              		.cfi_offset 4, -28
 289              		.cfi_offset 5, -24
 290              		.cfi_offset 6, -20
 291              		.cfi_offset 7, -16
 292              		.cfi_offset 8, -12
 293              		.cfi_offset 9, -8
 294              		.cfi_offset 14, -4
 295 0188 8046     		mov	r8, r0
 296 018a 8946     		mov	r9, r1
  63:drivers/filter.c ****    angle = K1 * angle_m+ (1-K1) * (angle + gyro_m * 0.005);
 297              		.loc 1 63 0
 298 018c 1E4B     		ldr	r3, .L7+8
 299 018e 5D6A     		ldr	r5, [r3, #36]	@ float
 300 0190 1E4C     		ldr	r4, .L7+12
 301 0192 6068     		ldr	r0, [r4, #4]	@ float
 302              	.LVL40:
 303 0194 FFF7FEFF 		bl	__aeabi_f2d
 304              	.LVL41:
 305 0198 0646     		mov	r6, r0
 306 019a 0F46     		mov	r7, r1
 307 019c 4846     		mov	r0, r9
 308 019e FFF7FEFF 		bl	__aeabi_f2d
 309              	.LVL42:
 310 01a2 17A3     		adr	r3, .L7
 311 01a4 D3E90023 		ldrd	r2, [r3]
 312 01a8 FFF7FEFF 		bl	__aeabi_dmul
 313              	.LVL43:
 314 01ac 0246     		mov	r2, r0
 315 01ae 0B46     		mov	r3, r1
 316 01b0 3046     		mov	r0, r6
 317 01b2 3946     		mov	r1, r7
 318 01b4 FFF7FEFF 		bl	__aeabi_dadd
 319              	.LVL44:
 320 01b8 0646     		mov	r6, r0
 321 01ba 0F46     		mov	r7, r1
 322 01bc 2946     		mov	r1, r5
 323 01be 4FF07E50 		mov	r0, #1065353216
 324 01c2 FFF7FEFF 		bl	__aeabi_fsub
 325              	.LVL45:
 326 01c6 FFF7FEFF 		bl	__aeabi_f2d
 327              	.LVL46:
 328 01ca 0246     		mov	r2, r0
 329 01cc 0B46     		mov	r3, r1
 330 01ce 3046     		mov	r0, r6
 331 01d0 3946     		mov	r1, r7
 332 01d2 FFF7FEFF 		bl	__aeabi_dmul
 333              	.LVL47:
 334 01d6 0646     		mov	r6, r0
 335 01d8 0F46     		mov	r7, r1
ARM GAS  /tmp/ccDmhAoc.s 			page 8


 336 01da 4146     		mov	r1, r8
 337 01dc 2846     		mov	r0, r5
 338 01de FFF7FEFF 		bl	__aeabi_fmul
 339              	.LVL48:
 340 01e2 FFF7FEFF 		bl	__aeabi_f2d
 341              	.LVL49:
 342 01e6 0246     		mov	r2, r0
 343 01e8 0B46     		mov	r3, r1
 344 01ea 3046     		mov	r0, r6
 345 01ec 3946     		mov	r1, r7
 346 01ee FFF7FEFF 		bl	__aeabi_dadd
 347              	.LVL50:
 348 01f2 FFF7FEFF 		bl	__aeabi_d2f
 349              	.LVL51:
 350 01f6 6060     		str	r0, [r4, #4]	@ float
 351 01f8 BDE8F883 		pop	{r3, r4, r5, r6, r7, r8, r9, pc}
 352              	.LVL52:
 353              	.L8:
 354 01fc AFF30080 		.align	3
 355              	.L7:
 356 0200 7B14AE47 		.word	1202590843
 357 0204 E17A743F 		.word	1064598241
 358 0208 00000000 		.word	.LANCHOR1
 359 020c 00000000 		.word	.LANCHOR0
 360              		.cfi_endproc
 361              	.LFE1:
 362              		.size	Yijielvbo, .-Yijielvbo
 363              		.global	PP
 364              		.global	Pdot
 365              		.global	t_1
 366              		.global	t_0
 367              		.global	K_1
 368              		.global	K_0
 369              		.global	E
 370              		.global	PCt_1
 371              		.global	PCt_0
 372              		.global	Angle_err
 373              		.global	Q_bias
 374              		.global	C_0
 375              		.global	dt
 376              		.global	R_angle
 377              		.global	Q_gyro
 378              		.global	Q_angle
 379              		.global	angle_dot
 380              		.global	angle
 381              		.global	K1
 382              		.data
 383              		.align	2
 384              		.set	.LANCHOR1,. + 0
 385              		.type	dt, %object
 386              		.size	dt, 4
 387              	dt:
 388 0000 0AD7A33B 		.word	1000593162
 389              		.type	PP, %object
 390              		.size	PP, 16
 391              	PP:
 392 0004 0000803F 		.word	1065353216
ARM GAS  /tmp/ccDmhAoc.s 			page 9


 393 0008 00000000 		.word	0
 394 000c 00000000 		.word	0
 395 0010 0000803F 		.word	1065353216
 396              		.type	Q_angle, %object
 397              		.size	Q_angle, 4
 398              	Q_angle:
 399 0014 6F12833A 		.word	981668463
 400              		.type	Q_gyro, %object
 401              		.size	Q_gyro, 4
 402              	Q_gyro:
 403 0018 A69B443B 		.word	994352038
 404              		.type	C_0, %object
 405              		.size	C_0, 1
 406              	C_0:
 407 001c 01       		.byte	1
 408 001d 000000   		.space	3
 409              		.type	R_angle, %object
 410              		.size	R_angle, 4
 411              	R_angle:
 412 0020 0000003F 		.word	1056964608
 413              		.type	K1, %object
 414              		.size	K1, 4
 415              	K1:
 416 0024 0AD7A33C 		.word	1017370378
 417              		.bss
 418              		.align	2
 419              		.set	.LANCHOR0,. + 0
 420              		.type	Q_bias, %object
 421              		.size	Q_bias, 4
 422              	Q_bias:
 423 0000 00000000 		.space	4
 424              		.type	angle, %object
 425              		.size	angle, 4
 426              	angle:
 427 0004 00000000 		.space	4
 428              		.type	Pdot, %object
 429              		.size	Pdot, 16
 430              	Pdot:
 431 0008 00000000 		.space	16
 431      00000000 
 431      00000000 
 431      00000000 
 432              		.type	Angle_err, %object
 433              		.size	Angle_err, 4
 434              	Angle_err:
 435 0018 00000000 		.space	4
 436              		.type	PCt_0, %object
 437              		.size	PCt_0, 4
 438              	PCt_0:
 439 001c 00000000 		.space	4
 440              		.type	PCt_1, %object
 441              		.size	PCt_1, 4
 442              	PCt_1:
 443 0020 00000000 		.space	4
 444              		.type	E, %object
 445              		.size	E, 4
 446              	E:
ARM GAS  /tmp/ccDmhAoc.s 			page 10


 447 0024 00000000 		.space	4
 448              		.type	K_0, %object
 449              		.size	K_0, 4
 450              	K_0:
 451 0028 00000000 		.space	4
 452              		.type	K_1, %object
 453              		.size	K_1, 4
 454              	K_1:
 455 002c 00000000 		.space	4
 456              		.type	t_0, %object
 457              		.size	t_0, 4
 458              	t_0:
 459 0030 00000000 		.space	4
 460              		.type	t_1, %object
 461              		.size	t_1, 4
 462              	t_1:
 463 0034 00000000 		.space	4
 464              		.type	angle_dot, %object
 465              		.size	angle_dot, 4
 466              	angle_dot:
 467 0038 00000000 		.space	4
 468              		.text
 469              	.Letext0:
 470              		.file 2 "drivers/filter.h"