ARM GAS  /tmp/ccePJ8aS.s 			page 1


   1              		.cpu cortex-m3
   2              		.eabi_attribute 20, 1
   3              		.eabi_attribute 21, 1
   4              		.eabi_attribute 23, 3
   5              		.eabi_attribute 24, 1
   6              		.eabi_attribute 25, 1
   7              		.eabi_attribute 26, 1
   8              		.eabi_attribute 30, 6
   9              		.eabi_attribute 34, 1
  10              		.eabi_attribute 18, 4
  11              		.file	"hcsr04.c"
  12              		.text
  13              	.Ltext0:
  14              		.cfi_sections	.debug_frame
  15              		.global	__aeabi_i2d
  16              		.global	__aeabi_ddiv
  17              		.global	__aeabi_d2iz
  18              		.align	1
  19              		.global	HCSR04_Get
  20              		.syntax unified
  21              		.thumb
  22              		.thumb_func
  23              		.fpu softvfp
  24              		.type	HCSR04_Get, %function
  25              	HCSR04_Get:
  26              	.LFB64:
  27              		.file 1 "drivers/hcsr04.c"
   1:drivers/hcsr04.c **** #include "hcsr04.h"
   2:drivers/hcsr04.c **** 
   3:drivers/hcsr04.c **** 
   4:drivers/hcsr04.c **** int HCSR04_Get(void)
   5:drivers/hcsr04.c **** {
  28              		.loc 1 5 0
  29              		.cfi_startproc
  30              		@ args = 0, pretend = 0, frame = 8
  31              		@ frame_needed = 1, uses_anonymous_args = 0
  32 0000 90B5     		push	{r4, r7, lr}
  33              		.cfi_def_cfa_offset 12
  34              		.cfi_offset 4, -12
  35              		.cfi_offset 7, -8
  36              		.cfi_offset 14, -4
  37 0002 83B0     		sub	sp, sp, #12
  38              		.cfi_def_cfa_offset 24
  39 0004 00AF     		add	r7, sp, #0
  40              		.cfi_def_cfa_register 7
   6:drivers/hcsr04.c ****   int length;
   7:drivers/hcsr04.c ****   
   8:drivers/hcsr04.c ****   GPIO_WriteBit(GPIOA,GPIO_Pin_1,1);
  41              		.loc 1 8 0
  42 0006 0122     		movs	r2, #1
  43 0008 0221     		movs	r1, #2
  44 000a 2D48     		ldr	r0, .L7+8
  45 000c FFF7FEFF 		bl	GPIO_WriteBit
   9:drivers/hcsr04.c ****   delay_us(20);
  46              		.loc 1 9 0
  47 0010 1420     		movs	r0, #20
  48 0012 FFF7FEFF 		bl	delay_us
ARM GAS  /tmp/ccePJ8aS.s 			page 2


  10:drivers/hcsr04.c ****   GPIO_WriteBit(GPIOA,GPIO_Pin_1,0);
  49              		.loc 1 10 0
  50 0016 0022     		movs	r2, #0
  51 0018 0221     		movs	r1, #2
  52 001a 2948     		ldr	r0, .L7+8
  53 001c FFF7FEFF 		bl	GPIO_WriteBit
  11:drivers/hcsr04.c ****   //计数器清0
  12:drivers/hcsr04.c ****   TIM2->CNT = 0;
  54              		.loc 1 12 0
  55 0020 4FF08043 		mov	r3, #1073741824
  56 0024 0022     		movs	r2, #0
  57 0026 9A84     		strh	r2, [r3, #36]	@ movhi
  13:drivers/hcsr04.c ****   TIM_Cmd(TIM2, ENABLE);// TIM2 enable counter [允许tim2计数]
  58              		.loc 1 13 0
  59 0028 0121     		movs	r1, #1
  60 002a 4FF08040 		mov	r0, #1073741824
  61 002e FFF7FEFF 		bl	TIM_Cmd
  14:drivers/hcsr04.c ****   while(!GPIO_ReadInputDataBit(GPIOA, GPIO_Pin_0) && TIM2->CNT<1000);
  62              		.loc 1 14 0
  63 0032 00BF     		nop
  64              	.L3:
  65              		.loc 1 14 0 is_stmt 0 discriminator 2
  66 0034 0121     		movs	r1, #1
  67 0036 2248     		ldr	r0, .L7+8
  68 0038 FFF7FEFF 		bl	GPIO_ReadInputDataBit
  69 003c 0346     		mov	r3, r0
  70 003e 002B     		cmp	r3, #0
  71 0040 06D1     		bne	.L2
  72              		.loc 1 14 0 discriminator 1
  73 0042 4FF08043 		mov	r3, #1073741824
  74 0046 9B8C     		ldrh	r3, [r3, #36]	@ movhi
  75 0048 9BB2     		uxth	r3, r3
  76 004a B3F57A7F 		cmp	r3, #1000
  77 004e F1D3     		bcc	.L3
  78              	.L2:
  15:drivers/hcsr04.c ****   TIM2->CNT = 0;
  79              		.loc 1 15 0 is_stmt 1
  80 0050 4FF08043 		mov	r3, #1073741824
  81 0054 0022     		movs	r2, #0
  82 0056 9A84     		strh	r2, [r3, #36]	@ movhi
  16:drivers/hcsr04.c ****   while(GPIO_ReadInputDataBit(GPIOA, GPIO_Pin_0) && TIM2->CNT<60000);
  83              		.loc 1 16 0
  84 0058 00BF     		nop
  85              	.L5:
  86              		.loc 1 16 0 is_stmt 0 discriminator 2
  87 005a 0121     		movs	r1, #1
  88 005c 1848     		ldr	r0, .L7+8
  89 005e FFF7FEFF 		bl	GPIO_ReadInputDataBit
  90 0062 0346     		mov	r3, r0
  91 0064 002B     		cmp	r3, #0
  92 0066 07D0     		beq	.L4
  93              		.loc 1 16 0 discriminator 1
  94 0068 4FF08043 		mov	r3, #1073741824
  95 006c 9B8C     		ldrh	r3, [r3, #36]	@ movhi
  96 006e 9BB2     		uxth	r3, r3
  97 0070 4EF65F22 		movw	r2, #59999
  98 0074 9342     		cmp	r3, r2
ARM GAS  /tmp/ccePJ8aS.s 			page 3


  99 0076 F0D9     		bls	.L5
 100              	.L4:
  17:drivers/hcsr04.c ****   TIM_Cmd(TIM2, DISABLE);
 101              		.loc 1 17 0 is_stmt 1
 102 0078 0021     		movs	r1, #0
 103 007a 4FF08040 		mov	r0, #1073741824
 104 007e FFF7FEFF 		bl	TIM_Cmd
  18:drivers/hcsr04.c **** 
  19:drivers/hcsr04.c ****   length = TIM2->CNT/58.8;
 105              		.loc 1 19 0
 106 0082 4FF08043 		mov	r3, #1073741824
 107 0086 9B8C     		ldrh	r3, [r3, #36]	@ movhi
 108 0088 9BB2     		uxth	r3, r3
 109 008a 1846     		mov	r0, r3
 110 008c FFF7FEFF 		bl	__aeabi_i2d
 111              	.LVL0:
 112 0090 09A3     		adr	r3, .L7
 113 0092 D3E90023 		ldrd	r2, [r3]
 114 0096 FFF7FEFF 		bl	__aeabi_ddiv
 115              	.LVL1:
 116 009a 0346     		mov	r3, r0
 117 009c 0C46     		mov	r4, r1
 118 009e 1846     		mov	r0, r3
 119 00a0 2146     		mov	r1, r4
 120 00a2 FFF7FEFF 		bl	__aeabi_d2iz
 121              	.LVL2:
 122 00a6 0346     		mov	r3, r0
 123 00a8 7B60     		str	r3, [r7, #4]
  20:drivers/hcsr04.c ****   return length;
 124              		.loc 1 20 0
 125 00aa 7B68     		ldr	r3, [r7, #4]
  21:drivers/hcsr04.c **** }
 126              		.loc 1 21 0
 127 00ac 1846     		mov	r0, r3
 128 00ae 0C37     		adds	r7, r7, #12
 129              		.cfi_def_cfa_offset 12
 130 00b0 BD46     		mov	sp, r7
 131              		.cfi_def_cfa_register 13
 132              		@ sp needed
 133 00b2 90BD     		pop	{r4, r7, pc}
 134              	.L8:
 135 00b4 AFF30080 		.align	3
 136              	.L7:
 137 00b8 66666666 		.word	1717986918
 138 00bc 66664D40 		.word	1078814310
 139 00c0 00080140 		.word	1073809408
 140              		.cfi_endproc
 141              	.LFE64:
 142              		.size	HCSR04_Get, .-HCSR04_Get
 143              		.align	1
 144              		.global	GPIO_Conf
 145              		.syntax unified
 146              		.thumb
 147              		.thumb_func
 148              		.fpu softvfp
 149              		.type	GPIO_Conf, %function
 150              	GPIO_Conf:
ARM GAS  /tmp/ccePJ8aS.s 			page 4


 151              	.LFB65:
  22:drivers/hcsr04.c **** 
  23:drivers/hcsr04.c **** void GPIO_Conf(void)
  24:drivers/hcsr04.c **** {
 152              		.loc 1 24 0
 153              		.cfi_startproc
 154              		@ args = 0, pretend = 0, frame = 8
 155              		@ frame_needed = 1, uses_anonymous_args = 0
 156 00c4 80B5     		push	{r7, lr}
 157              		.cfi_def_cfa_offset 8
 158              		.cfi_offset 7, -8
 159              		.cfi_offset 14, -4
 160 00c6 82B0     		sub	sp, sp, #8
 161              		.cfi_def_cfa_offset 16
 162 00c8 00AF     		add	r7, sp, #0
 163              		.cfi_def_cfa_register 7
  25:drivers/hcsr04.c ****   GPIO_InitTypeDef GPIO_InitStructure;
  26:drivers/hcsr04.c ****   
  27:drivers/hcsr04.c ****   //开启AFIO时钟
  28:drivers/hcsr04.c ****   RCC_APB2PeriphClockCmd(RCC_APB2Periph_AFIO, ENABLE);
 164              		.loc 1 28 0
 165 00ca 0121     		movs	r1, #1
 166 00cc 0120     		movs	r0, #1
 167 00ce FFF7FEFF 		bl	RCC_APB2PeriphClockCmd
  29:drivers/hcsr04.c ****   
  30:drivers/hcsr04.c ****    //配置USARTx_Tx为复合推挽输出
  31:drivers/hcsr04.c ****   GPIO_InitStructure.GPIO_Pin = GPIO_Pin_2;
 168              		.loc 1 31 0
 169 00d2 0423     		movs	r3, #4
 170 00d4 BB80     		strh	r3, [r7, #4]	@ movhi
  32:drivers/hcsr04.c ****   GPIO_InitStructure.GPIO_Speed = GPIO_Speed_50MHz;
 171              		.loc 1 32 0
 172 00d6 0323     		movs	r3, #3
 173 00d8 BB71     		strb	r3, [r7, #6]
  33:drivers/hcsr04.c ****   GPIO_InitStructure.GPIO_Mode = GPIO_Mode_AF_PP;
 174              		.loc 1 33 0
 175 00da 1823     		movs	r3, #24
 176 00dc FB71     		strb	r3, [r7, #7]
  34:drivers/hcsr04.c ****   GPIO_Init(GPIOA, &GPIO_InitStructure);
 177              		.loc 1 34 0
 178 00de 3B1D     		adds	r3, r7, #4
 179 00e0 1946     		mov	r1, r3
 180 00e2 1148     		ldr	r0, .L10
 181 00e4 FFF7FEFF 		bl	GPIO_Init
  35:drivers/hcsr04.c ****   
  36:drivers/hcsr04.c ****   //配置 USARTx_Rx 为浮空输入
  37:drivers/hcsr04.c ****   GPIO_InitStructure.GPIO_Pin = GPIO_Pin_3;
 182              		.loc 1 37 0
 183 00e8 0823     		movs	r3, #8
 184 00ea BB80     		strh	r3, [r7, #4]	@ movhi
  38:drivers/hcsr04.c ****   GPIO_InitStructure.GPIO_Mode = GPIO_Mode_IN_FLOATING;
 185              		.loc 1 38 0
 186 00ec 0423     		movs	r3, #4
 187 00ee FB71     		strb	r3, [r7, #7]
  39:drivers/hcsr04.c ****   GPIO_Init(GPIOA, &GPIO_InitStructure);
 188              		.loc 1 39 0
 189 00f0 3B1D     		adds	r3, r7, #4
ARM GAS  /tmp/ccePJ8aS.s 			page 5


 190 00f2 1946     		mov	r1, r3
 191 00f4 0C48     		ldr	r0, .L10
 192 00f6 FFF7FEFF 		bl	GPIO_Init
  40:drivers/hcsr04.c ****   
  41:drivers/hcsr04.c ****   //HC-SR02 
  42:drivers/hcsr04.c ****   GPIO_InitStructure.GPIO_Pin = GPIO_Pin_1; 
 193              		.loc 1 42 0
 194 00fa 0223     		movs	r3, #2
 195 00fc BB80     		strh	r3, [r7, #4]	@ movhi
  43:drivers/hcsr04.c ****   GPIO_InitStructure.GPIO_Mode = GPIO_Mode_Out_PP;
 196              		.loc 1 43 0
 197 00fe 1023     		movs	r3, #16
 198 0100 FB71     		strb	r3, [r7, #7]
  44:drivers/hcsr04.c ****   GPIO_Init(GPIOA, &GPIO_InitStructure);
 199              		.loc 1 44 0
 200 0102 3B1D     		adds	r3, r7, #4
 201 0104 1946     		mov	r1, r3
 202 0106 0848     		ldr	r0, .L10
 203 0108 FFF7FEFF 		bl	GPIO_Init
  45:drivers/hcsr04.c ****   GPIO_InitStructure.GPIO_Pin = GPIO_Pin_0; 
 204              		.loc 1 45 0
 205 010c 0123     		movs	r3, #1
 206 010e BB80     		strh	r3, [r7, #4]	@ movhi
  46:drivers/hcsr04.c ****   GPIO_InitStructure.GPIO_Mode = GPIO_Mode_IN_FLOATING;
 207              		.loc 1 46 0
 208 0110 0423     		movs	r3, #4
 209 0112 FB71     		strb	r3, [r7, #7]
  47:drivers/hcsr04.c ****   GPIO_Init(GPIOA, &GPIO_InitStructure);
 210              		.loc 1 47 0
 211 0114 3B1D     		adds	r3, r7, #4
 212 0116 1946     		mov	r1, r3
 213 0118 0348     		ldr	r0, .L10
 214 011a FFF7FEFF 		bl	GPIO_Init
  48:drivers/hcsr04.c **** 
  49:drivers/hcsr04.c **** }
 215              		.loc 1 49 0
 216 011e 00BF     		nop
 217 0120 0837     		adds	r7, r7, #8
 218              		.cfi_def_cfa_offset 8
 219 0122 BD46     		mov	sp, r7
 220              		.cfi_def_cfa_register 13
 221              		@ sp needed
 222 0124 80BD     		pop	{r7, pc}
 223              	.L11:
 224 0126 00BF     		.align	2
 225              	.L10:
 226 0128 00080140 		.word	1073809408
 227              		.cfi_endproc
 228              	.LFE65:
 229              		.size	GPIO_Conf, .-GPIO_Conf
 230              		.align	1
 231              		.global	NVIC_Conf
 232              		.syntax unified
 233              		.thumb
 234              		.thumb_func
 235              		.fpu softvfp
 236              		.type	NVIC_Conf, %function
ARM GAS  /tmp/ccePJ8aS.s 			page 6


 237              	NVIC_Conf:
 238              	.LFB66:
  50:drivers/hcsr04.c **** 
  51:drivers/hcsr04.c **** // 系统中断控制
  52:drivers/hcsr04.c **** void NVIC_Conf(void)
  53:drivers/hcsr04.c **** { 
 239              		.loc 1 53 0
 240              		.cfi_startproc
 241              		@ args = 0, pretend = 0, frame = 8
 242              		@ frame_needed = 1, uses_anonymous_args = 0
 243 012c 80B5     		push	{r7, lr}
 244              		.cfi_def_cfa_offset 8
 245              		.cfi_offset 7, -8
 246              		.cfi_offset 14, -4
 247 012e 82B0     		sub	sp, sp, #8
 248              		.cfi_def_cfa_offset 16
 249 0130 00AF     		add	r7, sp, #0
 250              		.cfi_def_cfa_register 7
  54:drivers/hcsr04.c ****   NVIC_InitTypeDef NVIC_InitStructure;
  55:drivers/hcsr04.c ****   // 设置中断向量表位置 FLASH:0x08000000
  56:drivers/hcsr04.c ****   NVIC_SetVectorTable(NVIC_VectTab_FLASH, 0x0); 
 251              		.loc 1 56 0
 252 0132 0021     		movs	r1, #0
 253 0134 4FF00060 		mov	r0, #134217728
 254 0138 FFF7FEFF 		bl	NVIC_SetVectorTable
  57:drivers/hcsr04.c **** 
  58:drivers/hcsr04.c ****   // 打开TIM2中断
  59:drivers/hcsr04.c ****   NVIC_InitStructure.NVIC_IRQChannel = TIM2_IRQn;
 255              		.loc 1 59 0
 256 013c 1C23     		movs	r3, #28
 257 013e 3B71     		strb	r3, [r7, #4]
  60:drivers/hcsr04.c ****   NVIC_InitStructure.NVIC_IRQChannelPreemptionPriority = 0;
 258              		.loc 1 60 0
 259 0140 0023     		movs	r3, #0
 260 0142 7B71     		strb	r3, [r7, #5]
  61:drivers/hcsr04.c ****   NVIC_InitStructure.NVIC_IRQChannelSubPriority = 0;
 261              		.loc 1 61 0
 262 0144 0023     		movs	r3, #0
 263 0146 BB71     		strb	r3, [r7, #6]
  62:drivers/hcsr04.c ****   NVIC_InitStructure.NVIC_IRQChannelCmd = ENABLE;
 264              		.loc 1 62 0
 265 0148 0123     		movs	r3, #1
 266 014a FB71     		strb	r3, [r7, #7]
  63:drivers/hcsr04.c ****   NVIC_Init(&NVIC_InitStructure);
 267              		.loc 1 63 0
 268 014c 3B1D     		adds	r3, r7, #4
 269 014e 1846     		mov	r0, r3
 270 0150 FFF7FEFF 		bl	NVIC_Init
  64:drivers/hcsr04.c **** }
 271              		.loc 1 64 0
 272 0154 00BF     		nop
 273 0156 0837     		adds	r7, r7, #8
 274              		.cfi_def_cfa_offset 8
 275 0158 BD46     		mov	sp, r7
 276              		.cfi_def_cfa_register 13
 277              		@ sp needed
 278 015a 80BD     		pop	{r7, pc}
ARM GAS  /tmp/ccePJ8aS.s 			page 7


 279              		.cfi_endproc
 280              	.LFE66:
 281              		.size	NVIC_Conf, .-NVIC_Conf
 282              	.Letext0:
 283              		.file 2 "/usr/arm-none-eabi/include/machine/_default_types.h"
 284              		.file 3 "/usr/arm-none-eabi/include/sys/_stdint.h"
 285              		.file 4 "/home/enbin/Documents/code/STM/stm32-quadrocopter/cmsis/core_cm3.h"
 286              		.file 5 "/home/enbin/Documents/code/STM/stm32-quadrocopter/lib/inc/system_stm32f10x.h"
 287              		.file 6 "/home/enbin/Documents/code/STM/stm32-quadrocopter/lib/inc/stm32f10x.h"
 288              		.file 7 "/home/enbin/Documents/code/STM/stm32-quadrocopter/lib/inc/stm32f10x_gpio.h"
 289              		.file 8 "/home/enbin/Documents/code/STM/stm32-quadrocopter/lib/inc/misc.h"
 290              		.file 9 "/home/enbin/Documents/code/STM/stm32-quadrocopter/drivers/mpu6050.h"
 291              		.file 10 "/usr/arm-none-eabi/include/sys/lock.h"
 292              		.file 11 "/usr/arm-none-eabi/include/sys/_types.h"
 293              		.file 12 "/usr/lib/gcc/arm-none-eabi/6.1.1/include/stddef.h"
 294              		.file 13 "/usr/arm-none-eabi/include/sys/reent.h"
 295              		.file 14 "/usr/arm-none-eabi/include/math.h"
 296              		.section	.debug_info,"",%progbits
 297              	.Ldebug_info0:
 298 0000 270F0000 		.4byte	0xf27
 299 0004 0400     		.2byte	0x4
 300 0006 00000000 		.4byte	.Ldebug_abbrev0
 301 000a 04       		.byte	0x4
 302 000b 01       		.uleb128 0x1
 303 000c B80A0000 		.4byte	.LASF266
 304 0010 0C       		.byte	0xc
 305 0011 49050000 		.4byte	.LASF267
 306 0015 D9000000 		.4byte	.LASF268
 307 0019 00000000 		.4byte	.Ltext0
 308 001d 5C010000 		.4byte	.Letext0-.Ltext0
 309 0021 00000000 		.4byte	.Ldebug_line0
 310 0025 02       		.uleb128 0x2
 311 0026 0C020000 		.4byte	.LASF253
 312 002a 01       		.byte	0x1
 313 002b 68010000 		.4byte	0x168
 314 002f 06       		.byte	0x6
 315 0030 A7       		.byte	0xa7
 316 0031 68010000 		.4byte	0x168
 317 0035 03       		.uleb128 0x3
 318 0036 8A040000 		.4byte	.LASF0
 319 003a 72       		.sleb128 -14
 320 003b 03       		.uleb128 0x3
 321 003c CF040000 		.4byte	.LASF1
 322 0040 74       		.sleb128 -12
 323 0041 03       		.uleb128 0x3
 324 0042 97050000 		.4byte	.LASF2
 325 0046 75       		.sleb128 -11
 326 0047 03       		.uleb128 0x3
 327 0048 6A030000 		.4byte	.LASF3
 328 004c 76       		.sleb128 -10
 329 004d 03       		.uleb128 0x3
 330 004e 13060000 		.4byte	.LASF4
 331 0052 7B       		.sleb128 -5
 332 0053 03       		.uleb128 0x3
 333 0054 41090000 		.4byte	.LASF5
 334 0058 7C       		.sleb128 -4
 335 0059 03       		.uleb128 0x3
ARM GAS  /tmp/ccePJ8aS.s 			page 8


 336 005a 780B0000 		.4byte	.LASF6
 337 005e 7E       		.sleb128 -2
 338 005f 03       		.uleb128 0x3
 339 0060 2A020000 		.4byte	.LASF7
 340 0064 7F       		.sleb128 -1
 341 0065 04       		.uleb128 0x4
 342 0066 AE040000 		.4byte	.LASF8
 343 006a 00       		.byte	0
 344 006b 04       		.uleb128 0x4
 345 006c F8080000 		.4byte	.LASF9
 346 0070 01       		.byte	0x1
 347 0071 04       		.uleb128 0x4
 348 0072 00020000 		.4byte	.LASF10
 349 0076 02       		.byte	0x2
 350 0077 04       		.uleb128 0x4
 351 0078 DB0B0000 		.4byte	.LASF11
 352 007c 03       		.byte	0x3
 353 007d 04       		.uleb128 0x4
 354 007e BD000000 		.4byte	.LASF12
 355 0082 04       		.byte	0x4
 356 0083 04       		.uleb128 0x4
 357 0084 AA090000 		.4byte	.LASF13
 358 0088 05       		.byte	0x5
 359 0089 04       		.uleb128 0x4
 360 008a 14090000 		.4byte	.LASF14
 361 008e 06       		.byte	0x6
 362 008f 04       		.uleb128 0x4
 363 0090 6E040000 		.4byte	.LASF15
 364 0094 07       		.byte	0x7
 365 0095 04       		.uleb128 0x4
 366 0096 00000000 		.4byte	.LASF16
 367 009a 08       		.byte	0x8
 368 009b 04       		.uleb128 0x4
 369 009c 6D0B0000 		.4byte	.LASF17
 370 00a0 09       		.byte	0x9
 371 00a1 04       		.uleb128 0x4
 372 00a2 7B060000 		.4byte	.LASF18
 373 00a6 0A       		.byte	0xa
 374 00a7 04       		.uleb128 0x4
 375 00a8 3A030000 		.4byte	.LASF19
 376 00ac 0B       		.byte	0xb
 377 00ad 04       		.uleb128 0x4
 378 00ae 2C0A0000 		.4byte	.LASF20
 379 00b2 0C       		.byte	0xc
 380 00b3 04       		.uleb128 0x4
 381 00b4 80090000 		.4byte	.LASF21
 382 00b8 0D       		.byte	0xd
 383 00b9 04       		.uleb128 0x4
 384 00ba E5040000 		.4byte	.LASF22
 385 00be 0E       		.byte	0xe
 386 00bf 04       		.uleb128 0x4
 387 00c0 73000000 		.4byte	.LASF23
 388 00c4 0F       		.byte	0xf
 389 00c5 04       		.uleb128 0x4
 390 00c6 B20B0000 		.4byte	.LASF24
 391 00ca 10       		.byte	0x10
 392 00cb 04       		.uleb128 0x4
ARM GAS  /tmp/ccePJ8aS.s 			page 9


 393 00cc D3060000 		.4byte	.LASF25
 394 00d0 11       		.byte	0x11
 395 00d1 04       		.uleb128 0x4
 396 00d2 E9090000 		.4byte	.LASF26
 397 00d6 12       		.byte	0x12
 398 00d7 04       		.uleb128 0x4
 399 00d8 80030000 		.4byte	.LASF27
 400 00dc 13       		.byte	0x13
 401 00dd 04       		.uleb128 0x4
 402 00de 5C090000 		.4byte	.LASF28
 403 00e2 14       		.byte	0x14
 404 00e3 04       		.uleb128 0x4
 405 00e4 960A0000 		.4byte	.LASF29
 406 00e8 15       		.byte	0x15
 407 00e9 04       		.uleb128 0x4
 408 00ea 15050000 		.4byte	.LASF30
 409 00ee 16       		.byte	0x16
 410 00ef 04       		.uleb128 0x4
 411 00f0 A40A0000 		.4byte	.LASF31
 412 00f4 17       		.byte	0x17
 413 00f5 04       		.uleb128 0x4
 414 00f6 4D030000 		.4byte	.LASF32
 415 00fa 18       		.byte	0x18
 416 00fb 04       		.uleb128 0x4
 417 00fc 810A0000 		.4byte	.LASF33
 418 0100 19       		.byte	0x19
 419 0101 04       		.uleb128 0x4
 420 0102 86070000 		.4byte	.LASF34
 421 0106 1A       		.byte	0x1a
 422 0107 04       		.uleb128 0x4
 423 0108 61040000 		.4byte	.LASF35
 424 010c 1B       		.byte	0x1b
 425 010d 04       		.uleb128 0x4
 426 010e 11010000 		.4byte	.LASF36
 427 0112 1C       		.byte	0x1c
 428 0113 04       		.uleb128 0x4
 429 0114 00080000 		.4byte	.LASF37
 430 0118 1D       		.byte	0x1d
 431 0119 04       		.uleb128 0x4
 432 011a 17040000 		.4byte	.LASF38
 433 011e 1E       		.byte	0x1e
 434 011f 04       		.uleb128 0x4
 435 0120 2D040000 		.4byte	.LASF39
 436 0124 1F       		.byte	0x1f
 437 0125 04       		.uleb128 0x4
 438 0126 13030000 		.4byte	.LASF40
 439 012a 20       		.byte	0x20
 440 012b 04       		.uleb128 0x4
 441 012c 8F060000 		.4byte	.LASF41
 442 0130 21       		.byte	0x21
 443 0131 04       		.uleb128 0x4
 444 0132 70050000 		.4byte	.LASF42
 445 0136 22       		.byte	0x22
 446 0137 04       		.uleb128 0x4
 447 0138 F1050000 		.4byte	.LASF43
 448 013c 23       		.byte	0x23
 449 013d 04       		.uleb128 0x4
ARM GAS  /tmp/ccePJ8aS.s 			page 10


 450 013e 51010000 		.4byte	.LASF44
 451 0142 24       		.byte	0x24
 452 0143 04       		.uleb128 0x4
 453 0144 1A080000 		.4byte	.LASF45
 454 0148 25       		.byte	0x25
 455 0149 04       		.uleb128 0x4
 456 014a 21040000 		.4byte	.LASF46
 457 014e 26       		.byte	0x26
 458 014f 04       		.uleb128 0x4
 459 0150 49020000 		.4byte	.LASF47
 460 0154 27       		.byte	0x27
 461 0155 04       		.uleb128 0x4
 462 0156 B6070000 		.4byte	.LASF48
 463 015a 28       		.byte	0x28
 464 015b 04       		.uleb128 0x4
 465 015c 67060000 		.4byte	.LASF49
 466 0160 29       		.byte	0x29
 467 0161 04       		.uleb128 0x4
 468 0162 08040000 		.4byte	.LASF50
 469 0166 2A       		.byte	0x2a
 470 0167 00       		.byte	0
 471 0168 05       		.uleb128 0x5
 472 0169 01       		.byte	0x1
 473 016a 06       		.byte	0x6
 474 016b 62020000 		.4byte	.LASF51
 475 016f 06       		.uleb128 0x6
 476 0170 47010000 		.4byte	.LASF53
 477 0174 02       		.byte	0x2
 478 0175 1D       		.byte	0x1d
 479 0176 7A010000 		.4byte	0x17a
 480 017a 05       		.uleb128 0x5
 481 017b 01       		.byte	0x1
 482 017c 08       		.byte	0x8
 483 017d AF020000 		.4byte	.LASF52
 484 0181 06       		.uleb128 0x6
 485 0182 DE080000 		.4byte	.LASF54
 486 0186 02       		.byte	0x2
 487 0187 29       		.byte	0x29
 488 0188 8C010000 		.4byte	0x18c
 489 018c 05       		.uleb128 0x5
 490 018d 02       		.byte	0x2
 491 018e 05       		.byte	0x5
 492 018f A0090000 		.4byte	.LASF55
 493 0193 06       		.uleb128 0x6
 494 0194 DD030000 		.4byte	.LASF56
 495 0198 02       		.byte	0x2
 496 0199 2B       		.byte	0x2b
 497 019a 9E010000 		.4byte	0x19e
 498 019e 05       		.uleb128 0x5
 499 019f 02       		.byte	0x2
 500 01a0 07       		.byte	0x7
 501 01a1 1D0B0000 		.4byte	.LASF57
 502 01a5 06       		.uleb128 0x6
 503 01a6 950B0000 		.4byte	.LASF58
 504 01aa 02       		.byte	0x2
 505 01ab 3F       		.byte	0x3f
 506 01ac B0010000 		.4byte	0x1b0
ARM GAS  /tmp/ccePJ8aS.s 			page 11


 507 01b0 05       		.uleb128 0x5
 508 01b1 04       		.byte	0x4
 509 01b2 05       		.byte	0x5
 510 01b3 AB010000 		.4byte	.LASF59
 511 01b7 06       		.uleb128 0x6
 512 01b8 BC050000 		.4byte	.LASF60
 513 01bc 02       		.byte	0x2
 514 01bd 41       		.byte	0x41
 515 01be C2010000 		.4byte	0x1c2
 516 01c2 05       		.uleb128 0x5
 517 01c3 04       		.byte	0x4
 518 01c4 07       		.byte	0x7
 519 01c5 BD040000 		.4byte	.LASF61
 520 01c9 05       		.uleb128 0x5
 521 01ca 08       		.byte	0x8
 522 01cb 05       		.byte	0x5
 523 01cc D2050000 		.4byte	.LASF62
 524 01d0 05       		.uleb128 0x5
 525 01d1 08       		.byte	0x8
 526 01d2 07       		.byte	0x7
 527 01d3 C5070000 		.4byte	.LASF63
 528 01d7 07       		.uleb128 0x7
 529 01d8 04       		.byte	0x4
 530 01d9 05       		.byte	0x5
 531 01da 696E7400 		.ascii	"int\000"
 532 01de 05       		.uleb128 0x5
 533 01df 04       		.byte	0x4
 534 01e0 07       		.byte	0x7
 535 01e1 9C060000 		.4byte	.LASF64
 536 01e5 06       		.uleb128 0x6
 537 01e6 6E020000 		.4byte	.LASF65
 538 01ea 03       		.byte	0x3
 539 01eb 18       		.byte	0x18
 540 01ec 6F010000 		.4byte	0x16f
 541 01f0 06       		.uleb128 0x6
 542 01f1 D8090000 		.4byte	.LASF66
 543 01f5 03       		.byte	0x3
 544 01f6 20       		.byte	0x20
 545 01f7 81010000 		.4byte	0x181
 546 01fb 06       		.uleb128 0x6
 547 01fc E3070000 		.4byte	.LASF67
 548 0200 03       		.byte	0x3
 549 0201 24       		.byte	0x24
 550 0202 93010000 		.4byte	0x193
 551 0206 08       		.uleb128 0x8
 552 0207 FB010000 		.4byte	0x1fb
 553 020b 06       		.uleb128 0x6
 554 020c 56000000 		.4byte	.LASF68
 555 0210 03       		.byte	0x3
 556 0211 2C       		.byte	0x2c
 557 0212 A5010000 		.4byte	0x1a5
 558 0216 08       		.uleb128 0x8
 559 0217 0B020000 		.4byte	0x20b
 560 021b 06       		.uleb128 0x6
 561 021c 780A0000 		.4byte	.LASF69
 562 0220 03       		.byte	0x3
 563 0221 30       		.byte	0x30
ARM GAS  /tmp/ccePJ8aS.s 			page 12


 564 0222 B7010000 		.4byte	0x1b7
 565 0226 08       		.uleb128 0x8
 566 0227 1B020000 		.4byte	0x21b
 567 022b 05       		.uleb128 0x5
 568 022c 04       		.byte	0x4
 569 022d 07       		.byte	0x7
 570 022e 33000000 		.4byte	.LASF70
 571 0232 09       		.uleb128 0x9
 572 0233 54060000 		.4byte	.LASF71
 573 0237 04       		.byte	0x4
 574 0238 9606     		.2byte	0x696
 575 023a 16020000 		.4byte	0x216
 576 023e 0A       		.uleb128 0xa
 577 023f 05050000 		.4byte	.LASF72
 578 0243 05       		.byte	0x5
 579 0244 35       		.byte	0x35
 580 0245 1B020000 		.4byte	0x21b
 581 0249 0B       		.uleb128 0xb
 582 024a 01       		.byte	0x1
 583 024b 7A010000 		.4byte	0x17a
 584 024f 06       		.byte	0x6
 585 0250 0902     		.2byte	0x209
 586 0252 63020000 		.4byte	0x263
 587 0256 04       		.uleb128 0x4
 588 0257 4D070000 		.4byte	.LASF73
 589 025b 00       		.byte	0
 590 025c 04       		.uleb128 0x4
 591 025d F5090000 		.4byte	.LASF74
 592 0261 01       		.byte	0x1
 593 0262 00       		.byte	0
 594 0263 0C       		.uleb128 0xc
 595 0264 A6070000 		.4byte	.LASF75
 596 0268 06       		.byte	0x6
 597 0269 0902     		.2byte	0x209
 598 026b 49020000 		.4byte	0x249
 599 026f 0D       		.uleb128 0xd
 600 0270 1C       		.byte	0x1c
 601 0271 06       		.byte	0x6
 602 0272 E903     		.2byte	0x3e9
 603 0274 D4020000 		.4byte	0x2d4
 604 0278 0E       		.uleb128 0xe
 605 0279 43524C00 		.ascii	"CRL\000"
 606 027d 06       		.byte	0x6
 607 027e EB03     		.2byte	0x3eb
 608 0280 26020000 		.4byte	0x226
 609 0284 00       		.byte	0
 610 0285 0E       		.uleb128 0xe
 611 0286 43524800 		.ascii	"CRH\000"
 612 028a 06       		.byte	0x6
 613 028b EC03     		.2byte	0x3ec
 614 028d 26020000 		.4byte	0x226
 615 0291 04       		.byte	0x4
 616 0292 0E       		.uleb128 0xe
 617 0293 49445200 		.ascii	"IDR\000"
 618 0297 06       		.byte	0x6
 619 0298 ED03     		.2byte	0x3ed
 620 029a 26020000 		.4byte	0x226
ARM GAS  /tmp/ccePJ8aS.s 			page 13


 621 029e 08       		.byte	0x8
 622 029f 0E       		.uleb128 0xe
 623 02a0 4F445200 		.ascii	"ODR\000"
 624 02a4 06       		.byte	0x6
 625 02a5 EE03     		.2byte	0x3ee
 626 02a7 26020000 		.4byte	0x226
 627 02ab 0C       		.byte	0xc
 628 02ac 0F       		.uleb128 0xf
 629 02ad 060A0000 		.4byte	.LASF76
 630 02b1 06       		.byte	0x6
 631 02b2 EF03     		.2byte	0x3ef
 632 02b4 26020000 		.4byte	0x226
 633 02b8 10       		.byte	0x10
 634 02b9 0E       		.uleb128 0xe
 635 02ba 42525200 		.ascii	"BRR\000"
 636 02be 06       		.byte	0x6
 637 02bf F003     		.2byte	0x3f0
 638 02c1 26020000 		.4byte	0x226
 639 02c5 14       		.byte	0x14
 640 02c6 0F       		.uleb128 0xf
 641 02c7 6B050000 		.4byte	.LASF77
 642 02cb 06       		.byte	0x6
 643 02cc F103     		.2byte	0x3f1
 644 02ce 26020000 		.4byte	0x226
 645 02d2 18       		.byte	0x18
 646 02d3 00       		.byte	0
 647 02d4 0C       		.uleb128 0xc
 648 02d5 0B0A0000 		.4byte	.LASF78
 649 02d9 06       		.byte	0x6
 650 02da F203     		.2byte	0x3f2
 651 02dc 6F020000 		.4byte	0x26f
 652 02e0 0D       		.uleb128 0xd
 653 02e1 50       		.byte	0x50
 654 02e2 06       		.byte	0x6
 655 02e3 A204     		.2byte	0x4a2
 656 02e5 F1040000 		.4byte	0x4f1
 657 02e9 0E       		.uleb128 0xe
 658 02ea 43523100 		.ascii	"CR1\000"
 659 02ee 06       		.byte	0x6
 660 02ef A404     		.2byte	0x4a4
 661 02f1 06020000 		.4byte	0x206
 662 02f5 00       		.byte	0
 663 02f6 0F       		.uleb128 0xf
 664 02f7 9B020000 		.4byte	.LASF79
 665 02fb 06       		.byte	0x6
 666 02fc A504     		.2byte	0x4a5
 667 02fe FB010000 		.4byte	0x1fb
 668 0302 02       		.byte	0x2
 669 0303 0E       		.uleb128 0xe
 670 0304 43523200 		.ascii	"CR2\000"
 671 0308 06       		.byte	0x6
 672 0309 A604     		.2byte	0x4a6
 673 030b 06020000 		.4byte	0x206
 674 030f 04       		.byte	0x4
 675 0310 0F       		.uleb128 0xf
 676 0311 A5020000 		.4byte	.LASF80
 677 0315 06       		.byte	0x6
ARM GAS  /tmp/ccePJ8aS.s 			page 14


 678 0316 A704     		.2byte	0x4a7
 679 0318 FB010000 		.4byte	0x1fb
 680 031c 06       		.byte	0x6
 681 031d 0F       		.uleb128 0xf
 682 031e C1080000 		.4byte	.LASF81
 683 0322 06       		.byte	0x6
 684 0323 A804     		.2byte	0x4a8
 685 0325 06020000 		.4byte	0x206
 686 0329 08       		.byte	0x8
 687 032a 0F       		.uleb128 0xf
 688 032b 5B030000 		.4byte	.LASF82
 689 032f 06       		.byte	0x6
 690 0330 A904     		.2byte	0x4a9
 691 0332 FB010000 		.4byte	0x1fb
 692 0336 0A       		.byte	0xa
 693 0337 0F       		.uleb128 0xf
 694 0338 F8040000 		.4byte	.LASF83
 695 033c 06       		.byte	0x6
 696 033d AA04     		.2byte	0x4aa
 697 033f 06020000 		.4byte	0x206
 698 0343 0C       		.byte	0xc
 699 0344 0F       		.uleb128 0xf
 700 0345 BD020000 		.4byte	.LASF84
 701 0349 06       		.byte	0x6
 702 034a AB04     		.2byte	0x4ab
 703 034c FB010000 		.4byte	0x1fb
 704 0350 0E       		.byte	0xe
 705 0351 0E       		.uleb128 0xe
 706 0352 535200   		.ascii	"SR\000"
 707 0355 06       		.byte	0x6
 708 0356 AC04     		.2byte	0x4ac
 709 0358 06020000 		.4byte	0x206
 710 035c 10       		.byte	0x10
 711 035d 0F       		.uleb128 0xf
 712 035e C7020000 		.4byte	.LASF85
 713 0362 06       		.byte	0x6
 714 0363 AD04     		.2byte	0x4ad
 715 0365 FB010000 		.4byte	0x1fb
 716 0369 12       		.byte	0x12
 717 036a 0E       		.uleb128 0xe
 718 036b 45475200 		.ascii	"EGR\000"
 719 036f 06       		.byte	0x6
 720 0370 AE04     		.2byte	0x4ae
 721 0372 06020000 		.4byte	0x206
 722 0376 14       		.byte	0x14
 723 0377 0F       		.uleb128 0xf
 724 0378 D1020000 		.4byte	.LASF86
 725 037c 06       		.byte	0x6
 726 037d AF04     		.2byte	0x4af
 727 037f FB010000 		.4byte	0x1fb
 728 0383 16       		.byte	0x16
 729 0384 0F       		.uleb128 0xf
 730 0385 7A030000 		.4byte	.LASF87
 731 0389 06       		.byte	0x6
 732 038a B004     		.2byte	0x4b0
 733 038c 06020000 		.4byte	0x206
 734 0390 18       		.byte	0x18
ARM GAS  /tmp/ccePJ8aS.s 			page 15


 735 0391 0F       		.uleb128 0xf
 736 0392 DB020000 		.4byte	.LASF88
 737 0396 06       		.byte	0x6
 738 0397 B104     		.2byte	0x4b1
 739 0399 FB010000 		.4byte	0x1fb
 740 039d 1A       		.byte	0x1a
 741 039e 0F       		.uleb128 0xf
 742 039f B8060000 		.4byte	.LASF89
 743 03a3 06       		.byte	0x6
 744 03a4 B204     		.2byte	0x4b2
 745 03a6 06020000 		.4byte	0x206
 746 03aa 1C       		.byte	0x1c
 747 03ab 0F       		.uleb128 0xf
 748 03ac E5020000 		.4byte	.LASF90
 749 03b0 06       		.byte	0x6
 750 03b1 B304     		.2byte	0x4b3
 751 03b3 FB010000 		.4byte	0x1fb
 752 03b7 1E       		.byte	0x1e
 753 03b8 0F       		.uleb128 0xf
 754 03b9 0A080000 		.4byte	.LASF91
 755 03bd 06       		.byte	0x6
 756 03be B404     		.2byte	0x4b4
 757 03c0 06020000 		.4byte	0x206
 758 03c4 20       		.byte	0x20
 759 03c5 0F       		.uleb128 0xf
 760 03c6 EF020000 		.4byte	.LASF92
 761 03ca 06       		.byte	0x6
 762 03cb B504     		.2byte	0x4b5
 763 03cd FB010000 		.4byte	0x1fb
 764 03d1 22       		.byte	0x22
 765 03d2 0E       		.uleb128 0xe
 766 03d3 434E5400 		.ascii	"CNT\000"
 767 03d7 06       		.byte	0x6
 768 03d8 B604     		.2byte	0x4b6
 769 03da 06020000 		.4byte	0x206
 770 03de 24       		.byte	0x24
 771 03df 0F       		.uleb128 0xf
 772 03e0 F9020000 		.4byte	.LASF93
 773 03e4 06       		.byte	0x6
 774 03e5 B704     		.2byte	0x4b7
 775 03e7 FB010000 		.4byte	0x1fb
 776 03eb 26       		.byte	0x26
 777 03ec 0E       		.uleb128 0xe
 778 03ed 50534300 		.ascii	"PSC\000"
 779 03f1 06       		.byte	0x6
 780 03f2 B804     		.2byte	0x4b8
 781 03f4 06020000 		.4byte	0x206
 782 03f8 28       		.byte	0x28
 783 03f9 0F       		.uleb128 0xf
 784 03fa 4C0B0000 		.4byte	.LASF94
 785 03fe 06       		.byte	0x6
 786 03ff B904     		.2byte	0x4b9
 787 0401 FB010000 		.4byte	0x1fb
 788 0405 2A       		.byte	0x2a
 789 0406 0E       		.uleb128 0xe
 790 0407 41525200 		.ascii	"ARR\000"
 791 040b 06       		.byte	0x6
ARM GAS  /tmp/ccePJ8aS.s 			page 16


 792 040c BA04     		.2byte	0x4ba
 793 040e 06020000 		.4byte	0x206
 794 0412 2C       		.byte	0x2c
 795 0413 0F       		.uleb128 0xf
 796 0414 570B0000 		.4byte	.LASF95
 797 0418 06       		.byte	0x6
 798 0419 BB04     		.2byte	0x4bb
 799 041b FB010000 		.4byte	0x1fb
 800 041f 2E       		.byte	0x2e
 801 0420 0E       		.uleb128 0xe
 802 0421 52435200 		.ascii	"RCR\000"
 803 0425 06       		.byte	0x6
 804 0426 BC04     		.2byte	0x4bc
 805 0428 06020000 		.4byte	0x206
 806 042c 30       		.byte	0x30
 807 042d 0F       		.uleb128 0xf
 808 042e 0F080000 		.4byte	.LASF96
 809 0432 06       		.byte	0x6
 810 0433 BD04     		.2byte	0x4bd
 811 0435 FB010000 		.4byte	0x1fb
 812 0439 32       		.byte	0x32
 813 043a 0F       		.uleb128 0xf
 814 043b 33010000 		.4byte	.LASF97
 815 043f 06       		.byte	0x6
 816 0440 BE04     		.2byte	0x4be
 817 0442 06020000 		.4byte	0x206
 818 0446 34       		.byte	0x34
 819 0447 0F       		.uleb128 0xf
 820 0448 620B0000 		.4byte	.LASF98
 821 044c 06       		.byte	0x6
 822 044d BF04     		.2byte	0x4bf
 823 044f FB010000 		.4byte	0x1fb
 824 0453 36       		.byte	0x36
 825 0454 0F       		.uleb128 0xf
 826 0455 38010000 		.4byte	.LASF99
 827 0459 06       		.byte	0x6
 828 045a C004     		.2byte	0x4c0
 829 045c 06020000 		.4byte	0x206
 830 0460 38       		.byte	0x38
 831 0461 0F       		.uleb128 0xf
 832 0462 26080000 		.4byte	.LASF100
 833 0466 06       		.byte	0x6
 834 0467 C104     		.2byte	0x4c1
 835 0469 FB010000 		.4byte	0x1fb
 836 046d 3A       		.byte	0x3a
 837 046e 0F       		.uleb128 0xf
 838 046f 3D010000 		.4byte	.LASF101
 839 0473 06       		.byte	0x6
 840 0474 C204     		.2byte	0x4c2
 841 0476 06020000 		.4byte	0x206
 842 047a 3C       		.byte	0x3c
 843 047b 0F       		.uleb128 0xf
 844 047c 31080000 		.4byte	.LASF102
 845 0480 06       		.byte	0x6
 846 0481 C304     		.2byte	0x4c3
 847 0483 FB010000 		.4byte	0x1fb
 848 0487 3E       		.byte	0x3e
ARM GAS  /tmp/ccePJ8aS.s 			page 17


 849 0488 0F       		.uleb128 0xf
 850 0489 42010000 		.4byte	.LASF103
 851 048d 06       		.byte	0x6
 852 048e C404     		.2byte	0x4c4
 853 0490 06020000 		.4byte	0x206
 854 0494 40       		.byte	0x40
 855 0495 0F       		.uleb128 0xf
 856 0496 3C080000 		.4byte	.LASF104
 857 049a 06       		.byte	0x6
 858 049b C504     		.2byte	0x4c5
 859 049d FB010000 		.4byte	0x1fb
 860 04a1 42       		.byte	0x42
 861 04a2 0F       		.uleb128 0xf
 862 04a3 730A0000 		.4byte	.LASF105
 863 04a7 06       		.byte	0x6
 864 04a8 C604     		.2byte	0x4c6
 865 04aa 06020000 		.4byte	0x206
 866 04ae 44       		.byte	0x44
 867 04af 0F       		.uleb128 0xf
 868 04b0 47080000 		.4byte	.LASF106
 869 04b4 06       		.byte	0x6
 870 04b5 C704     		.2byte	0x4c7
 871 04b7 FB010000 		.4byte	0x1fb
 872 04bb 46       		.byte	0x46
 873 04bc 0E       		.uleb128 0xe
 874 04bd 44435200 		.ascii	"DCR\000"
 875 04c1 06       		.byte	0x6
 876 04c2 C804     		.2byte	0x4c8
 877 04c4 06020000 		.4byte	0x206
 878 04c8 48       		.byte	0x48
 879 04c9 0F       		.uleb128 0xf
 880 04ca 52080000 		.4byte	.LASF107
 881 04ce 06       		.byte	0x6
 882 04cf C904     		.2byte	0x4c9
 883 04d1 FB010000 		.4byte	0x1fb
 884 04d5 4A       		.byte	0x4a
 885 04d6 0F       		.uleb128 0xf
 886 04d7 1B010000 		.4byte	.LASF108
 887 04db 06       		.byte	0x6
 888 04dc CA04     		.2byte	0x4ca
 889 04de 06020000 		.4byte	0x206
 890 04e2 4C       		.byte	0x4c
 891 04e3 0F       		.uleb128 0xf
 892 04e4 5D080000 		.4byte	.LASF109
 893 04e8 06       		.byte	0x6
 894 04e9 CB04     		.2byte	0x4cb
 895 04eb FB010000 		.4byte	0x1fb
 896 04ef 4E       		.byte	0x4e
 897 04f0 00       		.byte	0
 898 04f1 0C       		.uleb128 0xc
 899 04f2 8F020000 		.4byte	.LASF110
 900 04f6 06       		.byte	0x6
 901 04f7 CC04     		.2byte	0x4cc
 902 04f9 E0020000 		.4byte	0x2e0
 903 04fd 10       		.uleb128 0x10
 904 04fe 01       		.byte	0x1
 905 04ff 7A010000 		.4byte	0x17a
ARM GAS  /tmp/ccePJ8aS.s 			page 18


 906 0503 07       		.byte	0x7
 907 0504 3B       		.byte	0x3b
 908 0505 1C050000 		.4byte	0x51c
 909 0509 04       		.uleb128 0x4
 910 050a FB0A0000 		.4byte	.LASF111
 911 050e 01       		.byte	0x1
 912 050f 04       		.uleb128 0x4
 913 0510 1F090000 		.4byte	.LASF112
 914 0514 02       		.byte	0x2
 915 0515 04       		.uleb128 0x4
 916 0516 EF030000 		.4byte	.LASF113
 917 051a 03       		.byte	0x3
 918 051b 00       		.byte	0
 919 051c 06       		.uleb128 0x6
 920 051d 2F090000 		.4byte	.LASF114
 921 0521 07       		.byte	0x7
 922 0522 3F       		.byte	0x3f
 923 0523 FD040000 		.4byte	0x4fd
 924 0527 10       		.uleb128 0x10
 925 0528 01       		.byte	0x1
 926 0529 7A010000 		.4byte	0x17a
 927 052d 07       		.byte	0x7
 928 052e 48       		.byte	0x48
 929 052f 64050000 		.4byte	0x564
 930 0533 04       		.uleb128 0x4
 931 0534 DA010000 		.4byte	.LASF115
 932 0538 00       		.byte	0
 933 0539 04       		.uleb128 0x4
 934 053a C2090000 		.4byte	.LASF116
 935 053e 04       		.byte	0x4
 936 053f 04       		.uleb128 0x4
 937 0540 E40B0000 		.4byte	.LASF117
 938 0544 28       		.byte	0x28
 939 0545 04       		.uleb128 0x4
 940 0546 0B000000 		.4byte	.LASF118
 941 054a 48       		.byte	0x48
 942 054b 04       		.uleb128 0x4
 943 054c CC030000 		.4byte	.LASF119
 944 0550 14       		.byte	0x14
 945 0551 04       		.uleb128 0x4
 946 0552 79040000 		.4byte	.LASF120
 947 0556 10       		.byte	0x10
 948 0557 04       		.uleb128 0x4
 949 0558 1A020000 		.4byte	.LASF121
 950 055c 1C       		.byte	0x1c
 951 055d 04       		.uleb128 0x4
 952 055e 03030000 		.4byte	.LASF122
 953 0562 18       		.byte	0x18
 954 0563 00       		.byte	0
 955 0564 06       		.uleb128 0x6
 956 0565 CD080000 		.4byte	.LASF123
 957 0569 07       		.byte	0x7
 958 056a 50       		.byte	0x50
 959 056b 27050000 		.4byte	0x527
 960 056f 11       		.uleb128 0x11
 961 0570 04       		.byte	0x4
 962 0571 07       		.byte	0x7
ARM GAS  /tmp/ccePJ8aS.s 			page 19


 963 0572 5B       		.byte	0x5b
 964 0573 9C050000 		.4byte	0x59c
 965 0577 12       		.uleb128 0x12
 966 0578 53090000 		.4byte	.LASF124
 967 057c 07       		.byte	0x7
 968 057d 5D       		.byte	0x5d
 969 057e FB010000 		.4byte	0x1fb
 970 0582 00       		.byte	0
 971 0583 12       		.uleb128 0x12
 972 0584 6F010000 		.4byte	.LASF125
 973 0588 07       		.byte	0x7
 974 0589 60       		.byte	0x60
 975 058a 1C050000 		.4byte	0x51c
 976 058e 02       		.byte	0x2
 977 058f 12       		.uleb128 0x12
 978 0590 9B080000 		.4byte	.LASF126
 979 0594 07       		.byte	0x7
 980 0595 63       		.byte	0x63
 981 0596 64050000 		.4byte	0x564
 982 059a 03       		.byte	0x3
 983 059b 00       		.byte	0
 984 059c 06       		.uleb128 0x6
 985 059d 76020000 		.4byte	.LASF127
 986 05a1 07       		.byte	0x7
 987 05a2 65       		.byte	0x65
 988 05a3 6F050000 		.4byte	0x56f
 989 05a7 11       		.uleb128 0x11
 990 05a8 04       		.byte	0x4
 991 05a9 08       		.byte	0x8
 992 05aa 32       		.byte	0x32
 993 05ab E0050000 		.4byte	0x5e0
 994 05af 12       		.uleb128 0x12
 995 05b0 19000000 		.4byte	.LASF128
 996 05b4 08       		.byte	0x8
 997 05b5 34       		.byte	0x34
 998 05b6 E5010000 		.4byte	0x1e5
 999 05ba 00       		.byte	0
 1000 05bb 12       		.uleb128 0x12
 1001 05bc AA030000 		.4byte	.LASF129
 1002 05c0 08       		.byte	0x8
 1003 05c1 39       		.byte	0x39
 1004 05c2 E5010000 		.4byte	0x1e5
 1005 05c6 01       		.byte	0x1
 1006 05c7 12       		.uleb128 0x12
 1007 05c8 32070000 		.4byte	.LASF130
 1008 05cc 08       		.byte	0x8
 1009 05cd 3D       		.byte	0x3d
 1010 05ce E5010000 		.4byte	0x1e5
 1011 05d2 02       		.byte	0x2
 1012 05d3 12       		.uleb128 0x12
 1013 05d4 7A010000 		.4byte	.LASF131
 1014 05d8 08       		.byte	0x8
 1015 05d9 41       		.byte	0x41
 1016 05da 63020000 		.4byte	0x263
 1017 05de 03       		.byte	0x3
 1018 05df 00       		.byte	0
 1019 05e0 06       		.uleb128 0x6
ARM GAS  /tmp/ccePJ8aS.s 			page 20


 1020 05e1 0C0B0000 		.4byte	.LASF132
 1021 05e5 08       		.byte	0x8
 1022 05e6 44       		.byte	0x44
 1023 05e7 A7050000 		.4byte	0x5a7
 1024 05eb 13       		.uleb128 0x13
 1025 05ec 14       		.uleb128 0x14
 1026 05ed 04       		.byte	0x4
 1027 05ee EB050000 		.4byte	0x5eb
 1028 05f2 15       		.uleb128 0x15
 1029 05f3 8C010000 		.4byte	0x18c
 1030 05f7 02060000 		.4byte	0x602
 1031 05fb 16       		.uleb128 0x16
 1032 05fc 2B020000 		.4byte	0x22b
 1033 0600 02       		.byte	0x2
 1034 0601 00       		.byte	0
 1035 0602 09       		.uleb128 0x9
 1036 0603 9E030000 		.4byte	.LASF133
 1037 0607 09       		.byte	0x9
 1038 0608 6301     		.2byte	0x163
 1039 060a F2050000 		.4byte	0x5f2
 1040 060e 09       		.uleb128 0x9
 1041 060f 210A0000 		.4byte	.LASF134
 1042 0613 09       		.byte	0x9
 1043 0614 6301     		.2byte	0x163
 1044 0616 F2050000 		.4byte	0x5f2
 1045 061a 09       		.uleb128 0x9
 1046 061b 3F0A0000 		.4byte	.LASF135
 1047 061f 09       		.byte	0x9
 1048 0620 6401     		.2byte	0x164
 1049 0622 F0010000 		.4byte	0x1f0
 1050 0626 09       		.uleb128 0x9
 1051 0627 E7050000 		.4byte	.LASF136
 1052 062b 09       		.byte	0x9
 1053 062c 6401     		.2byte	0x164
 1054 062e F0010000 		.4byte	0x1f0
 1055 0632 09       		.uleb128 0x9
 1056 0633 93010000 		.4byte	.LASF137
 1057 0637 09       		.byte	0x9
 1058 0638 6401     		.2byte	0x164
 1059 063a F0010000 		.4byte	0x1f0
 1060 063e 09       		.uleb128 0x9
 1061 063f 3C050000 		.4byte	.LASF138
 1062 0643 09       		.byte	0x9
 1063 0644 6501     		.2byte	0x165
 1064 0646 4A060000 		.4byte	0x64a
 1065 064a 05       		.uleb128 0x5
 1066 064b 04       		.byte	0x4
 1067 064c 04       		.byte	0x4
 1068 064d 75060000 		.4byte	.LASF139
 1069 0651 09       		.uleb128 0x9
 1070 0652 650A0000 		.4byte	.LASF140
 1071 0656 09       		.byte	0x9
 1072 0657 6601     		.2byte	0x166
 1073 0659 4A060000 		.4byte	0x64a
 1074 065d 09       		.uleb128 0x9
 1075 065e 5A050000 		.4byte	.LASF141
 1076 0662 09       		.byte	0x9
ARM GAS  /tmp/ccePJ8aS.s 			page 21


 1077 0663 6601     		.2byte	0x166
 1078 0665 4A060000 		.4byte	0x64a
 1079 0669 17       		.uleb128 0x17
 1080 066a 59617700 		.ascii	"Yaw\000"
 1081 066e 09       		.byte	0x9
 1082 066f 6601     		.2byte	0x166
 1083 0671 4A060000 		.4byte	0x64a
 1084 0675 05       		.uleb128 0x5
 1085 0676 08       		.byte	0x8
 1086 0677 04       		.byte	0x4
 1087 0678 55070000 		.4byte	.LASF142
 1088 067c 18       		.uleb128 0x18
 1089 067d 04       		.byte	0x4
 1090 067e 06       		.uleb128 0x6
 1091 067f 23050000 		.4byte	.LASF143
 1092 0683 0A       		.byte	0xa
 1093 0684 07       		.byte	0x7
 1094 0685 D7010000 		.4byte	0x1d7
 1095 0689 06       		.uleb128 0x6
 1096 068a B10A0000 		.4byte	.LASF144
 1097 068e 0B       		.byte	0xb
 1098 068f 2C       		.byte	0x2c
 1099 0690 B0010000 		.4byte	0x1b0
 1100 0694 06       		.uleb128 0x6
 1101 0695 77070000 		.4byte	.LASF145
 1102 0699 0B       		.byte	0xb
 1103 069a 72       		.byte	0x72
 1104 069b B0010000 		.4byte	0x1b0
 1105 069f 0C       		.uleb128 0xc
 1106 06a0 01090000 		.4byte	.LASF146
 1107 06a4 0C       		.byte	0xc
 1108 06a5 6501     		.2byte	0x165
 1109 06a7 DE010000 		.4byte	0x1de
 1110 06ab 19       		.uleb128 0x19
 1111 06ac 04       		.byte	0x4
 1112 06ad 0B       		.byte	0xb
 1113 06ae A6       		.byte	0xa6
 1114 06af CA060000 		.4byte	0x6ca
 1115 06b3 1A       		.uleb128 0x1a
 1116 06b4 8D010000 		.4byte	.LASF147
 1117 06b8 0B       		.byte	0xb
 1118 06b9 A8       		.byte	0xa8
 1119 06ba 9F060000 		.4byte	0x69f
 1120 06be 1A       		.uleb128 0x1a
 1121 06bf 7F070000 		.4byte	.LASF148
 1122 06c3 0B       		.byte	0xb
 1123 06c4 A9       		.byte	0xa9
 1124 06c5 CA060000 		.4byte	0x6ca
 1125 06c9 00       		.byte	0
 1126 06ca 15       		.uleb128 0x15
 1127 06cb 7A010000 		.4byte	0x17a
 1128 06cf DA060000 		.4byte	0x6da
 1129 06d3 16       		.uleb128 0x16
 1130 06d4 2B020000 		.4byte	0x22b
 1131 06d8 03       		.byte	0x3
 1132 06d9 00       		.byte	0
 1133 06da 11       		.uleb128 0x11
ARM GAS  /tmp/ccePJ8aS.s 			page 22


 1134 06db 08       		.byte	0x8
 1135 06dc 0B       		.byte	0xb
 1136 06dd A3       		.byte	0xa3
 1137 06de FB060000 		.4byte	0x6fb
 1138 06e2 12       		.uleb128 0x12
 1139 06e3 2A070000 		.4byte	.LASF149
 1140 06e7 0B       		.byte	0xb
 1141 06e8 A5       		.byte	0xa5
 1142 06e9 D7010000 		.4byte	0x1d7
 1143 06ed 00       		.byte	0
 1144 06ee 12       		.uleb128 0x12
 1145 06ef 3C000000 		.4byte	.LASF150
 1146 06f3 0B       		.byte	0xb
 1147 06f4 AA       		.byte	0xaa
 1148 06f5 AB060000 		.4byte	0x6ab
 1149 06f9 04       		.byte	0x4
 1150 06fa 00       		.byte	0
 1151 06fb 06       		.uleb128 0x6
 1152 06fc E8080000 		.4byte	.LASF151
 1153 0700 0B       		.byte	0xb
 1154 0701 AB       		.byte	0xab
 1155 0702 DA060000 		.4byte	0x6da
 1156 0706 06       		.uleb128 0x6
 1157 0707 F7010000 		.4byte	.LASF152
 1158 070b 0B       		.byte	0xb
 1159 070c AF       		.byte	0xaf
 1160 070d 7E060000 		.4byte	0x67e
 1161 0711 06       		.uleb128 0x6
 1162 0712 6B0A0000 		.4byte	.LASF153
 1163 0716 0D       		.byte	0xd
 1164 0717 16       		.byte	0x16
 1165 0718 C2010000 		.4byte	0x1c2
 1166 071c 1B       		.uleb128 0x1b
 1167 071d 7D050000 		.4byte	.LASF158
 1168 0721 18       		.byte	0x18
 1169 0722 0D       		.byte	0xd
 1170 0723 2D       		.byte	0x2d
 1171 0724 6F070000 		.4byte	0x76f
 1172 0728 12       		.uleb128 0x12
 1173 0729 08090000 		.4byte	.LASF154
 1174 072d 0D       		.byte	0xd
 1175 072e 2F       		.byte	0x2f
 1176 072f 6F070000 		.4byte	0x76f
 1177 0733 00       		.byte	0
 1178 0734 1C       		.uleb128 0x1c
 1179 0735 5F6B00   		.ascii	"_k\000"
 1180 0738 0D       		.byte	0xd
 1181 0739 30       		.byte	0x30
 1182 073a D7010000 		.4byte	0x1d7
 1183 073e 04       		.byte	0x4
 1184 073f 12       		.uleb128 0x12
 1185 0740 85050000 		.4byte	.LASF155
 1186 0744 0D       		.byte	0xd
 1187 0745 30       		.byte	0x30
 1188 0746 D7010000 		.4byte	0x1d7
 1189 074a 08       		.byte	0x8
 1190 074b 12       		.uleb128 0x12
ARM GAS  /tmp/ccePJ8aS.s 			page 23


 1191 074c 61060000 		.4byte	.LASF156
 1192 0750 0D       		.byte	0xd
 1193 0751 30       		.byte	0x30
 1194 0752 D7010000 		.4byte	0x1d7
 1195 0756 0C       		.byte	0xc
 1196 0757 12       		.uleb128 0x12
 1197 0758 42040000 		.4byte	.LASF157
 1198 075c 0D       		.byte	0xd
 1199 075d 30       		.byte	0x30
 1200 075e D7010000 		.4byte	0x1d7
 1201 0762 10       		.byte	0x10
 1202 0763 1C       		.uleb128 0x1c
 1203 0764 5F7800   		.ascii	"_x\000"
 1204 0767 0D       		.byte	0xd
 1205 0768 31       		.byte	0x31
 1206 0769 75070000 		.4byte	0x775
 1207 076d 14       		.byte	0x14
 1208 076e 00       		.byte	0
 1209 076f 14       		.uleb128 0x14
 1210 0770 04       		.byte	0x4
 1211 0771 1C070000 		.4byte	0x71c
 1212 0775 15       		.uleb128 0x15
 1213 0776 11070000 		.4byte	0x711
 1214 077a 85070000 		.4byte	0x785
 1215 077e 16       		.uleb128 0x16
 1216 077f 2B020000 		.4byte	0x22b
 1217 0783 00       		.byte	0
 1218 0784 00       		.byte	0
 1219 0785 1B       		.uleb128 0x1b
 1220 0786 8E000000 		.4byte	.LASF159
 1221 078a 24       		.byte	0x24
 1222 078b 0D       		.byte	0xd
 1223 078c 35       		.byte	0x35
 1224 078d FE070000 		.4byte	0x7fe
 1225 0791 12       		.uleb128 0x12
 1226 0792 AA000000 		.4byte	.LASF160
 1227 0796 0D       		.byte	0xd
 1228 0797 37       		.byte	0x37
 1229 0798 D7010000 		.4byte	0x1d7
 1230 079c 00       		.byte	0
 1231 079d 12       		.uleb128 0x12
 1232 079e C50B0000 		.4byte	.LASF161
 1233 07a2 0D       		.byte	0xd
 1234 07a3 38       		.byte	0x38
 1235 07a4 D7010000 		.4byte	0x1d7
 1236 07a8 04       		.byte	0x4
 1237 07a9 12       		.uleb128 0x12
 1238 07aa 300B0000 		.4byte	.LASF162
 1239 07ae 0D       		.byte	0xd
 1240 07af 39       		.byte	0x39
 1241 07b0 D7010000 		.4byte	0x1d7
 1242 07b4 08       		.byte	0x8
 1243 07b5 12       		.uleb128 0x12
 1244 07b6 BE060000 		.4byte	.LASF163
 1245 07ba 0D       		.byte	0xd
 1246 07bb 3A       		.byte	0x3a
 1247 07bc D7010000 		.4byte	0x1d7
ARM GAS  /tmp/ccePJ8aS.s 			page 24


 1248 07c0 0C       		.byte	0xc
 1249 07c1 12       		.uleb128 0x12
 1250 07c2 11020000 		.4byte	.LASF164
 1251 07c6 0D       		.byte	0xd
 1252 07c7 3B       		.byte	0x3b
 1253 07c8 D7010000 		.4byte	0x1d7
 1254 07cc 10       		.byte	0x10
 1255 07cd 12       		.uleb128 0x12
 1256 07ce FC090000 		.4byte	.LASF165
 1257 07d2 0D       		.byte	0xd
 1258 07d3 3C       		.byte	0x3c
 1259 07d4 D7010000 		.4byte	0x1d7
 1260 07d8 14       		.byte	0x14
 1261 07d9 12       		.uleb128 0x12
 1262 07da 420B0000 		.4byte	.LASF166
 1263 07de 0D       		.byte	0xd
 1264 07df 3D       		.byte	0x3d
 1265 07e0 D7010000 		.4byte	0x1d7
 1266 07e4 18       		.byte	0x18
 1267 07e5 12       		.uleb128 0x12
 1268 07e6 61070000 		.4byte	.LASF167
 1269 07ea 0D       		.byte	0xd
 1270 07eb 3E       		.byte	0x3e
 1271 07ec D7010000 		.4byte	0x1d7
 1272 07f0 1C       		.byte	0x1c
 1273 07f1 12       		.uleb128 0x12
 1274 07f2 A70B0000 		.4byte	.LASF168
 1275 07f6 0D       		.byte	0xd
 1276 07f7 3F       		.byte	0x3f
 1277 07f8 D7010000 		.4byte	0x1d7
 1278 07fc 20       		.byte	0x20
 1279 07fd 00       		.byte	0
 1280 07fe 1D       		.uleb128 0x1d
 1281 07ff 61010000 		.4byte	.LASF169
 1282 0803 0801     		.2byte	0x108
 1283 0805 0D       		.byte	0xd
 1284 0806 48       		.byte	0x48
 1285 0807 3E080000 		.4byte	0x83e
 1286 080b 12       		.uleb128 0x12
 1287 080c 9F0B0000 		.4byte	.LASF170
 1288 0810 0D       		.byte	0xd
 1289 0811 49       		.byte	0x49
 1290 0812 3E080000 		.4byte	0x83e
 1291 0816 00       		.byte	0
 1292 0817 12       		.uleb128 0x12
 1293 0818 EC070000 		.4byte	.LASF171
 1294 081c 0D       		.byte	0xd
 1295 081d 4A       		.byte	0x4a
 1296 081e 3E080000 		.4byte	0x83e
 1297 0822 80       		.byte	0x80
 1298 0823 1E       		.uleb128 0x1e
 1299 0824 E0090000 		.4byte	.LASF172
 1300 0828 0D       		.byte	0xd
 1301 0829 4C       		.byte	0x4c
 1302 082a 11070000 		.4byte	0x711
 1303 082e 0001     		.2byte	0x100
 1304 0830 1E       		.uleb128 0x1e
ARM GAS  /tmp/ccePJ8aS.s 			page 25


 1305 0831 00040000 		.4byte	.LASF173
 1306 0835 0D       		.byte	0xd
 1307 0836 4F       		.byte	0x4f
 1308 0837 11070000 		.4byte	0x711
 1309 083b 0401     		.2byte	0x104
 1310 083d 00       		.byte	0
 1311 083e 15       		.uleb128 0x15
 1312 083f 7C060000 		.4byte	0x67c
 1313 0843 4E080000 		.4byte	0x84e
 1314 0847 16       		.uleb128 0x16
 1315 0848 2B020000 		.4byte	0x22b
 1316 084c 1F       		.byte	0x1f
 1317 084d 00       		.byte	0
 1318 084e 1D       		.uleb128 0x1d
 1319 084f 17070000 		.4byte	.LASF174
 1320 0853 9001     		.2byte	0x190
 1321 0855 0D       		.byte	0xd
 1322 0856 5B       		.byte	0x5b
 1323 0857 8C080000 		.4byte	0x88c
 1324 085b 12       		.uleb128 0x12
 1325 085c 08090000 		.4byte	.LASF154
 1326 0860 0D       		.byte	0xd
 1327 0861 5C       		.byte	0x5c
 1328 0862 8C080000 		.4byte	0x88c
 1329 0866 00       		.byte	0
 1330 0867 12       		.uleb128 0x12
 1331 0868 65030000 		.4byte	.LASF175
 1332 086c 0D       		.byte	0xd
 1333 086d 5D       		.byte	0x5d
 1334 086e D7010000 		.4byte	0x1d7
 1335 0872 04       		.byte	0x4
 1336 0873 12       		.uleb128 0x12
 1337 0874 99030000 		.4byte	.LASF176
 1338 0878 0D       		.byte	0xd
 1339 0879 5F       		.byte	0x5f
 1340 087a 92080000 		.4byte	0x892
 1341 087e 08       		.byte	0x8
 1342 087f 12       		.uleb128 0x12
 1343 0880 61010000 		.4byte	.LASF169
 1344 0884 0D       		.byte	0xd
 1345 0885 60       		.byte	0x60
 1346 0886 FE070000 		.4byte	0x7fe
 1347 088a 88       		.byte	0x88
 1348 088b 00       		.byte	0
 1349 088c 14       		.uleb128 0x14
 1350 088d 04       		.byte	0x4
 1351 088e 4E080000 		.4byte	0x84e
 1352 0892 15       		.uleb128 0x15
 1353 0893 EC050000 		.4byte	0x5ec
 1354 0897 A2080000 		.4byte	0x8a2
 1355 089b 16       		.uleb128 0x16
 1356 089c 2B020000 		.4byte	0x22b
 1357 08a0 1F       		.byte	0x1f
 1358 08a1 00       		.byte	0
 1359 08a2 1B       		.uleb128 0x1b
 1360 08a3 570A0000 		.4byte	.LASF177
 1361 08a7 08       		.byte	0x8
ARM GAS  /tmp/ccePJ8aS.s 			page 26


 1362 08a8 0D       		.byte	0xd
 1363 08a9 73       		.byte	0x73
 1364 08aa C7080000 		.4byte	0x8c7
 1365 08ae 12       		.uleb128 0x12
 1366 08af 95080000 		.4byte	.LASF178
 1367 08b3 0D       		.byte	0xd
 1368 08b4 74       		.byte	0x74
 1369 08b5 C7080000 		.4byte	0x8c7
 1370 08b9 00       		.byte	0
 1371 08ba 12       		.uleb128 0x12
 1372 08bb D4010000 		.4byte	.LASF179
 1373 08bf 0D       		.byte	0xd
 1374 08c0 75       		.byte	0x75
 1375 08c1 D7010000 		.4byte	0x1d7
 1376 08c5 04       		.byte	0x4
 1377 08c6 00       		.byte	0
 1378 08c7 14       		.uleb128 0x14
 1379 08c8 04       		.byte	0x4
 1380 08c9 7A010000 		.4byte	0x17a
 1381 08cd 1B       		.uleb128 0x1b
 1382 08ce 3A0B0000 		.4byte	.LASF180
 1383 08d2 68       		.byte	0x68
 1384 08d3 0D       		.byte	0xd
 1385 08d4 B3       		.byte	0xb3
 1386 08d5 F7090000 		.4byte	0x9f7
 1387 08d9 1C       		.uleb128 0x1c
 1388 08da 5F7000   		.ascii	"_p\000"
 1389 08dd 0D       		.byte	0xd
 1390 08de B4       		.byte	0xb4
 1391 08df C7080000 		.4byte	0x8c7
 1392 08e3 00       		.byte	0
 1393 08e4 1C       		.uleb128 0x1c
 1394 08e5 5F7200   		.ascii	"_r\000"
 1395 08e8 0D       		.byte	0xd
 1396 08e9 B5       		.byte	0xb5
 1397 08ea D7010000 		.4byte	0x1d7
 1398 08ee 04       		.byte	0x4
 1399 08ef 1C       		.uleb128 0x1c
 1400 08f0 5F7700   		.ascii	"_w\000"
 1401 08f3 0D       		.byte	0xd
 1402 08f4 B6       		.byte	0xb6
 1403 08f5 D7010000 		.4byte	0x1d7
 1404 08f9 08       		.byte	0x8
 1405 08fa 12       		.uleb128 0x12
 1406 08fb 10070000 		.4byte	.LASF181
 1407 08ff 0D       		.byte	0xd
 1408 0900 B7       		.byte	0xb7
 1409 0901 8C010000 		.4byte	0x18c
 1410 0905 0C       		.byte	0xc
 1411 0906 12       		.uleb128 0x12
 1412 0907 5B010000 		.4byte	.LASF182
 1413 090b 0D       		.byte	0xd
 1414 090c B8       		.byte	0xb8
 1415 090d 8C010000 		.4byte	0x18c
 1416 0911 0E       		.byte	0xe
 1417 0912 1C       		.uleb128 0x1c
 1418 0913 5F626600 		.ascii	"_bf\000"
ARM GAS  /tmp/ccePJ8aS.s 			page 27


 1419 0917 0D       		.byte	0xd
 1420 0918 B9       		.byte	0xb9
 1421 0919 A2080000 		.4byte	0x8a2
 1422 091d 10       		.byte	0x10
 1423 091e 12       		.uleb128 0x12
 1424 091f 180A0000 		.4byte	.LASF183
 1425 0923 0D       		.byte	0xd
 1426 0924 BA       		.byte	0xba
 1427 0925 D7010000 		.4byte	0x1d7
 1428 0929 18       		.byte	0x18
 1429 092a 12       		.uleb128 0x12
 1430 092b 3A040000 		.4byte	.LASF184
 1431 092f 0D       		.byte	0xd
 1432 0930 C1       		.byte	0xc1
 1433 0931 7C060000 		.4byte	0x67c
 1434 0935 1C       		.byte	0x1c
 1435 0936 12       		.uleb128 0x12
 1436 0937 49000000 		.4byte	.LASF185
 1437 093b 0D       		.byte	0xd
 1438 093c C3       		.byte	0xc3
 1439 093d 640B0000 		.4byte	0xb64
 1440 0941 20       		.byte	0x20
 1441 0942 12       		.uleb128 0x12
 1442 0943 4F000000 		.4byte	.LASF186
 1443 0947 0D       		.byte	0xd
 1444 0948 C5       		.byte	0xc5
 1445 0949 8E0B0000 		.4byte	0xb8e
 1446 094d 24       		.byte	0x24
 1447 094e 12       		.uleb128 0x12
 1448 094f 71070000 		.4byte	.LASF187
 1449 0953 0D       		.byte	0xd
 1450 0954 C8       		.byte	0xc8
 1451 0955 B20B0000 		.4byte	0xbb2
 1452 0959 28       		.byte	0x28
 1453 095a 12       		.uleb128 0x12
 1454 095b A3030000 		.4byte	.LASF188
 1455 095f 0D       		.byte	0xd
 1456 0960 C9       		.byte	0xc9
 1457 0961 CC0B0000 		.4byte	0xbcc
 1458 0965 2C       		.byte	0x2c
 1459 0966 1C       		.uleb128 0x1c
 1460 0967 5F756200 		.ascii	"_ub\000"
 1461 096b 0D       		.byte	0xd
 1462 096c CC       		.byte	0xcc
 1463 096d A2080000 		.4byte	0x8a2
 1464 0971 30       		.byte	0x30
 1465 0972 1C       		.uleb128 0x1c
 1466 0973 5F757000 		.ascii	"_up\000"
 1467 0977 0D       		.byte	0xd
 1468 0978 CD       		.byte	0xcd
 1469 0979 C7080000 		.4byte	0x8c7
 1470 097d 38       		.byte	0x38
 1471 097e 1C       		.uleb128 0x1c
 1472 097f 5F757200 		.ascii	"_ur\000"
 1473 0983 0D       		.byte	0xd
 1474 0984 CE       		.byte	0xce
 1475 0985 D7010000 		.4byte	0x1d7
ARM GAS  /tmp/ccePJ8aS.s 			page 28


 1476 0989 3C       		.byte	0x3c
 1477 098a 12       		.uleb128 0x12
 1478 098b CD060000 		.4byte	.LASF189
 1479 098f 0D       		.byte	0xd
 1480 0990 D1       		.byte	0xd1
 1481 0991 D20B0000 		.4byte	0xbd2
 1482 0995 40       		.byte	0x40
 1483 0996 12       		.uleb128 0x12
 1484 0997 A4000000 		.4byte	.LASF190
 1485 099b 0D       		.byte	0xd
 1486 099c D2       		.byte	0xd2
 1487 099d E20B0000 		.4byte	0xbe2
 1488 09a1 43       		.byte	0x43
 1489 09a2 1C       		.uleb128 0x1c
 1490 09a3 5F6C6200 		.ascii	"_lb\000"
 1491 09a7 0D       		.byte	0xd
 1492 09a8 D5       		.byte	0xd5
 1493 09a9 A2080000 		.4byte	0x8a2
 1494 09ad 44       		.byte	0x44
 1495 09ae 12       		.uleb128 0x12
 1496 09af 79080000 		.4byte	.LASF191
 1497 09b3 0D       		.byte	0xd
 1498 09b4 D8       		.byte	0xd8
 1499 09b5 D7010000 		.4byte	0x1d7
 1500 09b9 4C       		.byte	0x4c
 1501 09ba 12       		.uleb128 0x12
 1502 09bb 51040000 		.4byte	.LASF192
 1503 09bf 0D       		.byte	0xd
 1504 09c0 D9       		.byte	0xd9
 1505 09c1 89060000 		.4byte	0x689
 1506 09c5 50       		.byte	0x50
 1507 09c6 12       		.uleb128 0x12
 1508 09c7 0E090000 		.4byte	.LASF193
 1509 09cb 0D       		.byte	0xd
 1510 09cc DC       		.byte	0xdc
 1511 09cd 150A0000 		.4byte	0xa15
 1512 09d1 54       		.byte	0x54
 1513 09d2 12       		.uleb128 0x12
 1514 09d3 D3000000 		.4byte	.LASF194
 1515 09d7 0D       		.byte	0xd
 1516 09d8 E0       		.byte	0xe0
 1517 09d9 06070000 		.4byte	0x706
 1518 09dd 58       		.byte	0x58
 1519 09de 12       		.uleb128 0x12
 1520 09df FC060000 		.4byte	.LASF195
 1521 09e3 0D       		.byte	0xd
 1522 09e4 E2       		.byte	0xe2
 1523 09e5 FB060000 		.4byte	0x6fb
 1524 09e9 5C       		.byte	0x5c
 1525 09ea 12       		.uleb128 0x12
 1526 09eb FD040000 		.4byte	.LASF196
 1527 09ef 0D       		.byte	0xd
 1528 09f0 E3       		.byte	0xe3
 1529 09f1 D7010000 		.4byte	0x1d7
 1530 09f5 64       		.byte	0x64
 1531 09f6 00       		.byte	0
 1532 09f7 1F       		.uleb128 0x1f
ARM GAS  /tmp/ccePJ8aS.s 			page 29


 1533 09f8 D7010000 		.4byte	0x1d7
 1534 09fc 150A0000 		.4byte	0xa15
 1535 0a00 20       		.uleb128 0x20
 1536 0a01 150A0000 		.4byte	0xa15
 1537 0a05 20       		.uleb128 0x20
 1538 0a06 7C060000 		.4byte	0x67c
 1539 0a0a 20       		.uleb128 0x20
 1540 0a0b 520B0000 		.4byte	0xb52
 1541 0a0f 20       		.uleb128 0x20
 1542 0a10 D7010000 		.4byte	0x1d7
 1543 0a14 00       		.byte	0
 1544 0a15 14       		.uleb128 0x14
 1545 0a16 04       		.byte	0x4
 1546 0a17 200A0000 		.4byte	0xa20
 1547 0a1b 21       		.uleb128 0x21
 1548 0a1c 150A0000 		.4byte	0xa15
 1549 0a20 22       		.uleb128 0x22
 1550 0a21 20030000 		.4byte	.LASF197
 1551 0a25 2804     		.2byte	0x428
 1552 0a27 0D       		.byte	0xd
 1553 0a28 3802     		.2byte	0x238
 1554 0a2a 520B0000 		.4byte	0xb52
 1555 0a2e 0F       		.uleb128 0xf
 1556 0a2f 35050000 		.4byte	.LASF198
 1557 0a33 0D       		.byte	0xd
 1558 0a34 3A02     		.2byte	0x23a
 1559 0a36 D7010000 		.4byte	0x1d7
 1560 0a3a 00       		.byte	0
 1561 0a3b 0F       		.uleb128 0xf
 1562 0a3c E8030000 		.4byte	.LASF199
 1563 0a40 0D       		.byte	0xd
 1564 0a41 3F02     		.2byte	0x23f
 1565 0a43 390C0000 		.4byte	0xc39
 1566 0a47 04       		.byte	0x4
 1567 0a48 0F       		.uleb128 0xf
 1568 0a49 87020000 		.4byte	.LASF200
 1569 0a4d 0D       		.byte	0xd
 1570 0a4e 3F02     		.2byte	0x23f
 1571 0a50 390C0000 		.4byte	0xc39
 1572 0a54 08       		.byte	0x8
 1573 0a55 0F       		.uleb128 0xf
 1574 0a56 E6060000 		.4byte	.LASF201
 1575 0a5a 0D       		.byte	0xd
 1576 0a5b 3F02     		.2byte	0x23f
 1577 0a5d 390C0000 		.4byte	0xc39
 1578 0a61 0C       		.byte	0xc
 1579 0a62 0F       		.uleb128 0xf
 1580 0a63 270A0000 		.4byte	.LASF202
 1581 0a67 0D       		.byte	0xd
 1582 0a68 4102     		.2byte	0x241
 1583 0a6a D7010000 		.4byte	0x1d7
 1584 0a6e 10       		.byte	0x10
 1585 0a6f 0F       		.uleb128 0xf
 1586 0a70 C7050000 		.4byte	.LASF203
 1587 0a74 0D       		.byte	0xd
 1588 0a75 4202     		.2byte	0x242
 1589 0a77 1B0E0000 		.4byte	0xe1b
ARM GAS  /tmp/ccePJ8aS.s 			page 30


 1590 0a7b 14       		.byte	0x14
 1591 0a7c 0F       		.uleb128 0xf
 1592 0a7d 37020000 		.4byte	.LASF204
 1593 0a81 0D       		.byte	0xd
 1594 0a82 4402     		.2byte	0x244
 1595 0a84 D7010000 		.4byte	0x1d7
 1596 0a88 30       		.byte	0x30
 1597 0a89 0F       		.uleb128 0xf
 1598 0a8a 2E060000 		.4byte	.LASF205
 1599 0a8e 0D       		.byte	0xd
 1600 0a8f 4502     		.2byte	0x245
 1601 0a91 880B0000 		.4byte	0xb88
 1602 0a95 34       		.byte	0x34
 1603 0a96 0F       		.uleb128 0xf
 1604 0a97 C8000000 		.4byte	.LASF206
 1605 0a9b 0D       		.byte	0xd
 1606 0a9c 4702     		.2byte	0x247
 1607 0a9e D7010000 		.4byte	0x1d7
 1608 0aa2 38       		.byte	0x38
 1609 0aa3 0F       		.uleb128 0xf
 1610 0aa4 8D050000 		.4byte	.LASF207
 1611 0aa8 0D       		.byte	0xd
 1612 0aa9 4902     		.2byte	0x249
 1613 0aab 360E0000 		.4byte	0xe36
 1614 0aaf 3C       		.byte	0x3c
 1615 0ab0 0F       		.uleb128 0xf
 1616 0ab1 8E0A0000 		.4byte	.LASF208
 1617 0ab5 0D       		.byte	0xd
 1618 0ab6 4C02     		.2byte	0x24c
 1619 0ab8 6F070000 		.4byte	0x76f
 1620 0abc 40       		.byte	0x40
 1621 0abd 0F       		.uleb128 0xf
 1622 0abe CA010000 		.4byte	.LASF209
 1623 0ac2 0D       		.byte	0xd
 1624 0ac3 4D02     		.2byte	0x24d
 1625 0ac5 D7010000 		.4byte	0x1d7
 1626 0ac9 44       		.byte	0x44
 1627 0aca 0F       		.uleb128 0xf
 1628 0acb B8040000 		.4byte	.LASF210
 1629 0acf 0D       		.byte	0xd
 1630 0ad0 4E02     		.2byte	0x24e
 1631 0ad2 6F070000 		.4byte	0x76f
 1632 0ad6 48       		.byte	0x48
 1633 0ad7 0F       		.uleb128 0xf
 1634 0ad8 3E060000 		.4byte	.LASF211
 1635 0adc 0D       		.byte	0xd
 1636 0add 4F02     		.2byte	0x24f
 1637 0adf 3C0E0000 		.4byte	0xe3c
 1638 0ae3 4C       		.byte	0x4c
 1639 0ae4 0F       		.uleb128 0xf
 1640 0ae5 6B000000 		.4byte	.LASF212
 1641 0ae9 0D       		.byte	0xd
 1642 0aea 5202     		.2byte	0x252
 1643 0aec D7010000 		.4byte	0x1d7
 1644 0af0 50       		.byte	0x50
 1645 0af1 0F       		.uleb128 0xf
 1646 0af2 59040000 		.4byte	.LASF213
ARM GAS  /tmp/ccePJ8aS.s 			page 31


 1647 0af6 0D       		.byte	0xd
 1648 0af7 5302     		.2byte	0x253
 1649 0af9 520B0000 		.4byte	0xb52
 1650 0afd 54       		.byte	0x54
 1651 0afe 0F       		.uleb128 0xf
 1652 0aff C8060000 		.4byte	.LASF214
 1653 0b03 0D       		.byte	0xd
 1654 0b04 7602     		.2byte	0x276
 1655 0b06 F90D0000 		.4byte	0xdf9
 1656 0b0a 58       		.byte	0x58
 1657 0b0b 23       		.uleb128 0x23
 1658 0b0c 17070000 		.4byte	.LASF174
 1659 0b10 0D       		.byte	0xd
 1660 0b11 7A02     		.2byte	0x27a
 1661 0b13 8C080000 		.4byte	0x88c
 1662 0b17 4801     		.2byte	0x148
 1663 0b19 23       		.uleb128 0x23
 1664 0b1a A5050000 		.4byte	.LASF215
 1665 0b1e 0D       		.byte	0xd
 1666 0b1f 7B02     		.2byte	0x27b
 1667 0b21 4E080000 		.4byte	0x84e
 1668 0b25 4C01     		.2byte	0x14c
 1669 0b27 23       		.uleb128 0x23
 1670 0b28 47040000 		.4byte	.LASF216
 1671 0b2c 0D       		.byte	0xd
 1672 0b2d 7F02     		.2byte	0x27f
 1673 0b2f 4D0E0000 		.4byte	0xe4d
 1674 0b33 DC02     		.2byte	0x2dc
 1675 0b35 23       		.uleb128 0x23
 1676 0b36 FB050000 		.4byte	.LASF217
 1677 0b3a 0D       		.byte	0xd
 1678 0b3b 8402     		.2byte	0x284
 1679 0b3d FE0B0000 		.4byte	0xbfe
 1680 0b41 E002     		.2byte	0x2e0
 1681 0b43 23       		.uleb128 0x23
 1682 0b44 44000000 		.4byte	.LASF218
 1683 0b48 0D       		.byte	0xd
 1684 0b49 8502     		.2byte	0x285
 1685 0b4b 590E0000 		.4byte	0xe59
 1686 0b4f EC02     		.2byte	0x2ec
 1687 0b51 00       		.byte	0
 1688 0b52 14       		.uleb128 0x14
 1689 0b53 04       		.byte	0x4
 1690 0b54 580B0000 		.4byte	0xb58
 1691 0b58 05       		.uleb128 0x5
 1692 0b59 01       		.byte	0x1
 1693 0b5a 08       		.byte	0x8
 1694 0b5b 94030000 		.4byte	.LASF219
 1695 0b5f 21       		.uleb128 0x21
 1696 0b60 580B0000 		.4byte	0xb58
 1697 0b64 14       		.uleb128 0x14
 1698 0b65 04       		.byte	0x4
 1699 0b66 F7090000 		.4byte	0x9f7
 1700 0b6a 1F       		.uleb128 0x1f
 1701 0b6b D7010000 		.4byte	0x1d7
 1702 0b6f 880B0000 		.4byte	0xb88
 1703 0b73 20       		.uleb128 0x20
ARM GAS  /tmp/ccePJ8aS.s 			page 32


 1704 0b74 150A0000 		.4byte	0xa15
 1705 0b78 20       		.uleb128 0x20
 1706 0b79 7C060000 		.4byte	0x67c
 1707 0b7d 20       		.uleb128 0x20
 1708 0b7e 880B0000 		.4byte	0xb88
 1709 0b82 20       		.uleb128 0x20
 1710 0b83 D7010000 		.4byte	0x1d7
 1711 0b87 00       		.byte	0
 1712 0b88 14       		.uleb128 0x14
 1713 0b89 04       		.byte	0x4
 1714 0b8a 5F0B0000 		.4byte	0xb5f
 1715 0b8e 14       		.uleb128 0x14
 1716 0b8f 04       		.byte	0x4
 1717 0b90 6A0B0000 		.4byte	0xb6a
 1718 0b94 1F       		.uleb128 0x1f
 1719 0b95 94060000 		.4byte	0x694
 1720 0b99 B20B0000 		.4byte	0xbb2
 1721 0b9d 20       		.uleb128 0x20
 1722 0b9e 150A0000 		.4byte	0xa15
 1723 0ba2 20       		.uleb128 0x20
 1724 0ba3 7C060000 		.4byte	0x67c
 1725 0ba7 20       		.uleb128 0x20
 1726 0ba8 94060000 		.4byte	0x694
 1727 0bac 20       		.uleb128 0x20
 1728 0bad D7010000 		.4byte	0x1d7
 1729 0bb1 00       		.byte	0
 1730 0bb2 14       		.uleb128 0x14
 1731 0bb3 04       		.byte	0x4
 1732 0bb4 940B0000 		.4byte	0xb94
 1733 0bb8 1F       		.uleb128 0x1f
 1734 0bb9 D7010000 		.4byte	0x1d7
 1735 0bbd CC0B0000 		.4byte	0xbcc
 1736 0bc1 20       		.uleb128 0x20
 1737 0bc2 150A0000 		.4byte	0xa15
 1738 0bc6 20       		.uleb128 0x20
 1739 0bc7 7C060000 		.4byte	0x67c
 1740 0bcb 00       		.byte	0
 1741 0bcc 14       		.uleb128 0x14
 1742 0bcd 04       		.byte	0x4
 1743 0bce B80B0000 		.4byte	0xbb8
 1744 0bd2 15       		.uleb128 0x15
 1745 0bd3 7A010000 		.4byte	0x17a
 1746 0bd7 E20B0000 		.4byte	0xbe2
 1747 0bdb 16       		.uleb128 0x16
 1748 0bdc 2B020000 		.4byte	0x22b
 1749 0be0 02       		.byte	0x2
 1750 0be1 00       		.byte	0
 1751 0be2 15       		.uleb128 0x15
 1752 0be3 7A010000 		.4byte	0x17a
 1753 0be7 F20B0000 		.4byte	0xbf2
 1754 0beb 16       		.uleb128 0x16
 1755 0bec 2B020000 		.4byte	0x22b
 1756 0bf0 00       		.byte	0
 1757 0bf1 00       		.byte	0
 1758 0bf2 0C       		.uleb128 0xc
 1759 0bf3 C6080000 		.4byte	.LASF220
 1760 0bf7 0D       		.byte	0xd
ARM GAS  /tmp/ccePJ8aS.s 			page 33


 1761 0bf8 1D01     		.2byte	0x11d
 1762 0bfa CD080000 		.4byte	0x8cd
 1763 0bfe 24       		.uleb128 0x24
 1764 0bff 4E060000 		.4byte	.LASF221
 1765 0c03 0C       		.byte	0xc
 1766 0c04 0D       		.byte	0xd
 1767 0c05 2101     		.2byte	0x121
 1768 0c07 330C0000 		.4byte	0xc33
 1769 0c0b 0F       		.uleb128 0xf
 1770 0c0c 08090000 		.4byte	.LASF154
 1771 0c10 0D       		.byte	0xd
 1772 0c11 2301     		.2byte	0x123
 1773 0c13 330C0000 		.4byte	0xc33
 1774 0c17 00       		.byte	0
 1775 0c18 0F       		.uleb128 0xf
 1776 0c19 E0050000 		.4byte	.LASF222
 1777 0c1d 0D       		.byte	0xd
 1778 0c1e 2401     		.2byte	0x124
 1779 0c20 D7010000 		.4byte	0x1d7
 1780 0c24 04       		.byte	0x4
 1781 0c25 0F       		.uleb128 0xf
 1782 0c26 48060000 		.4byte	.LASF223
 1783 0c2a 0D       		.byte	0xd
 1784 0c2b 2501     		.2byte	0x125
 1785 0c2d 390C0000 		.4byte	0xc39
 1786 0c31 08       		.byte	0x8
 1787 0c32 00       		.byte	0
 1788 0c33 14       		.uleb128 0x14
 1789 0c34 04       		.byte	0x4
 1790 0c35 FE0B0000 		.4byte	0xbfe
 1791 0c39 14       		.uleb128 0x14
 1792 0c3a 04       		.byte	0x4
 1793 0c3b F20B0000 		.4byte	0xbf2
 1794 0c3f 24       		.uleb128 0x24
 1795 0c40 F8070000 		.4byte	.LASF224
 1796 0c44 0E       		.byte	0xe
 1797 0c45 0D       		.byte	0xd
 1798 0c46 3D01     		.2byte	0x13d
 1799 0c48 740C0000 		.4byte	0xc74
 1800 0c4c 0F       		.uleb128 0xf
 1801 0c4d 6B070000 		.4byte	.LASF225
 1802 0c51 0D       		.byte	0xd
 1803 0c52 3E01     		.2byte	0x13e
 1804 0c54 740C0000 		.4byte	0xc74
 1805 0c58 00       		.byte	0
 1806 0c59 0F       		.uleb128 0xf
 1807 0c5a 0B010000 		.4byte	.LASF226
 1808 0c5e 0D       		.byte	0xd
 1809 0c5f 3F01     		.2byte	0x13f
 1810 0c61 740C0000 		.4byte	0xc74
 1811 0c65 06       		.byte	0x6
 1812 0c66 0F       		.uleb128 0xf
 1813 0c67 F60A0000 		.4byte	.LASF227
 1814 0c6b 0D       		.byte	0xd
 1815 0c6c 4001     		.2byte	0x140
 1816 0c6e 9E010000 		.4byte	0x19e
 1817 0c72 0C       		.byte	0xc
ARM GAS  /tmp/ccePJ8aS.s 			page 34


 1818 0c73 00       		.byte	0
 1819 0c74 15       		.uleb128 0x15
 1820 0c75 9E010000 		.4byte	0x19e
 1821 0c79 840C0000 		.4byte	0xc84
 1822 0c7d 16       		.uleb128 0x16
 1823 0c7e 2B020000 		.4byte	0x22b
 1824 0c82 02       		.byte	0x2
 1825 0c83 00       		.byte	0
 1826 0c84 0D       		.uleb128 0xd
 1827 0c85 D0       		.byte	0xd0
 1828 0c86 0D       		.byte	0xd
 1829 0c87 5702     		.2byte	0x257
 1830 0c89 850D0000 		.4byte	0xd85
 1831 0c8d 0F       		.uleb128 0xf
 1832 0c8e 55020000 		.4byte	.LASF228
 1833 0c92 0D       		.byte	0xd
 1834 0c93 5902     		.2byte	0x259
 1835 0c95 DE010000 		.4byte	0x1de
 1836 0c99 00       		.byte	0
 1837 0c9a 0F       		.uleb128 0xf
 1838 0c9b A5080000 		.4byte	.LASF229
 1839 0c9f 0D       		.byte	0xd
 1840 0ca0 5A02     		.2byte	0x25a
 1841 0ca2 520B0000 		.4byte	0xb52
 1842 0ca6 04       		.byte	0x4
 1843 0ca7 0F       		.uleb128 0xf
 1844 0ca8 5E000000 		.4byte	.LASF230
 1845 0cac 0D       		.byte	0xd
 1846 0cad 5B02     		.2byte	0x25b
 1847 0caf 850D0000 		.4byte	0xd85
 1848 0cb3 08       		.byte	0x8
 1849 0cb4 0F       		.uleb128 0xf
 1850 0cb5 E8010000 		.4byte	.LASF231
 1851 0cb9 0D       		.byte	0xd
 1852 0cba 5C02     		.2byte	0x25c
 1853 0cbc 85070000 		.4byte	0x785
 1854 0cc0 24       		.byte	0x24
 1855 0cc1 0F       		.uleb128 0xf
 1856 0cc2 1F060000 		.4byte	.LASF232
 1857 0cc6 0D       		.byte	0xd
 1858 0cc7 5D02     		.2byte	0x25d
 1859 0cc9 D7010000 		.4byte	0x1d7
 1860 0ccd 48       		.byte	0x48
 1861 0cce 0F       		.uleb128 0xf
 1862 0ccf 05070000 		.4byte	.LASF233
 1863 0cd3 0D       		.byte	0xd
 1864 0cd4 5E02     		.2byte	0x25e
 1865 0cd6 D0010000 		.4byte	0x1d0
 1866 0cda 50       		.byte	0x50
 1867 0cdb 0F       		.uleb128 0xf
 1868 0cdc F3080000 		.4byte	.LASF234
 1869 0ce0 0D       		.byte	0xd
 1870 0ce1 5F02     		.2byte	0x25f
 1871 0ce3 3F0C0000 		.4byte	0xc3f
 1872 0ce7 58       		.byte	0x58
 1873 0ce8 0F       		.uleb128 0xf
 1874 0ce9 93090000 		.4byte	.LASF235
ARM GAS  /tmp/ccePJ8aS.s 			page 35


 1875 0ced 0D       		.byte	0xd
 1876 0cee 6002     		.2byte	0x260
 1877 0cf0 FB060000 		.4byte	0x6fb
 1878 0cf4 68       		.byte	0x68
 1879 0cf5 0F       		.uleb128 0xf
 1880 0cf6 98070000 		.4byte	.LASF236
 1881 0cfa 0D       		.byte	0xd
 1882 0cfb 6102     		.2byte	0x261
 1883 0cfd FB060000 		.4byte	0x6fb
 1884 0d01 70       		.byte	0x70
 1885 0d02 0F       		.uleb128 0xf
 1886 0d03 EE060000 		.4byte	.LASF237
 1887 0d07 0D       		.byte	0xd
 1888 0d08 6202     		.2byte	0x262
 1889 0d0a FB060000 		.4byte	0x6fb
 1890 0d0e 78       		.byte	0x78
 1891 0d0f 0F       		.uleb128 0xf
 1892 0d10 B3000000 		.4byte	.LASF238
 1893 0d14 0D       		.byte	0xd
 1894 0d15 6302     		.2byte	0x263
 1895 0d17 950D0000 		.4byte	0xd95
 1896 0d1b 80       		.byte	0x80
 1897 0d1c 0F       		.uleb128 0xf
 1898 0d1d 5F050000 		.4byte	.LASF239
 1899 0d21 0D       		.byte	0xd
 1900 0d22 6402     		.2byte	0x264
 1901 0d24 A50D0000 		.4byte	0xda5
 1902 0d28 88       		.byte	0x88
 1903 0d29 0F       		.uleb128 0xf
 1904 0d2a CE0B0000 		.4byte	.LASF240
 1905 0d2e 0D       		.byte	0xd
 1906 0d2f 6502     		.2byte	0x265
 1907 0d31 D7010000 		.4byte	0x1d7
 1908 0d35 A0       		.byte	0xa0
 1909 0d36 0F       		.uleb128 0xf
 1910 0d37 9D010000 		.4byte	.LASF241
 1911 0d3b 0D       		.byte	0xd
 1912 0d3c 6602     		.2byte	0x266
 1913 0d3e FB060000 		.4byte	0x6fb
 1914 0d42 A4       		.byte	0xa4
 1915 0d43 0F       		.uleb128 0xf
 1916 0d44 B2080000 		.4byte	.LASF242
 1917 0d48 0D       		.byte	0xd
 1918 0d49 6702     		.2byte	0x267
 1919 0d4b FB060000 		.4byte	0x6fb
 1920 0d4f AC       		.byte	0xac
 1921 0d50 0F       		.uleb128 0xf
 1922 0d51 840B0000 		.4byte	.LASF243
 1923 0d55 0D       		.byte	0xd
 1924 0d56 6802     		.2byte	0x268
 1925 0d58 FB060000 		.4byte	0x6fb
 1926 0d5c B4       		.byte	0xb4
 1927 0d5d 0F       		.uleb128 0xf
 1928 0d5e A9060000 		.4byte	.LASF244
 1929 0d62 0D       		.byte	0xd
 1930 0d63 6902     		.2byte	0x269
 1931 0d65 FB060000 		.4byte	0x6fb
ARM GAS  /tmp/ccePJ8aS.s 			page 36


 1932 0d69 BC       		.byte	0xbc
 1933 0d6a 0F       		.uleb128 0xf
 1934 0d6b 93000000 		.4byte	.LASF245
 1935 0d6f 0D       		.byte	0xd
 1936 0d70 6A02     		.2byte	0x26a
 1937 0d72 FB060000 		.4byte	0x6fb
 1938 0d76 C4       		.byte	0xc4
 1939 0d77 0F       		.uleb128 0xf
 1940 0d78 86060000 		.4byte	.LASF246
 1941 0d7c 0D       		.byte	0xd
 1942 0d7d 6B02     		.2byte	0x26b
 1943 0d7f D7010000 		.4byte	0x1d7
 1944 0d83 CC       		.byte	0xcc
 1945 0d84 00       		.byte	0
 1946 0d85 15       		.uleb128 0x15
 1947 0d86 580B0000 		.4byte	0xb58
 1948 0d8a 950D0000 		.4byte	0xd95
 1949 0d8e 16       		.uleb128 0x16
 1950 0d8f 2B020000 		.4byte	0x22b
 1951 0d93 19       		.byte	0x19
 1952 0d94 00       		.byte	0
 1953 0d95 15       		.uleb128 0x15
 1954 0d96 580B0000 		.4byte	0xb58
 1955 0d9a A50D0000 		.4byte	0xda5
 1956 0d9e 16       		.uleb128 0x16
 1957 0d9f 2B020000 		.4byte	0x22b
 1958 0da3 07       		.byte	0x7
 1959 0da4 00       		.byte	0
 1960 0da5 15       		.uleb128 0x15
 1961 0da6 580B0000 		.4byte	0xb58
 1962 0daa B50D0000 		.4byte	0xdb5
 1963 0dae 16       		.uleb128 0x16
 1964 0daf 2B020000 		.4byte	0x22b
 1965 0db3 17       		.byte	0x17
 1966 0db4 00       		.byte	0
 1967 0db5 0D       		.uleb128 0xd
 1968 0db6 F0       		.byte	0xf0
 1969 0db7 0D       		.byte	0xd
 1970 0db8 7002     		.2byte	0x270
 1971 0dba D90D0000 		.4byte	0xdd9
 1972 0dbe 0F       		.uleb128 0xf
 1973 0dbf 5E0A0000 		.4byte	.LASF247
 1974 0dc3 0D       		.byte	0xd
 1975 0dc4 7302     		.2byte	0x273
 1976 0dc6 D90D0000 		.4byte	0xdd9
 1977 0dca 00       		.byte	0
 1978 0dcb 0F       		.uleb128 0xf
 1979 0dcc 03060000 		.4byte	.LASF248
 1980 0dd0 0D       		.byte	0xd
 1981 0dd1 7402     		.2byte	0x274
 1982 0dd3 E90D0000 		.4byte	0xde9
 1983 0dd7 78       		.byte	0x78
 1984 0dd8 00       		.byte	0
 1985 0dd9 15       		.uleb128 0x15
 1986 0dda C7080000 		.4byte	0x8c7
 1987 0dde E90D0000 		.4byte	0xde9
 1988 0de2 16       		.uleb128 0x16
ARM GAS  /tmp/ccePJ8aS.s 			page 37


 1989 0de3 2B020000 		.4byte	0x22b
 1990 0de7 1D       		.byte	0x1d
 1991 0de8 00       		.byte	0
 1992 0de9 15       		.uleb128 0x15
 1993 0dea DE010000 		.4byte	0x1de
 1994 0dee F90D0000 		.4byte	0xdf9
 1995 0df2 16       		.uleb128 0x16
 1996 0df3 2B020000 		.4byte	0x22b
 1997 0df7 1D       		.byte	0x1d
 1998 0df8 00       		.byte	0
 1999 0df9 25       		.uleb128 0x25
 2000 0dfa F0       		.byte	0xf0
 2001 0dfb 0D       		.byte	0xd
 2002 0dfc 5502     		.2byte	0x255
 2003 0dfe 1B0E0000 		.4byte	0xe1b
 2004 0e02 26       		.uleb128 0x26
 2005 0e03 20030000 		.4byte	.LASF197
 2006 0e07 0D       		.byte	0xd
 2007 0e08 6C02     		.2byte	0x26c
 2008 0e0a 840C0000 		.4byte	0xc84
 2009 0e0e 26       		.uleb128 0x26
 2010 0e0f 86000000 		.4byte	.LASF249
 2011 0e13 0D       		.byte	0xd
 2012 0e14 7502     		.2byte	0x275
 2013 0e16 B50D0000 		.4byte	0xdb5
 2014 0e1a 00       		.byte	0
 2015 0e1b 15       		.uleb128 0x15
 2016 0e1c 580B0000 		.4byte	0xb58
 2017 0e20 2B0E0000 		.4byte	0xe2b
 2018 0e24 16       		.uleb128 0x16
 2019 0e25 2B020000 		.4byte	0x22b
 2020 0e29 18       		.byte	0x18
 2021 0e2a 00       		.byte	0
 2022 0e2b 27       		.uleb128 0x27
 2023 0e2c 360E0000 		.4byte	0xe36
 2024 0e30 20       		.uleb128 0x20
 2025 0e31 150A0000 		.4byte	0xa15
 2026 0e35 00       		.byte	0
 2027 0e36 14       		.uleb128 0x14
 2028 0e37 04       		.byte	0x4
 2029 0e38 2B0E0000 		.4byte	0xe2b
 2030 0e3c 14       		.uleb128 0x14
 2031 0e3d 04       		.byte	0x4
 2032 0e3e 6F070000 		.4byte	0x76f
 2033 0e42 27       		.uleb128 0x27
 2034 0e43 4D0E0000 		.4byte	0xe4d
 2035 0e47 20       		.uleb128 0x20
 2036 0e48 D7010000 		.4byte	0x1d7
 2037 0e4c 00       		.byte	0
 2038 0e4d 14       		.uleb128 0x14
 2039 0e4e 04       		.byte	0x4
 2040 0e4f 530E0000 		.4byte	0xe53
 2041 0e53 14       		.uleb128 0x14
 2042 0e54 04       		.byte	0x4
 2043 0e55 420E0000 		.4byte	0xe42
 2044 0e59 15       		.uleb128 0x15
 2045 0e5a F20B0000 		.4byte	0xbf2
ARM GAS  /tmp/ccePJ8aS.s 			page 38


 2046 0e5e 690E0000 		.4byte	0xe69
 2047 0e62 16       		.uleb128 0x16
 2048 0e63 2B020000 		.4byte	0x22b
 2049 0e67 02       		.byte	0x2
 2050 0e68 00       		.byte	0
 2051 0e69 09       		.uleb128 0x9
 2052 0e6a B4010000 		.4byte	.LASF250
 2053 0e6e 0D       		.byte	0xd
 2054 0e6f FD02     		.2byte	0x2fd
 2055 0e71 150A0000 		.4byte	0xa15
 2056 0e75 09       		.uleb128 0x9
 2057 0e76 27030000 		.4byte	.LASF251
 2058 0e7a 0D       		.byte	0xd
 2059 0e7b FE02     		.2byte	0x2fe
 2060 0e7d 1B0A0000 		.4byte	0xa1b
 2061 0e81 05       		.uleb128 0x5
 2062 0e82 08       		.byte	0x8
 2063 0e83 04       		.byte	0x4
 2064 0e84 0C060000 		.4byte	.LASF252
 2065 0e88 28       		.uleb128 0x28
 2066 0e89 68080000 		.4byte	.LASF254
 2067 0e8d 01       		.byte	0x1
 2068 0e8e 68010000 		.4byte	0x168
 2069 0e92 0E       		.byte	0xe
 2070 0e93 9902     		.2byte	0x299
 2071 0e95 B20E0000 		.4byte	0xeb2
 2072 0e99 03       		.uleb128 0x3
 2073 0e9a 490A0000 		.4byte	.LASF255
 2074 0e9e 7F       		.sleb128 -1
 2075 0e9f 04       		.uleb128 0x4
 2076 0ea0 AE050000 		.4byte	.LASF256
 2077 0ea4 00       		.byte	0
 2078 0ea5 04       		.uleb128 0x4
 2079 0ea6 B3090000 		.4byte	.LASF257
 2080 0eaa 01       		.byte	0x1
 2081 0eab 04       		.uleb128 0x4
 2082 0eac 71090000 		.4byte	.LASF258
 2083 0eb0 02       		.byte	0x2
 2084 0eb1 00       		.byte	0
 2085 0eb2 09       		.uleb128 0x9
 2086 0eb3 9E040000 		.4byte	.LASF259
 2087 0eb7 0E       		.byte	0xe
 2088 0eb8 A402     		.2byte	0x2a4
 2089 0eba 880E0000 		.4byte	0xe88
 2090 0ebe 29       		.uleb128 0x29
 2091 0ebf 29000000 		.4byte	.LASF260
 2092 0ec3 01       		.byte	0x1
 2093 0ec4 34       		.byte	0x34
 2094 0ec5 2C010000 		.4byte	.LFB66
 2095 0ec9 30000000 		.4byte	.LFE66-.LFB66
 2096 0ecd 01       		.uleb128 0x1
 2097 0ece 9C       		.byte	0x9c
 2098 0ecf E20E0000 		.4byte	0xee2
 2099 0ed3 2A       		.uleb128 0x2a
 2100 0ed4 20010000 		.4byte	.LASF262
 2101 0ed8 01       		.byte	0x1
 2102 0ed9 36       		.byte	0x36
ARM GAS  /tmp/ccePJ8aS.s 			page 39


 2103 0eda E0050000 		.4byte	0x5e0
 2104 0ede 02       		.uleb128 0x2
 2105 0edf 91       		.byte	0x91
 2106 0ee0 74       		.sleb128 -12
 2107 0ee1 00       		.byte	0
 2108 0ee2 29       		.uleb128 0x29
 2109 0ee3 C0010000 		.4byte	.LASF261
 2110 0ee7 01       		.byte	0x1
 2111 0ee8 17       		.byte	0x17
 2112 0ee9 C4000000 		.4byte	.LFB65
 2113 0eed 68000000 		.4byte	.LFE65-.LFB65
 2114 0ef1 01       		.uleb128 0x1
 2115 0ef2 9C       		.byte	0x9c
 2116 0ef3 060F0000 		.4byte	0xf06
 2117 0ef7 2A       		.uleb128 0x2a
 2118 0ef8 82080000 		.4byte	.LASF263
 2119 0efc 01       		.byte	0x1
 2120 0efd 19       		.byte	0x19
 2121 0efe 9C050000 		.4byte	0x59c
 2122 0f02 02       		.uleb128 0x2
 2123 0f03 91       		.byte	0x91
 2124 0f04 74       		.sleb128 -12
 2125 0f05 00       		.byte	0
 2126 0f06 2B       		.uleb128 0x2b
 2127 0f07 1F070000 		.4byte	.LASF264
 2128 0f0b 01       		.byte	0x1
 2129 0f0c 04       		.byte	0x4
 2130 0f0d D7010000 		.4byte	0x1d7
 2131 0f11 00000000 		.4byte	.LFB64
 2132 0f15 C4000000 		.4byte	.LFE64-.LFB64
 2133 0f19 01       		.uleb128 0x1
 2134 0f1a 9C       		.byte	0x9c
 2135 0f1b 2A       		.uleb128 0x2a
 2136 0f1c DC070000 		.4byte	.LASF265
 2137 0f20 01       		.byte	0x1
 2138 0f21 06       		.byte	0x6
 2139 0f22 D7010000 		.4byte	0x1d7
 2140 0f26 02       		.uleb128 0x2
 2141 0f27 91       		.byte	0x91
 2142 0f28 6C       		.sleb128 -20
 2143 0f29 00       		.byte	0
 2144 0f2a 00       		.byte	0
 2145              		.section	.debug_abbrev,"",%progbits
 2146              	.Ldebug_abbrev0:
 2147 0000 01       		.uleb128 0x1
 2148 0001 11       		.uleb128 0x11
 2149 0002 01       		.byte	0x1
 2150 0003 25       		.uleb128 0x25
 2151 0004 0E       		.uleb128 0xe
 2152 0005 13       		.uleb128 0x13
 2153 0006 0B       		.uleb128 0xb
 2154 0007 03       		.uleb128 0x3
 2155 0008 0E       		.uleb128 0xe
 2156 0009 1B       		.uleb128 0x1b
 2157 000a 0E       		.uleb128 0xe
 2158 000b 11       		.uleb128 0x11
 2159 000c 01       		.uleb128 0x1
ARM GAS  /tmp/ccePJ8aS.s 			page 40


 2160 000d 12       		.uleb128 0x12
 2161 000e 06       		.uleb128 0x6
 2162 000f 10       		.uleb128 0x10
 2163 0010 17       		.uleb128 0x17
 2164 0011 00       		.byte	0
 2165 0012 00       		.byte	0
 2166 0013 02       		.uleb128 0x2
 2167 0014 04       		.uleb128 0x4
 2168 0015 01       		.byte	0x1
 2169 0016 03       		.uleb128 0x3
 2170 0017 0E       		.uleb128 0xe
 2171 0018 0B       		.uleb128 0xb
 2172 0019 0B       		.uleb128 0xb
 2173 001a 49       		.uleb128 0x49
 2174 001b 13       		.uleb128 0x13
 2175 001c 3A       		.uleb128 0x3a
 2176 001d 0B       		.uleb128 0xb
 2177 001e 3B       		.uleb128 0x3b
 2178 001f 0B       		.uleb128 0xb
 2179 0020 01       		.uleb128 0x1
 2180 0021 13       		.uleb128 0x13
 2181 0022 00       		.byte	0
 2182 0023 00       		.byte	0
 2183 0024 03       		.uleb128 0x3
 2184 0025 28       		.uleb128 0x28
 2185 0026 00       		.byte	0
 2186 0027 03       		.uleb128 0x3
 2187 0028 0E       		.uleb128 0xe
 2188 0029 1C       		.uleb128 0x1c
 2189 002a 0D       		.uleb128 0xd
 2190 002b 00       		.byte	0
 2191 002c 00       		.byte	0
 2192 002d 04       		.uleb128 0x4
 2193 002e 28       		.uleb128 0x28
 2194 002f 00       		.byte	0
 2195 0030 03       		.uleb128 0x3
 2196 0031 0E       		.uleb128 0xe
 2197 0032 1C       		.uleb128 0x1c
 2198 0033 0B       		.uleb128 0xb
 2199 0034 00       		.byte	0
 2200 0035 00       		.byte	0
 2201 0036 05       		.uleb128 0x5
 2202 0037 24       		.uleb128 0x24
 2203 0038 00       		.byte	0
 2204 0039 0B       		.uleb128 0xb
 2205 003a 0B       		.uleb128 0xb
 2206 003b 3E       		.uleb128 0x3e
 2207 003c 0B       		.uleb128 0xb
 2208 003d 03       		.uleb128 0x3
 2209 003e 0E       		.uleb128 0xe
 2210 003f 00       		.byte	0
 2211 0040 00       		.byte	0
 2212 0041 06       		.uleb128 0x6
 2213 0042 16       		.uleb128 0x16
 2214 0043 00       		.byte	0
 2215 0044 03       		.uleb128 0x3
 2216 0045 0E       		.uleb128 0xe
ARM GAS  /tmp/ccePJ8aS.s 			page 41


 2217 0046 3A       		.uleb128 0x3a
 2218 0047 0B       		.uleb128 0xb
 2219 0048 3B       		.uleb128 0x3b
 2220 0049 0B       		.uleb128 0xb
 2221 004a 49       		.uleb128 0x49
 2222 004b 13       		.uleb128 0x13
 2223 004c 00       		.byte	0
 2224 004d 00       		.byte	0
 2225 004e 07       		.uleb128 0x7
 2226 004f 24       		.uleb128 0x24
 2227 0050 00       		.byte	0
 2228 0051 0B       		.uleb128 0xb
 2229 0052 0B       		.uleb128 0xb
 2230 0053 3E       		.uleb128 0x3e
 2231 0054 0B       		.uleb128 0xb
 2232 0055 03       		.uleb128 0x3
 2233 0056 08       		.uleb128 0x8
 2234 0057 00       		.byte	0
 2235 0058 00       		.byte	0
 2236 0059 08       		.uleb128 0x8
 2237 005a 35       		.uleb128 0x35
 2238 005b 00       		.byte	0
 2239 005c 49       		.uleb128 0x49
 2240 005d 13       		.uleb128 0x13
 2241 005e 00       		.byte	0
 2242 005f 00       		.byte	0
 2243 0060 09       		.uleb128 0x9
 2244 0061 34       		.uleb128 0x34
 2245 0062 00       		.byte	0
 2246 0063 03       		.uleb128 0x3
 2247 0064 0E       		.uleb128 0xe
 2248 0065 3A       		.uleb128 0x3a
 2249 0066 0B       		.uleb128 0xb
 2250 0067 3B       		.uleb128 0x3b
 2251 0068 05       		.uleb128 0x5
 2252 0069 49       		.uleb128 0x49
 2253 006a 13       		.uleb128 0x13
 2254 006b 3F       		.uleb128 0x3f
 2255 006c 19       		.uleb128 0x19
 2256 006d 3C       		.uleb128 0x3c
 2257 006e 19       		.uleb128 0x19
 2258 006f 00       		.byte	0
 2259 0070 00       		.byte	0
 2260 0071 0A       		.uleb128 0xa
 2261 0072 34       		.uleb128 0x34
 2262 0073 00       		.byte	0
 2263 0074 03       		.uleb128 0x3
 2264 0075 0E       		.uleb128 0xe
 2265 0076 3A       		.uleb128 0x3a
 2266 0077 0B       		.uleb128 0xb
 2267 0078 3B       		.uleb128 0x3b
 2268 0079 0B       		.uleb128 0xb
 2269 007a 49       		.uleb128 0x49
 2270 007b 13       		.uleb128 0x13
 2271 007c 3F       		.uleb128 0x3f
 2272 007d 19       		.uleb128 0x19
 2273 007e 3C       		.uleb128 0x3c
ARM GAS  /tmp/ccePJ8aS.s 			page 42


 2274 007f 19       		.uleb128 0x19
 2275 0080 00       		.byte	0
 2276 0081 00       		.byte	0
 2277 0082 0B       		.uleb128 0xb
 2278 0083 04       		.uleb128 0x4
 2279 0084 01       		.byte	0x1
 2280 0085 0B       		.uleb128 0xb
 2281 0086 0B       		.uleb128 0xb
 2282 0087 49       		.uleb128 0x49
 2283 0088 13       		.uleb128 0x13
 2284 0089 3A       		.uleb128 0x3a
 2285 008a 0B       		.uleb128 0xb
 2286 008b 3B       		.uleb128 0x3b
 2287 008c 05       		.uleb128 0x5
 2288 008d 01       		.uleb128 0x1
 2289 008e 13       		.uleb128 0x13
 2290 008f 00       		.byte	0
 2291 0090 00       		.byte	0
 2292 0091 0C       		.uleb128 0xc
 2293 0092 16       		.uleb128 0x16
 2294 0093 00       		.byte	0
 2295 0094 03       		.uleb128 0x3
 2296 0095 0E       		.uleb128 0xe
 2297 0096 3A       		.uleb128 0x3a
 2298 0097 0B       		.uleb128 0xb
 2299 0098 3B       		.uleb128 0x3b
 2300 0099 05       		.uleb128 0x5
 2301 009a 49       		.uleb128 0x49
 2302 009b 13       		.uleb128 0x13
 2303 009c 00       		.byte	0
 2304 009d 00       		.byte	0
 2305 009e 0D       		.uleb128 0xd
 2306 009f 13       		.uleb128 0x13
 2307 00a0 01       		.byte	0x1
 2308 00a1 0B       		.uleb128 0xb
 2309 00a2 0B       		.uleb128 0xb
 2310 00a3 3A       		.uleb128 0x3a
 2311 00a4 0B       		.uleb128 0xb
 2312 00a5 3B       		.uleb128 0x3b
 2313 00a6 05       		.uleb128 0x5
 2314 00a7 01       		.uleb128 0x1
 2315 00a8 13       		.uleb128 0x13
 2316 00a9 00       		.byte	0
 2317 00aa 00       		.byte	0
 2318 00ab 0E       		.uleb128 0xe
 2319 00ac 0D       		.uleb128 0xd
 2320 00ad 00       		.byte	0
 2321 00ae 03       		.uleb128 0x3
 2322 00af 08       		.uleb128 0x8
 2323 00b0 3A       		.uleb128 0x3a
 2324 00b1 0B       		.uleb128 0xb
 2325 00b2 3B       		.uleb128 0x3b
 2326 00b3 05       		.uleb128 0x5
 2327 00b4 49       		.uleb128 0x49
 2328 00b5 13       		.uleb128 0x13
 2329 00b6 38       		.uleb128 0x38
 2330 00b7 0B       		.uleb128 0xb
ARM GAS  /tmp/ccePJ8aS.s 			page 43


 2331 00b8 00       		.byte	0
 2332 00b9 00       		.byte	0
 2333 00ba 0F       		.uleb128 0xf
 2334 00bb 0D       		.uleb128 0xd
 2335 00bc 00       		.byte	0
 2336 00bd 03       		.uleb128 0x3
 2337 00be 0E       		.uleb128 0xe
 2338 00bf 3A       		.uleb128 0x3a
 2339 00c0 0B       		.uleb128 0xb
 2340 00c1 3B       		.uleb128 0x3b
 2341 00c2 05       		.uleb128 0x5
 2342 00c3 49       		.uleb128 0x49
 2343 00c4 13       		.uleb128 0x13
 2344 00c5 38       		.uleb128 0x38
 2345 00c6 0B       		.uleb128 0xb
 2346 00c7 00       		.byte	0
 2347 00c8 00       		.byte	0
 2348 00c9 10       		.uleb128 0x10
 2349 00ca 04       		.uleb128 0x4
 2350 00cb 01       		.byte	0x1
 2351 00cc 0B       		.uleb128 0xb
 2352 00cd 0B       		.uleb128 0xb
 2353 00ce 49       		.uleb128 0x49
 2354 00cf 13       		.uleb128 0x13
 2355 00d0 3A       		.uleb128 0x3a
 2356 00d1 0B       		.uleb128 0xb
 2357 00d2 3B       		.uleb128 0x3b
 2358 00d3 0B       		.uleb128 0xb
 2359 00d4 01       		.uleb128 0x1
 2360 00d5 13       		.uleb128 0x13
 2361 00d6 00       		.byte	0
 2362 00d7 00       		.byte	0
 2363 00d8 11       		.uleb128 0x11
 2364 00d9 13       		.uleb128 0x13
 2365 00da 01       		.byte	0x1
 2366 00db 0B       		.uleb128 0xb
 2367 00dc 0B       		.uleb128 0xb
 2368 00dd 3A       		.uleb128 0x3a
 2369 00de 0B       		.uleb128 0xb
 2370 00df 3B       		.uleb128 0x3b
 2371 00e0 0B       		.uleb128 0xb
 2372 00e1 01       		.uleb128 0x1
 2373 00e2 13       		.uleb128 0x13
 2374 00e3 00       		.byte	0
 2375 00e4 00       		.byte	0
 2376 00e5 12       		.uleb128 0x12
 2377 00e6 0D       		.uleb128 0xd
 2378 00e7 00       		.byte	0
 2379 00e8 03       		.uleb128 0x3
 2380 00e9 0E       		.uleb128 0xe
 2381 00ea 3A       		.uleb128 0x3a
 2382 00eb 0B       		.uleb128 0xb
 2383 00ec 3B       		.uleb128 0x3b
 2384 00ed 0B       		.uleb128 0xb
 2385 00ee 49       		.uleb128 0x49
 2386 00ef 13       		.uleb128 0x13
 2387 00f0 38       		.uleb128 0x38
ARM GAS  /tmp/ccePJ8aS.s 			page 44


 2388 00f1 0B       		.uleb128 0xb
 2389 00f2 00       		.byte	0
 2390 00f3 00       		.byte	0
 2391 00f4 13       		.uleb128 0x13
 2392 00f5 15       		.uleb128 0x15
 2393 00f6 00       		.byte	0
 2394 00f7 27       		.uleb128 0x27
 2395 00f8 19       		.uleb128 0x19
 2396 00f9 00       		.byte	0
 2397 00fa 00       		.byte	0
 2398 00fb 14       		.uleb128 0x14
 2399 00fc 0F       		.uleb128 0xf
 2400 00fd 00       		.byte	0
 2401 00fe 0B       		.uleb128 0xb
 2402 00ff 0B       		.uleb128 0xb
 2403 0100 49       		.uleb128 0x49
 2404 0101 13       		.uleb128 0x13
 2405 0102 00       		.byte	0
 2406 0103 00       		.byte	0
 2407 0104 15       		.uleb128 0x15
 2408 0105 01       		.uleb128 0x1
 2409 0106 01       		.byte	0x1
 2410 0107 49       		.uleb128 0x49
 2411 0108 13       		.uleb128 0x13
 2412 0109 01       		.uleb128 0x1
 2413 010a 13       		.uleb128 0x13
 2414 010b 00       		.byte	0
 2415 010c 00       		.byte	0
 2416 010d 16       		.uleb128 0x16
 2417 010e 21       		.uleb128 0x21
 2418 010f 00       		.byte	0
 2419 0110 49       		.uleb128 0x49
 2420 0111 13       		.uleb128 0x13
 2421 0112 2F       		.uleb128 0x2f
 2422 0113 0B       		.uleb128 0xb
 2423 0114 00       		.byte	0
 2424 0115 00       		.byte	0
 2425 0116 17       		.uleb128 0x17
 2426 0117 34       		.uleb128 0x34
 2427 0118 00       		.byte	0
 2428 0119 03       		.uleb128 0x3
 2429 011a 08       		.uleb128 0x8
 2430 011b 3A       		.uleb128 0x3a
 2431 011c 0B       		.uleb128 0xb
 2432 011d 3B       		.uleb128 0x3b
 2433 011e 05       		.uleb128 0x5
 2434 011f 49       		.uleb128 0x49
 2435 0120 13       		.uleb128 0x13
 2436 0121 3F       		.uleb128 0x3f
 2437 0122 19       		.uleb128 0x19
 2438 0123 3C       		.uleb128 0x3c
 2439 0124 19       		.uleb128 0x19
 2440 0125 00       		.byte	0
 2441 0126 00       		.byte	0
 2442 0127 18       		.uleb128 0x18
 2443 0128 0F       		.uleb128 0xf
 2444 0129 00       		.byte	0
ARM GAS  /tmp/ccePJ8aS.s 			page 45


 2445 012a 0B       		.uleb128 0xb
 2446 012b 0B       		.uleb128 0xb
 2447 012c 00       		.byte	0
 2448 012d 00       		.byte	0
 2449 012e 19       		.uleb128 0x19
 2450 012f 17       		.uleb128 0x17
 2451 0130 01       		.byte	0x1
 2452 0131 0B       		.uleb128 0xb
 2453 0132 0B       		.uleb128 0xb
 2454 0133 3A       		.uleb128 0x3a
 2455 0134 0B       		.uleb128 0xb
 2456 0135 3B       		.uleb128 0x3b
 2457 0136 0B       		.uleb128 0xb
 2458 0137 01       		.uleb128 0x1
 2459 0138 13       		.uleb128 0x13
 2460 0139 00       		.byte	0
 2461 013a 00       		.byte	0
 2462 013b 1A       		.uleb128 0x1a
 2463 013c 0D       		.uleb128 0xd
 2464 013d 00       		.byte	0
 2465 013e 03       		.uleb128 0x3
 2466 013f 0E       		.uleb128 0xe
 2467 0140 3A       		.uleb128 0x3a
 2468 0141 0B       		.uleb128 0xb
 2469 0142 3B       		.uleb128 0x3b
 2470 0143 0B       		.uleb128 0xb
 2471 0144 49       		.uleb128 0x49
 2472 0145 13       		.uleb128 0x13
 2473 0146 00       		.byte	0
 2474 0147 00       		.byte	0
 2475 0148 1B       		.uleb128 0x1b
 2476 0149 13       		.uleb128 0x13
 2477 014a 01       		.byte	0x1
 2478 014b 03       		.uleb128 0x3
 2479 014c 0E       		.uleb128 0xe
 2480 014d 0B       		.uleb128 0xb
 2481 014e 0B       		.uleb128 0xb
 2482 014f 3A       		.uleb128 0x3a
 2483 0150 0B       		.uleb128 0xb
 2484 0151 3B       		.uleb128 0x3b
 2485 0152 0B       		.uleb128 0xb
 2486 0153 01       		.uleb128 0x1
 2487 0154 13       		.uleb128 0x13
 2488 0155 00       		.byte	0
 2489 0156 00       		.byte	0
 2490 0157 1C       		.uleb128 0x1c
 2491 0158 0D       		.uleb128 0xd
 2492 0159 00       		.byte	0
 2493 015a 03       		.uleb128 0x3
 2494 015b 08       		.uleb128 0x8
 2495 015c 3A       		.uleb128 0x3a
 2496 015d 0B       		.uleb128 0xb
 2497 015e 3B       		.uleb128 0x3b
 2498 015f 0B       		.uleb128 0xb
 2499 0160 49       		.uleb128 0x49
 2500 0161 13       		.uleb128 0x13
 2501 0162 38       		.uleb128 0x38
ARM GAS  /tmp/ccePJ8aS.s 			page 46


 2502 0163 0B       		.uleb128 0xb
 2503 0164 00       		.byte	0
 2504 0165 00       		.byte	0
 2505 0166 1D       		.uleb128 0x1d
 2506 0167 13       		.uleb128 0x13
 2507 0168 01       		.byte	0x1
 2508 0169 03       		.uleb128 0x3
 2509 016a 0E       		.uleb128 0xe
 2510 016b 0B       		.uleb128 0xb
 2511 016c 05       		.uleb128 0x5
 2512 016d 3A       		.uleb128 0x3a
 2513 016e 0B       		.uleb128 0xb
 2514 016f 3B       		.uleb128 0x3b
 2515 0170 0B       		.uleb128 0xb
 2516 0171 01       		.uleb128 0x1
 2517 0172 13       		.uleb128 0x13
 2518 0173 00       		.byte	0
 2519 0174 00       		.byte	0
 2520 0175 1E       		.uleb128 0x1e
 2521 0176 0D       		.uleb128 0xd
 2522 0177 00       		.byte	0
 2523 0178 03       		.uleb128 0x3
 2524 0179 0E       		.uleb128 0xe
 2525 017a 3A       		.uleb128 0x3a
 2526 017b 0B       		.uleb128 0xb
 2527 017c 3B       		.uleb128 0x3b
 2528 017d 0B       		.uleb128 0xb
 2529 017e 49       		.uleb128 0x49
 2530 017f 13       		.uleb128 0x13
 2531 0180 38       		.uleb128 0x38
 2532 0181 05       		.uleb128 0x5
 2533 0182 00       		.byte	0
 2534 0183 00       		.byte	0
 2535 0184 1F       		.uleb128 0x1f
 2536 0185 15       		.uleb128 0x15
 2537 0186 01       		.byte	0x1
 2538 0187 27       		.uleb128 0x27
 2539 0188 19       		.uleb128 0x19
 2540 0189 49       		.uleb128 0x49
 2541 018a 13       		.uleb128 0x13
 2542 018b 01       		.uleb128 0x1
 2543 018c 13       		.uleb128 0x13
 2544 018d 00       		.byte	0
 2545 018e 00       		.byte	0
 2546 018f 20       		.uleb128 0x20
 2547 0190 05       		.uleb128 0x5
 2548 0191 00       		.byte	0
 2549 0192 49       		.uleb128 0x49
 2550 0193 13       		.uleb128 0x13
 2551 0194 00       		.byte	0
 2552 0195 00       		.byte	0
 2553 0196 21       		.uleb128 0x21
 2554 0197 26       		.uleb128 0x26
 2555 0198 00       		.byte	0
 2556 0199 49       		.uleb128 0x49
 2557 019a 13       		.uleb128 0x13
 2558 019b 00       		.byte	0
ARM GAS  /tmp/ccePJ8aS.s 			page 47


 2559 019c 00       		.byte	0
 2560 019d 22       		.uleb128 0x22
 2561 019e 13       		.uleb128 0x13
 2562 019f 01       		.byte	0x1
 2563 01a0 03       		.uleb128 0x3
 2564 01a1 0E       		.uleb128 0xe
 2565 01a2 0B       		.uleb128 0xb
 2566 01a3 05       		.uleb128 0x5
 2567 01a4 3A       		.uleb128 0x3a
 2568 01a5 0B       		.uleb128 0xb
 2569 01a6 3B       		.uleb128 0x3b
 2570 01a7 05       		.uleb128 0x5
 2571 01a8 01       		.uleb128 0x1
 2572 01a9 13       		.uleb128 0x13
 2573 01aa 00       		.byte	0
 2574 01ab 00       		.byte	0
 2575 01ac 23       		.uleb128 0x23
 2576 01ad 0D       		.uleb128 0xd
 2577 01ae 00       		.byte	0
 2578 01af 03       		.uleb128 0x3
 2579 01b0 0E       		.uleb128 0xe
 2580 01b1 3A       		.uleb128 0x3a
 2581 01b2 0B       		.uleb128 0xb
 2582 01b3 3B       		.uleb128 0x3b
 2583 01b4 05       		.uleb128 0x5
 2584 01b5 49       		.uleb128 0x49
 2585 01b6 13       		.uleb128 0x13
 2586 01b7 38       		.uleb128 0x38
 2587 01b8 05       		.uleb128 0x5
 2588 01b9 00       		.byte	0
 2589 01ba 00       		.byte	0
 2590 01bb 24       		.uleb128 0x24
 2591 01bc 13       		.uleb128 0x13
 2592 01bd 01       		.byte	0x1
 2593 01be 03       		.uleb128 0x3
 2594 01bf 0E       		.uleb128 0xe
 2595 01c0 0B       		.uleb128 0xb
 2596 01c1 0B       		.uleb128 0xb
 2597 01c2 3A       		.uleb128 0x3a
 2598 01c3 0B       		.uleb128 0xb
 2599 01c4 3B       		.uleb128 0x3b
 2600 01c5 05       		.uleb128 0x5
 2601 01c6 01       		.uleb128 0x1
 2602 01c7 13       		.uleb128 0x13
 2603 01c8 00       		.byte	0
 2604 01c9 00       		.byte	0
 2605 01ca 25       		.uleb128 0x25
 2606 01cb 17       		.uleb128 0x17
 2607 01cc 01       		.byte	0x1
 2608 01cd 0B       		.uleb128 0xb
 2609 01ce 0B       		.uleb128 0xb
 2610 01cf 3A       		.uleb128 0x3a
 2611 01d0 0B       		.uleb128 0xb
 2612 01d1 3B       		.uleb128 0x3b
 2613 01d2 05       		.uleb128 0x5
 2614 01d3 01       		.uleb128 0x1
 2615 01d4 13       		.uleb128 0x13
ARM GAS  /tmp/ccePJ8aS.s 			page 48


 2616 01d5 00       		.byte	0
 2617 01d6 00       		.byte	0
 2618 01d7 26       		.uleb128 0x26
 2619 01d8 0D       		.uleb128 0xd
 2620 01d9 00       		.byte	0
 2621 01da 03       		.uleb128 0x3
 2622 01db 0E       		.uleb128 0xe
 2623 01dc 3A       		.uleb128 0x3a
 2624 01dd 0B       		.uleb128 0xb
 2625 01de 3B       		.uleb128 0x3b
 2626 01df 05       		.uleb128 0x5
 2627 01e0 49       		.uleb128 0x49
 2628 01e1 13       		.uleb128 0x13
 2629 01e2 00       		.byte	0
 2630 01e3 00       		.byte	0
 2631 01e4 27       		.uleb128 0x27
 2632 01e5 15       		.uleb128 0x15
 2633 01e6 01       		.byte	0x1
 2634 01e7 27       		.uleb128 0x27
 2635 01e8 19       		.uleb128 0x19
 2636 01e9 01       		.uleb128 0x1
 2637 01ea 13       		.uleb128 0x13
 2638 01eb 00       		.byte	0
 2639 01ec 00       		.byte	0
 2640 01ed 28       		.uleb128 0x28
 2641 01ee 04       		.uleb128 0x4
 2642 01ef 01       		.byte	0x1
 2643 01f0 03       		.uleb128 0x3
 2644 01f1 0E       		.uleb128 0xe
 2645 01f2 0B       		.uleb128 0xb
 2646 01f3 0B       		.uleb128 0xb
 2647 01f4 49       		.uleb128 0x49
 2648 01f5 13       		.uleb128 0x13
 2649 01f6 3A       		.uleb128 0x3a
 2650 01f7 0B       		.uleb128 0xb
 2651 01f8 3B       		.uleb128 0x3b
 2652 01f9 05       		.uleb128 0x5
 2653 01fa 01       		.uleb128 0x1
 2654 01fb 13       		.uleb128 0x13
 2655 01fc 00       		.byte	0
 2656 01fd 00       		.byte	0
 2657 01fe 29       		.uleb128 0x29
 2658 01ff 2E       		.uleb128 0x2e
 2659 0200 01       		.byte	0x1
 2660 0201 3F       		.uleb128 0x3f
 2661 0202 19       		.uleb128 0x19
 2662 0203 03       		.uleb128 0x3
 2663 0204 0E       		.uleb128 0xe
 2664 0205 3A       		.uleb128 0x3a
 2665 0206 0B       		.uleb128 0xb
 2666 0207 3B       		.uleb128 0x3b
 2667 0208 0B       		.uleb128 0xb
 2668 0209 27       		.uleb128 0x27
 2669 020a 19       		.uleb128 0x19
 2670 020b 11       		.uleb128 0x11
 2671 020c 01       		.uleb128 0x1
 2672 020d 12       		.uleb128 0x12
ARM GAS  /tmp/ccePJ8aS.s 			page 49


 2673 020e 06       		.uleb128 0x6
 2674 020f 40       		.uleb128 0x40
 2675 0210 18       		.uleb128 0x18
 2676 0211 9642     		.uleb128 0x2116
 2677 0213 19       		.uleb128 0x19
 2678 0214 01       		.uleb128 0x1
 2679 0215 13       		.uleb128 0x13
 2680 0216 00       		.byte	0
 2681 0217 00       		.byte	0
 2682 0218 2A       		.uleb128 0x2a
 2683 0219 34       		.uleb128 0x34
 2684 021a 00       		.byte	0
 2685 021b 03       		.uleb128 0x3
 2686 021c 0E       		.uleb128 0xe
 2687 021d 3A       		.uleb128 0x3a
 2688 021e 0B       		.uleb128 0xb
 2689 021f 3B       		.uleb128 0x3b
 2690 0220 0B       		.uleb128 0xb
 2691 0221 49       		.uleb128 0x49
 2692 0222 13       		.uleb128 0x13
 2693 0223 02       		.uleb128 0x2
 2694 0224 18       		.uleb128 0x18
 2695 0225 00       		.byte	0
 2696 0226 00       		.byte	0
 2697 0227 2B       		.uleb128 0x2b
 2698 0228 2E       		.uleb128 0x2e
 2699 0229 01       		.byte	0x1
 2700 022a 3F       		.uleb128 0x3f
 2701 022b 19       		.uleb128 0x19
 2702 022c 03       		.uleb128 0x3
 2703 022d 0E       		.uleb128 0xe
 2704 022e 3A       		.uleb128 0x3a
 2705 022f 0B       		.uleb128 0xb
 2706 0230 3B       		.uleb128 0x3b
 2707 0231 0B       		.uleb128 0xb
 2708 0232 27       		.uleb128 0x27
 2709 0233 19       		.uleb128 0x19
 2710 0234 49       		.uleb128 0x49
 2711 0235 13       		.uleb128 0x13
 2712 0236 11       		.uleb128 0x11
 2713 0237 01       		.uleb128 0x1
 2714 0238 12       		.uleb128 0x12
 2715 0239 06       		.uleb128 0x6
 2716 023a 40       		.uleb128 0x40
 2717 023b 18       		.uleb128 0x18
 2718 023c 9642     		.uleb128 0x2116
 2719 023e 19       		.uleb128 0x19
 2720 023f 00       		.byte	0
 2721 0240 00       		.byte	0
 2722 0241 00       		.byte	0
 2723              		.section	.debug_aranges,"",%progbits
 2724 0000 1C000000 		.4byte	0x1c
 2725 0004 0200     		.2byte	0x2
 2726 0006 00000000 		.4byte	.Ldebug_info0
 2727 000a 04       		.byte	0x4
 2728 000b 00       		.byte	0
 2729 000c 0000     		.2byte	0
ARM GAS  /tmp/ccePJ8aS.s 			page 50


 2730 000e 0000     		.2byte	0
 2731 0010 00000000 		.4byte	.Ltext0
 2732 0014 5C010000 		.4byte	.Letext0-.Ltext0
 2733 0018 00000000 		.4byte	0
 2734 001c 00000000 		.4byte	0
 2735              		.section	.debug_line,"",%progbits
 2736              	.Ldebug_line0:
 2737 0000 5F020000 		.section	.debug_str,"MS",%progbits,1
 2737      02000F02 
 2737      00000201 
 2737      FB0E0D00 
 2737      01010101 
 2738              	.LASF16:
 2739 0000 45585449 		.ascii	"EXTI2_IRQn\000"
 2739      325F4952 
 2739      516E00
 2740              	.LASF118:
 2741 000b 4750494F 		.ascii	"GPIO_Mode_IPU\000"
 2741      5F4D6F64 
 2741      655F4950 
 2741      5500
 2742              	.LASF128:
 2743 0019 4E564943 		.ascii	"NVIC_IRQChannel\000"
 2743      5F495251 
 2743      4368616E 
 2743      6E656C00 
 2744              	.LASF260:
 2745 0029 4E564943 		.ascii	"NVIC_Conf\000"
 2745      5F436F6E 
 2745      6600
 2746              	.LASF70:
 2747 0033 73697A65 		.ascii	"sizetype\000"
 2747      74797065 
 2747      00
 2748              	.LASF150:
 2749 003c 5F5F7661 		.ascii	"__value\000"
 2749      6C756500 
 2750              	.LASF218:
 2751 0044 5F5F7366 		.ascii	"__sf\000"
 2751      00
 2752              	.LASF185:
 2753 0049 5F726561 		.ascii	"_read\000"
 2753      6400
 2754              	.LASF186:
 2755 004f 5F777269 		.ascii	"_write\000"
 2755      746500
 2756              	.LASF68:
 2757 0056 696E7433 		.ascii	"int32_t\000"
 2757      325F7400 
 2758              	.LASF230:
 2759 005e 5F617363 		.ascii	"_asctime_buf\000"
 2759      74696D65 
 2759      5F627566 
 2759      00
 2760              	.LASF212:
 2761 006b 5F637674 		.ascii	"_cvtlen\000"
 2761      6C656E00 
ARM GAS  /tmp/ccePJ8aS.s 			page 51


 2762              	.LASF23:
 2763 0073 444D4131 		.ascii	"DMA1_Channel5_IRQn\000"
 2763      5F436861 
 2763      6E6E656C 
 2763      355F4952 
 2763      516E00
 2764              	.LASF249:
 2765 0086 5F756E75 		.ascii	"_unused\000"
 2765      73656400 
 2766              	.LASF159:
 2767 008e 5F5F746D 		.ascii	"__tm\000"
 2767      00
 2768              	.LASF245:
 2769 0093 5F776373 		.ascii	"_wcsrtombs_state\000"
 2769      72746F6D 
 2769      62735F73 
 2769      74617465 
 2769      00
 2770              	.LASF190:
 2771 00a4 5F6E6275 		.ascii	"_nbuf\000"
 2771      6600
 2772              	.LASF160:
 2773 00aa 5F5F746D 		.ascii	"__tm_sec\000"
 2773      5F736563 
 2773      00
 2774              	.LASF238:
 2775 00b3 5F6C3634 		.ascii	"_l64a_buf\000"
 2775      615F6275 
 2775      6600
 2776              	.LASF12:
 2777 00bd 464C4153 		.ascii	"FLASH_IRQn\000"
 2777      485F4952 
 2777      516E00
 2778              	.LASF206:
 2779 00c8 5F5F7364 		.ascii	"__sdidinit\000"
 2779      6964696E 
 2779      697400
 2780              	.LASF194:
 2781 00d3 5F6C6F63 		.ascii	"_lock\000"
 2781      6B00
 2782              	.LASF268:
 2783 00d9 2F686F6D 		.ascii	"/home/enbin/Documents/code/STM/stm32-quadrocopter\000"
 2783      652F656E 
 2783      62696E2F 
 2783      446F6375 
 2783      6D656E74 
 2784              	.LASF226:
 2785 010b 5F6D756C 		.ascii	"_mult\000"
 2785      7400
 2786              	.LASF36:
 2787 0111 54494D32 		.ascii	"TIM2_IRQn\000"
 2787      5F495251 
 2787      6E00
 2788              	.LASF108:
 2789 011b 444D4152 		.ascii	"DMAR\000"
 2789      00
 2790              	.LASF262:
ARM GAS  /tmp/ccePJ8aS.s 			page 52


 2791 0120 4E564943 		.ascii	"NVIC_InitStructure\000"
 2791      5F496E69 
 2791      74537472 
 2791      75637475 
 2791      726500
 2792              	.LASF97:
 2793 0133 43435231 		.ascii	"CCR1\000"
 2793      00
 2794              	.LASF99:
 2795 0138 43435232 		.ascii	"CCR2\000"
 2795      00
 2796              	.LASF101:
 2797 013d 43435233 		.ascii	"CCR3\000"
 2797      00
 2798              	.LASF103:
 2799 0142 43435234 		.ascii	"CCR4\000"
 2799      00
 2800              	.LASF53:
 2801 0147 5F5F7569 		.ascii	"__uint8_t\000"
 2801      6E74385F 
 2801      7400
 2802              	.LASF44:
 2803 0151 53504932 		.ascii	"SPI2_IRQn\000"
 2803      5F495251 
 2803      6E00
 2804              	.LASF182:
 2805 015b 5F66696C 		.ascii	"_file\000"
 2805      6500
 2806              	.LASF169:
 2807 0161 5F6F6E5F 		.ascii	"_on_exit_args\000"
 2807      65786974 
 2807      5F617267 
 2807      7300
 2808              	.LASF125:
 2809 016f 4750494F 		.ascii	"GPIO_Speed\000"
 2809      5F537065 
 2809      656400
 2810              	.LASF131:
 2811 017a 4E564943 		.ascii	"NVIC_IRQChannelCmd\000"
 2811      5F495251 
 2811      4368616E 
 2811      6E656C43 
 2811      6D6400
 2812              	.LASF147:
 2813 018d 5F5F7763 		.ascii	"__wch\000"
 2813      6800
 2814              	.LASF137:
 2815 0193 477A5F6F 		.ascii	"Gz_offset\000"
 2815      66667365 
 2815      7400
 2816              	.LASF241:
 2817 019d 5F6D6272 		.ascii	"_mbrlen_state\000"
 2817      6C656E5F 
 2817      73746174 
 2817      6500
 2818              	.LASF59:
 2819 01ab 6C6F6E67 		.ascii	"long int\000"
ARM GAS  /tmp/ccePJ8aS.s 			page 53


 2819      20696E74 
 2819      00
 2820              	.LASF250:
 2821 01b4 5F696D70 		.ascii	"_impure_ptr\000"
 2821      7572655F 
 2821      70747200 
 2822              	.LASF261:
 2823 01c0 4750494F 		.ascii	"GPIO_Conf\000"
 2823      5F436F6E 
 2823      6600
 2824              	.LASF209:
 2825 01ca 5F726573 		.ascii	"_result_k\000"
 2825      756C745F 
 2825      6B00
 2826              	.LASF179:
 2827 01d4 5F73697A 		.ascii	"_size\000"
 2827      6500
 2828              	.LASF115:
 2829 01da 4750494F 		.ascii	"GPIO_Mode_AIN\000"
 2829      5F4D6F64 
 2829      655F4149 
 2829      4E00
 2830              	.LASF231:
 2831 01e8 5F6C6F63 		.ascii	"_localtime_buf\000"
 2831      616C7469 
 2831      6D655F62 
 2831      756600
 2832              	.LASF152:
 2833 01f7 5F666C6F 		.ascii	"_flock_t\000"
 2833      636B5F74 
 2833      00
 2834              	.LASF10:
 2835 0200 54414D50 		.ascii	"TAMPER_IRQn\000"
 2835      45525F49 
 2835      52516E00 
 2836              	.LASF253:
 2837 020c 4952516E 		.ascii	"IRQn\000"
 2837      00
 2838              	.LASF164:
 2839 0211 5F5F746D 		.ascii	"__tm_mon\000"
 2839      5F6D6F6E 
 2839      00
 2840              	.LASF121:
 2841 021a 4750494F 		.ascii	"GPIO_Mode_AF_OD\000"
 2841      5F4D6F64 
 2841      655F4146 
 2841      5F4F4400 
 2842              	.LASF7:
 2843 022a 53797354 		.ascii	"SysTick_IRQn\000"
 2843      69636B5F 
 2843      4952516E 
 2843      00
 2844              	.LASF204:
 2845 0237 5F637572 		.ascii	"_current_category\000"
 2845      72656E74 
 2845      5F636174 
 2845      65676F72 
ARM GAS  /tmp/ccePJ8aS.s 			page 54


 2845      7900
 2846              	.LASF47:
 2847 0249 55534152 		.ascii	"USART3_IRQn\000"
 2847      54335F49 
 2847      52516E00 
 2848              	.LASF228:
 2849 0255 5F756E75 		.ascii	"_unused_rand\000"
 2849      7365645F 
 2849      72616E64 
 2849      00
 2850              	.LASF51:
 2851 0262 7369676E 		.ascii	"signed char\000"
 2851      65642063 
 2851      68617200 
 2852              	.LASF65:
 2853 026e 75696E74 		.ascii	"uint8_t\000"
 2853      385F7400 
 2854              	.LASF127:
 2855 0276 4750494F 		.ascii	"GPIO_InitTypeDef\000"
 2855      5F496E69 
 2855      74547970 
 2855      65446566 
 2855      00
 2856              	.LASF200:
 2857 0287 5F737464 		.ascii	"_stdout\000"
 2857      6F757400 
 2858              	.LASF110:
 2859 028f 54494D5F 		.ascii	"TIM_TypeDef\000"
 2859      54797065 
 2859      44656600 
 2860              	.LASF79:
 2861 029b 52455345 		.ascii	"RESERVED0\000"
 2861      52564544 
 2861      3000
 2862              	.LASF80:
 2863 02a5 52455345 		.ascii	"RESERVED1\000"
 2863      52564544 
 2863      3100
 2864              	.LASF52:
 2865 02af 756E7369 		.ascii	"unsigned char\000"
 2865      676E6564 
 2865      20636861 
 2865      7200
 2866              	.LASF84:
 2867 02bd 52455345 		.ascii	"RESERVED3\000"
 2867      52564544 
 2867      3300
 2868              	.LASF85:
 2869 02c7 52455345 		.ascii	"RESERVED4\000"
 2869      52564544 
 2869      3400
 2870              	.LASF86:
 2871 02d1 52455345 		.ascii	"RESERVED5\000"
 2871      52564544 
 2871      3500
 2872              	.LASF88:
 2873 02db 52455345 		.ascii	"RESERVED6\000"
ARM GAS  /tmp/ccePJ8aS.s 			page 55


 2873      52564544 
 2873      3600
 2874              	.LASF90:
 2875 02e5 52455345 		.ascii	"RESERVED7\000"
 2875      52564544 
 2875      3700
 2876              	.LASF92:
 2877 02ef 52455345 		.ascii	"RESERVED8\000"
 2877      52564544 
 2877      3800
 2878              	.LASF93:
 2879 02f9 52455345 		.ascii	"RESERVED9\000"
 2879      52564544 
 2879      3900
 2880              	.LASF122:
 2881 0303 4750494F 		.ascii	"GPIO_Mode_AF_PP\000"
 2881      5F4D6F64 
 2881      655F4146 
 2881      5F505000 
 2882              	.LASF40:
 2883 0313 49324331 		.ascii	"I2C1_ER_IRQn\000"
 2883      5F45525F 
 2883      4952516E 
 2883      00
 2884              	.LASF197:
 2885 0320 5F726565 		.ascii	"_reent\000"
 2885      6E7400
 2886              	.LASF251:
 2887 0327 5F676C6F 		.ascii	"_global_impure_ptr\000"
 2887      62616C5F 
 2887      696D7075 
 2887      72655F70 
 2887      747200
 2888              	.LASF19:
 2889 033a 444D4131 		.ascii	"DMA1_Channel1_IRQn\000"
 2889      5F436861 
 2889      6E6E656C 
 2889      315F4952 
 2889      516E00
 2890              	.LASF32:
 2891 034d 54494D31 		.ascii	"TIM1_BRK_IRQn\000"
 2891      5F42524B 
 2891      5F495251 
 2891      6E00
 2892              	.LASF82:
 2893 035b 52455345 		.ascii	"RESERVED2\000"
 2893      52564544 
 2893      3200
 2894              	.LASF175:
 2895 0365 5F696E64 		.ascii	"_ind\000"
 2895      00
 2896              	.LASF3:
 2897 036a 55736167 		.ascii	"UsageFault_IRQn\000"
 2897      65466175 
 2897      6C745F49 
 2897      52516E00 
 2898              	.LASF87:
ARM GAS  /tmp/ccePJ8aS.s 			page 56


 2899 037a 43434D52 		.ascii	"CCMR1\000"
 2899      3100
 2900              	.LASF27:
 2901 0380 5553425F 		.ascii	"USB_HP_CAN1_TX_IRQn\000"
 2901      48505F43 
 2901      414E315F 
 2901      54585F49 
 2901      52516E00 
 2902              	.LASF219:
 2903 0394 63686172 		.ascii	"char\000"
 2903      00
 2904              	.LASF176:
 2905 0399 5F666E73 		.ascii	"_fns\000"
 2905      00
 2906              	.LASF133:
 2907 039e 6779726F 		.ascii	"gyro\000"
 2907      00
 2908              	.LASF188:
 2909 03a3 5F636C6F 		.ascii	"_close\000"
 2909      736500
 2910              	.LASF129:
 2911 03aa 4E564943 		.ascii	"NVIC_IRQChannelPreemptionPriority\000"
 2911      5F495251 
 2911      4368616E 
 2911      6E656C50 
 2911      7265656D 
 2912              	.LASF119:
 2913 03cc 4750494F 		.ascii	"GPIO_Mode_Out_OD\000"
 2913      5F4D6F64 
 2913      655F4F75 
 2913      745F4F44 
 2913      00
 2914              	.LASF56:
 2915 03dd 5F5F7569 		.ascii	"__uint16_t\000"
 2915      6E743136 
 2915      5F7400
 2916              	.LASF199:
 2917 03e8 5F737464 		.ascii	"_stdin\000"
 2917      696E00
 2918              	.LASF113:
 2919 03ef 4750494F 		.ascii	"GPIO_Speed_50MHz\000"
 2919      5F537065 
 2919      65645F35 
 2919      304D487A 
 2919      00
 2920              	.LASF173:
 2921 0400 5F69735F 		.ascii	"_is_cxa\000"
 2921      63786100 
 2922              	.LASF50:
 2923 0408 55534257 		.ascii	"USBWakeUp_IRQn\000"
 2923      616B6555 
 2923      705F4952 
 2923      516E00
 2924              	.LASF38:
 2925 0417 54494D34 		.ascii	"TIM4_IRQn\000"
 2925      5F495251 
 2925      6E00
ARM GAS  /tmp/ccePJ8aS.s 			page 57


 2926              	.LASF46:
 2927 0421 55534152 		.ascii	"USART2_IRQn\000"
 2927      54325F49 
 2927      52516E00 
 2928              	.LASF39:
 2929 042d 49324331 		.ascii	"I2C1_EV_IRQn\000"
 2929      5F45565F 
 2929      4952516E 
 2929      00
 2930              	.LASF184:
 2931 043a 5F636F6F 		.ascii	"_cookie\000"
 2931      6B696500 
 2932              	.LASF157:
 2933 0442 5F776473 		.ascii	"_wds\000"
 2933      00
 2934              	.LASF216:
 2935 0447 5F736967 		.ascii	"_sig_func\000"
 2935      5F66756E 
 2935      6300
 2936              	.LASF192:
 2937 0451 5F6F6666 		.ascii	"_offset\000"
 2937      73657400 
 2938              	.LASF213:
 2939 0459 5F637674 		.ascii	"_cvtbuf\000"
 2939      62756600 
 2940              	.LASF35:
 2941 0461 54494D31 		.ascii	"TIM1_CC_IRQn\000"
 2941      5F43435F 
 2941      4952516E 
 2941      00
 2942              	.LASF15:
 2943 046e 45585449 		.ascii	"EXTI1_IRQn\000"
 2943      315F4952 
 2943      516E00
 2944              	.LASF120:
 2945 0479 4750494F 		.ascii	"GPIO_Mode_Out_PP\000"
 2945      5F4D6F64 
 2945      655F4F75 
 2945      745F5050 
 2945      00
 2946              	.LASF0:
 2947 048a 4E6F6E4D 		.ascii	"NonMaskableInt_IRQn\000"
 2947      61736B61 
 2947      626C6549 
 2947      6E745F49 
 2947      52516E00 
 2948              	.LASF259:
 2949 049e 5F5F6664 		.ascii	"__fdlib_version\000"
 2949      6C69625F 
 2949      76657273 
 2949      696F6E00 
 2950              	.LASF8:
 2951 04ae 57574447 		.ascii	"WWDG_IRQn\000"
 2951      5F495251 
 2951      6E00
 2952              	.LASF210:
 2953 04b8 5F703573 		.ascii	"_p5s\000"
ARM GAS  /tmp/ccePJ8aS.s 			page 58


 2953      00
 2954              	.LASF61:
 2955 04bd 6C6F6E67 		.ascii	"long unsigned int\000"
 2955      20756E73 
 2955      69676E65 
 2955      6420696E 
 2955      7400
 2956              	.LASF1:
 2957 04cf 4D656D6F 		.ascii	"MemoryManagement_IRQn\000"
 2957      72794D61 
 2957      6E616765 
 2957      6D656E74 
 2957      5F495251 
 2958              	.LASF22:
 2959 04e5 444D4131 		.ascii	"DMA1_Channel4_IRQn\000"
 2959      5F436861 
 2959      6E6E656C 
 2959      345F4952 
 2959      516E00
 2960              	.LASF83:
 2961 04f8 44494552 		.ascii	"DIER\000"
 2961      00
 2962              	.LASF196:
 2963 04fd 5F666C61 		.ascii	"_flags2\000"
 2963      67733200 
 2964              	.LASF72:
 2965 0505 53797374 		.ascii	"SystemCoreClock\000"
 2965      656D436F 
 2965      7265436C 
 2965      6F636B00 
 2966              	.LASF30:
 2967 0515 43414E31 		.ascii	"CAN1_SCE_IRQn\000"
 2967      5F534345 
 2967      5F495251 
 2967      6E00
 2968              	.LASF143:
 2969 0523 5F4C4F43 		.ascii	"_LOCK_RECURSIVE_T\000"
 2969      4B5F5245 
 2969      43555253 
 2969      4956455F 
 2969      5400
 2970              	.LASF198:
 2971 0535 5F657272 		.ascii	"_errno\000"
 2971      6E6F00
 2972              	.LASF138:
 2973 053c 41636331 		.ascii	"Acc1G_Values\000"
 2973      475F5661 
 2973      6C756573 
 2973      00
 2974              	.LASF267:
 2975 0549 64726976 		.ascii	"drivers/hcsr04.c\000"
 2975      6572732F 
 2975      68637372 
 2975      30342E63 
 2975      00
 2976              	.LASF141:
 2977 055a 526F6C6C 		.ascii	"Roll\000"
ARM GAS  /tmp/ccePJ8aS.s 			page 59


 2977      00
 2978              	.LASF239:
 2979 055f 5F736967 		.ascii	"_signal_buf\000"
 2979      6E616C5F 
 2979      62756600 
 2980              	.LASF77:
 2981 056b 4C434B52 		.ascii	"LCKR\000"
 2981      00
 2982              	.LASF42:
 2983 0570 49324332 		.ascii	"I2C2_ER_IRQn\000"
 2983      5F45525F 
 2983      4952516E 
 2983      00
 2984              	.LASF158:
 2985 057d 5F426967 		.ascii	"_Bigint\000"
 2985      696E7400 
 2986              	.LASF155:
 2987 0585 5F6D6178 		.ascii	"_maxwds\000"
 2987      77647300 
 2988              	.LASF207:
 2989 058d 5F5F636C 		.ascii	"__cleanup\000"
 2989      65616E75 
 2989      7000
 2990              	.LASF2:
 2991 0597 42757346 		.ascii	"BusFault_IRQn\000"
 2991      61756C74 
 2991      5F495251 
 2991      6E00
 2992              	.LASF215:
 2993 05a5 5F617465 		.ascii	"_atexit0\000"
 2993      78697430 
 2993      00
 2994              	.LASF256:
 2995 05ae 5F5F6664 		.ascii	"__fdlibm_svid\000"
 2995      6C69626D 
 2995      5F737669 
 2995      6400
 2996              	.LASF60:
 2997 05bc 5F5F7569 		.ascii	"__uint32_t\000"
 2997      6E743332 
 2997      5F7400
 2998              	.LASF203:
 2999 05c7 5F656D65 		.ascii	"_emergency\000"
 2999      7267656E 
 2999      637900
 3000              	.LASF62:
 3001 05d2 6C6F6E67 		.ascii	"long long int\000"
 3001      206C6F6E 
 3001      6720696E 
 3001      7400
 3002              	.LASF222:
 3003 05e0 5F6E696F 		.ascii	"_niobs\000"
 3003      627300
 3004              	.LASF136:
 3005 05e7 47795F6F 		.ascii	"Gy_offset\000"
 3005      66667365 
 3005      7400
ARM GAS  /tmp/ccePJ8aS.s 			page 60


 3006              	.LASF43:
 3007 05f1 53504931 		.ascii	"SPI1_IRQn\000"
 3007      5F495251 
 3007      6E00
 3008              	.LASF217:
 3009 05fb 5F5F7367 		.ascii	"__sglue\000"
 3009      6C756500 
 3010              	.LASF248:
 3011 0603 5F6E6D61 		.ascii	"_nmalloc\000"
 3011      6C6C6F63 
 3011      00
 3012              	.LASF252:
 3013 060c 646F7562 		.ascii	"double\000"
 3013      6C6500
 3014              	.LASF4:
 3015 0613 53564361 		.ascii	"SVCall_IRQn\000"
 3015      6C6C5F49 
 3015      52516E00 
 3016              	.LASF232:
 3017 061f 5F67616D 		.ascii	"_gamma_signgam\000"
 3017      6D615F73 
 3017      69676E67 
 3017      616D00
 3018              	.LASF205:
 3019 062e 5F637572 		.ascii	"_current_locale\000"
 3019      72656E74 
 3019      5F6C6F63 
 3019      616C6500 
 3020              	.LASF211:
 3021 063e 5F667265 		.ascii	"_freelist\000"
 3021      656C6973 
 3021      7400
 3022              	.LASF223:
 3023 0648 5F696F62 		.ascii	"_iobs\000"
 3023      7300
 3024              	.LASF221:
 3025 064e 5F676C75 		.ascii	"_glue\000"
 3025      6500
 3026              	.LASF71:
 3027 0654 49544D5F 		.ascii	"ITM_RxBuffer\000"
 3027      52784275 
 3027      66666572 
 3027      00
 3028              	.LASF156:
 3029 0661 5F736967 		.ascii	"_sign\000"
 3029      6E00
 3030              	.LASF49:
 3031 0667 52544341 		.ascii	"RTCAlarm_IRQn\000"
 3031      6C61726D 
 3031      5F495251 
 3031      6E00
 3032              	.LASF139:
 3033 0675 666C6F61 		.ascii	"float\000"
 3033      7400
 3034              	.LASF18:
 3035 067b 45585449 		.ascii	"EXTI4_IRQn\000"
 3035      345F4952 
ARM GAS  /tmp/ccePJ8aS.s 			page 61


 3035      516E00
 3036              	.LASF246:
 3037 0686 5F685F65 		.ascii	"_h_errno\000"
 3037      72726E6F 
 3037      00
 3038              	.LASF41:
 3039 068f 49324332 		.ascii	"I2C2_EV_IRQn\000"
 3039      5F45565F 
 3039      4952516E 
 3039      00
 3040              	.LASF64:
 3041 069c 756E7369 		.ascii	"unsigned int\000"
 3041      676E6564 
 3041      20696E74 
 3041      00
 3042              	.LASF244:
 3043 06a9 5F776372 		.ascii	"_wcrtomb_state\000"
 3043      746F6D62 
 3043      5F737461 
 3043      746500
 3044              	.LASF89:
 3045 06b8 43434D52 		.ascii	"CCMR2\000"
 3045      3200
 3046              	.LASF163:
 3047 06be 5F5F746D 		.ascii	"__tm_mday\000"
 3047      5F6D6461 
 3047      7900
 3048              	.LASF214:
 3049 06c8 5F6E6577 		.ascii	"_new\000"
 3049      00
 3050              	.LASF189:
 3051 06cd 5F756275 		.ascii	"_ubuf\000"
 3051      6600
 3052              	.LASF25:
 3053 06d3 444D4131 		.ascii	"DMA1_Channel7_IRQn\000"
 3053      5F436861 
 3053      6E6E656C 
 3053      375F4952 
 3053      516E00
 3054              	.LASF201:
 3055 06e6 5F737464 		.ascii	"_stderr\000"
 3055      65727200 
 3056              	.LASF237:
 3057 06ee 5F776374 		.ascii	"_wctomb_state\000"
 3057      6F6D625F 
 3057      73746174 
 3057      6500
 3058              	.LASF195:
 3059 06fc 5F6D6273 		.ascii	"_mbstate\000"
 3059      74617465 
 3059      00
 3060              	.LASF233:
 3061 0705 5F72616E 		.ascii	"_rand_next\000"
 3061      645F6E65 
 3061      787400
 3062              	.LASF181:
 3063 0710 5F666C61 		.ascii	"_flags\000"
ARM GAS  /tmp/ccePJ8aS.s 			page 62


 3063      677300
 3064              	.LASF174:
 3065 0717 5F617465 		.ascii	"_atexit\000"
 3065      78697400 
 3066              	.LASF264:
 3067 071f 48435352 		.ascii	"HCSR04_Get\000"
 3067      30345F47 
 3067      657400
 3068              	.LASF149:
 3069 072a 5F5F636F 		.ascii	"__count\000"
 3069      756E7400 
 3070              	.LASF130:
 3071 0732 4E564943 		.ascii	"NVIC_IRQChannelSubPriority\000"
 3071      5F495251 
 3071      4368616E 
 3071      6E656C53 
 3071      75625072 
 3072              	.LASF73:
 3073 074d 44495341 		.ascii	"DISABLE\000"
 3073      424C4500 
 3074              	.LASF142:
 3075 0755 6C6F6E67 		.ascii	"long double\000"
 3075      20646F75 
 3075      626C6500 
 3076              	.LASF167:
 3077 0761 5F5F746D 		.ascii	"__tm_yday\000"
 3077      5F796461 
 3077      7900
 3078              	.LASF225:
 3079 076b 5F736565 		.ascii	"_seed\000"
 3079      6400
 3080              	.LASF187:
 3081 0771 5F736565 		.ascii	"_seek\000"
 3081      6B00
 3082              	.LASF145:
 3083 0777 5F66706F 		.ascii	"_fpos_t\000"
 3083      735F7400 
 3084              	.LASF148:
 3085 077f 5F5F7763 		.ascii	"__wchb\000"
 3085      686200
 3086              	.LASF34:
 3087 0786 54494D31 		.ascii	"TIM1_TRG_COM_IRQn\000"
 3087      5F545247 
 3087      5F434F4D 
 3087      5F495251 
 3087      6E00
 3088              	.LASF236:
 3089 0798 5F6D6274 		.ascii	"_mbtowc_state\000"
 3089      6F77635F 
 3089      73746174 
 3089      6500
 3090              	.LASF75:
 3091 07a6 46756E63 		.ascii	"FunctionalState\000"
 3091      74696F6E 
 3091      616C5374 
 3091      61746500 
 3092              	.LASF48:
ARM GAS  /tmp/ccePJ8aS.s 			page 63


 3093 07b6 45585449 		.ascii	"EXTI15_10_IRQn\000"
 3093      31355F31 
 3093      305F4952 
 3093      516E00
 3094              	.LASF63:
 3095 07c5 6C6F6E67 		.ascii	"long long unsigned int\000"
 3095      206C6F6E 
 3095      6720756E 
 3095      7369676E 
 3095      65642069 
 3096              	.LASF265:
 3097 07dc 6C656E67 		.ascii	"length\000"
 3097      746800
 3098              	.LASF67:
 3099 07e3 75696E74 		.ascii	"uint16_t\000"
 3099      31365F74 
 3099      00
 3100              	.LASF171:
 3101 07ec 5F64736F 		.ascii	"_dso_handle\000"
 3101      5F68616E 
 3101      646C6500 
 3102              	.LASF224:
 3103 07f8 5F72616E 		.ascii	"_rand48\000"
 3103      64343800 
 3104              	.LASF37:
 3105 0800 54494D33 		.ascii	"TIM3_IRQn\000"
 3105      5F495251 
 3105      6E00
 3106              	.LASF91:
 3107 080a 43434552 		.ascii	"CCER\000"
 3107      00
 3108              	.LASF96:
 3109 080f 52455345 		.ascii	"RESERVED12\000"
 3109      52564544 
 3109      313200
 3110              	.LASF45:
 3111 081a 55534152 		.ascii	"USART1_IRQn\000"
 3111      54315F49 
 3111      52516E00 
 3112              	.LASF100:
 3113 0826 52455345 		.ascii	"RESERVED14\000"
 3113      52564544 
 3113      313400
 3114              	.LASF102:
 3115 0831 52455345 		.ascii	"RESERVED15\000"
 3115      52564544 
 3115      313500
 3116              	.LASF104:
 3117 083c 52455345 		.ascii	"RESERVED16\000"
 3117      52564544 
 3117      313600
 3118              	.LASF106:
 3119 0847 52455345 		.ascii	"RESERVED17\000"
 3119      52564544 
 3119      313700
 3120              	.LASF107:
 3121 0852 52455345 		.ascii	"RESERVED18\000"
ARM GAS  /tmp/ccePJ8aS.s 			page 64


 3121      52564544 
 3121      313800
 3122              	.LASF109:
 3123 085d 52455345 		.ascii	"RESERVED19\000"
 3123      52564544 
 3123      313900
 3124              	.LASF254:
 3125 0868 5F5F6664 		.ascii	"__fdlibm_version\000"
 3125      6C69626D 
 3125      5F766572 
 3125      73696F6E 
 3125      00
 3126              	.LASF191:
 3127 0879 5F626C6B 		.ascii	"_blksize\000"
 3127      73697A65 
 3127      00
 3128              	.LASF263:
 3129 0882 4750494F 		.ascii	"GPIO_InitStructure\000"
 3129      5F496E69 
 3129      74537472 
 3129      75637475 
 3129      726500
 3130              	.LASF178:
 3131 0895 5F626173 		.ascii	"_base\000"
 3131      6500
 3132              	.LASF126:
 3133 089b 4750494F 		.ascii	"GPIO_Mode\000"
 3133      5F4D6F64 
 3133      6500
 3134              	.LASF229:
 3135 08a5 5F737472 		.ascii	"_strtok_last\000"
 3135      746F6B5F 
 3135      6C617374 
 3135      00
 3136              	.LASF242:
 3137 08b2 5F6D6272 		.ascii	"_mbrtowc_state\000"
 3137      746F7763 
 3137      5F737461 
 3137      746500
 3138              	.LASF81:
 3139 08c1 534D4352 		.ascii	"SMCR\000"
 3139      00
 3140              	.LASF220:
 3141 08c6 5F5F4649 		.ascii	"__FILE\000"
 3141      4C4500
 3142              	.LASF123:
 3143 08cd 4750494F 		.ascii	"GPIOMode_TypeDef\000"
 3143      4D6F6465 
 3143      5F547970 
 3143      65446566 
 3143      00
 3144              	.LASF54:
 3145 08de 5F5F696E 		.ascii	"__int16_t\000"
 3145      7431365F 
 3145      7400
 3146              	.LASF151:
 3147 08e8 5F6D6273 		.ascii	"_mbstate_t\000"
ARM GAS  /tmp/ccePJ8aS.s 			page 65


 3147      74617465 
 3147      5F7400
 3148              	.LASF234:
 3149 08f3 5F723438 		.ascii	"_r48\000"
 3149      00
 3150              	.LASF9:
 3151 08f8 5056445F 		.ascii	"PVD_IRQn\000"
 3151      4952516E 
 3151      00
 3152              	.LASF146:
 3153 0901 77696E74 		.ascii	"wint_t\000"
 3153      5F7400
 3154              	.LASF154:
 3155 0908 5F6E6578 		.ascii	"_next\000"
 3155      7400
 3156              	.LASF193:
 3157 090e 5F646174 		.ascii	"_data\000"
 3157      6100
 3158              	.LASF14:
 3159 0914 45585449 		.ascii	"EXTI0_IRQn\000"
 3159      305F4952 
 3159      516E00
 3160              	.LASF112:
 3161 091f 4750494F 		.ascii	"GPIO_Speed_2MHz\000"
 3161      5F537065 
 3161      65645F32 
 3161      4D487A00 
 3162              	.LASF114:
 3163 092f 4750494F 		.ascii	"GPIOSpeed_TypeDef\000"
 3163      53706565 
 3163      645F5479 
 3163      70654465 
 3163      6600
 3164              	.LASF5:
 3165 0941 44656275 		.ascii	"DebugMonitor_IRQn\000"
 3165      674D6F6E 
 3165      69746F72 
 3165      5F495251 
 3165      6E00
 3166              	.LASF124:
 3167 0953 4750494F 		.ascii	"GPIO_Pin\000"
 3167      5F50696E 
 3167      00
 3168              	.LASF28:
 3169 095c 5553425F 		.ascii	"USB_LP_CAN1_RX0_IRQn\000"
 3169      4C505F43 
 3169      414E315F 
 3169      5258305F 
 3169      4952516E 
 3170              	.LASF258:
 3171 0971 5F5F6664 		.ascii	"__fdlibm_posix\000"
 3171      6C69626D 
 3171      5F706F73 
 3171      697800
 3172              	.LASF21:
 3173 0980 444D4131 		.ascii	"DMA1_Channel3_IRQn\000"
 3173      5F436861 
ARM GAS  /tmp/ccePJ8aS.s 			page 66


 3173      6E6E656C 
 3173      335F4952 
 3173      516E00
 3174              	.LASF235:
 3175 0993 5F6D626C 		.ascii	"_mblen_state\000"
 3175      656E5F73 
 3175      74617465 
 3175      00
 3176              	.LASF55:
 3177 09a0 73686F72 		.ascii	"short int\000"
 3177      7420696E 
 3177      7400
 3178              	.LASF13:
 3179 09aa 5243435F 		.ascii	"RCC_IRQn\000"
 3179      4952516E 
 3179      00
 3180              	.LASF257:
 3181 09b3 5F5F6664 		.ascii	"__fdlibm_xopen\000"
 3181      6C69626D 
 3181      5F786F70 
 3181      656E00
 3182              	.LASF116:
 3183 09c2 4750494F 		.ascii	"GPIO_Mode_IN_FLOATING\000"
 3183      5F4D6F64 
 3183      655F494E 
 3183      5F464C4F 
 3183      4154494E 
 3184              	.LASF66:
 3185 09d8 696E7431 		.ascii	"int16_t\000"
 3185      365F7400 
 3186              	.LASF172:
 3187 09e0 5F666E74 		.ascii	"_fntypes\000"
 3187      79706573 
 3187      00
 3188              	.LASF26:
 3189 09e9 41444331 		.ascii	"ADC1_2_IRQn\000"
 3189      5F325F49 
 3189      52516E00 
 3190              	.LASF74:
 3191 09f5 454E4142 		.ascii	"ENABLE\000"
 3191      4C4500
 3192              	.LASF165:
 3193 09fc 5F5F746D 		.ascii	"__tm_year\000"
 3193      5F796561 
 3193      7200
 3194              	.LASF76:
 3195 0a06 42535252 		.ascii	"BSRR\000"
 3195      00
 3196              	.LASF78:
 3197 0a0b 4750494F 		.ascii	"GPIO_TypeDef\000"
 3197      5F547970 
 3197      65446566 
 3197      00
 3198              	.LASF183:
 3199 0a18 5F6C6266 		.ascii	"_lbfsize\000"
 3199      73697A65 
 3199      00
ARM GAS  /tmp/ccePJ8aS.s 			page 67


 3200              	.LASF134:
 3201 0a21 61636365 		.ascii	"accel\000"
 3201      6C00
 3202              	.LASF202:
 3203 0a27 5F696E63 		.ascii	"_inc\000"
 3203      00
 3204              	.LASF20:
 3205 0a2c 444D4131 		.ascii	"DMA1_Channel2_IRQn\000"
 3205      5F436861 
 3205      6E6E656C 
 3205      325F4952 
 3205      516E00
 3206              	.LASF135:
 3207 0a3f 47785F6F 		.ascii	"Gx_offset\000"
 3207      66667365 
 3207      7400
 3208              	.LASF255:
 3209 0a49 5F5F6664 		.ascii	"__fdlibm_ieee\000"
 3209      6C69626D 
 3209      5F696565 
 3209      6500
 3210              	.LASF177:
 3211 0a57 5F5F7362 		.ascii	"__sbuf\000"
 3211      756600
 3212              	.LASF247:
 3213 0a5e 5F6E6578 		.ascii	"_nextf\000"
 3213      746600
 3214              	.LASF140:
 3215 0a65 50697463 		.ascii	"Pitch\000"
 3215      6800
 3216              	.LASF153:
 3217 0a6b 5F5F554C 		.ascii	"__ULong\000"
 3217      6F6E6700 
 3218              	.LASF105:
 3219 0a73 42445452 		.ascii	"BDTR\000"
 3219      00
 3220              	.LASF69:
 3221 0a78 75696E74 		.ascii	"uint32_t\000"
 3221      33325F74 
 3221      00
 3222              	.LASF33:
 3223 0a81 54494D31 		.ascii	"TIM1_UP_IRQn\000"
 3223      5F55505F 
 3223      4952516E 
 3223      00
 3224              	.LASF208:
 3225 0a8e 5F726573 		.ascii	"_result\000"
 3225      756C7400 
 3226              	.LASF29:
 3227 0a96 43414E31 		.ascii	"CAN1_RX1_IRQn\000"
 3227      5F525831 
 3227      5F495251 
 3227      6E00
 3228              	.LASF31:
 3229 0aa4 45585449 		.ascii	"EXTI9_5_IRQn\000"
 3229      395F355F 
 3229      4952516E 
ARM GAS  /tmp/ccePJ8aS.s 			page 68


 3229      00
 3230              	.LASF144:
 3231 0ab1 5F6F6666 		.ascii	"_off_t\000"
 3231      5F7400
 3232              	.LASF266:
 3233 0ab8 474E5520 		.ascii	"GNU C11 6.1.1 20160526 -mcpu=cortex-m3 -mthumb -g -"
 3233      43313120 
 3233      362E312E 
 3233      31203230 
 3233      31363035 
 3234 0aeb 666E6F2D 		.ascii	"fno-common\000"
 3234      636F6D6D 
 3234      6F6E00
 3235              	.LASF227:
 3236 0af6 5F616464 		.ascii	"_add\000"
 3236      00
 3237              	.LASF111:
 3238 0afb 4750494F 		.ascii	"GPIO_Speed_10MHz\000"
 3238      5F537065 
 3238      65645F31 
 3238      304D487A 
 3238      00
 3239              	.LASF132:
 3240 0b0c 4E564943 		.ascii	"NVIC_InitTypeDef\000"
 3240      5F496E69 
 3240      74547970 
 3240      65446566 
 3240      00
 3241              	.LASF57:
 3242 0b1d 73686F72 		.ascii	"short unsigned int\000"
 3242      7420756E 
 3242      7369676E 
 3242      65642069 
 3242      6E7400
 3243              	.LASF162:
 3244 0b30 5F5F746D 		.ascii	"__tm_hour\000"
 3244      5F686F75 
 3244      7200
 3245              	.LASF180:
 3246 0b3a 5F5F7346 		.ascii	"__sFILE\000"
 3246      494C4500 
 3247              	.LASF166:
 3248 0b42 5F5F746D 		.ascii	"__tm_wday\000"
 3248      5F776461 
 3248      7900
 3249              	.LASF94:
 3250 0b4c 52455345 		.ascii	"RESERVED10\000"
 3250      52564544 
 3250      313000
 3251              	.LASF95:
 3252 0b57 52455345 		.ascii	"RESERVED11\000"
 3252      52564544 
 3252      313100
 3253              	.LASF98:
 3254 0b62 52455345 		.ascii	"RESERVED13\000"
 3254      52564544 
 3254      313300
ARM GAS  /tmp/ccePJ8aS.s 			page 69


 3255              	.LASF17:
 3256 0b6d 45585449 		.ascii	"EXTI3_IRQn\000"
 3256      335F4952 
 3256      516E00
 3257              	.LASF6:
 3258 0b78 50656E64 		.ascii	"PendSV_IRQn\000"
 3258      53565F49 
 3258      52516E00 
 3259              	.LASF243:
 3260 0b84 5F6D6273 		.ascii	"_mbsrtowcs_state\000"
 3260      72746F77 
 3260      63735F73 
 3260      74617465 
 3260      00
 3261              	.LASF58:
 3262 0b95 5F5F696E 		.ascii	"__int32_t\000"
 3262      7433325F 
 3262      7400
 3263              	.LASF170:
 3264 0b9f 5F666E61 		.ascii	"_fnargs\000"
 3264      72677300 
 3265              	.LASF168:
 3266 0ba7 5F5F746D 		.ascii	"__tm_isdst\000"
 3266      5F697364 
 3266      737400
 3267              	.LASF24:
 3268 0bb2 444D4131 		.ascii	"DMA1_Channel6_IRQn\000"
 3268      5F436861 
 3268      6E6E656C 
 3268      365F4952 
 3268      516E00
 3269              	.LASF161:
 3270 0bc5 5F5F746D 		.ascii	"__tm_min\000"
 3270      5F6D696E 
 3270      00
 3271              	.LASF240:
 3272 0bce 5F676574 		.ascii	"_getdate_err\000"
 3272      64617465 
 3272      5F657272 
 3272      00
 3273              	.LASF11:
 3274 0bdb 5254435F 		.ascii	"RTC_IRQn\000"
 3274      4952516E 
 3274      00
 3275              	.LASF117:
 3276 0be4 4750494F 		.ascii	"GPIO_Mode_IPD\000"
 3276      5F4D6F64 
 3276      655F4950 
 3276      4400
 3277              		.ident	"GCC: (Arch Repository) 6.1.1 20160526"
ARM GAS  /tmp/ccePJ8aS.s 			page 70


DEFINED SYMBOLS
                            *ABS*:0000000000000000 hcsr04.c
     /tmp/ccePJ8aS.s:18     .text:0000000000000000 $t
     /tmp/ccePJ8aS.s:25     .text:0000000000000000 HCSR04_Get
     /tmp/ccePJ8aS.s:137    .text:00000000000000b8 $d
     /tmp/ccePJ8aS.s:143    .text:00000000000000c4 $t
     /tmp/ccePJ8aS.s:150    .text:00000000000000c4 GPIO_Conf
     /tmp/ccePJ8aS.s:226    .text:0000000000000128 $d
     /tmp/ccePJ8aS.s:230    .text:000000000000012c $t
     /tmp/ccePJ8aS.s:237    .text:000000000000012c NVIC_Conf
                     .debug_frame:0000000000000010 $d

UNDEFINED SYMBOLS
__aeabi_i2d
__aeabi_ddiv
__aeabi_d2iz
GPIO_WriteBit
delay_us
TIM_Cmd
GPIO_ReadInputDataBit
RCC_APB2PeriphClockCmd
GPIO_Init
NVIC_SetVectorTable
NVIC_Init
