ARM GAS  /tmp/ccePJ8aS.s 			page 1


   1              		.cpu cortex-m3
   2              		.eabi_attribute 20, 1
   3              		.eabi_attribute 21, 1
   4              		.eabi_attribute 23, 3
   5              		.eabi_attribute 24, 1
   6              		.eabi_attribute 25, 1
   7              		.eabi_attribute 26, 1
   8              		.eabi_attribute 30, 6
   9              		.eabi_attribute 34, 1
  10              		.eabi_attribute 18, 4
  11              		.file	"hcsr04.c"
  12              		.text
  13              	.Ltext0:
  14              		.cfi_sections	.debug_frame
  15              		.global	__aeabi_i2d
  16              		.global	__aeabi_ddiv
  17              		.global	__aeabi_d2iz
  18              		.align	1
  19              		.global	HCSR04_Get
  20              		.syntax unified
  21              		.thumb
  22              		.thumb_func
  23              		.fpu softvfp
  24              		.type	HCSR04_Get, %function
  25              	HCSR04_Get:
  26              	.LFB64:
  27              		.file 1 "drivers/hcsr04.c"
   1:drivers/hcsr04.c **** #include "hcsr04.h"
   2:drivers/hcsr04.c **** 
   3:drivers/hcsr04.c **** 
   4:drivers/hcsr04.c **** int HCSR04_Get(void)
   5:drivers/hcsr04.c **** {
  28              		.loc 1 5 0
  29              		.cfi_startproc
  30              		@ args = 0, pretend = 0, frame = 8
  31              		@ frame_needed = 1, uses_anonymous_args = 0
  32 0000 90B5     		push	{r4, r7, lr}
  33              		.cfi_def_cfa_offset 12
  34              		.cfi_offset 4, -12
  35              		.cfi_offset 7, -8
  36              		.cfi_offset 14, -4
  37 0002 83B0     		sub	sp, sp, #12
  38              		.cfi_def_cfa_offset 24
  39 0004 00AF     		add	r7, sp, #0
  40              		.cfi_def_cfa_register 7
   6:drivers/hcsr04.c ****   int length;
   7:drivers/hcsr04.c ****   
   8:drivers/hcsr04.c ****   GPIO_WriteBit(GPIOA,GPIO_Pin_1,1);
  41              		.loc 1 8 0
  42 0006 0122     		movs	r2, #1
  43 0008 0221     		movs	r1, #2
  44 000a 2D48     		ldr	r0, .L7+8
  45 000c FFF7FEFF 		bl	GPIO_WriteBit
   9:drivers/hcsr04.c ****   delay_us(20);
  46              		.loc 1 9 0
  47 0010 1420     		movs	r0, #20
  48 0012 FFF7FEFF 		bl	delay_us
ARM GAS  /tmp/ccePJ8aS.s 			page 2


  10:drivers/hcsr04.c ****   GPIO_WriteBit(GPIOA,GPIO_Pin_1,0);
  49              		.loc 1 10 0
  50 0016 0022     		movs	r2, #0
  51 0018 0221     		movs	r1, #2
  52 001a 2948     		ldr	r0, .L7+8
  53 001c FFF7FEFF 		bl	GPIO_WriteBit
  11:drivers/hcsr04.c ****   //计数器清0
  12:drivers/hcsr04.c ****   TIM2->CNT = 0;
  54              		.loc 1 12 0
  55 0020 4FF08043 		mov	r3, #1073741824
  56 0024 0022     		movs	r2, #0
  57 0026 9A84     		strh	r2, [r3, #36]	@ movhi
  13:drivers/hcsr04.c ****   TIM_Cmd(TIM2, ENABLE);// TIM2 enable counter [允许tim2计数]
  58              		.loc 1 13 0
  59 0028 0121     		movs	r1, #1
  60 002a 4FF08040 		mov	r0, #1073741824
  61 002e FFF7FEFF 		bl	TIM_Cmd
  14:drivers/hcsr04.c ****   while(!GPIO_ReadInputDataBit(GPIOA, GPIO_Pin_0) && TIM2->CNT<1000);
  62              		.loc 1 14 0
  63 0032 00BF     		nop
  64              	.L3:
  65              		.loc 1 14 0 is_stmt 0 discriminator 2
  66 0034 0121     		movs	r1, #1
  67 0036 2248     		ldr	r0, .L7+8
  68 0038 FFF7FEFF 		bl	GPIO_ReadInputDataBit
  69 003c 0346     		mov	r3, r0
  70 003e 002B     		cmp	r3, #0
  71 0040 06D1     		bne	.L2
  72              		.loc 1 14 0 discriminator 1
  73 0042 4FF08043 		mov	r3, #1073741824
  74 0046 9B8C     		ldrh	r3, [r3, #36]	@ movhi
  75 0048 9BB2     		uxth	r3, r3
  76 004a B3F57A7F 		cmp	r3, #1000
  77 004e F1D3     		bcc	.L3
  78              	.L2:
  15:drivers/hcsr04.c ****   TIM2->CNT = 0;
  79              		.loc 1 15 0 is_stmt 1
  80 0050 4FF08043 		mov	r3, #1073741824
  81 0054 0022     		movs	r2, #0
  82 0056 9A84     		strh	r2, [r3, #36]	@ movhi
  16:drivers/hcsr04.c ****   while(GPIO_ReadInputDataBit(GPIOA, GPIO_Pin_0) && TIM2->CNT<60000);
  83              		.loc 1 16 0
  84 0058 00BF     		nop
  85              	.L5:
  86              		.loc 1 16 0 is_stmt 0 discriminator 2
  87 005a 0121     		movs	r1, #1
  88 005c 1848     		ldr	r0, .L7+8
  89 005e FFF7FEFF 		bl	GPIO_ReadInputDataBit
  90 0062 0346     		mov	r3, r0
  91 0064 002B     		cmp	r3, #0
  92 0066 07D0     		beq	.L4
  93              		.loc 1 16 0 discriminator 1
  94 0068 4FF08043 		mov	r3, #1073741824
  95 006c 9B8C     		ldrh	r3, [r3, #36]	@ movhi
  96 006e 9BB2     		uxth	r3, r3
  97 0070 4EF65F22 		movw	r2, #59999
  98 0074 9342     		cmp	r3, r2
ARM GAS  /tmp/ccePJ8aS.s 			page 3


  99 0076 F0D9     		bls	.L5
 100              	.L4:
  17:drivers/hcsr04.c ****   TIM_Cmd(TIM2, DISABLE);
 101              		.loc 1 17 0 is_stmt 1
 102 0078 0021     		movs	r1, #0
 103 007a 4FF08040 		mov	r0, #1073741824
 104 007e FFF7FEFF 		bl	TIM_Cmd
  18:drivers/hcsr04.c **** 
  19:drivers/hcsr04.c ****   length = TIM2->CNT/58.8;
 105              		.loc 1 19 0
 106 0082 4FF08043 		mov	r3, #1073741824
 107 0086 9B8C     		ldrh	r3, [r3, #36]	@ movhi
 108 0088 9BB2     		uxth	r3, r3
 109 008a 1846     		mov	r0, r3
 110 008c FFF7FEFF 		bl	__aeabi_i2d
 111              	.LVL0:
 112 0090 09A3     		adr	r3, .L7
 113 0092 D3E90023 		ldrd	r2, [r3]
 114 0096 FFF7FEFF 		bl	__aeabi_ddiv
 115              	.LVL1:
 116 009a 0346     		mov	r3, r0
 117 009c 0C46     		mov	r4, r1
 118 009e 1846     		mov	r0, r3
 119 00a0 2146     		mov	r1, r4
 120 00a2 FFF7FEFF 		bl	__aeabi_d2iz
 121              	.LVL2:
 122 00a6 0346     		mov	r3, r0
 123 00a8 7B60     		str	r3, [r7, #4]
  20:drivers/hcsr04.c ****   return length;
 124              		.loc 1 20 0
 125 00aa 7B68     		ldr	r3, [r7, #4]
  21:drivers/hcsr04.c **** }
 126              		.loc 1 21 0
 127 00ac 1846     		mov	r0, r3
 128 00ae 0C37     		adds	r7, r7, #12
 129              		.cfi_def_cfa_offset 12
 130 00b0 BD46     		mov	sp, r7
 131              		.cfi_def_cfa_register 13
 132              		@ sp needed
 133 00b2 90BD     		pop	{r4, r7, pc}
 134              	.L8:
 135 00b4 AFF30080 		.align	3
 136              	.L7:
 137 00b8 66666666 		.word	1717986918
 138 00bc 66664D40 		.word	1078814310
 139 00c0 00080140 		.word	1073809408
 140              		.cfi_endproc
 141              	.LFE64:
 142              		.size	HCSR04_Get, .-HCSR04_Get
 143              		.align	1
 144              		.global	GPIO_Conf
 145              		.syntax unified
 146              		.thumb
 147              		.thumb_func
 148              		.fpu softvfp
 149              		.type	GPIO_Conf, %function
 150              	GPIO_Conf:
ARM GAS  /tmp/ccePJ8aS.s 			page 4


 151              	.LFB65:
  22:drivers/hcsr04.c **** 
  23:drivers/hcsr04.c **** void GPIO_Conf(void)
  24:drivers/hcsr04.c **** {
 152              		.loc 1 24 0
 153              		.cfi_startproc
 154              		@ args = 0, pretend = 0, frame = 8
 155              		@ frame_needed = 1, uses_anonymous_args = 0
 156 00c4 80B5     		push	{r7, lr}
 157              		.cfi_def_cfa_offset 8
 158              		.cfi_offset 7, -8
 159              		.cfi_offset 14, -4
 160 00c6 82B0     		sub	sp, sp, #8
 161              		.cfi_def_cfa_offset 16
 162 00c8 00AF     		add	r7, sp, #0
 163              		.cfi_def_cfa_register 7
  25:drivers/hcsr04.c ****   GPIO_InitTypeDef GPIO_InitStructure;
  26:drivers/hcsr04.c ****   
  27:drivers/hcsr04.c ****   //开启AFIO时钟
  28:drivers/hcsr04.c ****   RCC_APB2PeriphClockCmd(RCC_APB2Periph_AFIO, ENABLE);
 164              		.loc 1 28 0
 165 00ca 0121     		movs	r1, #1
 166 00cc 0120     		movs	r0, #1
 167 00ce FFF7FEFF 		bl	RCC_APB2PeriphClockCmd
  29:drivers/hcsr04.c ****   
  30:drivers/hcsr04.c ****    //配置USARTx_Tx为复合推挽输出
  31:drivers/hcsr04.c ****   GPIO_InitStructure.GPIO_Pin = GPIO_Pin_2;
 168              		.loc 1 31 0
 169 00d2 0423     		movs	r3, #4
 170 00d4 BB80     		strh	r3, [r7, #4]	@ movhi
  32:drivers/hcsr04.c ****   GPIO_InitStructure.GPIO_Speed = GPIO_Speed_50MHz;
 171              		.loc 1 32 0
 172 00d6 0323     		movs	r3, #3
 173 00d8 BB71     		strb	r3, [r7, #6]
  33:drivers/hcsr04.c ****   GPIO_InitStructure.GPIO_Mode = GPIO_Mode_AF_PP;
 174              		.loc 1 33 0
 175 00da 1823     		movs	r3, #24
 176 00dc FB71     		strb	r3, [r7, #7]
  34:drivers/hcsr04.c ****   GPIO_Init(GPIOA, &GPIO_InitStructure);
 177              		.loc 1 34 0
 178 00de 3B1D     		adds	r3, r7, #4
 179 00e0 1946     		mov	r1, r3
 180 00e2 1148     		ldr	r0, .L10
 181 00e4 FFF7FEFF 		bl	GPIO_Init
  35:drivers/hcsr04.c ****   
  36:drivers/hcsr04.c ****   //配置 USARTx_Rx 为浮空输入
  37:drivers/hcsr04.c ****   GPIO_InitStructure.GPIO_Pin = GPIO_Pin_3;
 182              		.loc 1 37 0
 183 00e8 0823     		movs	r3, #8
 184 00ea BB80     		strh	r3, [r7, #4]	@ movhi
  38:drivers/hcsr04.c ****   GPIO_InitStructure.GPIO_Mode = GPIO_Mode_IN_FLOATING;
 185              		.loc 1 38 0
 186 00ec 0423     		movs	r3, #4
 187 00ee FB71     		strb	r3, [r7, #7]
  39:drivers/hcsr04.c ****   GPIO_Init(GPIOA, &GPIO_InitStructure);
 188              		.loc 1 39 0
 189 00f0 3B1D     		adds	r3, r7, #4
ARM GAS  /tmp/ccePJ8aS.s 			page 5


 190 00f2 1946     		mov	r1, r3
 191 00f4 0C48     		ldr	r0, .L10
 192 00f6 FFF7FEFF 		bl	GPIO_Init
  40:drivers/hcsr04.c ****   
  41:drivers/hcsr04.c ****   //HC-SR02 
  42:drivers/hcsr04.c ****   GPIO_InitStructure.GPIO_Pin = GPIO_Pin_1; 
 193              		.loc 1 42 0
 194 00fa 0223     		movs	r3, #2
 195 00fc BB80     		strh	r3, [r7, #4]	@ movhi
  43:drivers/hcsr04.c ****   GPIO_InitStructure.GPIO_Mode = GPIO_Mode_Out_PP;
 196              		.loc 1 43 0
 197 00fe 1023     		movs	r3, #16
 198 0100 FB71     		strb	r3, [r7, #7]
  44:drivers/hcsr04.c ****   GPIO_Init(GPIOA, &GPIO_InitStructure);
 199              		.loc 1 44 0
 200 0102 3B1D     		adds	r3, r7, #4
 201 0104 1946     		mov	r1, r3
 202 0106 0848     		ldr	r0, .L10
 203 0108 FFF7FEFF 		bl	GPIO_Init
  45:drivers/hcsr04.c ****   GPIO_InitStructure.GPIO_Pin = GPIO_Pin_0; 
 204              		.loc 1 45 0
 205 010c 0123     		movs	r3, #1
 206 010e BB80     		strh	r3, [r7, #4]	@ movhi
  46:drivers/hcsr04.c ****   GPIO_InitStructure.GPIO_Mode = GPIO_Mode_IN_FLOATING;
 207              		.loc 1 46 0
 208 0110 0423     		movs	r3, #4
 209 0112 FB71     		strb	r3, [r7, #7]
  47:drivers/hcsr04.c ****   GPIO_Init(GPIOA, &GPIO_InitStructure);
 210              		.loc 1 47 0
 211 0114 3B1D     		adds	r3, r7, #4
 212 0116 1946     		mov	r1, r3
 213 0118 0348     		ldr	r0, .L10
 214 011a FFF7FEFF 		bl	GPIO_Init
  48:drivers/hcsr04.c **** 
  49:drivers/hcsr04.c **** }
 215              		.loc 1 49 0
 216 011e 00BF     		nop
 217 0120 0837     		adds	r7, r7, #8
 218              		.cfi_def_cfa_offset 8
 219 0122 BD46     		mov	sp, r7
 220              		.cfi_def_cfa_register 13
 221              		@ sp needed
 222 0124 80BD     		pop	{r7, pc}
 223              	.L11:
 224 0126 00BF     		.align	2
 225              	.L10:
 226 0128 00080140 		.word	1073809408
 227              		.cfi_endproc
 228              	.LFE65:
 229              		.size	GPIO_Conf, .-GPIO_Conf
 230              		.align	1
 231              		.global	NVIC_Conf
 232              		.syntax unified
 233              		.thumb
 234              		.thumb_func
 235              		.fpu softvfp
 236              		.type	NVIC_Conf, %function
ARM GAS  /tmp/ccePJ8aS.s 			page 6


 237              	NVIC_Conf:
 238              	.LFB66:
  50:drivers/hcsr04.c **** 
  51:drivers/hcsr04.c **** // 系统中断控制
  52:drivers/hcsr04.c **** void NVIC_Conf(void)
  53:drivers/hcsr04.c **** { 
 239              		.loc 1 53 0
 240              		.cfi_startproc
 241              		@ args = 0, pretend = 0, frame = 8
 242              		@ frame_needed = 1, uses_anonymous_args = 0
 243 012c 80B5     		push	{r7, lr}
 244              		.cfi_def_cfa_offset 8
 245              		.cfi_offset 7, -8
 246              		.cfi_offset 14, -4
 247 012e 82B0     		sub	sp, sp, #8
 248              		.cfi_def_cfa_offset 16
 249 0130 00AF     		add	r7, sp, #0
 250              		.cfi_def_cfa_register 7
  54:drivers/hcsr04.c ****   NVIC_InitTypeDef NVIC_InitStructure;
  55:drivers/hcsr04.c ****   // 设置中断向量表位置 FLASH:0x08000000
  56:drivers/hcsr04.c ****   NVIC_SetVectorTable(NVIC_VectTab_FLASH, 0x0); 
 251              		.loc 1 56 0
 252 0132 0021     		movs	r1, #0
 253 0134 4FF00060 		mov	r0, #134217728
 254 0138 FFF7FEFF 		bl	NVIC_SetVectorTable
  57:drivers/hcsr04.c **** 
  58:drivers/hcsr04.c ****   // 打开TIM2中断
  59:drivers/hcsr04.c ****   NVIC_InitStructure.NVIC_IRQChannel = TIM2_IRQn;
 255              		.loc 1 59 0
 256 013c 1C23     		movs	r3, #28
 257 013e 3B71     		strb	r3, [r7, #4]
  60:drivers/hcsr04.c ****   NVIC_InitStructure.NVIC_IRQChannelPreemptionPriority = 0;
 258              		.loc 1 60 0
 259 0140 0023     		movs	r3, #0
 260 0142 7B71     		strb	r3, [r7, #5]
  61:drivers/hcsr04.c ****   NVIC_InitStructure.NVIC_IRQChannelSubPriority = 0;
 261              		.loc 1 61 0
 262 0144 0023     		movs	r3, #0
 263 0146 BB71     		strb	r3, [r7, #6]
  62:drivers/hcsr04.c ****   NVIC_InitStructure.NVIC_IRQChannelCmd = ENABLE;
 264              		.loc 1 62 0
 265 0148 0123     		movs	r3, #1
 266 014a FB71     		strb	r3, [r7, #7]
  63:drivers/hcsr04.c ****   NVIC_Init(&NVIC_InitStructure);
 267              		.loc 1 63 0
 268 014c 3B1D     		adds	r3, r7, #4
 269 014e 1846     		mov	r0, r3
 270 0150 FFF7FEFF 		bl	NVIC_Init
  64:drivers/hcsr04.c **** }
 271              		.loc 1 64 0
 272 0154 00BF     		nop
 273 0156 0837     		adds	r7, r7, #8
 274              		.cfi_def_cfa_offset 8
 275 0158 BD46     		mov	sp, r7
 276              		.cfi_def_cfa_register 13
 277              		@ sp needed
 278 015a 80BD     		pop	{r7, pc}
ARM GAS  /tmp/ccePJ8aS.s 			page 7


 279              		.cfi_endproc
 280              	.LFE66:
 281              		.size	NVIC_Conf, .-NVIC_Conf
 282              	.Letext0:
 283              		.file 2 "/usr/arm-none-eabi/include/machine/_default_types.h"
 284              		.file 3 "/usr/arm-none-eabi/include/sys/_stdint.h"
 285              		.file 4 "/home/enbin/Documents/code/STM/stm32-quadrocopter/cmsis/core_cm3.h"
 286              		.file 5 "/home/enbin/Documents/code/STM/stm32-quadrocopter/lib/inc/system_stm32f10x.h"
 287              		.file 6 "/home/enbin/Documents/code/STM/stm32-quadrocopter/lib/inc/stm32f10x.h"
 288              		.file 7 "/home/enbin/Documents/code/STM/stm32-quadrocopter/lib/inc/stm32f10x_gpio.h"
 289              		.file 8 "/home/enbin/Documents/code/STM/stm32-quadrocopter/lib/inc/misc.h"
 290              		.file 9 "/home/enbin/Documents/code/STM/stm32-quadrocopter/drivers/mpu6050.h"
 291              		.file 10 "/usr/arm-none-eabi/include/sys/lock.h"
 292              		.file 11 "/usr/arm-none-eabi/include/sys/_types.h"
 293              		.file 12 "/usr/lib/gcc/arm-none-eabi/6.1.1/include/stddef.h"
 294              		.file 13 "/usr/arm-none-eabi/include/sys/reent.h"
 295              		.file 14 "/usr/arm-none-eabi/include/math.h"