ARM GAS  /tmp/ccozkyvL.s 			page 1


   1              		.cpu cortex-m3
   2              		.eabi_attribute 20, 1
   3              		.eabi_attribute 21, 1
   4              		.eabi_attribute 23, 3
   5              		.eabi_attribute 24, 1
   6              		.eabi_attribute 25, 1
   7              		.eabi_attribute 26, 1
   8              		.eabi_attribute 30, 6
   9              		.eabi_attribute 34, 1
  10              		.eabi_attribute 18, 4
  11              		.file	"i2c.c"
  12              		.text
  13              	.Ltext0:
  14              		.cfi_sections	.debug_frame
  15              		.align	1
  16              		.global	I2C_DeInit
  17              		.syntax unified
  18              		.thumb
  19              		.thumb_func
  20              		.fpu softvfp
  21              		.type	I2C_DeInit, %function
  22              	I2C_DeInit:
  23              	.LFB63:
  24              		.file 1 "common/i2c.c"
   1:common/i2c.c  **** /**
   2:common/i2c.c  ****   ******************************************************************************
   3:common/i2c.c  ****   * @file    stm32f10x_i2c.c
   4:common/i2c.c  ****   * @author  MCD Application Team
   5:common/i2c.c  ****   * @version V3.5.0
   6:common/i2c.c  ****   * @date    11-March-2011
   7:common/i2c.c  ****   * @brief   This file provides all the I2C firmware functions.
   8:common/i2c.c  ****   ******************************************************************************
   9:common/i2c.c  ****   * @attention
  10:common/i2c.c  ****   *
  11:common/i2c.c  ****   * THE PRESENT FIRMWARE WHICH IS FOR GUIDANCE ONLY AIMS AT PROVIDING CUSTOMERS
  12:common/i2c.c  ****   * WITH CODING INFORMATION REGARDING THEIR PRODUCTS IN ORDER FOR THEM TO SAVE
  13:common/i2c.c  ****   * TIME. AS A RESULT, STMICROELECTRONICS SHALL NOT BE HELD LIABLE FOR ANY
  14:common/i2c.c  ****   * DIRECT, INDIRECT OR CONSEQUENTIAL DAMAGES WITH RESPECT TO ANY CLAIMS ARISING
  15:common/i2c.c  ****   * FROM THE CONTENT OF SUCH FIRMWARE AND/OR THE USE MADE BY CUSTOMERS OF THE
  16:common/i2c.c  ****   * CODING INFORMATION CONTAINED HEREIN IN CONNECTION WITH THEIR PRODUCTS.
  17:common/i2c.c  ****   *
  18:common/i2c.c  ****   * <h2><center>&copy; COPYRIGHT 2011 STMicroelectronics</center></h2>
  19:common/i2c.c  ****   ******************************************************************************
  20:common/i2c.c  ****   */
  21:common/i2c.c  **** 
  22:common/i2c.c  **** /* Includes ------------------------------------------------------------------*/
  23:common/i2c.c  **** #include "../include/STM32/i2c.h"
  24:common/i2c.c  **** #include "../include/STM32/rcc.h"
  25:common/i2c.c  **** #include "../src/conf.h"
  26:common/i2c.c  **** 
  27:common/i2c.c  **** /** @addtogroup STM32F10x_StdPeriph_Driver
  28:common/i2c.c  ****   * @{
  29:common/i2c.c  ****   */
  30:common/i2c.c  **** 
  31:common/i2c.c  **** /** @defgroup I2C 
  32:common/i2c.c  ****   * @brief I2C driver modules
  33:common/i2c.c  ****   * @{
ARM GAS  /tmp/ccozkyvL.s 			page 2


  34:common/i2c.c  ****   */ 
  35:common/i2c.c  **** 
  36:common/i2c.c  **** /** @defgroup I2C_Private_TypesDefinitions
  37:common/i2c.c  ****   * @{
  38:common/i2c.c  ****   */
  39:common/i2c.c  **** 
  40:common/i2c.c  **** /**
  41:common/i2c.c  ****   * @}
  42:common/i2c.c  ****   */
  43:common/i2c.c  **** 
  44:common/i2c.c  **** /** @defgroup I2C_Private_Defines
  45:common/i2c.c  ****   * @{
  46:common/i2c.c  ****   */
  47:common/i2c.c  **** 
  48:common/i2c.c  **** /* I2C SPE mask */
  49:common/i2c.c  **** #define CR1_PE_Set              ((uint16_t)0x0001)
  50:common/i2c.c  **** #define CR1_PE_Reset            ((uint16_t)0xFFFE)
  51:common/i2c.c  **** 
  52:common/i2c.c  **** /* I2C START mask */
  53:common/i2c.c  **** #define CR1_START_Set           ((uint16_t)0x0100)
  54:common/i2c.c  **** #define CR1_START_Reset         ((uint16_t)0xFEFF)
  55:common/i2c.c  **** 
  56:common/i2c.c  **** /* I2C STOP mask */
  57:common/i2c.c  **** #define CR1_STOP_Set            ((uint16_t)0x0200)
  58:common/i2c.c  **** #define CR1_STOP_Reset          ((uint16_t)0xFDFF)
  59:common/i2c.c  **** 
  60:common/i2c.c  **** /* I2C ACK mask */
  61:common/i2c.c  **** #define CR1_ACK_Set             ((uint16_t)0x0400)
  62:common/i2c.c  **** #define CR1_ACK_Reset           ((uint16_t)0xFBFF)
  63:common/i2c.c  **** 
  64:common/i2c.c  **** /* I2C ENGC mask */
  65:common/i2c.c  **** #define CR1_ENGC_Set            ((uint16_t)0x0040)
  66:common/i2c.c  **** #define CR1_ENGC_Reset          ((uint16_t)0xFFBF)
  67:common/i2c.c  **** 
  68:common/i2c.c  **** /* I2C SWRST mask */
  69:common/i2c.c  **** #define CR1_SWRST_Set           ((uint16_t)0x8000)
  70:common/i2c.c  **** #define CR1_SWRST_Reset         ((uint16_t)0x7FFF)
  71:common/i2c.c  **** 
  72:common/i2c.c  **** /* I2C PEC mask */
  73:common/i2c.c  **** #define CR1_PEC_Set             ((uint16_t)0x1000)
  74:common/i2c.c  **** #define CR1_PEC_Reset           ((uint16_t)0xEFFF)
  75:common/i2c.c  **** 
  76:common/i2c.c  **** /* I2C ENPEC mask */
  77:common/i2c.c  **** #define CR1_ENPEC_Set           ((uint16_t)0x0020)
  78:common/i2c.c  **** #define CR1_ENPEC_Reset         ((uint16_t)0xFFDF)
  79:common/i2c.c  **** 
  80:common/i2c.c  **** /* I2C ENARP mask */
  81:common/i2c.c  **** #define CR1_ENARP_Set           ((uint16_t)0x0010)
  82:common/i2c.c  **** #define CR1_ENARP_Reset         ((uint16_t)0xFFEF)
  83:common/i2c.c  **** 
  84:common/i2c.c  **** /* I2C NOSTRETCH mask */
  85:common/i2c.c  **** #define CR1_NOSTRETCH_Set       ((uint16_t)0x0080)
  86:common/i2c.c  **** #define CR1_NOSTRETCH_Reset     ((uint16_t)0xFF7F)
  87:common/i2c.c  **** 
  88:common/i2c.c  **** /* I2C registers Masks */
  89:common/i2c.c  **** #define CR1_CLEAR_Mask          ((uint16_t)0xFBF5)
  90:common/i2c.c  **** 
ARM GAS  /tmp/ccozkyvL.s 			page 3


  91:common/i2c.c  **** /* I2C DMAEN mask */
  92:common/i2c.c  **** #define CR2_DMAEN_Set           ((uint16_t)0x0800)
  93:common/i2c.c  **** #define CR2_DMAEN_Reset         ((uint16_t)0xF7FF)
  94:common/i2c.c  **** 
  95:common/i2c.c  **** /* I2C LAST mask */
  96:common/i2c.c  **** #define CR2_LAST_Set            ((uint16_t)0x1000)
  97:common/i2c.c  **** #define CR2_LAST_Reset          ((uint16_t)0xEFFF)
  98:common/i2c.c  **** 
  99:common/i2c.c  **** /* I2C FREQ mask */
 100:common/i2c.c  **** #define CR2_FREQ_Reset          ((uint16_t)0xFFC0)
 101:common/i2c.c  **** 
 102:common/i2c.c  **** /* I2C ADD0 mask */
 103:common/i2c.c  **** #define OAR1_ADD0_Set           ((uint16_t)0x0001)
 104:common/i2c.c  **** #define OAR1_ADD0_Reset         ((uint16_t)0xFFFE)
 105:common/i2c.c  **** 
 106:common/i2c.c  **** /* I2C ENDUAL mask */
 107:common/i2c.c  **** #define OAR2_ENDUAL_Set         ((uint16_t)0x0001)
 108:common/i2c.c  **** #define OAR2_ENDUAL_Reset       ((uint16_t)0xFFFE)
 109:common/i2c.c  **** 
 110:common/i2c.c  **** /* I2C ADD2 mask */
 111:common/i2c.c  **** #define OAR2_ADD2_Reset         ((uint16_t)0xFF01)
 112:common/i2c.c  **** 
 113:common/i2c.c  **** /* I2C F/S mask */
 114:common/i2c.c  **** #define CCR_FS_Set              ((uint16_t)0x8000)
 115:common/i2c.c  **** 
 116:common/i2c.c  **** /* I2C CCR mask */
 117:common/i2c.c  **** #define CCR_CCR_Set             ((uint16_t)0x0FFF)
 118:common/i2c.c  **** 
 119:common/i2c.c  **** /* I2C FLAG mask */
 120:common/i2c.c  **** #define FLAG_Mask               ((uint32_t)0x00FFFFFF)
 121:common/i2c.c  **** 
 122:common/i2c.c  **** /* I2C Interrupt Enable mask */
 123:common/i2c.c  **** #define ITEN_Mask               ((uint32_t)0x07000000)
 124:common/i2c.c  **** 
 125:common/i2c.c  **** /**
 126:common/i2c.c  ****   * @}
 127:common/i2c.c  ****   */
 128:common/i2c.c  **** 
 129:common/i2c.c  **** /** @defgroup I2C_Private_Macros
 130:common/i2c.c  ****   * @{
 131:common/i2c.c  ****   */
 132:common/i2c.c  **** 
 133:common/i2c.c  **** /**
 134:common/i2c.c  ****   * @}
 135:common/i2c.c  ****   */
 136:common/i2c.c  **** 
 137:common/i2c.c  **** /** @defgroup I2C_Private_Variables
 138:common/i2c.c  ****   * @{
 139:common/i2c.c  ****   */
 140:common/i2c.c  **** 
 141:common/i2c.c  **** /**
 142:common/i2c.c  ****   * @}
 143:common/i2c.c  ****   */
 144:common/i2c.c  **** 
 145:common/i2c.c  **** /** @defgroup I2C_Private_FunctionPrototypes
 146:common/i2c.c  ****   * @{
 147:common/i2c.c  ****   */
ARM GAS  /tmp/ccozkyvL.s 			page 4


 148:common/i2c.c  **** 
 149:common/i2c.c  **** /**
 150:common/i2c.c  ****   * @}
 151:common/i2c.c  ****   */
 152:common/i2c.c  **** 
 153:common/i2c.c  **** /** @defgroup I2C_Private_Functions
 154:common/i2c.c  ****   * @{
 155:common/i2c.c  ****   */
 156:common/i2c.c  **** 
 157:common/i2c.c  **** /**
 158:common/i2c.c  ****   * @brief  Deinitializes the I2Cx peripheral registers to their default reset values.
 159:common/i2c.c  ****   * @param  I2Cx: where x can be 1 or 2 to select the I2C peripheral.
 160:common/i2c.c  ****   * @retval None
 161:common/i2c.c  ****   */
 162:common/i2c.c  **** void I2C_DeInit(I2C_TypeDef* I2Cx)
 163:common/i2c.c  **** {
  25              		.loc 1 163 0
  26              		.cfi_startproc
  27              		@ args = 0, pretend = 0, frame = 8
  28              		@ frame_needed = 1, uses_anonymous_args = 0
  29 0000 80B5     		push	{r7, lr}
  30              		.cfi_def_cfa_offset 8
  31              		.cfi_offset 7, -8
  32              		.cfi_offset 14, -4
  33 0002 82B0     		sub	sp, sp, #8
  34              		.cfi_def_cfa_offset 16
  35 0004 00AF     		add	r7, sp, #0
  36              		.cfi_def_cfa_register 7
  37 0006 7860     		str	r0, [r7, #4]
 164:common/i2c.c  ****   /* Check the parameters */
 165:common/i2c.c  ****   assert_param(IS_I2C_ALL_PERIPH(I2Cx));
 166:common/i2c.c  **** 
 167:common/i2c.c  ****   if (I2Cx == I2C1)
  38              		.loc 1 167 0
  39 0008 7B68     		ldr	r3, [r7, #4]
  40 000a 0E4A     		ldr	r2, .L5
  41 000c 9342     		cmp	r3, r2
  42 000e 0AD1     		bne	.L2
 168:common/i2c.c  ****   {
 169:common/i2c.c  ****     /* Enable I2C1 reset state */
 170:common/i2c.c  ****     RCC_APB1PeriphResetCmd(RCC_APB1Periph_I2C1, ENABLE);
  43              		.loc 1 170 0
  44 0010 0121     		movs	r1, #1
  45 0012 4FF40010 		mov	r0, #2097152
  46 0016 FFF7FEFF 		bl	RCC_APB1PeriphResetCmd
 171:common/i2c.c  ****     /* Release I2C1 from reset state */
 172:common/i2c.c  ****     RCC_APB1PeriphResetCmd(RCC_APB1Periph_I2C1, DISABLE);
  47              		.loc 1 172 0
  48 001a 0021     		movs	r1, #0
  49 001c 4FF40010 		mov	r0, #2097152
  50 0020 FFF7FEFF 		bl	RCC_APB1PeriphResetCmd
 173:common/i2c.c  ****   }
 174:common/i2c.c  ****   else
 175:common/i2c.c  ****   {
 176:common/i2c.c  ****     /* Enable I2C2 reset state */
 177:common/i2c.c  ****     RCC_APB1PeriphResetCmd(RCC_APB1Periph_I2C2, ENABLE);
 178:common/i2c.c  ****     /* Release I2C2 from reset state */
ARM GAS  /tmp/ccozkyvL.s 			page 5


 179:common/i2c.c  ****     RCC_APB1PeriphResetCmd(RCC_APB1Periph_I2C2, DISABLE);
 180:common/i2c.c  ****   }
 181:common/i2c.c  **** }
  51              		.loc 1 181 0
  52 0024 09E0     		b	.L4
  53              	.L2:
 177:common/i2c.c  ****     /* Release I2C2 from reset state */
  54              		.loc 1 177 0
  55 0026 0121     		movs	r1, #1
  56 0028 4FF48000 		mov	r0, #4194304
  57 002c FFF7FEFF 		bl	RCC_APB1PeriphResetCmd
 179:common/i2c.c  ****   }
  58              		.loc 1 179 0
  59 0030 0021     		movs	r1, #0
  60 0032 4FF48000 		mov	r0, #4194304
  61 0036 FFF7FEFF 		bl	RCC_APB1PeriphResetCmd
  62              	.L4:
  63              		.loc 1 181 0
  64 003a 00BF     		nop
  65 003c 0837     		adds	r7, r7, #8
  66              		.cfi_def_cfa_offset 8
  67 003e BD46     		mov	sp, r7
  68              		.cfi_def_cfa_register 13
  69              		@ sp needed
  70 0040 80BD     		pop	{r7, pc}
  71              	.L6:
  72 0042 00BF     		.align	2
  73              	.L5:
  74 0044 00540040 		.word	1073763328
  75              		.cfi_endproc
  76              	.LFE63:
  77              		.size	I2C_DeInit, .-I2C_DeInit
  78              		.align	1
  79              		.global	I2C_Init
  80              		.syntax unified
  81              		.thumb
  82              		.thumb_func
  83              		.fpu softvfp
  84              		.type	I2C_Init, %function
  85              	I2C_Init:
  86              	.LFB64:
 182:common/i2c.c  **** 
 183:common/i2c.c  **** /**
 184:common/i2c.c  ****   * @brief  Initializes the I2Cx peripheral according to the specified 
 185:common/i2c.c  ****   *   parameters in the I2C_InitStruct.
 186:common/i2c.c  ****   * @param  I2Cx: where x can be 1 or 2 to select the I2C peripheral.
 187:common/i2c.c  ****   * @param  I2C_InitStruct: pointer to a I2C_InitTypeDef structure that
 188:common/i2c.c  ****   *   contains the configuration information for the specified I2C peripheral.
 189:common/i2c.c  ****   * @retval None
 190:common/i2c.c  ****   */
 191:common/i2c.c  **** void I2C_Init(I2C_TypeDef* I2Cx, I2C_InitTypeDef* I2C_InitStruct)
 192:common/i2c.c  **** {
  87              		.loc 1 192 0
  88              		.cfi_startproc
  89              		@ args = 0, pretend = 0, frame = 40
  90              		@ frame_needed = 1, uses_anonymous_args = 0
  91 0048 80B5     		push	{r7, lr}
ARM GAS  /tmp/ccozkyvL.s 			page 6


  92              		.cfi_def_cfa_offset 8
  93              		.cfi_offset 7, -8
  94              		.cfi_offset 14, -4
  95 004a 8AB0     		sub	sp, sp, #40
  96              		.cfi_def_cfa_offset 48
  97 004c 00AF     		add	r7, sp, #0
  98              		.cfi_def_cfa_register 7
  99 004e 7860     		str	r0, [r7, #4]
 100 0050 3960     		str	r1, [r7]
 193:common/i2c.c  ****   uint16_t tmpreg = 0, freqrange = 0;
 101              		.loc 1 193 0
 102 0052 0023     		movs	r3, #0
 103 0054 FB84     		strh	r3, [r7, #38]	@ movhi
 104 0056 0023     		movs	r3, #0
 105 0058 7B84     		strh	r3, [r7, #34]	@ movhi
 194:common/i2c.c  ****   uint16_t result = 0x04;
 106              		.loc 1 194 0
 107 005a 0423     		movs	r3, #4
 108 005c BB84     		strh	r3, [r7, #36]	@ movhi
 195:common/i2c.c  ****   uint32_t pclk1 = 8000000;
 109              		.loc 1 195 0
 110 005e 574B     		ldr	r3, .L14
 111 0060 FB61     		str	r3, [r7, #28]
 196:common/i2c.c  ****   RCC_ClocksTypeDef  rcc_clocks;
 197:common/i2c.c  ****   /* Check the parameters */
 198:common/i2c.c  ****   assert_param(IS_I2C_ALL_PERIPH(I2Cx));
 199:common/i2c.c  ****   assert_param(IS_I2C_CLOCK_SPEED(I2C_InitStruct->I2C_ClockSpeed));
 200:common/i2c.c  ****   assert_param(IS_I2C_MODE(I2C_InitStruct->I2C_Mode));
 201:common/i2c.c  ****   assert_param(IS_I2C_DUTY_CYCLE(I2C_InitStruct->I2C_DutyCycle));
 202:common/i2c.c  ****   assert_param(IS_I2C_OWN_ADDRESS1(I2C_InitStruct->I2C_OwnAddress1));
 203:common/i2c.c  ****   assert_param(IS_I2C_ACK_STATE(I2C_InitStruct->I2C_Ack));
 204:common/i2c.c  ****   assert_param(IS_I2C_ACKNOWLEDGE_ADDRESS(I2C_InitStruct->I2C_AcknowledgedAddress));
 205:common/i2c.c  **** 
 206:common/i2c.c  **** /*---------------------------- I2Cx CR2 Configuration ------------------------*/
 207:common/i2c.c  ****   /* Get the I2Cx CR2 value */
 208:common/i2c.c  ****   tmpreg = I2Cx->CR2;
 112              		.loc 1 208 0
 113 0062 7B68     		ldr	r3, [r7, #4]
 114 0064 9B88     		ldrh	r3, [r3, #4]	@ movhi
 115 0066 FB84     		strh	r3, [r7, #38]	@ movhi
 209:common/i2c.c  ****   /* Clear frequency FREQ[5:0] bits */
 210:common/i2c.c  ****   tmpreg &= CR2_FREQ_Reset;
 116              		.loc 1 210 0
 117 0068 FB8C     		ldrh	r3, [r7, #38]	@ movhi
 118 006a 23F03F03 		bic	r3, r3, #63
 119 006e FB84     		strh	r3, [r7, #38]	@ movhi
 211:common/i2c.c  ****   /* Get pclk1 frequency value */
 212:common/i2c.c  ****   RCC_GetClocksFreq(&rcc_clocks);
 120              		.loc 1 212 0
 121 0070 07F10803 		add	r3, r7, #8
 122 0074 1846     		mov	r0, r3
 123 0076 FFF7FEFF 		bl	RCC_GetClocksFreq
 213:common/i2c.c  ****   pclk1 = rcc_clocks.PCLK1_Frequency;
 124              		.loc 1 213 0
 125 007a 3B69     		ldr	r3, [r7, #16]
 126 007c FB61     		str	r3, [r7, #28]
 214:common/i2c.c  ****   /* Set frequency bits depending on pclk1 value */
ARM GAS  /tmp/ccozkyvL.s 			page 7


 215:common/i2c.c  ****   freqrange = (uint16_t)(pclk1 / 1000000);
 127              		.loc 1 215 0
 128 007e FB69     		ldr	r3, [r7, #28]
 129 0080 4F4A     		ldr	r2, .L14+4
 130 0082 A2FB0323 		umull	r2, r3, r2, r3
 131 0086 9B0C     		lsrs	r3, r3, #18
 132 0088 7B84     		strh	r3, [r7, #34]	@ movhi
 216:common/i2c.c  ****   tmpreg |= freqrange;
 133              		.loc 1 216 0
 134 008a FA8C     		ldrh	r2, [r7, #38]	@ movhi
 135 008c 7B8C     		ldrh	r3, [r7, #34]	@ movhi
 136 008e 1343     		orrs	r3, r3, r2
 137 0090 FB84     		strh	r3, [r7, #38]	@ movhi
 217:common/i2c.c  ****   /* Write to I2Cx CR2 */
 218:common/i2c.c  ****   I2Cx->CR2 = tmpreg;
 138              		.loc 1 218 0
 139 0092 7B68     		ldr	r3, [r7, #4]
 140 0094 FA8C     		ldrh	r2, [r7, #38]	@ movhi
 141 0096 9A80     		strh	r2, [r3, #4]	@ movhi
 219:common/i2c.c  **** 
 220:common/i2c.c  **** /*---------------------------- I2Cx CCR Configuration ------------------------*/
 221:common/i2c.c  ****   /* Disable the selected I2C peripheral to configure TRISE */
 222:common/i2c.c  ****   I2Cx->CR1 &= CR1_PE_Reset;
 142              		.loc 1 222 0
 143 0098 7B68     		ldr	r3, [r7, #4]
 144 009a 1B88     		ldrh	r3, [r3]	@ movhi
 145 009c 9BB2     		uxth	r3, r3
 146 009e 23F00103 		bic	r3, r3, #1
 147 00a2 9AB2     		uxth	r2, r3
 148 00a4 7B68     		ldr	r3, [r7, #4]
 149 00a6 1A80     		strh	r2, [r3]	@ movhi
 223:common/i2c.c  ****   /* Reset tmpreg value */
 224:common/i2c.c  ****   /* Clear F/S, DUTY and CCR[11:0] bits */
 225:common/i2c.c  ****   tmpreg = 0;
 150              		.loc 1 225 0
 151 00a8 0023     		movs	r3, #0
 152 00aa FB84     		strh	r3, [r7, #38]	@ movhi
 226:common/i2c.c  **** 
 227:common/i2c.c  ****   /* Configure speed in standard mode */
 228:common/i2c.c  ****   if (I2C_InitStruct->I2C_ClockSpeed <= 100000)
 153              		.loc 1 228 0
 154 00ac 3B68     		ldr	r3, [r7]
 155 00ae 1B68     		ldr	r3, [r3]
 156 00b0 444A     		ldr	r2, .L14+8
 157 00b2 9342     		cmp	r3, r2
 158 00b4 15D8     		bhi	.L8
 229:common/i2c.c  ****   {
 230:common/i2c.c  ****     /* Standard mode speed calculate */
 231:common/i2c.c  ****     result = (uint16_t)(pclk1 / (I2C_InitStruct->I2C_ClockSpeed << 1));
 159              		.loc 1 231 0
 160 00b6 3B68     		ldr	r3, [r7]
 161 00b8 1B68     		ldr	r3, [r3]
 162 00ba 5B00     		lsls	r3, r3, #1
 163 00bc FA69     		ldr	r2, [r7, #28]
 164 00be B2FBF3F3 		udiv	r3, r2, r3
 165 00c2 BB84     		strh	r3, [r7, #36]	@ movhi
 232:common/i2c.c  ****     /* Test if CCR value is under 0x4*/
ARM GAS  /tmp/ccozkyvL.s 			page 8


 233:common/i2c.c  ****     if (result < 0x04)
 166              		.loc 1 233 0
 167 00c4 BB8C     		ldrh	r3, [r7, #36]
 168 00c6 032B     		cmp	r3, #3
 169 00c8 01D8     		bhi	.L9
 234:common/i2c.c  ****     {
 235:common/i2c.c  ****       /* Set minimum allowed value */
 236:common/i2c.c  ****       result = 0x04;  
 170              		.loc 1 236 0
 171 00ca 0423     		movs	r3, #4
 172 00cc BB84     		strh	r3, [r7, #36]	@ movhi
 173              	.L9:
 237:common/i2c.c  ****     }
 238:common/i2c.c  ****     /* Set speed value for standard mode */
 239:common/i2c.c  ****     tmpreg |= result;	  
 174              		.loc 1 239 0
 175 00ce FA8C     		ldrh	r2, [r7, #38]	@ movhi
 176 00d0 BB8C     		ldrh	r3, [r7, #36]	@ movhi
 177 00d2 1343     		orrs	r3, r3, r2
 178 00d4 FB84     		strh	r3, [r7, #38]	@ movhi
 240:common/i2c.c  ****     /* Set Maximum Rise Time for standard mode */
 241:common/i2c.c  ****     I2Cx->TRISE = freqrange + 1; 
 179              		.loc 1 241 0
 180 00d6 7B8C     		ldrh	r3, [r7, #34]	@ movhi
 181 00d8 0133     		adds	r3, r3, #1
 182 00da 9AB2     		uxth	r2, r3
 183 00dc 7B68     		ldr	r3, [r7, #4]
 184 00de 1A84     		strh	r2, [r3, #32]	@ movhi
 185 00e0 40E0     		b	.L10
 186              	.L8:
 242:common/i2c.c  ****   }
 243:common/i2c.c  ****   /* Configure speed in fast mode */
 244:common/i2c.c  ****   else /*(I2C_InitStruct->I2C_ClockSpeed <= 400000)*/
 245:common/i2c.c  ****   {
 246:common/i2c.c  ****     if (I2C_InitStruct->I2C_DutyCycle == I2C_DutyCycle_2)
 187              		.loc 1 246 0
 188 00e2 3B68     		ldr	r3, [r7]
 189 00e4 DB88     		ldrh	r3, [r3, #6]
 190 00e6 4BF6FF72 		movw	r2, #49151
 191 00ea 9342     		cmp	r3, r2
 192 00ec 09D1     		bne	.L11
 247:common/i2c.c  ****     {
 248:common/i2c.c  ****       /* Fast mode speed calculate: Tlow/Thigh = 2 */
 249:common/i2c.c  ****       result = (uint16_t)(pclk1 / (I2C_InitStruct->I2C_ClockSpeed * 3));
 193              		.loc 1 249 0
 194 00ee 3B68     		ldr	r3, [r7]
 195 00f0 1A68     		ldr	r2, [r3]
 196 00f2 1346     		mov	r3, r2
 197 00f4 5B00     		lsls	r3, r3, #1
 198 00f6 1344     		add	r3, r3, r2
 199 00f8 FA69     		ldr	r2, [r7, #28]
 200 00fa B2FBF3F3 		udiv	r3, r2, r3
 201 00fe BB84     		strh	r3, [r7, #36]	@ movhi
 202 0100 0EE0     		b	.L12
 203              	.L11:
 250:common/i2c.c  ****     }
 251:common/i2c.c  ****     else /*I2C_InitStruct->I2C_DutyCycle == I2C_DutyCycle_16_9*/
ARM GAS  /tmp/ccozkyvL.s 			page 9


 252:common/i2c.c  ****     {
 253:common/i2c.c  ****       /* Fast mode speed calculate: Tlow/Thigh = 16/9 */
 254:common/i2c.c  ****       result = (uint16_t)(pclk1 / (I2C_InitStruct->I2C_ClockSpeed * 25));
 204              		.loc 1 254 0
 205 0102 3B68     		ldr	r3, [r7]
 206 0104 1A68     		ldr	r2, [r3]
 207 0106 1346     		mov	r3, r2
 208 0108 9B00     		lsls	r3, r3, #2
 209 010a 1344     		add	r3, r3, r2
 210 010c 9A00     		lsls	r2, r3, #2
 211 010e 1344     		add	r3, r3, r2
 212 0110 FA69     		ldr	r2, [r7, #28]
 213 0112 B2FBF3F3 		udiv	r3, r2, r3
 214 0116 BB84     		strh	r3, [r7, #36]	@ movhi
 255:common/i2c.c  ****       /* Set DUTY bit */
 256:common/i2c.c  ****       result |= I2C_DutyCycle_16_9;
 215              		.loc 1 256 0
 216 0118 BB8C     		ldrh	r3, [r7, #36]	@ movhi
 217 011a 43F48043 		orr	r3, r3, #16384
 218 011e BB84     		strh	r3, [r7, #36]	@ movhi
 219              	.L12:
 257:common/i2c.c  ****     }
 258:common/i2c.c  **** 
 259:common/i2c.c  ****     /* Test if CCR value is under 0x1*/
 260:common/i2c.c  ****     if ((result & CCR_CCR_Set) == 0)
 220              		.loc 1 260 0
 221 0120 BB8C     		ldrh	r3, [r7, #36]
 222 0122 C3F30B03 		ubfx	r3, r3, #0, #12
 223 0126 002B     		cmp	r3, #0
 224 0128 03D1     		bne	.L13
 261:common/i2c.c  ****     {
 262:common/i2c.c  ****       /* Set minimum allowed value */
 263:common/i2c.c  ****       result |= (uint16_t)0x0001;  
 225              		.loc 1 263 0
 226 012a BB8C     		ldrh	r3, [r7, #36]	@ movhi
 227 012c 43F00103 		orr	r3, r3, #1
 228 0130 BB84     		strh	r3, [r7, #36]	@ movhi
 229              	.L13:
 264:common/i2c.c  ****     }
 265:common/i2c.c  ****     /* Set speed value and set F/S bit for fast mode */
 266:common/i2c.c  ****     tmpreg |= (uint16_t)(result | CCR_FS_Set);
 230              		.loc 1 266 0
 231 0132 BA8C     		ldrh	r2, [r7, #36]	@ movhi
 232 0134 FB8C     		ldrh	r3, [r7, #38]	@ movhi
 233 0136 1343     		orrs	r3, r3, r2
 234 0138 9BB2     		uxth	r3, r3
 235 013a 6FEA4343 		mvn	r3, r3, lsl #17
 236 013e 6FEA5343 		mvn	r3, r3, lsr #17
 237 0142 FB84     		strh	r3, [r7, #38]	@ movhi
 267:common/i2c.c  ****     /* Set Maximum Rise Time for fast mode */
 268:common/i2c.c  ****     I2Cx->TRISE = (uint16_t)(((freqrange * (uint16_t)300) / (uint16_t)1000) + (uint16_t)1);  
 238              		.loc 1 268 0
 239 0144 7B8C     		ldrh	r3, [r7, #34]
 240 0146 4FF49672 		mov	r2, #300
 241 014a 02FB03F3 		mul	r3, r2, r3
 242 014e 1E4A     		ldr	r2, .L14+12
 243 0150 82FB0312 		smull	r1, r2, r2, r3
ARM GAS  /tmp/ccozkyvL.s 			page 10


 244 0154 9211     		asrs	r2, r2, #6
 245 0156 DB17     		asrs	r3, r3, #31
 246 0158 D31A     		subs	r3, r2, r3
 247 015a 9BB2     		uxth	r3, r3
 248 015c 0133     		adds	r3, r3, #1
 249 015e 9AB2     		uxth	r2, r3
 250 0160 7B68     		ldr	r3, [r7, #4]
 251 0162 1A84     		strh	r2, [r3, #32]	@ movhi
 252              	.L10:
 269:common/i2c.c  ****   }
 270:common/i2c.c  **** 
 271:common/i2c.c  ****   /* Write to I2Cx CCR */
 272:common/i2c.c  ****   I2Cx->CCR = tmpreg;
 253              		.loc 1 272 0
 254 0164 7B68     		ldr	r3, [r7, #4]
 255 0166 FA8C     		ldrh	r2, [r7, #38]	@ movhi
 256 0168 9A83     		strh	r2, [r3, #28]	@ movhi
 273:common/i2c.c  ****   /* Enable the selected I2C peripheral */
 274:common/i2c.c  ****   I2Cx->CR1 |= CR1_PE_Set;
 257              		.loc 1 274 0
 258 016a 7B68     		ldr	r3, [r7, #4]
 259 016c 1B88     		ldrh	r3, [r3]	@ movhi
 260 016e 9BB2     		uxth	r3, r3
 261 0170 43F00103 		orr	r3, r3, #1
 262 0174 9AB2     		uxth	r2, r3
 263 0176 7B68     		ldr	r3, [r7, #4]
 264 0178 1A80     		strh	r2, [r3]	@ movhi
 275:common/i2c.c  **** 
 276:common/i2c.c  **** /*---------------------------- I2Cx CR1 Configuration ------------------------*/
 277:common/i2c.c  ****   /* Get the I2Cx CR1 value */
 278:common/i2c.c  ****   tmpreg = I2Cx->CR1;
 265              		.loc 1 278 0
 266 017a 7B68     		ldr	r3, [r7, #4]
 267 017c 1B88     		ldrh	r3, [r3]	@ movhi
 268 017e FB84     		strh	r3, [r7, #38]	@ movhi
 279:common/i2c.c  ****   /* Clear ACK, SMBTYPE and  SMBUS bits */
 280:common/i2c.c  ****   tmpreg &= CR1_CLEAR_Mask;
 269              		.loc 1 280 0
 270 0180 FB8C     		ldrh	r3, [r7, #38]	@ movhi
 271 0182 23F48163 		bic	r3, r3, #1032
 272 0186 23F00203 		bic	r3, r3, #2
 273 018a FB84     		strh	r3, [r7, #38]	@ movhi
 281:common/i2c.c  ****   /* Configure I2Cx: mode and acknowledgement */
 282:common/i2c.c  ****   /* Set SMBTYPE and SMBUS bits according to I2C_Mode value */
 283:common/i2c.c  ****   /* Set ACK bit according to I2C_Ack value */
 284:common/i2c.c  ****   tmpreg |= (uint16_t)((uint32_t)I2C_InitStruct->I2C_Mode | I2C_InitStruct->I2C_Ack);
 274              		.loc 1 284 0
 275 018c 3B68     		ldr	r3, [r7]
 276 018e 9A88     		ldrh	r2, [r3, #4]
 277 0190 3B68     		ldr	r3, [r7]
 278 0192 5B89     		ldrh	r3, [r3, #10]
 279 0194 1343     		orrs	r3, r3, r2
 280 0196 9AB2     		uxth	r2, r3
 281 0198 FB8C     		ldrh	r3, [r7, #38]	@ movhi
 282 019a 1343     		orrs	r3, r3, r2
 283 019c FB84     		strh	r3, [r7, #38]	@ movhi
 285:common/i2c.c  ****   /* Write to I2Cx CR1 */
ARM GAS  /tmp/ccozkyvL.s 			page 11


 286:common/i2c.c  ****   I2Cx->CR1 = tmpreg;
 284              		.loc 1 286 0
 285 019e 7B68     		ldr	r3, [r7, #4]
 286 01a0 FA8C     		ldrh	r2, [r7, #38]	@ movhi
 287 01a2 1A80     		strh	r2, [r3]	@ movhi
 287:common/i2c.c  **** 
 288:common/i2c.c  **** /*---------------------------- I2Cx OAR1 Configuration -----------------------*/
 289:common/i2c.c  ****   /* Set I2Cx Own Address1 and acknowledged address */
 290:common/i2c.c  ****   I2Cx->OAR1 = (I2C_InitStruct->I2C_AcknowledgedAddress | I2C_InitStruct->I2C_OwnAddress1);
 288              		.loc 1 290 0
 289 01a4 3B68     		ldr	r3, [r7]
 290 01a6 9A89     		ldrh	r2, [r3, #12]
 291 01a8 3B68     		ldr	r3, [r7]
 292 01aa 1B89     		ldrh	r3, [r3, #8]
 293 01ac 1343     		orrs	r3, r3, r2
 294 01ae 9AB2     		uxth	r2, r3
 295 01b0 7B68     		ldr	r3, [r7, #4]
 296 01b2 1A81     		strh	r2, [r3, #8]	@ movhi
 291:common/i2c.c  **** }
 297              		.loc 1 291 0
 298 01b4 00BF     		nop
 299 01b6 2837     		adds	r7, r7, #40
 300              		.cfi_def_cfa_offset 8
 301 01b8 BD46     		mov	sp, r7
 302              		.cfi_def_cfa_register 13
 303              		@ sp needed
 304 01ba 80BD     		pop	{r7, pc}
 305              	.L15:
 306              		.align	2
 307              	.L14:
 308 01bc 00127A00 		.word	8000000
 309 01c0 83DE1B43 		.word	1125899907
 310 01c4 A0860100 		.word	100000
 311 01c8 D34D6210 		.word	274877907
 312              		.cfi_endproc
 313              	.LFE64:
 314              		.size	I2C_Init, .-I2C_Init
 315              		.align	1
 316              		.global	I2C_StructInit
 317              		.syntax unified
 318              		.thumb
 319              		.thumb_func
 320              		.fpu softvfp
 321              		.type	I2C_StructInit, %function
 322              	I2C_StructInit:
 323              	.LFB65:
 292:common/i2c.c  **** 
 293:common/i2c.c  **** /**
 294:common/i2c.c  ****   * @brief  Fills each I2C_InitStruct member with its default value.
 295:common/i2c.c  ****   * @param  I2C_InitStruct: pointer to an I2C_InitTypeDef structure which will be initialized.
 296:common/i2c.c  ****   * @retval None
 297:common/i2c.c  ****   */
 298:common/i2c.c  **** void I2C_StructInit(I2C_InitTypeDef* I2C_InitStruct)
 299:common/i2c.c  **** {
 324              		.loc 1 299 0
 325              		.cfi_startproc
 326              		@ args = 0, pretend = 0, frame = 8
ARM GAS  /tmp/ccozkyvL.s 			page 12


 327              		@ frame_needed = 1, uses_anonymous_args = 0
 328              		@ link register save eliminated.
 329 01cc 80B4     		push	{r7}
 330              		.cfi_def_cfa_offset 4
 331              		.cfi_offset 7, -4
 332 01ce 83B0     		sub	sp, sp, #12
 333              		.cfi_def_cfa_offset 16
 334 01d0 00AF     		add	r7, sp, #0
 335              		.cfi_def_cfa_register 7
 336 01d2 7860     		str	r0, [r7, #4]
 300:common/i2c.c  **** /*---------------- Reset I2C init structure parameters values ----------------*/
 301:common/i2c.c  ****   /* initialize the I2C_ClockSpeed member */
 302:common/i2c.c  ****   I2C_InitStruct->I2C_ClockSpeed = 5000;
 337              		.loc 1 302 0
 338 01d4 7B68     		ldr	r3, [r7, #4]
 339 01d6 41F28832 		movw	r2, #5000
 340 01da 1A60     		str	r2, [r3]
 303:common/i2c.c  ****   /* Initialize the I2C_Mode member */
 304:common/i2c.c  ****   I2C_InitStruct->I2C_Mode = I2C_Mode_I2C;
 341              		.loc 1 304 0
 342 01dc 7B68     		ldr	r3, [r7, #4]
 343 01de 0022     		movs	r2, #0
 344 01e0 9A80     		strh	r2, [r3, #4]	@ movhi
 305:common/i2c.c  ****   /* Initialize the I2C_DutyCycle member */
 306:common/i2c.c  ****   I2C_InitStruct->I2C_DutyCycle = I2C_DutyCycle_2;
 345              		.loc 1 306 0
 346 01e2 7B68     		ldr	r3, [r7, #4]
 347 01e4 4BF6FF72 		movw	r2, #49151
 348 01e8 DA80     		strh	r2, [r3, #6]	@ movhi
 307:common/i2c.c  ****   /* Initialize the I2C_OwnAddress1 member */
 308:common/i2c.c  ****   I2C_InitStruct->I2C_OwnAddress1 = 0;
 349              		.loc 1 308 0
 350 01ea 7B68     		ldr	r3, [r7, #4]
 351 01ec 0022     		movs	r2, #0
 352 01ee 1A81     		strh	r2, [r3, #8]	@ movhi
 309:common/i2c.c  ****   /* Initialize the I2C_Ack member */
 310:common/i2c.c  ****   I2C_InitStruct->I2C_Ack = I2C_Ack_Disable;
 353              		.loc 1 310 0
 354 01f0 7B68     		ldr	r3, [r7, #4]
 355 01f2 0022     		movs	r2, #0
 356 01f4 5A81     		strh	r2, [r3, #10]	@ movhi
 311:common/i2c.c  ****   /* Initialize the I2C_AcknowledgedAddress member */
 312:common/i2c.c  ****   I2C_InitStruct->I2C_AcknowledgedAddress = I2C_AcknowledgedAddress_7bit;
 357              		.loc 1 312 0
 358 01f6 7B68     		ldr	r3, [r7, #4]
 359 01f8 4FF48042 		mov	r2, #16384
 360 01fc 9A81     		strh	r2, [r3, #12]	@ movhi
 313:common/i2c.c  **** }
 361              		.loc 1 313 0
 362 01fe 00BF     		nop
 363 0200 0C37     		adds	r7, r7, #12
 364              		.cfi_def_cfa_offset 4
 365 0202 BD46     		mov	sp, r7
 366              		.cfi_def_cfa_register 13
 367              		@ sp needed
 368 0204 80BC     		pop	{r7}
 369              		.cfi_restore 7
ARM GAS  /tmp/ccozkyvL.s 			page 13


 370              		.cfi_def_cfa_offset 0
 371 0206 7047     		bx	lr
 372              		.cfi_endproc
 373              	.LFE65:
 374              		.size	I2C_StructInit, .-I2C_StructInit
 375              		.align	1
 376              		.global	I2C_Cmd
 377              		.syntax unified
 378              		.thumb
 379              		.thumb_func
 380              		.fpu softvfp
 381              		.type	I2C_Cmd, %function
 382              	I2C_Cmd:
 383              	.LFB66:
 314:common/i2c.c  **** 
 315:common/i2c.c  **** /**
 316:common/i2c.c  ****   * @brief  Enables or disables the specified I2C peripheral.
 317:common/i2c.c  ****   * @param  I2Cx: where x can be 1 or 2 to select the I2C peripheral.
 318:common/i2c.c  ****   * @param  NewState: new state of the I2Cx peripheral. 
 319:common/i2c.c  ****   *   This parameter can be: ENABLE or DISABLE.
 320:common/i2c.c  ****   * @retval None
 321:common/i2c.c  ****   */
 322:common/i2c.c  **** void I2C_Cmd(I2C_TypeDef* I2Cx, FunctionalState NewState)
 323:common/i2c.c  **** {
 384              		.loc 1 323 0
 385              		.cfi_startproc
 386              		@ args = 0, pretend = 0, frame = 8
 387              		@ frame_needed = 1, uses_anonymous_args = 0
 388              		@ link register save eliminated.
 389 0208 80B4     		push	{r7}
 390              		.cfi_def_cfa_offset 4
 391              		.cfi_offset 7, -4
 392 020a 83B0     		sub	sp, sp, #12
 393              		.cfi_def_cfa_offset 16
 394 020c 00AF     		add	r7, sp, #0
 395              		.cfi_def_cfa_register 7
 396 020e 7860     		str	r0, [r7, #4]
 397 0210 0B46     		mov	r3, r1
 398 0212 FB70     		strb	r3, [r7, #3]
 324:common/i2c.c  ****   /* Check the parameters */
 325:common/i2c.c  ****   assert_param(IS_I2C_ALL_PERIPH(I2Cx));
 326:common/i2c.c  ****   assert_param(IS_FUNCTIONAL_STATE(NewState));
 327:common/i2c.c  ****   if (NewState != DISABLE)
 399              		.loc 1 327 0
 400 0214 FB78     		ldrb	r3, [r7, #3]	@ zero_extendqisi2
 401 0216 002B     		cmp	r3, #0
 402 0218 08D0     		beq	.L18
 328:common/i2c.c  ****   {
 329:common/i2c.c  ****     /* Enable the selected I2C peripheral */
 330:common/i2c.c  ****     I2Cx->CR1 |= CR1_PE_Set;
 403              		.loc 1 330 0
 404 021a 7B68     		ldr	r3, [r7, #4]
 405 021c 1B88     		ldrh	r3, [r3]	@ movhi
 406 021e 9BB2     		uxth	r3, r3
 407 0220 43F00103 		orr	r3, r3, #1
 408 0224 9AB2     		uxth	r2, r3
 409 0226 7B68     		ldr	r3, [r7, #4]
ARM GAS  /tmp/ccozkyvL.s 			page 14


 410 0228 1A80     		strh	r2, [r3]	@ movhi
 331:common/i2c.c  ****   }
 332:common/i2c.c  ****   else
 333:common/i2c.c  ****   {
 334:common/i2c.c  ****     /* Disable the selected I2C peripheral */
 335:common/i2c.c  ****     I2Cx->CR1 &= CR1_PE_Reset;
 336:common/i2c.c  ****   }
 337:common/i2c.c  **** }
 411              		.loc 1 337 0
 412 022a 07E0     		b	.L20
 413              	.L18:
 335:common/i2c.c  ****   }
 414              		.loc 1 335 0
 415 022c 7B68     		ldr	r3, [r7, #4]
 416 022e 1B88     		ldrh	r3, [r3]	@ movhi
 417 0230 9BB2     		uxth	r3, r3
 418 0232 23F00103 		bic	r3, r3, #1
 419 0236 9AB2     		uxth	r2, r3
 420 0238 7B68     		ldr	r3, [r7, #4]
 421 023a 1A80     		strh	r2, [r3]	@ movhi
 422              	.L20:
 423              		.loc 1 337 0
 424 023c 00BF     		nop
 425 023e 0C37     		adds	r7, r7, #12
 426              		.cfi_def_cfa_offset 4
 427 0240 BD46     		mov	sp, r7
 428              		.cfi_def_cfa_register 13
 429              		@ sp needed
 430 0242 80BC     		pop	{r7}
 431              		.cfi_restore 7
 432              		.cfi_def_cfa_offset 0
 433 0244 7047     		bx	lr
 434              		.cfi_endproc
 435              	.LFE66:
 436              		.size	I2C_Cmd, .-I2C_Cmd
 437              		.align	1
 438              		.global	I2C_DMACmd
 439              		.syntax unified
 440              		.thumb
 441              		.thumb_func
 442              		.fpu softvfp
 443              		.type	I2C_DMACmd, %function
 444              	I2C_DMACmd:
 445              	.LFB67:
 338:common/i2c.c  **** 
 339:common/i2c.c  **** /**
 340:common/i2c.c  ****   * @brief  Enables or disables the specified I2C DMA requests.
 341:common/i2c.c  ****   * @param  I2Cx: where x can be 1 or 2 to select the I2C peripheral.
 342:common/i2c.c  ****   * @param  NewState: new state of the I2C DMA transfer.
 343:common/i2c.c  ****   *   This parameter can be: ENABLE or DISABLE.
 344:common/i2c.c  ****   * @retval None
 345:common/i2c.c  ****   */
 346:common/i2c.c  **** void I2C_DMACmd(I2C_TypeDef* I2Cx, FunctionalState NewState)
 347:common/i2c.c  **** {
 446              		.loc 1 347 0
 447              		.cfi_startproc
 448              		@ args = 0, pretend = 0, frame = 8
ARM GAS  /tmp/ccozkyvL.s 			page 15


 449              		@ frame_needed = 1, uses_anonymous_args = 0
 450              		@ link register save eliminated.
 451 0246 80B4     		push	{r7}
 452              		.cfi_def_cfa_offset 4
 453              		.cfi_offset 7, -4
 454 0248 83B0     		sub	sp, sp, #12
 455              		.cfi_def_cfa_offset 16
 456 024a 00AF     		add	r7, sp, #0
 457              		.cfi_def_cfa_register 7
 458 024c 7860     		str	r0, [r7, #4]
 459 024e 0B46     		mov	r3, r1
 460 0250 FB70     		strb	r3, [r7, #3]
 348:common/i2c.c  ****   /* Check the parameters */
 349:common/i2c.c  ****   assert_param(IS_I2C_ALL_PERIPH(I2Cx));
 350:common/i2c.c  ****   assert_param(IS_FUNCTIONAL_STATE(NewState));
 351:common/i2c.c  ****   if (NewState != DISABLE)
 461              		.loc 1 351 0
 462 0252 FB78     		ldrb	r3, [r7, #3]	@ zero_extendqisi2
 463 0254 002B     		cmp	r3, #0
 464 0256 08D0     		beq	.L22
 352:common/i2c.c  ****   {
 353:common/i2c.c  ****     /* Enable the selected I2C DMA requests */
 354:common/i2c.c  ****     I2Cx->CR2 |= CR2_DMAEN_Set;
 465              		.loc 1 354 0
 466 0258 7B68     		ldr	r3, [r7, #4]
 467 025a 9B88     		ldrh	r3, [r3, #4]	@ movhi
 468 025c 9BB2     		uxth	r3, r3
 469 025e 43F40063 		orr	r3, r3, #2048
 470 0262 9AB2     		uxth	r2, r3
 471 0264 7B68     		ldr	r3, [r7, #4]
 472 0266 9A80     		strh	r2, [r3, #4]	@ movhi
 355:common/i2c.c  ****   }
 356:common/i2c.c  ****   else
 357:common/i2c.c  ****   {
 358:common/i2c.c  ****     /* Disable the selected I2C DMA requests */
 359:common/i2c.c  ****     I2Cx->CR2 &= CR2_DMAEN_Reset;
 360:common/i2c.c  ****   }
 361:common/i2c.c  **** }
 473              		.loc 1 361 0
 474 0268 07E0     		b	.L24
 475              	.L22:
 359:common/i2c.c  ****   }
 476              		.loc 1 359 0
 477 026a 7B68     		ldr	r3, [r7, #4]
 478 026c 9B88     		ldrh	r3, [r3, #4]	@ movhi
 479 026e 9BB2     		uxth	r3, r3
 480 0270 23F40063 		bic	r3, r3, #2048
 481 0274 9AB2     		uxth	r2, r3
 482 0276 7B68     		ldr	r3, [r7, #4]
 483 0278 9A80     		strh	r2, [r3, #4]	@ movhi
 484              	.L24:
 485              		.loc 1 361 0
 486 027a 00BF     		nop
 487 027c 0C37     		adds	r7, r7, #12
 488              		.cfi_def_cfa_offset 4
 489 027e BD46     		mov	sp, r7
 490              		.cfi_def_cfa_register 13
ARM GAS  /tmp/ccozkyvL.s 			page 16


 491              		@ sp needed
 492 0280 80BC     		pop	{r7}
 493              		.cfi_restore 7
 494              		.cfi_def_cfa_offset 0
 495 0282 7047     		bx	lr
 496              		.cfi_endproc
 497              	.LFE67:
 498              		.size	I2C_DMACmd, .-I2C_DMACmd
 499              		.align	1
 500              		.global	I2C_DMALastTransferCmd
 501              		.syntax unified
 502              		.thumb
 503              		.thumb_func
 504              		.fpu softvfp
 505              		.type	I2C_DMALastTransferCmd, %function
 506              	I2C_DMALastTransferCmd:
 507              	.LFB68:
 362:common/i2c.c  **** 
 363:common/i2c.c  **** /**
 364:common/i2c.c  ****   * @brief  Specifies if the next DMA transfer will be the last one.
 365:common/i2c.c  ****   * @param  I2Cx: where x can be 1 or 2 to select the I2C peripheral.
 366:common/i2c.c  ****   * @param  NewState: new state of the I2C DMA last transfer.
 367:common/i2c.c  ****   *   This parameter can be: ENABLE or DISABLE.
 368:common/i2c.c  ****   * @retval None
 369:common/i2c.c  ****   */
 370:common/i2c.c  **** void I2C_DMALastTransferCmd(I2C_TypeDef* I2Cx, FunctionalState NewState)
 371:common/i2c.c  **** {
 508              		.loc 1 371 0
 509              		.cfi_startproc
 510              		@ args = 0, pretend = 0, frame = 8
 511              		@ frame_needed = 1, uses_anonymous_args = 0
 512              		@ link register save eliminated.
 513 0284 80B4     		push	{r7}
 514              		.cfi_def_cfa_offset 4
 515              		.cfi_offset 7, -4
 516 0286 83B0     		sub	sp, sp, #12
 517              		.cfi_def_cfa_offset 16
 518 0288 00AF     		add	r7, sp, #0
 519              		.cfi_def_cfa_register 7
 520 028a 7860     		str	r0, [r7, #4]
 521 028c 0B46     		mov	r3, r1
 522 028e FB70     		strb	r3, [r7, #3]
 372:common/i2c.c  ****   /* Check the parameters */
 373:common/i2c.c  ****   assert_param(IS_I2C_ALL_PERIPH(I2Cx));
 374:common/i2c.c  ****   assert_param(IS_FUNCTIONAL_STATE(NewState));
 375:common/i2c.c  ****   if (NewState != DISABLE)
 523              		.loc 1 375 0
 524 0290 FB78     		ldrb	r3, [r7, #3]	@ zero_extendqisi2
 525 0292 002B     		cmp	r3, #0
 526 0294 08D0     		beq	.L26
 376:common/i2c.c  ****   {
 377:common/i2c.c  ****     /* Next DMA transfer is the last transfer */
 378:common/i2c.c  ****     I2Cx->CR2 |= CR2_LAST_Set;
 527              		.loc 1 378 0
 528 0296 7B68     		ldr	r3, [r7, #4]
 529 0298 9B88     		ldrh	r3, [r3, #4]	@ movhi
 530 029a 9BB2     		uxth	r3, r3
ARM GAS  /tmp/ccozkyvL.s 			page 17


 531 029c 43F48053 		orr	r3, r3, #4096
 532 02a0 9AB2     		uxth	r2, r3
 533 02a2 7B68     		ldr	r3, [r7, #4]
 534 02a4 9A80     		strh	r2, [r3, #4]	@ movhi
 379:common/i2c.c  ****   }
 380:common/i2c.c  ****   else
 381:common/i2c.c  ****   {
 382:common/i2c.c  ****     /* Next DMA transfer is not the last transfer */
 383:common/i2c.c  ****     I2Cx->CR2 &= CR2_LAST_Reset;
 384:common/i2c.c  ****   }
 385:common/i2c.c  **** }
 535              		.loc 1 385 0
 536 02a6 07E0     		b	.L28
 537              	.L26:
 383:common/i2c.c  ****   }
 538              		.loc 1 383 0
 539 02a8 7B68     		ldr	r3, [r7, #4]
 540 02aa 9B88     		ldrh	r3, [r3, #4]	@ movhi
 541 02ac 9BB2     		uxth	r3, r3
 542 02ae 23F48053 		bic	r3, r3, #4096
 543 02b2 9AB2     		uxth	r2, r3
 544 02b4 7B68     		ldr	r3, [r7, #4]
 545 02b6 9A80     		strh	r2, [r3, #4]	@ movhi
 546              	.L28:
 547              		.loc 1 385 0
 548 02b8 00BF     		nop
 549 02ba 0C37     		adds	r7, r7, #12
 550              		.cfi_def_cfa_offset 4
 551 02bc BD46     		mov	sp, r7
 552              		.cfi_def_cfa_register 13
 553              		@ sp needed
 554 02be 80BC     		pop	{r7}
 555              		.cfi_restore 7
 556              		.cfi_def_cfa_offset 0
 557 02c0 7047     		bx	lr
 558              		.cfi_endproc
 559              	.LFE68:
 560              		.size	I2C_DMALastTransferCmd, .-I2C_DMALastTransferCmd
 561              		.align	1
 562              		.global	I2C_GenerateSTART
 563              		.syntax unified
 564              		.thumb
 565              		.thumb_func
 566              		.fpu softvfp
 567              		.type	I2C_GenerateSTART, %function
 568              	I2C_GenerateSTART:
 569              	.LFB69:
 386:common/i2c.c  **** 
 387:common/i2c.c  **** /**
 388:common/i2c.c  ****   * @brief  Generates I2Cx communication START condition.
 389:common/i2c.c  ****   * @param  I2Cx: where x can be 1 or 2 to select the I2C peripheral.
 390:common/i2c.c  ****   * @param  NewState: new state of the I2C START condition generation.
 391:common/i2c.c  ****   *   This parameter can be: ENABLE or DISABLE.
 392:common/i2c.c  ****   * @retval None.
 393:common/i2c.c  ****   */
 394:common/i2c.c  **** void I2C_GenerateSTART(I2C_TypeDef* I2Cx, FunctionalState NewState)
 395:common/i2c.c  **** {
ARM GAS  /tmp/ccozkyvL.s 			page 18


 570              		.loc 1 395 0
 571              		.cfi_startproc
 572              		@ args = 0, pretend = 0, frame = 8
 573              		@ frame_needed = 1, uses_anonymous_args = 0
 574              		@ link register save eliminated.
 575 02c2 80B4     		push	{r7}
 576              		.cfi_def_cfa_offset 4
 577              		.cfi_offset 7, -4
 578 02c4 83B0     		sub	sp, sp, #12
 579              		.cfi_def_cfa_offset 16
 580 02c6 00AF     		add	r7, sp, #0
 581              		.cfi_def_cfa_register 7
 582 02c8 7860     		str	r0, [r7, #4]
 583 02ca 0B46     		mov	r3, r1
 584 02cc FB70     		strb	r3, [r7, #3]
 396:common/i2c.c  ****   /* Check the parameters */
 397:common/i2c.c  ****   assert_param(IS_I2C_ALL_PERIPH(I2Cx));
 398:common/i2c.c  ****   assert_param(IS_FUNCTIONAL_STATE(NewState));
 399:common/i2c.c  ****   if (NewState != DISABLE)
 585              		.loc 1 399 0
 586 02ce FB78     		ldrb	r3, [r7, #3]	@ zero_extendqisi2
 587 02d0 002B     		cmp	r3, #0
 588 02d2 08D0     		beq	.L30
 400:common/i2c.c  ****   {
 401:common/i2c.c  ****     /* Generate a START condition */
 402:common/i2c.c  ****     I2Cx->CR1 |= CR1_START_Set;
 589              		.loc 1 402 0
 590 02d4 7B68     		ldr	r3, [r7, #4]
 591 02d6 1B88     		ldrh	r3, [r3]	@ movhi
 592 02d8 9BB2     		uxth	r3, r3
 593 02da 43F48073 		orr	r3, r3, #256
 594 02de 9AB2     		uxth	r2, r3
 595 02e0 7B68     		ldr	r3, [r7, #4]
 596 02e2 1A80     		strh	r2, [r3]	@ movhi
 403:common/i2c.c  ****   }
 404:common/i2c.c  ****   else
 405:common/i2c.c  ****   {
 406:common/i2c.c  ****     /* Disable the START condition generation */
 407:common/i2c.c  ****     I2Cx->CR1 &= CR1_START_Reset;
 408:common/i2c.c  ****   }
 409:common/i2c.c  **** }
 597              		.loc 1 409 0
 598 02e4 07E0     		b	.L32
 599              	.L30:
 407:common/i2c.c  ****   }
 600              		.loc 1 407 0
 601 02e6 7B68     		ldr	r3, [r7, #4]
 602 02e8 1B88     		ldrh	r3, [r3]	@ movhi
 603 02ea 9BB2     		uxth	r3, r3
 604 02ec 23F48073 		bic	r3, r3, #256
 605 02f0 9AB2     		uxth	r2, r3
 606 02f2 7B68     		ldr	r3, [r7, #4]
 607 02f4 1A80     		strh	r2, [r3]	@ movhi
 608              	.L32:
 609              		.loc 1 409 0
 610 02f6 00BF     		nop
 611 02f8 0C37     		adds	r7, r7, #12
ARM GAS  /tmp/ccozkyvL.s 			page 19


 612              		.cfi_def_cfa_offset 4
 613 02fa BD46     		mov	sp, r7
 614              		.cfi_def_cfa_register 13
 615              		@ sp needed
 616 02fc 80BC     		pop	{r7}
 617              		.cfi_restore 7
 618              		.cfi_def_cfa_offset 0
 619 02fe 7047     		bx	lr
 620              		.cfi_endproc
 621              	.LFE69:
 622              		.size	I2C_GenerateSTART, .-I2C_GenerateSTART
 623              		.align	1
 624              		.global	I2C_GenerateSTOP
 625              		.syntax unified
 626              		.thumb
 627              		.thumb_func
 628              		.fpu softvfp
 629              		.type	I2C_GenerateSTOP, %function
 630              	I2C_GenerateSTOP:
 631              	.LFB70:
 410:common/i2c.c  **** 
 411:common/i2c.c  **** /**
 412:common/i2c.c  ****   * @brief  Generates I2Cx communication STOP condition.
 413:common/i2c.c  ****   * @param  I2Cx: where x can be 1 or 2 to select the I2C peripheral.
 414:common/i2c.c  ****   * @param  NewState: new state of the I2C STOP condition generation.
 415:common/i2c.c  ****   *   This parameter can be: ENABLE or DISABLE.
 416:common/i2c.c  ****   * @retval None.
 417:common/i2c.c  ****   */
 418:common/i2c.c  **** void I2C_GenerateSTOP(I2C_TypeDef* I2Cx, FunctionalState NewState)
 419:common/i2c.c  **** {
 632              		.loc 1 419 0
 633              		.cfi_startproc
 634              		@ args = 0, pretend = 0, frame = 8
 635              		@ frame_needed = 1, uses_anonymous_args = 0
 636              		@ link register save eliminated.
 637 0300 80B4     		push	{r7}
 638              		.cfi_def_cfa_offset 4
 639              		.cfi_offset 7, -4
 640 0302 83B0     		sub	sp, sp, #12
 641              		.cfi_def_cfa_offset 16
 642 0304 00AF     		add	r7, sp, #0
 643              		.cfi_def_cfa_register 7
 644 0306 7860     		str	r0, [r7, #4]
 645 0308 0B46     		mov	r3, r1
 646 030a FB70     		strb	r3, [r7, #3]
 420:common/i2c.c  ****   /* Check the parameters */
 421:common/i2c.c  ****   assert_param(IS_I2C_ALL_PERIPH(I2Cx));
 422:common/i2c.c  ****   assert_param(IS_FUNCTIONAL_STATE(NewState));
 423:common/i2c.c  ****   if (NewState != DISABLE)
 647              		.loc 1 423 0
 648 030c FB78     		ldrb	r3, [r7, #3]	@ zero_extendqisi2
 649 030e 002B     		cmp	r3, #0
 650 0310 08D0     		beq	.L34
 424:common/i2c.c  ****   {
 425:common/i2c.c  ****     /* Generate a STOP condition */
 426:common/i2c.c  ****     I2Cx->CR1 |= CR1_STOP_Set;
 651              		.loc 1 426 0
ARM GAS  /tmp/ccozkyvL.s 			page 20


 652 0312 7B68     		ldr	r3, [r7, #4]
 653 0314 1B88     		ldrh	r3, [r3]	@ movhi
 654 0316 9BB2     		uxth	r3, r3
 655 0318 43F40073 		orr	r3, r3, #512
 656 031c 9AB2     		uxth	r2, r3
 657 031e 7B68     		ldr	r3, [r7, #4]
 658 0320 1A80     		strh	r2, [r3]	@ movhi
 427:common/i2c.c  ****   }
 428:common/i2c.c  ****   else
 429:common/i2c.c  ****   {
 430:common/i2c.c  ****     /* Disable the STOP condition generation */
 431:common/i2c.c  ****     I2Cx->CR1 &= CR1_STOP_Reset;
 432:common/i2c.c  ****   }
 433:common/i2c.c  **** }
 659              		.loc 1 433 0
 660 0322 07E0     		b	.L36
 661              	.L34:
 431:common/i2c.c  ****   }
 662              		.loc 1 431 0
 663 0324 7B68     		ldr	r3, [r7, #4]
 664 0326 1B88     		ldrh	r3, [r3]	@ movhi
 665 0328 9BB2     		uxth	r3, r3
 666 032a 23F40073 		bic	r3, r3, #512
 667 032e 9AB2     		uxth	r2, r3
 668 0330 7B68     		ldr	r3, [r7, #4]
 669 0332 1A80     		strh	r2, [r3]	@ movhi
 670              	.L36:
 671              		.loc 1 433 0
 672 0334 00BF     		nop
 673 0336 0C37     		adds	r7, r7, #12
 674              		.cfi_def_cfa_offset 4
 675 0338 BD46     		mov	sp, r7
 676              		.cfi_def_cfa_register 13
 677              		@ sp needed
 678 033a 80BC     		pop	{r7}
 679              		.cfi_restore 7
 680              		.cfi_def_cfa_offset 0
 681 033c 7047     		bx	lr
 682              		.cfi_endproc
 683              	.LFE70:
 684              		.size	I2C_GenerateSTOP, .-I2C_GenerateSTOP
 685              		.align	1
 686              		.global	I2C_AcknowledgeConfig
 687              		.syntax unified
 688              		.thumb
 689              		.thumb_func
 690              		.fpu softvfp
 691              		.type	I2C_AcknowledgeConfig, %function
 692              	I2C_AcknowledgeConfig:
 693              	.LFB71:
 434:common/i2c.c  **** 
 435:common/i2c.c  **** /**
 436:common/i2c.c  ****   * @brief  Enables or disables the specified I2C acknowledge feature.
 437:common/i2c.c  ****   * @param  I2Cx: where x can be 1 or 2 to select the I2C peripheral.
 438:common/i2c.c  ****   * @param  NewState: new state of the I2C Acknowledgement.
 439:common/i2c.c  ****   *   This parameter can be: ENABLE or DISABLE.
 440:common/i2c.c  ****   * @retval None.
ARM GAS  /tmp/ccozkyvL.s 			page 21


 441:common/i2c.c  ****   */
 442:common/i2c.c  **** void I2C_AcknowledgeConfig(I2C_TypeDef* I2Cx, FunctionalState NewState)
 443:common/i2c.c  **** {
 694              		.loc 1 443 0
 695              		.cfi_startproc
 696              		@ args = 0, pretend = 0, frame = 8
 697              		@ frame_needed = 1, uses_anonymous_args = 0
 698              		@ link register save eliminated.
 699 033e 80B4     		push	{r7}
 700              		.cfi_def_cfa_offset 4
 701              		.cfi_offset 7, -4
 702 0340 83B0     		sub	sp, sp, #12
 703              		.cfi_def_cfa_offset 16
 704 0342 00AF     		add	r7, sp, #0
 705              		.cfi_def_cfa_register 7
 706 0344 7860     		str	r0, [r7, #4]
 707 0346 0B46     		mov	r3, r1
 708 0348 FB70     		strb	r3, [r7, #3]
 444:common/i2c.c  ****   /* Check the parameters */
 445:common/i2c.c  ****   assert_param(IS_I2C_ALL_PERIPH(I2Cx));
 446:common/i2c.c  ****   assert_param(IS_FUNCTIONAL_STATE(NewState));
 447:common/i2c.c  ****   if (NewState != DISABLE)
 709              		.loc 1 447 0
 710 034a FB78     		ldrb	r3, [r7, #3]	@ zero_extendqisi2
 711 034c 002B     		cmp	r3, #0
 712 034e 08D0     		beq	.L38
 448:common/i2c.c  ****   {
 449:common/i2c.c  ****     /* Enable the acknowledgement */
 450:common/i2c.c  ****     I2Cx->CR1 |= CR1_ACK_Set;
 713              		.loc 1 450 0
 714 0350 7B68     		ldr	r3, [r7, #4]
 715 0352 1B88     		ldrh	r3, [r3]	@ movhi
 716 0354 9BB2     		uxth	r3, r3
 717 0356 43F48063 		orr	r3, r3, #1024
 718 035a 9AB2     		uxth	r2, r3
 719 035c 7B68     		ldr	r3, [r7, #4]
 720 035e 1A80     		strh	r2, [r3]	@ movhi
 451:common/i2c.c  ****   }
 452:common/i2c.c  ****   else
 453:common/i2c.c  ****   {
 454:common/i2c.c  ****     /* Disable the acknowledgement */
 455:common/i2c.c  ****     I2Cx->CR1 &= CR1_ACK_Reset;
 456:common/i2c.c  ****   }
 457:common/i2c.c  **** }
 721              		.loc 1 457 0
 722 0360 07E0     		b	.L40
 723              	.L38:
 455:common/i2c.c  ****   }
 724              		.loc 1 455 0
 725 0362 7B68     		ldr	r3, [r7, #4]
 726 0364 1B88     		ldrh	r3, [r3]	@ movhi
 727 0366 9BB2     		uxth	r3, r3
 728 0368 23F48063 		bic	r3, r3, #1024
 729 036c 9AB2     		uxth	r2, r3
 730 036e 7B68     		ldr	r3, [r7, #4]
 731 0370 1A80     		strh	r2, [r3]	@ movhi
 732              	.L40:
ARM GAS  /tmp/ccozkyvL.s 			page 22


 733              		.loc 1 457 0
 734 0372 00BF     		nop
 735 0374 0C37     		adds	r7, r7, #12
 736              		.cfi_def_cfa_offset 4
 737 0376 BD46     		mov	sp, r7
 738              		.cfi_def_cfa_register 13
 739              		@ sp needed
 740 0378 80BC     		pop	{r7}
 741              		.cfi_restore 7
 742              		.cfi_def_cfa_offset 0
 743 037a 7047     		bx	lr
 744              		.cfi_endproc
 745              	.LFE71:
 746              		.size	I2C_AcknowledgeConfig, .-I2C_AcknowledgeConfig
 747              		.align	1
 748              		.global	I2C_OwnAddress2Config
 749              		.syntax unified
 750              		.thumb
 751              		.thumb_func
 752              		.fpu softvfp
 753              		.type	I2C_OwnAddress2Config, %function
 754              	I2C_OwnAddress2Config:
 755              	.LFB72:
 458:common/i2c.c  **** 
 459:common/i2c.c  **** /**
 460:common/i2c.c  ****   * @brief  Configures the specified I2C own address2.
 461:common/i2c.c  ****   * @param  I2Cx: where x can be 1 or 2 to select the I2C peripheral.
 462:common/i2c.c  ****   * @param  Address: specifies the 7bit I2C own address2.
 463:common/i2c.c  ****   * @retval None.
 464:common/i2c.c  ****   */
 465:common/i2c.c  **** void I2C_OwnAddress2Config(I2C_TypeDef* I2Cx, uint8_t Address)
 466:common/i2c.c  **** {
 756              		.loc 1 466 0
 757              		.cfi_startproc
 758              		@ args = 0, pretend = 0, frame = 16
 759              		@ frame_needed = 1, uses_anonymous_args = 0
 760              		@ link register save eliminated.
 761 037c 80B4     		push	{r7}
 762              		.cfi_def_cfa_offset 4
 763              		.cfi_offset 7, -4
 764 037e 85B0     		sub	sp, sp, #20
 765              		.cfi_def_cfa_offset 24
 766 0380 00AF     		add	r7, sp, #0
 767              		.cfi_def_cfa_register 7
 768 0382 7860     		str	r0, [r7, #4]
 769 0384 0B46     		mov	r3, r1
 770 0386 FB70     		strb	r3, [r7, #3]
 467:common/i2c.c  ****   uint16_t tmpreg = 0;
 771              		.loc 1 467 0
 772 0388 0023     		movs	r3, #0
 773 038a FB81     		strh	r3, [r7, #14]	@ movhi
 468:common/i2c.c  **** 
 469:common/i2c.c  ****   /* Check the parameters */
 470:common/i2c.c  ****   assert_param(IS_I2C_ALL_PERIPH(I2Cx));
 471:common/i2c.c  **** 
 472:common/i2c.c  ****   /* Get the old register value */
 473:common/i2c.c  ****   tmpreg = I2Cx->OAR2;
ARM GAS  /tmp/ccozkyvL.s 			page 23


 774              		.loc 1 473 0
 775 038c 7B68     		ldr	r3, [r7, #4]
 776 038e 9B89     		ldrh	r3, [r3, #12]	@ movhi
 777 0390 FB81     		strh	r3, [r7, #14]	@ movhi
 474:common/i2c.c  **** 
 475:common/i2c.c  ****   /* Reset I2Cx Own address2 bit [7:1] */
 476:common/i2c.c  ****   tmpreg &= OAR2_ADD2_Reset;
 778              		.loc 1 476 0
 779 0392 FB89     		ldrh	r3, [r7, #14]	@ movhi
 780 0394 23F0FE03 		bic	r3, r3, #254
 781 0398 FB81     		strh	r3, [r7, #14]	@ movhi
 477:common/i2c.c  **** 
 478:common/i2c.c  ****   /* Set I2Cx Own address2 */
 479:common/i2c.c  ****   tmpreg |= (uint16_t)((uint16_t)Address & (uint16_t)0x00FE);
 782              		.loc 1 479 0
 783 039a FB78     		ldrb	r3, [r7, #3]	@ zero_extendqisi2
 784 039c 1BB2     		sxth	r3, r3
 785 039e 03F0FE03 		and	r3, r3, #254
 786 03a2 1AB2     		sxth	r2, r3
 787 03a4 B7F90E30 		ldrsh	r3, [r7, #14]
 788 03a8 1343     		orrs	r3, r3, r2
 789 03aa 1BB2     		sxth	r3, r3
 790 03ac FB81     		strh	r3, [r7, #14]	@ movhi
 480:common/i2c.c  **** 
 481:common/i2c.c  ****   /* Store the new register value */
 482:common/i2c.c  ****   I2Cx->OAR2 = tmpreg;
 791              		.loc 1 482 0
 792 03ae 7B68     		ldr	r3, [r7, #4]
 793 03b0 FA89     		ldrh	r2, [r7, #14]	@ movhi
 794 03b2 9A81     		strh	r2, [r3, #12]	@ movhi
 483:common/i2c.c  **** }
 795              		.loc 1 483 0
 796 03b4 00BF     		nop
 797 03b6 1437     		adds	r7, r7, #20
 798              		.cfi_def_cfa_offset 4
 799 03b8 BD46     		mov	sp, r7
 800              		.cfi_def_cfa_register 13
 801              		@ sp needed
 802 03ba 80BC     		pop	{r7}
 803              		.cfi_restore 7
 804              		.cfi_def_cfa_offset 0
 805 03bc 7047     		bx	lr
 806              		.cfi_endproc
 807              	.LFE72:
 808              		.size	I2C_OwnAddress2Config, .-I2C_OwnAddress2Config
 809              		.align	1
 810              		.global	I2C_DualAddressCmd
 811              		.syntax unified
 812              		.thumb
 813              		.thumb_func
 814              		.fpu softvfp
 815              		.type	I2C_DualAddressCmd, %function
 816              	I2C_DualAddressCmd:
 817              	.LFB73:
 484:common/i2c.c  **** 
 485:common/i2c.c  **** /**
 486:common/i2c.c  ****   * @brief  Enables or disables the specified I2C dual addressing mode.
ARM GAS  /tmp/ccozkyvL.s 			page 24


 487:common/i2c.c  ****   * @param  I2Cx: where x can be 1 or 2 to select the I2C peripheral.
 488:common/i2c.c  ****   * @param  NewState: new state of the I2C dual addressing mode.
 489:common/i2c.c  ****   *   This parameter can be: ENABLE or DISABLE.
 490:common/i2c.c  ****   * @retval None
 491:common/i2c.c  ****   */
 492:common/i2c.c  **** void I2C_DualAddressCmd(I2C_TypeDef* I2Cx, FunctionalState NewState)
 493:common/i2c.c  **** {
 818              		.loc 1 493 0
 819              		.cfi_startproc
 820              		@ args = 0, pretend = 0, frame = 8
 821              		@ frame_needed = 1, uses_anonymous_args = 0
 822              		@ link register save eliminated.
 823 03be 80B4     		push	{r7}
 824              		.cfi_def_cfa_offset 4
 825              		.cfi_offset 7, -4
 826 03c0 83B0     		sub	sp, sp, #12
 827              		.cfi_def_cfa_offset 16
 828 03c2 00AF     		add	r7, sp, #0
 829              		.cfi_def_cfa_register 7
 830 03c4 7860     		str	r0, [r7, #4]
 831 03c6 0B46     		mov	r3, r1
 832 03c8 FB70     		strb	r3, [r7, #3]
 494:common/i2c.c  ****   /* Check the parameters */
 495:common/i2c.c  ****   assert_param(IS_I2C_ALL_PERIPH(I2Cx));
 496:common/i2c.c  ****   assert_param(IS_FUNCTIONAL_STATE(NewState));
 497:common/i2c.c  ****   if (NewState != DISABLE)
 833              		.loc 1 497 0
 834 03ca FB78     		ldrb	r3, [r7, #3]	@ zero_extendqisi2
 835 03cc 002B     		cmp	r3, #0
 836 03ce 08D0     		beq	.L43
 498:common/i2c.c  ****   {
 499:common/i2c.c  ****     /* Enable dual addressing mode */
 500:common/i2c.c  ****     I2Cx->OAR2 |= OAR2_ENDUAL_Set;
 837              		.loc 1 500 0
 838 03d0 7B68     		ldr	r3, [r7, #4]
 839 03d2 9B89     		ldrh	r3, [r3, #12]	@ movhi
 840 03d4 9BB2     		uxth	r3, r3
 841 03d6 43F00103 		orr	r3, r3, #1
 842 03da 9AB2     		uxth	r2, r3
 843 03dc 7B68     		ldr	r3, [r7, #4]
 844 03de 9A81     		strh	r2, [r3, #12]	@ movhi
 501:common/i2c.c  ****   }
 502:common/i2c.c  ****   else
 503:common/i2c.c  ****   {
 504:common/i2c.c  ****     /* Disable dual addressing mode */
 505:common/i2c.c  ****     I2Cx->OAR2 &= OAR2_ENDUAL_Reset;
 506:common/i2c.c  ****   }
 507:common/i2c.c  **** }
 845              		.loc 1 507 0
 846 03e0 07E0     		b	.L45
 847              	.L43:
 505:common/i2c.c  ****   }
 848              		.loc 1 505 0
 849 03e2 7B68     		ldr	r3, [r7, #4]
 850 03e4 9B89     		ldrh	r3, [r3, #12]	@ movhi
 851 03e6 9BB2     		uxth	r3, r3
 852 03e8 23F00103 		bic	r3, r3, #1
ARM GAS  /tmp/ccozkyvL.s 			page 25


 853 03ec 9AB2     		uxth	r2, r3
 854 03ee 7B68     		ldr	r3, [r7, #4]
 855 03f0 9A81     		strh	r2, [r3, #12]	@ movhi
 856              	.L45:
 857              		.loc 1 507 0
 858 03f2 00BF     		nop
 859 03f4 0C37     		adds	r7, r7, #12
 860              		.cfi_def_cfa_offset 4
 861 03f6 BD46     		mov	sp, r7
 862              		.cfi_def_cfa_register 13
 863              		@ sp needed
 864 03f8 80BC     		pop	{r7}
 865              		.cfi_restore 7
 866              		.cfi_def_cfa_offset 0
 867 03fa 7047     		bx	lr
 868              		.cfi_endproc
 869              	.LFE73:
 870              		.size	I2C_DualAddressCmd, .-I2C_DualAddressCmd
 871              		.align	1
 872              		.global	I2C_GeneralCallCmd
 873              		.syntax unified
 874              		.thumb
 875              		.thumb_func
 876              		.fpu softvfp
 877              		.type	I2C_GeneralCallCmd, %function
 878              	I2C_GeneralCallCmd:
 879              	.LFB74:
 508:common/i2c.c  **** 
 509:common/i2c.c  **** /**
 510:common/i2c.c  ****   * @brief  Enables or disables the specified I2C general call feature.
 511:common/i2c.c  ****   * @param  I2Cx: where x can be 1 or 2 to select the I2C peripheral.
 512:common/i2c.c  ****   * @param  NewState: new state of the I2C General call.
 513:common/i2c.c  ****   *   This parameter can be: ENABLE or DISABLE.
 514:common/i2c.c  ****   * @retval None
 515:common/i2c.c  ****   */
 516:common/i2c.c  **** void I2C_GeneralCallCmd(I2C_TypeDef* I2Cx, FunctionalState NewState)
 517:common/i2c.c  **** {
 880              		.loc 1 517 0
 881              		.cfi_startproc
 882              		@ args = 0, pretend = 0, frame = 8
 883              		@ frame_needed = 1, uses_anonymous_args = 0
 884              		@ link register save eliminated.
 885 03fc 80B4     		push	{r7}
 886              		.cfi_def_cfa_offset 4
 887              		.cfi_offset 7, -4
 888 03fe 83B0     		sub	sp, sp, #12
 889              		.cfi_def_cfa_offset 16
 890 0400 00AF     		add	r7, sp, #0
 891              		.cfi_def_cfa_register 7
 892 0402 7860     		str	r0, [r7, #4]
 893 0404 0B46     		mov	r3, r1
 894 0406 FB70     		strb	r3, [r7, #3]
 518:common/i2c.c  ****   /* Check the parameters */
 519:common/i2c.c  ****   assert_param(IS_I2C_ALL_PERIPH(I2Cx));
 520:common/i2c.c  ****   assert_param(IS_FUNCTIONAL_STATE(NewState));
 521:common/i2c.c  ****   if (NewState != DISABLE)
 895              		.loc 1 521 0
ARM GAS  /tmp/ccozkyvL.s 			page 26


 896 0408 FB78     		ldrb	r3, [r7, #3]	@ zero_extendqisi2
 897 040a 002B     		cmp	r3, #0
 898 040c 08D0     		beq	.L47
 522:common/i2c.c  ****   {
 523:common/i2c.c  ****     /* Enable generall call */
 524:common/i2c.c  ****     I2Cx->CR1 |= CR1_ENGC_Set;
 899              		.loc 1 524 0
 900 040e 7B68     		ldr	r3, [r7, #4]
 901 0410 1B88     		ldrh	r3, [r3]	@ movhi
 902 0412 9BB2     		uxth	r3, r3
 903 0414 43F04003 		orr	r3, r3, #64
 904 0418 9AB2     		uxth	r2, r3
 905 041a 7B68     		ldr	r3, [r7, #4]
 906 041c 1A80     		strh	r2, [r3]	@ movhi
 525:common/i2c.c  ****   }
 526:common/i2c.c  ****   else
 527:common/i2c.c  ****   {
 528:common/i2c.c  ****     /* Disable generall call */
 529:common/i2c.c  ****     I2Cx->CR1 &= CR1_ENGC_Reset;
 530:common/i2c.c  ****   }
 531:common/i2c.c  **** }
 907              		.loc 1 531 0
 908 041e 07E0     		b	.L49
 909              	.L47:
 529:common/i2c.c  ****   }
 910              		.loc 1 529 0
 911 0420 7B68     		ldr	r3, [r7, #4]
 912 0422 1B88     		ldrh	r3, [r3]	@ movhi
 913 0424 9BB2     		uxth	r3, r3
 914 0426 23F04003 		bic	r3, r3, #64
 915 042a 9AB2     		uxth	r2, r3
 916 042c 7B68     		ldr	r3, [r7, #4]
 917 042e 1A80     		strh	r2, [r3]	@ movhi
 918              	.L49:
 919              		.loc 1 531 0
 920 0430 00BF     		nop
 921 0432 0C37     		adds	r7, r7, #12
 922              		.cfi_def_cfa_offset 4
 923 0434 BD46     		mov	sp, r7
 924              		.cfi_def_cfa_register 13
 925              		@ sp needed
 926 0436 80BC     		pop	{r7}
 927              		.cfi_restore 7
 928              		.cfi_def_cfa_offset 0
 929 0438 7047     		bx	lr
 930              		.cfi_endproc
 931              	.LFE74:
 932              		.size	I2C_GeneralCallCmd, .-I2C_GeneralCallCmd
 933              		.align	1
 934              		.global	I2C_ITConfig
 935              		.syntax unified
 936              		.thumb
 937              		.thumb_func
 938              		.fpu softvfp
 939              		.type	I2C_ITConfig, %function
 940              	I2C_ITConfig:
 941              	.LFB75:
ARM GAS  /tmp/ccozkyvL.s 			page 27


 532:common/i2c.c  **** 
 533:common/i2c.c  **** /**
 534:common/i2c.c  ****   * @brief  Enables or disables the specified I2C interrupts.
 535:common/i2c.c  ****   * @param  I2Cx: where x can be 1 or 2 to select the I2C peripheral.
 536:common/i2c.c  ****   * @param  I2C_IT: specifies the I2C interrupts sources to be enabled or disabled. 
 537:common/i2c.c  ****   *   This parameter can be any combination of the following values:
 538:common/i2c.c  ****   *     @arg I2C_IT_BUF: Buffer interrupt mask
 539:common/i2c.c  ****   *     @arg I2C_IT_EVT: Event interrupt mask
 540:common/i2c.c  ****   *     @arg I2C_IT_ERR: Error interrupt mask
 541:common/i2c.c  ****   * @param  NewState: new state of the specified I2C interrupts.
 542:common/i2c.c  ****   *   This parameter can be: ENABLE or DISABLE.
 543:common/i2c.c  ****   * @retval None
 544:common/i2c.c  ****   */
 545:common/i2c.c  **** void I2C_ITConfig(I2C_TypeDef* I2Cx, uint16_t I2C_IT, FunctionalState NewState)
 546:common/i2c.c  **** {
 942              		.loc 1 546 0
 943              		.cfi_startproc
 944              		@ args = 0, pretend = 0, frame = 8
 945              		@ frame_needed = 1, uses_anonymous_args = 0
 946              		@ link register save eliminated.
 947 043a 80B4     		push	{r7}
 948              		.cfi_def_cfa_offset 4
 949              		.cfi_offset 7, -4
 950 043c 83B0     		sub	sp, sp, #12
 951              		.cfi_def_cfa_offset 16
 952 043e 00AF     		add	r7, sp, #0
 953              		.cfi_def_cfa_register 7
 954 0440 7860     		str	r0, [r7, #4]
 955 0442 0B46     		mov	r3, r1
 956 0444 7B80     		strh	r3, [r7, #2]	@ movhi
 957 0446 1346     		mov	r3, r2
 958 0448 7B70     		strb	r3, [r7, #1]
 547:common/i2c.c  ****   /* Check the parameters */
 548:common/i2c.c  ****   assert_param(IS_I2C_ALL_PERIPH(I2Cx));
 549:common/i2c.c  ****   assert_param(IS_FUNCTIONAL_STATE(NewState));
 550:common/i2c.c  ****   assert_param(IS_I2C_CONFIG_IT(I2C_IT));
 551:common/i2c.c  ****   
 552:common/i2c.c  ****   if (NewState != DISABLE)
 959              		.loc 1 552 0
 960 044a 7B78     		ldrb	r3, [r7, #1]	@ zero_extendqisi2
 961 044c 002B     		cmp	r3, #0
 962 044e 08D0     		beq	.L51
 553:common/i2c.c  ****   {
 554:common/i2c.c  ****     /* Enable the selected I2C interrupts */
 555:common/i2c.c  ****     I2Cx->CR2 |= I2C_IT;
 963              		.loc 1 555 0
 964 0450 7B68     		ldr	r3, [r7, #4]
 965 0452 9B88     		ldrh	r3, [r3, #4]	@ movhi
 966 0454 9AB2     		uxth	r2, r3
 967 0456 7B88     		ldrh	r3, [r7, #2]	@ movhi
 968 0458 1343     		orrs	r3, r3, r2
 969 045a 9AB2     		uxth	r2, r3
 970 045c 7B68     		ldr	r3, [r7, #4]
 971 045e 9A80     		strh	r2, [r3, #4]	@ movhi
 556:common/i2c.c  ****   }
 557:common/i2c.c  ****   else
 558:common/i2c.c  ****   {
ARM GAS  /tmp/ccozkyvL.s 			page 28


 559:common/i2c.c  ****     /* Disable the selected I2C interrupts */
 560:common/i2c.c  ****     I2Cx->CR2 &= (uint16_t)~I2C_IT;
 561:common/i2c.c  ****   }
 562:common/i2c.c  **** }
 972              		.loc 1 562 0
 973 0460 09E0     		b	.L53
 974              	.L51:
 560:common/i2c.c  ****   }
 975              		.loc 1 560 0
 976 0462 7B68     		ldr	r3, [r7, #4]
 977 0464 9B88     		ldrh	r3, [r3, #4]	@ movhi
 978 0466 9AB2     		uxth	r2, r3
 979 0468 7B88     		ldrh	r3, [r7, #2]	@ movhi
 980 046a DB43     		mvns	r3, r3
 981 046c 9BB2     		uxth	r3, r3
 982 046e 1340     		ands	r3, r3, r2
 983 0470 9AB2     		uxth	r2, r3
 984 0472 7B68     		ldr	r3, [r7, #4]
 985 0474 9A80     		strh	r2, [r3, #4]	@ movhi
 986              	.L53:
 987              		.loc 1 562 0
 988 0476 00BF     		nop
 989 0478 0C37     		adds	r7, r7, #12
 990              		.cfi_def_cfa_offset 4
 991 047a BD46     		mov	sp, r7
 992              		.cfi_def_cfa_register 13
 993              		@ sp needed
 994 047c 80BC     		pop	{r7}
 995              		.cfi_restore 7
 996              		.cfi_def_cfa_offset 0
 997 047e 7047     		bx	lr
 998              		.cfi_endproc
 999              	.LFE75:
 1000              		.size	I2C_ITConfig, .-I2C_ITConfig
 1001              		.align	1
 1002              		.global	I2C_SendData
 1003              		.syntax unified
 1004              		.thumb
 1005              		.thumb_func
 1006              		.fpu softvfp
 1007              		.type	I2C_SendData, %function
 1008              	I2C_SendData:
 1009              	.LFB76:
 563:common/i2c.c  **** 
 564:common/i2c.c  **** /**
 565:common/i2c.c  ****   * @brief  Sends a data byte through the I2Cx peripheral.
 566:common/i2c.c  ****   * @param  I2Cx: where x can be 1 or 2 to select the I2C peripheral.
 567:common/i2c.c  ****   * @param  Data: Byte to be transmitted..
 568:common/i2c.c  ****   * @retval None
 569:common/i2c.c  ****   */
 570:common/i2c.c  **** void I2C_SendData(I2C_TypeDef* I2Cx, uint8_t Data)
 571:common/i2c.c  **** {
 1010              		.loc 1 571 0
 1011              		.cfi_startproc
 1012              		@ args = 0, pretend = 0, frame = 8
 1013              		@ frame_needed = 1, uses_anonymous_args = 0
 1014              		@ link register save eliminated.
ARM GAS  /tmp/ccozkyvL.s 			page 29


 1015 0480 80B4     		push	{r7}
 1016              		.cfi_def_cfa_offset 4
 1017              		.cfi_offset 7, -4
 1018 0482 83B0     		sub	sp, sp, #12
 1019              		.cfi_def_cfa_offset 16
 1020 0484 00AF     		add	r7, sp, #0
 1021              		.cfi_def_cfa_register 7
 1022 0486 7860     		str	r0, [r7, #4]
 1023 0488 0B46     		mov	r3, r1
 1024 048a FB70     		strb	r3, [r7, #3]
 572:common/i2c.c  ****   /* Check the parameters */
 573:common/i2c.c  ****   assert_param(IS_I2C_ALL_PERIPH(I2Cx));
 574:common/i2c.c  ****   /* Write in the DR register the data to be sent */
 575:common/i2c.c  ****   I2Cx->DR = Data;
 1025              		.loc 1 575 0
 1026 048c FB78     		ldrb	r3, [r7, #3]	@ zero_extendqisi2
 1027 048e 9AB2     		uxth	r2, r3
 1028 0490 7B68     		ldr	r3, [r7, #4]
 1029 0492 1A82     		strh	r2, [r3, #16]	@ movhi
 576:common/i2c.c  **** }
 1030              		.loc 1 576 0
 1031 0494 00BF     		nop
 1032 0496 0C37     		adds	r7, r7, #12
 1033              		.cfi_def_cfa_offset 4
 1034 0498 BD46     		mov	sp, r7
 1035              		.cfi_def_cfa_register 13
 1036              		@ sp needed
 1037 049a 80BC     		pop	{r7}
 1038              		.cfi_restore 7
 1039              		.cfi_def_cfa_offset 0
 1040 049c 7047     		bx	lr
 1041              		.cfi_endproc
 1042              	.LFE76:
 1043              		.size	I2C_SendData, .-I2C_SendData
 1044              		.align	1
 1045              		.global	I2C_ReceiveData
 1046              		.syntax unified
 1047              		.thumb
 1048              		.thumb_func
 1049              		.fpu softvfp
 1050              		.type	I2C_ReceiveData, %function
 1051              	I2C_ReceiveData:
 1052              	.LFB77:
 577:common/i2c.c  **** 
 578:common/i2c.c  **** /**
 579:common/i2c.c  ****   * @brief  Returns the most recent received data by the I2Cx peripheral.
 580:common/i2c.c  ****   * @param  I2Cx: where x can be 1 or 2 to select the I2C peripheral.
 581:common/i2c.c  ****   * @retval The value of the received data.
 582:common/i2c.c  ****   */
 583:common/i2c.c  **** uint8_t I2C_ReceiveData(I2C_TypeDef* I2Cx)
 584:common/i2c.c  **** {
 1053              		.loc 1 584 0
 1054              		.cfi_startproc
 1055              		@ args = 0, pretend = 0, frame = 8
 1056              		@ frame_needed = 1, uses_anonymous_args = 0
 1057              		@ link register save eliminated.
 1058 049e 80B4     		push	{r7}
ARM GAS  /tmp/ccozkyvL.s 			page 30


 1059              		.cfi_def_cfa_offset 4
 1060              		.cfi_offset 7, -4
 1061 04a0 83B0     		sub	sp, sp, #12
 1062              		.cfi_def_cfa_offset 16
 1063 04a2 00AF     		add	r7, sp, #0
 1064              		.cfi_def_cfa_register 7
 1065 04a4 7860     		str	r0, [r7, #4]
 585:common/i2c.c  ****   /* Check the parameters */
 586:common/i2c.c  ****   assert_param(IS_I2C_ALL_PERIPH(I2Cx));
 587:common/i2c.c  ****   /* Return the data in the DR register */
 588:common/i2c.c  ****   return (uint8_t)I2Cx->DR;
 1066              		.loc 1 588 0
 1067 04a6 7B68     		ldr	r3, [r7, #4]
 1068 04a8 1B8A     		ldrh	r3, [r3, #16]	@ movhi
 1069 04aa 9BB2     		uxth	r3, r3
 1070 04ac DBB2     		uxtb	r3, r3
 589:common/i2c.c  **** }
 1071              		.loc 1 589 0
 1072 04ae 1846     		mov	r0, r3
 1073 04b0 0C37     		adds	r7, r7, #12
 1074              		.cfi_def_cfa_offset 4
 1075 04b2 BD46     		mov	sp, r7
 1076              		.cfi_def_cfa_register 13
 1077              		@ sp needed
 1078 04b4 80BC     		pop	{r7}
 1079              		.cfi_restore 7
 1080              		.cfi_def_cfa_offset 0
 1081 04b6 7047     		bx	lr
 1082              		.cfi_endproc
 1083              	.LFE77:
 1084              		.size	I2C_ReceiveData, .-I2C_ReceiveData
 1085              		.align	1
 1086              		.global	I2C_Send7bitAddress
 1087              		.syntax unified
 1088              		.thumb
 1089              		.thumb_func
 1090              		.fpu softvfp
 1091              		.type	I2C_Send7bitAddress, %function
 1092              	I2C_Send7bitAddress:
 1093              	.LFB78:
 590:common/i2c.c  **** 
 591:common/i2c.c  **** /**
 592:common/i2c.c  ****   * @brief  Transmits the address byte to select the slave device.
 593:common/i2c.c  ****   * @param  I2Cx: where x can be 1 or 2 to select the I2C peripheral.
 594:common/i2c.c  ****   * @param  Address: specifies the slave address which will be transmitted
 595:common/i2c.c  ****   * @param  I2C_Direction: specifies whether the I2C device will be a
 596:common/i2c.c  ****   *   Transmitter or a Receiver. This parameter can be one of the following values
 597:common/i2c.c  ****   *     @arg I2C_Direction_Transmitter: Transmitter mode
 598:common/i2c.c  ****   *     @arg I2C_Direction_Receiver: Receiver mode
 599:common/i2c.c  ****   * @retval None.
 600:common/i2c.c  ****   */
 601:common/i2c.c  **** void I2C_Send7bitAddress(I2C_TypeDef* I2Cx, uint8_t Address, uint8_t I2C_Direction)
 602:common/i2c.c  **** {
 1094              		.loc 1 602 0
 1095              		.cfi_startproc
 1096              		@ args = 0, pretend = 0, frame = 8
 1097              		@ frame_needed = 1, uses_anonymous_args = 0
ARM GAS  /tmp/ccozkyvL.s 			page 31


 1098              		@ link register save eliminated.
 1099 04b8 80B4     		push	{r7}
 1100              		.cfi_def_cfa_offset 4
 1101              		.cfi_offset 7, -4
 1102 04ba 83B0     		sub	sp, sp, #12
 1103              		.cfi_def_cfa_offset 16
 1104 04bc 00AF     		add	r7, sp, #0
 1105              		.cfi_def_cfa_register 7
 1106 04be 7860     		str	r0, [r7, #4]
 1107 04c0 0B46     		mov	r3, r1
 1108 04c2 FB70     		strb	r3, [r7, #3]
 1109 04c4 1346     		mov	r3, r2
 1110 04c6 BB70     		strb	r3, [r7, #2]
 603:common/i2c.c  ****   /* Check the parameters */
 604:common/i2c.c  ****   assert_param(IS_I2C_ALL_PERIPH(I2Cx));
 605:common/i2c.c  ****   assert_param(IS_I2C_DIRECTION(I2C_Direction));
 606:common/i2c.c  ****   /* Test on the direction to set/reset the read/write bit */
 607:common/i2c.c  ****   if (I2C_Direction != I2C_Direction_Transmitter)
 1111              		.loc 1 607 0
 1112 04c8 BB78     		ldrb	r3, [r7, #2]	@ zero_extendqisi2
 1113 04ca 002B     		cmp	r3, #0
 1114 04cc 04D0     		beq	.L58
 608:common/i2c.c  ****   {
 609:common/i2c.c  ****     /* Set the address bit0 for read */
 610:common/i2c.c  ****     Address |= OAR1_ADD0_Set;
 1115              		.loc 1 610 0
 1116 04ce FB78     		ldrb	r3, [r7, #3]
 1117 04d0 43F00103 		orr	r3, r3, #1
 1118 04d4 FB70     		strb	r3, [r7, #3]
 1119 04d6 03E0     		b	.L59
 1120              	.L58:
 611:common/i2c.c  ****   }
 612:common/i2c.c  ****   else
 613:common/i2c.c  ****   {
 614:common/i2c.c  ****     /* Reset the address bit0 for write */
 615:common/i2c.c  ****     Address &= OAR1_ADD0_Reset;
 1121              		.loc 1 615 0
 1122 04d8 FB78     		ldrb	r3, [r7, #3]
 1123 04da 23F00103 		bic	r3, r3, #1
 1124 04de FB70     		strb	r3, [r7, #3]
 1125              	.L59:
 616:common/i2c.c  ****   }
 617:common/i2c.c  ****   /* Send the address */
 618:common/i2c.c  ****   I2Cx->DR = Address;
 1126              		.loc 1 618 0
 1127 04e0 FB78     		ldrb	r3, [r7, #3]	@ zero_extendqisi2
 1128 04e2 9AB2     		uxth	r2, r3
 1129 04e4 7B68     		ldr	r3, [r7, #4]
 1130 04e6 1A82     		strh	r2, [r3, #16]	@ movhi
 619:common/i2c.c  **** }
 1131              		.loc 1 619 0
 1132 04e8 00BF     		nop
 1133 04ea 0C37     		adds	r7, r7, #12
 1134              		.cfi_def_cfa_offset 4
 1135 04ec BD46     		mov	sp, r7
 1136              		.cfi_def_cfa_register 13
 1137              		@ sp needed
ARM GAS  /tmp/ccozkyvL.s 			page 32


 1138 04ee 80BC     		pop	{r7}
 1139              		.cfi_restore 7
 1140              		.cfi_def_cfa_offset 0
 1141 04f0 7047     		bx	lr
 1142              		.cfi_endproc
 1143              	.LFE78:
 1144              		.size	I2C_Send7bitAddress, .-I2C_Send7bitAddress
 1145              		.align	1
 1146              		.global	I2C_ReadRegister
 1147              		.syntax unified
 1148              		.thumb
 1149              		.thumb_func
 1150              		.fpu softvfp
 1151              		.type	I2C_ReadRegister, %function
 1152              	I2C_ReadRegister:
 1153              	.LFB79:
 620:common/i2c.c  **** 
 621:common/i2c.c  **** /**
 622:common/i2c.c  ****   * @brief  Reads the specified I2C register and returns its value.
 623:common/i2c.c  ****   * @param  I2C_Register: specifies the register to read.
 624:common/i2c.c  ****   *   This parameter can be one of the following values:
 625:common/i2c.c  ****   *     @arg I2C_Register_CR1:  CR1 register.
 626:common/i2c.c  ****   *     @arg I2C_Register_CR2:   CR2 register.
 627:common/i2c.c  ****   *     @arg I2C_Register_OAR1:  OAR1 register.
 628:common/i2c.c  ****   *     @arg I2C_Register_OAR2:  OAR2 register.
 629:common/i2c.c  ****   *     @arg I2C_Register_DR:    DR register.
 630:common/i2c.c  ****   *     @arg I2C_Register_SR1:   SR1 register.
 631:common/i2c.c  ****   *     @arg I2C_Register_SR2:   SR2 register.
 632:common/i2c.c  ****   *     @arg I2C_Register_CCR:   CCR register.
 633:common/i2c.c  ****   *     @arg I2C_Register_TRISE: TRISE register.
 634:common/i2c.c  ****   * @retval The value of the read register.
 635:common/i2c.c  ****   */
 636:common/i2c.c  **** uint16_t I2C_ReadRegister(I2C_TypeDef* I2Cx, uint8_t I2C_Register)
 637:common/i2c.c  **** {
 1154              		.loc 1 637 0
 1155              		.cfi_startproc
 1156              		@ args = 0, pretend = 0, frame = 16
 1157              		@ frame_needed = 1, uses_anonymous_args = 0
 1158              		@ link register save eliminated.
 1159 04f2 80B4     		push	{r7}
 1160              		.cfi_def_cfa_offset 4
 1161              		.cfi_offset 7, -4
 1162 04f4 85B0     		sub	sp, sp, #20
 1163              		.cfi_def_cfa_offset 24
 1164 04f6 00AF     		add	r7, sp, #0
 1165              		.cfi_def_cfa_register 7
 1166 04f8 7860     		str	r0, [r7, #4]
 1167 04fa 0B46     		mov	r3, r1
 1168 04fc FB70     		strb	r3, [r7, #3]
 638:common/i2c.c  ****   __IO uint32_t tmp = 0;
 1169              		.loc 1 638 0
 1170 04fe 0023     		movs	r3, #0
 1171 0500 FB60     		str	r3, [r7, #12]
 639:common/i2c.c  **** 
 640:common/i2c.c  ****   /* Check the parameters */
 641:common/i2c.c  ****   assert_param(IS_I2C_ALL_PERIPH(I2Cx));
 642:common/i2c.c  ****   assert_param(IS_I2C_REGISTER(I2C_Register));
ARM GAS  /tmp/ccozkyvL.s 			page 33


 643:common/i2c.c  **** 
 644:common/i2c.c  ****   tmp = (uint32_t) I2Cx;
 1172              		.loc 1 644 0
 1173 0502 7B68     		ldr	r3, [r7, #4]
 1174 0504 FB60     		str	r3, [r7, #12]
 645:common/i2c.c  ****   tmp += I2C_Register;
 1175              		.loc 1 645 0
 1176 0506 FA78     		ldrb	r2, [r7, #3]	@ zero_extendqisi2
 1177 0508 FB68     		ldr	r3, [r7, #12]
 1178 050a 1344     		add	r3, r3, r2
 1179 050c FB60     		str	r3, [r7, #12]
 646:common/i2c.c  **** 
 647:common/i2c.c  ****   /* Return the selected register value */
 648:common/i2c.c  ****   return (*(__IO uint16_t *) tmp);
 1180              		.loc 1 648 0
 1181 050e FB68     		ldr	r3, [r7, #12]
 1182 0510 1B88     		ldrh	r3, [r3]	@ movhi
 1183 0512 9BB2     		uxth	r3, r3
 649:common/i2c.c  **** }
 1184              		.loc 1 649 0
 1185 0514 1846     		mov	r0, r3
 1186 0516 1437     		adds	r7, r7, #20
 1187              		.cfi_def_cfa_offset 4
 1188 0518 BD46     		mov	sp, r7
 1189              		.cfi_def_cfa_register 13
 1190              		@ sp needed
 1191 051a 80BC     		pop	{r7}
 1192              		.cfi_restore 7
 1193              		.cfi_def_cfa_offset 0
 1194 051c 7047     		bx	lr
 1195              		.cfi_endproc
 1196              	.LFE79:
 1197              		.size	I2C_ReadRegister, .-I2C_ReadRegister
 1198              		.align	1
 1199              		.global	I2C_SoftwareResetCmd
 1200              		.syntax unified
 1201              		.thumb
 1202              		.thumb_func
 1203              		.fpu softvfp
 1204              		.type	I2C_SoftwareResetCmd, %function
 1205              	I2C_SoftwareResetCmd:
 1206              	.LFB80:
 650:common/i2c.c  **** 
 651:common/i2c.c  **** /**
 652:common/i2c.c  ****   * @brief  Enables or disables the specified I2C software reset.
 653:common/i2c.c  ****   * @param  I2Cx: where x can be 1 or 2 to select the I2C peripheral.
 654:common/i2c.c  ****   * @param  NewState: new state of the I2C software reset.
 655:common/i2c.c  ****   *   This parameter can be: ENABLE or DISABLE.
 656:common/i2c.c  ****   * @retval None
 657:common/i2c.c  ****   */
 658:common/i2c.c  **** void I2C_SoftwareResetCmd(I2C_TypeDef* I2Cx, FunctionalState NewState)
 659:common/i2c.c  **** {
 1207              		.loc 1 659 0
 1208              		.cfi_startproc
 1209              		@ args = 0, pretend = 0, frame = 8
 1210              		@ frame_needed = 1, uses_anonymous_args = 0
 1211              		@ link register save eliminated.
ARM GAS  /tmp/ccozkyvL.s 			page 34


 1212 051e 80B4     		push	{r7}
 1213              		.cfi_def_cfa_offset 4
 1214              		.cfi_offset 7, -4
 1215 0520 83B0     		sub	sp, sp, #12
 1216              		.cfi_def_cfa_offset 16
 1217 0522 00AF     		add	r7, sp, #0
 1218              		.cfi_def_cfa_register 7
 1219 0524 7860     		str	r0, [r7, #4]
 1220 0526 0B46     		mov	r3, r1
 1221 0528 FB70     		strb	r3, [r7, #3]
 660:common/i2c.c  ****   /* Check the parameters */
 661:common/i2c.c  ****   assert_param(IS_I2C_ALL_PERIPH(I2Cx));
 662:common/i2c.c  ****   assert_param(IS_FUNCTIONAL_STATE(NewState));
 663:common/i2c.c  ****   if (NewState != DISABLE)
 1222              		.loc 1 663 0
 1223 052a FB78     		ldrb	r3, [r7, #3]	@ zero_extendqisi2
 1224 052c 002B     		cmp	r3, #0
 1225 052e 0AD0     		beq	.L63
 664:common/i2c.c  ****   {
 665:common/i2c.c  ****     /* Peripheral under reset */
 666:common/i2c.c  ****     I2Cx->CR1 |= CR1_SWRST_Set;
 1226              		.loc 1 666 0
 1227 0530 7B68     		ldr	r3, [r7, #4]
 1228 0532 1B88     		ldrh	r3, [r3]	@ movhi
 1229 0534 9BB2     		uxth	r3, r3
 1230 0536 6FEA4343 		mvn	r3, r3, lsl #17
 1231 053a 6FEA5343 		mvn	r3, r3, lsr #17
 1232 053e 9AB2     		uxth	r2, r3
 1233 0540 7B68     		ldr	r3, [r7, #4]
 1234 0542 1A80     		strh	r2, [r3]	@ movhi
 667:common/i2c.c  ****   }
 668:common/i2c.c  ****   else
 669:common/i2c.c  ****   {
 670:common/i2c.c  ****     /* Peripheral not under reset */
 671:common/i2c.c  ****     I2Cx->CR1 &= CR1_SWRST_Reset;
 672:common/i2c.c  ****   }
 673:common/i2c.c  **** }
 1235              		.loc 1 673 0
 1236 0544 07E0     		b	.L65
 1237              	.L63:
 671:common/i2c.c  ****   }
 1238              		.loc 1 671 0
 1239 0546 7B68     		ldr	r3, [r7, #4]
 1240 0548 1B88     		ldrh	r3, [r3]	@ movhi
 1241 054a 9BB2     		uxth	r3, r3
 1242 054c C3F30E03 		ubfx	r3, r3, #0, #15
 1243 0550 9AB2     		uxth	r2, r3
 1244 0552 7B68     		ldr	r3, [r7, #4]
 1245 0554 1A80     		strh	r2, [r3]	@ movhi
 1246              	.L65:
 1247              		.loc 1 673 0
 1248 0556 00BF     		nop
 1249 0558 0C37     		adds	r7, r7, #12
 1250              		.cfi_def_cfa_offset 4
 1251 055a BD46     		mov	sp, r7
 1252              		.cfi_def_cfa_register 13
 1253              		@ sp needed
ARM GAS  /tmp/ccozkyvL.s 			page 35


 1254 055c 80BC     		pop	{r7}
 1255              		.cfi_restore 7
 1256              		.cfi_def_cfa_offset 0
 1257 055e 7047     		bx	lr
 1258              		.cfi_endproc
 1259              	.LFE80:
 1260              		.size	I2C_SoftwareResetCmd, .-I2C_SoftwareResetCmd
 1261              		.align	1
 1262              		.global	I2C_NACKPositionConfig
 1263              		.syntax unified
 1264              		.thumb
 1265              		.thumb_func
 1266              		.fpu softvfp
 1267              		.type	I2C_NACKPositionConfig, %function
 1268              	I2C_NACKPositionConfig:
 1269              	.LFB81:
 674:common/i2c.c  **** 
 675:common/i2c.c  **** /**
 676:common/i2c.c  ****   * @brief  Selects the specified I2C NACK position in master receiver mode.
 677:common/i2c.c  ****   *         This function is useful in I2C Master Receiver mode when the number
 678:common/i2c.c  ****   *         of data to be received is equal to 2. In this case, this function 
 679:common/i2c.c  ****   *         should be called (with parameter I2C_NACKPosition_Next) before data 
 680:common/i2c.c  ****   *         reception starts,as described in the 2-byte reception procedure 
 681:common/i2c.c  ****   *         recommended in Reference Manual in Section: Master receiver.                
 682:common/i2c.c  ****   * @param  I2Cx: where x can be 1 or 2 to select the I2C peripheral.
 683:common/i2c.c  ****   * @param  I2C_NACKPosition: specifies the NACK position. 
 684:common/i2c.c  ****   *   This parameter can be one of the following values:
 685:common/i2c.c  ****   *     @arg I2C_NACKPosition_Next: indicates that the next byte will be the last
 686:common/i2c.c  ****   *          received byte.  
 687:common/i2c.c  ****   *     @arg I2C_NACKPosition_Current: indicates that current byte is the last 
 688:common/i2c.c  ****   *          received byte.
 689:common/i2c.c  ****   *            
 690:common/i2c.c  ****   * @note    This function configures the same bit (POS) as I2C_PECPositionConfig() 
 691:common/i2c.c  ****   *          but is intended to be used in I2C mode while I2C_PECPositionConfig() 
 692:common/i2c.c  ****   *          is intended to used in SMBUS mode. 
 693:common/i2c.c  ****   *            
 694:common/i2c.c  ****   * @retval None
 695:common/i2c.c  ****   */
 696:common/i2c.c  **** void I2C_NACKPositionConfig(I2C_TypeDef* I2Cx, uint16_t I2C_NACKPosition)
 697:common/i2c.c  **** {
 1270              		.loc 1 697 0
 1271              		.cfi_startproc
 1272              		@ args = 0, pretend = 0, frame = 8
 1273              		@ frame_needed = 1, uses_anonymous_args = 0
 1274              		@ link register save eliminated.
 1275 0560 80B4     		push	{r7}
 1276              		.cfi_def_cfa_offset 4
 1277              		.cfi_offset 7, -4
 1278 0562 83B0     		sub	sp, sp, #12
 1279              		.cfi_def_cfa_offset 16
 1280 0564 00AF     		add	r7, sp, #0
 1281              		.cfi_def_cfa_register 7
 1282 0566 7860     		str	r0, [r7, #4]
 1283 0568 0B46     		mov	r3, r1
 1284 056a 7B80     		strh	r3, [r7, #2]	@ movhi
 698:common/i2c.c  ****   /* Check the parameters */
 699:common/i2c.c  ****   assert_param(IS_I2C_ALL_PERIPH(I2Cx));
ARM GAS  /tmp/ccozkyvL.s 			page 36


 700:common/i2c.c  ****   assert_param(IS_I2C_NACK_POSITION(I2C_NACKPosition));
 701:common/i2c.c  ****   
 702:common/i2c.c  ****   /* Check the input parameter */
 703:common/i2c.c  ****   if (I2C_NACKPosition == I2C_NACKPosition_Next)
 1285              		.loc 1 703 0
 1286 056c 7B88     		ldrh	r3, [r7, #2]
 1287 056e B3F5006F 		cmp	r3, #2048
 1288 0572 08D1     		bne	.L67
 704:common/i2c.c  ****   {
 705:common/i2c.c  ****     /* Next byte in shift register is the last received byte */
 706:common/i2c.c  ****     I2Cx->CR1 |= I2C_NACKPosition_Next;
 1289              		.loc 1 706 0
 1290 0574 7B68     		ldr	r3, [r7, #4]
 1291 0576 1B88     		ldrh	r3, [r3]	@ movhi
 1292 0578 9BB2     		uxth	r3, r3
 1293 057a 43F40063 		orr	r3, r3, #2048
 1294 057e 9AB2     		uxth	r2, r3
 1295 0580 7B68     		ldr	r3, [r7, #4]
 1296 0582 1A80     		strh	r2, [r3]	@ movhi
 707:common/i2c.c  ****   }
 708:common/i2c.c  ****   else
 709:common/i2c.c  ****   {
 710:common/i2c.c  ****     /* Current byte in shift register is the last received byte */
 711:common/i2c.c  ****     I2Cx->CR1 &= I2C_NACKPosition_Current;
 712:common/i2c.c  ****   }
 713:common/i2c.c  **** }
 1297              		.loc 1 713 0
 1298 0584 07E0     		b	.L69
 1299              	.L67:
 711:common/i2c.c  ****   }
 1300              		.loc 1 711 0
 1301 0586 7B68     		ldr	r3, [r7, #4]
 1302 0588 1B88     		ldrh	r3, [r3]	@ movhi
 1303 058a 9BB2     		uxth	r3, r3
 1304 058c 23F40063 		bic	r3, r3, #2048
 1305 0590 9AB2     		uxth	r2, r3
 1306 0592 7B68     		ldr	r3, [r7, #4]
 1307 0594 1A80     		strh	r2, [r3]	@ movhi
 1308              	.L69:
 1309              		.loc 1 713 0
 1310 0596 00BF     		nop
 1311 0598 0C37     		adds	r7, r7, #12
 1312              		.cfi_def_cfa_offset 4
 1313 059a BD46     		mov	sp, r7
 1314              		.cfi_def_cfa_register 13
 1315              		@ sp needed
 1316 059c 80BC     		pop	{r7}
 1317              		.cfi_restore 7
 1318              		.cfi_def_cfa_offset 0
 1319 059e 7047     		bx	lr
 1320              		.cfi_endproc
 1321              	.LFE81:
 1322              		.size	I2C_NACKPositionConfig, .-I2C_NACKPositionConfig
 1323              		.align	1
 1324              		.global	I2C_SMBusAlertConfig
 1325              		.syntax unified
 1326              		.thumb
ARM GAS  /tmp/ccozkyvL.s 			page 37


 1327              		.thumb_func
 1328              		.fpu softvfp
 1329              		.type	I2C_SMBusAlertConfig, %function
 1330              	I2C_SMBusAlertConfig:
 1331              	.LFB82:
 714:common/i2c.c  **** 
 715:common/i2c.c  **** /**
 716:common/i2c.c  ****   * @brief  Drives the SMBusAlert pin high or low for the specified I2C.
 717:common/i2c.c  ****   * @param  I2Cx: where x can be 1 or 2 to select the I2C peripheral.
 718:common/i2c.c  ****   * @param  I2C_SMBusAlert: specifies SMBAlert pin level. 
 719:common/i2c.c  ****   *   This parameter can be one of the following values:
 720:common/i2c.c  ****   *     @arg I2C_SMBusAlert_Low: SMBAlert pin driven low
 721:common/i2c.c  ****   *     @arg I2C_SMBusAlert_High: SMBAlert pin driven high
 722:common/i2c.c  ****   * @retval None
 723:common/i2c.c  ****   */
 724:common/i2c.c  **** void I2C_SMBusAlertConfig(I2C_TypeDef* I2Cx, uint16_t I2C_SMBusAlert)
 725:common/i2c.c  **** {
 1332              		.loc 1 725 0
 1333              		.cfi_startproc
 1334              		@ args = 0, pretend = 0, frame = 8
 1335              		@ frame_needed = 1, uses_anonymous_args = 0
 1336              		@ link register save eliminated.
 1337 05a0 80B4     		push	{r7}
 1338              		.cfi_def_cfa_offset 4
 1339              		.cfi_offset 7, -4
 1340 05a2 83B0     		sub	sp, sp, #12
 1341              		.cfi_def_cfa_offset 16
 1342 05a4 00AF     		add	r7, sp, #0
 1343              		.cfi_def_cfa_register 7
 1344 05a6 7860     		str	r0, [r7, #4]
 1345 05a8 0B46     		mov	r3, r1
 1346 05aa 7B80     		strh	r3, [r7, #2]	@ movhi
 726:common/i2c.c  ****   /* Check the parameters */
 727:common/i2c.c  ****   assert_param(IS_I2C_ALL_PERIPH(I2Cx));
 728:common/i2c.c  ****   assert_param(IS_I2C_SMBUS_ALERT(I2C_SMBusAlert));
 729:common/i2c.c  ****   if (I2C_SMBusAlert == I2C_SMBusAlert_Low)
 1347              		.loc 1 729 0
 1348 05ac 7B88     		ldrh	r3, [r7, #2]
 1349 05ae B3F5005F 		cmp	r3, #8192
 1350 05b2 08D1     		bne	.L71
 730:common/i2c.c  ****   {
 731:common/i2c.c  ****     /* Drive the SMBusAlert pin Low */
 732:common/i2c.c  ****     I2Cx->CR1 |= I2C_SMBusAlert_Low;
 1351              		.loc 1 732 0
 1352 05b4 7B68     		ldr	r3, [r7, #4]
 1353 05b6 1B88     		ldrh	r3, [r3]	@ movhi
 1354 05b8 9BB2     		uxth	r3, r3
 1355 05ba 43F40053 		orr	r3, r3, #8192
 1356 05be 9AB2     		uxth	r2, r3
 1357 05c0 7B68     		ldr	r3, [r7, #4]
 1358 05c2 1A80     		strh	r2, [r3]	@ movhi
 733:common/i2c.c  ****   }
 734:common/i2c.c  ****   else
 735:common/i2c.c  ****   {
 736:common/i2c.c  ****     /* Drive the SMBusAlert pin High  */
 737:common/i2c.c  ****     I2Cx->CR1 &= I2C_SMBusAlert_High;
 738:common/i2c.c  ****   }
ARM GAS  /tmp/ccozkyvL.s 			page 38


 739:common/i2c.c  **** }
 1359              		.loc 1 739 0
 1360 05c4 07E0     		b	.L73
 1361              	.L71:
 737:common/i2c.c  ****   }
 1362              		.loc 1 737 0
 1363 05c6 7B68     		ldr	r3, [r7, #4]
 1364 05c8 1B88     		ldrh	r3, [r3]	@ movhi
 1365 05ca 9BB2     		uxth	r3, r3
 1366 05cc 23F40053 		bic	r3, r3, #8192
 1367 05d0 9AB2     		uxth	r2, r3
 1368 05d2 7B68     		ldr	r3, [r7, #4]
 1369 05d4 1A80     		strh	r2, [r3]	@ movhi
 1370              	.L73:
 1371              		.loc 1 739 0
 1372 05d6 00BF     		nop
 1373 05d8 0C37     		adds	r7, r7, #12
 1374              		.cfi_def_cfa_offset 4
 1375 05da BD46     		mov	sp, r7
 1376              		.cfi_def_cfa_register 13
 1377              		@ sp needed
 1378 05dc 80BC     		pop	{r7}
 1379              		.cfi_restore 7
 1380              		.cfi_def_cfa_offset 0
 1381 05de 7047     		bx	lr
 1382              		.cfi_endproc
 1383              	.LFE82:
 1384              		.size	I2C_SMBusAlertConfig, .-I2C_SMBusAlertConfig
 1385              		.align	1
 1386              		.global	I2C_TransmitPEC
 1387              		.syntax unified
 1388              		.thumb
 1389              		.thumb_func
 1390              		.fpu softvfp
 1391              		.type	I2C_TransmitPEC, %function
 1392              	I2C_TransmitPEC:
 1393              	.LFB83:
 740:common/i2c.c  **** 
 741:common/i2c.c  **** /**
 742:common/i2c.c  ****   * @brief  Enables or disables the specified I2C PEC transfer.
 743:common/i2c.c  ****   * @param  I2Cx: where x can be 1 or 2 to select the I2C peripheral.
 744:common/i2c.c  ****   * @param  NewState: new state of the I2C PEC transmission.
 745:common/i2c.c  ****   *   This parameter can be: ENABLE or DISABLE.
 746:common/i2c.c  ****   * @retval None
 747:common/i2c.c  ****   */
 748:common/i2c.c  **** void I2C_TransmitPEC(I2C_TypeDef* I2Cx, FunctionalState NewState)
 749:common/i2c.c  **** {
 1394              		.loc 1 749 0
 1395              		.cfi_startproc
 1396              		@ args = 0, pretend = 0, frame = 8
 1397              		@ frame_needed = 1, uses_anonymous_args = 0
 1398              		@ link register save eliminated.
 1399 05e0 80B4     		push	{r7}
 1400              		.cfi_def_cfa_offset 4
 1401              		.cfi_offset 7, -4
 1402 05e2 83B0     		sub	sp, sp, #12
 1403              		.cfi_def_cfa_offset 16
ARM GAS  /tmp/ccozkyvL.s 			page 39


 1404 05e4 00AF     		add	r7, sp, #0
 1405              		.cfi_def_cfa_register 7
 1406 05e6 7860     		str	r0, [r7, #4]
 1407 05e8 0B46     		mov	r3, r1
 1408 05ea FB70     		strb	r3, [r7, #3]
 750:common/i2c.c  ****   /* Check the parameters */
 751:common/i2c.c  ****   assert_param(IS_I2C_ALL_PERIPH(I2Cx));
 752:common/i2c.c  ****   assert_param(IS_FUNCTIONAL_STATE(NewState));
 753:common/i2c.c  ****   if (NewState != DISABLE)
 1409              		.loc 1 753 0
 1410 05ec FB78     		ldrb	r3, [r7, #3]	@ zero_extendqisi2
 1411 05ee 002B     		cmp	r3, #0
 1412 05f0 08D0     		beq	.L75
 754:common/i2c.c  ****   {
 755:common/i2c.c  ****     /* Enable the selected I2C PEC transmission */
 756:common/i2c.c  ****     I2Cx->CR1 |= CR1_PEC_Set;
 1413              		.loc 1 756 0
 1414 05f2 7B68     		ldr	r3, [r7, #4]
 1415 05f4 1B88     		ldrh	r3, [r3]	@ movhi
 1416 05f6 9BB2     		uxth	r3, r3
 1417 05f8 43F48053 		orr	r3, r3, #4096
 1418 05fc 9AB2     		uxth	r2, r3
 1419 05fe 7B68     		ldr	r3, [r7, #4]
 1420 0600 1A80     		strh	r2, [r3]	@ movhi
 757:common/i2c.c  ****   }
 758:common/i2c.c  ****   else
 759:common/i2c.c  ****   {
 760:common/i2c.c  ****     /* Disable the selected I2C PEC transmission */
 761:common/i2c.c  ****     I2Cx->CR1 &= CR1_PEC_Reset;
 762:common/i2c.c  ****   }
 763:common/i2c.c  **** }
 1421              		.loc 1 763 0
 1422 0602 07E0     		b	.L77
 1423              	.L75:
 761:common/i2c.c  ****   }
 1424              		.loc 1 761 0
 1425 0604 7B68     		ldr	r3, [r7, #4]
 1426 0606 1B88     		ldrh	r3, [r3]	@ movhi
 1427 0608 9BB2     		uxth	r3, r3
 1428 060a 23F48053 		bic	r3, r3, #4096
 1429 060e 9AB2     		uxth	r2, r3
 1430 0610 7B68     		ldr	r3, [r7, #4]
 1431 0612 1A80     		strh	r2, [r3]	@ movhi
 1432              	.L77:
 1433              		.loc 1 763 0
 1434 0614 00BF     		nop
 1435 0616 0C37     		adds	r7, r7, #12
 1436              		.cfi_def_cfa_offset 4
 1437 0618 BD46     		mov	sp, r7
 1438              		.cfi_def_cfa_register 13
 1439              		@ sp needed
 1440 061a 80BC     		pop	{r7}
 1441              		.cfi_restore 7
 1442              		.cfi_def_cfa_offset 0
 1443 061c 7047     		bx	lr
 1444              		.cfi_endproc
 1445              	.LFE83:
ARM GAS  /tmp/ccozkyvL.s 			page 40


 1446              		.size	I2C_TransmitPEC, .-I2C_TransmitPEC
 1447              		.align	1
 1448              		.global	I2C_PECPositionConfig
 1449              		.syntax unified
 1450              		.thumb
 1451              		.thumb_func
 1452              		.fpu softvfp
 1453              		.type	I2C_PECPositionConfig, %function
 1454              	I2C_PECPositionConfig:
 1455              	.LFB84:
 764:common/i2c.c  **** 
 765:common/i2c.c  **** /**
 766:common/i2c.c  ****   * @brief  Selects the specified I2C PEC position.
 767:common/i2c.c  ****   * @param  I2Cx: where x can be 1 or 2 to select the I2C peripheral.
 768:common/i2c.c  ****   * @param  I2C_PECPosition: specifies the PEC position. 
 769:common/i2c.c  ****   *   This parameter can be one of the following values:
 770:common/i2c.c  ****   *     @arg I2C_PECPosition_Next: indicates that the next byte is PEC
 771:common/i2c.c  ****   *     @arg I2C_PECPosition_Current: indicates that current byte is PEC
 772:common/i2c.c  ****   *       
 773:common/i2c.c  ****   * @note    This function configures the same bit (POS) as I2C_NACKPositionConfig()
 774:common/i2c.c  ****   *          but is intended to be used in SMBUS mode while I2C_NACKPositionConfig() 
 775:common/i2c.c  ****   *          is intended to used in I2C mode.
 776:common/i2c.c  ****   *               
 777:common/i2c.c  ****   * @retval None
 778:common/i2c.c  ****   */
 779:common/i2c.c  **** void I2C_PECPositionConfig(I2C_TypeDef* I2Cx, uint16_t I2C_PECPosition)
 780:common/i2c.c  **** {
 1456              		.loc 1 780 0
 1457              		.cfi_startproc
 1458              		@ args = 0, pretend = 0, frame = 8
 1459              		@ frame_needed = 1, uses_anonymous_args = 0
 1460              		@ link register save eliminated.
 1461 061e 80B4     		push	{r7}
 1462              		.cfi_def_cfa_offset 4
 1463              		.cfi_offset 7, -4
 1464 0620 83B0     		sub	sp, sp, #12
 1465              		.cfi_def_cfa_offset 16
 1466 0622 00AF     		add	r7, sp, #0
 1467              		.cfi_def_cfa_register 7
 1468 0624 7860     		str	r0, [r7, #4]
 1469 0626 0B46     		mov	r3, r1
 1470 0628 7B80     		strh	r3, [r7, #2]	@ movhi
 781:common/i2c.c  ****   /* Check the parameters */
 782:common/i2c.c  ****   assert_param(IS_I2C_ALL_PERIPH(I2Cx));
 783:common/i2c.c  ****   assert_param(IS_I2C_PEC_POSITION(I2C_PECPosition));
 784:common/i2c.c  ****   if (I2C_PECPosition == I2C_PECPosition_Next)
 1471              		.loc 1 784 0
 1472 062a 7B88     		ldrh	r3, [r7, #2]
 1473 062c B3F5006F 		cmp	r3, #2048
 1474 0630 08D1     		bne	.L79
 785:common/i2c.c  ****   {
 786:common/i2c.c  ****     /* Next byte in shift register is PEC */
 787:common/i2c.c  ****     I2Cx->CR1 |= I2C_PECPosition_Next;
 1475              		.loc 1 787 0
 1476 0632 7B68     		ldr	r3, [r7, #4]
 1477 0634 1B88     		ldrh	r3, [r3]	@ movhi
 1478 0636 9BB2     		uxth	r3, r3
ARM GAS  /tmp/ccozkyvL.s 			page 41


 1479 0638 43F40063 		orr	r3, r3, #2048
 1480 063c 9AB2     		uxth	r2, r3
 1481 063e 7B68     		ldr	r3, [r7, #4]
 1482 0640 1A80     		strh	r2, [r3]	@ movhi
 788:common/i2c.c  ****   }
 789:common/i2c.c  ****   else
 790:common/i2c.c  ****   {
 791:common/i2c.c  ****     /* Current byte in shift register is PEC */
 792:common/i2c.c  ****     I2Cx->CR1 &= I2C_PECPosition_Current;
 793:common/i2c.c  ****   }
 794:common/i2c.c  **** }
 1483              		.loc 1 794 0
 1484 0642 07E0     		b	.L81
 1485              	.L79:
 792:common/i2c.c  ****   }
 1486              		.loc 1 792 0
 1487 0644 7B68     		ldr	r3, [r7, #4]
 1488 0646 1B88     		ldrh	r3, [r3]	@ movhi
 1489 0648 9BB2     		uxth	r3, r3
 1490 064a 23F40063 		bic	r3, r3, #2048
 1491 064e 9AB2     		uxth	r2, r3
 1492 0650 7B68     		ldr	r3, [r7, #4]
 1493 0652 1A80     		strh	r2, [r3]	@ movhi
 1494              	.L81:
 1495              		.loc 1 794 0
 1496 0654 00BF     		nop
 1497 0656 0C37     		adds	r7, r7, #12
 1498              		.cfi_def_cfa_offset 4
 1499 0658 BD46     		mov	sp, r7
 1500              		.cfi_def_cfa_register 13
 1501              		@ sp needed
 1502 065a 80BC     		pop	{r7}
 1503              		.cfi_restore 7
 1504              		.cfi_def_cfa_offset 0
 1505 065c 7047     		bx	lr
 1506              		.cfi_endproc
 1507              	.LFE84:
 1508              		.size	I2C_PECPositionConfig, .-I2C_PECPositionConfig
 1509              		.align	1
 1510              		.global	I2C_CalculatePEC
 1511              		.syntax unified
 1512              		.thumb
 1513              		.thumb_func
 1514              		.fpu softvfp
 1515              		.type	I2C_CalculatePEC, %function
 1516              	I2C_CalculatePEC:
 1517              	.LFB85:
 795:common/i2c.c  **** 
 796:common/i2c.c  **** /**
 797:common/i2c.c  ****   * @brief  Enables or disables the PEC value calculation of the transferred bytes.
 798:common/i2c.c  ****   * @param  I2Cx: where x can be 1 or 2 to select the I2C peripheral.
 799:common/i2c.c  ****   * @param  NewState: new state of the I2Cx PEC value calculation.
 800:common/i2c.c  ****   *   This parameter can be: ENABLE or DISABLE.
 801:common/i2c.c  ****   * @retval None
 802:common/i2c.c  ****   */
 803:common/i2c.c  **** void I2C_CalculatePEC(I2C_TypeDef* I2Cx, FunctionalState NewState)
 804:common/i2c.c  **** {
ARM GAS  /tmp/ccozkyvL.s 			page 42


 1518              		.loc 1 804 0
 1519              		.cfi_startproc
 1520              		@ args = 0, pretend = 0, frame = 8
 1521              		@ frame_needed = 1, uses_anonymous_args = 0
 1522              		@ link register save eliminated.
 1523 065e 80B4     		push	{r7}
 1524              		.cfi_def_cfa_offset 4
 1525              		.cfi_offset 7, -4
 1526 0660 83B0     		sub	sp, sp, #12
 1527              		.cfi_def_cfa_offset 16
 1528 0662 00AF     		add	r7, sp, #0
 1529              		.cfi_def_cfa_register 7
 1530 0664 7860     		str	r0, [r7, #4]
 1531 0666 0B46     		mov	r3, r1
 1532 0668 FB70     		strb	r3, [r7, #3]
 805:common/i2c.c  ****   /* Check the parameters */
 806:common/i2c.c  ****   assert_param(IS_I2C_ALL_PERIPH(I2Cx));
 807:common/i2c.c  ****   assert_param(IS_FUNCTIONAL_STATE(NewState));
 808:common/i2c.c  ****   if (NewState != DISABLE)
 1533              		.loc 1 808 0
 1534 066a FB78     		ldrb	r3, [r7, #3]	@ zero_extendqisi2
 1535 066c 002B     		cmp	r3, #0
 1536 066e 08D0     		beq	.L83
 809:common/i2c.c  ****   {
 810:common/i2c.c  ****     /* Enable the selected I2C PEC calculation */
 811:common/i2c.c  ****     I2Cx->CR1 |= CR1_ENPEC_Set;
 1537              		.loc 1 811 0
 1538 0670 7B68     		ldr	r3, [r7, #4]
 1539 0672 1B88     		ldrh	r3, [r3]	@ movhi
 1540 0674 9BB2     		uxth	r3, r3
 1541 0676 43F02003 		orr	r3, r3, #32
 1542 067a 9AB2     		uxth	r2, r3
 1543 067c 7B68     		ldr	r3, [r7, #4]
 1544 067e 1A80     		strh	r2, [r3]	@ movhi
 812:common/i2c.c  ****   }
 813:common/i2c.c  ****   else
 814:common/i2c.c  ****   {
 815:common/i2c.c  ****     /* Disable the selected I2C PEC calculation */
 816:common/i2c.c  ****     I2Cx->CR1 &= CR1_ENPEC_Reset;
 817:common/i2c.c  ****   }
 818:common/i2c.c  **** }
 1545              		.loc 1 818 0
 1546 0680 07E0     		b	.L85
 1547              	.L83:
 816:common/i2c.c  ****   }
 1548              		.loc 1 816 0
 1549 0682 7B68     		ldr	r3, [r7, #4]
 1550 0684 1B88     		ldrh	r3, [r3]	@ movhi
 1551 0686 9BB2     		uxth	r3, r3
 1552 0688 23F02003 		bic	r3, r3, #32
 1553 068c 9AB2     		uxth	r2, r3
 1554 068e 7B68     		ldr	r3, [r7, #4]
 1555 0690 1A80     		strh	r2, [r3]	@ movhi
 1556              	.L85:
 1557              		.loc 1 818 0
 1558 0692 00BF     		nop
 1559 0694 0C37     		adds	r7, r7, #12
ARM GAS  /tmp/ccozkyvL.s 			page 43


 1560              		.cfi_def_cfa_offset 4
 1561 0696 BD46     		mov	sp, r7
 1562              		.cfi_def_cfa_register 13
 1563              		@ sp needed
 1564 0698 80BC     		pop	{r7}
 1565              		.cfi_restore 7
 1566              		.cfi_def_cfa_offset 0
 1567 069a 7047     		bx	lr
 1568              		.cfi_endproc
 1569              	.LFE85:
 1570              		.size	I2C_CalculatePEC, .-I2C_CalculatePEC
 1571              		.align	1
 1572              		.global	I2C_GetPEC
 1573              		.syntax unified
 1574              		.thumb
 1575              		.thumb_func
 1576              		.fpu softvfp
 1577              		.type	I2C_GetPEC, %function
 1578              	I2C_GetPEC:
 1579              	.LFB86:
 819:common/i2c.c  **** 
 820:common/i2c.c  **** /**
 821:common/i2c.c  ****   * @brief  Returns the PEC value for the specified I2C.
 822:common/i2c.c  ****   * @param  I2Cx: where x can be 1 or 2 to select the I2C peripheral.
 823:common/i2c.c  ****   * @retval The PEC value.
 824:common/i2c.c  ****   */
 825:common/i2c.c  **** uint8_t I2C_GetPEC(I2C_TypeDef* I2Cx)
 826:common/i2c.c  **** {
 1580              		.loc 1 826 0
 1581              		.cfi_startproc
 1582              		@ args = 0, pretend = 0, frame = 8
 1583              		@ frame_needed = 1, uses_anonymous_args = 0
 1584              		@ link register save eliminated.
 1585 069c 80B4     		push	{r7}
 1586              		.cfi_def_cfa_offset 4
 1587              		.cfi_offset 7, -4
 1588 069e 83B0     		sub	sp, sp, #12
 1589              		.cfi_def_cfa_offset 16
 1590 06a0 00AF     		add	r7, sp, #0
 1591              		.cfi_def_cfa_register 7
 1592 06a2 7860     		str	r0, [r7, #4]
 827:common/i2c.c  ****   /* Check the parameters */
 828:common/i2c.c  ****   assert_param(IS_I2C_ALL_PERIPH(I2Cx));
 829:common/i2c.c  ****   /* Return the selected I2C PEC value */
 830:common/i2c.c  ****   return ((I2Cx->SR2) >> 8);
 1593              		.loc 1 830 0
 1594 06a4 7B68     		ldr	r3, [r7, #4]
 1595 06a6 1B8B     		ldrh	r3, [r3, #24]	@ movhi
 1596 06a8 9BB2     		uxth	r3, r3
 1597 06aa 1B0A     		lsrs	r3, r3, #8
 1598 06ac 9BB2     		uxth	r3, r3
 1599 06ae DBB2     		uxtb	r3, r3
 831:common/i2c.c  **** }
 1600              		.loc 1 831 0
 1601 06b0 1846     		mov	r0, r3
 1602 06b2 0C37     		adds	r7, r7, #12
 1603              		.cfi_def_cfa_offset 4
ARM GAS  /tmp/ccozkyvL.s 			page 44


 1604 06b4 BD46     		mov	sp, r7
 1605              		.cfi_def_cfa_register 13
 1606              		@ sp needed
 1607 06b6 80BC     		pop	{r7}
 1608              		.cfi_restore 7
 1609              		.cfi_def_cfa_offset 0
 1610 06b8 7047     		bx	lr
 1611              		.cfi_endproc
 1612              	.LFE86:
 1613              		.size	I2C_GetPEC, .-I2C_GetPEC
 1614              		.align	1
 1615              		.global	I2C_ARPCmd
 1616              		.syntax unified
 1617              		.thumb
 1618              		.thumb_func
 1619              		.fpu softvfp
 1620              		.type	I2C_ARPCmd, %function
 1621              	I2C_ARPCmd:
 1622              	.LFB87:
 832:common/i2c.c  **** 
 833:common/i2c.c  **** /**
 834:common/i2c.c  ****   * @brief  Enables or disables the specified I2C ARP.
 835:common/i2c.c  ****   * @param  I2Cx: where x can be 1 or 2 to select the I2C peripheral.
 836:common/i2c.c  ****   * @param  NewState: new state of the I2Cx ARP. 
 837:common/i2c.c  ****   *   This parameter can be: ENABLE or DISABLE.
 838:common/i2c.c  ****   * @retval None
 839:common/i2c.c  ****   */
 840:common/i2c.c  **** void I2C_ARPCmd(I2C_TypeDef* I2Cx, FunctionalState NewState)
 841:common/i2c.c  **** {
 1623              		.loc 1 841 0
 1624              		.cfi_startproc
 1625              		@ args = 0, pretend = 0, frame = 8
 1626              		@ frame_needed = 1, uses_anonymous_args = 0
 1627              		@ link register save eliminated.
 1628 06ba 80B4     		push	{r7}
 1629              		.cfi_def_cfa_offset 4
 1630              		.cfi_offset 7, -4
 1631 06bc 83B0     		sub	sp, sp, #12
 1632              		.cfi_def_cfa_offset 16
 1633 06be 00AF     		add	r7, sp, #0
 1634              		.cfi_def_cfa_register 7
 1635 06c0 7860     		str	r0, [r7, #4]
 1636 06c2 0B46     		mov	r3, r1
 1637 06c4 FB70     		strb	r3, [r7, #3]
 842:common/i2c.c  ****   /* Check the parameters */
 843:common/i2c.c  ****   assert_param(IS_I2C_ALL_PERIPH(I2Cx));
 844:common/i2c.c  ****   assert_param(IS_FUNCTIONAL_STATE(NewState));
 845:common/i2c.c  ****   if (NewState != DISABLE)
 1638              		.loc 1 845 0
 1639 06c6 FB78     		ldrb	r3, [r7, #3]	@ zero_extendqisi2
 1640 06c8 002B     		cmp	r3, #0
 1641 06ca 08D0     		beq	.L89
 846:common/i2c.c  ****   {
 847:common/i2c.c  ****     /* Enable the selected I2C ARP */
 848:common/i2c.c  ****     I2Cx->CR1 |= CR1_ENARP_Set;
 1642              		.loc 1 848 0
 1643 06cc 7B68     		ldr	r3, [r7, #4]
ARM GAS  /tmp/ccozkyvL.s 			page 45


 1644 06ce 1B88     		ldrh	r3, [r3]	@ movhi
 1645 06d0 9BB2     		uxth	r3, r3
 1646 06d2 43F01003 		orr	r3, r3, #16
 1647 06d6 9AB2     		uxth	r2, r3
 1648 06d8 7B68     		ldr	r3, [r7, #4]
 1649 06da 1A80     		strh	r2, [r3]	@ movhi
 849:common/i2c.c  ****   }
 850:common/i2c.c  ****   else
 851:common/i2c.c  ****   {
 852:common/i2c.c  ****     /* Disable the selected I2C ARP */
 853:common/i2c.c  ****     I2Cx->CR1 &= CR1_ENARP_Reset;
 854:common/i2c.c  ****   }
 855:common/i2c.c  **** }
 1650              		.loc 1 855 0
 1651 06dc 07E0     		b	.L91
 1652              	.L89:
 853:common/i2c.c  ****   }
 1653              		.loc 1 853 0
 1654 06de 7B68     		ldr	r3, [r7, #4]
 1655 06e0 1B88     		ldrh	r3, [r3]	@ movhi
 1656 06e2 9BB2     		uxth	r3, r3
 1657 06e4 23F01003 		bic	r3, r3, #16
 1658 06e8 9AB2     		uxth	r2, r3
 1659 06ea 7B68     		ldr	r3, [r7, #4]
 1660 06ec 1A80     		strh	r2, [r3]	@ movhi
 1661              	.L91:
 1662              		.loc 1 855 0
 1663 06ee 00BF     		nop
 1664 06f0 0C37     		adds	r7, r7, #12
 1665              		.cfi_def_cfa_offset 4
 1666 06f2 BD46     		mov	sp, r7
 1667              		.cfi_def_cfa_register 13
 1668              		@ sp needed
 1669 06f4 80BC     		pop	{r7}
 1670              		.cfi_restore 7
 1671              		.cfi_def_cfa_offset 0
 1672 06f6 7047     		bx	lr
 1673              		.cfi_endproc
 1674              	.LFE87:
 1675              		.size	I2C_ARPCmd, .-I2C_ARPCmd
 1676              		.align	1
 1677              		.global	I2C_StretchClockCmd
 1678              		.syntax unified
 1679              		.thumb
 1680              		.thumb_func
 1681              		.fpu softvfp
 1682              		.type	I2C_StretchClockCmd, %function
 1683              	I2C_StretchClockCmd:
 1684              	.LFB88:
 856:common/i2c.c  **** 
 857:common/i2c.c  **** /**
 858:common/i2c.c  ****   * @brief  Enables or disables the specified I2C Clock stretching.
 859:common/i2c.c  ****   * @param  I2Cx: where x can be 1 or 2 to select the I2C peripheral.
 860:common/i2c.c  ****   * @param  NewState: new state of the I2Cx Clock stretching.
 861:common/i2c.c  ****   *   This parameter can be: ENABLE or DISABLE.
 862:common/i2c.c  ****   * @retval None
 863:common/i2c.c  ****   */
ARM GAS  /tmp/ccozkyvL.s 			page 46


 864:common/i2c.c  **** void I2C_StretchClockCmd(I2C_TypeDef* I2Cx, FunctionalState NewState)
 865:common/i2c.c  **** {
 1685              		.loc 1 865 0
 1686              		.cfi_startproc
 1687              		@ args = 0, pretend = 0, frame = 8
 1688              		@ frame_needed = 1, uses_anonymous_args = 0
 1689              		@ link register save eliminated.
 1690 06f8 80B4     		push	{r7}
 1691              		.cfi_def_cfa_offset 4
 1692              		.cfi_offset 7, -4
 1693 06fa 83B0     		sub	sp, sp, #12
 1694              		.cfi_def_cfa_offset 16
 1695 06fc 00AF     		add	r7, sp, #0
 1696              		.cfi_def_cfa_register 7
 1697 06fe 7860     		str	r0, [r7, #4]
 1698 0700 0B46     		mov	r3, r1
 1699 0702 FB70     		strb	r3, [r7, #3]
 866:common/i2c.c  ****   /* Check the parameters */
 867:common/i2c.c  ****   assert_param(IS_I2C_ALL_PERIPH(I2Cx));
 868:common/i2c.c  ****   assert_param(IS_FUNCTIONAL_STATE(NewState));
 869:common/i2c.c  ****   if (NewState == DISABLE)
 1700              		.loc 1 869 0
 1701 0704 FB78     		ldrb	r3, [r7, #3]	@ zero_extendqisi2
 1702 0706 002B     		cmp	r3, #0
 1703 0708 08D1     		bne	.L93
 870:common/i2c.c  ****   {
 871:common/i2c.c  ****     /* Enable the selected I2C Clock stretching */
 872:common/i2c.c  ****     I2Cx->CR1 |= CR1_NOSTRETCH_Set;
 1704              		.loc 1 872 0
 1705 070a 7B68     		ldr	r3, [r7, #4]
 1706 070c 1B88     		ldrh	r3, [r3]	@ movhi
 1707 070e 9BB2     		uxth	r3, r3
 1708 0710 43F08003 		orr	r3, r3, #128
 1709 0714 9AB2     		uxth	r2, r3
 1710 0716 7B68     		ldr	r3, [r7, #4]
 1711 0718 1A80     		strh	r2, [r3]	@ movhi
 873:common/i2c.c  ****   }
 874:common/i2c.c  ****   else
 875:common/i2c.c  ****   {
 876:common/i2c.c  ****     /* Disable the selected I2C Clock stretching */
 877:common/i2c.c  ****     I2Cx->CR1 &= CR1_NOSTRETCH_Reset;
 878:common/i2c.c  ****   }
 879:common/i2c.c  **** }
 1712              		.loc 1 879 0
 1713 071a 07E0     		b	.L95
 1714              	.L93:
 877:common/i2c.c  ****   }
 1715              		.loc 1 877 0
 1716 071c 7B68     		ldr	r3, [r7, #4]
 1717 071e 1B88     		ldrh	r3, [r3]	@ movhi
 1718 0720 9BB2     		uxth	r3, r3
 1719 0722 23F08003 		bic	r3, r3, #128
 1720 0726 9AB2     		uxth	r2, r3
 1721 0728 7B68     		ldr	r3, [r7, #4]
 1722 072a 1A80     		strh	r2, [r3]	@ movhi
 1723              	.L95:
 1724              		.loc 1 879 0
ARM GAS  /tmp/ccozkyvL.s 			page 47


 1725 072c 00BF     		nop
 1726 072e 0C37     		adds	r7, r7, #12
 1727              		.cfi_def_cfa_offset 4
 1728 0730 BD46     		mov	sp, r7
 1729              		.cfi_def_cfa_register 13
 1730              		@ sp needed
 1731 0732 80BC     		pop	{r7}
 1732              		.cfi_restore 7
 1733              		.cfi_def_cfa_offset 0
 1734 0734 7047     		bx	lr
 1735              		.cfi_endproc
 1736              	.LFE88:
 1737              		.size	I2C_StretchClockCmd, .-I2C_StretchClockCmd
 1738              		.align	1
 1739              		.global	I2C_FastModeDutyCycleConfig
 1740              		.syntax unified
 1741              		.thumb
 1742              		.thumb_func
 1743              		.fpu softvfp
 1744              		.type	I2C_FastModeDutyCycleConfig, %function
 1745              	I2C_FastModeDutyCycleConfig:
 1746              	.LFB89:
 880:common/i2c.c  **** 
 881:common/i2c.c  **** /**
 882:common/i2c.c  ****   * @brief  Selects the specified I2C fast mode duty cycle.
 883:common/i2c.c  ****   * @param  I2Cx: where x can be 1 or 2 to select the I2C peripheral.
 884:common/i2c.c  ****   * @param  I2C_DutyCycle: specifies the fast mode duty cycle.
 885:common/i2c.c  ****   *   This parameter can be one of the following values:
 886:common/i2c.c  ****   *     @arg I2C_DutyCycle_2: I2C fast mode Tlow/Thigh = 2
 887:common/i2c.c  ****   *     @arg I2C_DutyCycle_16_9: I2C fast mode Tlow/Thigh = 16/9
 888:common/i2c.c  ****   * @retval None
 889:common/i2c.c  ****   */
 890:common/i2c.c  **** void I2C_FastModeDutyCycleConfig(I2C_TypeDef* I2Cx, uint16_t I2C_DutyCycle)
 891:common/i2c.c  **** {
 1747              		.loc 1 891 0
 1748              		.cfi_startproc
 1749              		@ args = 0, pretend = 0, frame = 8
 1750              		@ frame_needed = 1, uses_anonymous_args = 0
 1751              		@ link register save eliminated.
 1752 0736 80B4     		push	{r7}
 1753              		.cfi_def_cfa_offset 4
 1754              		.cfi_offset 7, -4
 1755 0738 83B0     		sub	sp, sp, #12
 1756              		.cfi_def_cfa_offset 16
 1757 073a 00AF     		add	r7, sp, #0
 1758              		.cfi_def_cfa_register 7
 1759 073c 7860     		str	r0, [r7, #4]
 1760 073e 0B46     		mov	r3, r1
 1761 0740 7B80     		strh	r3, [r7, #2]	@ movhi
 892:common/i2c.c  ****   /* Check the parameters */
 893:common/i2c.c  ****   assert_param(IS_I2C_ALL_PERIPH(I2Cx));
 894:common/i2c.c  ****   assert_param(IS_I2C_DUTY_CYCLE(I2C_DutyCycle));
 895:common/i2c.c  ****   if (I2C_DutyCycle != I2C_DutyCycle_16_9)
 1762              		.loc 1 895 0
 1763 0742 7B88     		ldrh	r3, [r7, #2]
 1764 0744 B3F5804F 		cmp	r3, #16384
 1765 0748 08D0     		beq	.L97
ARM GAS  /tmp/ccozkyvL.s 			page 48


 896:common/i2c.c  ****   {
 897:common/i2c.c  ****     /* I2C fast mode Tlow/Thigh=2 */
 898:common/i2c.c  ****     I2Cx->CCR &= I2C_DutyCycle_2;
 1766              		.loc 1 898 0
 1767 074a 7B68     		ldr	r3, [r7, #4]
 1768 074c 9B8B     		ldrh	r3, [r3, #28]	@ movhi
 1769 074e 9BB2     		uxth	r3, r3
 1770 0750 23F48043 		bic	r3, r3, #16384
 1771 0754 9AB2     		uxth	r2, r3
 1772 0756 7B68     		ldr	r3, [r7, #4]
 1773 0758 9A83     		strh	r2, [r3, #28]	@ movhi
 899:common/i2c.c  ****   }
 900:common/i2c.c  ****   else
 901:common/i2c.c  ****   {
 902:common/i2c.c  ****     /* I2C fast mode Tlow/Thigh=16/9 */
 903:common/i2c.c  ****     I2Cx->CCR |= I2C_DutyCycle_16_9;
 904:common/i2c.c  ****   }
 905:common/i2c.c  **** }
 1774              		.loc 1 905 0
 1775 075a 07E0     		b	.L99
 1776              	.L97:
 903:common/i2c.c  ****   }
 1777              		.loc 1 903 0
 1778 075c 7B68     		ldr	r3, [r7, #4]
 1779 075e 9B8B     		ldrh	r3, [r3, #28]	@ movhi
 1780 0760 9BB2     		uxth	r3, r3
 1781 0762 43F48043 		orr	r3, r3, #16384
 1782 0766 9AB2     		uxth	r2, r3
 1783 0768 7B68     		ldr	r3, [r7, #4]
 1784 076a 9A83     		strh	r2, [r3, #28]	@ movhi
 1785              	.L99:
 1786              		.loc 1 905 0
 1787 076c 00BF     		nop
 1788 076e 0C37     		adds	r7, r7, #12
 1789              		.cfi_def_cfa_offset 4
 1790 0770 BD46     		mov	sp, r7
 1791              		.cfi_def_cfa_register 13
 1792              		@ sp needed
 1793 0772 80BC     		pop	{r7}
 1794              		.cfi_restore 7
 1795              		.cfi_def_cfa_offset 0
 1796 0774 7047     		bx	lr
 1797              		.cfi_endproc
 1798              	.LFE89:
 1799              		.size	I2C_FastModeDutyCycleConfig, .-I2C_FastModeDutyCycleConfig
 1800              		.align	1
 1801              		.global	I2C_CheckEvent
 1802              		.syntax unified
 1803              		.thumb
 1804              		.thumb_func
 1805              		.fpu softvfp
 1806              		.type	I2C_CheckEvent, %function
 1807              	I2C_CheckEvent:
 1808              	.LFB90:
 906:common/i2c.c  **** 
 907:common/i2c.c  **** 
 908:common/i2c.c  **** 
ARM GAS  /tmp/ccozkyvL.s 			page 49


 909:common/i2c.c  **** /**
 910:common/i2c.c  ****  * @brief
 911:common/i2c.c  ****  ****************************************************************************************
 912:common/i2c.c  ****  *
 913:common/i2c.c  ****  *                         I2C State Monitoring Functions
 914:common/i2c.c  ****  *                       
 915:common/i2c.c  ****  ****************************************************************************************   
 916:common/i2c.c  ****  * This I2C driver provides three different ways for I2C state monitoring
 917:common/i2c.c  ****  *  depending on the application requirements and constraints:
 918:common/i2c.c  ****  *        
 919:common/i2c.c  ****  *  
 920:common/i2c.c  ****  * 1) Basic state monitoring:
 921:common/i2c.c  ****  *    Using I2C_CheckEvent() function:
 922:common/i2c.c  ****  *    It compares the status registers (SR1 and SR2) content to a given event
 923:common/i2c.c  ****  *    (can be the combination of one or more flags).
 924:common/i2c.c  ****  *    It returns SUCCESS if the current status includes the given flags 
 925:common/i2c.c  ****  *    and returns ERROR if one or more flags are missing in the current status.
 926:common/i2c.c  ****  *    - When to use:
 927:common/i2c.c  ****  *      - This function is suitable for most applications as well as for startup 
 928:common/i2c.c  ****  *      activity since the events are fully described in the product reference manual 
 929:common/i2c.c  ****  *      (RM0008).
 930:common/i2c.c  ****  *      - It is also suitable for users who need to define their own events.
 931:common/i2c.c  ****  *    - Limitations:
 932:common/i2c.c  ****  *      - If an error occurs (ie. error flags are set besides to the monitored flags),
 933:common/i2c.c  ****  *        the I2C_CheckEvent() function may return SUCCESS despite the communication
 934:common/i2c.c  ****  *        hold or corrupted real state. 
 935:common/i2c.c  ****  *        In this case, it is advised to use error interrupts to monitor the error
 936:common/i2c.c  ****  *        events and handle them in the interrupt IRQ handler.
 937:common/i2c.c  ****  *        
 938:common/i2c.c  ****  *        @note 
 939:common/i2c.c  ****  *        For error management, it is advised to use the following functions:
 940:common/i2c.c  ****  *          - I2C_ITConfig() to configure and enable the error interrupts (I2C_IT_ERR).
 941:common/i2c.c  ****  *          - I2Cx_ER_IRQHandler() which is called when the error interrupt occurs.
 942:common/i2c.c  ****  *            Where x is the peripheral instance (I2C1, I2C2 ...)
 943:common/i2c.c  ****  *          - I2C_GetFlagStatus() or I2C_GetITStatus() to be called into I2Cx_ER_IRQHandler() 
 944:common/i2c.c  ****  *            in order to determine which error occured.
 945:common/i2c.c  ****  *          - I2C_ClearFlag() or I2C_ClearITPendingBit() and/or I2C_SoftwareResetCmd()
 946:common/i2c.c  ****  *            and/or I2C_GenerateStop() in order to clear the error flag and source,
 947:common/i2c.c  ****  *            and return to correct communication status.
 948:common/i2c.c  ****  *            
 949:common/i2c.c  ****  *
 950:common/i2c.c  ****  *  2) Advanced state monitoring:
 951:common/i2c.c  ****  *     Using the function I2C_GetLastEvent() which returns the image of both status 
 952:common/i2c.c  ****  *     registers in a single word (uint32_t) (Status Register 2 value is shifted left 
 953:common/i2c.c  ****  *     by 16 bits and concatenated to Status Register 1).
 954:common/i2c.c  ****  *     - When to use:
 955:common/i2c.c  ****  *       - This function is suitable for the same applications above but it allows to
 956:common/i2c.c  ****  *         overcome the mentioned limitation of I2C_GetFlagStatus() function.
 957:common/i2c.c  ****  *         The returned value could be compared to events already defined in the 
 958:common/i2c.c  ****  *         library (stm32f10x_i2c.h) or to custom values defined by user.
 959:common/i2c.c  ****  *       - This function is suitable when multiple flags are monitored at the same time.
 960:common/i2c.c  ****  *       - At the opposite of I2C_CheckEvent() function, this function allows user to
 961:common/i2c.c  ****  *         choose when an event is accepted (when all events flags are set and no 
 962:common/i2c.c  ****  *         other flags are set or just when the needed flags are set like 
 963:common/i2c.c  ****  *         I2C_CheckEvent() function).
 964:common/i2c.c  ****  *     - Limitations:
 965:common/i2c.c  ****  *       - User may need to define his own events.
ARM GAS  /tmp/ccozkyvL.s 			page 50


 966:common/i2c.c  ****  *       - Same remark concerning the error management is applicable for this 
 967:common/i2c.c  ****  *         function if user decides to check only regular communication flags (and 
 968:common/i2c.c  ****  *         ignores error flags).
 969:common/i2c.c  ****  *     
 970:common/i2c.c  ****  *
 971:common/i2c.c  ****  *  3) Flag-based state monitoring:
 972:common/i2c.c  ****  *     Using the function I2C_GetFlagStatus() which simply returns the status of 
 973:common/i2c.c  ****  *     one single flag (ie. I2C_FLAG_RXNE ...). 
 974:common/i2c.c  ****  *     - When to use:
 975:common/i2c.c  ****  *        - This function could be used for specific applications or in debug phase.
 976:common/i2c.c  ****  *        - It is suitable when only one flag checking is needed (most I2C events 
 977:common/i2c.c  ****  *          are monitored through multiple flags).
 978:common/i2c.c  ****  *     - Limitations: 
 979:common/i2c.c  ****  *        - When calling this function, the Status register is accessed. Some flags are
 980:common/i2c.c  ****  *          cleared when the status register is accessed. So checking the status
 981:common/i2c.c  ****  *          of one Flag, may clear other ones.
 982:common/i2c.c  ****  *        - Function may need to be called twice or more in order to monitor one 
 983:common/i2c.c  ****  *          single event.
 984:common/i2c.c  ****  *
 985:common/i2c.c  ****  *  For detailed description of Events, please refer to section I2C_Events in 
 986:common/i2c.c  ****  *  stm32f10x_i2c.h file.
 987:common/i2c.c  ****  *  
 988:common/i2c.c  ****  */
 989:common/i2c.c  **** 
 990:common/i2c.c  **** /**
 991:common/i2c.c  ****  * 
 992:common/i2c.c  ****  *  1) Basic state monitoring
 993:common/i2c.c  ****  *******************************************************************************
 994:common/i2c.c  ****  */
 995:common/i2c.c  **** 
 996:common/i2c.c  **** /**
 997:common/i2c.c  ****   * @brief  Checks whether the last I2Cx Event is equal to the one passed
 998:common/i2c.c  ****   *   as parameter.
 999:common/i2c.c  ****   * @param  I2Cx: where x can be 1 or 2 to select the I2C peripheral.
1000:common/i2c.c  ****   * @param  I2C_EVENT: specifies the event to be checked. 
1001:common/i2c.c  ****   *   This parameter can be one of the following values:
1002:common/i2c.c  ****   *     @arg I2C_EVENT_SLAVE_TRANSMITTER_ADDRESS_MATCHED           : EV1
1003:common/i2c.c  ****   *     @arg I2C_EVENT_SLAVE_RECEIVER_ADDRESS_MATCHED              : EV1
1004:common/i2c.c  ****   *     @arg I2C_EVENT_SLAVE_TRANSMITTER_SECONDADDRESS_MATCHED     : EV1
1005:common/i2c.c  ****   *     @arg I2C_EVENT_SLAVE_RECEIVER_SECONDADDRESS_MATCHED        : EV1
1006:common/i2c.c  ****   *     @arg I2C_EVENT_SLAVE_GENERALCALLADDRESS_MATCHED            : EV1
1007:common/i2c.c  ****   *     @arg I2C_EVENT_SLAVE_BYTE_RECEIVED                         : EV2
1008:common/i2c.c  ****   *     @arg (I2C_EVENT_SLAVE_BYTE_RECEIVED | I2C_FLAG_DUALF)      : EV2
1009:common/i2c.c  ****   *     @arg (I2C_EVENT_SLAVE_BYTE_RECEIVED | I2C_FLAG_GENCALL)    : EV2
1010:common/i2c.c  ****   *     @arg I2C_EVENT_SLAVE_BYTE_TRANSMITTED                      : EV3
1011:common/i2c.c  ****   *     @arg (I2C_EVENT_SLAVE_BYTE_TRANSMITTED | I2C_FLAG_DUALF)   : EV3
1012:common/i2c.c  ****   *     @arg (I2C_EVENT_SLAVE_BYTE_TRANSMITTED | I2C_FLAG_GENCALL) : EV3
1013:common/i2c.c  ****   *     @arg I2C_EVENT_SLAVE_ACK_FAILURE                           : EV3_2
1014:common/i2c.c  ****   *     @arg I2C_EVENT_SLAVE_STOP_DETECTED                         : EV4
1015:common/i2c.c  ****   *     @arg I2C_EVENT_MASTER_MODE_SELECT                          : EV5
1016:common/i2c.c  ****   *     @arg I2C_EVENT_MASTER_TRANSMITTER_MODE_SELECTED            : EV6     
1017:common/i2c.c  ****   *     @arg I2C_EVENT_MASTER_RECEIVER_MODE_SELECTED               : EV6
1018:common/i2c.c  ****   *     @arg I2C_EVENT_MASTER_BYTE_RECEIVED                        : EV7
1019:common/i2c.c  ****   *     @arg I2C_EVENT_MASTER_BYTE_TRANSMITTING                    : EV8
1020:common/i2c.c  ****   *     @arg I2C_EVENT_MASTER_BYTE_TRANSMITTED                     : EV8_2
1021:common/i2c.c  ****   *     @arg I2C_EVENT_MASTER_MODE_ADDRESS10                       : EV9
1022:common/i2c.c  ****   *     
ARM GAS  /tmp/ccozkyvL.s 			page 51


1023:common/i2c.c  ****   * @note: For detailed description of Events, please refer to section 
1024:common/i2c.c  ****   *    I2C_Events in stm32f10x_i2c.h file.
1025:common/i2c.c  ****   *    
1026:common/i2c.c  ****   * @retval An ErrorStatus enumeration value:
1027:common/i2c.c  ****   * - SUCCESS: Last event is equal to the I2C_EVENT
1028:common/i2c.c  ****   * - ERROR: Last event is different from the I2C_EVENT
1029:common/i2c.c  ****   */
1030:common/i2c.c  **** ErrorStatus I2C_CheckEvent(I2C_TypeDef* I2Cx, uint32_t I2C_EVENT)
1031:common/i2c.c  **** {
 1809              		.loc 1 1031 0
 1810              		.cfi_startproc
 1811              		@ args = 0, pretend = 0, frame = 24
 1812              		@ frame_needed = 1, uses_anonymous_args = 0
 1813              		@ link register save eliminated.
 1814 0776 80B4     		push	{r7}
 1815              		.cfi_def_cfa_offset 4
 1816              		.cfi_offset 7, -4
 1817 0778 87B0     		sub	sp, sp, #28
 1818              		.cfi_def_cfa_offset 32
 1819 077a 00AF     		add	r7, sp, #0
 1820              		.cfi_def_cfa_register 7
 1821 077c 7860     		str	r0, [r7, #4]
 1822 077e 3960     		str	r1, [r7]
1032:common/i2c.c  ****   uint32_t lastevent = 0;
 1823              		.loc 1 1032 0
 1824 0780 0023     		movs	r3, #0
 1825 0782 3B61     		str	r3, [r7, #16]
1033:common/i2c.c  ****   uint32_t flag1 = 0, flag2 = 0;
 1826              		.loc 1 1033 0
 1827 0784 0023     		movs	r3, #0
 1828 0786 FB60     		str	r3, [r7, #12]
 1829 0788 0023     		movs	r3, #0
 1830 078a BB60     		str	r3, [r7, #8]
1034:common/i2c.c  ****   ErrorStatus status = ERROR;
 1831              		.loc 1 1034 0
 1832 078c 0023     		movs	r3, #0
 1833 078e FB75     		strb	r3, [r7, #23]
1035:common/i2c.c  **** 
1036:common/i2c.c  ****   /* Check the parameters */
1037:common/i2c.c  ****   assert_param(IS_I2C_ALL_PERIPH(I2Cx));
1038:common/i2c.c  ****   assert_param(IS_I2C_EVENT(I2C_EVENT));
1039:common/i2c.c  **** 
1040:common/i2c.c  ****   /* Read the I2Cx status register */
1041:common/i2c.c  ****   flag1 = I2Cx->SR1;
 1834              		.loc 1 1041 0
 1835 0790 7B68     		ldr	r3, [r7, #4]
 1836 0792 9B8A     		ldrh	r3, [r3, #20]	@ movhi
 1837 0794 9BB2     		uxth	r3, r3
 1838 0796 FB60     		str	r3, [r7, #12]
1042:common/i2c.c  ****   flag2 = I2Cx->SR2;
 1839              		.loc 1 1042 0
 1840 0798 7B68     		ldr	r3, [r7, #4]
 1841 079a 1B8B     		ldrh	r3, [r3, #24]	@ movhi
 1842 079c 9BB2     		uxth	r3, r3
 1843 079e BB60     		str	r3, [r7, #8]
1043:common/i2c.c  ****   flag2 = flag2 << 16;
 1844              		.loc 1 1043 0
ARM GAS  /tmp/ccozkyvL.s 			page 52


 1845 07a0 BB68     		ldr	r3, [r7, #8]
 1846 07a2 1B04     		lsls	r3, r3, #16
 1847 07a4 BB60     		str	r3, [r7, #8]
1044:common/i2c.c  **** 
1045:common/i2c.c  ****   /* Get the last event value from I2C status register */
1046:common/i2c.c  ****   lastevent = (flag1 | flag2) & FLAG_Mask;
 1848              		.loc 1 1046 0
 1849 07a6 FA68     		ldr	r2, [r7, #12]
 1850 07a8 BB68     		ldr	r3, [r7, #8]
 1851 07aa 1343     		orrs	r3, r3, r2
 1852 07ac 23F07F43 		bic	r3, r3, #-16777216
 1853 07b0 3B61     		str	r3, [r7, #16]
1047:common/i2c.c  **** 
1048:common/i2c.c  ****   /* Check whether the last event contains the I2C_EVENT */
1049:common/i2c.c  ****   if ((lastevent & I2C_EVENT) == I2C_EVENT)
 1854              		.loc 1 1049 0
 1855 07b2 3A69     		ldr	r2, [r7, #16]
 1856 07b4 3B68     		ldr	r3, [r7]
 1857 07b6 1A40     		ands	r2, r2, r3
 1858 07b8 3B68     		ldr	r3, [r7]
 1859 07ba 9A42     		cmp	r2, r3
 1860 07bc 02D1     		bne	.L101
1050:common/i2c.c  ****   {
1051:common/i2c.c  ****     /* SUCCESS: last event is equal to I2C_EVENT */
1052:common/i2c.c  ****     status = SUCCESS;
 1861              		.loc 1 1052 0
 1862 07be 0123     		movs	r3, #1
 1863 07c0 FB75     		strb	r3, [r7, #23]
 1864 07c2 01E0     		b	.L102
 1865              	.L101:
1053:common/i2c.c  ****   }
1054:common/i2c.c  ****   else
1055:common/i2c.c  ****   {
1056:common/i2c.c  ****     /* ERROR: last event is different from I2C_EVENT */
1057:common/i2c.c  ****     status = ERROR;
 1866              		.loc 1 1057 0
 1867 07c4 0023     		movs	r3, #0
 1868 07c6 FB75     		strb	r3, [r7, #23]
 1869              	.L102:
1058:common/i2c.c  ****   }
1059:common/i2c.c  ****   /* Return status */
1060:common/i2c.c  ****   return status;
 1870              		.loc 1 1060 0
 1871 07c8 FB7D     		ldrb	r3, [r7, #23]	@ zero_extendqisi2
1061:common/i2c.c  **** }
 1872              		.loc 1 1061 0
 1873 07ca 1846     		mov	r0, r3
 1874 07cc 1C37     		adds	r7, r7, #28
 1875              		.cfi_def_cfa_offset 4
 1876 07ce BD46     		mov	sp, r7
 1877              		.cfi_def_cfa_register 13
 1878              		@ sp needed
 1879 07d0 80BC     		pop	{r7}
 1880              		.cfi_restore 7
 1881              		.cfi_def_cfa_offset 0
 1882 07d2 7047     		bx	lr
 1883              		.cfi_endproc
ARM GAS  /tmp/ccozkyvL.s 			page 53


 1884              	.LFE90:
 1885              		.size	I2C_CheckEvent, .-I2C_CheckEvent
 1886              		.align	1
 1887              		.global	I2C_GetLastEvent
 1888              		.syntax unified
 1889              		.thumb
 1890              		.thumb_func
 1891              		.fpu softvfp
 1892              		.type	I2C_GetLastEvent, %function
 1893              	I2C_GetLastEvent:
 1894              	.LFB91:
1062:common/i2c.c  **** 
1063:common/i2c.c  **** /**
1064:common/i2c.c  ****  * 
1065:common/i2c.c  ****  *  2) Advanced state monitoring
1066:common/i2c.c  ****  *******************************************************************************
1067:common/i2c.c  ****  */
1068:common/i2c.c  **** 
1069:common/i2c.c  **** /**
1070:common/i2c.c  ****   * @brief  Returns the last I2Cx Event.
1071:common/i2c.c  ****   * @param  I2Cx: where x can be 1 or 2 to select the I2C peripheral.
1072:common/i2c.c  ****   *     
1073:common/i2c.c  ****   * @note: For detailed description of Events, please refer to section 
1074:common/i2c.c  ****   *    I2C_Events in stm32f10x_i2c.h file.
1075:common/i2c.c  ****   *    
1076:common/i2c.c  ****   * @retval The last event
1077:common/i2c.c  ****   */
1078:common/i2c.c  **** uint32_t I2C_GetLastEvent(I2C_TypeDef* I2Cx)
1079:common/i2c.c  **** {
 1895              		.loc 1 1079 0
 1896              		.cfi_startproc
 1897              		@ args = 0, pretend = 0, frame = 24
 1898              		@ frame_needed = 1, uses_anonymous_args = 0
 1899              		@ link register save eliminated.
 1900 07d4 80B4     		push	{r7}
 1901              		.cfi_def_cfa_offset 4
 1902              		.cfi_offset 7, -4
 1903 07d6 87B0     		sub	sp, sp, #28
 1904              		.cfi_def_cfa_offset 32
 1905 07d8 00AF     		add	r7, sp, #0
 1906              		.cfi_def_cfa_register 7
 1907 07da 7860     		str	r0, [r7, #4]
1080:common/i2c.c  ****   uint32_t lastevent = 0;
 1908              		.loc 1 1080 0
 1909 07dc 0023     		movs	r3, #0
 1910 07de 7B61     		str	r3, [r7, #20]
1081:common/i2c.c  ****   uint32_t flag1 = 0, flag2 = 0;
 1911              		.loc 1 1081 0
 1912 07e0 0023     		movs	r3, #0
 1913 07e2 3B61     		str	r3, [r7, #16]
 1914 07e4 0023     		movs	r3, #0
 1915 07e6 FB60     		str	r3, [r7, #12]
1082:common/i2c.c  **** 
1083:common/i2c.c  ****   /* Check the parameters */
1084:common/i2c.c  ****   assert_param(IS_I2C_ALL_PERIPH(I2Cx));
1085:common/i2c.c  **** 
1086:common/i2c.c  ****   /* Read the I2Cx status register */
ARM GAS  /tmp/ccozkyvL.s 			page 54


1087:common/i2c.c  ****   flag1 = I2Cx->SR1;
 1916              		.loc 1 1087 0
 1917 07e8 7B68     		ldr	r3, [r7, #4]
 1918 07ea 9B8A     		ldrh	r3, [r3, #20]	@ movhi
 1919 07ec 9BB2     		uxth	r3, r3
 1920 07ee 3B61     		str	r3, [r7, #16]
1088:common/i2c.c  ****   flag2 = I2Cx->SR2;
 1921              		.loc 1 1088 0
 1922 07f0 7B68     		ldr	r3, [r7, #4]
 1923 07f2 1B8B     		ldrh	r3, [r3, #24]	@ movhi
 1924 07f4 9BB2     		uxth	r3, r3
 1925 07f6 FB60     		str	r3, [r7, #12]
1089:common/i2c.c  ****   flag2 = flag2 << 16;
 1926              		.loc 1 1089 0
 1927 07f8 FB68     		ldr	r3, [r7, #12]
 1928 07fa 1B04     		lsls	r3, r3, #16
 1929 07fc FB60     		str	r3, [r7, #12]
1090:common/i2c.c  **** 
1091:common/i2c.c  ****   /* Get the last event value from I2C status register */
1092:common/i2c.c  ****   lastevent = (flag1 | flag2) & FLAG_Mask;
 1930              		.loc 1 1092 0
 1931 07fe 3A69     		ldr	r2, [r7, #16]
 1932 0800 FB68     		ldr	r3, [r7, #12]
 1933 0802 1343     		orrs	r3, r3, r2
 1934 0804 23F07F43 		bic	r3, r3, #-16777216
 1935 0808 7B61     		str	r3, [r7, #20]
1093:common/i2c.c  **** 
1094:common/i2c.c  ****   /* Return status */
1095:common/i2c.c  ****   return lastevent;
 1936              		.loc 1 1095 0
 1937 080a 7B69     		ldr	r3, [r7, #20]
1096:common/i2c.c  **** }
 1938              		.loc 1 1096 0
 1939 080c 1846     		mov	r0, r3
 1940 080e 1C37     		adds	r7, r7, #28
 1941              		.cfi_def_cfa_offset 4
 1942 0810 BD46     		mov	sp, r7
 1943              		.cfi_def_cfa_register 13
 1944              		@ sp needed
 1945 0812 80BC     		pop	{r7}
 1946              		.cfi_restore 7
 1947              		.cfi_def_cfa_offset 0
 1948 0814 7047     		bx	lr
 1949              		.cfi_endproc
 1950              	.LFE91:
 1951              		.size	I2C_GetLastEvent, .-I2C_GetLastEvent
 1952              		.align	1
 1953              		.global	I2C_GetFlagStatus
 1954              		.syntax unified
 1955              		.thumb
 1956              		.thumb_func
 1957              		.fpu softvfp
 1958              		.type	I2C_GetFlagStatus, %function
 1959              	I2C_GetFlagStatus:
 1960              	.LFB92:
1097:common/i2c.c  **** 
1098:common/i2c.c  **** /**
ARM GAS  /tmp/ccozkyvL.s 			page 55


1099:common/i2c.c  ****  * 
1100:common/i2c.c  ****  *  3) Flag-based state monitoring
1101:common/i2c.c  ****  *******************************************************************************
1102:common/i2c.c  ****  */
1103:common/i2c.c  **** 
1104:common/i2c.c  **** /**
1105:common/i2c.c  ****   * @brief  Checks whether the specified I2C flag is set or not.
1106:common/i2c.c  ****   * @param  I2Cx: where x can be 1 or 2 to select the I2C peripheral.
1107:common/i2c.c  ****   * @param  I2C_FLAG: specifies the flag to check. 
1108:common/i2c.c  ****   *   This parameter can be one of the following values:
1109:common/i2c.c  ****   *     @arg I2C_FLAG_DUALF: Dual flag (Slave mode)
1110:common/i2c.c  ****   *     @arg I2C_FLAG_SMBHOST: SMBus host header (Slave mode)
1111:common/i2c.c  ****   *     @arg I2C_FLAG_SMBDEFAULT: SMBus default header (Slave mode)
1112:common/i2c.c  ****   *     @arg I2C_FLAG_GENCALL: General call header flag (Slave mode)
1113:common/i2c.c  ****   *     @arg I2C_FLAG_TRA: Transmitter/Receiver flag
1114:common/i2c.c  ****   *     @arg I2C_FLAG_BUSY: Bus busy flag
1115:common/i2c.c  ****   *     @arg I2C_FLAG_MSL: Master/Slave flag
1116:common/i2c.c  ****   *     @arg I2C_FLAG_SMBALERT: SMBus Alert flag
1117:common/i2c.c  ****   *     @arg I2C_FLAG_TIMEOUT: Timeout or Tlow error flag
1118:common/i2c.c  ****   *     @arg I2C_FLAG_PECERR: PEC error in reception flag
1119:common/i2c.c  ****   *     @arg I2C_FLAG_OVR: Overrun/Underrun flag (Slave mode)
1120:common/i2c.c  ****   *     @arg I2C_FLAG_AF: Acknowledge failure flag
1121:common/i2c.c  ****   *     @arg I2C_FLAG_ARLO: Arbitration lost flag (Master mode)
1122:common/i2c.c  ****   *     @arg I2C_FLAG_BERR: Bus error flag
1123:common/i2c.c  ****   *     @arg I2C_FLAG_TXE: Data register empty flag (Transmitter)
1124:common/i2c.c  ****   *     @arg I2C_FLAG_RXNE: Data register not empty (Receiver) flag
1125:common/i2c.c  ****   *     @arg I2C_FLAG_STOPF: Stop detection flag (Slave mode)
1126:common/i2c.c  ****   *     @arg I2C_FLAG_ADD10: 10-bit header sent flag (Master mode)
1127:common/i2c.c  ****   *     @arg I2C_FLAG_BTF: Byte transfer finished flag
1128:common/i2c.c  ****   *     @arg I2C_FLAG_ADDR: Address sent flag (Master mode) "ADSL"
1129:common/i2c.c  ****   *   Address matched flag (Slave mode)"ENDA"
1130:common/i2c.c  ****   *     @arg I2C_FLAG_SB: Start bit flag (Master mode)
1131:common/i2c.c  ****   * @retval The new state of I2C_FLAG (SET or RESET).
1132:common/i2c.c  ****   */
1133:common/i2c.c  **** FlagStatus I2C_GetFlagStatus(I2C_TypeDef* I2Cx, uint32_t I2C_FLAG)
1134:common/i2c.c  **** {
 1961              		.loc 1 1134 0
 1962              		.cfi_startproc
 1963              		@ args = 0, pretend = 0, frame = 24
 1964              		@ frame_needed = 1, uses_anonymous_args = 0
 1965              		@ link register save eliminated.
 1966 0816 80B4     		push	{r7}
 1967              		.cfi_def_cfa_offset 4
 1968              		.cfi_offset 7, -4
 1969 0818 87B0     		sub	sp, sp, #28
 1970              		.cfi_def_cfa_offset 32
 1971 081a 00AF     		add	r7, sp, #0
 1972              		.cfi_def_cfa_register 7
 1973 081c 7860     		str	r0, [r7, #4]
 1974 081e 3960     		str	r1, [r7]
1135:common/i2c.c  ****   FlagStatus bitstatus = RESET;
 1975              		.loc 1 1135 0
 1976 0820 0023     		movs	r3, #0
 1977 0822 FB75     		strb	r3, [r7, #23]
1136:common/i2c.c  ****   __IO uint32_t i2creg = 0, i2cxbase = 0;
 1978              		.loc 1 1136 0
 1979 0824 0023     		movs	r3, #0
ARM GAS  /tmp/ccozkyvL.s 			page 56


 1980 0826 3B61     		str	r3, [r7, #16]
 1981 0828 0023     		movs	r3, #0
 1982 082a FB60     		str	r3, [r7, #12]
1137:common/i2c.c  **** 
1138:common/i2c.c  ****   /* Check the parameters */
1139:common/i2c.c  ****   assert_param(IS_I2C_ALL_PERIPH(I2Cx));
1140:common/i2c.c  ****   assert_param(IS_I2C_GET_FLAG(I2C_FLAG));
1141:common/i2c.c  **** 
1142:common/i2c.c  ****   /* Get the I2Cx peripheral base address */
1143:common/i2c.c  ****   i2cxbase = (uint32_t)I2Cx;
 1983              		.loc 1 1143 0
 1984 082c 7B68     		ldr	r3, [r7, #4]
 1985 082e FB60     		str	r3, [r7, #12]
1144:common/i2c.c  ****   
1145:common/i2c.c  ****   /* Read flag register index */
1146:common/i2c.c  ****   i2creg = I2C_FLAG >> 28;
 1986              		.loc 1 1146 0
 1987 0830 3B68     		ldr	r3, [r7]
 1988 0832 1B0F     		lsrs	r3, r3, #28
 1989 0834 3B61     		str	r3, [r7, #16]
1147:common/i2c.c  ****   
1148:common/i2c.c  ****   /* Get bit[23:0] of the flag */
1149:common/i2c.c  ****   I2C_FLAG &= FLAG_Mask;
 1990              		.loc 1 1149 0
 1991 0836 3B68     		ldr	r3, [r7]
 1992 0838 23F07F43 		bic	r3, r3, #-16777216
 1993 083c 3B60     		str	r3, [r7]
1150:common/i2c.c  ****   
1151:common/i2c.c  ****   if(i2creg != 0)
 1994              		.loc 1 1151 0
 1995 083e 3B69     		ldr	r3, [r7, #16]
 1996 0840 002B     		cmp	r3, #0
 1997 0842 03D0     		beq	.L107
1152:common/i2c.c  ****   {
1153:common/i2c.c  ****     /* Get the I2Cx SR1 register address */
1154:common/i2c.c  ****     i2cxbase += 0x14;
 1998              		.loc 1 1154 0
 1999 0844 FB68     		ldr	r3, [r7, #12]
 2000 0846 1433     		adds	r3, r3, #20
 2001 0848 FB60     		str	r3, [r7, #12]
 2002 084a 05E0     		b	.L108
 2003              	.L107:
1155:common/i2c.c  ****   }
1156:common/i2c.c  ****   else
1157:common/i2c.c  ****   {
1158:common/i2c.c  ****     /* Flag in I2Cx SR2 Register */
1159:common/i2c.c  ****     I2C_FLAG = (uint32_t)(I2C_FLAG >> 16);
 2004              		.loc 1 1159 0
 2005 084c 3B68     		ldr	r3, [r7]
 2006 084e 1B0C     		lsrs	r3, r3, #16
 2007 0850 3B60     		str	r3, [r7]
1160:common/i2c.c  ****     /* Get the I2Cx SR2 register address */
1161:common/i2c.c  ****     i2cxbase += 0x18;
 2008              		.loc 1 1161 0
 2009 0852 FB68     		ldr	r3, [r7, #12]
 2010 0854 1833     		adds	r3, r3, #24
 2011 0856 FB60     		str	r3, [r7, #12]
ARM GAS  /tmp/ccozkyvL.s 			page 57


 2012              	.L108:
1162:common/i2c.c  ****   }
1163:common/i2c.c  ****   
1164:common/i2c.c  ****   if(((*(__IO uint32_t *)i2cxbase) & I2C_FLAG) != (uint32_t)RESET)
 2013              		.loc 1 1164 0
 2014 0858 FB68     		ldr	r3, [r7, #12]
 2015 085a 1A68     		ldr	r2, [r3]
 2016 085c 3B68     		ldr	r3, [r7]
 2017 085e 1340     		ands	r3, r3, r2
 2018 0860 002B     		cmp	r3, #0
 2019 0862 02D0     		beq	.L109
1165:common/i2c.c  ****   {
1166:common/i2c.c  ****     /* I2C_FLAG is set */
1167:common/i2c.c  ****     bitstatus = SET;
 2020              		.loc 1 1167 0
 2021 0864 0123     		movs	r3, #1
 2022 0866 FB75     		strb	r3, [r7, #23]
 2023 0868 01E0     		b	.L110
 2024              	.L109:
1168:common/i2c.c  ****   }
1169:common/i2c.c  ****   else
1170:common/i2c.c  ****   {
1171:common/i2c.c  ****     /* I2C_FLAG is reset */
1172:common/i2c.c  ****     bitstatus = RESET;
 2025              		.loc 1 1172 0
 2026 086a 0023     		movs	r3, #0
 2027 086c FB75     		strb	r3, [r7, #23]
 2028              	.L110:
1173:common/i2c.c  ****   }
1174:common/i2c.c  ****   
1175:common/i2c.c  ****   /* Return the I2C_FLAG status */
1176:common/i2c.c  ****   return  bitstatus;
 2029              		.loc 1 1176 0
 2030 086e FB7D     		ldrb	r3, [r7, #23]	@ zero_extendqisi2
1177:common/i2c.c  **** }
 2031              		.loc 1 1177 0
 2032 0870 1846     		mov	r0, r3
 2033 0872 1C37     		adds	r7, r7, #28
 2034              		.cfi_def_cfa_offset 4
 2035 0874 BD46     		mov	sp, r7
 2036              		.cfi_def_cfa_register 13
 2037              		@ sp needed
 2038 0876 80BC     		pop	{r7}
 2039              		.cfi_restore 7
 2040              		.cfi_def_cfa_offset 0
 2041 0878 7047     		bx	lr
 2042              		.cfi_endproc
 2043              	.LFE92:
 2044              		.size	I2C_GetFlagStatus, .-I2C_GetFlagStatus
 2045              		.align	1
 2046              		.global	I2C_ClearFlag
 2047              		.syntax unified
 2048              		.thumb
 2049              		.thumb_func
 2050              		.fpu softvfp
 2051              		.type	I2C_ClearFlag, %function
 2052              	I2C_ClearFlag:
ARM GAS  /tmp/ccozkyvL.s 			page 58


 2053              	.LFB93:
1178:common/i2c.c  **** 
1179:common/i2c.c  **** 
1180:common/i2c.c  **** 
1181:common/i2c.c  **** /**
1182:common/i2c.c  ****   * @brief  Clears the I2Cx's pending flags.
1183:common/i2c.c  ****   * @param  I2Cx: where x can be 1 or 2 to select the I2C peripheral.
1184:common/i2c.c  ****   * @param  I2C_FLAG: specifies the flag to clear. 
1185:common/i2c.c  ****   *   This parameter can be any combination of the following values:
1186:common/i2c.c  ****   *     @arg I2C_FLAG_SMBALERT: SMBus Alert flag
1187:common/i2c.c  ****   *     @arg I2C_FLAG_TIMEOUT: Timeout or Tlow error flag
1188:common/i2c.c  ****   *     @arg I2C_FLAG_PECERR: PEC error in reception flag
1189:common/i2c.c  ****   *     @arg I2C_FLAG_OVR: Overrun/Underrun flag (Slave mode)
1190:common/i2c.c  ****   *     @arg I2C_FLAG_AF: Acknowledge failure flag
1191:common/i2c.c  ****   *     @arg I2C_FLAG_ARLO: Arbitration lost flag (Master mode)
1192:common/i2c.c  ****   *     @arg I2C_FLAG_BERR: Bus error flag
1193:common/i2c.c  ****   *   
1194:common/i2c.c  ****   * @note
1195:common/i2c.c  ****   *   - STOPF (STOP detection) is cleared by software sequence: a read operation 
1196:common/i2c.c  ****   *     to I2C_SR1 register (I2C_GetFlagStatus()) followed by a write operation 
1197:common/i2c.c  ****   *     to I2C_CR1 register (I2C_Cmd() to re-enable the I2C peripheral).
1198:common/i2c.c  ****   *   - ADD10 (10-bit header sent) is cleared by software sequence: a read 
1199:common/i2c.c  ****   *     operation to I2C_SR1 (I2C_GetFlagStatus()) followed by writing the 
1200:common/i2c.c  ****   *     second byte of the address in DR register.
1201:common/i2c.c  ****   *   - BTF (Byte Transfer Finished) is cleared by software sequence: a read 
1202:common/i2c.c  ****   *     operation to I2C_SR1 register (I2C_GetFlagStatus()) followed by a 
1203:common/i2c.c  ****   *     read/write to I2C_DR register (I2C_SendData()).
1204:common/i2c.c  ****   *   - ADDR (Address sent) is cleared by software sequence: a read operation to 
1205:common/i2c.c  ****   *     I2C_SR1 register (I2C_GetFlagStatus()) followed by a read operation to 
1206:common/i2c.c  ****   *     I2C_SR2 register ((void)(I2Cx->SR2)).
1207:common/i2c.c  ****   *   - SB (Start Bit) is cleared software sequence: a read operation to I2C_SR1
1208:common/i2c.c  ****   *     register (I2C_GetFlagStatus()) followed by a write operation to I2C_DR
1209:common/i2c.c  ****   *     register  (I2C_SendData()).
1210:common/i2c.c  ****   * @retval None
1211:common/i2c.c  ****   */
1212:common/i2c.c  **** void I2C_ClearFlag(I2C_TypeDef* I2Cx, uint32_t I2C_FLAG)
1213:common/i2c.c  **** {
 2054              		.loc 1 1213 0
 2055              		.cfi_startproc
 2056              		@ args = 0, pretend = 0, frame = 16
 2057              		@ frame_needed = 1, uses_anonymous_args = 0
 2058              		@ link register save eliminated.
 2059 087a 80B4     		push	{r7}
 2060              		.cfi_def_cfa_offset 4
 2061              		.cfi_offset 7, -4
 2062 087c 85B0     		sub	sp, sp, #20
 2063              		.cfi_def_cfa_offset 24
 2064 087e 00AF     		add	r7, sp, #0
 2065              		.cfi_def_cfa_register 7
 2066 0880 7860     		str	r0, [r7, #4]
 2067 0882 3960     		str	r1, [r7]
1214:common/i2c.c  ****   uint32_t flagpos = 0;
 2068              		.loc 1 1214 0
 2069 0884 0023     		movs	r3, #0
 2070 0886 FB60     		str	r3, [r7, #12]
1215:common/i2c.c  ****   /* Check the parameters */
1216:common/i2c.c  ****   assert_param(IS_I2C_ALL_PERIPH(I2Cx));
ARM GAS  /tmp/ccozkyvL.s 			page 59


1217:common/i2c.c  ****   assert_param(IS_I2C_CLEAR_FLAG(I2C_FLAG));
1218:common/i2c.c  ****   /* Get the I2C flag position */
1219:common/i2c.c  ****   flagpos = I2C_FLAG & FLAG_Mask;
 2071              		.loc 1 1219 0
 2072 0888 3B68     		ldr	r3, [r7]
 2073 088a 23F07F43 		bic	r3, r3, #-16777216
 2074 088e FB60     		str	r3, [r7, #12]
1220:common/i2c.c  ****   /* Clear the selected I2C flag */
1221:common/i2c.c  ****   I2Cx->SR1 = (uint16_t)~flagpos;
 2075              		.loc 1 1221 0
 2076 0890 FB68     		ldr	r3, [r7, #12]
 2077 0892 9BB2     		uxth	r3, r3
 2078 0894 DB43     		mvns	r3, r3
 2079 0896 9AB2     		uxth	r2, r3
 2080 0898 7B68     		ldr	r3, [r7, #4]
 2081 089a 9A82     		strh	r2, [r3, #20]	@ movhi
1222:common/i2c.c  **** }
 2082              		.loc 1 1222 0
 2083 089c 00BF     		nop
 2084 089e 1437     		adds	r7, r7, #20
 2085              		.cfi_def_cfa_offset 4
 2086 08a0 BD46     		mov	sp, r7
 2087              		.cfi_def_cfa_register 13
 2088              		@ sp needed
 2089 08a2 80BC     		pop	{r7}
 2090              		.cfi_restore 7
 2091              		.cfi_def_cfa_offset 0
 2092 08a4 7047     		bx	lr
 2093              		.cfi_endproc
 2094              	.LFE93:
 2095              		.size	I2C_ClearFlag, .-I2C_ClearFlag
 2096              		.align	1
 2097              		.global	I2C_GetITStatus
 2098              		.syntax unified
 2099              		.thumb
 2100              		.thumb_func
 2101              		.fpu softvfp
 2102              		.type	I2C_GetITStatus, %function
 2103              	I2C_GetITStatus:
 2104              	.LFB94:
1223:common/i2c.c  **** 
1224:common/i2c.c  **** /**
1225:common/i2c.c  ****   * @brief  Checks whether the specified I2C interrupt has occurred or not.
1226:common/i2c.c  ****   * @param  I2Cx: where x can be 1 or 2 to select the I2C peripheral.
1227:common/i2c.c  ****   * @param  I2C_IT: specifies the interrupt source to check. 
1228:common/i2c.c  ****   *   This parameter can be one of the following values:
1229:common/i2c.c  ****   *     @arg I2C_IT_SMBALERT: SMBus Alert flag
1230:common/i2c.c  ****   *     @arg I2C_IT_TIMEOUT: Timeout or Tlow error flag
1231:common/i2c.c  ****   *     @arg I2C_IT_PECERR: PEC error in reception flag
1232:common/i2c.c  ****   *     @arg I2C_IT_OVR: Overrun/Underrun flag (Slave mode)
1233:common/i2c.c  ****   *     @arg I2C_IT_AF: Acknowledge failure flag
1234:common/i2c.c  ****   *     @arg I2C_IT_ARLO: Arbitration lost flag (Master mode)
1235:common/i2c.c  ****   *     @arg I2C_IT_BERR: Bus error flag
1236:common/i2c.c  ****   *     @arg I2C_IT_TXE: Data register empty flag (Transmitter)
1237:common/i2c.c  ****   *     @arg I2C_IT_RXNE: Data register not empty (Receiver) flag
1238:common/i2c.c  ****   *     @arg I2C_IT_STOPF: Stop detection flag (Slave mode)
1239:common/i2c.c  ****   *     @arg I2C_IT_ADD10: 10-bit header sent flag (Master mode)
ARM GAS  /tmp/ccozkyvL.s 			page 60


1240:common/i2c.c  ****   *     @arg I2C_IT_BTF: Byte transfer finished flag
1241:common/i2c.c  ****   *     @arg I2C_IT_ADDR: Address sent flag (Master mode) "ADSL"
1242:common/i2c.c  ****   *                       Address matched flag (Slave mode)"ENDAD"
1243:common/i2c.c  ****   *     @arg I2C_IT_SB: Start bit flag (Master mode)
1244:common/i2c.c  ****   * @retval The new state of I2C_IT (SET or RESET).
1245:common/i2c.c  ****   */
1246:common/i2c.c  **** ITStatus I2C_GetITStatus(I2C_TypeDef* I2Cx, uint32_t I2C_IT)
1247:common/i2c.c  **** {
 2105              		.loc 1 1247 0
 2106              		.cfi_startproc
 2107              		@ args = 0, pretend = 0, frame = 16
 2108              		@ frame_needed = 1, uses_anonymous_args = 0
 2109              		@ link register save eliminated.
 2110 08a6 80B4     		push	{r7}
 2111              		.cfi_def_cfa_offset 4
 2112              		.cfi_offset 7, -4
 2113 08a8 85B0     		sub	sp, sp, #20
 2114              		.cfi_def_cfa_offset 24
 2115 08aa 00AF     		add	r7, sp, #0
 2116              		.cfi_def_cfa_register 7
 2117 08ac 7860     		str	r0, [r7, #4]
 2118 08ae 3960     		str	r1, [r7]
1248:common/i2c.c  ****   ITStatus bitstatus = RESET;
 2119              		.loc 1 1248 0
 2120 08b0 0023     		movs	r3, #0
 2121 08b2 FB73     		strb	r3, [r7, #15]
1249:common/i2c.c  ****   uint32_t enablestatus = 0;
 2122              		.loc 1 1249 0
 2123 08b4 0023     		movs	r3, #0
 2124 08b6 BB60     		str	r3, [r7, #8]
1250:common/i2c.c  **** 
1251:common/i2c.c  ****   /* Check the parameters */
1252:common/i2c.c  ****   assert_param(IS_I2C_ALL_PERIPH(I2Cx));
1253:common/i2c.c  ****   assert_param(IS_I2C_GET_IT(I2C_IT));
1254:common/i2c.c  **** 
1255:common/i2c.c  ****   /* Check if the interrupt source is enabled or not */
1256:common/i2c.c  ****   enablestatus = (uint32_t)(((I2C_IT & ITEN_Mask) >> 16) & (I2Cx->CR2)) ;
 2125              		.loc 1 1256 0
 2126 08b8 3B68     		ldr	r3, [r7]
 2127 08ba 1B0C     		lsrs	r3, r3, #16
 2128 08bc 7A68     		ldr	r2, [r7, #4]
 2129 08be 9288     		ldrh	r2, [r2, #4]	@ movhi
 2130 08c0 92B2     		uxth	r2, r2
 2131 08c2 1340     		ands	r3, r3, r2
 2132 08c4 03F4E063 		and	r3, r3, #1792
 2133 08c8 BB60     		str	r3, [r7, #8]
1257:common/i2c.c  ****   
1258:common/i2c.c  ****   /* Get bit[23:0] of the flag */
1259:common/i2c.c  ****   I2C_IT &= FLAG_Mask;
 2134              		.loc 1 1259 0
 2135 08ca 3B68     		ldr	r3, [r7]
 2136 08cc 23F07F43 		bic	r3, r3, #-16777216
 2137 08d0 3B60     		str	r3, [r7]
1260:common/i2c.c  **** 
1261:common/i2c.c  ****   /* Check the status of the specified I2C flag */
1262:common/i2c.c  ****   if (((I2Cx->SR1 & I2C_IT) != (uint32_t)RESET) && enablestatus)
 2138              		.loc 1 1262 0
ARM GAS  /tmp/ccozkyvL.s 			page 61


 2139 08d2 7B68     		ldr	r3, [r7, #4]
 2140 08d4 9B8A     		ldrh	r3, [r3, #20]	@ movhi
 2141 08d6 9BB2     		uxth	r3, r3
 2142 08d8 1A46     		mov	r2, r3
 2143 08da 3B68     		ldr	r3, [r7]
 2144 08dc 1340     		ands	r3, r3, r2
 2145 08de 002B     		cmp	r3, #0
 2146 08e0 05D0     		beq	.L114
 2147              		.loc 1 1262 0 is_stmt 0 discriminator 1
 2148 08e2 BB68     		ldr	r3, [r7, #8]
 2149 08e4 002B     		cmp	r3, #0
 2150 08e6 02D0     		beq	.L114
1263:common/i2c.c  ****   {
1264:common/i2c.c  ****     /* I2C_IT is set */
1265:common/i2c.c  ****     bitstatus = SET;
 2151              		.loc 1 1265 0 is_stmt 1
 2152 08e8 0123     		movs	r3, #1
 2153 08ea FB73     		strb	r3, [r7, #15]
 2154 08ec 01E0     		b	.L115
 2155              	.L114:
1266:common/i2c.c  ****   }
1267:common/i2c.c  ****   else
1268:common/i2c.c  ****   {
1269:common/i2c.c  ****     /* I2C_IT is reset */
1270:common/i2c.c  ****     bitstatus = RESET;
 2156              		.loc 1 1270 0
 2157 08ee 0023     		movs	r3, #0
 2158 08f0 FB73     		strb	r3, [r7, #15]
 2159              	.L115:
1271:common/i2c.c  ****   }
1272:common/i2c.c  ****   /* Return the I2C_IT status */
1273:common/i2c.c  ****   return  bitstatus;
 2160              		.loc 1 1273 0
 2161 08f2 FB7B     		ldrb	r3, [r7, #15]	@ zero_extendqisi2
1274:common/i2c.c  **** }
 2162              		.loc 1 1274 0
 2163 08f4 1846     		mov	r0, r3
 2164 08f6 1437     		adds	r7, r7, #20
 2165              		.cfi_def_cfa_offset 4
 2166 08f8 BD46     		mov	sp, r7
 2167              		.cfi_def_cfa_register 13
 2168              		@ sp needed
 2169 08fa 80BC     		pop	{r7}
 2170              		.cfi_restore 7
 2171              		.cfi_def_cfa_offset 0
 2172 08fc 7047     		bx	lr
 2173              		.cfi_endproc
 2174              	.LFE94:
 2175              		.size	I2C_GetITStatus, .-I2C_GetITStatus
 2176              		.align	1
 2177              		.global	I2C_ClearITPendingBit
 2178              		.syntax unified
 2179              		.thumb
 2180              		.thumb_func
 2181              		.fpu softvfp
 2182              		.type	I2C_ClearITPendingBit, %function
 2183              	I2C_ClearITPendingBit:
ARM GAS  /tmp/ccozkyvL.s 			page 62


 2184              	.LFB95:
1275:common/i2c.c  **** 
1276:common/i2c.c  **** /**
1277:common/i2c.c  ****   * @brief  Clears the I2Cxs interrupt pending bits.
1278:common/i2c.c  ****   * @param  I2Cx: where x can be 1 or 2 to select the I2C peripheral.
1279:common/i2c.c  ****   * @param  I2C_IT: specifies the interrupt pending bit to clear. 
1280:common/i2c.c  ****   *   This parameter can be any combination of the following values:
1281:common/i2c.c  ****   *     @arg I2C_IT_SMBALERT: SMBus Alert interrupt
1282:common/i2c.c  ****   *     @arg I2C_IT_TIMEOUT: Timeout or Tlow error interrupt
1283:common/i2c.c  ****   *     @arg I2C_IT_PECERR: PEC error in reception  interrupt
1284:common/i2c.c  ****   *     @arg I2C_IT_OVR: Overrun/Underrun interrupt (Slave mode)
1285:common/i2c.c  ****   *     @arg I2C_IT_AF: Acknowledge failure interrupt
1286:common/i2c.c  ****   *     @arg I2C_IT_ARLO: Arbitration lost interrupt (Master mode)
1287:common/i2c.c  ****   *     @arg I2C_IT_BERR: Bus error interrupt
1288:common/i2c.c  ****   *   
1289:common/i2c.c  ****   * @note
1290:common/i2c.c  ****   *   - STOPF (STOP detection) is cleared by software sequence: a read operation 
1291:common/i2c.c  ****   *     to I2C_SR1 register (I2C_GetITStatus()) followed by a write operation to 
1292:common/i2c.c  ****   *     I2C_CR1 register (I2C_Cmd() to re-enable the I2C peripheral).
1293:common/i2c.c  ****   *   - ADD10 (10-bit header sent) is cleared by software sequence: a read 
1294:common/i2c.c  ****   *     operation to I2C_SR1 (I2C_GetITStatus()) followed by writing the second 
1295:common/i2c.c  ****   *     byte of the address in I2C_DR register.
1296:common/i2c.c  ****   *   - BTF (Byte Transfer Finished) is cleared by software sequence: a read 
1297:common/i2c.c  ****   *     operation to I2C_SR1 register (I2C_GetITStatus()) followed by a 
1298:common/i2c.c  ****   *     read/write to I2C_DR register (I2C_SendData()).
1299:common/i2c.c  ****   *   - ADDR (Address sent) is cleared by software sequence: a read operation to 
1300:common/i2c.c  ****   *     I2C_SR1 register (I2C_GetITStatus()) followed by a read operation to 
1301:common/i2c.c  ****   *     I2C_SR2 register ((void)(I2Cx->SR2)).
1302:common/i2c.c  ****   *   - SB (Start Bit) is cleared by software sequence: a read operation to 
1303:common/i2c.c  ****   *     I2C_SR1 register (I2C_GetITStatus()) followed by a write operation to 
1304:common/i2c.c  ****   *     I2C_DR register (I2C_SendData()).
1305:common/i2c.c  ****   * @retval None
1306:common/i2c.c  ****   */
1307:common/i2c.c  **** void I2C_ClearITPendingBit(I2C_TypeDef* I2Cx, uint32_t I2C_IT)
1308:common/i2c.c  **** {
 2185              		.loc 1 1308 0
 2186              		.cfi_startproc
 2187              		@ args = 0, pretend = 0, frame = 16
 2188              		@ frame_needed = 1, uses_anonymous_args = 0
 2189              		@ link register save eliminated.
 2190 08fe 80B4     		push	{r7}
 2191              		.cfi_def_cfa_offset 4
 2192              		.cfi_offset 7, -4
 2193 0900 85B0     		sub	sp, sp, #20
 2194              		.cfi_def_cfa_offset 24
 2195 0902 00AF     		add	r7, sp, #0
 2196              		.cfi_def_cfa_register 7
 2197 0904 7860     		str	r0, [r7, #4]
 2198 0906 3960     		str	r1, [r7]
1309:common/i2c.c  ****   uint32_t flagpos = 0;
 2199              		.loc 1 1309 0
 2200 0908 0023     		movs	r3, #0
 2201 090a FB60     		str	r3, [r7, #12]
1310:common/i2c.c  ****   /* Check the parameters */
1311:common/i2c.c  ****   assert_param(IS_I2C_ALL_PERIPH(I2Cx));
1312:common/i2c.c  ****   assert_param(IS_I2C_CLEAR_IT(I2C_IT));
1313:common/i2c.c  ****   /* Get the I2C flag position */
ARM GAS  /tmp/ccozkyvL.s 			page 63


1314:common/i2c.c  ****   flagpos = I2C_IT & FLAG_Mask;
 2202              		.loc 1 1314 0
 2203 090c 3B68     		ldr	r3, [r7]
 2204 090e 23F07F43 		bic	r3, r3, #-16777216
 2205 0912 FB60     		str	r3, [r7, #12]
1315:common/i2c.c  ****   /* Clear the selected I2C flag */
1316:common/i2c.c  ****   I2Cx->SR1 = (uint16_t)~flagpos;
 2206              		.loc 1 1316 0
 2207 0914 FB68     		ldr	r3, [r7, #12]
 2208 0916 9BB2     		uxth	r3, r3
 2209 0918 DB43     		mvns	r3, r3
 2210 091a 9AB2     		uxth	r2, r3
 2211 091c 7B68     		ldr	r3, [r7, #4]
 2212 091e 9A82     		strh	r2, [r3, #20]	@ movhi
1317:common/i2c.c  **** }
 2213              		.loc 1 1317 0
 2214 0920 00BF     		nop
 2215 0922 1437     		adds	r7, r7, #20
 2216              		.cfi_def_cfa_offset 4
 2217 0924 BD46     		mov	sp, r7
 2218              		.cfi_def_cfa_register 13
 2219              		@ sp needed
 2220 0926 80BC     		pop	{r7}
 2221              		.cfi_restore 7
 2222              		.cfi_def_cfa_offset 0
 2223 0928 7047     		bx	lr
 2224              		.cfi_endproc
 2225              	.LFE95:
 2226              		.size	I2C_ClearITPendingBit, .-I2C_ClearITPendingBit
 2227              	.Letext0:
 2228              		.file 2 "/usr/arm-none-eabi/include/machine/_default_types.h"
 2229              		.file 3 "/usr/arm-none-eabi/include/sys/_stdint.h"
 2230              		.file 4 "common/../include/STM32/../CMSIS/core_cm3.h"
 2231              		.file 5 "common/../include/STM32/system_stm32f10x.h"
 2232              		.file 6 "common/../include/STM32/stm32f10x.h"
 2233              		.file 7 "common/../include/STM32/i2c.h"
 2234              		.file 8 "common/../include/STM32/rcc.h"
 2235              		.file 9 "common/../src/../include/MPU6050/mpu6050.h"
 2236              		.file 10 "/usr/arm-none-eabi/include/sys/lock.h"
 2237              		.file 11 "/usr/arm-none-eabi/include/sys/_types.h"
 2238              		.file 12 "/usr/lib/gcc/arm-none-eabi/6.1.1/include/stddef.h"
 2239              		.file 13 "/usr/arm-none-eabi/include/sys/reent.h"
 2240              		.file 14 "/usr/arm-none-eabi/include/math.h"