ARM GAS  /tmp/ccozkyvL.s 			page 1


   1              		.cpu cortex-m3
   2              		.eabi_attribute 20, 1
   3              		.eabi_attribute 21, 1
   4              		.eabi_attribute 23, 3
   5              		.eabi_attribute 24, 1
   6              		.eabi_attribute 25, 1
   7              		.eabi_attribute 26, 1
   8              		.eabi_attribute 30, 6
   9              		.eabi_attribute 34, 1
  10              		.eabi_attribute 18, 4
  11              		.file	"i2c.c"
  12              		.text
  13              	.Ltext0:
  14              		.cfi_sections	.debug_frame
  15              		.align	1
  16              		.global	I2C_DeInit
  17              		.syntax unified
  18              		.thumb
  19              		.thumb_func
  20              		.fpu softvfp
  21              		.type	I2C_DeInit, %function
  22              	I2C_DeInit:
  23              	.LFB63:
  24              		.file 1 "common/i2c.c"
   1:common/i2c.c  **** /**
   2:common/i2c.c  ****   ******************************************************************************
   3:common/i2c.c  ****   * @file    stm32f10x_i2c.c
   4:common/i2c.c  ****   * @author  MCD Application Team
   5:common/i2c.c  ****   * @version V3.5.0
   6:common/i2c.c  ****   * @date    11-March-2011
   7:common/i2c.c  ****   * @brief   This file provides all the I2C firmware functions.
   8:common/i2c.c  ****   ******************************************************************************
   9:common/i2c.c  ****   * @attention
  10:common/i2c.c  ****   *
  11:common/i2c.c  ****   * THE PRESENT FIRMWARE WHICH IS FOR GUIDANCE ONLY AIMS AT PROVIDING CUSTOMERS
  12:common/i2c.c  ****   * WITH CODING INFORMATION REGARDING THEIR PRODUCTS IN ORDER FOR THEM TO SAVE
  13:common/i2c.c  ****   * TIME. AS A RESULT, STMICROELECTRONICS SHALL NOT BE HELD LIABLE FOR ANY
  14:common/i2c.c  ****   * DIRECT, INDIRECT OR CONSEQUENTIAL DAMAGES WITH RESPECT TO ANY CLAIMS ARISING
  15:common/i2c.c  ****   * FROM THE CONTENT OF SUCH FIRMWARE AND/OR THE USE MADE BY CUSTOMERS OF THE
  16:common/i2c.c  ****   * CODING INFORMATION CONTAINED HEREIN IN CONNECTION WITH THEIR PRODUCTS.
  17:common/i2c.c  ****   *
  18:common/i2c.c  ****   * <h2><center>&copy; COPYRIGHT 2011 STMicroelectronics</center></h2>
  19:common/i2c.c  ****   ******************************************************************************
  20:common/i2c.c  ****   */
  21:common/i2c.c  **** 
  22:common/i2c.c  **** /* Includes ------------------------------------------------------------------*/
  23:common/i2c.c  **** #include "../include/STM32/i2c.h"
  24:common/i2c.c  **** #include "../include/STM32/rcc.h"
  25:common/i2c.c  **** #include "../src/conf.h"
  26:common/i2c.c  **** 
  27:common/i2c.c  **** /** @addtogroup STM32F10x_StdPeriph_Driver
  28:common/i2c.c  ****   * @{
  29:common/i2c.c  ****   */
  30:common/i2c.c  **** 
  31:common/i2c.c  **** /** @defgroup I2C 
  32:common/i2c.c  ****   * @brief I2C driver modules
  33:common/i2c.c  ****   * @{
ARM GAS  /tmp/ccozkyvL.s 			page 2


  34:common/i2c.c  ****   */ 
  35:common/i2c.c  **** 
  36:common/i2c.c  **** /** @defgroup I2C_Private_TypesDefinitions
  37:common/i2c.c  ****   * @{
  38:common/i2c.c  ****   */
  39:common/i2c.c  **** 
  40:common/i2c.c  **** /**
  41:common/i2c.c  ****   * @}
  42:common/i2c.c  ****   */
  43:common/i2c.c  **** 
  44:common/i2c.c  **** /** @defgroup I2C_Private_Defines
  45:common/i2c.c  ****   * @{
  46:common/i2c.c  ****   */
  47:common/i2c.c  **** 
  48:common/i2c.c  **** /* I2C SPE mask */
  49:common/i2c.c  **** #define CR1_PE_Set              ((uint16_t)0x0001)
  50:common/i2c.c  **** #define CR1_PE_Reset            ((uint16_t)0xFFFE)
  51:common/i2c.c  **** 
  52:common/i2c.c  **** /* I2C START mask */
  53:common/i2c.c  **** #define CR1_START_Set           ((uint16_t)0x0100)
  54:common/i2c.c  **** #define CR1_START_Reset         ((uint16_t)0xFEFF)
  55:common/i2c.c  **** 
  56:common/i2c.c  **** /* I2C STOP mask */
  57:common/i2c.c  **** #define CR1_STOP_Set            ((uint16_t)0x0200)
  58:common/i2c.c  **** #define CR1_STOP_Reset          ((uint16_t)0xFDFF)
  59:common/i2c.c  **** 
  60:common/i2c.c  **** /* I2C ACK mask */
  61:common/i2c.c  **** #define CR1_ACK_Set             ((uint16_t)0x0400)
  62:common/i2c.c  **** #define CR1_ACK_Reset           ((uint16_t)0xFBFF)
  63:common/i2c.c  **** 
  64:common/i2c.c  **** /* I2C ENGC mask */
  65:common/i2c.c  **** #define CR1_ENGC_Set            ((uint16_t)0x0040)
  66:common/i2c.c  **** #define CR1_ENGC_Reset          ((uint16_t)0xFFBF)
  67:common/i2c.c  **** 
  68:common/i2c.c  **** /* I2C SWRST mask */
  69:common/i2c.c  **** #define CR1_SWRST_Set           ((uint16_t)0x8000)
  70:common/i2c.c  **** #define CR1_SWRST_Reset         ((uint16_t)0x7FFF)
  71:common/i2c.c  **** 
  72:common/i2c.c  **** /* I2C PEC mask */
  73:common/i2c.c  **** #define CR1_PEC_Set             ((uint16_t)0x1000)
  74:common/i2c.c  **** #define CR1_PEC_Reset           ((uint16_t)0xEFFF)
  75:common/i2c.c  **** 
  76:common/i2c.c  **** /* I2C ENPEC mask */
  77:common/i2c.c  **** #define CR1_ENPEC_Set           ((uint16_t)0x0020)
  78:common/i2c.c  **** #define CR1_ENPEC_Reset         ((uint16_t)0xFFDF)
  79:common/i2c.c  **** 
  80:common/i2c.c  **** /* I2C ENARP mask */
  81:common/i2c.c  **** #define CR1_ENARP_Set           ((uint16_t)0x0010)
  82:common/i2c.c  **** #define CR1_ENARP_Reset         ((uint16_t)0xFFEF)
  83:common/i2c.c  **** 
  84:common/i2c.c  **** /* I2C NOSTRETCH mask */
  85:common/i2c.c  **** #define CR1_NOSTRETCH_Set       ((uint16_t)0x0080)
  86:common/i2c.c  **** #define CR1_NOSTRETCH_Reset     ((uint16_t)0xFF7F)
  87:common/i2c.c  **** 
  88:common/i2c.c  **** /* I2C registers Masks */
  89:common/i2c.c  **** #define CR1_CLEAR_Mask          ((uint16_t)0xFBF5)
  90:common/i2c.c  **** 
ARM GAS  /tmp/ccozkyvL.s 			page 3


  91:common/i2c.c  **** /* I2C DMAEN mask */
  92:common/i2c.c  **** #define CR2_DMAEN_Set           ((uint16_t)0x0800)
  93:common/i2c.c  **** #define CR2_DMAEN_Reset         ((uint16_t)0xF7FF)
  94:common/i2c.c  **** 
  95:common/i2c.c  **** /* I2C LAST mask */
  96:common/i2c.c  **** #define CR2_LAST_Set            ((uint16_t)0x1000)
  97:common/i2c.c  **** #define CR2_LAST_Reset          ((uint16_t)0xEFFF)
  98:common/i2c.c  **** 
  99:common/i2c.c  **** /* I2C FREQ mask */
 100:common/i2c.c  **** #define CR2_FREQ_Reset          ((uint16_t)0xFFC0)
 101:common/i2c.c  **** 
 102:common/i2c.c  **** /* I2C ADD0 mask */
 103:common/i2c.c  **** #define OAR1_ADD0_Set           ((uint16_t)0x0001)
 104:common/i2c.c  **** #define OAR1_ADD0_Reset         ((uint16_t)0xFFFE)
 105:common/i2c.c  **** 
 106:common/i2c.c  **** /* I2C ENDUAL mask */
 107:common/i2c.c  **** #define OAR2_ENDUAL_Set         ((uint16_t)0x0001)
 108:common/i2c.c  **** #define OAR2_ENDUAL_Reset       ((uint16_t)0xFFFE)
 109:common/i2c.c  **** 
 110:common/i2c.c  **** /* I2C ADD2 mask */
 111:common/i2c.c  **** #define OAR2_ADD2_Reset         ((uint16_t)0xFF01)
 112:common/i2c.c  **** 
 113:common/i2c.c  **** /* I2C F/S mask */
 114:common/i2c.c  **** #define CCR_FS_Set              ((uint16_t)0x8000)
 115:common/i2c.c  **** 
 116:common/i2c.c  **** /* I2C CCR mask */
 117:common/i2c.c  **** #define CCR_CCR_Set             ((uint16_t)0x0FFF)
 118:common/i2c.c  **** 
 119:common/i2c.c  **** /* I2C FLAG mask */
 120:common/i2c.c  **** #define FLAG_Mask               ((uint32_t)0x00FFFFFF)
 121:common/i2c.c  **** 
 122:common/i2c.c  **** /* I2C Interrupt Enable mask */
 123:common/i2c.c  **** #define ITEN_Mask               ((uint32_t)0x07000000)
 124:common/i2c.c  **** 
 125:common/i2c.c  **** /**
 126:common/i2c.c  ****   * @}
 127:common/i2c.c  ****   */
 128:common/i2c.c  **** 
 129:common/i2c.c  **** /** @defgroup I2C_Private_Macros
 130:common/i2c.c  ****   * @{
 131:common/i2c.c  ****   */
 132:common/i2c.c  **** 
 133:common/i2c.c  **** /**
 134:common/i2c.c  ****   * @}
 135:common/i2c.c  ****   */
 136:common/i2c.c  **** 
 137:common/i2c.c  **** /** @defgroup I2C_Private_Variables
 138:common/i2c.c  ****   * @{
 139:common/i2c.c  ****   */
 140:common/i2c.c  **** 
 141:common/i2c.c  **** /**
 142:common/i2c.c  ****   * @}
 143:common/i2c.c  ****   */
 144:common/i2c.c  **** 
 145:common/i2c.c  **** /** @defgroup I2C_Private_FunctionPrototypes
 146:common/i2c.c  ****   * @{
 147:common/i2c.c  ****   */
ARM GAS  /tmp/ccozkyvL.s 			page 4


 148:common/i2c.c  **** 
 149:common/i2c.c  **** /**
 150:common/i2c.c  ****   * @}
 151:common/i2c.c  ****   */
 152:common/i2c.c  **** 
 153:common/i2c.c  **** /** @defgroup I2C_Private_Functions
 154:common/i2c.c  ****   * @{
 155:common/i2c.c  ****   */
 156:common/i2c.c  **** 
 157:common/i2c.c  **** /**
 158:common/i2c.c  ****   * @brief  Deinitializes the I2Cx peripheral registers to their default reset values.
 159:common/i2c.c  ****   * @param  I2Cx: where x can be 1 or 2 to select the I2C peripheral.
 160:common/i2c.c  ****   * @retval None
 161:common/i2c.c  ****   */
 162:common/i2c.c  **** void I2C_DeInit(I2C_TypeDef* I2Cx)
 163:common/i2c.c  **** {
  25              		.loc 1 163 0
  26              		.cfi_startproc
  27              		@ args = 0, pretend = 0, frame = 8
  28              		@ frame_needed = 1, uses_anonymous_args = 0
  29 0000 80B5     		push	{r7, lr}
  30              		.cfi_def_cfa_offset 8
  31              		.cfi_offset 7, -8
  32              		.cfi_offset 14, -4
  33 0002 82B0     		sub	sp, sp, #8
  34              		.cfi_def_cfa_offset 16
  35 0004 00AF     		add	r7, sp, #0
  36              		.cfi_def_cfa_register 7
  37 0006 7860     		str	r0, [r7, #4]
 164:common/i2c.c  ****   /* Check the parameters */
 165:common/i2c.c  ****   assert_param(IS_I2C_ALL_PERIPH(I2Cx));
 166:common/i2c.c  **** 
 167:common/i2c.c  ****   if (I2Cx == I2C1)
  38              		.loc 1 167 0
  39 0008 7B68     		ldr	r3, [r7, #4]
  40 000a 0E4A     		ldr	r2, .L5
  41 000c 9342     		cmp	r3, r2
  42 000e 0AD1     		bne	.L2
 168:common/i2c.c  ****   {
 169:common/i2c.c  ****     /* Enable I2C1 reset state */
 170:common/i2c.c  ****     RCC_APB1PeriphResetCmd(RCC_APB1Periph_I2C1, ENABLE);
  43              		.loc 1 170 0
  44 0010 0121     		movs	r1, #1
  45 0012 4FF40010 		mov	r0, #2097152
  46 0016 FFF7FEFF 		bl	RCC_APB1PeriphResetCmd
 171:common/i2c.c  ****     /* Release I2C1 from reset state */
 172:common/i2c.c  ****     RCC_APB1PeriphResetCmd(RCC_APB1Periph_I2C1, DISABLE);
  47              		.loc 1 172 0
  48 001a 0021     		movs	r1, #0
  49 001c 4FF40010 		mov	r0, #2097152
  50 0020 FFF7FEFF 		bl	RCC_APB1PeriphResetCmd
 173:common/i2c.c  ****   }
 174:common/i2c.c  ****   else
 175:common/i2c.c  ****   {
 176:common/i2c.c  ****     /* Enable I2C2 reset state */
 177:common/i2c.c  ****     RCC_APB1PeriphResetCmd(RCC_APB1Periph_I2C2, ENABLE);
 178:common/i2c.c  ****     /* Release I2C2 from reset state */
ARM GAS  /tmp/ccozkyvL.s 			page 5


 179:common/i2c.c  ****     RCC_APB1PeriphResetCmd(RCC_APB1Periph_I2C2, DISABLE);
 180:common/i2c.c  ****   }
 181:common/i2c.c  **** }
  51              		.loc 1 181 0
  52 0024 09E0     		b	.L4
  53              	.L2:
 177:common/i2c.c  ****     /* Release I2C2 from reset state */
  54              		.loc 1 177 0
  55 0026 0121     		movs	r1, #1
  56 0028 4FF48000 		mov	r0, #4194304
  57 002c FFF7FEFF 		bl	RCC_APB1PeriphResetCmd
 179:common/i2c.c  ****   }
  58              		.loc 1 179 0
  59 0030 0021     		movs	r1, #0
  60 0032 4FF48000 		mov	r0, #4194304
  61 0036 FFF7FEFF 		bl	RCC_APB1PeriphResetCmd
  62              	.L4:
  63              		.loc 1 181 0
  64 003a 00BF     		nop
  65 003c 0837     		adds	r7, r7, #8
  66              		.cfi_def_cfa_offset 8
  67 003e BD46     		mov	sp, r7
  68              		.cfi_def_cfa_register 13
  69              		@ sp needed
  70 0040 80BD     		pop	{r7, pc}
  71              	.L6:
  72 0042 00BF     		.align	2
  73              	.L5:
  74 0044 00540040 		.word	1073763328
  75              		.cfi_endproc
  76              	.LFE63:
  77              		.size	I2C_DeInit, .-I2C_DeInit
  78              		.align	1
  79              		.global	I2C_Init
  80              		.syntax unified
  81              		.thumb
  82              		.thumb_func
  83              		.fpu softvfp
  84              		.type	I2C_Init, %function
  85              	I2C_Init:
  86              	.LFB64:
 182:common/i2c.c  **** 
 183:common/i2c.c  **** /**
 184:common/i2c.c  ****   * @brief  Initializes the I2Cx peripheral according to the specified 
 185:common/i2c.c  ****   *   parameters in the I2C_InitStruct.
 186:common/i2c.c  ****   * @param  I2Cx: where x can be 1 or 2 to select the I2C peripheral.
 187:common/i2c.c  ****   * @param  I2C_InitStruct: pointer to a I2C_InitTypeDef structure that
 188:common/i2c.c  ****   *   contains the configuration information for the specified I2C peripheral.
 189:common/i2c.c  ****   * @retval None
 190:common/i2c.c  ****   */
 191:common/i2c.c  **** void I2C_Init(I2C_TypeDef* I2Cx, I2C_InitTypeDef* I2C_InitStruct)
 192:common/i2c.c  **** {
  87              		.loc 1 192 0
  88              		.cfi_startproc
  89              		@ args = 0, pretend = 0, frame = 40
  90              		@ frame_needed = 1, uses_anonymous_args = 0
  91 0048 80B5     		push	{r7, lr}
ARM GAS  /tmp/ccozkyvL.s 			page 6


  92              		.cfi_def_cfa_offset 8
  93              		.cfi_offset 7, -8
  94              		.cfi_offset 14, -4
  95 004a 8AB0     		sub	sp, sp, #40
  96              		.cfi_def_cfa_offset 48
  97 004c 00AF     		add	r7, sp, #0
  98              		.cfi_def_cfa_register 7
  99 004e 7860     		str	r0, [r7, #4]
 100 0050 3960     		str	r1, [r7]
 193:common/i2c.c  ****   uint16_t tmpreg = 0, freqrange = 0;
 101              		.loc 1 193 0
 102 0052 0023     		movs	r3, #0
 103 0054 FB84     		strh	r3, [r7, #38]	@ movhi
 104 0056 0023     		movs	r3, #0
 105 0058 7B84     		strh	r3, [r7, #34]	@ movhi
 194:common/i2c.c  ****   uint16_t result = 0x04;
 106              		.loc 1 194 0
 107 005a 0423     		movs	r3, #4
 108 005c BB84     		strh	r3, [r7, #36]	@ movhi
 195:common/i2c.c  ****   uint32_t pclk1 = 8000000;
 109              		.loc 1 195 0
 110 005e 574B     		ldr	r3, .L14
 111 0060 FB61     		str	r3, [r7, #28]
 196:common/i2c.c  ****   RCC_ClocksTypeDef  rcc_clocks;
 197:common/i2c.c  ****   /* Check the parameters */
 198:common/i2c.c  ****   assert_param(IS_I2C_ALL_PERIPH(I2Cx));
 199:common/i2c.c  ****   assert_param(IS_I2C_CLOCK_SPEED(I2C_InitStruct->I2C_ClockSpeed));
 200:common/i2c.c  ****   assert_param(IS_I2C_MODE(I2C_InitStruct->I2C_Mode));
 201:common/i2c.c  ****   assert_param(IS_I2C_DUTY_CYCLE(I2C_InitStruct->I2C_DutyCycle));
 202:common/i2c.c  ****   assert_param(IS_I2C_OWN_ADDRESS1(I2C_InitStruct->I2C_OwnAddress1));
 203:common/i2c.c  ****   assert_param(IS_I2C_ACK_STATE(I2C_InitStruct->I2C_Ack));
 204:common/i2c.c  ****   assert_param(IS_I2C_ACKNOWLEDGE_ADDRESS(I2C_InitStruct->I2C_AcknowledgedAddress));
 205:common/i2c.c  **** 
 206:common/i2c.c  **** /*---------------------------- I2Cx CR2 Configuration ------------------------*/
 207:common/i2c.c  ****   /* Get the I2Cx CR2 value */
 208:common/i2c.c  ****   tmpreg = I2Cx->CR2;
 112              		.loc 1 208 0
 113 0062 7B68     		ldr	r3, [r7, #4]
 114 0064 9B88     		ldrh	r3, [r3, #4]	@ movhi
 115 0066 FB84     		strh	r3, [r7, #38]	@ movhi
 209:common/i2c.c  ****   /* Clear frequency FREQ[5:0] bits */
 210:common/i2c.c  ****   tmpreg &= CR2_FREQ_Reset;
 116              		.loc 1 210 0
 117 0068 FB8C     		ldrh	r3, [r7, #38]	@ movhi
 118 006a 23F03F03 		bic	r3, r3, #63
 119 006e FB84     		strh	r3, [r7, #38]	@ movhi
 211:common/i2c.c  ****   /* Get pclk1 frequency value */
 212:common/i2c.c  ****   RCC_GetClocksFreq(&rcc_clocks);
 120              		.loc 1 212 0
 121 0070 07F10803 		add	r3, r7, #8
 122 0074 1846     		mov	r0, r3
 123 0076 FFF7FEFF 		bl	RCC_GetClocksFreq
 213:common/i2c.c  ****   pclk1 = rcc_clocks.PCLK1_Frequency;
 124              		.loc 1 213 0
 125 007a 3B69     		ldr	r3, [r7, #16]
 126 007c FB61     		str	r3, [r7, #28]
 214:common/i2c.c  ****   /* Set frequency bits depending on pclk1 value */
ARM GAS  /tmp/ccozkyvL.s 			page 7


 215:common/i2c.c  ****   freqrange = (uint16_t)(pclk1 / 1000000);
 127              		.loc 1 215 0
 128 007e FB69     		ldr	r3, [r7, #28]
 129 0080 4F4A     		ldr	r2, .L14+4
 130 0082 A2FB0323 		umull	r2, r3, r2, r3
 131 0086 9B0C     		lsrs	r3, r3, #18
 132 0088 7B84     		strh	r3, [r7, #34]	@ movhi
 216:common/i2c.c  ****   tmpreg |= freqrange;
 133              		.loc 1 216 0
 134 008a FA8C     		ldrh	r2, [r7, #38]	@ movhi
 135 008c 7B8C     		ldrh	r3, [r7, #34]	@ movhi
 136 008e 1343     		orrs	r3, r3, r2
 137 0090 FB84     		strh	r3, [r7, #38]	@ movhi
 217:common/i2c.c  ****   /* Write to I2Cx CR2 */
 218:common/i2c.c  ****   I2Cx->CR2 = tmpreg;
 138              		.loc 1 218 0
 139 0092 7B68     		ldr	r3, [r7, #4]
 140 0094 FA8C     		ldrh	r2, [r7, #38]	@ movhi
 141 0096 9A80     		strh	r2, [r3, #4]	@ movhi
 219:common/i2c.c  **** 
 220:common/i2c.c  **** /*---------------------------- I2Cx CCR Configuration ------------------------*/
 221:common/i2c.c  ****   /* Disable the selected I2C peripheral to configure TRISE */
 222:common/i2c.c  ****   I2Cx->CR1 &= CR1_PE_Reset;
 142              		.loc 1 222 0
 143 0098 7B68     		ldr	r3, [r7, #4]
 144 009a 1B88     		ldrh	r3, [r3]	@ movhi
 145 009c 9BB2     		uxth	r3, r3
 146 009e 23F00103 		bic	r3, r3, #1
 147 00a2 9AB2     		uxth	r2, r3
 148 00a4 7B68     		ldr	r3, [r7, #4]
 149 00a6 1A80     		strh	r2, [r3]	@ movhi
 223:common/i2c.c  ****   /* Reset tmpreg value */
 224:common/i2c.c  ****   /* Clear F/S, DUTY and CCR[11:0] bits */
 225:common/i2c.c  ****   tmpreg = 0;
 150              		.loc 1 225 0
 151 00a8 0023     		movs	r3, #0
 152 00aa FB84     		strh	r3, [r7, #38]	@ movhi
 226:common/i2c.c  **** 
 227:common/i2c.c  ****   /* Configure speed in standard mode */
 228:common/i2c.c  ****   if (I2C_InitStruct->I2C_ClockSpeed <= 100000)
 153              		.loc 1 228 0
 154 00ac 3B68     		ldr	r3, [r7]
 155 00ae 1B68     		ldr	r3, [r3]
 156 00b0 444A     		ldr	r2, .L14+8
 157 00b2 9342     		cmp	r3, r2
 158 00b4 15D8     		bhi	.L8
 229:common/i2c.c  ****   {
 230:common/i2c.c  ****     /* Standard mode speed calculate */
 231:common/i2c.c  ****     result = (uint16_t)(pclk1 / (I2C_InitStruct->I2C_ClockSpeed << 1));
 159              		.loc 1 231 0
 160 00b6 3B68     		ldr	r3, [r7]
 161 00b8 1B68     		ldr	r3, [r3]
 162 00ba 5B00     		lsls	r3, r3, #1
 163 00bc FA69     		ldr	r2, [r7, #28]
 164 00be B2FBF3F3 		udiv	r3, r2, r3
 165 00c2 BB84     		strh	r3, [r7, #36]	@ movhi
 232:common/i2c.c  ****     /* Test if CCR value is under 0x4*/
ARM GAS  /tmp/ccozkyvL.s 			page 8


 233:common/i2c.c  ****     if (result < 0x04)
 166              		.loc 1 233 0
 167 00c4 BB8C     		ldrh	r3, [r7, #36]
 168 00c6 032B     		cmp	r3, #3
 169 00c8 01D8     		bhi	.L9
 234:common/i2c.c  ****     {
 235:common/i2c.c  ****       /* Set minimum allowed value */
 236:common/i2c.c  ****       result = 0x04;  
 170              		.loc 1 236 0
 171 00ca 0423     		movs	r3, #4
 172 00cc BB84     		strh	r3, [r7, #36]	@ movhi
 173              	.L9:
 237:common/i2c.c  ****     }
 238:common/i2c.c  ****     /* Set speed value for standard mode */
 239:common/i2c.c  ****     tmpreg |= result;	  
 174              		.loc 1 239 0
 175 00ce FA8C     		ldrh	r2, [r7, #38]	@ movhi
 176 00d0 BB8C     		ldrh	r3, [r7, #36]	@ movhi
 177 00d2 1343     		orrs	r3, r3, r2
 178 00d4 FB84     		strh	r3, [r7, #38]	@ movhi
 240:common/i2c.c  ****     /* Set Maximum Rise Time for standard mode */
 241:common/i2c.c  ****     I2Cx->TRISE = freqrange + 1; 
 179              		.loc 1 241 0
 180 00d6 7B8C     		ldrh	r3, [r7, #34]	@ movhi
 181 00d8 0133     		adds	r3, r3, #1
 182 00da 9AB2     		uxth	r2, r3
 183 00dc 7B68     		ldr	r3, [r7, #4]
 184 00de 1A84     		strh	r2, [r3, #32]	@ movhi
 185 00e0 40E0     		b	.L10
 186              	.L8:
 242:common/i2c.c  ****   }
 243:common/i2c.c  ****   /* Configure speed in fast mode */
 244:common/i2c.c  ****   else /*(I2C_InitStruct->I2C_ClockSpeed <= 400000)*/
 245:common/i2c.c  ****   {
 246:common/i2c.c  ****     if (I2C_InitStruct->I2C_DutyCycle == I2C_DutyCycle_2)
 187              		.loc 1 246 0
 188 00e2 3B68     		ldr	r3, [r7]
 189 00e4 DB88     		ldrh	r3, [r3, #6]
 190 00e6 4BF6FF72 		movw	r2, #49151
 191 00ea 9342     		cmp	r3, r2
 192 00ec 09D1     		bne	.L11
 247:common/i2c.c  ****     {
 248:common/i2c.c  ****       /* Fast mode speed calculate: Tlow/Thigh = 2 */
 249:common/i2c.c  ****       result = (uint16_t)(pclk1 / (I2C_InitStruct->I2C_ClockSpeed * 3));
 193              		.loc 1 249 0
 194 00ee 3B68     		ldr	r3, [r7]
 195 00f0 1A68     		ldr	r2, [r3]
 196 00f2 1346     		mov	r3, r2
 197 00f4 5B00     		lsls	r3, r3, #1
 198 00f6 1344     		add	r3, r3, r2
 199 00f8 FA69     		ldr	r2, [r7, #28]
 200 00fa B2FBF3F3 		udiv	r3, r2, r3
 201 00fe BB84     		strh	r3, [r7, #36]	@ movhi
 202 0100 0EE0     		b	.L12
 203              	.L11:
 250:common/i2c.c  ****     }
 251:common/i2c.c  ****     else /*I2C_InitStruct->I2C_DutyCycle == I2C_DutyCycle_16_9*/
ARM GAS  /tmp/ccozkyvL.s 			page 9


 252:common/i2c.c  ****     {
 253:common/i2c.c  ****       /* Fast mode speed calculate: Tlow/Thigh = 16/9 */
 254:common/i2c.c  ****       result = (uint16_t)(pclk1 / (I2C_InitStruct->I2C_ClockSpeed * 25));
 204              		.loc 1 254 0
 205 0102 3B68     		ldr	r3, [r7]
 206 0104 1A68     		ldr	r2, [r3]
 207 0106 1346     		mov	r3, r2
 208 0108 9B00     		lsls	r3, r3, #2
 209 010a 1344     		add	r3, r3, r2
 210 010c 9A00     		lsls	r2, r3, #2
 211 010e 1344     		add	r3, r3, r2
 212 0110 FA69     		ldr	r2, [r7, #28]
 213 0112 B2FBF3F3 		udiv	r3, r2, r3
 214 0116 BB84     		strh	r3, [r7, #36]	@ movhi
 255:common/i2c.c  ****       /* Set DUTY bit */
 256:common/i2c.c  ****       result |= I2C_DutyCycle_16_9;
 215              		.loc 1 256 0
 216 0118 BB8C     		ldrh	r3, [r7, #36]	@ movhi
 217 011a 43F48043 		orr	r3, r3, #16384
 218 011e BB84     		strh	r3, [r7, #36]	@ movhi
 219              	.L12:
 257:common/i2c.c  ****     }
 258:common/i2c.c  **** 
 259:common/i2c.c  ****     /* Test if CCR value is under 0x1*/
 260:common/i2c.c  ****     if ((result & CCR_CCR_Set) == 0)
 220              		.loc 1 260 0
 221 0120 BB8C     		ldrh	r3, [r7, #36]
 222 0122 C3F30B03 		ubfx	r3, r3, #0, #12
 223 0126 002B     		cmp	r3, #0
 224 0128 03D1     		bne	.L13
 261:common/i2c.c  ****     {
 262:common/i2c.c  ****       /* Set minimum allowed value */
 263:common/i2c.c  ****       result |= (uint16_t)0x0001;  
 225              		.loc 1 263 0
 226 012a BB8C     		ldrh	r3, [r7, #36]	@ movhi
 227 012c 43F00103 		orr	r3, r3, #1
 228 0130 BB84     		strh	r3, [r7, #36]	@ movhi
 229              	.L13:
 264:common/i2c.c  ****     }
 265:common/i2c.c  ****     /* Set speed value and set F/S bit for fast mode */
 266:common/i2c.c  ****     tmpreg |= (uint16_t)(result | CCR_FS_Set);
 230              		.loc 1 266 0
 231 0132 BA8C     		ldrh	r2, [r7, #36]	@ movhi
 232 0134 FB8C     		ldrh	r3, [r7, #38]	@ movhi
 233 0136 1343     		orrs	r3, r3, r2
 234 0138 9BB2     		uxth	r3, r3
 235 013a 6FEA4343 		mvn	r3, r3, lsl #17
 236 013e 6FEA5343 		mvn	r3, r3, lsr #17
 237 0142 FB84     		strh	r3, [r7, #38]	@ movhi
 267:common/i2c.c  ****     /* Set Maximum Rise Time for fast mode */
 268:common/i2c.c  ****     I2Cx->TRISE = (uint16_t)(((freqrange * (uint16_t)300) / (uint16_t)1000) + (uint16_t)1);  
 238              		.loc 1 268 0
 239 0144 7B8C     		ldrh	r3, [r7, #34]
 240 0146 4FF49672 		mov	r2, #300
 241 014a 02FB03F3 		mul	r3, r2, r3
 242 014e 1E4A     		ldr	r2, .L14+12
 243 0150 82FB0312 		smull	r1, r2, r2, r3
ARM GAS  /tmp/ccozkyvL.s 			page 10


 244 0154 9211     		asrs	r2, r2, #6
 245 0156 DB17     		asrs	r3, r3, #31
 246 0158 D31A     		subs	r3, r2, r3
 247 015a 9BB2     		uxth	r3, r3
 248 015c 0133     		adds	r3, r3, #1
 249 015e 9AB2     		uxth	r2, r3
 250 0160 7B68     		ldr	r3, [r7, #4]
 251 0162 1A84     		strh	r2, [r3, #32]	@ movhi
 252              	.L10:
 269:common/i2c.c  ****   }
 270:common/i2c.c  **** 
 271:common/i2c.c  ****   /* Write to I2Cx CCR */
 272:common/i2c.c  ****   I2Cx->CCR = tmpreg;
 253              		.loc 1 272 0
 254 0164 7B68     		ldr	r3, [r7, #4]
 255 0166 FA8C     		ldrh	r2, [r7, #38]	@ movhi
 256 0168 9A83     		strh	r2, [r3, #28]	@ movhi
 273:common/i2c.c  ****   /* Enable the selected I2C peripheral */
 274:common/i2c.c  ****   I2Cx->CR1 |= CR1_PE_Set;
 257              		.loc 1 274 0
 258 016a 7B68     		ldr	r3, [r7, #4]
 259 016c 1B88     		ldrh	r3, [r3]	@ movhi
 260 016e 9BB2     		uxth	r3, r3
 261 0170 43F00103 		orr	r3, r3, #1
 262 0174 9AB2     		uxth	r2, r3
 263 0176 7B68     		ldr	r3, [r7, #4]
 264 0178 1A80     		strh	r2, [r3]	@ movhi
 275:common/i2c.c  **** 
 276:common/i2c.c  **** /*---------------------------- I2Cx CR1 Configuration ------------------------*/
 277:common/i2c.c  ****   /* Get the I2Cx CR1 value */
 278:common/i2c.c  ****   tmpreg = I2Cx->CR1;
 265              		.loc 1 278 0
 266 017a 7B68     		ldr	r3, [r7, #4]
 267 017c 1B88     		ldrh	r3, [r3]	@ movhi
 268 017e FB84     		strh	r3, [r7, #38]	@ movhi
 279:common/i2c.c  ****   /* Clear ACK, SMBTYPE and  SMBUS bits */
 280:common/i2c.c  ****   tmpreg &= CR1_CLEAR_Mask;
 269              		.loc 1 280 0
 270 0180 FB8C     		ldrh	r3, [r7, #38]	@ movhi
 271 0182 23F48163 		bic	r3, r3, #1032
 272 0186 23F00203 		bic	r3, r3, #2
 273 018a FB84     		strh	r3, [r7, #38]	@ movhi
 281:common/i2c.c  ****   /* Configure I2Cx: mode and acknowledgement */
 282:common/i2c.c  ****   /* Set SMBTYPE and SMBUS bits according to I2C_Mode value */
 283:common/i2c.c  ****   /* Set ACK bit according to I2C_Ack value */
 284:common/i2c.c  ****   tmpreg |= (uint16_t)((uint32_t)I2C_InitStruct->I2C_Mode | I2C_InitStruct->I2C_Ack);
 274              		.loc 1 284 0
 275 018c 3B68     		ldr	r3, [r7]
 276 018e 9A88     		ldrh	r2, [r3, #4]
 277 0190 3B68     		ldr	r3, [r7]
 278 0192 5B89     		ldrh	r3, [r3, #10]
 279 0194 1343     		orrs	r3, r3, r2
 280 0196 9AB2     		uxth	r2, r3
 281 0198 FB8C     		ldrh	r3, [r7, #38]	@ movhi
 282 019a 1343     		orrs	r3, r3, r2
 283 019c FB84     		strh	r3, [r7, #38]	@ movhi
 285:common/i2c.c  ****   /* Write to I2Cx CR1 */
ARM GAS  /tmp/ccozkyvL.s 			page 11


 286:common/i2c.c  ****   I2Cx->CR1 = tmpreg;
 284              		.loc 1 286 0
 285 019e 7B68     		ldr	r3, [r7, #4]
 286 01a0 FA8C     		ldrh	r2, [r7, #38]	@ movhi
 287 01a2 1A80     		strh	r2, [r3]	@ movhi
 287:common/i2c.c  **** 
 288:common/i2c.c  **** /*---------------------------- I2Cx OAR1 Configuration -----------------------*/
 289:common/i2c.c  ****   /* Set I2Cx Own Address1 and acknowledged address */
 290:common/i2c.c  ****   I2Cx->OAR1 = (I2C_InitStruct->I2C_AcknowledgedAddress | I2C_InitStruct->I2C_OwnAddress1);
 288              		.loc 1 290 0
 289 01a4 3B68     		ldr	r3, [r7]
 290 01a6 9A89     		ldrh	r2, [r3, #12]
 291 01a8 3B68     		ldr	r3, [r7]
 292 01aa 1B89     		ldrh	r3, [r3, #8]
 293 01ac 1343     		orrs	r3, r3, r2
 294 01ae 9AB2     		uxth	r2, r3
 295 01b0 7B68     		ldr	r3, [r7, #4]
 296 01b2 1A81     		strh	r2, [r3, #8]	@ movhi
 291:common/i2c.c  **** }
 297              		.loc 1 291 0
 298 01b4 00BF     		nop
 299 01b6 2837     		adds	r7, r7, #40
 300              		.cfi_def_cfa_offset 8
 301 01b8 BD46     		mov	sp, r7
 302              		.cfi_def_cfa_register 13
 303              		@ sp needed
 304 01ba 80BD     		pop	{r7, pc}
 305              	.L15:
 306              		.align	2
 307              	.L14:
 308 01bc 00127A00 		.word	8000000
 309 01c0 83DE1B43 		.word	1125899907
 310 01c4 A0860100 		.word	100000
 311 01c8 D34D6210 		.word	274877907
 312              		.cfi_endproc
 313              	.LFE64:
 314              		.size	I2C_Init, .-I2C_Init
 315              		.align	1
 316              		.global	I2C_StructInit
 317              		.syntax unified
 318              		.thumb
 319              		.thumb_func
 320              		.fpu softvfp
 321              		.type	I2C_StructInit, %function
 322              	I2C_StructInit:
 323              	.LFB65:
 292:common/i2c.c  **** 
 293:common/i2c.c  **** /**
 294:common/i2c.c  ****   * @brief  Fills each I2C_InitStruct member with its default value.
 295:common/i2c.c  ****   * @param  I2C_InitStruct: pointer to an I2C_InitTypeDef structure which will be initialized.
 296:common/i2c.c  ****   * @retval None
 297:common/i2c.c  ****   */
 298:common/i2c.c  **** void I2C_StructInit(I2C_InitTypeDef* I2C_InitStruct)
 299:common/i2c.c  **** {
 324              		.loc 1 299 0
 325              		.cfi_startproc
 326              		@ args = 0, pretend = 0, frame = 8
ARM GAS  /tmp/ccozkyvL.s 			page 12


 327              		@ frame_needed = 1, uses_anonymous_args = 0
 328              		@ link register save eliminated.
 329 01cc 80B4     		push	{r7}
 330              		.cfi_def_cfa_offset 4
 331              		.cfi_offset 7, -4
 332 01ce 83B0     		sub	sp, sp, #12
 333              		.cfi_def_cfa_offset 16
 334 01d0 00AF     		add	r7, sp, #0
 335              		.cfi_def_cfa_register 7
 336 01d2 7860     		str	r0, [r7, #4]
 300:common/i2c.c  **** /*---------------- Reset I2C init structure parameters values ----------------*/
 301:common/i2c.c  ****   /* initialize the I2C_ClockSpeed member */
 302:common/i2c.c  ****   I2C_InitStruct->I2C_ClockSpeed = 5000;
 337              		.loc 1 302 0
 338 01d4 7B68     		ldr	r3, [r7, #4]
 339 01d6 41F28832 		movw	r2, #5000
 340 01da 1A60     		str	r2, [r3]
 303:common/i2c.c  ****   /* Initialize the I2C_Mode member */
 304:common/i2c.c  ****   I2C_InitStruct->I2C_Mode = I2C_Mode_I2C;
 341              		.loc 1 304 0
 342 01dc 7B68     		ldr	r3, [r7, #4]
 343 01de 0022     		movs	r2, #0
 344 01e0 9A80     		strh	r2, [r3, #4]	@ movhi
 305:common/i2c.c  ****   /* Initialize the I2C_DutyCycle member */
 306:common/i2c.c  ****   I2C_InitStruct->I2C_DutyCycle = I2C_DutyCycle_2;
 345              		.loc 1 306 0
 346 01e2 7B68     		ldr	r3, [r7, #4]
 347 01e4 4BF6FF72 		movw	r2, #49151
 348 01e8 DA80     		strh	r2, [r3, #6]	@ movhi
 307:common/i2c.c  ****   /* Initialize the I2C_OwnAddress1 member */
 308:common/i2c.c  ****   I2C_InitStruct->I2C_OwnAddress1 = 0;
 349              		.loc 1 308 0
 350 01ea 7B68     		ldr	r3, [r7, #4]
 351 01ec 0022     		movs	r2, #0
 352 01ee 1A81     		strh	r2, [r3, #8]	@ movhi
 309:common/i2c.c  ****   /* Initialize the I2C_Ack member */
 310:common/i2c.c  ****   I2C_InitStruct->I2C_Ack = I2C_Ack_Disable;
 353              		.loc 1 310 0
 354 01f0 7B68     		ldr	r3, [r7, #4]
 355 01f2 0022     		movs	r2, #0
 356 01f4 5A81     		strh	r2, [r3, #10]	@ movhi
 311:common/i2c.c  ****   /* Initialize the I2C_AcknowledgedAddress member */
 312:common/i2c.c  ****   I2C_InitStruct->I2C_AcknowledgedAddress = I2C_AcknowledgedAddress_7bit;
 357              		.loc 1 312 0
 358 01f6 7B68     		ldr	r3, [r7, #4]
 359 01f8 4FF48042 		mov	r2, #16384
 360 01fc 9A81     		strh	r2, [r3, #12]	@ movhi
 313:common/i2c.c  **** }
 361              		.loc 1 313 0
 362 01fe 00BF     		nop
 363 0200 0C37     		adds	r7, r7, #12
 364              		.cfi_def_cfa_offset 4
 365 0202 BD46     		mov	sp, r7
 366              		.cfi_def_cfa_register 13
 367              		@ sp needed
 368 0204 80BC     		pop	{r7}
 369              		.cfi_restore 7
ARM GAS  /tmp/ccozkyvL.s 			page 13


 370              		.cfi_def_cfa_offset 0
 371 0206 7047     		bx	lr
 372              		.cfi_endproc
 373              	.LFE65:
 374              		.size	I2C_StructInit, .-I2C_StructInit
 375              		.align	1
 376              		.global	I2C_Cmd
 377              		.syntax unified
 378              		.thumb
 379              		.thumb_func
 380              		.fpu softvfp
 381              		.type	I2C_Cmd, %function
 382              	I2C_Cmd:
 383              	.LFB66:
 314:common/i2c.c  **** 
 315:common/i2c.c  **** /**
 316:common/i2c.c  ****   * @brief  Enables or disables the specified I2C peripheral.
 317:common/i2c.c  ****   * @param  I2Cx: where x can be 1 or 2 to select the I2C peripheral.
 318:common/i2c.c  ****   * @param  NewState: new state of the I2Cx peripheral. 
 319:common/i2c.c  ****   *   This parameter can be: ENABLE or DISABLE.
 320:common/i2c.c  ****   * @retval None
 321:common/i2c.c  ****   */
 322:common/i2c.c  **** void I2C_Cmd(I2C_TypeDef* I2Cx, FunctionalState NewState)
 323:common/i2c.c  **** {
 384              		.loc 1 323 0
 385              		.cfi_startproc
 386              		@ args = 0, pretend = 0, frame = 8
 387              		@ frame_needed = 1, uses_anonymous_args = 0
 388              		@ link register save eliminated.
 389 0208 80B4     		push	{r7}
 390              		.cfi_def_cfa_offset 4
 391              		.cfi_offset 7, -4
 392 020a 83B0     		sub	sp, sp, #12
 393              		.cfi_def_cfa_offset 16
 394 020c 00AF     		add	r7, sp, #0
 395              		.cfi_def_cfa_register 7
 396 020e 7860     		str	r0, [r7, #4]
 397 0210 0B46     		mov	r3, r1
 398 0212 FB70     		strb	r3, [r7, #3]
 324:common/i2c.c  ****   /* Check the parameters */
 325:common/i2c.c  ****   assert_param(IS_I2C_ALL_PERIPH(I2Cx));
 326:common/i2c.c  ****   assert_param(IS_FUNCTIONAL_STATE(NewState));
 327:common/i2c.c  ****   if (NewState != DISABLE)
 399              		.loc 1 327 0
 400 0214 FB78     		ldrb	r3, [r7, #3]	@ zero_extendqisi2
 401 0216 002B     		cmp	r3, #0
 402 0218 08D0     		beq	.L18
 328:common/i2c.c  ****   {
 329:common/i2c.c  ****     /* Enable the selected I2C peripheral */
 330:common/i2c.c  ****     I2Cx->CR1 |= CR1_PE_Set;
 403              		.loc 1 330 0
 404 021a 7B68     		ldr	r3, [r7, #4]
 405 021c 1B88     		ldrh	r3, [r3]	@ movhi
 406 021e 9BB2     		uxth	r3, r3
 407 0220 43F00103 		orr	r3, r3, #1
 408 0224 9AB2     		uxth	r2, r3
 409 0226 7B68     		ldr	r3, [r7, #4]
ARM GAS  /tmp/ccozkyvL.s 			page 14


 410 0228 1A80     		strh	r2, [r3]	@ movhi
 331:common/i2c.c  ****   }
 332:common/i2c.c  ****   else
 333:common/i2c.c  ****   {
 334:common/i2c.c  ****     /* Disable the selected I2C peripheral */
 335:common/i2c.c  ****     I2Cx->CR1 &= CR1_PE_Reset;
 336:common/i2c.c  ****   }
 337:common/i2c.c  **** }
 411              		.loc 1 337 0
 412 022a 07E0     		b	.L20
 413              	.L18:
 335:common/i2c.c  ****   }
 414              		.loc 1 335 0
 415 022c 7B68     		ldr	r3, [r7, #4]
 416 022e 1B88     		ldrh	r3, [r3]	@ movhi
 417 0230 9BB2     		uxth	r3, r3
 418 0232 23F00103 		bic	r3, r3, #1
 419 0236 9AB2     		uxth	r2, r3
 420 0238 7B68     		ldr	r3, [r7, #4]
 421 023a 1A80     		strh	r2, [r3]	@ movhi
 422              	.L20:
 423              		.loc 1 337 0
 424 023c 00BF     		nop
 425 023e 0C37     		adds	r7, r7, #12
 426              		.cfi_def_cfa_offset 4
 427 0240 BD46     		mov	sp, r7
 428              		.cfi_def_cfa_register 13
 429              		@ sp needed
 430 0242 80BC     		pop	{r7}
 431              		.cfi_restore 7
 432              		.cfi_def_cfa_offset 0
 433 0244 7047     		bx	lr
 434              		.cfi_endproc
 435              	.LFE66:
 436              		.size	I2C_Cmd, .-I2C_Cmd
 437              		.align	1
 438              		.global	I2C_DMACmd
 439              		.syntax unified
 440              		.thumb
 441              		.thumb_func
 442              		.fpu softvfp
 443              		.type	I2C_DMACmd, %function
 444              	I2C_DMACmd:
 445              	.LFB67:
 338:common/i2c.c  **** 
 339:common/i2c.c  **** /**
 340:common/i2c.c  ****   * @brief  Enables or disables the specified I2C DMA requests.
 341:common/i2c.c  ****   * @param  I2Cx: where x can be 1 or 2 to select the I2C peripheral.
 342:common/i2c.c  ****   * @param  NewState: new state of the I2C DMA transfer.
 343:common/i2c.c  ****   *   This parameter can be: ENABLE or DISABLE.
 344:common/i2c.c  ****   * @retval None
 345:common/i2c.c  ****   */
 346:common/i2c.c  **** void I2C_DMACmd(I2C_TypeDef* I2Cx, FunctionalState NewState)
 347:common/i2c.c  **** {
 446              		.loc 1 347 0
 447              		.cfi_startproc
 448              		@ args = 0, pretend = 0, frame = 8
ARM GAS  /tmp/ccozkyvL.s 			page 15


 449              		@ frame_needed = 1, uses_anonymous_args = 0
 450              		@ link register save eliminated.
 451 0246 80B4     		push	{r7}
 452              		.cfi_def_cfa_offset 4
 453              		.cfi_offset 7, -4
 454 0248 83B0     		sub	sp, sp, #12
 455              		.cfi_def_cfa_offset 16
 456 024a 00AF     		add	r7, sp, #0
 457              		.cfi_def_cfa_register 7
 458 024c 7860     		str	r0, [r7, #4]
 459 024e 0B46     		mov	r3, r1
 460 0250 FB70     		strb	r3, [r7, #3]
 348:common/i2c.c  ****   /* Check the parameters */
 349:common/i2c.c  ****   assert_param(IS_I2C_ALL_PERIPH(I2Cx));
 350:common/i2c.c  ****   assert_param(IS_FUNCTIONAL_STATE(NewState));
 351:common/i2c.c  ****   if (NewState != DISABLE)
 461              		.loc 1 351 0
 462 0252 FB78     		ldrb	r3, [r7, #3]	@ zero_extendqisi2
 463 0254 002B     		cmp	r3, #0
 464 0256 08D0     		beq	.L22
 352:common/i2c.c  ****   {
 353:common/i2c.c  ****     /* Enable the selected I2C DMA requests */
 354:common/i2c.c  ****     I2Cx->CR2 |= CR2_DMAEN_Set;
 465              		.loc 1 354 0
 466 0258 7B68     		ldr	r3, [r7, #4]
 467 025a 9B88     		ldrh	r3, [r3, #4]	@ movhi
 468 025c 9BB2     		uxth	r3, r3
 469 025e 43F40063 		orr	r3, r3, #2048
 470 0262 9AB2     		uxth	r2, r3
 471 0264 7B68     		ldr	r3, [r7, #4]
 472 0266 9A80     		strh	r2, [r3, #4]	@ movhi
 355:common/i2c.c  ****   }
 356:common/i2c.c  ****   else
 357:common/i2c.c  ****   {
 358:common/i2c.c  ****     /* Disable the selected I2C DMA requests */
 359:common/i2c.c  ****     I2Cx->CR2 &= CR2_DMAEN_Reset;
 360:common/i2c.c  ****   }
 361:common/i2c.c  **** }
 473              		.loc 1 361 0
 474 0268 07E0     		b	.L24
 475              	.L22:
 359:common/i2c.c  ****   }
 476              		.loc 1 359 0
 477 026a 7B68     		ldr	r3, [r7, #4]
 478 026c 9B88     		ldrh	r3, [r3, #4]	@ movhi
 479 026e 9BB2     		uxth	r3, r3
 480 0270 23F40063 		bic	r3, r3, #2048
 481 0274 9AB2     		uxth	r2, r3
 482 0276 7B68     		ldr	r3, [r7, #4]
 483 0278 9A80     		strh	r2, [r3, #4]	@ movhi
 484              	.L24:
 485              		.loc 1 361 0
 486 027a 00BF     		nop
 487 027c 0C37     		adds	r7, r7, #12
 488              		.cfi_def_cfa_offset 4
 489 027e BD46     		mov	sp, r7
 490              		.cfi_def_cfa_register 13
ARM GAS  /tmp/ccozkyvL.s 			page 16


 491              		@ sp needed
 492 0280 80BC     		pop	{r7}
 493              		.cfi_restore 7
 494              		.cfi_def_cfa_offset 0
 495 0282 7047     		bx	lr
 496              		.cfi_endproc
 497              	.LFE67:
 498              		.size	I2C_DMACmd, .-I2C_DMACmd
 499              		.align	1
 500              		.global	I2C_DMALastTransferCmd
 501              		.syntax unified
 502              		.thumb
 503              		.thumb_func
 504              		.fpu softvfp
 505              		.type	I2C_DMALastTransferCmd, %function
 506              	I2C_DMALastTransferCmd:
 507              	.LFB68:
 362:common/i2c.c  **** 
 363:common/i2c.c  **** /**
 364:common/i2c.c  ****   * @brief  Specifies if the next DMA transfer will be the last one.
 365:common/i2c.c  ****   * @param  I2Cx: where x can be 1 or 2 to select the I2C peripheral.
 366:common/i2c.c  ****   * @param  NewState: new state of the I2C DMA last transfer.
 367:common/i2c.c  ****   *   This parameter can be: ENABLE or DISABLE.
 368:common/i2c.c  ****   * @retval None
 369:common/i2c.c  ****   */
 370:common/i2c.c  **** void I2C_DMALastTransferCmd(I2C_TypeDef* I2Cx, FunctionalState NewState)
 371:common/i2c.c  **** {
 508              		.loc 1 371 0
 509              		.cfi_startproc
 510              		@ args = 0, pretend = 0, frame = 8
 511              		@ frame_needed = 1, uses_anonymous_args = 0
 512              		@ link register save eliminated.
 513 0284 80B4     		push	{r7}
 514              		.cfi_def_cfa_offset 4
 515              		.cfi_offset 7, -4
 516 0286 83B0     		sub	sp, sp, #12
 517              		.cfi_def_cfa_offset 16
 518 0288 00AF     		add	r7, sp, #0
 519              		.cfi_def_cfa_register 7
 520 028a 7860     		str	r0, [r7, #4]
 521 028c 0B46     		mov	r3, r1
 522 028e FB70     		strb	r3, [r7, #3]
 372:common/i2c.c  ****   /* Check the parameters */
 373:common/i2c.c  ****   assert_param(IS_I2C_ALL_PERIPH(I2Cx));
 374:common/i2c.c  ****   assert_param(IS_FUNCTIONAL_STATE(NewState));
 375:common/i2c.c  ****   if (NewState != DISABLE)
 523              		.loc 1 375 0
 524 0290 FB78     		ldrb	r3, [r7, #3]	@ zero_extendqisi2
 525 0292 002B     		cmp	r3, #0
 526 0294 08D0     		beq	.L26
 376:common/i2c.c  ****   {
 377:common/i2c.c  ****     /* Next DMA transfer is the last transfer */
 378:common/i2c.c  ****     I2Cx->CR2 |= CR2_LAST_Set;
 527              		.loc 1 378 0
 528 0296 7B68     		ldr	r3, [r7, #4]
 529 0298 9B88     		ldrh	r3, [r3, #4]	@ movhi
 530 029a 9BB2     		uxth	r3, r3
ARM GAS  /tmp/ccozkyvL.s 			page 17


 531 029c 43F48053 		orr	r3, r3, #4096
 532 02a0 9AB2     		uxth	r2, r3
 533 02a2 7B68     		ldr	r3, [r7, #4]
 534 02a4 9A80     		strh	r2, [r3, #4]	@ movhi
 379:common/i2c.c  ****   }
 380:common/i2c.c  ****   else
 381:common/i2c.c  ****   {
 382:common/i2c.c  ****     /* Next DMA transfer is not the last transfer */
 383:common/i2c.c  ****     I2Cx->CR2 &= CR2_LAST_Reset;
 384:common/i2c.c  ****   }
 385:common/i2c.c  **** }
 535              		.loc 1 385 0
 536 02a6 07E0     		b	.L28
 537              	.L26:
 383:common/i2c.c  ****   }
 538              		.loc 1 383 0
 539 02a8 7B68     		ldr	r3, [r7, #4]
 540 02aa 9B88     		ldrh	r3, [r3, #4]	@ movhi
 541 02ac 9BB2     		uxth	r3, r3
 542 02ae 23F48053 		bic	r3, r3, #4096
 543 02b2 9AB2     		uxth	r2, r3
 544 02b4 7B68     		ldr	r3, [r7, #4]
 545 02b6 9A80     		strh	r2, [r3, #4]	@ movhi
 546              	.L28:
 547              		.loc 1 385 0
 548 02b8 00BF     		nop
 549 02ba 0C37     		adds	r7, r7, #12
 550              		.cfi_def_cfa_offset 4
 551 02bc BD46     		mov	sp, r7
 552              		.cfi_def_cfa_register 13
 553              		@ sp needed
 554 02be 80BC     		pop	{r7}
 555              		.cfi_restore 7
 556              		.cfi_def_cfa_offset 0
 557 02c0 7047     		bx	lr
 558              		.cfi_endproc
 559              	.LFE68:
 560              		.size	I2C_DMALastTransferCmd, .-I2C_DMALastTransferCmd
 561              		.align	1
 562              		.global	I2C_GenerateSTART
 563              		.syntax unified
 564              		.thumb
 565              		.thumb_func
 566              		.fpu softvfp
 567              		.type	I2C_GenerateSTART, %function
 568              	I2C_GenerateSTART:
 569              	.LFB69:
 386:common/i2c.c  **** 
 387:common/i2c.c  **** /**
 388:common/i2c.c  ****   * @brief  Generates I2Cx communication START condition.
 389:common/i2c.c  ****   * @param  I2Cx: where x can be 1 or 2 to select the I2C peripheral.
 390:common/i2c.c  ****   * @param  NewState: new state of the I2C START condition generation.
 391:common/i2c.c  ****   *   This parameter can be: ENABLE or DISABLE.
 392:common/i2c.c  ****   * @retval None.
 393:common/i2c.c  ****   */
 394:common/i2c.c  **** void I2C_GenerateSTART(I2C_TypeDef* I2Cx, FunctionalState NewState)
 395:common/i2c.c  **** {
ARM GAS  /tmp/ccozkyvL.s 			page 18


 570              		.loc 1 395 0
 571              		.cfi_startproc
 572              		@ args = 0, pretend = 0, frame = 8
 573              		@ frame_needed = 1, uses_anonymous_args = 0
 574              		@ link register save eliminated.
 575 02c2 80B4     		push	{r7}
 576              		.cfi_def_cfa_offset 4
 577              		.cfi_offset 7, -4
 578 02c4 83B0     		sub	sp, sp, #12
 579              		.cfi_def_cfa_offset 16
 580 02c6 00AF     		add	r7, sp, #0
 581              		.cfi_def_cfa_register 7
 582 02c8 7860     		str	r0, [r7, #4]
 583 02ca 0B46     		mov	r3, r1
 584 02cc FB70     		strb	r3, [r7, #3]
 396:common/i2c.c  ****   /* Check the parameters */
 397:common/i2c.c  ****   assert_param(IS_I2C_ALL_PERIPH(I2Cx));
 398:common/i2c.c  ****   assert_param(IS_FUNCTIONAL_STATE(NewState));
 399:common/i2c.c  ****   if (NewState != DISABLE)
 585              		.loc 1 399 0
 586 02ce FB78     		ldrb	r3, [r7, #3]	@ zero_extendqisi2
 587 02d0 002B     		cmp	r3, #0
 588 02d2 08D0     		beq	.L30
 400:common/i2c.c  ****   {
 401:common/i2c.c  ****     /* Generate a START condition */
 402:common/i2c.c  ****     I2Cx->CR1 |= CR1_START_Set;
 589              		.loc 1 402 0
 590 02d4 7B68     		ldr	r3, [r7, #4]
 591 02d6 1B88     		ldrh	r3, [r3]	@ movhi
 592 02d8 9BB2     		uxth	r3, r3
 593 02da 43F48073 		orr	r3, r3, #256
 594 02de 9AB2     		uxth	r2, r3
 595 02e0 7B68     		ldr	r3, [r7, #4]
 596 02e2 1A80     		strh	r2, [r3]	@ movhi
 403:common/i2c.c  ****   }
 404:common/i2c.c  ****   else
 405:common/i2c.c  ****   {
 406:common/i2c.c  ****     /* Disable the START condition generation */
 407:common/i2c.c  ****     I2Cx->CR1 &= CR1_START_Reset;
 408:common/i2c.c  ****   }
 409:common/i2c.c  **** }
 597              		.loc 1 409 0
 598 02e4 07E0     		b	.L32
 599              	.L30:
 407:common/i2c.c  ****   }
 600              		.loc 1 407 0
 601 02e6 7B68     		ldr	r3, [r7, #4]
 602 02e8 1B88     		ldrh	r3, [r3]	@ movhi
 603 02ea 9BB2     		uxth	r3, r3
 604 02ec 23F48073 		bic	r3, r3, #256
 605 02f0 9AB2     		uxth	r2, r3
 606 02f2 7B68     		ldr	r3, [r7, #4]
 607 02f4 1A80     		strh	r2, [r3]	@ movhi
 608              	.L32:
 609              		.loc 1 409 0
 610 02f6 00BF     		nop
 611 02f8 0C37     		adds	r7, r7, #12
ARM GAS  /tmp/ccozkyvL.s 			page 19


 612              		.cfi_def_cfa_offset 4
 613 02fa BD46     		mov	sp, r7
 614              		.cfi_def_cfa_register 13
 615              		@ sp needed
 616 02fc 80BC     		pop	{r7}
 617              		.cfi_restore 7
 618              		.cfi_def_cfa_offset 0
 619 02fe 7047     		bx	lr
 620              		.cfi_endproc
 621              	.LFE69:
 622              		.size	I2C_GenerateSTART, .-I2C_GenerateSTART
 623              		.align	1
 624              		.global	I2C_GenerateSTOP
 625              		.syntax unified
 626              		.thumb
 627              		.thumb_func
 628              		.fpu softvfp
 629              		.type	I2C_GenerateSTOP, %function
 630              	I2C_GenerateSTOP:
 631              	.LFB70:
 410:common/i2c.c  **** 
 411:common/i2c.c  **** /**
 412:common/i2c.c  ****   * @brief  Generates I2Cx communication STOP condition.
 413:common/i2c.c  ****   * @param  I2Cx: where x can be 1 or 2 to select the I2C peripheral.
 414:common/i2c.c  ****   * @param  NewState: new state of the I2C STOP condition generation.
 415:common/i2c.c  ****   *   This parameter can be: ENABLE or DISABLE.
 416:common/i2c.c  ****   * @retval None.
 417:common/i2c.c  ****   */
 418:common/i2c.c  **** void I2C_GenerateSTOP(I2C_TypeDef* I2Cx, FunctionalState NewState)
 419:common/i2c.c  **** {
 632              		.loc 1 419 0
 633              		.cfi_startproc
 634              		@ args = 0, pretend = 0, frame = 8
 635              		@ frame_needed = 1, uses_anonymous_args = 0
 636              		@ link register save eliminated.
 637 0300 80B4     		push	{r7}
 638              		.cfi_def_cfa_offset 4
 639              		.cfi_offset 7, -4
 640 0302 83B0     		sub	sp, sp, #12
 641              		.cfi_def_cfa_offset 16
 642 0304 00AF     		add	r7, sp, #0
 643              		.cfi_def_cfa_register 7
 644 0306 7860     		str	r0, [r7, #4]
 645 0308 0B46     		mov	r3, r1
 646 030a FB70     		strb	r3, [r7, #3]
 420:common/i2c.c  ****   /* Check the parameters */
 421:common/i2c.c  ****   assert_param(IS_I2C_ALL_PERIPH(I2Cx));
 422:common/i2c.c  ****   assert_param(IS_FUNCTIONAL_STATE(NewState));
 423:common/i2c.c  ****   if (NewState != DISABLE)
 647              		.loc 1 423 0
 648 030c FB78     		ldrb	r3, [r7, #3]	@ zero_extendqisi2
 649 030e 002B     		cmp	r3, #0
 650 0310 08D0     		beq	.L34
 424:common/i2c.c  ****   {
 425:common/i2c.c  ****     /* Generate a STOP condition */
 426:common/i2c.c  ****     I2Cx->CR1 |= CR1_STOP_Set;
 651              		.loc 1 426 0
ARM GAS  /tmp/ccozkyvL.s 			page 20


 652 0312 7B68     		ldr	r3, [r7, #4]
 653 0314 1B88     		ldrh	r3, [r3]	@ movhi
 654 0316 9BB2     		uxth	r3, r3
 655 0318 43F40073 		orr	r3, r3, #512
 656 031c 9AB2     		uxth	r2, r3
 657 031e 7B68     		ldr	r3, [r7, #4]
 658 0320 1A80     		strh	r2, [r3]	@ movhi
 427:common/i2c.c  ****   }
 428:common/i2c.c  ****   else
 429:common/i2c.c  ****   {
 430:common/i2c.c  ****     /* Disable the STOP condition generation */
 431:common/i2c.c  ****     I2Cx->CR1 &= CR1_STOP_Reset;
 432:common/i2c.c  ****   }
 433:common/i2c.c  **** }
 659              		.loc 1 433 0
 660 0322 07E0     		b	.L36
 661              	.L34:
 431:common/i2c.c  ****   }
 662              		.loc 1 431 0
 663 0324 7B68     		ldr	r3, [r7, #4]
 664 0326 1B88     		ldrh	r3, [r3]	@ movhi
 665 0328 9BB2     		uxth	r3, r3
 666 032a 23F40073 		bic	r3, r3, #512
 667 032e 9AB2     		uxth	r2, r3
 668 0330 7B68     		ldr	r3, [r7, #4]
 669 0332 1A80     		strh	r2, [r3]	@ movhi
 670              	.L36:
 671              		.loc 1 433 0
 672 0334 00BF     		nop
 673 0336 0C37     		adds	r7, r7, #12
 674              		.cfi_def_cfa_offset 4
 675 0338 BD46     		mov	sp, r7
 676              		.cfi_def_cfa_register 13
 677              		@ sp needed
 678 033a 80BC     		pop	{r7}
 679              		.cfi_restore 7
 680              		.cfi_def_cfa_offset 0
 681 033c 7047     		bx	lr
 682              		.cfi_endproc
 683              	.LFE70:
 684              		.size	I2C_GenerateSTOP, .-I2C_GenerateSTOP
 685              		.align	1
 686              		.global	I2C_AcknowledgeConfig
 687              		.syntax unified
 688              		.thumb
 689              		.thumb_func
 690              		.fpu softvfp
 691              		.type	I2C_AcknowledgeConfig, %function
 692              	I2C_AcknowledgeConfig:
 693              	.LFB71:
 434:common/i2c.c  **** 
 435:common/i2c.c  **** /**
 436:common/i2c.c  ****   * @brief  Enables or disables the specified I2C acknowledge feature.
 437:common/i2c.c  ****   * @param  I2Cx: where x can be 1 or 2 to select the I2C peripheral.
 438:common/i2c.c  ****   * @param  NewState: new state of the I2C Acknowledgement.
 439:common/i2c.c  ****   *   This parameter can be: ENABLE or DISABLE.
 440:common/i2c.c  ****   * @retval None.
ARM GAS  /tmp/ccozkyvL.s 			page 21


 441:common/i2c.c  ****   */
 442:common/i2c.c  **** void I2C_AcknowledgeConfig(I2C_TypeDef* I2Cx, FunctionalState NewState)
 443:common/i2c.c  **** {
 694              		.loc 1 443 0
 695              		.cfi_startproc
 696              		@ args = 0, pretend = 0, frame = 8
 697              		@ frame_needed = 1, uses_anonymous_args = 0
 698              		@ link register save eliminated.
 699 033e 80B4     		push	{r7}
 700              		.cfi_def_cfa_offset 4
 701              		.cfi_offset 7, -4
 702 0340 83B0     		sub	sp, sp, #12
 703              		.cfi_def_cfa_offset 16
 704 0342 00AF     		add	r7, sp, #0
 705              		.cfi_def_cfa_register 7
 706 0344 7860     		str	r0, [r7, #4]
 707 0346 0B46     		mov	r3, r1
 708 0348 FB70     		strb	r3, [r7, #3]
 444:common/i2c.c  ****   /* Check the parameters */
 445:common/i2c.c  ****   assert_param(IS_I2C_ALL_PERIPH(I2Cx));
 446:common/i2c.c  ****   assert_param(IS_FUNCTIONAL_STATE(NewState));
 447:common/i2c.c  ****   if (NewState != DISABLE)
 709              		.loc 1 447 0
 710 034a FB78     		ldrb	r3, [r7, #3]	@ zero_extendqisi2
 711 034c 002B     		cmp	r3, #0
 712 034e 08D0     		beq	.L38
 448:common/i2c.c  ****   {
 449:common/i2c.c  ****     /* Enable the acknowledgement */
 450:common/i2c.c  ****     I2Cx->CR1 |= CR1_ACK_Set;
 713              		.loc 1 450 0
 714 0350 7B68     		ldr	r3, [r7, #4]
 715 0352 1B88     		ldrh	r3, [r3]	@ movhi
 716 0354 9BB2     		uxth	r3, r3
 717 0356 43F48063 		orr	r3, r3, #1024
 718 035a 9AB2     		uxth	r2, r3
 719 035c 7B68     		ldr	r3, [r7, #4]
 720 035e 1A80     		strh	r2, [r3]	@ movhi
 451:common/i2c.c  ****   }
 452:common/i2c.c  ****   else
 453:common/i2c.c  ****   {
 454:common/i2c.c  ****     /* Disable the acknowledgement */
 455:common/i2c.c  ****     I2Cx->CR1 &= CR1_ACK_Reset;
 456:common/i2c.c  ****   }
 457:common/i2c.c  **** }
 721              		.loc 1 457 0
 722 0360 07E0     		b	.L40
 723              	.L38:
 455:common/i2c.c  ****   }
 724              		.loc 1 455 0
 725 0362 7B68     		ldr	r3, [r7, #4]
 726 0364 1B88     		ldrh	r3, [r3]	@ movhi
 727 0366 9BB2     		uxth	r3, r3
 728 0368 23F48063 		bic	r3, r3, #1024
 729 036c 9AB2     		uxth	r2, r3
 730 036e 7B68     		ldr	r3, [r7, #4]
 731 0370 1A80     		strh	r2, [r3]	@ movhi
 732              	.L40:
ARM GAS  /tmp/ccozkyvL.s 			page 22


 733              		.loc 1 457 0
 734 0372 00BF     		nop
 735 0374 0C37     		adds	r7, r7, #12
 736              		.cfi_def_cfa_offset 4
 737 0376 BD46     		mov	sp, r7
 738              		.cfi_def_cfa_register 13
 739              		@ sp needed
 740 0378 80BC     		pop	{r7}
 741              		.cfi_restore 7
 742              		.cfi_def_cfa_offset 0
 743 037a 7047     		bx	lr
 744              		.cfi_endproc
 745              	.LFE71:
 746              		.size	I2C_AcknowledgeConfig, .-I2C_AcknowledgeConfig
 747              		.align	1
 748              		.global	I2C_OwnAddress2Config
 749              		.syntax unified
 750              		.thumb
 751              		.thumb_func
 752              		.fpu softvfp
 753              		.type	I2C_OwnAddress2Config, %function
 754              	I2C_OwnAddress2Config:
 755              	.LFB72:
 458:common/i2c.c  **** 
 459:common/i2c.c  **** /**
 460:common/i2c.c  ****   * @brief  Configures the specified I2C own address2.
 461:common/i2c.c  ****   * @param  I2Cx: where x can be 1 or 2 to select the I2C peripheral.
 462:common/i2c.c  ****   * @param  Address: specifies the 7bit I2C own address2.
 463:common/i2c.c  ****   * @retval None.
 464:common/i2c.c  ****   */
 465:common/i2c.c  **** void I2C_OwnAddress2Config(I2C_TypeDef* I2Cx, uint8_t Address)
 466:common/i2c.c  **** {
 756              		.loc 1 466 0
 757              		.cfi_startproc
 758              		@ args = 0, pretend = 0, frame = 16
 759              		@ frame_needed = 1, uses_anonymous_args = 0
 760              		@ link register save eliminated.
 761 037c 80B4     		push	{r7}
 762              		.cfi_def_cfa_offset 4
 763              		.cfi_offset 7, -4
 764 037e 85B0     		sub	sp, sp, #20
 765              		.cfi_def_cfa_offset 24
 766 0380 00AF     		add	r7, sp, #0
 767              		.cfi_def_cfa_register 7
 768 0382 7860     		str	r0, [r7, #4]
 769 0384 0B46     		mov	r3, r1
 770 0386 FB70     		strb	r3, [r7, #3]
 467:common/i2c.c  ****   uint16_t tmpreg = 0;
 771              		.loc 1 467 0
 772 0388 0023     		movs	r3, #0
 773 038a FB81     		strh	r3, [r7, #14]	@ movhi
 468:common/i2c.c  **** 
 469:common/i2c.c  ****   /* Check the parameters */
 470:common/i2c.c  ****   assert_param(IS_I2C_ALL_PERIPH(I2Cx));
 471:common/i2c.c  **** 
 472:common/i2c.c  ****   /* Get the old register value */
 473:common/i2c.c  ****   tmpreg = I2Cx->OAR2;
ARM GAS  /tmp/ccozkyvL.s 			page 23


 774              		.loc 1 473 0
 775 038c 7B68     		ldr	r3, [r7, #4]
 776 038e 9B89     		ldrh	r3, [r3, #12]	@ movhi
 777 0390 FB81     		strh	r3, [r7, #14]	@ movhi
 474:common/i2c.c  **** 
 475:common/i2c.c  ****   /* Reset I2Cx Own address2 bit [7:1] */
 476:common/i2c.c  ****   tmpreg &= OAR2_ADD2_Reset;
 778              		.loc 1 476 0
 779 0392 FB89     		ldrh	r3, [r7, #14]	@ movhi
 780 0394 23F0FE03 		bic	r3, r3, #254
 781 0398 FB81     		strh	r3, [r7, #14]	@ movhi
 477:common/i2c.c  **** 
 478:common/i2c.c  ****   /* Set I2Cx Own address2 */
 479:common/i2c.c  ****   tmpreg |= (uint16_t)((uint16_t)Address & (uint16_t)0x00FE);
 782              		.loc 1 479 0
 783 039a FB78     		ldrb	r3, [r7, #3]	@ zero_extendqisi2
 784 039c 1BB2     		sxth	r3, r3
 785 039e 03F0FE03 		and	r3, r3, #254
 786 03a2 1AB2     		sxth	r2, r3
 787 03a4 B7F90E30 		ldrsh	r3, [r7, #14]
 788 03a8 1343     		orrs	r3, r3, r2
 789 03aa 1BB2     		sxth	r3, r3
 790 03ac FB81     		strh	r3, [r7, #14]	@ movhi
 480:common/i2c.c  **** 
 481:common/i2c.c  ****   /* Store the new register value */
 482:common/i2c.c  ****   I2Cx->OAR2 = tmpreg;
 791              		.loc 1 482 0
 792 03ae 7B68     		ldr	r3, [r7, #4]
 793 03b0 FA89     		ldrh	r2, [r7, #14]	@ movhi
 794 03b2 9A81     		strh	r2, [r3, #12]	@ movhi
 483:common/i2c.c  **** }
 795              		.loc 1 483 0
 796 03b4 00BF     		nop
 797 03b6 1437     		adds	r7, r7, #20
 798              		.cfi_def_cfa_offset 4
 799 03b8 BD46     		mov	sp, r7
 800              		.cfi_def_cfa_register 13
 801              		@ sp needed
 802 03ba 80BC     		pop	{r7}
 803              		.cfi_restore 7
 804              		.cfi_def_cfa_offset 0
 805 03bc 7047     		bx	lr
 806              		.cfi_endproc
 807              	.LFE72:
 808              		.size	I2C_OwnAddress2Config, .-I2C_OwnAddress2Config
 809              		.align	1
 810              		.global	I2C_DualAddressCmd
 811              		.syntax unified
 812              		.thumb
 813              		.thumb_func
 814              		.fpu softvfp
 815              		.type	I2C_DualAddressCmd, %function
 816              	I2C_DualAddressCmd:
 817              	.LFB73:
 484:common/i2c.c  **** 
 485:common/i2c.c  **** /**
 486:common/i2c.c  ****   * @brief  Enables or disables the specified I2C dual addressing mode.
ARM GAS  /tmp/ccozkyvL.s 			page 24


 487:common/i2c.c  ****   * @param  I2Cx: where x can be 1 or 2 to select the I2C peripheral.
 488:common/i2c.c  ****   * @param  NewState: new state of the I2C dual addressing mode.
 489:common/i2c.c  ****   *   This parameter can be: ENABLE or DISABLE.
 490:common/i2c.c  ****   * @retval None
 491:common/i2c.c  ****   */
 492:common/i2c.c  **** void I2C_DualAddressCmd(I2C_TypeDef* I2Cx, FunctionalState NewState)
 493:common/i2c.c  **** {
 818              		.loc 1 493 0
 819              		.cfi_startproc
 820              		@ args = 0, pretend = 0, frame = 8
 821              		@ frame_needed = 1, uses_anonymous_args = 0
 822              		@ link register save eliminated.
 823 03be 80B4     		push	{r7}
 824              		.cfi_def_cfa_offset 4
 825              		.cfi_offset 7, -4
 826 03c0 83B0     		sub	sp, sp, #12
 827              		.cfi_def_cfa_offset 16
 828 03c2 00AF     		add	r7, sp, #0
 829              		.cfi_def_cfa_register 7
 830 03c4 7860     		str	r0, [r7, #4]
 831 03c6 0B46     		mov	r3, r1
 832 03c8 FB70     		strb	r3, [r7, #3]
 494:common/i2c.c  ****   /* Check the parameters */
 495:common/i2c.c  ****   assert_param(IS_I2C_ALL_PERIPH(I2Cx));
 496:common/i2c.c  ****   assert_param(IS_FUNCTIONAL_STATE(NewState));
 497:common/i2c.c  ****   if (NewState != DISABLE)
 833              		.loc 1 497 0
 834 03ca FB78     		ldrb	r3, [r7, #3]	@ zero_extendqisi2
 835 03cc 002B     		cmp	r3, #0
 836 03ce 08D0     		beq	.L43
 498:common/i2c.c  ****   {
 499:common/i2c.c  ****     /* Enable dual addressing mode */
 500:common/i2c.c  ****     I2Cx->OAR2 |= OAR2_ENDUAL_Set;
 837              		.loc 1 500 0
 838 03d0 7B68     		ldr	r3, [r7, #4]
 839 03d2 9B89     		ldrh	r3, [r3, #12]	@ movhi
 840 03d4 9BB2     		uxth	r3, r3
 841 03d6 43F00103 		orr	r3, r3, #1
 842 03da 9AB2     		uxth	r2, r3
 843 03dc 7B68     		ldr	r3, [r7, #4]
 844 03de 9A81     		strh	r2, [r3, #12]	@ movhi
 501:common/i2c.c  ****   }
 502:common/i2c.c  ****   else
 503:common/i2c.c  ****   {
 504:common/i2c.c  ****     /* Disable dual addressing mode */
 505:common/i2c.c  ****     I2Cx->OAR2 &= OAR2_ENDUAL_Reset;
 506:common/i2c.c  ****   }
 507:common/i2c.c  **** }
 845              		.loc 1 507 0
 846 03e0 07E0     		b	.L45
 847              	.L43:
 505:common/i2c.c  ****   }
 848              		.loc 1 505 0
 849 03e2 7B68     		ldr	r3, [r7, #4]
 850 03e4 9B89     		ldrh	r3, [r3, #12]	@ movhi
 851 03e6 9BB2     		uxth	r3, r3
 852 03e8 23F00103 		bic	r3, r3, #1
ARM GAS  /tmp/ccozkyvL.s 			page 25


 853 03ec 9AB2     		uxth	r2, r3
 854 03ee 7B68     		ldr	r3, [r7, #4]
 855 03f0 9A81     		strh	r2, [r3, #12]	@ movhi
 856              	.L45:
 857              		.loc 1 507 0
 858 03f2 00BF     		nop
 859 03f4 0C37     		adds	r7, r7, #12
 860              		.cfi_def_cfa_offset 4
 861 03f6 BD46     		mov	sp, r7
 862              		.cfi_def_cfa_register 13
 863              		@ sp needed
 864 03f8 80BC     		pop	{r7}
 865              		.cfi_restore 7
 866              		.cfi_def_cfa_offset 0
 867 03fa 7047     		bx	lr
 868              		.cfi_endproc
 869              	.LFE73:
 870              		.size	I2C_DualAddressCmd, .-I2C_DualAddressCmd
 871              		.align	1
 872              		.global	I2C_GeneralCallCmd
 873              		.syntax unified
 874              		.thumb
 875              		.thumb_func
 876              		.fpu softvfp
 877              		.type	I2C_GeneralCallCmd, %function
 878              	I2C_GeneralCallCmd:
 879              	.LFB74:
 508:common/i2c.c  **** 
 509:common/i2c.c  **** /**
 510:common/i2c.c  ****   * @brief  Enables or disables the specified I2C general call feature.
 511:common/i2c.c  ****   * @param  I2Cx: where x can be 1 or 2 to select the I2C peripheral.
 512:common/i2c.c  ****   * @param  NewState: new state of the I2C General call.
 513:common/i2c.c  ****   *   This parameter can be: ENABLE or DISABLE.
 514:common/i2c.c  ****   * @retval None
 515:common/i2c.c  ****   */
 516:common/i2c.c  **** void I2C_GeneralCallCmd(I2C_TypeDef* I2Cx, FunctionalState NewState)
 517:common/i2c.c  **** {
 880              		.loc 1 517 0
 881              		.cfi_startproc
 882              		@ args = 0, pretend = 0, frame = 8
 883              		@ frame_needed = 1, uses_anonymous_args = 0
 884              		@ link register save eliminated.
 885 03fc 80B4     		push	{r7}
 886              		.cfi_def_cfa_offset 4
 887              		.cfi_offset 7, -4
 888 03fe 83B0     		sub	sp, sp, #12
 889              		.cfi_def_cfa_offset 16
 890 0400 00AF     		add	r7, sp, #0
 891              		.cfi_def_cfa_register 7
 892 0402 7860     		str	r0, [r7, #4]
 893 0404 0B46     		mov	r3, r1
 894 0406 FB70     		strb	r3, [r7, #3]
 518:common/i2c.c  ****   /* Check the parameters */
 519:common/i2c.c  ****   assert_param(IS_I2C_ALL_PERIPH(I2Cx));
 520:common/i2c.c  ****   assert_param(IS_FUNCTIONAL_STATE(NewState));
 521:common/i2c.c  ****   if (NewState != DISABLE)
 895              		.loc 1 521 0
ARM GAS  /tmp/ccozkyvL.s 			page 26


 896 0408 FB78     		ldrb	r3, [r7, #3]	@ zero_extendqisi2
 897 040a 002B     		cmp	r3, #0
 898 040c 08D0     		beq	.L47
 522:common/i2c.c  ****   {
 523:common/i2c.c  ****     /* Enable generall call */
 524:common/i2c.c  ****     I2Cx->CR1 |= CR1_ENGC_Set;
 899              		.loc 1 524 0
 900 040e 7B68     		ldr	r3, [r7, #4]
 901 0410 1B88     		ldrh	r3, [r3]	@ movhi
 902 0412 9BB2     		uxth	r3, r3
 903 0414 43F04003 		orr	r3, r3, #64
 904 0418 9AB2     		uxth	r2, r3
 905 041a 7B68     		ldr	r3, [r7, #4]
 906 041c 1A80     		strh	r2, [r3]	@ movhi
 525:common/i2c.c  ****   }
 526:common/i2c.c  ****   else
 527:common/i2c.c  ****   {
 528:common/i2c.c  ****     /* Disable generall call */
 529:common/i2c.c  ****     I2Cx->CR1 &= CR1_ENGC_Reset;
 530:common/i2c.c  ****   }
 531:common/i2c.c  **** }
 907              		.loc 1 531 0
 908 041e 07E0     		b	.L49
 909              	.L47:
 529:common/i2c.c  ****   }
 910              		.loc 1 529 0
 911 0420 7B68     		ldr	r3, [r7, #4]
 912 0422 1B88     		ldrh	r3, [r3]	@ movhi
 913 0424 9BB2     		uxth	r3, r3
 914 0426 23F04003 		bic	r3, r3, #64
 915 042a 9AB2     		uxth	r2, r3
 916 042c 7B68     		ldr	r3, [r7, #4]
 917 042e 1A80     		strh	r2, [r3]	@ movhi
 918              	.L49:
 919              		.loc 1 531 0
 920 0430 00BF     		nop
 921 0432 0C37     		adds	r7, r7, #12
 922              		.cfi_def_cfa_offset 4
 923 0434 BD46     		mov	sp, r7
 924              		.cfi_def_cfa_register 13
 925              		@ sp needed
 926 0436 80BC     		pop	{r7}
 927              		.cfi_restore 7
 928              		.cfi_def_cfa_offset 0
 929 0438 7047     		bx	lr
 930              		.cfi_endproc
 931              	.LFE74:
 932              		.size	I2C_GeneralCallCmd, .-I2C_GeneralCallCmd
 933              		.align	1
 934              		.global	I2C_ITConfig
 935              		.syntax unified
 936              		.thumb
 937              		.thumb_func
 938              		.fpu softvfp
 939              		.type	I2C_ITConfig, %function
 940              	I2C_ITConfig:
 941              	.LFB75:
ARM GAS  /tmp/ccozkyvL.s 			page 27


 532:common/i2c.c  **** 
 533:common/i2c.c  **** /**
 534:common/i2c.c  ****   * @brief  Enables or disables the specified I2C interrupts.
 535:common/i2c.c  ****   * @param  I2Cx: where x can be 1 or 2 to select the I2C peripheral.
 536:common/i2c.c  ****   * @param  I2C_IT: specifies the I2C interrupts sources to be enabled or disabled. 
 537:common/i2c.c  ****   *   This parameter can be any combination of the following values:
 538:common/i2c.c  ****   *     @arg I2C_IT_BUF: Buffer interrupt mask
 539:common/i2c.c  ****   *     @arg I2C_IT_EVT: Event interrupt mask
 540:common/i2c.c  ****   *     @arg I2C_IT_ERR: Error interrupt mask
 541:common/i2c.c  ****   * @param  NewState: new state of the specified I2C interrupts.
 542:common/i2c.c  ****   *   This parameter can be: ENABLE or DISABLE.
 543:common/i2c.c  ****   * @retval None
 544:common/i2c.c  ****   */
 545:common/i2c.c  **** void I2C_ITConfig(I2C_TypeDef* I2Cx, uint16_t I2C_IT, FunctionalState NewState)
 546:common/i2c.c  **** {
 942              		.loc 1 546 0
 943              		.cfi_startproc
 944              		@ args = 0, pretend = 0, frame = 8
 945              		@ frame_needed = 1, uses_anonymous_args = 0
 946              		@ link register save eliminated.
 947 043a 80B4     		push	{r7}
 948              		.cfi_def_cfa_offset 4
 949              		.cfi_offset 7, -4
 950 043c 83B0     		sub	sp, sp, #12
 951              		.cfi_def_cfa_offset 16
 952 043e 00AF     		add	r7, sp, #0
 953              		.cfi_def_cfa_register 7
 954 0440 7860     		str	r0, [r7, #4]
 955 0442 0B46     		mov	r3, r1
 956 0444 7B80     		strh	r3, [r7, #2]	@ movhi
 957 0446 1346     		mov	r3, r2
 958 0448 7B70     		strb	r3, [r7, #1]
 547:common/i2c.c  ****   /* Check the parameters */
 548:common/i2c.c  ****   assert_param(IS_I2C_ALL_PERIPH(I2Cx));
 549:common/i2c.c  ****   assert_param(IS_FUNCTIONAL_STATE(NewState));
 550:common/i2c.c  ****   assert_param(IS_I2C_CONFIG_IT(I2C_IT));
 551:common/i2c.c  ****   
 552:common/i2c.c  ****   if (NewState != DISABLE)
 959              		.loc 1 552 0
 960 044a 7B78     		ldrb	r3, [r7, #1]	@ zero_extendqisi2
 961 044c 002B     		cmp	r3, #0
 962 044e 08D0     		beq	.L51
 553:common/i2c.c  ****   {
 554:common/i2c.c  ****     /* Enable the selected I2C interrupts */
 555:common/i2c.c  ****     I2Cx->CR2 |= I2C_IT;
 963              		.loc 1 555 0
 964 0450 7B68     		ldr	r3, [r7, #4]
 965 0452 9B88     		ldrh	r3, [r3, #4]	@ movhi
 966 0454 9AB2     		uxth	r2, r3
 967 0456 7B88     		ldrh	r3, [r7, #2]	@ movhi
 968 0458 1343     		orrs	r3, r3, r2
 969 045a 9AB2     		uxth	r2, r3
 970 045c 7B68     		ldr	r3, [r7, #4]
 971 045e 9A80     		strh	r2, [r3, #4]	@ movhi
 556:common/i2c.c  ****   }
 557:common/i2c.c  ****   else
 558:common/i2c.c  ****   {
ARM GAS  /tmp/ccozkyvL.s 			page 28


 559:common/i2c.c  ****     /* Disable the selected I2C interrupts */
 560:common/i2c.c  ****     I2Cx->CR2 &= (uint16_t)~I2C_IT;
 561:common/i2c.c  ****   }
 562:common/i2c.c  **** }
 972              		.loc 1 562 0
 973 0460 09E0     		b	.L53
 974              	.L51:
 560:common/i2c.c  ****   }
 975              		.loc 1 560 0
 976 0462 7B68     		ldr	r3, [r7, #4]
 977 0464 9B88     		ldrh	r3, [r3, #4]	@ movhi
 978 0466 9AB2     		uxth	r2, r3
 979 0468 7B88     		ldrh	r3, [r7, #2]	@ movhi
 980 046a DB43     		mvns	r3, r3
 981 046c 9BB2     		uxth	r3, r3
 982 046e 1340     		ands	r3, r3, r2
 983 0470 9AB2     		uxth	r2, r3
 984 0472 7B68     		ldr	r3, [r7, #4]
 985 0474 9A80     		strh	r2, [r3, #4]	@ movhi
 986              	.L53:
 987              		.loc 1 562 0
 988 0476 00BF     		nop
 989 0478 0C37     		adds	r7, r7, #12
 990              		.cfi_def_cfa_offset 4
 991 047a BD46     		mov	sp, r7
 992              		.cfi_def_cfa_register 13
 993              		@ sp needed
 994 047c 80BC     		pop	{r7}
 995              		.cfi_restore 7
 996              		.cfi_def_cfa_offset 0
 997 047e 7047     		bx	lr
 998              		.cfi_endproc
 999              	.LFE75:
 1000              		.size	I2C_ITConfig, .-I2C_ITConfig
 1001              		.align	1
 1002              		.global	I2C_SendData
 1003              		.syntax unified
 1004              		.thumb
 1005              		.thumb_func
 1006              		.fpu softvfp
 1007              		.type	I2C_SendData, %function
 1008              	I2C_SendData:
 1009              	.LFB76:
 563:common/i2c.c  **** 
 564:common/i2c.c  **** /**
 565:common/i2c.c  ****   * @brief  Sends a data byte through the I2Cx peripheral.
 566:common/i2c.c  ****   * @param  I2Cx: where x can be 1 or 2 to select the I2C peripheral.
 567:common/i2c.c  ****   * @param  Data: Byte to be transmitted..
 568:common/i2c.c  ****   * @retval None
 569:common/i2c.c  ****   */
 570:common/i2c.c  **** void I2C_SendData(I2C_TypeDef* I2Cx, uint8_t Data)
 571:common/i2c.c  **** {
 1010              		.loc 1 571 0
 1011              		.cfi_startproc
 1012              		@ args = 0, pretend = 0, frame = 8
 1013              		@ frame_needed = 1, uses_anonymous_args = 0
 1014              		@ link register save eliminated.
ARM GAS  /tmp/ccozkyvL.s 			page 29


 1015 0480 80B4     		push	{r7}
 1016              		.cfi_def_cfa_offset 4
 1017              		.cfi_offset 7, -4
 1018 0482 83B0     		sub	sp, sp, #12
 1019              		.cfi_def_cfa_offset 16
 1020 0484 00AF     		add	r7, sp, #0
 1021              		.cfi_def_cfa_register 7
 1022 0486 7860     		str	r0, [r7, #4]
 1023 0488 0B46     		mov	r3, r1
 1024 048a FB70     		strb	r3, [r7, #3]
 572:common/i2c.c  ****   /* Check the parameters */
 573:common/i2c.c  ****   assert_param(IS_I2C_ALL_PERIPH(I2Cx));
 574:common/i2c.c  ****   /* Write in the DR register the data to be sent */
 575:common/i2c.c  ****   I2Cx->DR = Data;
 1025              		.loc 1 575 0
 1026 048c FB78     		ldrb	r3, [r7, #3]	@ zero_extendqisi2
 1027 048e 9AB2     		uxth	r2, r3
 1028 0490 7B68     		ldr	r3, [r7, #4]
 1029 0492 1A82     		strh	r2, [r3, #16]	@ movhi
 576:common/i2c.c  **** }
 1030              		.loc 1 576 0
 1031 0494 00BF     		nop
 1032 0496 0C37     		adds	r7, r7, #12
 1033              		.cfi_def_cfa_offset 4
 1034 0498 BD46     		mov	sp, r7
 1035              		.cfi_def_cfa_register 13
 1036              		@ sp needed
 1037 049a 80BC     		pop	{r7}
 1038              		.cfi_restore 7
 1039              		.cfi_def_cfa_offset 0
 1040 049c 7047     		bx	lr
 1041              		.cfi_endproc
 1042              	.LFE76:
 1043              		.size	I2C_SendData, .-I2C_SendData
 1044              		.align	1
 1045              		.global	I2C_ReceiveData
 1046              		.syntax unified
 1047              		.thumb
 1048              		.thumb_func
 1049              		.fpu softvfp
 1050              		.type	I2C_ReceiveData, %function
 1051              	I2C_ReceiveData:
 1052              	.LFB77:
 577:common/i2c.c  **** 
 578:common/i2c.c  **** /**
 579:common/i2c.c  ****   * @brief  Returns the most recent received data by the I2Cx peripheral.
 580:common/i2c.c  ****   * @param  I2Cx: where x can be 1 or 2 to select the I2C peripheral.
 581:common/i2c.c  ****   * @retval The value of the received data.
 582:common/i2c.c  ****   */
 583:common/i2c.c  **** uint8_t I2C_ReceiveData(I2C_TypeDef* I2Cx)
 584:common/i2c.c  **** {
 1053              		.loc 1 584 0
 1054              		.cfi_startproc
 1055              		@ args = 0, pretend = 0, frame = 8
 1056              		@ frame_needed = 1, uses_anonymous_args = 0
 1057              		@ link register save eliminated.
 1058 049e 80B4     		push	{r7}
ARM GAS  /tmp/ccozkyvL.s 			page 30


 1059              		.cfi_def_cfa_offset 4
 1060              		.cfi_offset 7, -4
 1061 04a0 83B0     		sub	sp, sp, #12
 1062              		.cfi_def_cfa_offset 16
 1063 04a2 00AF     		add	r7, sp, #0
 1064              		.cfi_def_cfa_register 7
 1065 04a4 7860     		str	r0, [r7, #4]
 585:common/i2c.c  ****   /* Check the parameters */
 586:common/i2c.c  ****   assert_param(IS_I2C_ALL_PERIPH(I2Cx));
 587:common/i2c.c  ****   /* Return the data in the DR register */
 588:common/i2c.c  ****   return (uint8_t)I2Cx->DR;
 1066              		.loc 1 588 0
 1067 04a6 7B68     		ldr	r3, [r7, #4]
 1068 04a8 1B8A     		ldrh	r3, [r3, #16]	@ movhi
 1069 04aa 9BB2     		uxth	r3, r3
 1070 04ac DBB2     		uxtb	r3, r3
 589:common/i2c.c  **** }
 1071              		.loc 1 589 0
 1072 04ae 1846     		mov	r0, r3
 1073 04b0 0C37     		adds	r7, r7, #12
 1074              		.cfi_def_cfa_offset 4
 1075 04b2 BD46     		mov	sp, r7
 1076              		.cfi_def_cfa_register 13
 1077              		@ sp needed
 1078 04b4 80BC     		pop	{r7}
 1079              		.cfi_restore 7
 1080              		.cfi_def_cfa_offset 0
 1081 04b6 7047     		bx	lr
 1082              		.cfi_endproc
 1083              	.LFE77:
 1084              		.size	I2C_ReceiveData, .-I2C_ReceiveData
 1085              		.align	1
 1086              		.global	I2C_Send7bitAddress
 1087              		.syntax unified
 1088              		.thumb
 1089              		.thumb_func
 1090              		.fpu softvfp
 1091              		.type	I2C_Send7bitAddress, %function
 1092              	I2C_Send7bitAddress:
 1093              	.LFB78:
 590:common/i2c.c  **** 
 591:common/i2c.c  **** /**
 592:common/i2c.c  ****   * @brief  Transmits the address byte to select the slave device.
 593:common/i2c.c  ****   * @param  I2Cx: where x can be 1 or 2 to select the I2C peripheral.
 594:common/i2c.c  ****   * @param  Address: specifies the slave address which will be transmitted
 595:common/i2c.c  ****   * @param  I2C_Direction: specifies whether the I2C device will be a
 596:common/i2c.c  ****   *   Transmitter or a Receiver. This parameter can be one of the following values
 597:common/i2c.c  ****   *     @arg I2C_Direction_Transmitter: Transmitter mode
 598:common/i2c.c  ****   *     @arg I2C_Direction_Receiver: Receiver mode
 599:common/i2c.c  ****   * @retval None.
 600:common/i2c.c  ****   */
 601:common/i2c.c  **** void I2C_Send7bitAddress(I2C_TypeDef* I2Cx, uint8_t Address, uint8_t I2C_Direction)
 602:common/i2c.c  **** {
 1094              		.loc 1 602 0
 1095              		.cfi_startproc
 1096              		@ args = 0, pretend = 0, frame = 8
 1097              		@ frame_needed = 1, uses_anonymous_args = 0
ARM GAS  /tmp/ccozkyvL.s 			page 31


 1098              		@ link register save eliminated.
 1099 04b8 80B4     		push	{r7}
 1100              		.cfi_def_cfa_offset 4
 1101              		.cfi_offset 7, -4
 1102 04ba 83B0     		sub	sp, sp, #12
 1103              		.cfi_def_cfa_offset 16
 1104 04bc 00AF     		add	r7, sp, #0
 1105              		.cfi_def_cfa_register 7
 1106 04be 7860     		str	r0, [r7, #4]
 1107 04c0 0B46     		mov	r3, r1
 1108 04c2 FB70     		strb	r3, [r7, #3]
 1109 04c4 1346     		mov	r3, r2
 1110 04c6 BB70     		strb	r3, [r7, #2]
 603:common/i2c.c  ****   /* Check the parameters */
 604:common/i2c.c  ****   assert_param(IS_I2C_ALL_PERIPH(I2Cx));
 605:common/i2c.c  ****   assert_param(IS_I2C_DIRECTION(I2C_Direction));
 606:common/i2c.c  ****   /* Test on the direction to set/reset the read/write bit */
 607:common/i2c.c  ****   if (I2C_Direction != I2C_Direction_Transmitter)
 1111              		.loc 1 607 0
 1112 04c8 BB78     		ldrb	r3, [r7, #2]	@ zero_extendqisi2
 1113 04ca 002B     		cmp	r3, #0
 1114 04cc 04D0     		beq	.L58
 608:common/i2c.c  ****   {
 609:common/i2c.c  ****     /* Set the address bit0 for read */
 610:common/i2c.c  ****     Address |= OAR1_ADD0_Set;
 1115              		.loc 1 610 0
 1116 04ce FB78     		ldrb	r3, [r7, #3]
 1117 04d0 43F00103 		orr	r3, r3, #1
 1118 04d4 FB70     		strb	r3, [r7, #3]
 1119 04d6 03E0     		b	.L59
 1120              	.L58:
 611:common/i2c.c  ****   }
 612:common/i2c.c  ****   else
 613:common/i2c.c  ****   {
 614:common/i2c.c  ****     /* Reset the address bit0 for write */
 615:common/i2c.c  ****     Address &= OAR1_ADD0_Reset;
 1121              		.loc 1 615 0
 1122 04d8 FB78     		ldrb	r3, [r7, #3]
 1123 04da 23F00103 		bic	r3, r3, #1
 1124 04de FB70     		strb	r3, [r7, #3]
 1125              	.L59:
 616:common/i2c.c  ****   }
 617:common/i2c.c  ****   /* Send the address */
 618:common/i2c.c  ****   I2Cx->DR = Address;
 1126              		.loc 1 618 0
 1127 04e0 FB78     		ldrb	r3, [r7, #3]	@ zero_extendqisi2
 1128 04e2 9AB2     		uxth	r2, r3
 1129 04e4 7B68     		ldr	r3, [r7, #4]
 1130 04e6 1A82     		strh	r2, [r3, #16]	@ movhi
 619:common/i2c.c  **** }
 1131              		.loc 1 619 0
 1132 04e8 00BF     		nop
 1133 04ea 0C37     		adds	r7, r7, #12
 1134              		.cfi_def_cfa_offset 4
 1135 04ec BD46     		mov	sp, r7
 1136              		.cfi_def_cfa_register 13
 1137              		@ sp needed
ARM GAS  /tmp/ccozkyvL.s 			page 32


 1138 04ee 80BC     		pop	{r7}
 1139              		.cfi_restore 7
 1140              		.cfi_def_cfa_offset 0
 1141 04f0 7047     		bx	lr
 1142              		.cfi_endproc
 1143              	.LFE78:
 1144              		.size	I2C_Send7bitAddress, .-I2C_Send7bitAddress
 1145              		.align	1
 1146              		.global	I2C_ReadRegister
 1147              		.syntax unified
 1148              		.thumb
 1149              		.thumb_func
 1150              		.fpu softvfp
 1151              		.type	I2C_ReadRegister, %function
 1152              	I2C_ReadRegister:
 1153              	.LFB79:
 620:common/i2c.c  **** 
 621:common/i2c.c  **** /**
 622:common/i2c.c  ****   * @brief  Reads the specified I2C register and returns its value.
 623:common/i2c.c  ****   * @param  I2C_Register: specifies the register to read.
 624:common/i2c.c  ****   *   This parameter can be one of the following values:
 625:common/i2c.c  ****   *     @arg I2C_Register_CR1:  CR1 register.
 626:common/i2c.c  ****   *     @arg I2C_Register_CR2:   CR2 register.
 627:common/i2c.c  ****   *     @arg I2C_Register_OAR1:  OAR1 register.
 628:common/i2c.c  ****   *     @arg I2C_Register_OAR2:  OAR2 register.
 629:common/i2c.c  ****   *     @arg I2C_Register_DR:    DR register.
 630:common/i2c.c  ****   *     @arg I2C_Register_SR1:   SR1 register.
 631:common/i2c.c  ****   *     @arg I2C_Register_SR2:   SR2 register.
 632:common/i2c.c  ****   *     @arg I2C_Register_CCR:   CCR register.
 633:common/i2c.c  ****   *     @arg I2C_Register_TRISE: TRISE register.
 634:common/i2c.c  ****   * @retval The value of the read register.
 635:common/i2c.c  ****   */
 636:common/i2c.c  **** uint16_t I2C_ReadRegister(I2C_TypeDef* I2Cx, uint8_t I2C_Register)
 637:common/i2c.c  **** {
 1154              		.loc 1 637 0
 1155              		.cfi_startproc
 1156              		@ args = 0, pretend = 0, frame = 16
 1157              		@ frame_needed = 1, uses_anonymous_args = 0
 1158              		@ link register save eliminated.
 1159 04f2 80B4     		push	{r7}
 1160              		.cfi_def_cfa_offset 4
 1161              		.cfi_offset 7, -4
 1162 04f4 85B0     		sub	sp, sp, #20
 1163              		.cfi_def_cfa_offset 24
 1164 04f6 00AF     		add	r7, sp, #0
 1165              		.cfi_def_cfa_register 7
 1166 04f8 7860     		str	r0, [r7, #4]
 1167 04fa 0B46     		mov	r3, r1
 1168 04fc FB70     		strb	r3, [r7, #3]
 638:common/i2c.c  ****   __IO uint32_t tmp = 0;
 1169              		.loc 1 638 0
 1170 04fe 0023     		movs	r3, #0
 1171 0500 FB60     		str	r3, [r7, #12]
 639:common/i2c.c  **** 
 640:common/i2c.c  ****   /* Check the parameters */
 641:common/i2c.c  ****   assert_param(IS_I2C_ALL_PERIPH(I2Cx));
 642:common/i2c.c  ****   assert_param(IS_I2C_REGISTER(I2C_Register));
ARM GAS  /tmp/ccozkyvL.s 			page 33


 643:common/i2c.c  **** 
 644:common/i2c.c  ****   tmp = (uint32_t) I2Cx;
 1172              		.loc 1 644 0
 1173 0502 7B68     		ldr	r3, [r7, #4]
 1174 0504 FB60     		str	r3, [r7, #12]
 645:common/i2c.c  ****   tmp += I2C_Register;
 1175              		.loc 1 645 0
 1176 0506 FA78     		ldrb	r2, [r7, #3]	@ zero_extendqisi2
 1177 0508 FB68     		ldr	r3, [r7, #12]
 1178 050a 1344     		add	r3, r3, r2
 1179 050c FB60     		str	r3, [r7, #12]
 646:common/i2c.c  **** 
 647:common/i2c.c  ****   /* Return the selected register value */
 648:common/i2c.c  ****   return (*(__IO uint16_t *) tmp);
 1180              		.loc 1 648 0
 1181 050e FB68     		ldr	r3, [r7, #12]
 1182 0510 1B88     		ldrh	r3, [r3]	@ movhi
 1183 0512 9BB2     		uxth	r3, r3
 649:common/i2c.c  **** }
 1184              		.loc 1 649 0
 1185 0514 1846     		mov	r0, r3
 1186 0516 1437     		adds	r7, r7, #20
 1187              		.cfi_def_cfa_offset 4
 1188 0518 BD46     		mov	sp, r7
 1189              		.cfi_def_cfa_register 13
 1190              		@ sp needed
 1191 051a 80BC     		pop	{r7}
 1192              		.cfi_restore 7
 1193              		.cfi_def_cfa_offset 0
 1194 051c 7047     		bx	lr
 1195              		.cfi_endproc
 1196              	.LFE79:
 1197              		.size	I2C_ReadRegister, .-I2C_ReadRegister
 1198              		.align	1
 1199              		.global	I2C_SoftwareResetCmd
 1200              		.syntax unified
 1201              		.thumb
 1202              		.thumb_func
 1203              		.fpu softvfp
 1204              		.type	I2C_SoftwareResetCmd, %function
 1205              	I2C_SoftwareResetCmd:
 1206              	.LFB80:
 650:common/i2c.c  **** 
 651:common/i2c.c  **** /**
 652:common/i2c.c  ****   * @brief  Enables or disables the specified I2C software reset.
 653:common/i2c.c  ****   * @param  I2Cx: where x can be 1 or 2 to select the I2C peripheral.
 654:common/i2c.c  ****   * @param  NewState: new state of the I2C software reset.
 655:common/i2c.c  ****   *   This parameter can be: ENABLE or DISABLE.
 656:common/i2c.c  ****   * @retval None
 657:common/i2c.c  ****   */
 658:common/i2c.c  **** void I2C_SoftwareResetCmd(I2C_TypeDef* I2Cx, FunctionalState NewState)
 659:common/i2c.c  **** {
 1207              		.loc 1 659 0
 1208              		.cfi_startproc
 1209              		@ args = 0, pretend = 0, frame = 8
 1210              		@ frame_needed = 1, uses_anonymous_args = 0
 1211              		@ link register save eliminated.
ARM GAS  /tmp/ccozkyvL.s 			page 34


 1212 051e 80B4     		push	{r7}
 1213              		.cfi_def_cfa_offset 4
 1214              		.cfi_offset 7, -4
 1215 0520 83B0     		sub	sp, sp, #12
 1216              		.cfi_def_cfa_offset 16
 1217 0522 00AF     		add	r7, sp, #0
 1218              		.cfi_def_cfa_register 7
 1219 0524 7860     		str	r0, [r7, #4]
 1220 0526 0B46     		mov	r3, r1
 1221 0528 FB70     		strb	r3, [r7, #3]
 660:common/i2c.c  ****   /* Check the parameters */
 661:common/i2c.c  ****   assert_param(IS_I2C_ALL_PERIPH(I2Cx));
 662:common/i2c.c  ****   assert_param(IS_FUNCTIONAL_STATE(NewState));
 663:common/i2c.c  ****   if (NewState != DISABLE)
 1222              		.loc 1 663 0
 1223 052a FB78     		ldrb	r3, [r7, #3]	@ zero_extendqisi2
 1224 052c 002B     		cmp	r3, #0
 1225 052e 0AD0     		beq	.L63
 664:common/i2c.c  ****   {
 665:common/i2c.c  ****     /* Peripheral under reset */
 666:common/i2c.c  ****     I2Cx->CR1 |= CR1_SWRST_Set;
 1226              		.loc 1 666 0
 1227 0530 7B68     		ldr	r3, [r7, #4]
 1228 0532 1B88     		ldrh	r3, [r3]	@ movhi
 1229 0534 9BB2     		uxth	r3, r3
 1230 0536 6FEA4343 		mvn	r3, r3, lsl #17
 1231 053a 6FEA5343 		mvn	r3, r3, lsr #17
 1232 053e 9AB2     		uxth	r2, r3
 1233 0540 7B68     		ldr	r3, [r7, #4]
 1234 0542 1A80     		strh	r2, [r3]	@ movhi
 667:common/i2c.c  ****   }
 668:common/i2c.c  ****   else
 669:common/i2c.c  ****   {
 670:common/i2c.c  ****     /* Peripheral not under reset */
 671:common/i2c.c  ****     I2Cx->CR1 &= CR1_SWRST_Reset;
 672:common/i2c.c  ****   }
 673:common/i2c.c  **** }
 1235              		.loc 1 673 0
 1236 0544 07E0     		b	.L65
 1237              	.L63:
 671:common/i2c.c  ****   }
 1238              		.loc 1 671 0
 1239 0546 7B68     		ldr	r3, [r7, #4]
 1240 0548 1B88     		ldrh	r3, [r3]	@ movhi
 1241 054a 9BB2     		uxth	r3, r3
 1242 054c C3F30E03 		ubfx	r3, r3, #0, #15
 1243 0550 9AB2     		uxth	r2, r3
 1244 0552 7B68     		ldr	r3, [r7, #4]
 1245 0554 1A80     		strh	r2, [r3]	@ movhi
 1246              	.L65:
 1247              		.loc 1 673 0
 1248 0556 00BF     		nop
 1249 0558 0C37     		adds	r7, r7, #12
 1250              		.cfi_def_cfa_offset 4
 1251 055a BD46     		mov	sp, r7
 1252              		.cfi_def_cfa_register 13
 1253              		@ sp needed
ARM GAS  /tmp/ccozkyvL.s 			page 35


 1254 055c 80BC     		pop	{r7}
 1255              		.cfi_restore 7
 1256              		.cfi_def_cfa_offset 0
 1257 055e 7047     		bx	lr
 1258              		.cfi_endproc
 1259              	.LFE80:
 1260              		.size	I2C_SoftwareResetCmd, .-I2C_SoftwareResetCmd
 1261              		.align	1
 1262              		.global	I2C_NACKPositionConfig
 1263              		.syntax unified
 1264              		.thumb
 1265              		.thumb_func
 1266              		.fpu softvfp
 1267              		.type	I2C_NACKPositionConfig, %function
 1268              	I2C_NACKPositionConfig:
 1269              	.LFB81:
 674:common/i2c.c  **** 
 675:common/i2c.c  **** /**
 676:common/i2c.c  ****   * @brief  Selects the specified I2C NACK position in master receiver mode.
 677:common/i2c.c  ****   *         This function is useful in I2C Master Receiver mode when the number
 678:common/i2c.c  ****   *         of data to be received is equal to 2. In this case, this function 
 679:common/i2c.c  ****   *         should be called (with parameter I2C_NACKPosition_Next) before data 
 680:common/i2c.c  ****   *         reception starts,as described in the 2-byte reception procedure 
 681:common/i2c.c  ****   *         recommended in Reference Manual in Section: Master receiver.                
 682:common/i2c.c  ****   * @param  I2Cx: where x can be 1 or 2 to select the I2C peripheral.
 683:common/i2c.c  ****   * @param  I2C_NACKPosition: specifies the NACK position. 
 684:common/i2c.c  ****   *   This parameter can be one of the following values:
 685:common/i2c.c  ****   *     @arg I2C_NACKPosition_Next: indicates that the next byte will be the last
 686:common/i2c.c  ****   *          received byte.  
 687:common/i2c.c  ****   *     @arg I2C_NACKPosition_Current: indicates that current byte is the last 
 688:common/i2c.c  ****   *          received byte.
 689:common/i2c.c  ****   *            
 690:common/i2c.c  ****   * @note    This function configures the same bit (POS) as I2C_PECPositionConfig() 
 691:common/i2c.c  ****   *          but is intended to be used in I2C mode while I2C_PECPositionConfig() 
 692:common/i2c.c  ****   *          is intended to used in SMBUS mode. 
 693:common/i2c.c  ****   *            
 694:common/i2c.c  ****   * @retval None
 695:common/i2c.c  ****   */
 696:common/i2c.c  **** void I2C_NACKPositionConfig(I2C_TypeDef* I2Cx, uint16_t I2C_NACKPosition)
 697:common/i2c.c  **** {
 1270              		.loc 1 697 0
 1271              		.cfi_startproc
 1272              		@ args = 0, pretend = 0, frame = 8
 1273              		@ frame_needed = 1, uses_anonymous_args = 0
 1274              		@ link register save eliminated.
 1275 0560 80B4     		push	{r7}
 1276              		.cfi_def_cfa_offset 4
 1277              		.cfi_offset 7, -4
 1278 0562 83B0     		sub	sp, sp, #12
 1279              		.cfi_def_cfa_offset 16
 1280 0564 00AF     		add	r7, sp, #0
 1281              		.cfi_def_cfa_register 7
 1282 0566 7860     		str	r0, [r7, #4]
 1283 0568 0B46     		mov	r3, r1
 1284 056a 7B80     		strh	r3, [r7, #2]	@ movhi
 698:common/i2c.c  ****   /* Check the parameters */
 699:common/i2c.c  ****   assert_param(IS_I2C_ALL_PERIPH(I2Cx));
ARM GAS  /tmp/ccozkyvL.s 			page 36


 700:common/i2c.c  ****   assert_param(IS_I2C_NACK_POSITION(I2C_NACKPosition));
 701:common/i2c.c  ****   
 702:common/i2c.c  ****   /* Check the input parameter */
 703:common/i2c.c  ****   if (I2C_NACKPosition == I2C_NACKPosition_Next)
 1285              		.loc 1 703 0
 1286 056c 7B88     		ldrh	r3, [r7, #2]
 1287 056e B3F5006F 		cmp	r3, #2048
 1288 0572 08D1     		bne	.L67
 704:common/i2c.c  ****   {
 705:common/i2c.c  ****     /* Next byte in shift register is the last received byte */
 706:common/i2c.c  ****     I2Cx->CR1 |= I2C_NACKPosition_Next;
 1289              		.loc 1 706 0
 1290 0574 7B68     		ldr	r3, [r7, #4]
 1291 0576 1B88     		ldrh	r3, [r3]	@ movhi
 1292 0578 9BB2     		uxth	r3, r3
 1293 057a 43F40063 		orr	r3, r3, #2048
 1294 057e 9AB2     		uxth	r2, r3
 1295 0580 7B68     		ldr	r3, [r7, #4]
 1296 0582 1A80     		strh	r2, [r3]	@ movhi
 707:common/i2c.c  ****   }
 708:common/i2c.c  ****   else
 709:common/i2c.c  ****   {
 710:common/i2c.c  ****     /* Current byte in shift register is the last received byte */
 711:common/i2c.c  ****     I2Cx->CR1 &= I2C_NACKPosition_Current;
 712:common/i2c.c  ****   }
 713:common/i2c.c  **** }
 1297              		.loc 1 713 0
 1298 0584 07E0     		b	.L69
 1299              	.L67:
 711:common/i2c.c  ****   }
 1300              		.loc 1 711 0
 1301 0586 7B68     		ldr	r3, [r7, #4]
 1302 0588 1B88     		ldrh	r3, [r3]	@ movhi
 1303 058a 9BB2     		uxth	r3, r3
 1304 058c 23F40063 		bic	r3, r3, #2048
 1305 0590 9AB2     		uxth	r2, r3
 1306 0592 7B68     		ldr	r3, [r7, #4]
 1307 0594 1A80     		strh	r2, [r3]	@ movhi
 1308              	.L69:
 1309              		.loc 1 713 0
 1310 0596 00BF     		nop
 1311 0598 0C37     		adds	r7, r7, #12
 1312              		.cfi_def_cfa_offset 4
 1313 059a BD46     		mov	sp, r7
 1314              		.cfi_def_cfa_register 13
 1315              		@ sp needed
 1316 059c 80BC     		pop	{r7}
 1317              		.cfi_restore 7
 1318              		.cfi_def_cfa_offset 0
 1319 059e 7047     		bx	lr
 1320              		.cfi_endproc
 1321              	.LFE81:
 1322              		.size	I2C_NACKPositionConfig, .-I2C_NACKPositionConfig
 1323              		.align	1
 1324              		.global	I2C_SMBusAlertConfig
 1325              		.syntax unified
 1326              		.thumb
ARM GAS  /tmp/ccozkyvL.s 			page 37


 1327              		.thumb_func
 1328              		.fpu softvfp
 1329              		.type	I2C_SMBusAlertConfig, %function
 1330              	I2C_SMBusAlertConfig:
 1331              	.LFB82:
 714:common/i2c.c  **** 
 715:common/i2c.c  **** /**
 716:common/i2c.c  ****   * @brief  Drives the SMBusAlert pin high or low for the specified I2C.
 717:common/i2c.c  ****   * @param  I2Cx: where x can be 1 or 2 to select the I2C peripheral.
 718:common/i2c.c  ****   * @param  I2C_SMBusAlert: specifies SMBAlert pin level. 
 719:common/i2c.c  ****   *   This parameter can be one of the following values:
 720:common/i2c.c  ****   *     @arg I2C_SMBusAlert_Low: SMBAlert pin driven low
 721:common/i2c.c  ****   *     @arg I2C_SMBusAlert_High: SMBAlert pin driven high
 722:common/i2c.c  ****   * @retval None
 723:common/i2c.c  ****   */
 724:common/i2c.c  **** void I2C_SMBusAlertConfig(I2C_TypeDef* I2Cx, uint16_t I2C_SMBusAlert)
 725:common/i2c.c  **** {
 1332              		.loc 1 725 0
 1333              		.cfi_startproc
 1334              		@ args = 0, pretend = 0, frame = 8
 1335              		@ frame_needed = 1, uses_anonymous_args = 0
 1336              		@ link register save eliminated.
 1337 05a0 80B4     		push	{r7}
 1338              		.cfi_def_cfa_offset 4
 1339              		.cfi_offset 7, -4
 1340 05a2 83B0     		sub	sp, sp, #12
 1341              		.cfi_def_cfa_offset 16
 1342 05a4 00AF     		add	r7, sp, #0
 1343              		.cfi_def_cfa_register 7
 1344 05a6 7860     		str	r0, [r7, #4]
 1345 05a8 0B46     		mov	r3, r1
 1346 05aa 7B80     		strh	r3, [r7, #2]	@ movhi
 726:common/i2c.c  ****   /* Check the parameters */
 727:common/i2c.c  ****   assert_param(IS_I2C_ALL_PERIPH(I2Cx));
 728:common/i2c.c  ****   assert_param(IS_I2C_SMBUS_ALERT(I2C_SMBusAlert));
 729:common/i2c.c  ****   if (I2C_SMBusAlert == I2C_SMBusAlert_Low)
 1347              		.loc 1 729 0
 1348 05ac 7B88     		ldrh	r3, [r7, #2]
 1349 05ae B3F5005F 		cmp	r3, #8192
 1350 05b2 08D1     		bne	.L71
 730:common/i2c.c  ****   {
 731:common/i2c.c  ****     /* Drive the SMBusAlert pin Low */
 732:common/i2c.c  ****     I2Cx->CR1 |= I2C_SMBusAlert_Low;
 1351              		.loc 1 732 0
 1352 05b4 7B68     		ldr	r3, [r7, #4]
 1353 05b6 1B88     		ldrh	r3, [r3]	@ movhi
 1354 05b8 9BB2     		uxth	r3, r3
 1355 05ba 43F40053 		orr	r3, r3, #8192
 1356 05be 9AB2     		uxth	r2, r3
 1357 05c0 7B68     		ldr	r3, [r7, #4]
 1358 05c2 1A80     		strh	r2, [r3]	@ movhi
 733:common/i2c.c  ****   }
 734:common/i2c.c  ****   else
 735:common/i2c.c  ****   {
 736:common/i2c.c  ****     /* Drive the SMBusAlert pin High  */
 737:common/i2c.c  ****     I2Cx->CR1 &= I2C_SMBusAlert_High;
 738:common/i2c.c  ****   }
ARM GAS  /tmp/ccozkyvL.s 			page 38


 739:common/i2c.c  **** }
 1359              		.loc 1 739 0
 1360 05c4 07E0     		b	.L73
 1361              	.L71:
 737:common/i2c.c  ****   }
 1362              		.loc 1 737 0
 1363 05c6 7B68     		ldr	r3, [r7, #4]
 1364 05c8 1B88     		ldrh	r3, [r3]	@ movhi
 1365 05ca 9BB2     		uxth	r3, r3
 1366 05cc 23F40053 		bic	r3, r3, #8192
 1367 05d0 9AB2     		uxth	r2, r3
 1368 05d2 7B68     		ldr	r3, [r7, #4]
 1369 05d4 1A80     		strh	r2, [r3]	@ movhi
 1370              	.L73:
 1371              		.loc 1 739 0
 1372 05d6 00BF     		nop
 1373 05d8 0C37     		adds	r7, r7, #12
 1374              		.cfi_def_cfa_offset 4
 1375 05da BD46     		mov	sp, r7
 1376              		.cfi_def_cfa_register 13
 1377              		@ sp needed
 1378 05dc 80BC     		pop	{r7}
 1379              		.cfi_restore 7
 1380              		.cfi_def_cfa_offset 0
 1381 05de 7047     		bx	lr
 1382              		.cfi_endproc
 1383              	.LFE82:
 1384              		.size	I2C_SMBusAlertConfig, .-I2C_SMBusAlertConfig
 1385              		.align	1
 1386              		.global	I2C_TransmitPEC
 1387              		.syntax unified
 1388              		.thumb
 1389              		.thumb_func
 1390              		.fpu softvfp
 1391              		.type	I2C_TransmitPEC, %function
 1392              	I2C_TransmitPEC:
 1393              	.LFB83:
 740:common/i2c.c  **** 
 741:common/i2c.c  **** /**
 742:common/i2c.c  ****   * @brief  Enables or disables the specified I2C PEC transfer.
 743:common/i2c.c  ****   * @param  I2Cx: where x can be 1 or 2 to select the I2C peripheral.
 744:common/i2c.c  ****   * @param  NewState: new state of the I2C PEC transmission.
 745:common/i2c.c  ****   *   This parameter can be: ENABLE or DISABLE.
 746:common/i2c.c  ****   * @retval None
 747:common/i2c.c  ****   */
 748:common/i2c.c  **** void I2C_TransmitPEC(I2C_TypeDef* I2Cx, FunctionalState NewState)
 749:common/i2c.c  **** {
 1394              		.loc 1 749 0
 1395              		.cfi_startproc
 1396              		@ args = 0, pretend = 0, frame = 8
 1397              		@ frame_needed = 1, uses_anonymous_args = 0
 1398              		@ link register save eliminated.
 1399 05e0 80B4     		push	{r7}
 1400              		.cfi_def_cfa_offset 4
 1401              		.cfi_offset 7, -4
 1402 05e2 83B0     		sub	sp, sp, #12
 1403              		.cfi_def_cfa_offset 16
ARM GAS  /tmp/ccozkyvL.s 			page 39


 1404 05e4 00AF     		add	r7, sp, #0
 1405              		.cfi_def_cfa_register 7
 1406 05e6 7860     		str	r0, [r7, #4]
 1407 05e8 0B46     		mov	r3, r1
 1408 05ea FB70     		strb	r3, [r7, #3]
 750:common/i2c.c  ****   /* Check the parameters */
 751:common/i2c.c  ****   assert_param(IS_I2C_ALL_PERIPH(I2Cx));
 752:common/i2c.c  ****   assert_param(IS_FUNCTIONAL_STATE(NewState));
 753:common/i2c.c  ****   if (NewState != DISABLE)
 1409              		.loc 1 753 0
 1410 05ec FB78     		ldrb	r3, [r7, #3]	@ zero_extendqisi2
 1411 05ee 002B     		cmp	r3, #0
 1412 05f0 08D0     		beq	.L75
 754:common/i2c.c  ****   {
 755:common/i2c.c  ****     /* Enable the selected I2C PEC transmission */
 756:common/i2c.c  ****     I2Cx->CR1 |= CR1_PEC_Set;
 1413              		.loc 1 756 0
 1414 05f2 7B68     		ldr	r3, [r7, #4]
 1415 05f4 1B88     		ldrh	r3, [r3]	@ movhi
 1416 05f6 9BB2     		uxth	r3, r3
 1417 05f8 43F48053 		orr	r3, r3, #4096
 1418 05fc 9AB2     		uxth	r2, r3
 1419 05fe 7B68     		ldr	r3, [r7, #4]
 1420 0600 1A80     		strh	r2, [r3]	@ movhi
 757:common/i2c.c  ****   }
 758:common/i2c.c  ****   else
 759:common/i2c.c  ****   {
 760:common/i2c.c  ****     /* Disable the selected I2C PEC transmission */
 761:common/i2c.c  ****     I2Cx->CR1 &= CR1_PEC_Reset;
 762:common/i2c.c  ****   }
 763:common/i2c.c  **** }
 1421              		.loc 1 763 0
 1422 0602 07E0     		b	.L77
 1423              	.L75:
 761:common/i2c.c  ****   }
 1424              		.loc 1 761 0
 1425 0604 7B68     		ldr	r3, [r7, #4]
 1426 0606 1B88     		ldrh	r3, [r3]	@ movhi
 1427 0608 9BB2     		uxth	r3, r3
 1428 060a 23F48053 		bic	r3, r3, #4096
 1429 060e 9AB2     		uxth	r2, r3
 1430 0610 7B68     		ldr	r3, [r7, #4]
 1431 0612 1A80     		strh	r2, [r3]	@ movhi
 1432              	.L77:
 1433              		.loc 1 763 0
 1434 0614 00BF     		nop
 1435 0616 0C37     		adds	r7, r7, #12
 1436              		.cfi_def_cfa_offset 4
 1437 0618 BD46     		mov	sp, r7
 1438              		.cfi_def_cfa_register 13
 1439              		@ sp needed
 1440 061a 80BC     		pop	{r7}
 1441              		.cfi_restore 7
 1442              		.cfi_def_cfa_offset 0
 1443 061c 7047     		bx	lr
 1444              		.cfi_endproc
 1445              	.LFE83:
ARM GAS  /tmp/ccozkyvL.s 			page 40


 1446              		.size	I2C_TransmitPEC, .-I2C_TransmitPEC
 1447              		.align	1
 1448              		.global	I2C_PECPositionConfig
 1449              		.syntax unified
 1450              		.thumb
 1451              		.thumb_func
 1452              		.fpu softvfp
 1453              		.type	I2C_PECPositionConfig, %function
 1454              	I2C_PECPositionConfig:
 1455              	.LFB84:
 764:common/i2c.c  **** 
 765:common/i2c.c  **** /**
 766:common/i2c.c  ****   * @brief  Selects the specified I2C PEC position.
 767:common/i2c.c  ****   * @param  I2Cx: where x can be 1 or 2 to select the I2C peripheral.
 768:common/i2c.c  ****   * @param  I2C_PECPosition: specifies the PEC position. 
 769:common/i2c.c  ****   *   This parameter can be one of the following values:
 770:common/i2c.c  ****   *     @arg I2C_PECPosition_Next: indicates that the next byte is PEC
 771:common/i2c.c  ****   *     @arg I2C_PECPosition_Current: indicates that current byte is PEC
 772:common/i2c.c  ****   *       
 773:common/i2c.c  ****   * @note    This function configures the same bit (POS) as I2C_NACKPositionConfig()
 774:common/i2c.c  ****   *          but is intended to be used in SMBUS mode while I2C_NACKPositionConfig() 
 775:common/i2c.c  ****   *          is intended to used in I2C mode.
 776:common/i2c.c  ****   *               
 777:common/i2c.c  ****   * @retval None
 778:common/i2c.c  ****   */
 779:common/i2c.c  **** void I2C_PECPositionConfig(I2C_TypeDef* I2Cx, uint16_t I2C_PECPosition)
 780:common/i2c.c  **** {
 1456              		.loc 1 780 0
 1457              		.cfi_startproc
 1458              		@ args = 0, pretend = 0, frame = 8
 1459              		@ frame_needed = 1, uses_anonymous_args = 0
 1460              		@ link register save eliminated.
 1461 061e 80B4     		push	{r7}
 1462              		.cfi_def_cfa_offset 4
 1463              		.cfi_offset 7, -4
 1464 0620 83B0     		sub	sp, sp, #12
 1465              		.cfi_def_cfa_offset 16
 1466 0622 00AF     		add	r7, sp, #0
 1467              		.cfi_def_cfa_register 7
 1468 0624 7860     		str	r0, [r7, #4]
 1469 0626 0B46     		mov	r3, r1
 1470 0628 7B80     		strh	r3, [r7, #2]	@ movhi
 781:common/i2c.c  ****   /* Check the parameters */
 782:common/i2c.c  ****   assert_param(IS_I2C_ALL_PERIPH(I2Cx));
 783:common/i2c.c  ****   assert_param(IS_I2C_PEC_POSITION(I2C_PECPosition));
 784:common/i2c.c  ****   if (I2C_PECPosition == I2C_PECPosition_Next)
 1471              		.loc 1 784 0
 1472 062a 7B88     		ldrh	r3, [r7, #2]
 1473 062c B3F5006F 		cmp	r3, #2048
 1474 0630 08D1     		bne	.L79
 785:common/i2c.c  ****   {
 786:common/i2c.c  ****     /* Next byte in shift register is PEC */
 787:common/i2c.c  ****     I2Cx->CR1 |= I2C_PECPosition_Next;
 1475              		.loc 1 787 0
 1476 0632 7B68     		ldr	r3, [r7, #4]
 1477 0634 1B88     		ldrh	r3, [r3]	@ movhi
 1478 0636 9BB2     		uxth	r3, r3
ARM GAS  /tmp/ccozkyvL.s 			page 41


 1479 0638 43F40063 		orr	r3, r3, #2048
 1480 063c 9AB2     		uxth	r2, r3
 1481 063e 7B68     		ldr	r3, [r7, #4]
 1482 0640 1A80     		strh	r2, [r3]	@ movhi
 788:common/i2c.c  ****   }
 789:common/i2c.c  ****   else
 790:common/i2c.c  ****   {
 791:common/i2c.c  ****     /* Current byte in shift register is PEC */
 792:common/i2c.c  ****     I2Cx->CR1 &= I2C_PECPosition_Current;
 793:common/i2c.c  ****   }
 794:common/i2c.c  **** }
 1483              		.loc 1 794 0
 1484 0642 07E0     		b	.L81
 1485              	.L79:
 792:common/i2c.c  ****   }
 1486              		.loc 1 792 0
 1487 0644 7B68     		ldr	r3, [r7, #4]
 1488 0646 1B88     		ldrh	r3, [r3]	@ movhi
 1489 0648 9BB2     		uxth	r3, r3
 1490 064a 23F40063 		bic	r3, r3, #2048
 1491 064e 9AB2     		uxth	r2, r3
 1492 0650 7B68     		ldr	r3, [r7, #4]
 1493 0652 1A80     		strh	r2, [r3]	@ movhi
 1494              	.L81:
 1495              		.loc 1 794 0
 1496 0654 00BF     		nop
 1497 0656 0C37     		adds	r7, r7, #12
 1498              		.cfi_def_cfa_offset 4
 1499 0658 BD46     		mov	sp, r7
 1500              		.cfi_def_cfa_register 13
 1501              		@ sp needed
 1502 065a 80BC     		pop	{r7}
 1503              		.cfi_restore 7
 1504              		.cfi_def_cfa_offset 0
 1505 065c 7047     		bx	lr
 1506              		.cfi_endproc
 1507              	.LFE84:
 1508              		.size	I2C_PECPositionConfig, .-I2C_PECPositionConfig
 1509              		.align	1
 1510              		.global	I2C_CalculatePEC
 1511              		.syntax unified
 1512              		.thumb
 1513              		.thumb_func
 1514              		.fpu softvfp
 1515              		.type	I2C_CalculatePEC, %function
 1516              	I2C_CalculatePEC:
 1517              	.LFB85:
 795:common/i2c.c  **** 
 796:common/i2c.c  **** /**
 797:common/i2c.c  ****   * @brief  Enables or disables the PEC value calculation of the transferred bytes.
 798:common/i2c.c  ****   * @param  I2Cx: where x can be 1 or 2 to select the I2C peripheral.
 799:common/i2c.c  ****   * @param  NewState: new state of the I2Cx PEC value calculation.
 800:common/i2c.c  ****   *   This parameter can be: ENABLE or DISABLE.
 801:common/i2c.c  ****   * @retval None
 802:common/i2c.c  ****   */
 803:common/i2c.c  **** void I2C_CalculatePEC(I2C_TypeDef* I2Cx, FunctionalState NewState)
 804:common/i2c.c  **** {
ARM GAS  /tmp/ccozkyvL.s 			page 42


 1518              		.loc 1 804 0
 1519              		.cfi_startproc
 1520              		@ args = 0, pretend = 0, frame = 8
 1521              		@ frame_needed = 1, uses_anonymous_args = 0
 1522              		@ link register save eliminated.
 1523 065e 80B4     		push	{r7}
 1524              		.cfi_def_cfa_offset 4
 1525              		.cfi_offset 7, -4
 1526 0660 83B0     		sub	sp, sp, #12
 1527              		.cfi_def_cfa_offset 16
 1528 0662 00AF     		add	r7, sp, #0
 1529              		.cfi_def_cfa_register 7
 1530 0664 7860     		str	r0, [r7, #4]
 1531 0666 0B46     		mov	r3, r1
 1532 0668 FB70     		strb	r3, [r7, #3]
 805:common/i2c.c  ****   /* Check the parameters */
 806:common/i2c.c  ****   assert_param(IS_I2C_ALL_PERIPH(I2Cx));
 807:common/i2c.c  ****   assert_param(IS_FUNCTIONAL_STATE(NewState));
 808:common/i2c.c  ****   if (NewState != DISABLE)
 1533              		.loc 1 808 0
 1534 066a FB78     		ldrb	r3, [r7, #3]	@ zero_extendqisi2
 1535 066c 002B     		cmp	r3, #0
 1536 066e 08D0     		beq	.L83
 809:common/i2c.c  ****   {
 810:common/i2c.c  ****     /* Enable the selected I2C PEC calculation */
 811:common/i2c.c  ****     I2Cx->CR1 |= CR1_ENPEC_Set;
 1537              		.loc 1 811 0
 1538 0670 7B68     		ldr	r3, [r7, #4]
 1539 0672 1B88     		ldrh	r3, [r3]	@ movhi
 1540 0674 9BB2     		uxth	r3, r3
 1541 0676 43F02003 		orr	r3, r3, #32
 1542 067a 9AB2     		uxth	r2, r3
 1543 067c 7B68     		ldr	r3, [r7, #4]
 1544 067e 1A80     		strh	r2, [r3]	@ movhi
 812:common/i2c.c  ****   }
 813:common/i2c.c  ****   else
 814:common/i2c.c  ****   {
 815:common/i2c.c  ****     /* Disable the selected I2C PEC calculation */
 816:common/i2c.c  ****     I2Cx->CR1 &= CR1_ENPEC_Reset;
 817:common/i2c.c  ****   }
 818:common/i2c.c  **** }
 1545              		.loc 1 818 0
 1546 0680 07E0     		b	.L85
 1547              	.L83:
 816:common/i2c.c  ****   }
 1548              		.loc 1 816 0
 1549 0682 7B68     		ldr	r3, [r7, #4]
 1550 0684 1B88     		ldrh	r3, [r3]	@ movhi
 1551 0686 9BB2     		uxth	r3, r3
 1552 0688 23F02003 		bic	r3, r3, #32
 1553 068c 9AB2     		uxth	r2, r3
 1554 068e 7B68     		ldr	r3, [r7, #4]
 1555 0690 1A80     		strh	r2, [r3]	@ movhi
 1556              	.L85:
 1557              		.loc 1 818 0
 1558 0692 00BF     		nop
 1559 0694 0C37     		adds	r7, r7, #12
ARM GAS  /tmp/ccozkyvL.s 			page 43


 1560              		.cfi_def_cfa_offset 4
 1561 0696 BD46     		mov	sp, r7
 1562              		.cfi_def_cfa_register 13
 1563              		@ sp needed
 1564 0698 80BC     		pop	{r7}
 1565              		.cfi_restore 7
 1566              		.cfi_def_cfa_offset 0
 1567 069a 7047     		bx	lr
 1568              		.cfi_endproc
 1569              	.LFE85:
 1570              		.size	I2C_CalculatePEC, .-I2C_CalculatePEC
 1571              		.align	1
 1572              		.global	I2C_GetPEC
 1573              		.syntax unified
 1574              		.thumb
 1575              		.thumb_func
 1576              		.fpu softvfp
 1577              		.type	I2C_GetPEC, %function
 1578              	I2C_GetPEC:
 1579              	.LFB86:
 819:common/i2c.c  **** 
 820:common/i2c.c  **** /**
 821:common/i2c.c  ****   * @brief  Returns the PEC value for the specified I2C.
 822:common/i2c.c  ****   * @param  I2Cx: where x can be 1 or 2 to select the I2C peripheral.
 823:common/i2c.c  ****   * @retval The PEC value.
 824:common/i2c.c  ****   */
 825:common/i2c.c  **** uint8_t I2C_GetPEC(I2C_TypeDef* I2Cx)
 826:common/i2c.c  **** {
 1580              		.loc 1 826 0
 1581              		.cfi_startproc
 1582              		@ args = 0, pretend = 0, frame = 8
 1583              		@ frame_needed = 1, uses_anonymous_args = 0
 1584              		@ link register save eliminated.
 1585 069c 80B4     		push	{r7}
 1586              		.cfi_def_cfa_offset 4
 1587              		.cfi_offset 7, -4
 1588 069e 83B0     		sub	sp, sp, #12
 1589              		.cfi_def_cfa_offset 16
 1590 06a0 00AF     		add	r7, sp, #0
 1591              		.cfi_def_cfa_register 7
 1592 06a2 7860     		str	r0, [r7, #4]
 827:common/i2c.c  ****   /* Check the parameters */
 828:common/i2c.c  ****   assert_param(IS_I2C_ALL_PERIPH(I2Cx));
 829:common/i2c.c  ****   /* Return the selected I2C PEC value */
 830:common/i2c.c  ****   return ((I2Cx->SR2) >> 8);
 1593              		.loc 1 830 0
 1594 06a4 7B68     		ldr	r3, [r7, #4]
 1595 06a6 1B8B     		ldrh	r3, [r3, #24]	@ movhi
 1596 06a8 9BB2     		uxth	r3, r3
 1597 06aa 1B0A     		lsrs	r3, r3, #8
 1598 06ac 9BB2     		uxth	r3, r3
 1599 06ae DBB2     		uxtb	r3, r3
 831:common/i2c.c  **** }
 1600              		.loc 1 831 0
 1601 06b0 1846     		mov	r0, r3
 1602 06b2 0C37     		adds	r7, r7, #12
 1603              		.cfi_def_cfa_offset 4
ARM GAS  /tmp/ccozkyvL.s 			page 44


 1604 06b4 BD46     		mov	sp, r7
 1605              		.cfi_def_cfa_register 13
 1606              		@ sp needed
 1607 06b6 80BC     		pop	{r7}
 1608              		.cfi_restore 7
 1609              		.cfi_def_cfa_offset 0
 1610 06b8 7047     		bx	lr
 1611              		.cfi_endproc
 1612              	.LFE86:
 1613              		.size	I2C_GetPEC, .-I2C_GetPEC
 1614              		.align	1
 1615              		.global	I2C_ARPCmd
 1616              		.syntax unified
 1617              		.thumb
 1618              		.thumb_func
 1619              		.fpu softvfp
 1620              		.type	I2C_ARPCmd, %function
 1621              	I2C_ARPCmd:
 1622              	.LFB87:
 832:common/i2c.c  **** 
 833:common/i2c.c  **** /**
 834:common/i2c.c  ****   * @brief  Enables or disables the specified I2C ARP.
 835:common/i2c.c  ****   * @param  I2Cx: where x can be 1 or 2 to select the I2C peripheral.
 836:common/i2c.c  ****   * @param  NewState: new state of the I2Cx ARP. 
 837:common/i2c.c  ****   *   This parameter can be: ENABLE or DISABLE.
 838:common/i2c.c  ****   * @retval None
 839:common/i2c.c  ****   */
 840:common/i2c.c  **** void I2C_ARPCmd(I2C_TypeDef* I2Cx, FunctionalState NewState)
 841:common/i2c.c  **** {
 1623              		.loc 1 841 0
 1624              		.cfi_startproc
 1625              		@ args = 0, pretend = 0, frame = 8
 1626              		@ frame_needed = 1, uses_anonymous_args = 0
 1627              		@ link register save eliminated.
 1628 06ba 80B4     		push	{r7}
 1629              		.cfi_def_cfa_offset 4
 1630              		.cfi_offset 7, -4
 1631 06bc 83B0     		sub	sp, sp, #12
 1632              		.cfi_def_cfa_offset 16
 1633 06be 00AF     		add	r7, sp, #0
 1634              		.cfi_def_cfa_register 7
 1635 06c0 7860     		str	r0, [r7, #4]
 1636 06c2 0B46     		mov	r3, r1
 1637 06c4 FB70     		strb	r3, [r7, #3]
 842:common/i2c.c  ****   /* Check the parameters */
 843:common/i2c.c  ****   assert_param(IS_I2C_ALL_PERIPH(I2Cx));
 844:common/i2c.c  ****   assert_param(IS_FUNCTIONAL_STATE(NewState));
 845:common/i2c.c  ****   if (NewState != DISABLE)
 1638              		.loc 1 845 0
 1639 06c6 FB78     		ldrb	r3, [r7, #3]	@ zero_extendqisi2
 1640 06c8 002B     		cmp	r3, #0
 1641 06ca 08D0     		beq	.L89
 846:common/i2c.c  ****   {
 847:common/i2c.c  ****     /* Enable the selected I2C ARP */
 848:common/i2c.c  ****     I2Cx->CR1 |= CR1_ENARP_Set;
 1642              		.loc 1 848 0
 1643 06cc 7B68     		ldr	r3, [r7, #4]
ARM GAS  /tmp/ccozkyvL.s 			page 45


 1644 06ce 1B88     		ldrh	r3, [r3]	@ movhi
 1645 06d0 9BB2     		uxth	r3, r3
 1646 06d2 43F01003 		orr	r3, r3, #16
 1647 06d6 9AB2     		uxth	r2, r3
 1648 06d8 7B68     		ldr	r3, [r7, #4]
 1649 06da 1A80     		strh	r2, [r3]	@ movhi
 849:common/i2c.c  ****   }
 850:common/i2c.c  ****   else
 851:common/i2c.c  ****   {
 852:common/i2c.c  ****     /* Disable the selected I2C ARP */
 853:common/i2c.c  ****     I2Cx->CR1 &= CR1_ENARP_Reset;
 854:common/i2c.c  ****   }
 855:common/i2c.c  **** }
 1650              		.loc 1 855 0
 1651 06dc 07E0     		b	.L91
 1652              	.L89:
 853:common/i2c.c  ****   }
 1653              		.loc 1 853 0
 1654 06de 7B68     		ldr	r3, [r7, #4]
 1655 06e0 1B88     		ldrh	r3, [r3]	@ movhi
 1656 06e2 9BB2     		uxth	r3, r3
 1657 06e4 23F01003 		bic	r3, r3, #16
 1658 06e8 9AB2     		uxth	r2, r3
 1659 06ea 7B68     		ldr	r3, [r7, #4]
 1660 06ec 1A80     		strh	r2, [r3]	@ movhi
 1661              	.L91:
 1662              		.loc 1 855 0
 1663 06ee 00BF     		nop
 1664 06f0 0C37     		adds	r7, r7, #12
 1665              		.cfi_def_cfa_offset 4
 1666 06f2 BD46     		mov	sp, r7
 1667              		.cfi_def_cfa_register 13
 1668              		@ sp needed
 1669 06f4 80BC     		pop	{r7}
 1670              		.cfi_restore 7
 1671              		.cfi_def_cfa_offset 0
 1672 06f6 7047     		bx	lr
 1673              		.cfi_endproc
 1674              	.LFE87:
 1675              		.size	I2C_ARPCmd, .-I2C_ARPCmd
 1676              		.align	1
 1677              		.global	I2C_StretchClockCmd
 1678              		.syntax unified
 1679              		.thumb
 1680              		.thumb_func
 1681              		.fpu softvfp
 1682              		.type	I2C_StretchClockCmd, %function
 1683              	I2C_StretchClockCmd:
 1684              	.LFB88:
 856:common/i2c.c  **** 
 857:common/i2c.c  **** /**
 858:common/i2c.c  ****   * @brief  Enables or disables the specified I2C Clock stretching.
 859:common/i2c.c  ****   * @param  I2Cx: where x can be 1 or 2 to select the I2C peripheral.
 860:common/i2c.c  ****   * @param  NewState: new state of the I2Cx Clock stretching.
 861:common/i2c.c  ****   *   This parameter can be: ENABLE or DISABLE.
 862:common/i2c.c  ****   * @retval None
 863:common/i2c.c  ****   */
ARM GAS  /tmp/ccozkyvL.s 			page 46


 864:common/i2c.c  **** void I2C_StretchClockCmd(I2C_TypeDef* I2Cx, FunctionalState NewState)
 865:common/i2c.c  **** {
 1685              		.loc 1 865 0
 1686              		.cfi_startproc
 1687              		@ args = 0, pretend = 0, frame = 8
 1688              		@ frame_needed = 1, uses_anonymous_args = 0
 1689              		@ link register save eliminated.
 1690 06f8 80B4     		push	{r7}
 1691              		.cfi_def_cfa_offset 4
 1692              		.cfi_offset 7, -4
 1693 06fa 83B0     		sub	sp, sp, #12
 1694              		.cfi_def_cfa_offset 16
 1695 06fc 00AF     		add	r7, sp, #0
 1696              		.cfi_def_cfa_register 7
 1697 06fe 7860     		str	r0, [r7, #4]
 1698 0700 0B46     		mov	r3, r1
 1699 0702 FB70     		strb	r3, [r7, #3]
 866:common/i2c.c  ****   /* Check the parameters */
 867:common/i2c.c  ****   assert_param(IS_I2C_ALL_PERIPH(I2Cx));
 868:common/i2c.c  ****   assert_param(IS_FUNCTIONAL_STATE(NewState));
 869:common/i2c.c  ****   if (NewState == DISABLE)
 1700              		.loc 1 869 0
 1701 0704 FB78     		ldrb	r3, [r7, #3]	@ zero_extendqisi2
 1702 0706 002B     		cmp	r3, #0
 1703 0708 08D1     		bne	.L93
 870:common/i2c.c  ****   {
 871:common/i2c.c  ****     /* Enable the selected I2C Clock stretching */
 872:common/i2c.c  ****     I2Cx->CR1 |= CR1_NOSTRETCH_Set;
 1704              		.loc 1 872 0
 1705 070a 7B68     		ldr	r3, [r7, #4]
 1706 070c 1B88     		ldrh	r3, [r3]	@ movhi
 1707 070e 9BB2     		uxth	r3, r3
 1708 0710 43F08003 		orr	r3, r3, #128
 1709 0714 9AB2     		uxth	r2, r3
 1710 0716 7B68     		ldr	r3, [r7, #4]
 1711 0718 1A80     		strh	r2, [r3]	@ movhi
 873:common/i2c.c  ****   }
 874:common/i2c.c  ****   else
 875:common/i2c.c  ****   {
 876:common/i2c.c  ****     /* Disable the selected I2C Clock stretching */
 877:common/i2c.c  ****     I2Cx->CR1 &= CR1_NOSTRETCH_Reset;
 878:common/i2c.c  ****   }
 879:common/i2c.c  **** }
 1712              		.loc 1 879 0
 1713 071a 07E0     		b	.L95
 1714              	.L93:
 877:common/i2c.c  ****   }
 1715              		.loc 1 877 0
 1716 071c 7B68     		ldr	r3, [r7, #4]
 1717 071e 1B88     		ldrh	r3, [r3]	@ movhi
 1718 0720 9BB2     		uxth	r3, r3
 1719 0722 23F08003 		bic	r3, r3, #128
 1720 0726 9AB2     		uxth	r2, r3
 1721 0728 7B68     		ldr	r3, [r7, #4]
 1722 072a 1A80     		strh	r2, [r3]	@ movhi
 1723              	.L95:
 1724              		.loc 1 879 0
ARM GAS  /tmp/ccozkyvL.s 			page 47


 1725 072c 00BF     		nop
 1726 072e 0C37     		adds	r7, r7, #12
 1727              		.cfi_def_cfa_offset 4
 1728 0730 BD46     		mov	sp, r7
 1729              		.cfi_def_cfa_register 13
 1730              		@ sp needed
 1731 0732 80BC     		pop	{r7}
 1732              		.cfi_restore 7
 1733              		.cfi_def_cfa_offset 0
 1734 0734 7047     		bx	lr
 1735              		.cfi_endproc
 1736              	.LFE88:
 1737              		.size	I2C_StretchClockCmd, .-I2C_StretchClockCmd
 1738              		.align	1
 1739              		.global	I2C_FastModeDutyCycleConfig
 1740              		.syntax unified
 1741              		.thumb
 1742              		.thumb_func
 1743              		.fpu softvfp
 1744              		.type	I2C_FastModeDutyCycleConfig, %function
 1745              	I2C_FastModeDutyCycleConfig:
 1746              	.LFB89:
 880:common/i2c.c  **** 
 881:common/i2c.c  **** /**
 882:common/i2c.c  ****   * @brief  Selects the specified I2C fast mode duty cycle.
 883:common/i2c.c  ****   * @param  I2Cx: where x can be 1 or 2 to select the I2C peripheral.
 884:common/i2c.c  ****   * @param  I2C_DutyCycle: specifies the fast mode duty cycle.
 885:common/i2c.c  ****   *   This parameter can be one of the following values:
 886:common/i2c.c  ****   *     @arg I2C_DutyCycle_2: I2C fast mode Tlow/Thigh = 2
 887:common/i2c.c  ****   *     @arg I2C_DutyCycle_16_9: I2C fast mode Tlow/Thigh = 16/9
 888:common/i2c.c  ****   * @retval None
 889:common/i2c.c  ****   */
 890:common/i2c.c  **** void I2C_FastModeDutyCycleConfig(I2C_TypeDef* I2Cx, uint16_t I2C_DutyCycle)
 891:common/i2c.c  **** {
 1747              		.loc 1 891 0
 1748              		.cfi_startproc
 1749              		@ args = 0, pretend = 0, frame = 8
 1750              		@ frame_needed = 1, uses_anonymous_args = 0
 1751              		@ link register save eliminated.
 1752 0736 80B4     		push	{r7}
 1753              		.cfi_def_cfa_offset 4
 1754              		.cfi_offset 7, -4
 1755 0738 83B0     		sub	sp, sp, #12
 1756              		.cfi_def_cfa_offset 16
 1757 073a 00AF     		add	r7, sp, #0
 1758              		.cfi_def_cfa_register 7
 1759 073c 7860     		str	r0, [r7, #4]
 1760 073e 0B46     		mov	r3, r1
 1761 0740 7B80     		strh	r3, [r7, #2]	@ movhi
 892:common/i2c.c  ****   /* Check the parameters */
 893:common/i2c.c  ****   assert_param(IS_I2C_ALL_PERIPH(I2Cx));
 894:common/i2c.c  ****   assert_param(IS_I2C_DUTY_CYCLE(I2C_DutyCycle));
 895:common/i2c.c  ****   if (I2C_DutyCycle != I2C_DutyCycle_16_9)
 1762              		.loc 1 895 0
 1763 0742 7B88     		ldrh	r3, [r7, #2]
 1764 0744 B3F5804F 		cmp	r3, #16384
 1765 0748 08D0     		beq	.L97
ARM GAS  /tmp/ccozkyvL.s 			page 48


 896:common/i2c.c  ****   {
 897:common/i2c.c  ****     /* I2C fast mode Tlow/Thigh=2 */
 898:common/i2c.c  ****     I2Cx->CCR &= I2C_DutyCycle_2;
 1766              		.loc 1 898 0
 1767 074a 7B68     		ldr	r3, [r7, #4]
 1768 074c 9B8B     		ldrh	r3, [r3, #28]	@ movhi
 1769 074e 9BB2     		uxth	r3, r3
 1770 0750 23F48043 		bic	r3, r3, #16384
 1771 0754 9AB2     		uxth	r2, r3
 1772 0756 7B68     		ldr	r3, [r7, #4]
 1773 0758 9A83     		strh	r2, [r3, #28]	@ movhi
 899:common/i2c.c  ****   }
 900:common/i2c.c  ****   else
 901:common/i2c.c  ****   {
 902:common/i2c.c  ****     /* I2C fast mode Tlow/Thigh=16/9 */
 903:common/i2c.c  ****     I2Cx->CCR |= I2C_DutyCycle_16_9;
 904:common/i2c.c  ****   }
 905:common/i2c.c  **** }
 1774              		.loc 1 905 0
 1775 075a 07E0     		b	.L99
 1776              	.L97:
 903:common/i2c.c  ****   }
 1777              		.loc 1 903 0
 1778 075c 7B68     		ldr	r3, [r7, #4]
 1779 075e 9B8B     		ldrh	r3, [r3, #28]	@ movhi
 1780 0760 9BB2     		uxth	r3, r3
 1781 0762 43F48043 		orr	r3, r3, #16384
 1782 0766 9AB2     		uxth	r2, r3
 1783 0768 7B68     		ldr	r3, [r7, #4]
 1784 076a 9A83     		strh	r2, [r3, #28]	@ movhi
 1785              	.L99:
 1786              		.loc 1 905 0
 1787 076c 00BF     		nop
 1788 076e 0C37     		adds	r7, r7, #12
 1789              		.cfi_def_cfa_offset 4
 1790 0770 BD46     		mov	sp, r7
 1791              		.cfi_def_cfa_register 13
 1792              		@ sp needed
 1793 0772 80BC     		pop	{r7}
 1794              		.cfi_restore 7
 1795              		.cfi_def_cfa_offset 0
 1796 0774 7047     		bx	lr
 1797              		.cfi_endproc
 1798              	.LFE89:
 1799              		.size	I2C_FastModeDutyCycleConfig, .-I2C_FastModeDutyCycleConfig
 1800              		.align	1
 1801              		.global	I2C_CheckEvent
 1802              		.syntax unified
 1803              		.thumb
 1804              		.thumb_func
 1805              		.fpu softvfp
 1806              		.type	I2C_CheckEvent, %function
 1807              	I2C_CheckEvent:
 1808              	.LFB90:
 906:common/i2c.c  **** 
 907:common/i2c.c  **** 
 908:common/i2c.c  **** 
ARM GAS  /tmp/ccozkyvL.s 			page 49


 909:common/i2c.c  **** /**
 910:common/i2c.c  ****  * @brief
 911:common/i2c.c  ****  ****************************************************************************************
 912:common/i2c.c  ****  *
 913:common/i2c.c  ****  *                         I2C State Monitoring Functions
 914:common/i2c.c  ****  *                       
 915:common/i2c.c  ****  ****************************************************************************************   
 916:common/i2c.c  ****  * This I2C driver provides three different ways for I2C state monitoring
 917:common/i2c.c  ****  *  depending on the application requirements and constraints:
 918:common/i2c.c  ****  *        
 919:common/i2c.c  ****  *  
 920:common/i2c.c  ****  * 1) Basic state monitoring:
 921:common/i2c.c  ****  *    Using I2C_CheckEvent() function:
 922:common/i2c.c  ****  *    It compares the status registers (SR1 and SR2) content to a given event
 923:common/i2c.c  ****  *    (can be the combination of one or more flags).
 924:common/i2c.c  ****  *    It returns SUCCESS if the current status includes the given flags 
 925:common/i2c.c  ****  *    and returns ERROR if one or more flags are missing in the current status.
 926:common/i2c.c  ****  *    - When to use:
 927:common/i2c.c  ****  *      - This function is suitable for most applications as well as for startup 
 928:common/i2c.c  ****  *      activity since the events are fully described in the product reference manual 
 929:common/i2c.c  ****  *      (RM0008).
 930:common/i2c.c  ****  *      - It is also suitable for users who need to define their own events.
 931:common/i2c.c  ****  *    - Limitations:
 932:common/i2c.c  ****  *      - If an error occurs (ie. error flags are set besides to the monitored flags),
 933:common/i2c.c  ****  *        the I2C_CheckEvent() function may return SUCCESS despite the communication
 934:common/i2c.c  ****  *        hold or corrupted real state. 
 935:common/i2c.c  ****  *        In this case, it is advised to use error interrupts to monitor the error
 936:common/i2c.c  ****  *        events and handle them in the interrupt IRQ handler.
 937:common/i2c.c  ****  *        
 938:common/i2c.c  ****  *        @note 
 939:common/i2c.c  ****  *        For error management, it is advised to use the following functions:
 940:common/i2c.c  ****  *          - I2C_ITConfig() to configure and enable the error interrupts (I2C_IT_ERR).
 941:common/i2c.c  ****  *          - I2Cx_ER_IRQHandler() which is called when the error interrupt occurs.
 942:common/i2c.c  ****  *            Where x is the peripheral instance (I2C1, I2C2 ...)
 943:common/i2c.c  ****  *          - I2C_GetFlagStatus() or I2C_GetITStatus() to be called into I2Cx_ER_IRQHandler() 
 944:common/i2c.c  ****  *            in order to determine which error occured.
 945:common/i2c.c  ****  *          - I2C_ClearFlag() or I2C_ClearITPendingBit() and/or I2C_SoftwareResetCmd()
 946:common/i2c.c  ****  *            and/or I2C_GenerateStop() in order to clear the error flag and source,
 947:common/i2c.c  ****  *            and return to correct communication status.
 948:common/i2c.c  ****  *            
 949:common/i2c.c  ****  *
 950:common/i2c.c  ****  *  2) Advanced state monitoring:
 951:common/i2c.c  ****  *     Using the function I2C_GetLastEvent() which returns the image of both status 
 952:common/i2c.c  ****  *     registers in a single word (uint32_t) (Status Register 2 value is shifted left 
 953:common/i2c.c  ****  *     by 16 bits and concatenated to Status Register 1).
 954:common/i2c.c  ****  *     - When to use:
 955:common/i2c.c  ****  *       - This function is suitable for the same applications above but it allows to
 956:common/i2c.c  ****  *         overcome the mentioned limitation of I2C_GetFlagStatus() function.
 957:common/i2c.c  ****  *         The returned value could be compared to events already defined in the 
 958:common/i2c.c  ****  *         library (stm32f10x_i2c.h) or to custom values defined by user.
 959:common/i2c.c  ****  *       - This function is suitable when multiple flags are monitored at the same time.
 960:common/i2c.c  ****  *       - At the opposite of I2C_CheckEvent() function, this function allows user to
 961:common/i2c.c  ****  *         choose when an event is accepted (when all events flags are set and no 
 962:common/i2c.c  ****  *         other flags are set or just when the needed flags are set like 
 963:common/i2c.c  ****  *         I2C_CheckEvent() function).
 964:common/i2c.c  ****  *     - Limitations:
 965:common/i2c.c  ****  *       - User may need to define his own events.
ARM GAS  /tmp/ccozkyvL.s 			page 50


 966:common/i2c.c  ****  *       - Same remark concerning the error management is applicable for this 
 967:common/i2c.c  ****  *         function if user decides to check only regular communication flags (and 
 968:common/i2c.c  ****  *         ignores error flags).
 969:common/i2c.c  ****  *     
 970:common/i2c.c  ****  *
 971:common/i2c.c  ****  *  3) Flag-based state monitoring:
 972:common/i2c.c  ****  *     Using the function I2C_GetFlagStatus() which simply returns the status of 
 973:common/i2c.c  ****  *     one single flag (ie. I2C_FLAG_RXNE ...). 
 974:common/i2c.c  ****  *     - When to use:
 975:common/i2c.c  ****  *        - This function could be used for specific applications or in debug phase.
 976:common/i2c.c  ****  *        - It is suitable when only one flag checking is needed (most I2C events 
 977:common/i2c.c  ****  *          are monitored through multiple flags).
 978:common/i2c.c  ****  *     - Limitations: 
 979:common/i2c.c  ****  *        - When calling this function, the Status register is accessed. Some flags are
 980:common/i2c.c  ****  *          cleared when the status register is accessed. So checking the status
 981:common/i2c.c  ****  *          of one Flag, may clear other ones.
 982:common/i2c.c  ****  *        - Function may need to be called twice or more in order to monitor one 
 983:common/i2c.c  ****  *          single event.
 984:common/i2c.c  ****  *
 985:common/i2c.c  ****  *  For detailed description of Events, please refer to section I2C_Events in 
 986:common/i2c.c  ****  *  stm32f10x_i2c.h file.
 987:common/i2c.c  ****  *  
 988:common/i2c.c  ****  */
 989:common/i2c.c  **** 
 990:common/i2c.c  **** /**
 991:common/i2c.c  ****  * 
 992:common/i2c.c  ****  *  1) Basic state monitoring
 993:common/i2c.c  ****  *******************************************************************************
 994:common/i2c.c  ****  */
 995:common/i2c.c  **** 
 996:common/i2c.c  **** /**
 997:common/i2c.c  ****   * @brief  Checks whether the last I2Cx Event is equal to the one passed
 998:common/i2c.c  ****   *   as parameter.
 999:common/i2c.c  ****   * @param  I2Cx: where x can be 1 or 2 to select the I2C peripheral.
1000:common/i2c.c  ****   * @param  I2C_EVENT: specifies the event to be checked. 
1001:common/i2c.c  ****   *   This parameter can be one of the following values:
1002:common/i2c.c  ****   *     @arg I2C_EVENT_SLAVE_TRANSMITTER_ADDRESS_MATCHED           : EV1
1003:common/i2c.c  ****   *     @arg I2C_EVENT_SLAVE_RECEIVER_ADDRESS_MATCHED              : EV1
1004:common/i2c.c  ****   *     @arg I2C_EVENT_SLAVE_TRANSMITTER_SECONDADDRESS_MATCHED     : EV1
1005:common/i2c.c  ****   *     @arg I2C_EVENT_SLAVE_RECEIVER_SECONDADDRESS_MATCHED        : EV1
1006:common/i2c.c  ****   *     @arg I2C_EVENT_SLAVE_GENERALCALLADDRESS_MATCHED            : EV1
1007:common/i2c.c  ****   *     @arg I2C_EVENT_SLAVE_BYTE_RECEIVED                         : EV2
1008:common/i2c.c  ****   *     @arg (I2C_EVENT_SLAVE_BYTE_RECEIVED | I2C_FLAG_DUALF)      : EV2
1009:common/i2c.c  ****   *     @arg (I2C_EVENT_SLAVE_BYTE_RECEIVED | I2C_FLAG_GENCALL)    : EV2
1010:common/i2c.c  ****   *     @arg I2C_EVENT_SLAVE_BYTE_TRANSMITTED                      : EV3
1011:common/i2c.c  ****   *     @arg (I2C_EVENT_SLAVE_BYTE_TRANSMITTED | I2C_FLAG_DUALF)   : EV3
1012:common/i2c.c  ****   *     @arg (I2C_EVENT_SLAVE_BYTE_TRANSMITTED | I2C_FLAG_GENCALL) : EV3
1013:common/i2c.c  ****   *     @arg I2C_EVENT_SLAVE_ACK_FAILURE                           : EV3_2
1014:common/i2c.c  ****   *     @arg I2C_EVENT_SLAVE_STOP_DETECTED                         : EV4
1015:common/i2c.c  ****   *     @arg I2C_EVENT_MASTER_MODE_SELECT                          : EV5
1016:common/i2c.c  ****   *     @arg I2C_EVENT_MASTER_TRANSMITTER_MODE_SELECTED            : EV6     
1017:common/i2c.c  ****   *     @arg I2C_EVENT_MASTER_RECEIVER_MODE_SELECTED               : EV6
1018:common/i2c.c  ****   *     @arg I2C_EVENT_MASTER_BYTE_RECEIVED                        : EV7
1019:common/i2c.c  ****   *     @arg I2C_EVENT_MASTER_BYTE_TRANSMITTING                    : EV8
1020:common/i2c.c  ****   *     @arg I2C_EVENT_MASTER_BYTE_TRANSMITTED                     : EV8_2
1021:common/i2c.c  ****   *     @arg I2C_EVENT_MASTER_MODE_ADDRESS10                       : EV9
1022:common/i2c.c  ****   *     
ARM GAS  /tmp/ccozkyvL.s 			page 51


1023:common/i2c.c  ****   * @note: For detailed description of Events, please refer to section 
1024:common/i2c.c  ****   *    I2C_Events in stm32f10x_i2c.h file.
1025:common/i2c.c  ****   *    
1026:common/i2c.c  ****   * @retval An ErrorStatus enumeration value:
1027:common/i2c.c  ****   * - SUCCESS: Last event is equal to the I2C_EVENT
1028:common/i2c.c  ****   * - ERROR: Last event is different from the I2C_EVENT
1029:common/i2c.c  ****   */
1030:common/i2c.c  **** ErrorStatus I2C_CheckEvent(I2C_TypeDef* I2Cx, uint32_t I2C_EVENT)
1031:common/i2c.c  **** {
 1809              		.loc 1 1031 0
 1810              		.cfi_startproc
 1811              		@ args = 0, pretend = 0, frame = 24
 1812              		@ frame_needed = 1, uses_anonymous_args = 0
 1813              		@ link register save eliminated.
 1814 0776 80B4     		push	{r7}
 1815              		.cfi_def_cfa_offset 4
 1816              		.cfi_offset 7, -4
 1817 0778 87B0     		sub	sp, sp, #28
 1818              		.cfi_def_cfa_offset 32
 1819 077a 00AF     		add	r7, sp, #0
 1820              		.cfi_def_cfa_register 7
 1821 077c 7860     		str	r0, [r7, #4]
 1822 077e 3960     		str	r1, [r7]
1032:common/i2c.c  ****   uint32_t lastevent = 0;
 1823              		.loc 1 1032 0
 1824 0780 0023     		movs	r3, #0
 1825 0782 3B61     		str	r3, [r7, #16]
1033:common/i2c.c  ****   uint32_t flag1 = 0, flag2 = 0;
 1826              		.loc 1 1033 0
 1827 0784 0023     		movs	r3, #0
 1828 0786 FB60     		str	r3, [r7, #12]
 1829 0788 0023     		movs	r3, #0
 1830 078a BB60     		str	r3, [r7, #8]
1034:common/i2c.c  ****   ErrorStatus status = ERROR;
 1831              		.loc 1 1034 0
 1832 078c 0023     		movs	r3, #0
 1833 078e FB75     		strb	r3, [r7, #23]
1035:common/i2c.c  **** 
1036:common/i2c.c  ****   /* Check the parameters */
1037:common/i2c.c  ****   assert_param(IS_I2C_ALL_PERIPH(I2Cx));
1038:common/i2c.c  ****   assert_param(IS_I2C_EVENT(I2C_EVENT));
1039:common/i2c.c  **** 
1040:common/i2c.c  ****   /* Read the I2Cx status register */
1041:common/i2c.c  ****   flag1 = I2Cx->SR1;
 1834              		.loc 1 1041 0
 1835 0790 7B68     		ldr	r3, [r7, #4]
 1836 0792 9B8A     		ldrh	r3, [r3, #20]	@ movhi
 1837 0794 9BB2     		uxth	r3, r3
 1838 0796 FB60     		str	r3, [r7, #12]
1042:common/i2c.c  ****   flag2 = I2Cx->SR2;
 1839              		.loc 1 1042 0
 1840 0798 7B68     		ldr	r3, [r7, #4]
 1841 079a 1B8B     		ldrh	r3, [r3, #24]	@ movhi
 1842 079c 9BB2     		uxth	r3, r3
 1843 079e BB60     		str	r3, [r7, #8]
1043:common/i2c.c  ****   flag2 = flag2 << 16;
 1844              		.loc 1 1043 0
ARM GAS  /tmp/ccozkyvL.s 			page 52


 1845 07a0 BB68     		ldr	r3, [r7, #8]
 1846 07a2 1B04     		lsls	r3, r3, #16
 1847 07a4 BB60     		str	r3, [r7, #8]
1044:common/i2c.c  **** 
1045:common/i2c.c  ****   /* Get the last event value from I2C status register */
1046:common/i2c.c  ****   lastevent = (flag1 | flag2) & FLAG_Mask;
 1848              		.loc 1 1046 0
 1849 07a6 FA68     		ldr	r2, [r7, #12]
 1850 07a8 BB68     		ldr	r3, [r7, #8]
 1851 07aa 1343     		orrs	r3, r3, r2
 1852 07ac 23F07F43 		bic	r3, r3, #-16777216
 1853 07b0 3B61     		str	r3, [r7, #16]
1047:common/i2c.c  **** 
1048:common/i2c.c  ****   /* Check whether the last event contains the I2C_EVENT */
1049:common/i2c.c  ****   if ((lastevent & I2C_EVENT) == I2C_EVENT)
 1854              		.loc 1 1049 0
 1855 07b2 3A69     		ldr	r2, [r7, #16]
 1856 07b4 3B68     		ldr	r3, [r7]
 1857 07b6 1A40     		ands	r2, r2, r3
 1858 07b8 3B68     		ldr	r3, [r7]
 1859 07ba 9A42     		cmp	r2, r3
 1860 07bc 02D1     		bne	.L101
1050:common/i2c.c  ****   {
1051:common/i2c.c  ****     /* SUCCESS: last event is equal to I2C_EVENT */
1052:common/i2c.c  ****     status = SUCCESS;
 1861              		.loc 1 1052 0
 1862 07be 0123     		movs	r3, #1
 1863 07c0 FB75     		strb	r3, [r7, #23]
 1864 07c2 01E0     		b	.L102
 1865              	.L101:
1053:common/i2c.c  ****   }
1054:common/i2c.c  ****   else
1055:common/i2c.c  ****   {
1056:common/i2c.c  ****     /* ERROR: last event is different from I2C_EVENT */
1057:common/i2c.c  ****     status = ERROR;
 1866              		.loc 1 1057 0
 1867 07c4 0023     		movs	r3, #0
 1868 07c6 FB75     		strb	r3, [r7, #23]
 1869              	.L102:
1058:common/i2c.c  ****   }
1059:common/i2c.c  ****   /* Return status */
1060:common/i2c.c  ****   return status;
 1870              		.loc 1 1060 0
 1871 07c8 FB7D     		ldrb	r3, [r7, #23]	@ zero_extendqisi2
1061:common/i2c.c  **** }
 1872              		.loc 1 1061 0
 1873 07ca 1846     		mov	r0, r3
 1874 07cc 1C37     		adds	r7, r7, #28
 1875              		.cfi_def_cfa_offset 4
 1876 07ce BD46     		mov	sp, r7
 1877              		.cfi_def_cfa_register 13
 1878              		@ sp needed
 1879 07d0 80BC     		pop	{r7}
 1880              		.cfi_restore 7
 1881              		.cfi_def_cfa_offset 0
 1882 07d2 7047     		bx	lr
 1883              		.cfi_endproc
ARM GAS  /tmp/ccozkyvL.s 			page 53


 1884              	.LFE90:
 1885              		.size	I2C_CheckEvent, .-I2C_CheckEvent
 1886              		.align	1
 1887              		.global	I2C_GetLastEvent
 1888              		.syntax unified
 1889              		.thumb
 1890              		.thumb_func
 1891              		.fpu softvfp
 1892              		.type	I2C_GetLastEvent, %function
 1893              	I2C_GetLastEvent:
 1894              	.LFB91:
1062:common/i2c.c  **** 
1063:common/i2c.c  **** /**
1064:common/i2c.c  ****  * 
1065:common/i2c.c  ****  *  2) Advanced state monitoring
1066:common/i2c.c  ****  *******************************************************************************
1067:common/i2c.c  ****  */
1068:common/i2c.c  **** 
1069:common/i2c.c  **** /**
1070:common/i2c.c  ****   * @brief  Returns the last I2Cx Event.
1071:common/i2c.c  ****   * @param  I2Cx: where x can be 1 or 2 to select the I2C peripheral.
1072:common/i2c.c  ****   *     
1073:common/i2c.c  ****   * @note: For detailed description of Events, please refer to section 
1074:common/i2c.c  ****   *    I2C_Events in stm32f10x_i2c.h file.
1075:common/i2c.c  ****   *    
1076:common/i2c.c  ****   * @retval The last event
1077:common/i2c.c  ****   */
1078:common/i2c.c  **** uint32_t I2C_GetLastEvent(I2C_TypeDef* I2Cx)
1079:common/i2c.c  **** {
 1895              		.loc 1 1079 0
 1896              		.cfi_startproc
 1897              		@ args = 0, pretend = 0, frame = 24
 1898              		@ frame_needed = 1, uses_anonymous_args = 0
 1899              		@ link register save eliminated.
 1900 07d4 80B4     		push	{r7}
 1901              		.cfi_def_cfa_offset 4
 1902              		.cfi_offset 7, -4
 1903 07d6 87B0     		sub	sp, sp, #28
 1904              		.cfi_def_cfa_offset 32
 1905 07d8 00AF     		add	r7, sp, #0
 1906              		.cfi_def_cfa_register 7
 1907 07da 7860     		str	r0, [r7, #4]
1080:common/i2c.c  ****   uint32_t lastevent = 0;
 1908              		.loc 1 1080 0
 1909 07dc 0023     		movs	r3, #0
 1910 07de 7B61     		str	r3, [r7, #20]
1081:common/i2c.c  ****   uint32_t flag1 = 0, flag2 = 0;
 1911              		.loc 1 1081 0
 1912 07e0 0023     		movs	r3, #0
 1913 07e2 3B61     		str	r3, [r7, #16]
 1914 07e4 0023     		movs	r3, #0
 1915 07e6 FB60     		str	r3, [r7, #12]
1082:common/i2c.c  **** 
1083:common/i2c.c  ****   /* Check the parameters */
1084:common/i2c.c  ****   assert_param(IS_I2C_ALL_PERIPH(I2Cx));
1085:common/i2c.c  **** 
1086:common/i2c.c  ****   /* Read the I2Cx status register */
ARM GAS  /tmp/ccozkyvL.s 			page 54


1087:common/i2c.c  ****   flag1 = I2Cx->SR1;
 1916              		.loc 1 1087 0
 1917 07e8 7B68     		ldr	r3, [r7, #4]
 1918 07ea 9B8A     		ldrh	r3, [r3, #20]	@ movhi
 1919 07ec 9BB2     		uxth	r3, r3
 1920 07ee 3B61     		str	r3, [r7, #16]
1088:common/i2c.c  ****   flag2 = I2Cx->SR2;
 1921              		.loc 1 1088 0
 1922 07f0 7B68     		ldr	r3, [r7, #4]
 1923 07f2 1B8B     		ldrh	r3, [r3, #24]	@ movhi
 1924 07f4 9BB2     		uxth	r3, r3
 1925 07f6 FB60     		str	r3, [r7, #12]
1089:common/i2c.c  ****   flag2 = flag2 << 16;
 1926              		.loc 1 1089 0
 1927 07f8 FB68     		ldr	r3, [r7, #12]
 1928 07fa 1B04     		lsls	r3, r3, #16
 1929 07fc FB60     		str	r3, [r7, #12]
1090:common/i2c.c  **** 
1091:common/i2c.c  ****   /* Get the last event value from I2C status register */
1092:common/i2c.c  ****   lastevent = (flag1 | flag2) & FLAG_Mask;
 1930              		.loc 1 1092 0
 1931 07fe 3A69     		ldr	r2, [r7, #16]
 1932 0800 FB68     		ldr	r3, [r7, #12]
 1933 0802 1343     		orrs	r3, r3, r2
 1934 0804 23F07F43 		bic	r3, r3, #-16777216
 1935 0808 7B61     		str	r3, [r7, #20]
1093:common/i2c.c  **** 
1094:common/i2c.c  ****   /* Return status */
1095:common/i2c.c  ****   return lastevent;
 1936              		.loc 1 1095 0
 1937 080a 7B69     		ldr	r3, [r7, #20]
1096:common/i2c.c  **** }
 1938              		.loc 1 1096 0
 1939 080c 1846     		mov	r0, r3
 1940 080e 1C37     		adds	r7, r7, #28
 1941              		.cfi_def_cfa_offset 4
 1942 0810 BD46     		mov	sp, r7
 1943              		.cfi_def_cfa_register 13
 1944              		@ sp needed
 1945 0812 80BC     		pop	{r7}
 1946              		.cfi_restore 7
 1947              		.cfi_def_cfa_offset 0
 1948 0814 7047     		bx	lr
 1949              		.cfi_endproc
 1950              	.LFE91:
 1951              		.size	I2C_GetLastEvent, .-I2C_GetLastEvent
 1952              		.align	1
 1953              		.global	I2C_GetFlagStatus
 1954              		.syntax unified
 1955              		.thumb
 1956              		.thumb_func
 1957              		.fpu softvfp
 1958              		.type	I2C_GetFlagStatus, %function
 1959              	I2C_GetFlagStatus:
 1960              	.LFB92:
1097:common/i2c.c  **** 
1098:common/i2c.c  **** /**
ARM GAS  /tmp/ccozkyvL.s 			page 55


1099:common/i2c.c  ****  * 
1100:common/i2c.c  ****  *  3) Flag-based state monitoring
1101:common/i2c.c  ****  *******************************************************************************
1102:common/i2c.c  ****  */
1103:common/i2c.c  **** 
1104:common/i2c.c  **** /**
1105:common/i2c.c  ****   * @brief  Checks whether the specified I2C flag is set or not.
1106:common/i2c.c  ****   * @param  I2Cx: where x can be 1 or 2 to select the I2C peripheral.
1107:common/i2c.c  ****   * @param  I2C_FLAG: specifies the flag to check. 
1108:common/i2c.c  ****   *   This parameter can be one of the following values:
1109:common/i2c.c  ****   *     @arg I2C_FLAG_DUALF: Dual flag (Slave mode)
1110:common/i2c.c  ****   *     @arg I2C_FLAG_SMBHOST: SMBus host header (Slave mode)
1111:common/i2c.c  ****   *     @arg I2C_FLAG_SMBDEFAULT: SMBus default header (Slave mode)
1112:common/i2c.c  ****   *     @arg I2C_FLAG_GENCALL: General call header flag (Slave mode)
1113:common/i2c.c  ****   *     @arg I2C_FLAG_TRA: Transmitter/Receiver flag
1114:common/i2c.c  ****   *     @arg I2C_FLAG_BUSY: Bus busy flag
1115:common/i2c.c  ****   *     @arg I2C_FLAG_MSL: Master/Slave flag
1116:common/i2c.c  ****   *     @arg I2C_FLAG_SMBALERT: SMBus Alert flag
1117:common/i2c.c  ****   *     @arg I2C_FLAG_TIMEOUT: Timeout or Tlow error flag
1118:common/i2c.c  ****   *     @arg I2C_FLAG_PECERR: PEC error in reception flag
1119:common/i2c.c  ****   *     @arg I2C_FLAG_OVR: Overrun/Underrun flag (Slave mode)
1120:common/i2c.c  ****   *     @arg I2C_FLAG_AF: Acknowledge failure flag
1121:common/i2c.c  ****   *     @arg I2C_FLAG_ARLO: Arbitration lost flag (Master mode)
1122:common/i2c.c  ****   *     @arg I2C_FLAG_BERR: Bus error flag
1123:common/i2c.c  ****   *     @arg I2C_FLAG_TXE: Data register empty flag (Transmitter)
1124:common/i2c.c  ****   *     @arg I2C_FLAG_RXNE: Data register not empty (Receiver) flag
1125:common/i2c.c  ****   *     @arg I2C_FLAG_STOPF: Stop detection flag (Slave mode)
1126:common/i2c.c  ****   *     @arg I2C_FLAG_ADD10: 10-bit header sent flag (Master mode)
1127:common/i2c.c  ****   *     @arg I2C_FLAG_BTF: Byte transfer finished flag
1128:common/i2c.c  ****   *     @arg I2C_FLAG_ADDR: Address sent flag (Master mode) "ADSL"
1129:common/i2c.c  ****   *   Address matched flag (Slave mode)"ENDA"
1130:common/i2c.c  ****   *     @arg I2C_FLAG_SB: Start bit flag (Master mode)
1131:common/i2c.c  ****   * @retval The new state of I2C_FLAG (SET or RESET).
1132:common/i2c.c  ****   */
1133:common/i2c.c  **** FlagStatus I2C_GetFlagStatus(I2C_TypeDef* I2Cx, uint32_t I2C_FLAG)
1134:common/i2c.c  **** {
 1961              		.loc 1 1134 0
 1962              		.cfi_startproc
 1963              		@ args = 0, pretend = 0, frame = 24
 1964              		@ frame_needed = 1, uses_anonymous_args = 0
 1965              		@ link register save eliminated.
 1966 0816 80B4     		push	{r7}
 1967              		.cfi_def_cfa_offset 4
 1968              		.cfi_offset 7, -4
 1969 0818 87B0     		sub	sp, sp, #28
 1970              		.cfi_def_cfa_offset 32
 1971 081a 00AF     		add	r7, sp, #0
 1972              		.cfi_def_cfa_register 7
 1973 081c 7860     		str	r0, [r7, #4]
 1974 081e 3960     		str	r1, [r7]
1135:common/i2c.c  ****   FlagStatus bitstatus = RESET;
 1975              		.loc 1 1135 0
 1976 0820 0023     		movs	r3, #0
 1977 0822 FB75     		strb	r3, [r7, #23]
1136:common/i2c.c  ****   __IO uint32_t i2creg = 0, i2cxbase = 0;
 1978              		.loc 1 1136 0
 1979 0824 0023     		movs	r3, #0
ARM GAS  /tmp/ccozkyvL.s 			page 56


 1980 0826 3B61     		str	r3, [r7, #16]
 1981 0828 0023     		movs	r3, #0
 1982 082a FB60     		str	r3, [r7, #12]
1137:common/i2c.c  **** 
1138:common/i2c.c  ****   /* Check the parameters */
1139:common/i2c.c  ****   assert_param(IS_I2C_ALL_PERIPH(I2Cx));
1140:common/i2c.c  ****   assert_param(IS_I2C_GET_FLAG(I2C_FLAG));
1141:common/i2c.c  **** 
1142:common/i2c.c  ****   /* Get the I2Cx peripheral base address */
1143:common/i2c.c  ****   i2cxbase = (uint32_t)I2Cx;
 1983              		.loc 1 1143 0
 1984 082c 7B68     		ldr	r3, [r7, #4]
 1985 082e FB60     		str	r3, [r7, #12]
1144:common/i2c.c  ****   
1145:common/i2c.c  ****   /* Read flag register index */
1146:common/i2c.c  ****   i2creg = I2C_FLAG >> 28;
 1986              		.loc 1 1146 0
 1987 0830 3B68     		ldr	r3, [r7]
 1988 0832 1B0F     		lsrs	r3, r3, #28
 1989 0834 3B61     		str	r3, [r7, #16]
1147:common/i2c.c  ****   
1148:common/i2c.c  ****   /* Get bit[23:0] of the flag */
1149:common/i2c.c  ****   I2C_FLAG &= FLAG_Mask;
 1990              		.loc 1 1149 0
 1991 0836 3B68     		ldr	r3, [r7]
 1992 0838 23F07F43 		bic	r3, r3, #-16777216
 1993 083c 3B60     		str	r3, [r7]
1150:common/i2c.c  ****   
1151:common/i2c.c  ****   if(i2creg != 0)
 1994              		.loc 1 1151 0
 1995 083e 3B69     		ldr	r3, [r7, #16]
 1996 0840 002B     		cmp	r3, #0
 1997 0842 03D0     		beq	.L107
1152:common/i2c.c  ****   {
1153:common/i2c.c  ****     /* Get the I2Cx SR1 register address */
1154:common/i2c.c  ****     i2cxbase += 0x14;
 1998              		.loc 1 1154 0
 1999 0844 FB68     		ldr	r3, [r7, #12]
 2000 0846 1433     		adds	r3, r3, #20
 2001 0848 FB60     		str	r3, [r7, #12]
 2002 084a 05E0     		b	.L108
 2003              	.L107:
1155:common/i2c.c  ****   }
1156:common/i2c.c  ****   else
1157:common/i2c.c  ****   {
1158:common/i2c.c  ****     /* Flag in I2Cx SR2 Register */
1159:common/i2c.c  ****     I2C_FLAG = (uint32_t)(I2C_FLAG >> 16);
 2004              		.loc 1 1159 0
 2005 084c 3B68     		ldr	r3, [r7]
 2006 084e 1B0C     		lsrs	r3, r3, #16
 2007 0850 3B60     		str	r3, [r7]
1160:common/i2c.c  ****     /* Get the I2Cx SR2 register address */
1161:common/i2c.c  ****     i2cxbase += 0x18;
 2008              		.loc 1 1161 0
 2009 0852 FB68     		ldr	r3, [r7, #12]
 2010 0854 1833     		adds	r3, r3, #24
 2011 0856 FB60     		str	r3, [r7, #12]
ARM GAS  /tmp/ccozkyvL.s 			page 57


 2012              	.L108:
1162:common/i2c.c  ****   }
1163:common/i2c.c  ****   
1164:common/i2c.c  ****   if(((*(__IO uint32_t *)i2cxbase) & I2C_FLAG) != (uint32_t)RESET)
 2013              		.loc 1 1164 0
 2014 0858 FB68     		ldr	r3, [r7, #12]
 2015 085a 1A68     		ldr	r2, [r3]
 2016 085c 3B68     		ldr	r3, [r7]
 2017 085e 1340     		ands	r3, r3, r2
 2018 0860 002B     		cmp	r3, #0
 2019 0862 02D0     		beq	.L109
1165:common/i2c.c  ****   {
1166:common/i2c.c  ****     /* I2C_FLAG is set */
1167:common/i2c.c  ****     bitstatus = SET;
 2020              		.loc 1 1167 0
 2021 0864 0123     		movs	r3, #1
 2022 0866 FB75     		strb	r3, [r7, #23]
 2023 0868 01E0     		b	.L110
 2024              	.L109:
1168:common/i2c.c  ****   }
1169:common/i2c.c  ****   else
1170:common/i2c.c  ****   {
1171:common/i2c.c  ****     /* I2C_FLAG is reset */
1172:common/i2c.c  ****     bitstatus = RESET;
 2025              		.loc 1 1172 0
 2026 086a 0023     		movs	r3, #0
 2027 086c FB75     		strb	r3, [r7, #23]
 2028              	.L110:
1173:common/i2c.c  ****   }
1174:common/i2c.c  ****   
1175:common/i2c.c  ****   /* Return the I2C_FLAG status */
1176:common/i2c.c  ****   return  bitstatus;
 2029              		.loc 1 1176 0
 2030 086e FB7D     		ldrb	r3, [r7, #23]	@ zero_extendqisi2
1177:common/i2c.c  **** }
 2031              		.loc 1 1177 0
 2032 0870 1846     		mov	r0, r3
 2033 0872 1C37     		adds	r7, r7, #28
 2034              		.cfi_def_cfa_offset 4
 2035 0874 BD46     		mov	sp, r7
 2036              		.cfi_def_cfa_register 13
 2037              		@ sp needed
 2038 0876 80BC     		pop	{r7}
 2039              		.cfi_restore 7
 2040              		.cfi_def_cfa_offset 0
 2041 0878 7047     		bx	lr
 2042              		.cfi_endproc
 2043              	.LFE92:
 2044              		.size	I2C_GetFlagStatus, .-I2C_GetFlagStatus
 2045              		.align	1
 2046              		.global	I2C_ClearFlag
 2047              		.syntax unified
 2048              		.thumb
 2049              		.thumb_func
 2050              		.fpu softvfp
 2051              		.type	I2C_ClearFlag, %function
 2052              	I2C_ClearFlag:
ARM GAS  /tmp/ccozkyvL.s 			page 58


 2053              	.LFB93:
1178:common/i2c.c  **** 
1179:common/i2c.c  **** 
1180:common/i2c.c  **** 
1181:common/i2c.c  **** /**
1182:common/i2c.c  ****   * @brief  Clears the I2Cx's pending flags.
1183:common/i2c.c  ****   * @param  I2Cx: where x can be 1 or 2 to select the I2C peripheral.
1184:common/i2c.c  ****   * @param  I2C_FLAG: specifies the flag to clear. 
1185:common/i2c.c  ****   *   This parameter can be any combination of the following values:
1186:common/i2c.c  ****   *     @arg I2C_FLAG_SMBALERT: SMBus Alert flag
1187:common/i2c.c  ****   *     @arg I2C_FLAG_TIMEOUT: Timeout or Tlow error flag
1188:common/i2c.c  ****   *     @arg I2C_FLAG_PECERR: PEC error in reception flag
1189:common/i2c.c  ****   *     @arg I2C_FLAG_OVR: Overrun/Underrun flag (Slave mode)
1190:common/i2c.c  ****   *     @arg I2C_FLAG_AF: Acknowledge failure flag
1191:common/i2c.c  ****   *     @arg I2C_FLAG_ARLO: Arbitration lost flag (Master mode)
1192:common/i2c.c  ****   *     @arg I2C_FLAG_BERR: Bus error flag
1193:common/i2c.c  ****   *   
1194:common/i2c.c  ****   * @note
1195:common/i2c.c  ****   *   - STOPF (STOP detection) is cleared by software sequence: a read operation 
1196:common/i2c.c  ****   *     to I2C_SR1 register (I2C_GetFlagStatus()) followed by a write operation 
1197:common/i2c.c  ****   *     to I2C_CR1 register (I2C_Cmd() to re-enable the I2C peripheral).
1198:common/i2c.c  ****   *   - ADD10 (10-bit header sent) is cleared by software sequence: a read 
1199:common/i2c.c  ****   *     operation to I2C_SR1 (I2C_GetFlagStatus()) followed by writing the 
1200:common/i2c.c  ****   *     second byte of the address in DR register.
1201:common/i2c.c  ****   *   - BTF (Byte Transfer Finished) is cleared by software sequence: a read 
1202:common/i2c.c  ****   *     operation to I2C_SR1 register (I2C_GetFlagStatus()) followed by a 
1203:common/i2c.c  ****   *     read/write to I2C_DR register (I2C_SendData()).
1204:common/i2c.c  ****   *   - ADDR (Address sent) is cleared by software sequence: a read operation to 
1205:common/i2c.c  ****   *     I2C_SR1 register (I2C_GetFlagStatus()) followed by a read operation to 
1206:common/i2c.c  ****   *     I2C_SR2 register ((void)(I2Cx->SR2)).
1207:common/i2c.c  ****   *   - SB (Start Bit) is cleared software sequence: a read operation to I2C_SR1
1208:common/i2c.c  ****   *     register (I2C_GetFlagStatus()) followed by a write operation to I2C_DR
1209:common/i2c.c  ****   *     register  (I2C_SendData()).
1210:common/i2c.c  ****   * @retval None
1211:common/i2c.c  ****   */
1212:common/i2c.c  **** void I2C_ClearFlag(I2C_TypeDef* I2Cx, uint32_t I2C_FLAG)
1213:common/i2c.c  **** {
 2054              		.loc 1 1213 0
 2055              		.cfi_startproc
 2056              		@ args = 0, pretend = 0, frame = 16
 2057              		@ frame_needed = 1, uses_anonymous_args = 0
 2058              		@ link register save eliminated.
 2059 087a 80B4     		push	{r7}
 2060              		.cfi_def_cfa_offset 4
 2061              		.cfi_offset 7, -4
 2062 087c 85B0     		sub	sp, sp, #20
 2063              		.cfi_def_cfa_offset 24
 2064 087e 00AF     		add	r7, sp, #0
 2065              		.cfi_def_cfa_register 7
 2066 0880 7860     		str	r0, [r7, #4]
 2067 0882 3960     		str	r1, [r7]
1214:common/i2c.c  ****   uint32_t flagpos = 0;
 2068              		.loc 1 1214 0
 2069 0884 0023     		movs	r3, #0
 2070 0886 FB60     		str	r3, [r7, #12]
1215:common/i2c.c  ****   /* Check the parameters */
1216:common/i2c.c  ****   assert_param(IS_I2C_ALL_PERIPH(I2Cx));
ARM GAS  /tmp/ccozkyvL.s 			page 59


1217:common/i2c.c  ****   assert_param(IS_I2C_CLEAR_FLAG(I2C_FLAG));
1218:common/i2c.c  ****   /* Get the I2C flag position */
1219:common/i2c.c  ****   flagpos = I2C_FLAG & FLAG_Mask;
 2071              		.loc 1 1219 0
 2072 0888 3B68     		ldr	r3, [r7]
 2073 088a 23F07F43 		bic	r3, r3, #-16777216
 2074 088e FB60     		str	r3, [r7, #12]
1220:common/i2c.c  ****   /* Clear the selected I2C flag */
1221:common/i2c.c  ****   I2Cx->SR1 = (uint16_t)~flagpos;
 2075              		.loc 1 1221 0
 2076 0890 FB68     		ldr	r3, [r7, #12]
 2077 0892 9BB2     		uxth	r3, r3
 2078 0894 DB43     		mvns	r3, r3
 2079 0896 9AB2     		uxth	r2, r3
 2080 0898 7B68     		ldr	r3, [r7, #4]
 2081 089a 9A82     		strh	r2, [r3, #20]	@ movhi
1222:common/i2c.c  **** }
 2082              		.loc 1 1222 0
 2083 089c 00BF     		nop
 2084 089e 1437     		adds	r7, r7, #20
 2085              		.cfi_def_cfa_offset 4
 2086 08a0 BD46     		mov	sp, r7
 2087              		.cfi_def_cfa_register 13
 2088              		@ sp needed
 2089 08a2 80BC     		pop	{r7}
 2090              		.cfi_restore 7
 2091              		.cfi_def_cfa_offset 0
 2092 08a4 7047     		bx	lr
 2093              		.cfi_endproc
 2094              	.LFE93:
 2095              		.size	I2C_ClearFlag, .-I2C_ClearFlag
 2096              		.align	1
 2097              		.global	I2C_GetITStatus
 2098              		.syntax unified
 2099              		.thumb
 2100              		.thumb_func
 2101              		.fpu softvfp
 2102              		.type	I2C_GetITStatus, %function
 2103              	I2C_GetITStatus:
 2104              	.LFB94:
1223:common/i2c.c  **** 
1224:common/i2c.c  **** /**
1225:common/i2c.c  ****   * @brief  Checks whether the specified I2C interrupt has occurred or not.
1226:common/i2c.c  ****   * @param  I2Cx: where x can be 1 or 2 to select the I2C peripheral.
1227:common/i2c.c  ****   * @param  I2C_IT: specifies the interrupt source to check. 
1228:common/i2c.c  ****   *   This parameter can be one of the following values:
1229:common/i2c.c  ****   *     @arg I2C_IT_SMBALERT: SMBus Alert flag
1230:common/i2c.c  ****   *     @arg I2C_IT_TIMEOUT: Timeout or Tlow error flag
1231:common/i2c.c  ****   *     @arg I2C_IT_PECERR: PEC error in reception flag
1232:common/i2c.c  ****   *     @arg I2C_IT_OVR: Overrun/Underrun flag (Slave mode)
1233:common/i2c.c  ****   *     @arg I2C_IT_AF: Acknowledge failure flag
1234:common/i2c.c  ****   *     @arg I2C_IT_ARLO: Arbitration lost flag (Master mode)
1235:common/i2c.c  ****   *     @arg I2C_IT_BERR: Bus error flag
1236:common/i2c.c  ****   *     @arg I2C_IT_TXE: Data register empty flag (Transmitter)
1237:common/i2c.c  ****   *     @arg I2C_IT_RXNE: Data register not empty (Receiver) flag
1238:common/i2c.c  ****   *     @arg I2C_IT_STOPF: Stop detection flag (Slave mode)
1239:common/i2c.c  ****   *     @arg I2C_IT_ADD10: 10-bit header sent flag (Master mode)
ARM GAS  /tmp/ccozkyvL.s 			page 60


1240:common/i2c.c  ****   *     @arg I2C_IT_BTF: Byte transfer finished flag
1241:common/i2c.c  ****   *     @arg I2C_IT_ADDR: Address sent flag (Master mode) "ADSL"
1242:common/i2c.c  ****   *                       Address matched flag (Slave mode)"ENDAD"
1243:common/i2c.c  ****   *     @arg I2C_IT_SB: Start bit flag (Master mode)
1244:common/i2c.c  ****   * @retval The new state of I2C_IT (SET or RESET).
1245:common/i2c.c  ****   */
1246:common/i2c.c  **** ITStatus I2C_GetITStatus(I2C_TypeDef* I2Cx, uint32_t I2C_IT)
1247:common/i2c.c  **** {
 2105              		.loc 1 1247 0
 2106              		.cfi_startproc
 2107              		@ args = 0, pretend = 0, frame = 16
 2108              		@ frame_needed = 1, uses_anonymous_args = 0
 2109              		@ link register save eliminated.
 2110 08a6 80B4     		push	{r7}
 2111              		.cfi_def_cfa_offset 4
 2112              		.cfi_offset 7, -4
 2113 08a8 85B0     		sub	sp, sp, #20
 2114              		.cfi_def_cfa_offset 24
 2115 08aa 00AF     		add	r7, sp, #0
 2116              		.cfi_def_cfa_register 7
 2117 08ac 7860     		str	r0, [r7, #4]
 2118 08ae 3960     		str	r1, [r7]
1248:common/i2c.c  ****   ITStatus bitstatus = RESET;
 2119              		.loc 1 1248 0
 2120 08b0 0023     		movs	r3, #0
 2121 08b2 FB73     		strb	r3, [r7, #15]
1249:common/i2c.c  ****   uint32_t enablestatus = 0;
 2122              		.loc 1 1249 0
 2123 08b4 0023     		movs	r3, #0
 2124 08b6 BB60     		str	r3, [r7, #8]
1250:common/i2c.c  **** 
1251:common/i2c.c  ****   /* Check the parameters */
1252:common/i2c.c  ****   assert_param(IS_I2C_ALL_PERIPH(I2Cx));
1253:common/i2c.c  ****   assert_param(IS_I2C_GET_IT(I2C_IT));
1254:common/i2c.c  **** 
1255:common/i2c.c  ****   /* Check if the interrupt source is enabled or not */
1256:common/i2c.c  ****   enablestatus = (uint32_t)(((I2C_IT & ITEN_Mask) >> 16) & (I2Cx->CR2)) ;
 2125              		.loc 1 1256 0
 2126 08b8 3B68     		ldr	r3, [r7]
 2127 08ba 1B0C     		lsrs	r3, r3, #16
 2128 08bc 7A68     		ldr	r2, [r7, #4]
 2129 08be 9288     		ldrh	r2, [r2, #4]	@ movhi
 2130 08c0 92B2     		uxth	r2, r2
 2131 08c2 1340     		ands	r3, r3, r2
 2132 08c4 03F4E063 		and	r3, r3, #1792
 2133 08c8 BB60     		str	r3, [r7, #8]
1257:common/i2c.c  ****   
1258:common/i2c.c  ****   /* Get bit[23:0] of the flag */
1259:common/i2c.c  ****   I2C_IT &= FLAG_Mask;
 2134              		.loc 1 1259 0
 2135 08ca 3B68     		ldr	r3, [r7]
 2136 08cc 23F07F43 		bic	r3, r3, #-16777216
 2137 08d0 3B60     		str	r3, [r7]
1260:common/i2c.c  **** 
1261:common/i2c.c  ****   /* Check the status of the specified I2C flag */
1262:common/i2c.c  ****   if (((I2Cx->SR1 & I2C_IT) != (uint32_t)RESET) && enablestatus)
 2138              		.loc 1 1262 0
ARM GAS  /tmp/ccozkyvL.s 			page 61


 2139 08d2 7B68     		ldr	r3, [r7, #4]
 2140 08d4 9B8A     		ldrh	r3, [r3, #20]	@ movhi
 2141 08d6 9BB2     		uxth	r3, r3
 2142 08d8 1A46     		mov	r2, r3
 2143 08da 3B68     		ldr	r3, [r7]
 2144 08dc 1340     		ands	r3, r3, r2
 2145 08de 002B     		cmp	r3, #0
 2146 08e0 05D0     		beq	.L114
 2147              		.loc 1 1262 0 is_stmt 0 discriminator 1
 2148 08e2 BB68     		ldr	r3, [r7, #8]
 2149 08e4 002B     		cmp	r3, #0
 2150 08e6 02D0     		beq	.L114
1263:common/i2c.c  ****   {
1264:common/i2c.c  ****     /* I2C_IT is set */
1265:common/i2c.c  ****     bitstatus = SET;
 2151              		.loc 1 1265 0 is_stmt 1
 2152 08e8 0123     		movs	r3, #1
 2153 08ea FB73     		strb	r3, [r7, #15]
 2154 08ec 01E0     		b	.L115
 2155              	.L114:
1266:common/i2c.c  ****   }
1267:common/i2c.c  ****   else
1268:common/i2c.c  ****   {
1269:common/i2c.c  ****     /* I2C_IT is reset */
1270:common/i2c.c  ****     bitstatus = RESET;
 2156              		.loc 1 1270 0
 2157 08ee 0023     		movs	r3, #0
 2158 08f0 FB73     		strb	r3, [r7, #15]
 2159              	.L115:
1271:common/i2c.c  ****   }
1272:common/i2c.c  ****   /* Return the I2C_IT status */
1273:common/i2c.c  ****   return  bitstatus;
 2160              		.loc 1 1273 0
 2161 08f2 FB7B     		ldrb	r3, [r7, #15]	@ zero_extendqisi2
1274:common/i2c.c  **** }
 2162              		.loc 1 1274 0
 2163 08f4 1846     		mov	r0, r3
 2164 08f6 1437     		adds	r7, r7, #20
 2165              		.cfi_def_cfa_offset 4
 2166 08f8 BD46     		mov	sp, r7
 2167              		.cfi_def_cfa_register 13
 2168              		@ sp needed
 2169 08fa 80BC     		pop	{r7}
 2170              		.cfi_restore 7
 2171              		.cfi_def_cfa_offset 0
 2172 08fc 7047     		bx	lr
 2173              		.cfi_endproc
 2174              	.LFE94:
 2175              		.size	I2C_GetITStatus, .-I2C_GetITStatus
 2176              		.align	1
 2177              		.global	I2C_ClearITPendingBit
 2178              		.syntax unified
 2179              		.thumb
 2180              		.thumb_func
 2181              		.fpu softvfp
 2182              		.type	I2C_ClearITPendingBit, %function
 2183              	I2C_ClearITPendingBit:
ARM GAS  /tmp/ccozkyvL.s 			page 62


 2184              	.LFB95:
1275:common/i2c.c  **** 
1276:common/i2c.c  **** /**
1277:common/i2c.c  ****   * @brief  Clears the I2Cxs interrupt pending bits.
1278:common/i2c.c  ****   * @param  I2Cx: where x can be 1 or 2 to select the I2C peripheral.
1279:common/i2c.c  ****   * @param  I2C_IT: specifies the interrupt pending bit to clear. 
1280:common/i2c.c  ****   *   This parameter can be any combination of the following values:
1281:common/i2c.c  ****   *     @arg I2C_IT_SMBALERT: SMBus Alert interrupt
1282:common/i2c.c  ****   *     @arg I2C_IT_TIMEOUT: Timeout or Tlow error interrupt
1283:common/i2c.c  ****   *     @arg I2C_IT_PECERR: PEC error in reception  interrupt
1284:common/i2c.c  ****   *     @arg I2C_IT_OVR: Overrun/Underrun interrupt (Slave mode)
1285:common/i2c.c  ****   *     @arg I2C_IT_AF: Acknowledge failure interrupt
1286:common/i2c.c  ****   *     @arg I2C_IT_ARLO: Arbitration lost interrupt (Master mode)
1287:common/i2c.c  ****   *     @arg I2C_IT_BERR: Bus error interrupt
1288:common/i2c.c  ****   *   
1289:common/i2c.c  ****   * @note
1290:common/i2c.c  ****   *   - STOPF (STOP detection) is cleared by software sequence: a read operation 
1291:common/i2c.c  ****   *     to I2C_SR1 register (I2C_GetITStatus()) followed by a write operation to 
1292:common/i2c.c  ****   *     I2C_CR1 register (I2C_Cmd() to re-enable the I2C peripheral).
1293:common/i2c.c  ****   *   - ADD10 (10-bit header sent) is cleared by software sequence: a read 
1294:common/i2c.c  ****   *     operation to I2C_SR1 (I2C_GetITStatus()) followed by writing the second 
1295:common/i2c.c  ****   *     byte of the address in I2C_DR register.
1296:common/i2c.c  ****   *   - BTF (Byte Transfer Finished) is cleared by software sequence: a read 
1297:common/i2c.c  ****   *     operation to I2C_SR1 register (I2C_GetITStatus()) followed by a 
1298:common/i2c.c  ****   *     read/write to I2C_DR register (I2C_SendData()).
1299:common/i2c.c  ****   *   - ADDR (Address sent) is cleared by software sequence: a read operation to 
1300:common/i2c.c  ****   *     I2C_SR1 register (I2C_GetITStatus()) followed by a read operation to 
1301:common/i2c.c  ****   *     I2C_SR2 register ((void)(I2Cx->SR2)).
1302:common/i2c.c  ****   *   - SB (Start Bit) is cleared by software sequence: a read operation to 
1303:common/i2c.c  ****   *     I2C_SR1 register (I2C_GetITStatus()) followed by a write operation to 
1304:common/i2c.c  ****   *     I2C_DR register (I2C_SendData()).
1305:common/i2c.c  ****   * @retval None
1306:common/i2c.c  ****   */
1307:common/i2c.c  **** void I2C_ClearITPendingBit(I2C_TypeDef* I2Cx, uint32_t I2C_IT)
1308:common/i2c.c  **** {
 2185              		.loc 1 1308 0
 2186              		.cfi_startproc
 2187              		@ args = 0, pretend = 0, frame = 16
 2188              		@ frame_needed = 1, uses_anonymous_args = 0
 2189              		@ link register save eliminated.
 2190 08fe 80B4     		push	{r7}
 2191              		.cfi_def_cfa_offset 4
 2192              		.cfi_offset 7, -4
 2193 0900 85B0     		sub	sp, sp, #20
 2194              		.cfi_def_cfa_offset 24
 2195 0902 00AF     		add	r7, sp, #0
 2196              		.cfi_def_cfa_register 7
 2197 0904 7860     		str	r0, [r7, #4]
 2198 0906 3960     		str	r1, [r7]
1309:common/i2c.c  ****   uint32_t flagpos = 0;
 2199              		.loc 1 1309 0
 2200 0908 0023     		movs	r3, #0
 2201 090a FB60     		str	r3, [r7, #12]
1310:common/i2c.c  ****   /* Check the parameters */
1311:common/i2c.c  ****   assert_param(IS_I2C_ALL_PERIPH(I2Cx));
1312:common/i2c.c  ****   assert_param(IS_I2C_CLEAR_IT(I2C_IT));
1313:common/i2c.c  ****   /* Get the I2C flag position */
ARM GAS  /tmp/ccozkyvL.s 			page 63


1314:common/i2c.c  ****   flagpos = I2C_IT & FLAG_Mask;
 2202              		.loc 1 1314 0
 2203 090c 3B68     		ldr	r3, [r7]
 2204 090e 23F07F43 		bic	r3, r3, #-16777216
 2205 0912 FB60     		str	r3, [r7, #12]
1315:common/i2c.c  ****   /* Clear the selected I2C flag */
1316:common/i2c.c  ****   I2Cx->SR1 = (uint16_t)~flagpos;
 2206              		.loc 1 1316 0
 2207 0914 FB68     		ldr	r3, [r7, #12]
 2208 0916 9BB2     		uxth	r3, r3
 2209 0918 DB43     		mvns	r3, r3
 2210 091a 9AB2     		uxth	r2, r3
 2211 091c 7B68     		ldr	r3, [r7, #4]
 2212 091e 9A82     		strh	r2, [r3, #20]	@ movhi
1317:common/i2c.c  **** }
 2213              		.loc 1 1317 0
 2214 0920 00BF     		nop
 2215 0922 1437     		adds	r7, r7, #20
 2216              		.cfi_def_cfa_offset 4
 2217 0924 BD46     		mov	sp, r7
 2218              		.cfi_def_cfa_register 13
 2219              		@ sp needed
 2220 0926 80BC     		pop	{r7}
 2221              		.cfi_restore 7
 2222              		.cfi_def_cfa_offset 0
 2223 0928 7047     		bx	lr
 2224              		.cfi_endproc
 2225              	.LFE95:
 2226              		.size	I2C_ClearITPendingBit, .-I2C_ClearITPendingBit
 2227              	.Letext0:
 2228              		.file 2 "/usr/arm-none-eabi/include/machine/_default_types.h"
 2229              		.file 3 "/usr/arm-none-eabi/include/sys/_stdint.h"
 2230              		.file 4 "common/../include/STM32/../CMSIS/core_cm3.h"
 2231              		.file 5 "common/../include/STM32/system_stm32f10x.h"
 2232              		.file 6 "common/../include/STM32/stm32f10x.h"
 2233              		.file 7 "common/../include/STM32/i2c.h"
 2234              		.file 8 "common/../include/STM32/rcc.h"
 2235              		.file 9 "common/../src/../include/MPU6050/mpu6050.h"
 2236              		.file 10 "/usr/arm-none-eabi/include/sys/lock.h"
 2237              		.file 11 "/usr/arm-none-eabi/include/sys/_types.h"
 2238              		.file 12 "/usr/lib/gcc/arm-none-eabi/6.1.1/include/stddef.h"
 2239              		.file 13 "/usr/arm-none-eabi/include/sys/reent.h"
 2240              		.file 14 "/usr/arm-none-eabi/include/math.h"
 2241 092a 00BF     		.section	.debug_info,"",%progbits
 2242              	.Ldebug_info0:
 2243 0000 FC130000 		.4byte	0x13fc
 2244 0004 0400     		.2byte	0x4
 2245 0006 00000000 		.4byte	.Ldebug_abbrev0
 2246 000a 04       		.byte	0x4
 2247 000b 01       		.uleb128 0x1
 2248 000c D9090000 		.4byte	.LASF241
 2249 0010 0C       		.byte	0xc
 2250 0011 0B000000 		.4byte	.LASF242
 2251 0015 C9000000 		.4byte	.LASF243
 2252 0019 00000000 		.4byte	.Ltext0
 2253 001d 2A090000 		.4byte	.Letext0-.Ltext0
 2254 0021 00000000 		.4byte	.Ldebug_line0
ARM GAS  /tmp/ccozkyvL.s 			page 64


 2255 0025 02       		.uleb128 0x2
 2256 0026 01       		.byte	0x1
 2257 0027 06       		.byte	0x6
 2258 0028 00020000 		.4byte	.LASF0
 2259 002c 03       		.uleb128 0x3
 2260 002d 37010000 		.4byte	.LASF2
 2261 0031 02       		.byte	0x2
 2262 0032 1D       		.byte	0x1d
 2263 0033 37000000 		.4byte	0x37
 2264 0037 02       		.uleb128 0x2
 2265 0038 01       		.byte	0x1
 2266 0039 08       		.byte	0x8
 2267 003a 4E020000 		.4byte	.LASF1
 2268 003e 03       		.uleb128 0x3
 2269 003f 24080000 		.4byte	.LASF3
 2270 0043 02       		.byte	0x2
 2271 0044 29       		.byte	0x29
 2272 0045 49000000 		.4byte	0x49
 2273 0049 02       		.uleb128 0x2
 2274 004a 02       		.byte	0x2
 2275 004b 05       		.byte	0x5
 2276 004c D0080000 		.4byte	.LASF4
 2277 0050 03       		.uleb128 0x3
 2278 0051 29030000 		.4byte	.LASF5
 2279 0055 02       		.byte	0x2
 2280 0056 2B       		.byte	0x2b
 2281 0057 5B000000 		.4byte	0x5b
 2282 005b 02       		.uleb128 0x2
 2283 005c 02       		.byte	0x2
 2284 005d 07       		.byte	0x7
 2285 005e 1C0A0000 		.4byte	.LASF6
 2286 0062 03       		.uleb128 0x3
 2287 0063 720A0000 		.4byte	.LASF7
 2288 0067 02       		.byte	0x2
 2289 0068 3F       		.byte	0x3f
 2290 0069 6D000000 		.4byte	0x6d
 2291 006d 02       		.uleb128 0x2
 2292 006e 04       		.byte	0x4
 2293 006f 05       		.byte	0x5
 2294 0070 A4010000 		.4byte	.LASF8
 2295 0074 03       		.uleb128 0x3
 2296 0075 28050000 		.4byte	.LASF9
 2297 0079 02       		.byte	0x2
 2298 007a 41       		.byte	0x41
 2299 007b 7F000000 		.4byte	0x7f
 2300 007f 02       		.uleb128 0x2
 2301 0080 04       		.byte	0x4
 2302 0081 07       		.byte	0x7
 2303 0082 23040000 		.4byte	.LASF10
 2304 0086 02       		.uleb128 0x2
 2305 0087 08       		.byte	0x8
 2306 0088 05       		.byte	0x5
 2307 0089 3E050000 		.4byte	.LASF11
 2308 008d 02       		.uleb128 0x2
 2309 008e 08       		.byte	0x8
 2310 008f 07       		.byte	0x7
 2311 0090 40070000 		.4byte	.LASF12
ARM GAS  /tmp/ccozkyvL.s 			page 65


 2312 0094 04       		.uleb128 0x4
 2313 0095 04       		.byte	0x4
 2314 0096 05       		.byte	0x5
 2315 0097 696E7400 		.ascii	"int\000"
 2316 009b 02       		.uleb128 0x2
 2317 009c 04       		.byte	0x4
 2318 009d 07       		.byte	0x7
 2319 009e EF050000 		.4byte	.LASF13
 2320 00a2 03       		.uleb128 0x3
 2321 00a3 0C020000 		.4byte	.LASF14
 2322 00a7 03       		.byte	0x3
 2323 00a8 18       		.byte	0x18
 2324 00a9 2C000000 		.4byte	0x2c
 2325 00ad 03       		.uleb128 0x3
 2326 00ae 0E090000 		.4byte	.LASF15
 2327 00b2 03       		.byte	0x3
 2328 00b3 20       		.byte	0x20
 2329 00b4 3E000000 		.4byte	0x3e
 2330 00b8 03       		.uleb128 0x3
 2331 00b9 67070000 		.4byte	.LASF16
 2332 00bd 03       		.byte	0x3
 2333 00be 24       		.byte	0x24
 2334 00bf 50000000 		.4byte	0x50
 2335 00c3 05       		.uleb128 0x5
 2336 00c4 B8000000 		.4byte	0xb8
 2337 00c8 03       		.uleb128 0x3
 2338 00c9 60000000 		.4byte	.LASF17
 2339 00cd 03       		.byte	0x3
 2340 00ce 2C       		.byte	0x2c
 2341 00cf 62000000 		.4byte	0x62
 2342 00d3 05       		.uleb128 0x5
 2343 00d4 C8000000 		.4byte	0xc8
 2344 00d8 03       		.uleb128 0x3
 2345 00d9 C1090000 		.4byte	.LASF18
 2346 00dd 03       		.byte	0x3
 2347 00de 30       		.byte	0x30
 2348 00df 74000000 		.4byte	0x74
 2349 00e3 05       		.uleb128 0x5
 2350 00e4 D8000000 		.4byte	0xd8
 2351 00e8 02       		.uleb128 0x2
 2352 00e9 04       		.byte	0x4
 2353 00ea 07       		.byte	0x7
 2354 00eb 18000000 		.4byte	.LASF19
 2355 00ef 06       		.uleb128 0x6
 2356 00f0 CD050000 		.4byte	.LASF20
 2357 00f4 04       		.byte	0x4
 2358 00f5 9606     		.2byte	0x696
 2359 00f7 D3000000 		.4byte	0xd3
 2360 00fb 07       		.uleb128 0x7
 2361 00fc 68040000 		.4byte	.LASF21
 2362 0100 05       		.byte	0x5
 2363 0101 35       		.byte	0x35
 2364 0102 D8000000 		.4byte	0xd8
 2365 0106 08       		.uleb128 0x8
 2366 0107 01       		.byte	0x1
 2367 0108 37000000 		.4byte	0x37
 2368 010c 06       		.byte	0x6
ARM GAS  /tmp/ccozkyvL.s 			page 66


 2369 010d 9001     		.2byte	0x190
 2370 010f 20010000 		.4byte	0x120
 2371 0113 09       		.uleb128 0x9
 2372 0114 2E080000 		.4byte	.LASF22
 2373 0118 00       		.byte	0
 2374 0119 0A       		.uleb128 0xa
 2375 011a 53455400 		.ascii	"SET\000"
 2376 011e 01       		.byte	0x1
 2377 011f 00       		.byte	0
 2378 0120 0B       		.uleb128 0xb
 2379 0121 5E080000 		.4byte	.LASF23
 2380 0125 06       		.byte	0x6
 2381 0126 9001     		.2byte	0x190
 2382 0128 06010000 		.4byte	0x106
 2383 012c 0B       		.uleb128 0xb
 2384 012d C1060000 		.4byte	.LASF24
 2385 0131 06       		.byte	0x6
 2386 0132 9001     		.2byte	0x190
 2387 0134 06010000 		.4byte	0x106
 2388 0138 08       		.uleb128 0x8
 2389 0139 01       		.byte	0x1
 2390 013a 37000000 		.4byte	0x37
 2391 013e 06       		.byte	0x6
 2392 013f 9201     		.2byte	0x192
 2393 0141 52010000 		.4byte	0x152
 2394 0145 09       		.uleb128 0x9
 2395 0146 B9060000 		.4byte	.LASF25
 2396 014a 00       		.byte	0
 2397 014b 09       		.uleb128 0x9
 2398 014c 29090000 		.4byte	.LASF26
 2399 0150 01       		.byte	0x1
 2400 0151 00       		.byte	0
 2401 0152 0B       		.uleb128 0xb
 2402 0153 30070000 		.4byte	.LASF27
 2403 0157 06       		.byte	0x6
 2404 0158 9201     		.2byte	0x192
 2405 015a 38010000 		.4byte	0x138
 2406 015e 08       		.uleb128 0x8
 2407 015f 01       		.byte	0x1
 2408 0160 37000000 		.4byte	0x37
 2409 0164 06       		.byte	0x6
 2410 0165 9501     		.2byte	0x195
 2411 0167 78010000 		.4byte	0x178
 2412 016b 09       		.uleb128 0x9
 2413 016c D8040000 		.4byte	.LASF28
 2414 0170 00       		.byte	0
 2415 0171 09       		.uleb128 0x9
 2416 0172 C7070000 		.4byte	.LASF29
 2417 0176 01       		.byte	0x1
 2418 0177 00       		.byte	0
 2419 0178 0B       		.uleb128 0xb
 2420 0179 EC060000 		.4byte	.LASF30
 2421 017d 06       		.byte	0x6
 2422 017e 9501     		.2byte	0x195
 2423 0180 5E010000 		.4byte	0x15e
 2424 0184 0C       		.uleb128 0xc
 2425 0185 24       		.byte	0x24
ARM GAS  /tmp/ccozkyvL.s 			page 67


 2426 0186 06       		.byte	0x6
 2427 0187 8D03     		.2byte	0x38d
 2428 0189 77020000 		.4byte	0x277
 2429 018d 0D       		.uleb128 0xd
 2430 018e 43523100 		.ascii	"CR1\000"
 2431 0192 06       		.byte	0x6
 2432 0193 8F03     		.2byte	0x38f
 2433 0195 C3000000 		.4byte	0xc3
 2434 0199 00       		.byte	0
 2435 019a 0E       		.uleb128 0xe
 2436 019b 3A020000 		.4byte	.LASF31
 2437 019f 06       		.byte	0x6
 2438 01a0 9003     		.2byte	0x390
 2439 01a2 B8000000 		.4byte	0xb8
 2440 01a6 02       		.byte	0x2
 2441 01a7 0D       		.uleb128 0xd
 2442 01a8 43523200 		.ascii	"CR2\000"
 2443 01ac 06       		.byte	0x6
 2444 01ad 9103     		.2byte	0x391
 2445 01af C3000000 		.4byte	0xc3
 2446 01b3 04       		.byte	0x4
 2447 01b4 0E       		.uleb128 0xe
 2448 01b5 44020000 		.4byte	.LASF32
 2449 01b9 06       		.byte	0x6
 2450 01ba 9203     		.2byte	0x392
 2451 01bc B8000000 		.4byte	0xb8
 2452 01c0 06       		.byte	0x6
 2453 01c1 0E       		.uleb128 0xe
 2454 01c2 69080000 		.4byte	.LASF33
 2455 01c6 06       		.byte	0x6
 2456 01c7 9303     		.2byte	0x393
 2457 01c9 C3000000 		.4byte	0xc3
 2458 01cd 08       		.byte	0x8
 2459 01ce 0E       		.uleb128 0xe
 2460 01cf D1020000 		.4byte	.LASF34
 2461 01d3 06       		.byte	0x6
 2462 01d4 9403     		.2byte	0x394
 2463 01d6 B8000000 		.4byte	0xb8
 2464 01da 0A       		.byte	0xa
 2465 01db 0E       		.uleb128 0xe
 2466 01dc 6E080000 		.4byte	.LASF35
 2467 01e0 06       		.byte	0x6
 2468 01e1 9503     		.2byte	0x395
 2469 01e3 C3000000 		.4byte	0xc3
 2470 01e7 0C       		.byte	0xc
 2471 01e8 0E       		.uleb128 0xe
 2472 01e9 5C020000 		.4byte	.LASF36
 2473 01ed 06       		.byte	0x6
 2474 01ee 9603     		.2byte	0x396
 2475 01f0 B8000000 		.4byte	0xb8
 2476 01f4 0E       		.byte	0xe
 2477 01f5 0D       		.uleb128 0xd
 2478 01f6 445200   		.ascii	"DR\000"
 2479 01f9 06       		.byte	0x6
 2480 01fa 9703     		.2byte	0x397
 2481 01fc C3000000 		.4byte	0xc3
 2482 0200 10       		.byte	0x10
ARM GAS  /tmp/ccozkyvL.s 			page 68


 2483 0201 0E       		.uleb128 0xe
 2484 0202 66020000 		.4byte	.LASF37
 2485 0206 06       		.byte	0x6
 2486 0207 9803     		.2byte	0x398
 2487 0209 B8000000 		.4byte	0xb8
 2488 020d 12       		.byte	0x12
 2489 020e 0D       		.uleb128 0xd
 2490 020f 53523100 		.ascii	"SR1\000"
 2491 0213 06       		.byte	0x6
 2492 0214 9903     		.2byte	0x399
 2493 0216 C3000000 		.4byte	0xc3
 2494 021a 14       		.byte	0x14
 2495 021b 0E       		.uleb128 0xe
 2496 021c 70020000 		.4byte	.LASF38
 2497 0220 06       		.byte	0x6
 2498 0221 9A03     		.2byte	0x39a
 2499 0223 B8000000 		.4byte	0xb8
 2500 0227 16       		.byte	0x16
 2501 0228 0D       		.uleb128 0xd
 2502 0229 53523200 		.ascii	"SR2\000"
 2503 022d 06       		.byte	0x6
 2504 022e 9B03     		.2byte	0x39b
 2505 0230 C3000000 		.4byte	0xc3
 2506 0234 18       		.byte	0x18
 2507 0235 0E       		.uleb128 0xe
 2508 0236 7A020000 		.4byte	.LASF39
 2509 023a 06       		.byte	0x6
 2510 023b 9C03     		.2byte	0x39c
 2511 023d B8000000 		.4byte	0xb8
 2512 0241 1A       		.byte	0x1a
 2513 0242 0D       		.uleb128 0xd
 2514 0243 43435200 		.ascii	"CCR\000"
 2515 0247 06       		.byte	0x6
 2516 0248 9D03     		.2byte	0x39d
 2517 024a C3000000 		.4byte	0xc3
 2518 024e 1C       		.byte	0x1c
 2519 024f 0E       		.uleb128 0xe
 2520 0250 84020000 		.4byte	.LASF40
 2521 0254 06       		.byte	0x6
 2522 0255 9E03     		.2byte	0x39e
 2523 0257 B8000000 		.4byte	0xb8
 2524 025b 1E       		.byte	0x1e
 2525 025c 0E       		.uleb128 0xe
 2526 025d 91040000 		.4byte	.LASF41
 2527 0261 06       		.byte	0x6
 2528 0262 9F03     		.2byte	0x39f
 2529 0264 C3000000 		.4byte	0xc3
 2530 0268 20       		.byte	0x20
 2531 0269 0E       		.uleb128 0xe
 2532 026a 8E020000 		.4byte	.LASF42
 2533 026e 06       		.byte	0x6
 2534 026f A003     		.2byte	0x3a0
 2535 0271 B8000000 		.4byte	0xb8
 2536 0275 22       		.byte	0x22
 2537 0276 00       		.byte	0
 2538 0277 0B       		.uleb128 0xb
 2539 0278 F9070000 		.4byte	.LASF43
ARM GAS  /tmp/ccozkyvL.s 			page 69


 2540 027c 06       		.byte	0x6
 2541 027d A103     		.2byte	0x3a1
 2542 027f 84010000 		.4byte	0x184
 2543 0283 0F       		.uleb128 0xf
 2544 0284 10       		.byte	0x10
 2545 0285 07       		.byte	0x7
 2546 0286 32       		.byte	0x32
 2547 0287 D4020000 		.4byte	0x2d4
 2548 028b 10       		.uleb128 0x10
 2549 028c A4090000 		.4byte	.LASF44
 2550 0290 07       		.byte	0x7
 2551 0291 34       		.byte	0x34
 2552 0292 D8000000 		.4byte	0xd8
 2553 0296 00       		.byte	0
 2554 0297 10       		.uleb128 0x10
 2555 0298 FB000000 		.4byte	.LASF45
 2556 029c 07       		.byte	0x7
 2557 029d 37       		.byte	0x37
 2558 029e B8000000 		.4byte	0xb8
 2559 02a2 04       		.byte	0x4
 2560 02a3 10       		.uleb128 0x10
 2561 02a4 14020000 		.4byte	.LASF46
 2562 02a8 07       		.byte	0x7
 2563 02a9 3A       		.byte	0x3a
 2564 02aa B8000000 		.4byte	0xb8
 2565 02ae 06       		.byte	0x6
 2566 02af 10       		.uleb128 0x10
 2567 02b0 EF040000 		.4byte	.LASF47
 2568 02b4 07       		.byte	0x7
 2569 02b5 3D       		.byte	0x3d
 2570 02b6 B8000000 		.4byte	0xb8
 2571 02ba 08       		.byte	0x8
 2572 02bb 10       		.uleb128 0x10
 2573 02bc 00070000 		.4byte	.LASF48
 2574 02c0 07       		.byte	0x7
 2575 02c1 40       		.byte	0x40
 2576 02c2 B8000000 		.4byte	0xb8
 2577 02c6 0A       		.byte	0xa
 2578 02c7 10       		.uleb128 0x10
 2579 02c8 35040000 		.4byte	.LASF49
 2580 02cc 07       		.byte	0x7
 2581 02cd 43       		.byte	0x43
 2582 02ce B8000000 		.4byte	0xb8
 2583 02d2 0C       		.byte	0xc
 2584 02d3 00       		.byte	0
 2585 02d4 03       		.uleb128 0x3
 2586 02d5 6B030000 		.4byte	.LASF50
 2587 02d9 07       		.byte	0x7
 2588 02da 45       		.byte	0x45
 2589 02db 83020000 		.4byte	0x283
 2590 02df 0F       		.uleb128 0xf
 2591 02e0 14       		.byte	0x14
 2592 02e1 08       		.byte	0x8
 2593 02e2 2E       		.byte	0x2e
 2594 02e3 24030000 		.4byte	0x324
 2595 02e7 10       		.uleb128 0x10
 2596 02e8 390A0000 		.4byte	.LASF51
ARM GAS  /tmp/ccozkyvL.s 			page 70


 2597 02ec 08       		.byte	0x8
 2598 02ed 30       		.byte	0x30
 2599 02ee D8000000 		.4byte	0xd8
 2600 02f2 00       		.byte	0
 2601 02f3 10       		.uleb128 0x10
 2602 02f4 AA000000 		.4byte	.LASF52
 2603 02f8 08       		.byte	0x8
 2604 02f9 31       		.byte	0x31
 2605 02fa D8000000 		.4byte	0xd8
 2606 02fe 04       		.byte	0x4
 2607 02ff 10       		.uleb128 0x10
 2608 0300 5B030000 		.4byte	.LASF53
 2609 0304 08       		.byte	0x8
 2610 0305 32       		.byte	0x32
 2611 0306 D8000000 		.4byte	0xd8
 2612 030a 08       		.byte	0x8
 2613 030b 10       		.uleb128 0x10
 2614 030c 44030000 		.4byte	.LASF54
 2615 0310 08       		.byte	0x8
 2616 0311 33       		.byte	0x33
 2617 0312 D8000000 		.4byte	0xd8
 2618 0316 0C       		.byte	0xc
 2619 0317 10       		.uleb128 0x10
 2620 0318 41010000 		.4byte	.LASF55
 2621 031c 08       		.byte	0x8
 2622 031d 34       		.byte	0x34
 2623 031e D8000000 		.4byte	0xd8
 2624 0322 10       		.byte	0x10
 2625 0323 00       		.byte	0
 2626 0324 03       		.uleb128 0x3
 2627 0325 AC080000 		.4byte	.LASF56
 2628 0329 08       		.byte	0x8
 2629 032a 35       		.byte	0x35
 2630 032b DF020000 		.4byte	0x2df
 2631 032f 11       		.uleb128 0x11
 2632 0330 12       		.uleb128 0x12
 2633 0331 04       		.byte	0x4
 2634 0332 2F030000 		.4byte	0x32f
 2635 0336 13       		.uleb128 0x13
 2636 0337 49000000 		.4byte	0x49
 2637 033b 46030000 		.4byte	0x346
 2638 033f 14       		.uleb128 0x14
 2639 0340 E8000000 		.4byte	0xe8
 2640 0344 02       		.byte	0x2
 2641 0345 00       		.byte	0
 2642 0346 06       		.uleb128 0x6
 2643 0347 FB020000 		.4byte	.LASF57
 2644 034b 09       		.byte	0x9
 2645 034c 6301     		.2byte	0x163
 2646 034e 36030000 		.4byte	0x336
 2647 0352 06       		.uleb128 0x6
 2648 0353 66090000 		.4byte	.LASF58
 2649 0357 09       		.byte	0x9
 2650 0358 6301     		.2byte	0x163
 2651 035a 36030000 		.4byte	0x336
 2652 035e 06       		.uleb128 0x6
 2653 035f 76090000 		.4byte	.LASF59
ARM GAS  /tmp/ccozkyvL.s 			page 71


 2654 0363 09       		.byte	0x9
 2655 0364 6401     		.2byte	0x164
 2656 0366 AD000000 		.4byte	0xad
 2657 036a 06       		.uleb128 0x6
 2658 036b 70050000 		.4byte	.LASF60
 2659 036f 09       		.byte	0x9
 2660 0370 6401     		.2byte	0x164
 2661 0372 AD000000 		.4byte	0xad
 2662 0376 06       		.uleb128 0x6
 2663 0377 8C010000 		.4byte	.LASF61
 2664 037b 09       		.byte	0x9
 2665 037c 6401     		.2byte	0x164
 2666 037e AD000000 		.4byte	0xad
 2667 0382 06       		.uleb128 0x6
 2668 0383 97040000 		.4byte	.LASF62
 2669 0387 09       		.byte	0x9
 2670 0388 6501     		.2byte	0x165
 2671 038a 8E030000 		.4byte	0x38e
 2672 038e 02       		.uleb128 0x2
 2673 038f 04       		.byte	0x4
 2674 0390 04       		.byte	0x4
 2675 0391 E9050000 		.4byte	.LASF63
 2676 0395 06       		.uleb128 0x6
 2677 0396 B3090000 		.4byte	.LASF64
 2678 039a 09       		.byte	0x9
 2679 039b 6601     		.2byte	0x166
 2680 039d 8E030000 		.4byte	0x38e
 2681 03a1 06       		.uleb128 0x6
 2682 03a2 AB040000 		.4byte	.LASF65
 2683 03a6 09       		.byte	0x9
 2684 03a7 6601     		.2byte	0x166
 2685 03a9 8E030000 		.4byte	0x38e
 2686 03ad 15       		.uleb128 0x15
 2687 03ae 59617700 		.ascii	"Yaw\000"
 2688 03b2 09       		.byte	0x9
 2689 03b3 6601     		.2byte	0x166
 2690 03b5 8E030000 		.4byte	0x38e
 2691 03b9 02       		.uleb128 0x2
 2692 03ba 08       		.byte	0x8
 2693 03bb 04       		.byte	0x4
 2694 03bc CA060000 		.4byte	.LASF66
 2695 03c0 03       		.uleb128 0x3
 2696 03c1 78040000 		.4byte	.LASF67
 2697 03c5 0A       		.byte	0xa
 2698 03c6 07       		.byte	0x7
 2699 03c7 94000000 		.4byte	0x94
 2700 03cb 03       		.uleb128 0x3
 2701 03cc D2090000 		.4byte	.LASF68
 2702 03d0 0B       		.byte	0xb
 2703 03d1 2C       		.byte	0x2c
 2704 03d2 6D000000 		.4byte	0x6d
 2705 03d6 03       		.uleb128 0x3
 2706 03d7 F8060000 		.4byte	.LASF69
 2707 03db 0B       		.byte	0xb
 2708 03dc 72       		.byte	0x72
 2709 03dd 6D000000 		.4byte	0x6d
 2710 03e1 0B       		.uleb128 0xb
ARM GAS  /tmp/ccozkyvL.s 			page 72


 2711 03e2 44080000 		.4byte	.LASF70
 2712 03e6 0C       		.byte	0xc
 2713 03e7 6501     		.2byte	0x165
 2714 03e9 9B000000 		.4byte	0x9b
 2715 03ed 16       		.uleb128 0x16
 2716 03ee 04       		.byte	0x4
 2717 03ef 0B       		.byte	0xb
 2718 03f0 A6       		.byte	0xa6
 2719 03f1 0C040000 		.4byte	0x40c
 2720 03f5 17       		.uleb128 0x17
 2721 03f6 31010000 		.4byte	.LASF71
 2722 03fa 0B       		.byte	0xb
 2723 03fb A8       		.byte	0xa8
 2724 03fc E1030000 		.4byte	0x3e1
 2725 0400 17       		.uleb128 0x17
 2726 0401 08070000 		.4byte	.LASF72
 2727 0405 0B       		.byte	0xb
 2728 0406 A9       		.byte	0xa9
 2729 0407 0C040000 		.4byte	0x40c
 2730 040b 00       		.byte	0
 2731 040c 13       		.uleb128 0x13
 2732 040d 37000000 		.4byte	0x37
 2733 0411 1C040000 		.4byte	0x41c
 2734 0415 14       		.uleb128 0x14
 2735 0416 E8000000 		.4byte	0xe8
 2736 041a 03       		.byte	0x3
 2737 041b 00       		.byte	0
 2738 041c 0F       		.uleb128 0xf
 2739 041d 08       		.byte	0x8
 2740 041e 0B       		.byte	0xb
 2741 041f A3       		.byte	0xa3
 2742 0420 3D040000 		.4byte	0x43d
 2743 0424 10       		.uleb128 0x10
 2744 0425 96060000 		.4byte	.LASF73
 2745 0429 0B       		.byte	0xb
 2746 042a A5       		.byte	0xa5
 2747 042b 94000000 		.4byte	0x94
 2748 042f 00       		.byte	0
 2749 0430 10       		.uleb128 0x10
 2750 0431 37000000 		.4byte	.LASF74
 2751 0435 0B       		.byte	0xb
 2752 0436 AA       		.byte	0xaa
 2753 0437 ED030000 		.4byte	0x3ed
 2754 043b 04       		.byte	0x4
 2755 043c 00       		.byte	0
 2756 043d 03       		.uleb128 0x3
 2757 043e 34080000 		.4byte	.LASF75
 2758 0442 0B       		.byte	0xb
 2759 0443 AB       		.byte	0xab
 2760 0444 1C040000 		.4byte	0x41c
 2761 0448 03       		.uleb128 0x3
 2762 0449 14080000 		.4byte	.LASF76
 2763 044d 0B       		.byte	0xb
 2764 044e AF       		.byte	0xaf
 2765 044f C0030000 		.4byte	0x3c0
 2766 0453 18       		.uleb128 0x18
 2767 0454 04       		.byte	0x4
ARM GAS  /tmp/ccozkyvL.s 			page 73


 2768 0455 12       		.uleb128 0x12
 2769 0456 04       		.byte	0x4
 2770 0457 5B040000 		.4byte	0x45b
 2771 045b 02       		.uleb128 0x2
 2772 045c 01       		.byte	0x1
 2773 045d 08       		.byte	0x8
 2774 045e E0020000 		.4byte	.LASF77
 2775 0462 19       		.uleb128 0x19
 2776 0463 5B040000 		.4byte	0x45b
 2777 0467 03       		.uleb128 0x3
 2778 0468 B9090000 		.4byte	.LASF78
 2779 046c 0D       		.byte	0xd
 2780 046d 16       		.byte	0x16
 2781 046e 7F000000 		.4byte	0x7f
 2782 0472 1A       		.uleb128 0x1a
 2783 0473 E7040000 		.4byte	.LASF83
 2784 0477 18       		.byte	0x18
 2785 0478 0D       		.byte	0xd
 2786 0479 2D       		.byte	0x2d
 2787 047a C5040000 		.4byte	0x4c5
 2788 047e 10       		.uleb128 0x10
 2789 047f 4B080000 		.4byte	.LASF79
 2790 0483 0D       		.byte	0xd
 2791 0484 2F       		.byte	0x2f
 2792 0485 C5040000 		.4byte	0x4c5
 2793 0489 00       		.byte	0
 2794 048a 1B       		.uleb128 0x1b
 2795 048b 5F6B00   		.ascii	"_k\000"
 2796 048e 0D       		.byte	0xd
 2797 048f 30       		.byte	0x30
 2798 0490 94000000 		.4byte	0x94
 2799 0494 04       		.byte	0x4
 2800 0495 10       		.uleb128 0x10
 2801 0496 FF040000 		.4byte	.LASF80
 2802 049a 0D       		.byte	0xd
 2803 049b 30       		.byte	0x30
 2804 049c 94000000 		.4byte	0x94
 2805 04a0 08       		.byte	0x8
 2806 04a1 10       		.uleb128 0x10
 2807 04a2 DA050000 		.4byte	.LASF81
 2808 04a6 0D       		.byte	0xd
 2809 04a7 30       		.byte	0x30
 2810 04a8 94000000 		.4byte	0x94
 2811 04ac 0C       		.byte	0xc
 2812 04ad 10       		.uleb128 0x10
 2813 04ae DF030000 		.4byte	.LASF82
 2814 04b2 0D       		.byte	0xd
 2815 04b3 30       		.byte	0x30
 2816 04b4 94000000 		.4byte	0x94
 2817 04b8 10       		.byte	0x10
 2818 04b9 1B       		.uleb128 0x1b
 2819 04ba 5F7800   		.ascii	"_x\000"
 2820 04bd 0D       		.byte	0xd
 2821 04be 31       		.byte	0x31
 2822 04bf CB040000 		.4byte	0x4cb
 2823 04c3 14       		.byte	0x14
 2824 04c4 00       		.byte	0
ARM GAS  /tmp/ccozkyvL.s 			page 74


 2825 04c5 12       		.uleb128 0x12
 2826 04c6 04       		.byte	0x4
 2827 04c7 72040000 		.4byte	0x472
 2828 04cb 13       		.uleb128 0x13
 2829 04cc 67040000 		.4byte	0x467
 2830 04d0 DB040000 		.4byte	0x4db
 2831 04d4 14       		.uleb128 0x14
 2832 04d5 E8000000 		.4byte	0xe8
 2833 04d9 00       		.byte	0
 2834 04da 00       		.byte	0
 2835 04db 1A       		.uleb128 0x1a
 2836 04dc 85000000 		.4byte	.LASF84
 2837 04e0 24       		.byte	0x24
 2838 04e1 0D       		.byte	0xd
 2839 04e2 35       		.byte	0x35
 2840 04e3 54050000 		.4byte	0x554
 2841 04e7 10       		.uleb128 0x10
 2842 04e8 A1000000 		.4byte	.LASF85
 2843 04ec 0D       		.byte	0xd
 2844 04ed 37       		.byte	0x37
 2845 04ee 94000000 		.4byte	0x94
 2846 04f2 00       		.byte	0
 2847 04f3 10       		.uleb128 0x10
 2848 04f4 C90A0000 		.4byte	.LASF86
 2849 04f8 0D       		.byte	0xd
 2850 04f9 38       		.byte	0x38
 2851 04fa 94000000 		.4byte	0x94
 2852 04fe 04       		.byte	0x4
 2853 04ff 10       		.uleb128 0x10
 2854 0500 2F0A0000 		.4byte	.LASF87
 2855 0504 0D       		.byte	0xd
 2856 0505 39       		.byte	0x39
 2857 0506 94000000 		.4byte	0x94
 2858 050a 08       		.byte	0x8
 2859 050b 10       		.uleb128 0x10
 2860 050c 30060000 		.4byte	.LASF88
 2861 0510 0D       		.byte	0xd
 2862 0511 3A       		.byte	0x3a
 2863 0512 94000000 		.4byte	0x94
 2864 0516 0C       		.byte	0xc
 2865 0517 10       		.uleb128 0x10
 2866 0518 D8010000 		.4byte	.LASF89
 2867 051c 0D       		.byte	0xd
 2868 051d 3B       		.byte	0x3b
 2869 051e 94000000 		.4byte	0x94
 2870 0522 10       		.byte	0x10
 2871 0523 10       		.uleb128 0x10
 2872 0524 53090000 		.4byte	.LASF90
 2873 0528 0D       		.byte	0xd
 2874 0529 3C       		.byte	0x3c
 2875 052a 94000000 		.4byte	0x94
 2876 052e 14       		.byte	0x14
 2877 052f 10       		.uleb128 0x10
 2878 0530 AF060000 		.4byte	.LASF91
 2879 0534 0D       		.byte	0xd
 2880 0535 3D       		.byte	0x3d
 2881 0536 94000000 		.4byte	0x94
ARM GAS  /tmp/ccozkyvL.s 			page 75


 2882 053a 18       		.byte	0x18
 2883 053b 10       		.uleb128 0x10
 2884 053c D6060000 		.4byte	.LASF92
 2885 0540 0D       		.byte	0xd
 2886 0541 3E       		.byte	0x3e
 2887 0542 94000000 		.4byte	0x94
 2888 0546 1C       		.byte	0x1c
 2889 0547 10       		.uleb128 0x10
 2890 0548 AF0A0000 		.4byte	.LASF93
 2891 054c 0D       		.byte	0xd
 2892 054d 3F       		.byte	0x3f
 2893 054e 94000000 		.4byte	0x94
 2894 0552 20       		.byte	0x20
 2895 0553 00       		.byte	0
 2896 0554 1C       		.uleb128 0x1c
 2897 0555 6A010000 		.4byte	.LASF94
 2898 0559 0801     		.2byte	0x108
 2899 055b 0D       		.byte	0xd
 2900 055c 48       		.byte	0x48
 2901 055d 94050000 		.4byte	0x594
 2902 0561 10       		.uleb128 0x10
 2903 0562 980A0000 		.4byte	.LASF95
 2904 0566 0D       		.byte	0xd
 2905 0567 49       		.byte	0x49
 2906 0568 94050000 		.4byte	0x594
 2907 056c 00       		.byte	0
 2908 056d 10       		.uleb128 0x10
 2909 056e 70070000 		.4byte	.LASF96
 2910 0572 0D       		.byte	0xd
 2911 0573 4A       		.byte	0x4a
 2912 0574 94050000 		.4byte	0x594
 2913 0578 80       		.byte	0x80
 2914 0579 1D       		.uleb128 0x1d
 2915 057a 16090000 		.4byte	.LASF97
 2916 057e 0D       		.byte	0xd
 2917 057f 4C       		.byte	0x4c
 2918 0580 67040000 		.4byte	0x467
 2919 0584 0001     		.2byte	0x100
 2920 0586 1D       		.uleb128 0x1d
 2921 0587 95090000 		.4byte	.LASF98
 2922 058b 0D       		.byte	0xd
 2923 058c 4F       		.byte	0x4f
 2924 058d 67040000 		.4byte	0x467
 2925 0591 0401     		.2byte	0x104
 2926 0593 00       		.byte	0
 2927 0594 13       		.uleb128 0x13
 2928 0595 53040000 		.4byte	0x453
 2929 0599 A4050000 		.4byte	0x5a4
 2930 059d 14       		.uleb128 0x14
 2931 059e E8000000 		.4byte	0xe8
 2932 05a2 1F       		.byte	0x1f
 2933 05a3 00       		.byte	0
 2934 05a4 1C       		.uleb128 0x1c
 2935 05a5 8E060000 		.4byte	.LASF99
 2936 05a9 9001     		.2byte	0x190
 2937 05ab 0D       		.byte	0xd
 2938 05ac 5B       		.byte	0x5b
ARM GAS  /tmp/ccozkyvL.s 			page 76


 2939 05ad E2050000 		.4byte	0x5e2
 2940 05b1 10       		.uleb128 0x10
 2941 05b2 4B080000 		.4byte	.LASF79
 2942 05b6 0D       		.byte	0xd
 2943 05b7 5C       		.byte	0x5c
 2944 05b8 E2050000 		.4byte	0x5e2
 2945 05bc 00       		.byte	0
 2946 05bd 10       		.uleb128 0x10
 2947 05be 71090000 		.4byte	.LASF100
 2948 05c2 0D       		.byte	0xd
 2949 05c3 5D       		.byte	0x5d
 2950 05c4 94000000 		.4byte	0x94
 2951 05c8 04       		.byte	0x4
 2952 05c9 10       		.uleb128 0x10
 2953 05ca F6020000 		.4byte	.LASF101
 2954 05ce 0D       		.byte	0xd
 2955 05cf 5F       		.byte	0x5f
 2956 05d0 E8050000 		.4byte	0x5e8
 2957 05d4 08       		.byte	0x8
 2958 05d5 10       		.uleb128 0x10
 2959 05d6 6A010000 		.4byte	.LASF94
 2960 05da 0D       		.byte	0xd
 2961 05db 60       		.byte	0x60
 2962 05dc 54050000 		.4byte	0x554
 2963 05e0 88       		.byte	0x88
 2964 05e1 00       		.byte	0
 2965 05e2 12       		.uleb128 0x12
 2966 05e3 04       		.byte	0x4
 2967 05e4 A4050000 		.4byte	0x5a4
 2968 05e8 13       		.uleb128 0x13
 2969 05e9 30030000 		.4byte	0x330
 2970 05ed F8050000 		.4byte	0x5f8
 2971 05f1 14       		.uleb128 0x14
 2972 05f2 E8000000 		.4byte	0xe8
 2973 05f6 1F       		.byte	0x1f
 2974 05f7 00       		.byte	0
 2975 05f8 1A       		.uleb128 0x1a
 2976 05f9 8E090000 		.4byte	.LASF102
 2977 05fd 08       		.byte	0x8
 2978 05fe 0D       		.byte	0xd
 2979 05ff 73       		.byte	0x73
 2980 0600 1D060000 		.4byte	0x61d
 2981 0604 10       		.uleb128 0x10
 2982 0605 C1070000 		.4byte	.LASF103
 2983 0609 0D       		.byte	0xd
 2984 060a 74       		.byte	0x74
 2985 060b 1D060000 		.4byte	0x61d
 2986 060f 00       		.byte	0
 2987 0610 10       		.uleb128 0x10
 2988 0611 C3010000 		.4byte	.LASF104
 2989 0615 0D       		.byte	0xd
 2990 0616 75       		.byte	0x75
 2991 0617 94000000 		.4byte	0x94
 2992 061b 04       		.byte	0x4
 2993 061c 00       		.byte	0
 2994 061d 12       		.uleb128 0x12
 2995 061e 04       		.byte	0x4
ARM GAS  /tmp/ccozkyvL.s 			page 77


 2996 061f 37000000 		.4byte	0x37
 2997 0623 1A       		.uleb128 0x1a
 2998 0624 4D040000 		.4byte	.LASF105
 2999 0628 68       		.byte	0x68
 3000 0629 0D       		.byte	0xd
 3001 062a B3       		.byte	0xb3
 3002 062b 4D070000 		.4byte	0x74d
 3003 062f 1B       		.uleb128 0x1b
 3004 0630 5F7000   		.ascii	"_p\000"
 3005 0633 0D       		.byte	0xd
 3006 0634 B4       		.byte	0xb4
 3007 0635 1D060000 		.4byte	0x61d
 3008 0639 00       		.byte	0
 3009 063a 1B       		.uleb128 0x1b
 3010 063b 5F7200   		.ascii	"_r\000"
 3011 063e 0D       		.byte	0xd
 3012 063f B5       		.byte	0xb5
 3013 0640 94000000 		.4byte	0x94
 3014 0644 04       		.byte	0x4
 3015 0645 1B       		.uleb128 0x1b
 3016 0646 5F7700   		.ascii	"_w\000"
 3017 0649 0D       		.byte	0xd
 3018 064a B6       		.byte	0xb6
 3019 064b 94000000 		.4byte	0x94
 3020 064f 08       		.byte	0x8
 3021 0650 10       		.uleb128 0x10
 3022 0651 87060000 		.4byte	.LASF106
 3023 0655 0D       		.byte	0xd
 3024 0656 B7       		.byte	0xb7
 3025 0657 49000000 		.4byte	0x49
 3026 065b 0C       		.byte	0xc
 3027 065c 10       		.uleb128 0x10
 3028 065d 52010000 		.4byte	.LASF107
 3029 0661 0D       		.byte	0xd
 3030 0662 B8       		.byte	0xb8
 3031 0663 49000000 		.4byte	0x49
 3032 0667 0E       		.byte	0xe
 3033 0668 1B       		.uleb128 0x1b
 3034 0669 5F626600 		.ascii	"_bf\000"
 3035 066d 0D       		.byte	0xd
 3036 066e B9       		.byte	0xb9
 3037 066f F8050000 		.4byte	0x5f8
 3038 0673 10       		.byte	0x10
 3039 0674 10       		.uleb128 0x10
 3040 0675 5D090000 		.4byte	.LASF108
 3041 0679 0D       		.byte	0xd
 3042 067a BA       		.byte	0xba
 3043 067b 94000000 		.4byte	0x94
 3044 067f 18       		.byte	0x18
 3045 0680 10       		.uleb128 0x10
 3046 0681 BF030000 		.4byte	.LASF109
 3047 0685 0D       		.byte	0xd
 3048 0686 C1       		.byte	0xc1
 3049 0687 53040000 		.4byte	0x453
 3050 068b 1C       		.byte	0x1c
 3051 068c 10       		.uleb128 0x10
 3052 068d 44000000 		.4byte	.LASF110
ARM GAS  /tmp/ccozkyvL.s 			page 78


 3053 0691 0D       		.byte	0xd
 3054 0692 C3       		.byte	0xc3
 3055 0693 A8080000 		.4byte	0x8a8
 3056 0697 20       		.byte	0x20
 3057 0698 10       		.uleb128 0x10
 3058 0699 59000000 		.4byte	.LASF111
 3059 069d 0D       		.byte	0xd
 3060 069e C5       		.byte	0xc5
 3061 069f D2080000 		.4byte	0x8d2
 3062 06a3 24       		.byte	0x24
 3063 06a4 10       		.uleb128 0x10
 3064 06a5 E6060000 		.4byte	.LASF112
 3065 06a9 0D       		.byte	0xd
 3066 06aa C8       		.byte	0xc8
 3067 06ab F6080000 		.4byte	0x8f6
 3068 06af 28       		.byte	0x28
 3069 06b0 10       		.uleb128 0x10
 3070 06b1 0C030000 		.4byte	.LASF113
 3071 06b5 0D       		.byte	0xd
 3072 06b6 C9       		.byte	0xc9
 3073 06b7 10090000 		.4byte	0x910
 3074 06bb 2C       		.byte	0x2c
 3075 06bc 1B       		.uleb128 0x1b
 3076 06bd 5F756200 		.ascii	"_ub\000"
 3077 06c1 0D       		.byte	0xd
 3078 06c2 CC       		.byte	0xcc
 3079 06c3 F8050000 		.4byte	0x5f8
 3080 06c7 30       		.byte	0x30
 3081 06c8 1B       		.uleb128 0x1b
 3082 06c9 5F757000 		.ascii	"_up\000"
 3083 06cd 0D       		.byte	0xd
 3084 06ce CD       		.byte	0xcd
 3085 06cf 1D060000 		.4byte	0x61d
 3086 06d3 38       		.byte	0x38
 3087 06d4 1B       		.uleb128 0x1b
 3088 06d5 5F757200 		.ascii	"_ur\000"
 3089 06d9 0D       		.byte	0xd
 3090 06da CE       		.byte	0xce
 3091 06db 94000000 		.4byte	0x94
 3092 06df 3C       		.byte	0x3c
 3093 06e0 10       		.uleb128 0x10
 3094 06e1 3F060000 		.4byte	.LASF114
 3095 06e5 0D       		.byte	0xd
 3096 06e6 D1       		.byte	0xd1
 3097 06e7 16090000 		.4byte	0x916
 3098 06eb 40       		.byte	0x40
 3099 06ec 10       		.uleb128 0x10
 3100 06ed 9B000000 		.4byte	.LASF115
 3101 06f1 0D       		.byte	0xd
 3102 06f2 D2       		.byte	0xd2
 3103 06f3 26090000 		.4byte	0x926
 3104 06f7 43       		.byte	0x43
 3105 06f8 1B       		.uleb128 0x1b
 3106 06f9 5F6C6200 		.ascii	"_lb\000"
 3107 06fd 0D       		.byte	0xd
 3108 06fe D5       		.byte	0xd5
 3109 06ff F8050000 		.4byte	0x5f8
ARM GAS  /tmp/ccozkyvL.s 			page 79


 3110 0703 44       		.byte	0x44
 3111 0704 10       		.uleb128 0x10
 3112 0705 B8070000 		.4byte	.LASF116
 3113 0709 0D       		.byte	0xd
 3114 070a D8       		.byte	0xd8
 3115 070b 94000000 		.4byte	0x94
 3116 070f 4C       		.byte	0x4c
 3117 0710 10       		.uleb128 0x10
 3118 0711 EE030000 		.4byte	.LASF117
 3119 0715 0D       		.byte	0xd
 3120 0716 D9       		.byte	0xd9
 3121 0717 CB030000 		.4byte	0x3cb
 3122 071b 50       		.byte	0x50
 3123 071c 10       		.uleb128 0x10
 3124 071d 58080000 		.4byte	.LASF118
 3125 0721 0D       		.byte	0xd
 3126 0722 DC       		.byte	0xdc
 3127 0723 6B070000 		.4byte	0x76b
 3128 0727 54       		.byte	0x54
 3129 0728 10       		.uleb128 0x10
 3130 0729 C3000000 		.4byte	.LASF119
 3131 072d 0D       		.byte	0xd
 3132 072e E0       		.byte	0xe0
 3133 072f 48040000 		.4byte	0x448
 3134 0733 58       		.byte	0x58
 3135 0734 10       		.uleb128 0x10
 3136 0735 5B060000 		.4byte	.LASF120
 3137 0739 0D       		.byte	0xd
 3138 073a E2       		.byte	0xe2
 3139 073b 3D040000 		.4byte	0x43d
 3140 073f 5C       		.byte	0x5c
 3141 0740 10       		.uleb128 0x10
 3142 0741 60040000 		.4byte	.LASF121
 3143 0745 0D       		.byte	0xd
 3144 0746 E3       		.byte	0xe3
 3145 0747 94000000 		.4byte	0x94
 3146 074b 64       		.byte	0x64
 3147 074c 00       		.byte	0
 3148 074d 1E       		.uleb128 0x1e
 3149 074e 94000000 		.4byte	0x94
 3150 0752 6B070000 		.4byte	0x76b
 3151 0756 1F       		.uleb128 0x1f
 3152 0757 6B070000 		.4byte	0x76b
 3153 075b 1F       		.uleb128 0x1f
 3154 075c 53040000 		.4byte	0x453
 3155 0760 1F       		.uleb128 0x1f
 3156 0761 55040000 		.4byte	0x455
 3157 0765 1F       		.uleb128 0x1f
 3158 0766 94000000 		.4byte	0x94
 3159 076a 00       		.byte	0
 3160 076b 12       		.uleb128 0x12
 3161 076c 04       		.byte	0x4
 3162 076d 76070000 		.4byte	0x776
 3163 0771 19       		.uleb128 0x19
 3164 0772 6B070000 		.4byte	0x76b
 3165 0776 20       		.uleb128 0x20
 3166 0777 98020000 		.4byte	.LASF122
ARM GAS  /tmp/ccozkyvL.s 			page 80


 3167 077b 2804     		.2byte	0x428
 3168 077d 0D       		.byte	0xd
 3169 077e 3802     		.2byte	0x238
 3170 0780 A8080000 		.4byte	0x8a8
 3171 0784 0E       		.uleb128 0xe
 3172 0785 8A040000 		.4byte	.LASF123
 3173 0789 0D       		.byte	0xd
 3174 078a 3A02     		.2byte	0x23a
 3175 078c 94000000 		.4byte	0x94
 3176 0790 00       		.byte	0
 3177 0791 0E       		.uleb128 0xe
 3178 0792 54030000 		.4byte	.LASF124
 3179 0796 0D       		.byte	0xd
 3180 0797 3F02     		.2byte	0x23f
 3181 0799 7D090000 		.4byte	0x97d
 3182 079d 04       		.byte	0x4
 3183 079e 0E       		.uleb128 0xe
 3184 079f 84070000 		.4byte	.LASF125
 3185 07a3 0D       		.byte	0xd
 3186 07a4 3F02     		.2byte	0x23f
 3187 07a6 7D090000 		.4byte	0x97d
 3188 07aa 08       		.byte	0x8
 3189 07ab 0E       		.uleb128 0xe
 3190 07ac 45060000 		.4byte	.LASF126
 3191 07b0 0D       		.byte	0xd
 3192 07b1 3F02     		.2byte	0x23f
 3193 07b3 7D090000 		.4byte	0x97d
 3194 07b7 0C       		.byte	0xc
 3195 07b8 0E       		.uleb128 0xe
 3196 07b9 6C090000 		.4byte	.LASF127
 3197 07bd 0D       		.byte	0xd
 3198 07be 4102     		.2byte	0x241
 3199 07c0 94000000 		.4byte	0x94
 3200 07c4 10       		.byte	0x10
 3201 07c5 0E       		.uleb128 0xe
 3202 07c6 33050000 		.4byte	.LASF128
 3203 07ca 0D       		.byte	0xd
 3204 07cb 4202     		.2byte	0x242
 3205 07cd 5F0B0000 		.4byte	0xb5f
 3206 07d1 14       		.byte	0x14
 3207 07d2 0E       		.uleb128 0xe
 3208 07d3 E1010000 		.4byte	.LASF129
 3209 07d7 0D       		.byte	0xd
 3210 07d8 4402     		.2byte	0x244
 3211 07da 94000000 		.4byte	0x94
 3212 07de 30       		.byte	0x30
 3213 07df 0E       		.uleb128 0xe
 3214 07e0 A7050000 		.4byte	.LASF130
 3215 07e4 0D       		.byte	0xd
 3216 07e5 4502     		.2byte	0x245
 3217 07e7 CC080000 		.4byte	0x8cc
 3218 07eb 34       		.byte	0x34
 3219 07ec 0E       		.uleb128 0xe
 3220 07ed 55040000 		.4byte	.LASF131
 3221 07f1 0D       		.byte	0xd
 3222 07f2 4702     		.2byte	0x247
 3223 07f4 94000000 		.4byte	0x94
ARM GAS  /tmp/ccozkyvL.s 			page 81


 3224 07f8 38       		.byte	0x38
 3225 07f9 0E       		.uleb128 0xe
 3226 07fa 07050000 		.4byte	.LASF132
 3227 07fe 0D       		.byte	0xd
 3228 07ff 4902     		.2byte	0x249
 3229 0801 7A0B0000 		.4byte	0xb7a
 3230 0805 3C       		.byte	0x3c
 3231 0806 0E       		.uleb128 0xe
 3232 0807 CA090000 		.4byte	.LASF133
 3233 080b 0D       		.byte	0xd
 3234 080c 4C02     		.2byte	0x24c
 3235 080e C5040000 		.4byte	0x4c5
 3236 0812 40       		.byte	0x40
 3237 0813 0E       		.uleb128 0xe
 3238 0814 B9010000 		.4byte	.LASF134
 3239 0818 0D       		.byte	0xd
 3240 0819 4D02     		.2byte	0x24d
 3241 081b 94000000 		.4byte	0x94
 3242 081f 44       		.byte	0x44
 3243 0820 0E       		.uleb128 0xe
 3244 0821 1E040000 		.4byte	.LASF135
 3245 0825 0D       		.byte	0xd
 3246 0826 4E02     		.2byte	0x24e
 3247 0828 C5040000 		.4byte	0x4c5
 3248 082c 48       		.byte	0x48
 3249 082d 0E       		.uleb128 0xe
 3250 082e B7050000 		.4byte	.LASF136
 3251 0832 0D       		.byte	0xd
 3252 0833 4F02     		.2byte	0x24f
 3253 0835 800B0000 		.4byte	0xb80
 3254 0839 4C       		.byte	0x4c
 3255 083a 0E       		.uleb128 0xe
 3256 083b 75000000 		.4byte	.LASF137
 3257 083f 0D       		.byte	0xd
 3258 0840 5202     		.2byte	0x252
 3259 0842 94000000 		.4byte	0x94
 3260 0846 50       		.byte	0x50
 3261 0847 0E       		.uleb128 0xe
 3262 0848 F6030000 		.4byte	.LASF138
 3263 084c 0D       		.byte	0xd
 3264 084d 5302     		.2byte	0x253
 3265 084f 55040000 		.4byte	0x455
 3266 0853 54       		.byte	0x54
 3267 0854 0E       		.uleb128 0xe
 3268 0855 3A060000 		.4byte	.LASF139
 3269 0859 0D       		.byte	0xd
 3270 085a 7602     		.2byte	0x276
 3271 085c 3D0B0000 		.4byte	0xb3d
 3272 0860 58       		.byte	0x58
 3273 0861 21       		.uleb128 0x21
 3274 0862 8E060000 		.4byte	.LASF99
 3275 0866 0D       		.byte	0xd
 3276 0867 7A02     		.2byte	0x27a
 3277 0869 E2050000 		.4byte	0x5e2
 3278 086d 4801     		.2byte	0x148
 3279 086f 21       		.uleb128 0x21
 3280 0870 11050000 		.4byte	.LASF140
ARM GAS  /tmp/ccozkyvL.s 			page 82


 3281 0874 0D       		.byte	0xd
 3282 0875 7B02     		.2byte	0x27b
 3283 0877 A4050000 		.4byte	0x5a4
 3284 087b 4C01     		.2byte	0x14c
 3285 087d 21       		.uleb128 0x21
 3286 087e E4030000 		.4byte	.LASF141
 3287 0882 0D       		.byte	0xd
 3288 0883 7F02     		.2byte	0x27f
 3289 0885 910B0000 		.4byte	0xb91
 3290 0889 DC02     		.2byte	0x2dc
 3291 088b 21       		.uleb128 0x21
 3292 088c 7A050000 		.4byte	.LASF142
 3293 0890 0D       		.byte	0xd
 3294 0891 8402     		.2byte	0x284
 3295 0893 42090000 		.4byte	0x942
 3296 0897 E002     		.2byte	0x2e0
 3297 0899 21       		.uleb128 0x21
 3298 089a 3F000000 		.4byte	.LASF143
 3299 089e 0D       		.byte	0xd
 3300 089f 8502     		.2byte	0x285
 3301 08a1 9D0B0000 		.4byte	0xb9d
 3302 08a5 EC02     		.2byte	0x2ec
 3303 08a7 00       		.byte	0
 3304 08a8 12       		.uleb128 0x12
 3305 08a9 04       		.byte	0x4
 3306 08aa 4D070000 		.4byte	0x74d
 3307 08ae 1E       		.uleb128 0x1e
 3308 08af 94000000 		.4byte	0x94
 3309 08b3 CC080000 		.4byte	0x8cc
 3310 08b7 1F       		.uleb128 0x1f
 3311 08b8 6B070000 		.4byte	0x76b
 3312 08bc 1F       		.uleb128 0x1f
 3313 08bd 53040000 		.4byte	0x453
 3314 08c1 1F       		.uleb128 0x1f
 3315 08c2 CC080000 		.4byte	0x8cc
 3316 08c6 1F       		.uleb128 0x1f
 3317 08c7 94000000 		.4byte	0x94
 3318 08cb 00       		.byte	0
 3319 08cc 12       		.uleb128 0x12
 3320 08cd 04       		.byte	0x4
 3321 08ce 62040000 		.4byte	0x462
 3322 08d2 12       		.uleb128 0x12
 3323 08d3 04       		.byte	0x4
 3324 08d4 AE080000 		.4byte	0x8ae
 3325 08d8 1E       		.uleb128 0x1e
 3326 08d9 D6030000 		.4byte	0x3d6
 3327 08dd F6080000 		.4byte	0x8f6
 3328 08e1 1F       		.uleb128 0x1f
 3329 08e2 6B070000 		.4byte	0x76b
 3330 08e6 1F       		.uleb128 0x1f
 3331 08e7 53040000 		.4byte	0x453
 3332 08eb 1F       		.uleb128 0x1f
 3333 08ec D6030000 		.4byte	0x3d6
 3334 08f0 1F       		.uleb128 0x1f
 3335 08f1 94000000 		.4byte	0x94
 3336 08f5 00       		.byte	0
 3337 08f6 12       		.uleb128 0x12
ARM GAS  /tmp/ccozkyvL.s 			page 83


 3338 08f7 04       		.byte	0x4
 3339 08f8 D8080000 		.4byte	0x8d8
 3340 08fc 1E       		.uleb128 0x1e
 3341 08fd 94000000 		.4byte	0x94
 3342 0901 10090000 		.4byte	0x910
 3343 0905 1F       		.uleb128 0x1f
 3344 0906 6B070000 		.4byte	0x76b
 3345 090a 1F       		.uleb128 0x1f
 3346 090b 53040000 		.4byte	0x453
 3347 090f 00       		.byte	0
 3348 0910 12       		.uleb128 0x12
 3349 0911 04       		.byte	0x4
 3350 0912 FC080000 		.4byte	0x8fc
 3351 0916 13       		.uleb128 0x13
 3352 0917 37000000 		.4byte	0x37
 3353 091b 26090000 		.4byte	0x926
 3354 091f 14       		.uleb128 0x14
 3355 0920 E8000000 		.4byte	0xe8
 3356 0924 02       		.byte	0x2
 3357 0925 00       		.byte	0
 3358 0926 13       		.uleb128 0x13
 3359 0927 37000000 		.4byte	0x37
 3360 092b 36090000 		.4byte	0x936
 3361 092f 14       		.uleb128 0x14
 3362 0930 E8000000 		.4byte	0xe8
 3363 0934 00       		.byte	0
 3364 0935 00       		.byte	0
 3365 0936 0B       		.uleb128 0xb
 3366 0937 1D080000 		.4byte	.LASF144
 3367 093b 0D       		.byte	0xd
 3368 093c 1D01     		.2byte	0x11d
 3369 093e 23060000 		.4byte	0x623
 3370 0942 22       		.uleb128 0x22
 3371 0943 C7050000 		.4byte	.LASF145
 3372 0947 0C       		.byte	0xc
 3373 0948 0D       		.byte	0xd
 3374 0949 2101     		.2byte	0x121
 3375 094b 77090000 		.4byte	0x977
 3376 094f 0E       		.uleb128 0xe
 3377 0950 4B080000 		.4byte	.LASF79
 3378 0954 0D       		.byte	0xd
 3379 0955 2301     		.2byte	0x123
 3380 0957 77090000 		.4byte	0x977
 3381 095b 00       		.byte	0
 3382 095c 0E       		.uleb128 0xe
 3383 095d 69050000 		.4byte	.LASF146
 3384 0961 0D       		.byte	0xd
 3385 0962 2401     		.2byte	0x124
 3386 0964 94000000 		.4byte	0x94
 3387 0968 04       		.byte	0x4
 3388 0969 0E       		.uleb128 0xe
 3389 096a C1050000 		.4byte	.LASF147
 3390 096e 0D       		.byte	0xd
 3391 096f 2501     		.2byte	0x125
 3392 0971 7D090000 		.4byte	0x97d
 3393 0975 08       		.byte	0x8
 3394 0976 00       		.byte	0
ARM GAS  /tmp/ccozkyvL.s 			page 84


 3395 0977 12       		.uleb128 0x12
 3396 0978 04       		.byte	0x4
 3397 0979 42090000 		.4byte	0x942
 3398 097d 12       		.uleb128 0x12
 3399 097e 04       		.byte	0x4
 3400 097f 36090000 		.4byte	0x936
 3401 0983 22       		.uleb128 0x22
 3402 0984 7C070000 		.4byte	.LASF148
 3403 0988 0E       		.byte	0xe
 3404 0989 0D       		.byte	0xd
 3405 098a 3D01     		.2byte	0x13d
 3406 098c B8090000 		.4byte	0x9b8
 3407 0990 0E       		.uleb128 0xe
 3408 0991 E0060000 		.4byte	.LASF149
 3409 0995 0D       		.byte	0xd
 3410 0996 3E01     		.2byte	0x13e
 3411 0998 B8090000 		.4byte	0x9b8
 3412 099c 00       		.byte	0
 3413 099d 0E       		.uleb128 0xe
 3414 099e 04010000 		.4byte	.LASF150
 3415 09a2 0D       		.byte	0xd
 3416 09a3 3F01     		.2byte	0x13f
 3417 09a5 B8090000 		.4byte	0x9b8
 3418 09a9 06       		.byte	0x6
 3419 09aa 0E       		.uleb128 0xe
 3420 09ab 170A0000 		.4byte	.LASF151
 3421 09af 0D       		.byte	0xd
 3422 09b0 4001     		.2byte	0x140
 3423 09b2 5B000000 		.4byte	0x5b
 3424 09b6 0C       		.byte	0xc
 3425 09b7 00       		.byte	0
 3426 09b8 13       		.uleb128 0x13
 3427 09b9 5B000000 		.4byte	0x5b
 3428 09bd C8090000 		.4byte	0x9c8
 3429 09c1 14       		.uleb128 0x14
 3430 09c2 E8000000 		.4byte	0xe8
 3431 09c6 02       		.byte	0x2
 3432 09c7 00       		.byte	0
 3433 09c8 0C       		.uleb128 0xc
 3434 09c9 D0       		.byte	0xd0
 3435 09ca 0D       		.byte	0xd
 3436 09cb 5702     		.2byte	0x257
 3437 09cd C90A0000 		.4byte	0xac9
 3438 09d1 0E       		.uleb128 0xe
 3439 09d2 F3010000 		.4byte	.LASF152
 3440 09d6 0D       		.byte	0xd
 3441 09d7 5902     		.2byte	0x259
 3442 09d9 9B000000 		.4byte	0x9b
 3443 09dd 00       		.byte	0
 3444 09de 0E       		.uleb128 0xe
 3445 09df DF070000 		.4byte	.LASF153
 3446 09e3 0D       		.byte	0xd
 3447 09e4 5A02     		.2byte	0x25a
 3448 09e6 55040000 		.4byte	0x455
 3449 09ea 04       		.byte	0x4
 3450 09eb 0E       		.uleb128 0xe
 3451 09ec 68000000 		.4byte	.LASF154
ARM GAS  /tmp/ccozkyvL.s 			page 85


 3452 09f0 0D       		.byte	0xd
 3453 09f1 5B02     		.2byte	0x25b
 3454 09f3 C90A0000 		.4byte	0xac9
 3455 09f7 08       		.byte	0x8
 3456 09f8 0E       		.uleb128 0xe
 3457 09f9 C9010000 		.4byte	.LASF155
 3458 09fd 0D       		.byte	0xd
 3459 09fe 5C02     		.2byte	0x25c
 3460 0a00 DB040000 		.4byte	0x4db
 3461 0a04 24       		.byte	0x24
 3462 0a05 0E       		.uleb128 0xe
 3463 0a06 92050000 		.4byte	.LASF156
 3464 0a0a 0D       		.byte	0xd
 3465 0a0b 5D02     		.2byte	0x25d
 3466 0a0d 94000000 		.4byte	0x94
 3467 0a11 48       		.byte	0x48
 3468 0a12 0E       		.uleb128 0xe
 3469 0a13 7C060000 		.4byte	.LASF157
 3470 0a17 0D       		.byte	0xd
 3471 0a18 5E02     		.2byte	0x25e
 3472 0a1a 8D000000 		.4byte	0x8d
 3473 0a1e 50       		.byte	0x50
 3474 0a1f 0E       		.uleb128 0xe
 3475 0a20 3F080000 		.4byte	.LASF158
 3476 0a24 0D       		.byte	0xd
 3477 0a25 5F02     		.2byte	0x25f
 3478 0a27 83090000 		.4byte	0x983
 3479 0a2b 58       		.byte	0x58
 3480 0a2c 0E       		.uleb128 0xe
 3481 0a2d C3080000 		.4byte	.LASF159
 3482 0a31 0D       		.byte	0xd
 3483 0a32 6002     		.2byte	0x260
 3484 0a34 3D040000 		.4byte	0x43d
 3485 0a38 68       		.byte	0x68
 3486 0a39 0E       		.uleb128 0xe
 3487 0a3a 22070000 		.4byte	.LASF160
 3488 0a3e 0D       		.byte	0xd
 3489 0a3f 6102     		.2byte	0x261
 3490 0a41 3D040000 		.4byte	0x43d
 3491 0a45 70       		.byte	0x70
 3492 0a46 0E       		.uleb128 0xe
 3493 0a47 4D060000 		.4byte	.LASF161
 3494 0a4b 0D       		.byte	0xd
 3495 0a4c 6202     		.2byte	0x262
 3496 0a4e 3D040000 		.4byte	0x43d
 3497 0a52 78       		.byte	0x78
 3498 0a53 0E       		.uleb128 0xe
 3499 0a54 B9000000 		.4byte	.LASF162
 3500 0a58 0D       		.byte	0xd
 3501 0a59 6302     		.2byte	0x263
 3502 0a5b D90A0000 		.4byte	0xad9
 3503 0a5f 80       		.byte	0x80
 3504 0a60 0E       		.uleb128 0xe
 3505 0a61 C1040000 		.4byte	.LASF163
 3506 0a65 0D       		.byte	0xd
 3507 0a66 6402     		.2byte	0x264
 3508 0a68 E90A0000 		.4byte	0xae9
ARM GAS  /tmp/ccozkyvL.s 			page 86


 3509 0a6c 88       		.byte	0x88
 3510 0a6d 0E       		.uleb128 0xe
 3511 0a6e D20A0000 		.4byte	.LASF164
 3512 0a72 0D       		.byte	0xd
 3513 0a73 6502     		.2byte	0x265
 3514 0a75 94000000 		.4byte	0x94
 3515 0a79 A0       		.byte	0xa0
 3516 0a7a 0E       		.uleb128 0xe
 3517 0a7b 96010000 		.4byte	.LASF165
 3518 0a7f 0D       		.byte	0xd
 3519 0a80 6602     		.2byte	0x266
 3520 0a82 3D040000 		.4byte	0x43d
 3521 0a86 A4       		.byte	0xa4
 3522 0a87 0E       		.uleb128 0xe
 3523 0a88 05080000 		.4byte	.LASF166
 3524 0a8c 0D       		.byte	0xd
 3525 0a8d 6702     		.2byte	0x267
 3526 0a8f 3D040000 		.4byte	0x43d
 3527 0a93 AC       		.byte	0xac
 3528 0a94 0E       		.uleb128 0xe
 3529 0a95 4A0A0000 		.4byte	.LASF167
 3530 0a99 0D       		.byte	0xd
 3531 0a9a 6802     		.2byte	0x268
 3532 0a9c 3D040000 		.4byte	0x43d
 3533 0aa0 B4       		.byte	0xb4
 3534 0aa1 0E       		.uleb128 0xe
 3535 0aa2 A00A0000 		.4byte	.LASF168
 3536 0aa6 0D       		.byte	0xd
 3537 0aa7 6902     		.2byte	0x269
 3538 0aa9 3D040000 		.4byte	0x43d
 3539 0aad BC       		.byte	0xbc
 3540 0aae 0E       		.uleb128 0xe
 3541 0aaf 8A000000 		.4byte	.LASF169
 3542 0ab3 0D       		.byte	0xd
 3543 0ab4 6A02     		.2byte	0x26a
 3544 0ab6 3D040000 		.4byte	0x43d
 3545 0aba C4       		.byte	0xc4
 3546 0abb 0E       		.uleb128 0xe
 3547 0abc 04060000 		.4byte	.LASF170
 3548 0ac0 0D       		.byte	0xd
 3549 0ac1 6B02     		.2byte	0x26b
 3550 0ac3 94000000 		.4byte	0x94
 3551 0ac7 CC       		.byte	0xcc
 3552 0ac8 00       		.byte	0
 3553 0ac9 13       		.uleb128 0x13
 3554 0aca 5B040000 		.4byte	0x45b
 3555 0ace D90A0000 		.4byte	0xad9
 3556 0ad2 14       		.uleb128 0x14
 3557 0ad3 E8000000 		.4byte	0xe8
 3558 0ad7 19       		.byte	0x19
 3559 0ad8 00       		.byte	0
 3560 0ad9 13       		.uleb128 0x13
 3561 0ada 5B040000 		.4byte	0x45b
 3562 0ade E90A0000 		.4byte	0xae9
 3563 0ae2 14       		.uleb128 0x14
 3564 0ae3 E8000000 		.4byte	0xe8
 3565 0ae7 07       		.byte	0x7
ARM GAS  /tmp/ccozkyvL.s 			page 87


 3566 0ae8 00       		.byte	0
 3567 0ae9 13       		.uleb128 0x13
 3568 0aea 5B040000 		.4byte	0x45b
 3569 0aee F90A0000 		.4byte	0xaf9
 3570 0af2 14       		.uleb128 0x14
 3571 0af3 E8000000 		.4byte	0xe8
 3572 0af7 17       		.byte	0x17
 3573 0af8 00       		.byte	0
 3574 0af9 0C       		.uleb128 0xc
 3575 0afa F0       		.byte	0xf0
 3576 0afb 0D       		.byte	0xd
 3577 0afc 7002     		.2byte	0x270
 3578 0afe 1D0B0000 		.4byte	0xb1d
 3579 0b02 0E       		.uleb128 0xe
 3580 0b03 9D090000 		.4byte	.LASF171
 3581 0b07 0D       		.byte	0xd
 3582 0b08 7302     		.2byte	0x273
 3583 0b0a 1D0B0000 		.4byte	0xb1d
 3584 0b0e 00       		.byte	0
 3585 0b0f 0E       		.uleb128 0xe
 3586 0b10 82050000 		.4byte	.LASF172
 3587 0b14 0D       		.byte	0xd
 3588 0b15 7402     		.2byte	0x274
 3589 0b17 2D0B0000 		.4byte	0xb2d
 3590 0b1b 78       		.byte	0x78
 3591 0b1c 00       		.byte	0
 3592 0b1d 13       		.uleb128 0x13
 3593 0b1e 1D060000 		.4byte	0x61d
 3594 0b22 2D0B0000 		.4byte	0xb2d
 3595 0b26 14       		.uleb128 0x14
 3596 0b27 E8000000 		.4byte	0xe8
 3597 0b2b 1D       		.byte	0x1d
 3598 0b2c 00       		.byte	0
 3599 0b2d 13       		.uleb128 0x13
 3600 0b2e 9B000000 		.4byte	0x9b
 3601 0b32 3D0B0000 		.4byte	0xb3d
 3602 0b36 14       		.uleb128 0x14
 3603 0b37 E8000000 		.4byte	0xe8
 3604 0b3b 1D       		.byte	0x1d
 3605 0b3c 00       		.byte	0
 3606 0b3d 23       		.uleb128 0x23
 3607 0b3e F0       		.byte	0xf0
 3608 0b3f 0D       		.byte	0xd
 3609 0b40 5502     		.2byte	0x255
 3610 0b42 5F0B0000 		.4byte	0xb5f
 3611 0b46 24       		.uleb128 0x24
 3612 0b47 98020000 		.4byte	.LASF122
 3613 0b4b 0D       		.byte	0xd
 3614 0b4c 6C02     		.2byte	0x26c
 3615 0b4e C8090000 		.4byte	0x9c8
 3616 0b52 24       		.uleb128 0x24
 3617 0b53 7D000000 		.4byte	.LASF173
 3618 0b57 0D       		.byte	0xd
 3619 0b58 7502     		.2byte	0x275
 3620 0b5a F90A0000 		.4byte	0xaf9
 3621 0b5e 00       		.byte	0
 3622 0b5f 13       		.uleb128 0x13
ARM GAS  /tmp/ccozkyvL.s 			page 88


 3623 0b60 5B040000 		.4byte	0x45b
 3624 0b64 6F0B0000 		.4byte	0xb6f
 3625 0b68 14       		.uleb128 0x14
 3626 0b69 E8000000 		.4byte	0xe8
 3627 0b6d 18       		.byte	0x18
 3628 0b6e 00       		.byte	0
 3629 0b6f 25       		.uleb128 0x25
 3630 0b70 7A0B0000 		.4byte	0xb7a
 3631 0b74 1F       		.uleb128 0x1f
 3632 0b75 6B070000 		.4byte	0x76b
 3633 0b79 00       		.byte	0
 3634 0b7a 12       		.uleb128 0x12
 3635 0b7b 04       		.byte	0x4
 3636 0b7c 6F0B0000 		.4byte	0xb6f
 3637 0b80 12       		.uleb128 0x12
 3638 0b81 04       		.byte	0x4
 3639 0b82 C5040000 		.4byte	0x4c5
 3640 0b86 25       		.uleb128 0x25
 3641 0b87 910B0000 		.4byte	0xb91
 3642 0b8b 1F       		.uleb128 0x1f
 3643 0b8c 94000000 		.4byte	0x94
 3644 0b90 00       		.byte	0
 3645 0b91 12       		.uleb128 0x12
 3646 0b92 04       		.byte	0x4
 3647 0b93 970B0000 		.4byte	0xb97
 3648 0b97 12       		.uleb128 0x12
 3649 0b98 04       		.byte	0x4
 3650 0b99 860B0000 		.4byte	0xb86
 3651 0b9d 13       		.uleb128 0x13
 3652 0b9e 36090000 		.4byte	0x936
 3653 0ba2 AD0B0000 		.4byte	0xbad
 3654 0ba6 14       		.uleb128 0x14
 3655 0ba7 E8000000 		.4byte	0xe8
 3656 0bab 02       		.byte	0x2
 3657 0bac 00       		.byte	0
 3658 0bad 06       		.uleb128 0x6
 3659 0bae AD010000 		.4byte	.LASF174
 3660 0bb2 0D       		.byte	0xd
 3661 0bb3 FD02     		.2byte	0x2fd
 3662 0bb5 6B070000 		.4byte	0x76b
 3663 0bb9 06       		.uleb128 0x6
 3664 0bba 9F020000 		.4byte	.LASF175
 3665 0bbe 0D       		.byte	0xd
 3666 0bbf FE02     		.2byte	0x2fe
 3667 0bc1 71070000 		.4byte	0x771
 3668 0bc5 02       		.uleb128 0x2
 3669 0bc6 08       		.byte	0x8
 3670 0bc7 04       		.byte	0x4
 3671 0bc8 8B050000 		.4byte	.LASF176
 3672 0bcc 26       		.uleb128 0x26
 3673 0bcd 8C070000 		.4byte	.LASF244
 3674 0bd1 01       		.byte	0x1
 3675 0bd2 25000000 		.4byte	0x25
 3676 0bd6 0E       		.byte	0xe
 3677 0bd7 9902     		.2byte	0x299
 3678 0bd9 F60B0000 		.4byte	0xbf6
 3679 0bdd 27       		.uleb128 0x27
ARM GAS  /tmp/ccozkyvL.s 			page 89


 3680 0bde 80090000 		.4byte	.LASF177
 3681 0be2 7F       		.sleb128 -1
 3682 0be3 09       		.uleb128 0x9
 3683 0be4 1A050000 		.4byte	.LASF178
 3684 0be8 00       		.byte	0
 3685 0be9 09       		.uleb128 0x9
 3686 0bea F0080000 		.4byte	.LASF179
 3687 0bee 01       		.byte	0x1
 3688 0bef 09       		.uleb128 0x9
 3689 0bf0 9D080000 		.4byte	.LASF180
 3690 0bf4 02       		.byte	0x2
 3691 0bf5 00       		.byte	0
 3692 0bf6 06       		.uleb128 0x6
 3693 0bf7 0E040000 		.4byte	.LASF181
 3694 0bfb 0E       		.byte	0xe
 3695 0bfc A402     		.2byte	0x2a4
 3696 0bfe CC0B0000 		.4byte	0xbcc
 3697 0c02 28       		.uleb128 0x28
 3698 0c03 13030000 		.4byte	.LASF187
 3699 0c07 01       		.byte	0x1
 3700 0c08 1B05     		.2byte	0x51b
 3701 0c0a FE080000 		.4byte	.LFB95
 3702 0c0e 2C000000 		.4byte	.LFE95-.LFB95
 3703 0c12 01       		.uleb128 0x1
 3704 0c13 9C       		.byte	0x9c
 3705 0c14 460C0000 		.4byte	0xc46
 3706 0c18 29       		.uleb128 0x29
 3707 0c19 DB020000 		.4byte	.LASF182
 3708 0c1d 01       		.byte	0x1
 3709 0c1e 1B05     		.2byte	0x51b
 3710 0c20 460C0000 		.4byte	0xc46
 3711 0c24 02       		.uleb128 0x2
 3712 0c25 91       		.byte	0x91
 3713 0c26 6C       		.sleb128 -20
 3714 0c27 29       		.uleb128 0x29
 3715 0c28 A4040000 		.4byte	.LASF183
 3716 0c2c 01       		.byte	0x1
 3717 0c2d 1B05     		.2byte	0x51b
 3718 0c2f D8000000 		.4byte	0xd8
 3719 0c33 02       		.uleb128 0x2
 3720 0c34 91       		.byte	0x91
 3721 0c35 68       		.sleb128 -24
 3722 0c36 2A       		.uleb128 0x2a
 3723 0c37 FC050000 		.4byte	.LASF184
 3724 0c3b 01       		.byte	0x1
 3725 0c3c 1D05     		.2byte	0x51d
 3726 0c3e D8000000 		.4byte	0xd8
 3727 0c42 02       		.uleb128 0x2
 3728 0c43 91       		.byte	0x91
 3729 0c44 74       		.sleb128 -12
 3730 0c45 00       		.byte	0
 3731 0c46 12       		.uleb128 0x12
 3732 0c47 04       		.byte	0x4
 3733 0c48 77020000 		.4byte	0x277
 3734 0c4c 2B       		.uleb128 0x2b
 3735 0c4d CF070000 		.4byte	.LASF190
 3736 0c51 01       		.byte	0x1
ARM GAS  /tmp/ccozkyvL.s 			page 90


 3737 0c52 DE04     		.2byte	0x4de
 3738 0c54 2C010000 		.4byte	0x12c
 3739 0c58 A6080000 		.4byte	.LFB94
 3740 0c5c 58000000 		.4byte	.LFE94-.LFB94
 3741 0c60 01       		.uleb128 0x1
 3742 0c61 9C       		.byte	0x9c
 3743 0c62 A30C0000 		.4byte	0xca3
 3744 0c66 29       		.uleb128 0x29
 3745 0c67 DB020000 		.4byte	.LASF182
 3746 0c6b 01       		.byte	0x1
 3747 0c6c DE04     		.2byte	0x4de
 3748 0c6e 460C0000 		.4byte	0xc46
 3749 0c72 02       		.uleb128 0x2
 3750 0c73 91       		.byte	0x91
 3751 0c74 6C       		.sleb128 -20
 3752 0c75 29       		.uleb128 0x29
 3753 0c76 A4040000 		.4byte	.LASF183
 3754 0c7a 01       		.byte	0x1
 3755 0c7b DE04     		.2byte	0x4de
 3756 0c7d D8000000 		.4byte	0xd8
 3757 0c81 02       		.uleb128 0x2
 3758 0c82 91       		.byte	0x91
 3759 0c83 68       		.sleb128 -24
 3760 0c84 2A       		.uleb128 0x2a
 3761 0c85 1F090000 		.4byte	.LASF185
 3762 0c89 01       		.byte	0x1
 3763 0c8a E004     		.2byte	0x4e0
 3764 0c8c 2C010000 		.4byte	0x12c
 3765 0c90 02       		.uleb128 0x2
 3766 0c91 91       		.byte	0x91
 3767 0c92 77       		.sleb128 -9
 3768 0c93 2A       		.uleb128 0x2a
 3769 0c94 EC070000 		.4byte	.LASF186
 3770 0c98 01       		.byte	0x1
 3771 0c99 E104     		.2byte	0x4e1
 3772 0c9b D8000000 		.4byte	0xd8
 3773 0c9f 02       		.uleb128 0x2
 3774 0ca0 91       		.byte	0x91
 3775 0ca1 70       		.sleb128 -16
 3776 0ca2 00       		.byte	0
 3777 0ca3 28       		.uleb128 0x28
 3778 0ca4 2C020000 		.4byte	.LASF188
 3779 0ca8 01       		.byte	0x1
 3780 0ca9 BC04     		.2byte	0x4bc
 3781 0cab 7A080000 		.4byte	.LFB93
 3782 0caf 2C000000 		.4byte	.LFE93-.LFB93
 3783 0cb3 01       		.uleb128 0x1
 3784 0cb4 9C       		.byte	0x9c
 3785 0cb5 E70C0000 		.4byte	0xce7
 3786 0cb9 29       		.uleb128 0x29
 3787 0cba DB020000 		.4byte	.LASF182
 3788 0cbe 01       		.byte	0x1
 3789 0cbf BC04     		.2byte	0x4bc
 3790 0cc1 460C0000 		.4byte	0xc46
 3791 0cc5 02       		.uleb128 0x2
 3792 0cc6 91       		.byte	0x91
 3793 0cc7 6C       		.sleb128 -20
ARM GAS  /tmp/ccozkyvL.s 			page 91


 3794 0cc8 29       		.uleb128 0x29
 3795 0cc9 7B030000 		.4byte	.LASF189
 3796 0ccd 01       		.byte	0x1
 3797 0cce BC04     		.2byte	0x4bc
 3798 0cd0 D8000000 		.4byte	0xd8
 3799 0cd4 02       		.uleb128 0x2
 3800 0cd5 91       		.byte	0x91
 3801 0cd6 68       		.sleb128 -24
 3802 0cd7 2A       		.uleb128 0x2a
 3803 0cd8 FC050000 		.4byte	.LASF184
 3804 0cdc 01       		.byte	0x1
 3805 0cdd BE04     		.2byte	0x4be
 3806 0cdf D8000000 		.4byte	0xd8
 3807 0ce3 02       		.uleb128 0x2
 3808 0ce4 91       		.byte	0x91
 3809 0ce5 74       		.sleb128 -12
 3810 0ce6 00       		.byte	0
 3811 0ce7 2B       		.uleb128 0x2b
 3812 0ce8 57050000 		.4byte	.LASF191
 3813 0cec 01       		.byte	0x1
 3814 0ced 6D04     		.2byte	0x46d
 3815 0cef 20010000 		.4byte	0x120
 3816 0cf3 16080000 		.4byte	.LFB92
 3817 0cf7 64000000 		.4byte	.LFE92-.LFB92
 3818 0cfb 01       		.uleb128 0x1
 3819 0cfc 9C       		.byte	0x9c
 3820 0cfd 4D0D0000 		.4byte	0xd4d
 3821 0d01 29       		.uleb128 0x29
 3822 0d02 DB020000 		.4byte	.LASF182
 3823 0d06 01       		.byte	0x1
 3824 0d07 6D04     		.2byte	0x46d
 3825 0d09 460C0000 		.4byte	0xc46
 3826 0d0d 02       		.uleb128 0x2
 3827 0d0e 91       		.byte	0x91
 3828 0d0f 64       		.sleb128 -28
 3829 0d10 29       		.uleb128 0x29
 3830 0d11 7B030000 		.4byte	.LASF189
 3831 0d15 01       		.byte	0x1
 3832 0d16 6D04     		.2byte	0x46d
 3833 0d18 D8000000 		.4byte	0xd8
 3834 0d1c 02       		.uleb128 0x2
 3835 0d1d 91       		.byte	0x91
 3836 0d1e 60       		.sleb128 -32
 3837 0d1f 2A       		.uleb128 0x2a
 3838 0d20 1F090000 		.4byte	.LASF185
 3839 0d24 01       		.byte	0x1
 3840 0d25 6F04     		.2byte	0x46f
 3841 0d27 20010000 		.4byte	0x120
 3842 0d2b 02       		.uleb128 0x2
 3843 0d2c 91       		.byte	0x91
 3844 0d2d 77       		.sleb128 -9
 3845 0d2e 2A       		.uleb128 0x2a
 3846 0d2f 75060000 		.4byte	.LASF192
 3847 0d33 01       		.byte	0x1
 3848 0d34 7004     		.2byte	0x470
 3849 0d36 E3000000 		.4byte	0xe3
 3850 0d3a 02       		.uleb128 0x2
ARM GAS  /tmp/ccozkyvL.s 			page 92


 3851 0d3b 91       		.byte	0x91
 3852 0d3c 70       		.sleb128 -16
 3853 0d3d 2A       		.uleb128 0x2a
 3854 0d3e E0050000 		.4byte	.LASF193
 3855 0d42 01       		.byte	0x1
 3856 0d43 7004     		.2byte	0x470
 3857 0d45 E3000000 		.4byte	0xe3
 3858 0d49 02       		.uleb128 0x2
 3859 0d4a 91       		.byte	0x91
 3860 0d4b 6C       		.sleb128 -20
 3861 0d4c 00       		.byte	0
 3862 0d4d 2B       		.uleb128 0x2b
 3863 0d4e 42090000 		.4byte	.LASF194
 3864 0d52 01       		.byte	0x1
 3865 0d53 3604     		.2byte	0x436
 3866 0d55 D8000000 		.4byte	0xd8
 3867 0d59 D4070000 		.4byte	.LFB91
 3868 0d5d 42000000 		.4byte	.LFE91-.LFB91
 3869 0d61 01       		.uleb128 0x1
 3870 0d62 9C       		.byte	0x9c
 3871 0d63 A40D0000 		.4byte	0xda4
 3872 0d67 29       		.uleb128 0x29
 3873 0d68 DB020000 		.4byte	.LASF182
 3874 0d6c 01       		.byte	0x1
 3875 0d6d 3604     		.2byte	0x436
 3876 0d6f 460C0000 		.4byte	0xc46
 3877 0d73 02       		.uleb128 0x2
 3878 0d74 91       		.byte	0x91
 3879 0d75 64       		.sleb128 -28
 3880 0d76 2A       		.uleb128 0x2a
 3881 0d77 22020000 		.4byte	.LASF195
 3882 0d7b 01       		.byte	0x1
 3883 0d7c 3804     		.2byte	0x438
 3884 0d7e D8000000 		.4byte	0xd8
 3885 0d82 02       		.uleb128 0x2
 3886 0d83 91       		.byte	0x91
 3887 0d84 74       		.sleb128 -12
 3888 0d85 2A       		.uleb128 0x2a
 3889 0d86 00030000 		.4byte	.LASF196
 3890 0d8a 01       		.byte	0x1
 3891 0d8b 3904     		.2byte	0x439
 3892 0d8d D8000000 		.4byte	0xd8
 3893 0d91 02       		.uleb128 0x2
 3894 0d92 91       		.byte	0x91
 3895 0d93 70       		.sleb128 -16
 3896 0d94 2A       		.uleb128 0x2a
 3897 0d95 06030000 		.4byte	.LASF197
 3898 0d99 01       		.byte	0x1
 3899 0d9a 3904     		.2byte	0x439
 3900 0d9c D8000000 		.4byte	0xd8
 3901 0da0 02       		.uleb128 0x2
 3902 0da1 91       		.byte	0x91
 3903 0da2 6C       		.sleb128 -20
 3904 0da3 00       		.byte	0
 3905 0da4 2B       		.uleb128 0x2b
 3906 0da5 FF080000 		.4byte	.LASF198
 3907 0da9 01       		.byte	0x1
ARM GAS  /tmp/ccozkyvL.s 			page 93


 3908 0daa 0604     		.2byte	0x406
 3909 0dac 78010000 		.4byte	0x178
 3910 0db0 76070000 		.4byte	.LFB90
 3911 0db4 5E000000 		.4byte	.LFE90-.LFB90
 3912 0db8 01       		.uleb128 0x1
 3913 0db9 9C       		.byte	0x9c
 3914 0dba 190E0000 		.4byte	0xe19
 3915 0dbe 29       		.uleb128 0x29
 3916 0dbf DB020000 		.4byte	.LASF182
 3917 0dc3 01       		.byte	0x1
 3918 0dc4 0604     		.2byte	0x406
 3919 0dc6 460C0000 		.4byte	0xc46
 3920 0dca 02       		.uleb128 0x2
 3921 0dcb 91       		.byte	0x91
 3922 0dcc 64       		.sleb128 -28
 3923 0dcd 29       		.uleb128 0x29
 3924 0dce 84030000 		.4byte	.LASF199
 3925 0dd2 01       		.byte	0x1
 3926 0dd3 0604     		.2byte	0x406
 3927 0dd5 D8000000 		.4byte	0xd8
 3928 0dd9 02       		.uleb128 0x2
 3929 0dda 91       		.byte	0x91
 3930 0ddb 60       		.sleb128 -32
 3931 0ddc 2A       		.uleb128 0x2a
 3932 0ddd 22020000 		.4byte	.LASF195
 3933 0de1 01       		.byte	0x1
 3934 0de2 0804     		.2byte	0x408
 3935 0de4 D8000000 		.4byte	0xd8
 3936 0de8 02       		.uleb128 0x2
 3937 0de9 91       		.byte	0x91
 3938 0dea 70       		.sleb128 -16
 3939 0deb 2A       		.uleb128 0x2a
 3940 0dec 00030000 		.4byte	.LASF196
 3941 0df0 01       		.byte	0x1
 3942 0df1 0904     		.2byte	0x409
 3943 0df3 D8000000 		.4byte	0xd8
 3944 0df7 02       		.uleb128 0x2
 3945 0df8 91       		.byte	0x91
 3946 0df9 6C       		.sleb128 -20
 3947 0dfa 2A       		.uleb128 0x2a
 3948 0dfb 06030000 		.4byte	.LASF197
 3949 0dff 01       		.byte	0x1
 3950 0e00 0904     		.2byte	0x409
 3951 0e02 D8000000 		.4byte	0xd8
 3952 0e06 02       		.uleb128 0x2
 3953 0e07 91       		.byte	0x91
 3954 0e08 68       		.sleb128 -24
 3955 0e09 2A       		.uleb128 0x2a
 3956 0e0a B8030000 		.4byte	.LASF200
 3957 0e0e 01       		.byte	0x1
 3958 0e0f 0A04     		.2byte	0x40a
 3959 0e11 78010000 		.4byte	0x178
 3960 0e15 02       		.uleb128 0x2
 3961 0e16 91       		.byte	0x91
 3962 0e17 77       		.sleb128 -9
 3963 0e18 00       		.byte	0
 3964 0e19 28       		.uleb128 0x28
ARM GAS  /tmp/ccozkyvL.s 			page 94


 3965 0e1a 7C0A0000 		.4byte	.LASF201
 3966 0e1e 01       		.byte	0x1
 3967 0e1f 7A03     		.2byte	0x37a
 3968 0e21 36070000 		.4byte	.LFB89
 3969 0e25 40000000 		.4byte	.LFE89-.LFB89
 3970 0e29 01       		.uleb128 0x1
 3971 0e2a 9C       		.byte	0x9c
 3972 0e2b 4E0E0000 		.4byte	0xe4e
 3973 0e2f 29       		.uleb128 0x29
 3974 0e30 DB020000 		.4byte	.LASF182
 3975 0e34 01       		.byte	0x1
 3976 0e35 7A03     		.2byte	0x37a
 3977 0e37 460C0000 		.4byte	0xc46
 3978 0e3b 02       		.uleb128 0x2
 3979 0e3c 91       		.byte	0x91
 3980 0e3d 74       		.sleb128 -12
 3981 0e3e 29       		.uleb128 0x29
 3982 0e3f 14020000 		.4byte	.LASF46
 3983 0e43 01       		.byte	0x1
 3984 0e44 7A03     		.2byte	0x37a
 3985 0e46 B8000000 		.4byte	0xb8
 3986 0e4a 02       		.uleb128 0x2
 3987 0e4b 91       		.byte	0x91
 3988 0e4c 72       		.sleb128 -14
 3989 0e4d 00       		.byte	0
 3990 0e4e 28       		.uleb128 0x28
 3991 0e4f 1C060000 		.4byte	.LASF202
 3992 0e53 01       		.byte	0x1
 3993 0e54 6003     		.2byte	0x360
 3994 0e56 F8060000 		.4byte	.LFB88
 3995 0e5a 3E000000 		.4byte	.LFE88-.LFB88
 3996 0e5e 01       		.uleb128 0x1
 3997 0e5f 9C       		.byte	0x9c
 3998 0e60 830E0000 		.4byte	0xe83
 3999 0e64 29       		.uleb128 0x29
 4000 0e65 DB020000 		.4byte	.LASF182
 4001 0e69 01       		.byte	0x1
 4002 0e6a 6003     		.2byte	0x360
 4003 0e6c 460C0000 		.4byte	0xc46
 4004 0e70 02       		.uleb128 0x2
 4005 0e71 91       		.byte	0x91
 4006 0e72 74       		.sleb128 -12
 4007 0e73 29       		.uleb128 0x29
 4008 0e74 B2020000 		.4byte	.LASF203
 4009 0e78 01       		.byte	0x1
 4010 0e79 6003     		.2byte	0x360
 4011 0e7b 52010000 		.4byte	0x152
 4012 0e7f 02       		.uleb128 0x2
 4013 0e80 91       		.byte	0x91
 4014 0e81 73       		.sleb128 -13
 4015 0e82 00       		.byte	0
 4016 0e83 28       		.uleb128 0x28
 4017 0e84 5F010000 		.4byte	.LASF204
 4018 0e88 01       		.byte	0x1
 4019 0e89 4803     		.2byte	0x348
 4020 0e8b BA060000 		.4byte	.LFB87
 4021 0e8f 3E000000 		.4byte	.LFE87-.LFB87
ARM GAS  /tmp/ccozkyvL.s 			page 95


 4022 0e93 01       		.uleb128 0x1
 4023 0e94 9C       		.byte	0x9c
 4024 0e95 B80E0000 		.4byte	0xeb8
 4025 0e99 29       		.uleb128 0x29
 4026 0e9a DB020000 		.4byte	.LASF182
 4027 0e9e 01       		.byte	0x1
 4028 0e9f 4803     		.2byte	0x348
 4029 0ea1 460C0000 		.4byte	0xc46
 4030 0ea5 02       		.uleb128 0x2
 4031 0ea6 91       		.byte	0x91
 4032 0ea7 74       		.sleb128 -12
 4033 0ea8 29       		.uleb128 0x29
 4034 0ea9 B2020000 		.4byte	.LASF203
 4035 0ead 01       		.byte	0x1
 4036 0eae 4803     		.2byte	0x348
 4037 0eb0 52010000 		.4byte	0x152
 4038 0eb4 02       		.uleb128 0x2
 4039 0eb5 91       		.byte	0x91
 4040 0eb6 73       		.sleb128 -13
 4041 0eb7 00       		.byte	0
 4042 0eb8 2B       		.uleb128 0x2b
 4043 0eb9 00000000 		.4byte	.LASF205
 4044 0ebd 01       		.byte	0x1
 4045 0ebe 3903     		.2byte	0x339
 4046 0ec0 A2000000 		.4byte	0xa2
 4047 0ec4 9C060000 		.4byte	.LFB86
 4048 0ec8 1E000000 		.4byte	.LFE86-.LFB86
 4049 0ecc 01       		.uleb128 0x1
 4050 0ecd 9C       		.byte	0x9c
 4051 0ece E20E0000 		.4byte	0xee2
 4052 0ed2 29       		.uleb128 0x29
 4053 0ed3 DB020000 		.4byte	.LASF182
 4054 0ed7 01       		.byte	0x1
 4055 0ed8 3903     		.2byte	0x339
 4056 0eda 460C0000 		.4byte	0xc46
 4057 0ede 02       		.uleb128 0x2
 4058 0edf 91       		.byte	0x91
 4059 0ee0 74       		.sleb128 -12
 4060 0ee1 00       		.byte	0
 4061 0ee2 28       		.uleb128 0x28
 4062 0ee3 9E060000 		.4byte	.LASF206
 4063 0ee7 01       		.byte	0x1
 4064 0ee8 2303     		.2byte	0x323
 4065 0eea 5E060000 		.4byte	.LFB85
 4066 0eee 3E000000 		.4byte	.LFE85-.LFB85
 4067 0ef2 01       		.uleb128 0x1
 4068 0ef3 9C       		.byte	0x9c
 4069 0ef4 170F0000 		.4byte	0xf17
 4070 0ef8 29       		.uleb128 0x29
 4071 0ef9 DB020000 		.4byte	.LASF182
 4072 0efd 01       		.byte	0x1
 4073 0efe 2303     		.2byte	0x323
 4074 0f00 460C0000 		.4byte	0xc46
 4075 0f04 02       		.uleb128 0x2
 4076 0f05 91       		.byte	0x91
 4077 0f06 74       		.sleb128 -12
 4078 0f07 29       		.uleb128 0x29
ARM GAS  /tmp/ccozkyvL.s 			page 96


 4079 0f08 B2020000 		.4byte	.LASF203
 4080 0f0c 01       		.byte	0x1
 4081 0f0d 2303     		.2byte	0x323
 4082 0f0f 52010000 		.4byte	0x152
 4083 0f13 02       		.uleb128 0x2
 4084 0f14 91       		.byte	0x91
 4085 0f15 73       		.sleb128 -13
 4086 0f16 00       		.byte	0
 4087 0f17 28       		.uleb128 0x28
 4088 0f18 21000000 		.4byte	.LASF207
 4089 0f1c 01       		.byte	0x1
 4090 0f1d 0B03     		.2byte	0x30b
 4091 0f1f 1E060000 		.4byte	.LFB84
 4092 0f23 40000000 		.4byte	.LFE84-.LFB84
 4093 0f27 01       		.uleb128 0x1
 4094 0f28 9C       		.byte	0x9c
 4095 0f29 4C0F0000 		.4byte	0xf4c
 4096 0f2d 29       		.uleb128 0x29
 4097 0f2e DB020000 		.4byte	.LASF182
 4098 0f32 01       		.byte	0x1
 4099 0f33 0B03     		.2byte	0x30b
 4100 0f35 460C0000 		.4byte	0xc46
 4101 0f39 02       		.uleb128 0x2
 4102 0f3a 91       		.byte	0x91
 4103 0f3b 74       		.sleb128 -12
 4104 0f3c 29       		.uleb128 0x29
 4105 0f3d 57070000 		.4byte	.LASF208
 4106 0f41 01       		.byte	0x1
 4107 0f42 0B03     		.2byte	0x30b
 4108 0f44 B8000000 		.4byte	0xb8
 4109 0f48 02       		.uleb128 0x2
 4110 0f49 91       		.byte	0x91
 4111 0f4a 72       		.sleb128 -14
 4112 0f4b 00       		.byte	0
 4113 0f4c 28       		.uleb128 0x28
 4114 0f4d 34030000 		.4byte	.LASF209
 4115 0f51 01       		.byte	0x1
 4116 0f52 EC02     		.2byte	0x2ec
 4117 0f54 E0050000 		.4byte	.LFB83
 4118 0f58 3E000000 		.4byte	.LFE83-.LFB83
 4119 0f5c 01       		.uleb128 0x1
 4120 0f5d 9C       		.byte	0x9c
 4121 0f5e 810F0000 		.4byte	0xf81
 4122 0f62 29       		.uleb128 0x29
 4123 0f63 DB020000 		.4byte	.LASF182
 4124 0f67 01       		.byte	0x1
 4125 0f68 EC02     		.2byte	0x2ec
 4126 0f6a 460C0000 		.4byte	0xc46
 4127 0f6e 02       		.uleb128 0x2
 4128 0f6f 91       		.byte	0x91
 4129 0f70 74       		.sleb128 -12
 4130 0f71 29       		.uleb128 0x29
 4131 0f72 B2020000 		.4byte	.LASF203
 4132 0f76 01       		.byte	0x1
 4133 0f77 EC02     		.2byte	0x2ec
 4134 0f79 52010000 		.4byte	0x152
 4135 0f7d 02       		.uleb128 0x2
ARM GAS  /tmp/ccozkyvL.s 			page 97


 4136 0f7e 91       		.byte	0x91
 4137 0f7f 73       		.sleb128 -13
 4138 0f80 00       		.byte	0
 4139 0f81 28       		.uleb128 0x28
 4140 0f82 A3030000 		.4byte	.LASF210
 4141 0f86 01       		.byte	0x1
 4142 0f87 D402     		.2byte	0x2d4
 4143 0f89 A0050000 		.4byte	.LFB82
 4144 0f8d 40000000 		.4byte	.LFE82-.LFB82
 4145 0f91 01       		.uleb128 0x1
 4146 0f92 9C       		.byte	0x9c
 4147 0f93 B60F0000 		.4byte	0xfb6
 4148 0f97 29       		.uleb128 0x29
 4149 0f98 DB020000 		.4byte	.LASF182
 4150 0f9c 01       		.byte	0x1
 4151 0f9d D402     		.2byte	0x2d4
 4152 0f9f 460C0000 		.4byte	0xc46
 4153 0fa3 02       		.uleb128 0x2
 4154 0fa4 91       		.byte	0x91
 4155 0fa5 74       		.sleb128 -12
 4156 0fa6 29       		.uleb128 0x29
 4157 0fa7 0D060000 		.4byte	.LASF211
 4158 0fab 01       		.byte	0x1
 4159 0fac D402     		.2byte	0x2d4
 4160 0fae B8000000 		.4byte	0xb8
 4161 0fb2 02       		.uleb128 0x2
 4162 0fb3 91       		.byte	0x91
 4163 0fb4 72       		.sleb128 -14
 4164 0fb5 00       		.byte	0
 4165 0fb6 28       		.uleb128 0x28
 4166 0fb7 86080000 		.4byte	.LASF212
 4167 0fbb 01       		.byte	0x1
 4168 0fbc B802     		.2byte	0x2b8
 4169 0fbe 60050000 		.4byte	.LFB81
 4170 0fc2 40000000 		.4byte	.LFE81-.LFB81
 4171 0fc6 01       		.uleb128 0x1
 4172 0fc7 9C       		.byte	0x9c
 4173 0fc8 EB0F0000 		.4byte	0xfeb
 4174 0fcc 29       		.uleb128 0x29
 4175 0fcd DB020000 		.4byte	.LASF182
 4176 0fd1 01       		.byte	0x1
 4177 0fd2 B802     		.2byte	0x2b8
 4178 0fd4 460C0000 		.4byte	0xc46
 4179 0fd8 02       		.uleb128 0x2
 4180 0fd9 91       		.byte	0x91
 4181 0fda 74       		.sleb128 -12
 4182 0fdb 29       		.uleb128 0x29
 4183 0fdc E5020000 		.4byte	.LASF213
 4184 0fe0 01       		.byte	0x1
 4185 0fe1 B802     		.2byte	0x2b8
 4186 0fe3 B8000000 		.4byte	0xb8
 4187 0fe7 02       		.uleb128 0x2
 4188 0fe8 91       		.byte	0x91
 4189 0fe9 72       		.sleb128 -14
 4190 0fea 00       		.byte	0
 4191 0feb 28       		.uleb128 0x28
 4192 0fec 8E030000 		.4byte	.LASF214
ARM GAS  /tmp/ccozkyvL.s 			page 98


 4193 0ff0 01       		.byte	0x1
 4194 0ff1 9202     		.2byte	0x292
 4195 0ff3 1E050000 		.4byte	.LFB80
 4196 0ff7 42000000 		.4byte	.LFE80-.LFB80
 4197 0ffb 01       		.uleb128 0x1
 4198 0ffc 9C       		.byte	0x9c
 4199 0ffd 20100000 		.4byte	0x1020
 4200 1001 29       		.uleb128 0x29
 4201 1002 DB020000 		.4byte	.LASF182
 4202 1006 01       		.byte	0x1
 4203 1007 9202     		.2byte	0x292
 4204 1009 460C0000 		.4byte	0xc46
 4205 100d 02       		.uleb128 0x2
 4206 100e 91       		.byte	0x91
 4207 100f 74       		.sleb128 -12
 4208 1010 29       		.uleb128 0x29
 4209 1011 B2020000 		.4byte	.LASF203
 4210 1015 01       		.byte	0x1
 4211 1016 9202     		.2byte	0x292
 4212 1018 52010000 		.4byte	0x152
 4213 101c 02       		.uleb128 0x2
 4214 101d 91       		.byte	0x91
 4215 101e 73       		.sleb128 -13
 4216 101f 00       		.byte	0
 4217 1020 2B       		.uleb128 0x2b
 4218 1021 B0040000 		.4byte	.LASF215
 4219 1025 01       		.byte	0x1
 4220 1026 7C02     		.2byte	0x27c
 4221 1028 B8000000 		.4byte	0xb8
 4222 102c F2040000 		.4byte	.LFB79
 4223 1030 2C000000 		.4byte	.LFE79-.LFB79
 4224 1034 01       		.uleb128 0x1
 4225 1035 9C       		.byte	0x9c
 4226 1036 68100000 		.4byte	0x1068
 4227 103a 29       		.uleb128 0x29
 4228 103b DB020000 		.4byte	.LASF182
 4229 103f 01       		.byte	0x1
 4230 1040 7C02     		.2byte	0x27c
 4231 1042 460C0000 		.4byte	0xc46
 4232 1046 02       		.uleb128 0x2
 4233 1047 91       		.byte	0x91
 4234 1048 6C       		.sleb128 -20
 4235 1049 29       		.uleb128 0x29
 4236 104a 24010000 		.4byte	.LASF216
 4237 104e 01       		.byte	0x1
 4238 104f 7C02     		.2byte	0x27c
 4239 1051 A2000000 		.4byte	0xa2
 4240 1055 02       		.uleb128 0x2
 4241 1056 91       		.byte	0x91
 4242 1057 6B       		.sleb128 -21
 4243 1058 2C       		.uleb128 0x2c
 4244 1059 746D7000 		.ascii	"tmp\000"
 4245 105d 01       		.byte	0x1
 4246 105e 7E02     		.2byte	0x27e
 4247 1060 E3000000 		.4byte	0xe3
 4248 1064 02       		.uleb128 0x2
 4249 1065 91       		.byte	0x91
ARM GAS  /tmp/ccozkyvL.s 			page 99


 4250 1066 74       		.sleb128 -12
 4251 1067 00       		.byte	0
 4252 1068 28       		.uleb128 0x28
 4253 1069 78010000 		.4byte	.LASF217
 4254 106d 01       		.byte	0x1
 4255 106e 5902     		.2byte	0x259
 4256 1070 B8040000 		.4byte	.LFB78
 4257 1074 3A000000 		.4byte	.LFE78-.LFB78
 4258 1078 01       		.uleb128 0x1
 4259 1079 9C       		.byte	0x9c
 4260 107a AC100000 		.4byte	0x10ac
 4261 107e 29       		.uleb128 0x29
 4262 107f DB020000 		.4byte	.LASF182
 4263 1083 01       		.byte	0x1
 4264 1084 5902     		.2byte	0x259
 4265 1086 460C0000 		.4byte	0xc46
 4266 108a 02       		.uleb128 0x2
 4267 108b 91       		.byte	0x91
 4268 108c 74       		.sleb128 -12
 4269 108d 29       		.uleb128 0x29
 4270 108e 06040000 		.4byte	.LASF218
 4271 1092 01       		.byte	0x1
 4272 1093 5902     		.2byte	0x259
 4273 1095 A2000000 		.4byte	0xa2
 4274 1099 02       		.uleb128 0x2
 4275 109a 91       		.byte	0x91
 4276 109b 73       		.sleb128 -13
 4277 109c 29       		.uleb128 0x29
 4278 109d 9D070000 		.4byte	.LASF219
 4279 10a1 01       		.byte	0x1
 4280 10a2 5902     		.2byte	0x259
 4281 10a4 A2000000 		.4byte	0xa2
 4282 10a8 02       		.uleb128 0x2
 4283 10a9 91       		.byte	0x91
 4284 10aa 72       		.sleb128 -14
 4285 10ab 00       		.byte	0
 4286 10ac 2B       		.uleb128 0x2b
 4287 10ad 14010000 		.4byte	.LASF220
 4288 10b1 01       		.byte	0x1
 4289 10b2 4702     		.2byte	0x247
 4290 10b4 A2000000 		.4byte	0xa2
 4291 10b8 9E040000 		.4byte	.LFB77
 4292 10bc 1A000000 		.4byte	.LFE77-.LFB77
 4293 10c0 01       		.uleb128 0x1
 4294 10c1 9C       		.byte	0x9c
 4295 10c2 D6100000 		.4byte	0x10d6
 4296 10c6 29       		.uleb128 0x29
 4297 10c7 DB020000 		.4byte	.LASF182
 4298 10cb 01       		.byte	0x1
 4299 10cc 4702     		.2byte	0x247
 4300 10ce 460C0000 		.4byte	0xc46
 4301 10d2 02       		.uleb128 0x2
 4302 10d3 91       		.byte	0x91
 4303 10d4 74       		.sleb128 -12
 4304 10d5 00       		.byte	0
 4305 10d6 28       		.uleb128 0x28
 4306 10d7 AB070000 		.4byte	.LASF221
ARM GAS  /tmp/ccozkyvL.s 			page 100


 4307 10db 01       		.byte	0x1
 4308 10dc 3A02     		.2byte	0x23a
 4309 10de 80040000 		.4byte	.LFB76
 4310 10e2 1E000000 		.4byte	.LFE76-.LFB76
 4311 10e6 01       		.uleb128 0x1
 4312 10e7 9C       		.byte	0x9c
 4313 10e8 0B110000 		.4byte	0x110b
 4314 10ec 29       		.uleb128 0x29
 4315 10ed DB020000 		.4byte	.LASF182
 4316 10f1 01       		.byte	0x1
 4317 10f2 3A02     		.2byte	0x23a
 4318 10f4 460C0000 		.4byte	0xc46
 4319 10f8 02       		.uleb128 0x2
 4320 10f9 91       		.byte	0x91
 4321 10fa 74       		.sleb128 -12
 4322 10fb 29       		.uleb128 0x29
 4323 10fc BE080000 		.4byte	.LASF222
 4324 1100 01       		.byte	0x1
 4325 1101 3A02     		.2byte	0x23a
 4326 1103 A2000000 		.4byte	0xa2
 4327 1107 02       		.uleb128 0x2
 4328 1108 91       		.byte	0x91
 4329 1109 73       		.sleb128 -13
 4330 110a 00       		.byte	0
 4331 110b 28       		.uleb128 0x28
 4332 110c D2030000 		.4byte	.LASF223
 4333 1110 01       		.byte	0x1
 4334 1111 2102     		.2byte	0x221
 4335 1113 3A040000 		.4byte	.LFB75
 4336 1117 46000000 		.4byte	.LFE75-.LFB75
 4337 111b 01       		.uleb128 0x1
 4338 111c 9C       		.byte	0x9c
 4339 111d 4F110000 		.4byte	0x114f
 4340 1121 29       		.uleb128 0x29
 4341 1122 DB020000 		.4byte	.LASF182
 4342 1126 01       		.byte	0x1
 4343 1127 2102     		.2byte	0x221
 4344 1129 460C0000 		.4byte	0xc46
 4345 112d 02       		.uleb128 0x2
 4346 112e 91       		.byte	0x91
 4347 112f 74       		.sleb128 -12
 4348 1130 29       		.uleb128 0x29
 4349 1131 A4040000 		.4byte	.LASF183
 4350 1135 01       		.byte	0x1
 4351 1136 2102     		.2byte	0x221
 4352 1138 B8000000 		.4byte	0xb8
 4353 113c 02       		.uleb128 0x2
 4354 113d 91       		.byte	0x91
 4355 113e 72       		.sleb128 -14
 4356 113f 29       		.uleb128 0x29
 4357 1140 B2020000 		.4byte	.LASF203
 4358 1144 01       		.byte	0x1
 4359 1145 2102     		.2byte	0x221
 4360 1147 52010000 		.4byte	0x152
 4361 114b 02       		.uleb128 0x2
 4362 114c 91       		.byte	0x91
 4363 114d 71       		.sleb128 -15
ARM GAS  /tmp/ccozkyvL.s 			page 101


 4364 114e 00       		.byte	0
 4365 114f 28       		.uleb128 0x28
 4366 1150 0F070000 		.4byte	.LASF224
 4367 1154 01       		.byte	0x1
 4368 1155 0402     		.2byte	0x204
 4369 1157 FC030000 		.4byte	.LFB74
 4370 115b 3E000000 		.4byte	.LFE74-.LFB74
 4371 115f 01       		.uleb128 0x1
 4372 1160 9C       		.byte	0x9c
 4373 1161 84110000 		.4byte	0x1184
 4374 1165 29       		.uleb128 0x29
 4375 1166 DB020000 		.4byte	.LASF182
 4376 116a 01       		.byte	0x1
 4377 116b 0402     		.2byte	0x204
 4378 116d 460C0000 		.4byte	0xc46
 4379 1171 02       		.uleb128 0x2
 4380 1172 91       		.byte	0x91
 4381 1173 74       		.sleb128 -12
 4382 1174 29       		.uleb128 0x29
 4383 1175 B2020000 		.4byte	.LASF203
 4384 1179 01       		.byte	0x1
 4385 117a 0402     		.2byte	0x204
 4386 117c 52010000 		.4byte	0x152
 4387 1180 02       		.uleb128 0x2
 4388 1181 91       		.byte	0x91
 4389 1182 73       		.sleb128 -13
 4390 1183 00       		.byte	0
 4391 1184 28       		.uleb128 0x28
 4392 1185 73080000 		.4byte	.LASF225
 4393 1189 01       		.byte	0x1
 4394 118a EC01     		.2byte	0x1ec
 4395 118c BE030000 		.4byte	.LFB73
 4396 1190 3E000000 		.4byte	.LFE73-.LFB73
 4397 1194 01       		.uleb128 0x1
 4398 1195 9C       		.byte	0x9c
 4399 1196 B9110000 		.4byte	0x11b9
 4400 119a 29       		.uleb128 0x29
 4401 119b DB020000 		.4byte	.LASF182
 4402 119f 01       		.byte	0x1
 4403 11a0 EC01     		.2byte	0x1ec
 4404 11a2 460C0000 		.4byte	0xc46
 4405 11a6 02       		.uleb128 0x2
 4406 11a7 91       		.byte	0x91
 4407 11a8 74       		.sleb128 -12
 4408 11a9 29       		.uleb128 0x29
 4409 11aa B2020000 		.4byte	.LASF203
 4410 11ae 01       		.byte	0x1
 4411 11af EC01     		.2byte	0x1ec
 4412 11b1 52010000 		.4byte	0x152
 4413 11b5 02       		.uleb128 0x2
 4414 11b6 91       		.byte	0x91
 4415 11b7 73       		.sleb128 -13
 4416 11b8 00       		.byte	0
 4417 11b9 28       		.uleb128 0x28
 4418 11ba DA080000 		.4byte	.LASF226
 4419 11be 01       		.byte	0x1
 4420 11bf D101     		.2byte	0x1d1
ARM GAS  /tmp/ccozkyvL.s 			page 102


 4421 11c1 7C030000 		.4byte	.LFB72
 4422 11c5 42000000 		.4byte	.LFE72-.LFB72
 4423 11c9 01       		.uleb128 0x1
 4424 11ca 9C       		.byte	0x9c
 4425 11cb FD110000 		.4byte	0x11fd
 4426 11cf 29       		.uleb128 0x29
 4427 11d0 DB020000 		.4byte	.LASF182
 4428 11d4 01       		.byte	0x1
 4429 11d5 D101     		.2byte	0x1d1
 4430 11d7 460C0000 		.4byte	0xc46
 4431 11db 02       		.uleb128 0x2
 4432 11dc 91       		.byte	0x91
 4433 11dd 6C       		.sleb128 -20
 4434 11de 29       		.uleb128 0x29
 4435 11df 06040000 		.4byte	.LASF218
 4436 11e3 01       		.byte	0x1
 4437 11e4 D101     		.2byte	0x1d1
 4438 11e6 A2000000 		.4byte	0xa2
 4439 11ea 02       		.uleb128 0x2
 4440 11eb 91       		.byte	0x91
 4441 11ec 6B       		.sleb128 -21
 4442 11ed 2A       		.uleb128 0x2a
 4443 11ee 51080000 		.4byte	.LASF227
 4444 11f2 01       		.byte	0x1
 4445 11f3 D301     		.2byte	0x1d3
 4446 11f5 B8000000 		.4byte	0xb8
 4447 11f9 02       		.uleb128 0x2
 4448 11fa 91       		.byte	0x91
 4449 11fb 76       		.sleb128 -10
 4450 11fc 00       		.byte	0
 4451 11fd 28       		.uleb128 0x28
 4452 11fe BB020000 		.4byte	.LASF228
 4453 1202 01       		.byte	0x1
 4454 1203 BA01     		.2byte	0x1ba
 4455 1205 3E030000 		.4byte	.LFB71
 4456 1209 3E000000 		.4byte	.LFE71-.LFB71
 4457 120d 01       		.uleb128 0x1
 4458 120e 9C       		.byte	0x9c
 4459 120f 32120000 		.4byte	0x1232
 4460 1213 29       		.uleb128 0x29
 4461 1214 DB020000 		.4byte	.LASF182
 4462 1218 01       		.byte	0x1
 4463 1219 BA01     		.2byte	0x1ba
 4464 121b 460C0000 		.4byte	0xc46
 4465 121f 02       		.uleb128 0x2
 4466 1220 91       		.byte	0x91
 4467 1221 74       		.sleb128 -12
 4468 1222 29       		.uleb128 0x29
 4469 1223 B2020000 		.4byte	.LASF203
 4470 1227 01       		.byte	0x1
 4471 1228 BA01     		.2byte	0x1ba
 4472 122a 52010000 		.4byte	0x152
 4473 122e 02       		.uleb128 0x2
 4474 122f 91       		.byte	0x91
 4475 1230 73       		.sleb128 -13
 4476 1231 00       		.byte	0
 4477 1232 28       		.uleb128 0x28
ARM GAS  /tmp/ccozkyvL.s 			page 103


 4478 1233 64060000 		.4byte	.LASF229
 4479 1237 01       		.byte	0x1
 4480 1238 A201     		.2byte	0x1a2
 4481 123a 00030000 		.4byte	.LFB70
 4482 123e 3E000000 		.4byte	.LFE70-.LFB70
 4483 1242 01       		.uleb128 0x1
 4484 1243 9C       		.byte	0x9c
 4485 1244 67120000 		.4byte	0x1267
 4486 1248 29       		.uleb128 0x29
 4487 1249 DB020000 		.4byte	.LASF182
 4488 124d 01       		.byte	0x1
 4489 124e A201     		.2byte	0x1a2
 4490 1250 460C0000 		.4byte	0xc46
 4491 1254 02       		.uleb128 0x2
 4492 1255 91       		.byte	0x91
 4493 1256 74       		.sleb128 -12
 4494 1257 29       		.uleb128 0x29
 4495 1258 B2020000 		.4byte	.LASF203
 4496 125c 01       		.byte	0x1
 4497 125d A201     		.2byte	0x1a2
 4498 125f 52010000 		.4byte	0x152
 4499 1263 02       		.uleb128 0x2
 4500 1264 91       		.byte	0x91
 4501 1265 73       		.sleb128 -13
 4502 1266 00       		.byte	0
 4503 1267 28       		.uleb128 0x28
 4504 1268 30090000 		.4byte	.LASF230
 4505 126c 01       		.byte	0x1
 4506 126d 8A01     		.2byte	0x18a
 4507 126f C2020000 		.4byte	.LFB69
 4508 1273 3E000000 		.4byte	.LFE69-.LFB69
 4509 1277 01       		.uleb128 0x1
 4510 1278 9C       		.byte	0x9c
 4511 1279 9C120000 		.4byte	0x129c
 4512 127d 29       		.uleb128 0x29
 4513 127e DB020000 		.4byte	.LASF182
 4514 1282 01       		.byte	0x1
 4515 1283 8A01     		.2byte	0x18a
 4516 1285 460C0000 		.4byte	0xc46
 4517 1289 02       		.uleb128 0x2
 4518 128a 91       		.byte	0x91
 4519 128b 74       		.sleb128 -12
 4520 128c 29       		.uleb128 0x29
 4521 128d B2020000 		.4byte	.LASF203
 4522 1291 01       		.byte	0x1
 4523 1292 8A01     		.2byte	0x18a
 4524 1294 52010000 		.4byte	0x152
 4525 1298 02       		.uleb128 0x2
 4526 1299 91       		.byte	0x91
 4527 129a 73       		.sleb128 -13
 4528 129b 00       		.byte	0
 4529 129c 28       		.uleb128 0x28
 4530 129d 5B0A0000 		.4byte	.LASF231
 4531 12a1 01       		.byte	0x1
 4532 12a2 7201     		.2byte	0x172
 4533 12a4 84020000 		.4byte	.LFB68
 4534 12a8 3E000000 		.4byte	.LFE68-.LFB68
ARM GAS  /tmp/ccozkyvL.s 			page 104


 4535 12ac 01       		.uleb128 0x1
 4536 12ad 9C       		.byte	0x9c
 4537 12ae D1120000 		.4byte	0x12d1
 4538 12b2 29       		.uleb128 0x29
 4539 12b3 DB020000 		.4byte	.LASF182
 4540 12b7 01       		.byte	0x1
 4541 12b8 7201     		.2byte	0x172
 4542 12ba 460C0000 		.4byte	0xc46
 4543 12be 02       		.uleb128 0x2
 4544 12bf 91       		.byte	0x91
 4545 12c0 74       		.sleb128 -12
 4546 12c1 29       		.uleb128 0x29
 4547 12c2 B2020000 		.4byte	.LASF203
 4548 12c6 01       		.byte	0x1
 4549 12c7 7201     		.2byte	0x172
 4550 12c9 52010000 		.4byte	0x152
 4551 12cd 02       		.uleb128 0x2
 4552 12ce 91       		.byte	0x91
 4553 12cf 73       		.sleb128 -13
 4554 12d0 00       		.byte	0
 4555 12d1 28       		.uleb128 0x28
 4556 12d2 4C050000 		.4byte	.LASF232
 4557 12d6 01       		.byte	0x1
 4558 12d7 5A01     		.2byte	0x15a
 4559 12d9 46020000 		.4byte	.LFB67
 4560 12dd 3E000000 		.4byte	.LFE67-.LFB67
 4561 12e1 01       		.uleb128 0x1
 4562 12e2 9C       		.byte	0x9c
 4563 12e3 06130000 		.4byte	0x1306
 4564 12e7 29       		.uleb128 0x29
 4565 12e8 DB020000 		.4byte	.LASF182
 4566 12ec 01       		.byte	0x1
 4567 12ed 5A01     		.2byte	0x15a
 4568 12ef 460C0000 		.4byte	0xc46
 4569 12f3 02       		.uleb128 0x2
 4570 12f4 91       		.byte	0x91
 4571 12f5 74       		.sleb128 -12
 4572 12f6 29       		.uleb128 0x29
 4573 12f7 B2020000 		.4byte	.LASF203
 4574 12fb 01       		.byte	0x1
 4575 12fc 5A01     		.2byte	0x15a
 4576 12fe 52010000 		.4byte	0x152
 4577 1302 02       		.uleb128 0x2
 4578 1303 91       		.byte	0x91
 4579 1304 73       		.sleb128 -13
 4580 1305 00       		.byte	0
 4581 1306 28       		.uleb128 0x28
 4582 1307 FE030000 		.4byte	.LASF233
 4583 130b 01       		.byte	0x1
 4584 130c 4201     		.2byte	0x142
 4585 130e 08020000 		.4byte	.LFB66
 4586 1312 3E000000 		.4byte	.LFE66-.LFB66
 4587 1316 01       		.uleb128 0x1
 4588 1317 9C       		.byte	0x9c
 4589 1318 3B130000 		.4byte	0x133b
 4590 131c 29       		.uleb128 0x29
 4591 131d DB020000 		.4byte	.LASF182
ARM GAS  /tmp/ccozkyvL.s 			page 105


 4592 1321 01       		.byte	0x1
 4593 1322 4201     		.2byte	0x142
 4594 1324 460C0000 		.4byte	0xc46
 4595 1328 02       		.uleb128 0x2
 4596 1329 91       		.byte	0x91
 4597 132a 74       		.sleb128 -12
 4598 132b 29       		.uleb128 0x29
 4599 132c B2020000 		.4byte	.LASF203
 4600 1330 01       		.byte	0x1
 4601 1331 4201     		.2byte	0x142
 4602 1333 52010000 		.4byte	0x152
 4603 1337 02       		.uleb128 0x2
 4604 1338 91       		.byte	0x91
 4605 1339 73       		.sleb128 -13
 4606 133a 00       		.byte	0
 4607 133b 28       		.uleb128 0x28
 4608 133c 4A000000 		.4byte	.LASF234
 4609 1340 01       		.byte	0x1
 4610 1341 2A01     		.2byte	0x12a
 4611 1343 CC010000 		.4byte	.LFB65
 4612 1347 3C000000 		.4byte	.LFE65-.LFB65
 4613 134b 01       		.uleb128 0x1
 4614 134c 9C       		.byte	0x9c
 4615 134d 61130000 		.4byte	0x1361
 4616 1351 29       		.uleb128 0x29
 4617 1352 BA0A0000 		.4byte	.LASF235
 4618 1356 01       		.byte	0x1
 4619 1357 2A01     		.2byte	0x12a
 4620 1359 61130000 		.4byte	0x1361
 4621 135d 02       		.uleb128 0x2
 4622 135e 91       		.byte	0x91
 4623 135f 74       		.sleb128 -12
 4624 1360 00       		.byte	0
 4625 1361 12       		.uleb128 0x12
 4626 1362 04       		.byte	0x4
 4627 1363 D4020000 		.4byte	0x2d4
 4628 1367 2D       		.uleb128 0x2d
 4629 1368 DE040000 		.4byte	.LASF236
 4630 136c 01       		.byte	0x1
 4631 136d BF       		.byte	0xbf
 4632 136e 48000000 		.4byte	.LFB64
 4633 1372 84010000 		.4byte	.LFE64-.LFB64
 4634 1376 01       		.uleb128 0x1
 4635 1377 9C       		.byte	0x9c
 4636 1378 DF130000 		.4byte	0x13df
 4637 137c 2E       		.uleb128 0x2e
 4638 137d DB020000 		.4byte	.LASF182
 4639 1381 01       		.byte	0x1
 4640 1382 BF       		.byte	0xbf
 4641 1383 460C0000 		.4byte	0xc46
 4642 1387 02       		.uleb128 0x2
 4643 1388 91       		.byte	0x91
 4644 1389 54       		.sleb128 -44
 4645 138a 2E       		.uleb128 0x2e
 4646 138b BA0A0000 		.4byte	.LASF235
 4647 138f 01       		.byte	0x1
 4648 1390 BF       		.byte	0xbf
ARM GAS  /tmp/ccozkyvL.s 			page 106


 4649 1391 61130000 		.4byte	0x1361
 4650 1395 02       		.uleb128 0x2
 4651 1396 91       		.byte	0x91
 4652 1397 50       		.sleb128 -48
 4653 1398 2F       		.uleb128 0x2f
 4654 1399 51080000 		.4byte	.LASF227
 4655 139d 01       		.byte	0x1
 4656 139e C1       		.byte	0xc1
 4657 139f B8000000 		.4byte	0xb8
 4658 13a3 02       		.uleb128 0x2
 4659 13a4 91       		.byte	0x91
 4660 13a5 76       		.sleb128 -10
 4661 13a6 2F       		.uleb128 0x2f
 4662 13a7 0A010000 		.4byte	.LASF237
 4663 13ab 01       		.byte	0x1
 4664 13ac C1       		.byte	0xc1
 4665 13ad B8000000 		.4byte	0xb8
 4666 13b1 02       		.uleb128 0x2
 4667 13b2 91       		.byte	0x91
 4668 13b3 72       		.sleb128 -14
 4669 13b4 2F       		.uleb128 0x2f
 4670 13b5 58010000 		.4byte	.LASF238
 4671 13b9 01       		.byte	0x1
 4672 13ba C2       		.byte	0xc2
 4673 13bb B8000000 		.4byte	0xb8
 4674 13bf 02       		.uleb128 0x2
 4675 13c0 91       		.byte	0x91
 4676 13c1 74       		.sleb128 -12
 4677 13c2 2F       		.uleb128 0x2f
 4678 13c3 A1050000 		.4byte	.LASF239
 4679 13c7 01       		.byte	0x1
 4680 13c8 C3       		.byte	0xc3
 4681 13c9 D8000000 		.4byte	0xd8
 4682 13cd 02       		.uleb128 0x2
 4683 13ce 91       		.byte	0x91
 4684 13cf 6C       		.sleb128 -20
 4685 13d0 2F       		.uleb128 0x2f
 4686 13d1 CD040000 		.4byte	.LASF240
 4687 13d5 01       		.byte	0x1
 4688 13d6 C4       		.byte	0xc4
 4689 13d7 24030000 		.4byte	0x324
 4690 13db 02       		.uleb128 0x2
 4691 13dc 91       		.byte	0x91
 4692 13dd 58       		.sleb128 -40
 4693 13de 00       		.byte	0
 4694 13df 30       		.uleb128 0x30
 4695 13e0 C7030000 		.4byte	.LASF245
 4696 13e4 01       		.byte	0x1
 4697 13e5 A2       		.byte	0xa2
 4698 13e6 00000000 		.4byte	.LFB63
 4699 13ea 48000000 		.4byte	.LFE63-.LFB63
 4700 13ee 01       		.uleb128 0x1
 4701 13ef 9C       		.byte	0x9c
 4702 13f0 2E       		.uleb128 0x2e
 4703 13f1 DB020000 		.4byte	.LASF182
 4704 13f5 01       		.byte	0x1
 4705 13f6 A2       		.byte	0xa2
ARM GAS  /tmp/ccozkyvL.s 			page 107


 4706 13f7 460C0000 		.4byte	0xc46
 4707 13fb 02       		.uleb128 0x2
 4708 13fc 91       		.byte	0x91
 4709 13fd 74       		.sleb128 -12
 4710 13fe 00       		.byte	0
 4711 13ff 00       		.byte	0
 4712              		.section	.debug_abbrev,"",%progbits
 4713              	.Ldebug_abbrev0:
 4714 0000 01       		.uleb128 0x1
 4715 0001 11       		.uleb128 0x11
 4716 0002 01       		.byte	0x1
 4717 0003 25       		.uleb128 0x25
 4718 0004 0E       		.uleb128 0xe
 4719 0005 13       		.uleb128 0x13
 4720 0006 0B       		.uleb128 0xb
 4721 0007 03       		.uleb128 0x3
 4722 0008 0E       		.uleb128 0xe
 4723 0009 1B       		.uleb128 0x1b
 4724 000a 0E       		.uleb128 0xe
 4725 000b 11       		.uleb128 0x11
 4726 000c 01       		.uleb128 0x1
 4727 000d 12       		.uleb128 0x12
 4728 000e 06       		.uleb128 0x6
 4729 000f 10       		.uleb128 0x10
 4730 0010 17       		.uleb128 0x17
 4731 0011 00       		.byte	0
 4732 0012 00       		.byte	0
 4733 0013 02       		.uleb128 0x2
 4734 0014 24       		.uleb128 0x24
 4735 0015 00       		.byte	0
 4736 0016 0B       		.uleb128 0xb
 4737 0017 0B       		.uleb128 0xb
 4738 0018 3E       		.uleb128 0x3e
 4739 0019 0B       		.uleb128 0xb
 4740 001a 03       		.uleb128 0x3
 4741 001b 0E       		.uleb128 0xe
 4742 001c 00       		.byte	0
 4743 001d 00       		.byte	0
 4744 001e 03       		.uleb128 0x3
 4745 001f 16       		.uleb128 0x16
 4746 0020 00       		.byte	0
 4747 0021 03       		.uleb128 0x3
 4748 0022 0E       		.uleb128 0xe
 4749 0023 3A       		.uleb128 0x3a
 4750 0024 0B       		.uleb128 0xb
 4751 0025 3B       		.uleb128 0x3b
 4752 0026 0B       		.uleb128 0xb
 4753 0027 49       		.uleb128 0x49
 4754 0028 13       		.uleb128 0x13
 4755 0029 00       		.byte	0
 4756 002a 00       		.byte	0
 4757 002b 04       		.uleb128 0x4
 4758 002c 24       		.uleb128 0x24
 4759 002d 00       		.byte	0
 4760 002e 0B       		.uleb128 0xb
 4761 002f 0B       		.uleb128 0xb
 4762 0030 3E       		.uleb128 0x3e
ARM GAS  /tmp/ccozkyvL.s 			page 108


 4763 0031 0B       		.uleb128 0xb
 4764 0032 03       		.uleb128 0x3
 4765 0033 08       		.uleb128 0x8
 4766 0034 00       		.byte	0
 4767 0035 00       		.byte	0
 4768 0036 05       		.uleb128 0x5
 4769 0037 35       		.uleb128 0x35
 4770 0038 00       		.byte	0
 4771 0039 49       		.uleb128 0x49
 4772 003a 13       		.uleb128 0x13
 4773 003b 00       		.byte	0
 4774 003c 00       		.byte	0
 4775 003d 06       		.uleb128 0x6
 4776 003e 34       		.uleb128 0x34
 4777 003f 00       		.byte	0
 4778 0040 03       		.uleb128 0x3
 4779 0041 0E       		.uleb128 0xe
 4780 0042 3A       		.uleb128 0x3a
 4781 0043 0B       		.uleb128 0xb
 4782 0044 3B       		.uleb128 0x3b
 4783 0045 05       		.uleb128 0x5
 4784 0046 49       		.uleb128 0x49
 4785 0047 13       		.uleb128 0x13
 4786 0048 3F       		.uleb128 0x3f
 4787 0049 19       		.uleb128 0x19
 4788 004a 3C       		.uleb128 0x3c
 4789 004b 19       		.uleb128 0x19
 4790 004c 00       		.byte	0
 4791 004d 00       		.byte	0
 4792 004e 07       		.uleb128 0x7
 4793 004f 34       		.uleb128 0x34
 4794 0050 00       		.byte	0
 4795 0051 03       		.uleb128 0x3
 4796 0052 0E       		.uleb128 0xe
 4797 0053 3A       		.uleb128 0x3a
 4798 0054 0B       		.uleb128 0xb
 4799 0055 3B       		.uleb128 0x3b
 4800 0056 0B       		.uleb128 0xb
 4801 0057 49       		.uleb128 0x49
 4802 0058 13       		.uleb128 0x13
 4803 0059 3F       		.uleb128 0x3f
 4804 005a 19       		.uleb128 0x19
 4805 005b 3C       		.uleb128 0x3c
 4806 005c 19       		.uleb128 0x19
 4807 005d 00       		.byte	0
 4808 005e 00       		.byte	0
 4809 005f 08       		.uleb128 0x8
 4810 0060 04       		.uleb128 0x4
 4811 0061 01       		.byte	0x1
 4812 0062 0B       		.uleb128 0xb
 4813 0063 0B       		.uleb128 0xb
 4814 0064 49       		.uleb128 0x49
 4815 0065 13       		.uleb128 0x13
 4816 0066 3A       		.uleb128 0x3a
 4817 0067 0B       		.uleb128 0xb
 4818 0068 3B       		.uleb128 0x3b
 4819 0069 05       		.uleb128 0x5
ARM GAS  /tmp/ccozkyvL.s 			page 109


 4820 006a 01       		.uleb128 0x1
 4821 006b 13       		.uleb128 0x13
 4822 006c 00       		.byte	0
 4823 006d 00       		.byte	0
 4824 006e 09       		.uleb128 0x9
 4825 006f 28       		.uleb128 0x28
 4826 0070 00       		.byte	0
 4827 0071 03       		.uleb128 0x3
 4828 0072 0E       		.uleb128 0xe
 4829 0073 1C       		.uleb128 0x1c
 4830 0074 0B       		.uleb128 0xb
 4831 0075 00       		.byte	0
 4832 0076 00       		.byte	0
 4833 0077 0A       		.uleb128 0xa
 4834 0078 28       		.uleb128 0x28
 4835 0079 00       		.byte	0
 4836 007a 03       		.uleb128 0x3
 4837 007b 08       		.uleb128 0x8
 4838 007c 1C       		.uleb128 0x1c
 4839 007d 0B       		.uleb128 0xb
 4840 007e 00       		.byte	0
 4841 007f 00       		.byte	0
 4842 0080 0B       		.uleb128 0xb
 4843 0081 16       		.uleb128 0x16
 4844 0082 00       		.byte	0
 4845 0083 03       		.uleb128 0x3
 4846 0084 0E       		.uleb128 0xe
 4847 0085 3A       		.uleb128 0x3a
 4848 0086 0B       		.uleb128 0xb
 4849 0087 3B       		.uleb128 0x3b
 4850 0088 05       		.uleb128 0x5
 4851 0089 49       		.uleb128 0x49
 4852 008a 13       		.uleb128 0x13
 4853 008b 00       		.byte	0
 4854 008c 00       		.byte	0
 4855 008d 0C       		.uleb128 0xc
 4856 008e 13       		.uleb128 0x13
 4857 008f 01       		.byte	0x1
 4858 0090 0B       		.uleb128 0xb
 4859 0091 0B       		.uleb128 0xb
 4860 0092 3A       		.uleb128 0x3a
 4861 0093 0B       		.uleb128 0xb
 4862 0094 3B       		.uleb128 0x3b
 4863 0095 05       		.uleb128 0x5
 4864 0096 01       		.uleb128 0x1
 4865 0097 13       		.uleb128 0x13
 4866 0098 00       		.byte	0
 4867 0099 00       		.byte	0
 4868 009a 0D       		.uleb128 0xd
 4869 009b 0D       		.uleb128 0xd
 4870 009c 00       		.byte	0
 4871 009d 03       		.uleb128 0x3
 4872 009e 08       		.uleb128 0x8
 4873 009f 3A       		.uleb128 0x3a
 4874 00a0 0B       		.uleb128 0xb
 4875 00a1 3B       		.uleb128 0x3b
 4876 00a2 05       		.uleb128 0x5
ARM GAS  /tmp/ccozkyvL.s 			page 110


 4877 00a3 49       		.uleb128 0x49
 4878 00a4 13       		.uleb128 0x13
 4879 00a5 38       		.uleb128 0x38
 4880 00a6 0B       		.uleb128 0xb
 4881 00a7 00       		.byte	0
 4882 00a8 00       		.byte	0
 4883 00a9 0E       		.uleb128 0xe
 4884 00aa 0D       		.uleb128 0xd
 4885 00ab 00       		.byte	0
 4886 00ac 03       		.uleb128 0x3
 4887 00ad 0E       		.uleb128 0xe
 4888 00ae 3A       		.uleb128 0x3a
 4889 00af 0B       		.uleb128 0xb
 4890 00b0 3B       		.uleb128 0x3b
 4891 00b1 05       		.uleb128 0x5
 4892 00b2 49       		.uleb128 0x49
 4893 00b3 13       		.uleb128 0x13
 4894 00b4 38       		.uleb128 0x38
 4895 00b5 0B       		.uleb128 0xb
 4896 00b6 00       		.byte	0
 4897 00b7 00       		.byte	0
 4898 00b8 0F       		.uleb128 0xf
 4899 00b9 13       		.uleb128 0x13
 4900 00ba 01       		.byte	0x1
 4901 00bb 0B       		.uleb128 0xb
 4902 00bc 0B       		.uleb128 0xb
 4903 00bd 3A       		.uleb128 0x3a
 4904 00be 0B       		.uleb128 0xb
 4905 00bf 3B       		.uleb128 0x3b
 4906 00c0 0B       		.uleb128 0xb
 4907 00c1 01       		.uleb128 0x1
 4908 00c2 13       		.uleb128 0x13
 4909 00c3 00       		.byte	0
 4910 00c4 00       		.byte	0
 4911 00c5 10       		.uleb128 0x10
 4912 00c6 0D       		.uleb128 0xd
 4913 00c7 00       		.byte	0
 4914 00c8 03       		.uleb128 0x3
 4915 00c9 0E       		.uleb128 0xe
 4916 00ca 3A       		.uleb128 0x3a
 4917 00cb 0B       		.uleb128 0xb
 4918 00cc 3B       		.uleb128 0x3b
 4919 00cd 0B       		.uleb128 0xb
 4920 00ce 49       		.uleb128 0x49
 4921 00cf 13       		.uleb128 0x13
 4922 00d0 38       		.uleb128 0x38
 4923 00d1 0B       		.uleb128 0xb
 4924 00d2 00       		.byte	0
 4925 00d3 00       		.byte	0
 4926 00d4 11       		.uleb128 0x11
 4927 00d5 15       		.uleb128 0x15
 4928 00d6 00       		.byte	0
 4929 00d7 27       		.uleb128 0x27
 4930 00d8 19       		.uleb128 0x19
 4931 00d9 00       		.byte	0
 4932 00da 00       		.byte	0
 4933 00db 12       		.uleb128 0x12
ARM GAS  /tmp/ccozkyvL.s 			page 111


 4934 00dc 0F       		.uleb128 0xf
 4935 00dd 00       		.byte	0
 4936 00de 0B       		.uleb128 0xb
 4937 00df 0B       		.uleb128 0xb
 4938 00e0 49       		.uleb128 0x49
 4939 00e1 13       		.uleb128 0x13
 4940 00e2 00       		.byte	0
 4941 00e3 00       		.byte	0
 4942 00e4 13       		.uleb128 0x13
 4943 00e5 01       		.uleb128 0x1
 4944 00e6 01       		.byte	0x1
 4945 00e7 49       		.uleb128 0x49
 4946 00e8 13       		.uleb128 0x13
 4947 00e9 01       		.uleb128 0x1
 4948 00ea 13       		.uleb128 0x13
 4949 00eb 00       		.byte	0
 4950 00ec 00       		.byte	0
 4951 00ed 14       		.uleb128 0x14
 4952 00ee 21       		.uleb128 0x21
 4953 00ef 00       		.byte	0
 4954 00f0 49       		.uleb128 0x49
 4955 00f1 13       		.uleb128 0x13
 4956 00f2 2F       		.uleb128 0x2f
 4957 00f3 0B       		.uleb128 0xb
 4958 00f4 00       		.byte	0
 4959 00f5 00       		.byte	0
 4960 00f6 15       		.uleb128 0x15
 4961 00f7 34       		.uleb128 0x34
 4962 00f8 00       		.byte	0
 4963 00f9 03       		.uleb128 0x3
 4964 00fa 08       		.uleb128 0x8
 4965 00fb 3A       		.uleb128 0x3a
 4966 00fc 0B       		.uleb128 0xb
 4967 00fd 3B       		.uleb128 0x3b
 4968 00fe 05       		.uleb128 0x5
 4969 00ff 49       		.uleb128 0x49
 4970 0100 13       		.uleb128 0x13
 4971 0101 3F       		.uleb128 0x3f
 4972 0102 19       		.uleb128 0x19
 4973 0103 3C       		.uleb128 0x3c
 4974 0104 19       		.uleb128 0x19
 4975 0105 00       		.byte	0
 4976 0106 00       		.byte	0
 4977 0107 16       		.uleb128 0x16
 4978 0108 17       		.uleb128 0x17
 4979 0109 01       		.byte	0x1
 4980 010a 0B       		.uleb128 0xb
 4981 010b 0B       		.uleb128 0xb
 4982 010c 3A       		.uleb128 0x3a
 4983 010d 0B       		.uleb128 0xb
 4984 010e 3B       		.uleb128 0x3b
 4985 010f 0B       		.uleb128 0xb
 4986 0110 01       		.uleb128 0x1
 4987 0111 13       		.uleb128 0x13
 4988 0112 00       		.byte	0
 4989 0113 00       		.byte	0
 4990 0114 17       		.uleb128 0x17
ARM GAS  /tmp/ccozkyvL.s 			page 112


 4991 0115 0D       		.uleb128 0xd
 4992 0116 00       		.byte	0
 4993 0117 03       		.uleb128 0x3
 4994 0118 0E       		.uleb128 0xe
 4995 0119 3A       		.uleb128 0x3a
 4996 011a 0B       		.uleb128 0xb
 4997 011b 3B       		.uleb128 0x3b
 4998 011c 0B       		.uleb128 0xb
 4999 011d 49       		.uleb128 0x49
 5000 011e 13       		.uleb128 0x13
 5001 011f 00       		.byte	0
 5002 0120 00       		.byte	0
 5003 0121 18       		.uleb128 0x18
 5004 0122 0F       		.uleb128 0xf
 5005 0123 00       		.byte	0
 5006 0124 0B       		.uleb128 0xb
 5007 0125 0B       		.uleb128 0xb
 5008 0126 00       		.byte	0
 5009 0127 00       		.byte	0
 5010 0128 19       		.uleb128 0x19
 5011 0129 26       		.uleb128 0x26
 5012 012a 00       		.byte	0
 5013 012b 49       		.uleb128 0x49
 5014 012c 13       		.uleb128 0x13
 5015 012d 00       		.byte	0
 5016 012e 00       		.byte	0
 5017 012f 1A       		.uleb128 0x1a
 5018 0130 13       		.uleb128 0x13
 5019 0131 01       		.byte	0x1
 5020 0132 03       		.uleb128 0x3
 5021 0133 0E       		.uleb128 0xe
 5022 0134 0B       		.uleb128 0xb
 5023 0135 0B       		.uleb128 0xb
 5024 0136 3A       		.uleb128 0x3a
 5025 0137 0B       		.uleb128 0xb
 5026 0138 3B       		.uleb128 0x3b
 5027 0139 0B       		.uleb128 0xb
 5028 013a 01       		.uleb128 0x1
 5029 013b 13       		.uleb128 0x13
 5030 013c 00       		.byte	0
 5031 013d 00       		.byte	0
 5032 013e 1B       		.uleb128 0x1b
 5033 013f 0D       		.uleb128 0xd
 5034 0140 00       		.byte	0
 5035 0141 03       		.uleb128 0x3
 5036 0142 08       		.uleb128 0x8
 5037 0143 3A       		.uleb128 0x3a
 5038 0144 0B       		.uleb128 0xb
 5039 0145 3B       		.uleb128 0x3b
 5040 0146 0B       		.uleb128 0xb
 5041 0147 49       		.uleb128 0x49
 5042 0148 13       		.uleb128 0x13
 5043 0149 38       		.uleb128 0x38
 5044 014a 0B       		.uleb128 0xb
 5045 014b 00       		.byte	0
 5046 014c 00       		.byte	0
 5047 014d 1C       		.uleb128 0x1c
ARM GAS  /tmp/ccozkyvL.s 			page 113


 5048 014e 13       		.uleb128 0x13
 5049 014f 01       		.byte	0x1
 5050 0150 03       		.uleb128 0x3
 5051 0151 0E       		.uleb128 0xe
 5052 0152 0B       		.uleb128 0xb
 5053 0153 05       		.uleb128 0x5
 5054 0154 3A       		.uleb128 0x3a
 5055 0155 0B       		.uleb128 0xb
 5056 0156 3B       		.uleb128 0x3b
 5057 0157 0B       		.uleb128 0xb
 5058 0158 01       		.uleb128 0x1
 5059 0159 13       		.uleb128 0x13
 5060 015a 00       		.byte	0
 5061 015b 00       		.byte	0
 5062 015c 1D       		.uleb128 0x1d
 5063 015d 0D       		.uleb128 0xd
 5064 015e 00       		.byte	0
 5065 015f 03       		.uleb128 0x3
 5066 0160 0E       		.uleb128 0xe
 5067 0161 3A       		.uleb128 0x3a
 5068 0162 0B       		.uleb128 0xb
 5069 0163 3B       		.uleb128 0x3b
 5070 0164 0B       		.uleb128 0xb
 5071 0165 49       		.uleb128 0x49
 5072 0166 13       		.uleb128 0x13
 5073 0167 38       		.uleb128 0x38
 5074 0168 05       		.uleb128 0x5
 5075 0169 00       		.byte	0
 5076 016a 00       		.byte	0
 5077 016b 1E       		.uleb128 0x1e
 5078 016c 15       		.uleb128 0x15
 5079 016d 01       		.byte	0x1
 5080 016e 27       		.uleb128 0x27
 5081 016f 19       		.uleb128 0x19
 5082 0170 49       		.uleb128 0x49
 5083 0171 13       		.uleb128 0x13
 5084 0172 01       		.uleb128 0x1
 5085 0173 13       		.uleb128 0x13
 5086 0174 00       		.byte	0
 5087 0175 00       		.byte	0
 5088 0176 1F       		.uleb128 0x1f
 5089 0177 05       		.uleb128 0x5
 5090 0178 00       		.byte	0
 5091 0179 49       		.uleb128 0x49
 5092 017a 13       		.uleb128 0x13
 5093 017b 00       		.byte	0
 5094 017c 00       		.byte	0
 5095 017d 20       		.uleb128 0x20
 5096 017e 13       		.uleb128 0x13
 5097 017f 01       		.byte	0x1
 5098 0180 03       		.uleb128 0x3
 5099 0181 0E       		.uleb128 0xe
 5100 0182 0B       		.uleb128 0xb
 5101 0183 05       		.uleb128 0x5
 5102 0184 3A       		.uleb128 0x3a
 5103 0185 0B       		.uleb128 0xb
 5104 0186 3B       		.uleb128 0x3b
ARM GAS  /tmp/ccozkyvL.s 			page 114


 5105 0187 05       		.uleb128 0x5
 5106 0188 01       		.uleb128 0x1
 5107 0189 13       		.uleb128 0x13
 5108 018a 00       		.byte	0
 5109 018b 00       		.byte	0
 5110 018c 21       		.uleb128 0x21
 5111 018d 0D       		.uleb128 0xd
 5112 018e 00       		.byte	0
 5113 018f 03       		.uleb128 0x3
 5114 0190 0E       		.uleb128 0xe
 5115 0191 3A       		.uleb128 0x3a
 5116 0192 0B       		.uleb128 0xb
 5117 0193 3B       		.uleb128 0x3b
 5118 0194 05       		.uleb128 0x5
 5119 0195 49       		.uleb128 0x49
 5120 0196 13       		.uleb128 0x13
 5121 0197 38       		.uleb128 0x38
 5122 0198 05       		.uleb128 0x5
 5123 0199 00       		.byte	0
 5124 019a 00       		.byte	0
 5125 019b 22       		.uleb128 0x22
 5126 019c 13       		.uleb128 0x13
 5127 019d 01       		.byte	0x1
 5128 019e 03       		.uleb128 0x3
 5129 019f 0E       		.uleb128 0xe
 5130 01a0 0B       		.uleb128 0xb
 5131 01a1 0B       		.uleb128 0xb
 5132 01a2 3A       		.uleb128 0x3a
 5133 01a3 0B       		.uleb128 0xb
 5134 01a4 3B       		.uleb128 0x3b
 5135 01a5 05       		.uleb128 0x5
 5136 01a6 01       		.uleb128 0x1
 5137 01a7 13       		.uleb128 0x13
 5138 01a8 00       		.byte	0
 5139 01a9 00       		.byte	0
 5140 01aa 23       		.uleb128 0x23
 5141 01ab 17       		.uleb128 0x17
 5142 01ac 01       		.byte	0x1
 5143 01ad 0B       		.uleb128 0xb
 5144 01ae 0B       		.uleb128 0xb
 5145 01af 3A       		.uleb128 0x3a
 5146 01b0 0B       		.uleb128 0xb
 5147 01b1 3B       		.uleb128 0x3b
 5148 01b2 05       		.uleb128 0x5
 5149 01b3 01       		.uleb128 0x1
 5150 01b4 13       		.uleb128 0x13
 5151 01b5 00       		.byte	0
 5152 01b6 00       		.byte	0
 5153 01b7 24       		.uleb128 0x24
 5154 01b8 0D       		.uleb128 0xd
 5155 01b9 00       		.byte	0
 5156 01ba 03       		.uleb128 0x3
 5157 01bb 0E       		.uleb128 0xe
 5158 01bc 3A       		.uleb128 0x3a
 5159 01bd 0B       		.uleb128 0xb
 5160 01be 3B       		.uleb128 0x3b
 5161 01bf 05       		.uleb128 0x5
ARM GAS  /tmp/ccozkyvL.s 			page 115


 5162 01c0 49       		.uleb128 0x49
 5163 01c1 13       		.uleb128 0x13
 5164 01c2 00       		.byte	0
 5165 01c3 00       		.byte	0
 5166 01c4 25       		.uleb128 0x25
 5167 01c5 15       		.uleb128 0x15
 5168 01c6 01       		.byte	0x1
 5169 01c7 27       		.uleb128 0x27
 5170 01c8 19       		.uleb128 0x19
 5171 01c9 01       		.uleb128 0x1
 5172 01ca 13       		.uleb128 0x13
 5173 01cb 00       		.byte	0
 5174 01cc 00       		.byte	0
 5175 01cd 26       		.uleb128 0x26
 5176 01ce 04       		.uleb128 0x4
 5177 01cf 01       		.byte	0x1
 5178 01d0 03       		.uleb128 0x3
 5179 01d1 0E       		.uleb128 0xe
 5180 01d2 0B       		.uleb128 0xb
 5181 01d3 0B       		.uleb128 0xb
 5182 01d4 49       		.uleb128 0x49
 5183 01d5 13       		.uleb128 0x13
 5184 01d6 3A       		.uleb128 0x3a
 5185 01d7 0B       		.uleb128 0xb
 5186 01d8 3B       		.uleb128 0x3b
 5187 01d9 05       		.uleb128 0x5
 5188 01da 01       		.uleb128 0x1
 5189 01db 13       		.uleb128 0x13
 5190 01dc 00       		.byte	0
 5191 01dd 00       		.byte	0
 5192 01de 27       		.uleb128 0x27
 5193 01df 28       		.uleb128 0x28
 5194 01e0 00       		.byte	0
 5195 01e1 03       		.uleb128 0x3
 5196 01e2 0E       		.uleb128 0xe
 5197 01e3 1C       		.uleb128 0x1c
 5198 01e4 0D       		.uleb128 0xd
 5199 01e5 00       		.byte	0
 5200 01e6 00       		.byte	0
 5201 01e7 28       		.uleb128 0x28
 5202 01e8 2E       		.uleb128 0x2e
 5203 01e9 01       		.byte	0x1
 5204 01ea 3F       		.uleb128 0x3f
 5205 01eb 19       		.uleb128 0x19
 5206 01ec 03       		.uleb128 0x3
 5207 01ed 0E       		.uleb128 0xe
 5208 01ee 3A       		.uleb128 0x3a
 5209 01ef 0B       		.uleb128 0xb
 5210 01f0 3B       		.uleb128 0x3b
 5211 01f1 05       		.uleb128 0x5
 5212 01f2 27       		.uleb128 0x27
 5213 01f3 19       		.uleb128 0x19
 5214 01f4 11       		.uleb128 0x11
 5215 01f5 01       		.uleb128 0x1
 5216 01f6 12       		.uleb128 0x12
 5217 01f7 06       		.uleb128 0x6
 5218 01f8 40       		.uleb128 0x40
ARM GAS  /tmp/ccozkyvL.s 			page 116


 5219 01f9 18       		.uleb128 0x18
 5220 01fa 9742     		.uleb128 0x2117
 5221 01fc 19       		.uleb128 0x19
 5222 01fd 01       		.uleb128 0x1
 5223 01fe 13       		.uleb128 0x13
 5224 01ff 00       		.byte	0
 5225 0200 00       		.byte	0
 5226 0201 29       		.uleb128 0x29
 5227 0202 05       		.uleb128 0x5
 5228 0203 00       		.byte	0
 5229 0204 03       		.uleb128 0x3
 5230 0205 0E       		.uleb128 0xe
 5231 0206 3A       		.uleb128 0x3a
 5232 0207 0B       		.uleb128 0xb
 5233 0208 3B       		.uleb128 0x3b
 5234 0209 05       		.uleb128 0x5
 5235 020a 49       		.uleb128 0x49
 5236 020b 13       		.uleb128 0x13
 5237 020c 02       		.uleb128 0x2
 5238 020d 18       		.uleb128 0x18
 5239 020e 00       		.byte	0
 5240 020f 00       		.byte	0
 5241 0210 2A       		.uleb128 0x2a
 5242 0211 34       		.uleb128 0x34
 5243 0212 00       		.byte	0
 5244 0213 03       		.uleb128 0x3
 5245 0214 0E       		.uleb128 0xe
 5246 0215 3A       		.uleb128 0x3a
 5247 0216 0B       		.uleb128 0xb
 5248 0217 3B       		.uleb128 0x3b
 5249 0218 05       		.uleb128 0x5
 5250 0219 49       		.uleb128 0x49
 5251 021a 13       		.uleb128 0x13
 5252 021b 02       		.uleb128 0x2
 5253 021c 18       		.uleb128 0x18
 5254 021d 00       		.byte	0
 5255 021e 00       		.byte	0
 5256 021f 2B       		.uleb128 0x2b
 5257 0220 2E       		.uleb128 0x2e
 5258 0221 01       		.byte	0x1
 5259 0222 3F       		.uleb128 0x3f
 5260 0223 19       		.uleb128 0x19
 5261 0224 03       		.uleb128 0x3
 5262 0225 0E       		.uleb128 0xe
 5263 0226 3A       		.uleb128 0x3a
 5264 0227 0B       		.uleb128 0xb
 5265 0228 3B       		.uleb128 0x3b
 5266 0229 05       		.uleb128 0x5
 5267 022a 27       		.uleb128 0x27
 5268 022b 19       		.uleb128 0x19
 5269 022c 49       		.uleb128 0x49
 5270 022d 13       		.uleb128 0x13
 5271 022e 11       		.uleb128 0x11
 5272 022f 01       		.uleb128 0x1
 5273 0230 12       		.uleb128 0x12
 5274 0231 06       		.uleb128 0x6
 5275 0232 40       		.uleb128 0x40
ARM GAS  /tmp/ccozkyvL.s 			page 117


 5276 0233 18       		.uleb128 0x18
 5277 0234 9742     		.uleb128 0x2117
 5278 0236 19       		.uleb128 0x19
 5279 0237 01       		.uleb128 0x1
 5280 0238 13       		.uleb128 0x13
 5281 0239 00       		.byte	0
 5282 023a 00       		.byte	0
 5283 023b 2C       		.uleb128 0x2c
 5284 023c 34       		.uleb128 0x34
 5285 023d 00       		.byte	0
 5286 023e 03       		.uleb128 0x3
 5287 023f 08       		.uleb128 0x8
 5288 0240 3A       		.uleb128 0x3a
 5289 0241 0B       		.uleb128 0xb
 5290 0242 3B       		.uleb128 0x3b
 5291 0243 05       		.uleb128 0x5
 5292 0244 49       		.uleb128 0x49
 5293 0245 13       		.uleb128 0x13
 5294 0246 02       		.uleb128 0x2
 5295 0247 18       		.uleb128 0x18
 5296 0248 00       		.byte	0
 5297 0249 00       		.byte	0
 5298 024a 2D       		.uleb128 0x2d
 5299 024b 2E       		.uleb128 0x2e
 5300 024c 01       		.byte	0x1
 5301 024d 3F       		.uleb128 0x3f
 5302 024e 19       		.uleb128 0x19
 5303 024f 03       		.uleb128 0x3
 5304 0250 0E       		.uleb128 0xe
 5305 0251 3A       		.uleb128 0x3a
 5306 0252 0B       		.uleb128 0xb
 5307 0253 3B       		.uleb128 0x3b
 5308 0254 0B       		.uleb128 0xb
 5309 0255 27       		.uleb128 0x27
 5310 0256 19       		.uleb128 0x19
 5311 0257 11       		.uleb128 0x11
 5312 0258 01       		.uleb128 0x1
 5313 0259 12       		.uleb128 0x12
 5314 025a 06       		.uleb128 0x6
 5315 025b 40       		.uleb128 0x40
 5316 025c 18       		.uleb128 0x18
 5317 025d 9642     		.uleb128 0x2116
 5318 025f 19       		.uleb128 0x19
 5319 0260 01       		.uleb128 0x1
 5320 0261 13       		.uleb128 0x13
 5321 0262 00       		.byte	0
 5322 0263 00       		.byte	0
 5323 0264 2E       		.uleb128 0x2e
 5324 0265 05       		.uleb128 0x5
 5325 0266 00       		.byte	0
 5326 0267 03       		.uleb128 0x3
 5327 0268 0E       		.uleb128 0xe
 5328 0269 3A       		.uleb128 0x3a
 5329 026a 0B       		.uleb128 0xb
 5330 026b 3B       		.uleb128 0x3b
 5331 026c 0B       		.uleb128 0xb
 5332 026d 49       		.uleb128 0x49
ARM GAS  /tmp/ccozkyvL.s 			page 118


 5333 026e 13       		.uleb128 0x13
 5334 026f 02       		.uleb128 0x2
 5335 0270 18       		.uleb128 0x18
 5336 0271 00       		.byte	0
 5337 0272 00       		.byte	0
 5338 0273 2F       		.uleb128 0x2f
 5339 0274 34       		.uleb128 0x34
 5340 0275 00       		.byte	0
 5341 0276 03       		.uleb128 0x3
 5342 0277 0E       		.uleb128 0xe
 5343 0278 3A       		.uleb128 0x3a
 5344 0279 0B       		.uleb128 0xb
 5345 027a 3B       		.uleb128 0x3b
 5346 027b 0B       		.uleb128 0xb
 5347 027c 49       		.uleb128 0x49
 5348 027d 13       		.uleb128 0x13
 5349 027e 02       		.uleb128 0x2
 5350 027f 18       		.uleb128 0x18
 5351 0280 00       		.byte	0
 5352 0281 00       		.byte	0
 5353 0282 30       		.uleb128 0x30
 5354 0283 2E       		.uleb128 0x2e
 5355 0284 01       		.byte	0x1
 5356 0285 3F       		.uleb128 0x3f
 5357 0286 19       		.uleb128 0x19
 5358 0287 03       		.uleb128 0x3
 5359 0288 0E       		.uleb128 0xe
 5360 0289 3A       		.uleb128 0x3a
 5361 028a 0B       		.uleb128 0xb
 5362 028b 3B       		.uleb128 0x3b
 5363 028c 0B       		.uleb128 0xb
 5364 028d 27       		.uleb128 0x27
 5365 028e 19       		.uleb128 0x19
 5366 028f 11       		.uleb128 0x11
 5367 0290 01       		.uleb128 0x1
 5368 0291 12       		.uleb128 0x12
 5369 0292 06       		.uleb128 0x6
 5370 0293 40       		.uleb128 0x40
 5371 0294 18       		.uleb128 0x18
 5372 0295 9642     		.uleb128 0x2116
 5373 0297 19       		.uleb128 0x19
 5374 0298 00       		.byte	0
 5375 0299 00       		.byte	0
 5376 029a 00       		.byte	0
 5377              		.section	.debug_aranges,"",%progbits
 5378 0000 1C000000 		.4byte	0x1c
 5379 0004 0200     		.2byte	0x2
 5380 0006 00000000 		.4byte	.Ldebug_info0
 5381 000a 04       		.byte	0x4
 5382 000b 00       		.byte	0
 5383 000c 0000     		.2byte	0
 5384 000e 0000     		.2byte	0
 5385 0010 00000000 		.4byte	.Ltext0
 5386 0014 2A090000 		.4byte	.Letext0-.Ltext0
 5387 0018 00000000 		.4byte	0
 5388 001c 00000000 		.4byte	0
 5389              		.section	.debug_line,"",%progbits
ARM GAS  /tmp/ccozkyvL.s 			page 119


 5390              	.Ldebug_line0:
 5391 0000 FC020000 		.section	.debug_str,"MS",%progbits,1
 5391      0200AD01 
 5391      00000201 
 5391      FB0E0D00 
 5391      01010101 
 5392              	.LASF205:
 5393 0000 4932435F 		.ascii	"I2C_GetPEC\000"
 5393      47657450 
 5393      454300
 5394              	.LASF242:
 5395 000b 636F6D6D 		.ascii	"common/i2c.c\000"
 5395      6F6E2F69 
 5395      32632E63 
 5395      00
 5396              	.LASF19:
 5397 0018 73697A65 		.ascii	"sizetype\000"
 5397      74797065 
 5397      00
 5398              	.LASF207:
 5399 0021 4932435F 		.ascii	"I2C_PECPositionConfig\000"
 5399      50454350 
 5399      6F736974 
 5399      696F6E43 
 5399      6F6E6669 
 5400              	.LASF74:
 5401 0037 5F5F7661 		.ascii	"__value\000"
 5401      6C756500 
 5402              	.LASF143:
 5403 003f 5F5F7366 		.ascii	"__sf\000"
 5403      00
 5404              	.LASF110:
 5405 0044 5F726561 		.ascii	"_read\000"
 5405      6400
 5406              	.LASF234:
 5407 004a 4932435F 		.ascii	"I2C_StructInit\000"
 5407      53747275 
 5407      6374496E 
 5407      697400
 5408              	.LASF111:
 5409 0059 5F777269 		.ascii	"_write\000"
 5409      746500
 5410              	.LASF17:
 5411 0060 696E7433 		.ascii	"int32_t\000"
 5411      325F7400 
 5412              	.LASF154:
 5413 0068 5F617363 		.ascii	"_asctime_buf\000"
 5413      74696D65 
 5413      5F627566 
 5413      00
 5414              	.LASF137:
 5415 0075 5F637674 		.ascii	"_cvtlen\000"
 5415      6C656E00 
 5416              	.LASF173:
 5417 007d 5F756E75 		.ascii	"_unused\000"
 5417      73656400 
 5418              	.LASF84:
ARM GAS  /tmp/ccozkyvL.s 			page 120


 5419 0085 5F5F746D 		.ascii	"__tm\000"
 5419      00
 5420              	.LASF169:
 5421 008a 5F776373 		.ascii	"_wcsrtombs_state\000"
 5421      72746F6D 
 5421      62735F73 
 5421      74617465 
 5421      00
 5422              	.LASF115:
 5423 009b 5F6E6275 		.ascii	"_nbuf\000"
 5423      6600
 5424              	.LASF85:
 5425 00a1 5F5F746D 		.ascii	"__tm_sec\000"
 5425      5F736563 
 5425      00
 5426              	.LASF52:
 5427 00aa 48434C4B 		.ascii	"HCLK_Frequency\000"
 5427      5F467265 
 5427      7175656E 
 5427      637900
 5428              	.LASF162:
 5429 00b9 5F6C3634 		.ascii	"_l64a_buf\000"
 5429      615F6275 
 5429      6600
 5430              	.LASF119:
 5431 00c3 5F6C6F63 		.ascii	"_lock\000"
 5431      6B00
 5432              	.LASF243:
 5433 00c9 2F686F6D 		.ascii	"/home/enbin/Documents/code/STM/stm32-quadrocopter\000"
 5433      652F656E 
 5433      62696E2F 
 5433      446F6375 
 5433      6D656E74 
 5434              	.LASF45:
 5435 00fb 4932435F 		.ascii	"I2C_Mode\000"
 5435      4D6F6465 
 5435      00
 5436              	.LASF150:
 5437 0104 5F6D756C 		.ascii	"_mult\000"
 5437      7400
 5438              	.LASF237:
 5439 010a 66726571 		.ascii	"freqrange\000"
 5439      72616E67 
 5439      6500
 5440              	.LASF220:
 5441 0114 4932435F 		.ascii	"I2C_ReceiveData\000"
 5441      52656365 
 5441      69766544 
 5441      61746100 
 5442              	.LASF216:
 5443 0124 4932435F 		.ascii	"I2C_Register\000"
 5443      52656769 
 5443      73746572 
 5443      00
 5444              	.LASF71:
 5445 0131 5F5F7763 		.ascii	"__wch\000"
 5445      6800
ARM GAS  /tmp/ccozkyvL.s 			page 121


 5446              	.LASF2:
 5447 0137 5F5F7569 		.ascii	"__uint8_t\000"
 5447      6E74385F 
 5447      7400
 5448              	.LASF55:
 5449 0141 41444343 		.ascii	"ADCCLK_Frequency\000"
 5449      4C4B5F46 
 5449      72657175 
 5449      656E6379 
 5449      00
 5450              	.LASF107:
 5451 0152 5F66696C 		.ascii	"_file\000"
 5451      6500
 5452              	.LASF238:
 5453 0158 72657375 		.ascii	"result\000"
 5453      6C7400
 5454              	.LASF204:
 5455 015f 4932435F 		.ascii	"I2C_ARPCmd\000"
 5455      41525043 
 5455      6D6400
 5456              	.LASF94:
 5457 016a 5F6F6E5F 		.ascii	"_on_exit_args\000"
 5457      65786974 
 5457      5F617267 
 5457      7300
 5458              	.LASF217:
 5459 0178 4932435F 		.ascii	"I2C_Send7bitAddress\000"
 5459      53656E64 
 5459      37626974 
 5459      41646472 
 5459      65737300 
 5460              	.LASF61:
 5461 018c 477A5F6F 		.ascii	"Gz_offset\000"
 5461      66667365 
 5461      7400
 5462              	.LASF165:
 5463 0196 5F6D6272 		.ascii	"_mbrlen_state\000"
 5463      6C656E5F 
 5463      73746174 
 5463      6500
 5464              	.LASF8:
 5465 01a4 6C6F6E67 		.ascii	"long int\000"
 5465      20696E74 
 5465      00
 5466              	.LASF174:
 5467 01ad 5F696D70 		.ascii	"_impure_ptr\000"
 5467      7572655F 
 5467      70747200 
 5468              	.LASF134:
 5469 01b9 5F726573 		.ascii	"_result_k\000"
 5469      756C745F 
 5469      6B00
 5470              	.LASF104:
 5471 01c3 5F73697A 		.ascii	"_size\000"
 5471      6500
 5472              	.LASF155:
 5473 01c9 5F6C6F63 		.ascii	"_localtime_buf\000"
ARM GAS  /tmp/ccozkyvL.s 			page 122


 5473      616C7469 
 5473      6D655F62 
 5473      756600
 5474              	.LASF89:
 5475 01d8 5F5F746D 		.ascii	"__tm_mon\000"
 5475      5F6D6F6E 
 5475      00
 5476              	.LASF129:
 5477 01e1 5F637572 		.ascii	"_current_category\000"
 5477      72656E74 
 5477      5F636174 
 5477      65676F72 
 5477      7900
 5478              	.LASF152:
 5479 01f3 5F756E75 		.ascii	"_unused_rand\000"
 5479      7365645F 
 5479      72616E64 
 5479      00
 5480              	.LASF0:
 5481 0200 7369676E 		.ascii	"signed char\000"
 5481      65642063 
 5481      68617200 
 5482              	.LASF14:
 5483 020c 75696E74 		.ascii	"uint8_t\000"
 5483      385F7400 
 5484              	.LASF46:
 5485 0214 4932435F 		.ascii	"I2C_DutyCycle\000"
 5485      44757479 
 5485      4379636C 
 5485      6500
 5486              	.LASF195:
 5487 0222 6C617374 		.ascii	"lastevent\000"
 5487      6576656E 
 5487      7400
 5488              	.LASF188:
 5489 022c 4932435F 		.ascii	"I2C_ClearFlag\000"
 5489      436C6561 
 5489      72466C61 
 5489      6700
 5490              	.LASF31:
 5491 023a 52455345 		.ascii	"RESERVED0\000"
 5491      52564544 
 5491      3000
 5492              	.LASF32:
 5493 0244 52455345 		.ascii	"RESERVED1\000"
 5493      52564544 
 5493      3100
 5494              	.LASF1:
 5495 024e 756E7369 		.ascii	"unsigned char\000"
 5495      676E6564 
 5495      20636861 
 5495      7200
 5496              	.LASF36:
 5497 025c 52455345 		.ascii	"RESERVED3\000"
 5497      52564544 
 5497      3300
 5498              	.LASF37:
ARM GAS  /tmp/ccozkyvL.s 			page 123


 5499 0266 52455345 		.ascii	"RESERVED4\000"
 5499      52564544 
 5499      3400
 5500              	.LASF38:
 5501 0270 52455345 		.ascii	"RESERVED5\000"
 5501      52564544 
 5501      3500
 5502              	.LASF39:
 5503 027a 52455345 		.ascii	"RESERVED6\000"
 5503      52564544 
 5503      3600
 5504              	.LASF40:
 5505 0284 52455345 		.ascii	"RESERVED7\000"
 5505      52564544 
 5505      3700
 5506              	.LASF42:
 5507 028e 52455345 		.ascii	"RESERVED8\000"
 5507      52564544 
 5507      3800
 5508              	.LASF122:
 5509 0298 5F726565 		.ascii	"_reent\000"
 5509      6E7400
 5510              	.LASF175:
 5511 029f 5F676C6F 		.ascii	"_global_impure_ptr\000"
 5511      62616C5F 
 5511      696D7075 
 5511      72655F70 
 5511      747200
 5512              	.LASF203:
 5513 02b2 4E657753 		.ascii	"NewState\000"
 5513      74617465 
 5513      00
 5514              	.LASF228:
 5515 02bb 4932435F 		.ascii	"I2C_AcknowledgeConfig\000"
 5515      41636B6E 
 5515      6F776C65 
 5515      64676543 
 5515      6F6E6669 
 5516              	.LASF34:
 5517 02d1 52455345 		.ascii	"RESERVED2\000"
 5517      52564544 
 5517      3200
 5518              	.LASF182:
 5519 02db 49324378 		.ascii	"I2Cx\000"
 5519      00
 5520              	.LASF77:
 5521 02e0 63686172 		.ascii	"char\000"
 5521      00
 5522              	.LASF213:
 5523 02e5 4932435F 		.ascii	"I2C_NACKPosition\000"
 5523      4E41434B 
 5523      506F7369 
 5523      74696F6E 
 5523      00
 5524              	.LASF101:
 5525 02f6 5F666E73 		.ascii	"_fns\000"
 5525      00
ARM GAS  /tmp/ccozkyvL.s 			page 124


 5526              	.LASF57:
 5527 02fb 6779726F 		.ascii	"gyro\000"
 5527      00
 5528              	.LASF196:
 5529 0300 666C6167 		.ascii	"flag1\000"
 5529      3100
 5530              	.LASF197:
 5531 0306 666C6167 		.ascii	"flag2\000"
 5531      3200
 5532              	.LASF113:
 5533 030c 5F636C6F 		.ascii	"_close\000"
 5533      736500
 5534              	.LASF187:
 5535 0313 4932435F 		.ascii	"I2C_ClearITPendingBit\000"
 5535      436C6561 
 5535      72495450 
 5535      656E6469 
 5535      6E674269 
 5536              	.LASF5:
 5537 0329 5F5F7569 		.ascii	"__uint16_t\000"
 5537      6E743136 
 5537      5F7400
 5538              	.LASF209:
 5539 0334 4932435F 		.ascii	"I2C_TransmitPEC\000"
 5539      5472616E 
 5539      736D6974 
 5539      50454300 
 5540              	.LASF54:
 5541 0344 50434C4B 		.ascii	"PCLK2_Frequency\000"
 5541      325F4672 
 5541      65717565 
 5541      6E637900 
 5542              	.LASF124:
 5543 0354 5F737464 		.ascii	"_stdin\000"
 5543      696E00
 5544              	.LASF53:
 5545 035b 50434C4B 		.ascii	"PCLK1_Frequency\000"
 5545      315F4672 
 5545      65717565 
 5545      6E637900 
 5546              	.LASF50:
 5547 036b 4932435F 		.ascii	"I2C_InitTypeDef\000"
 5547      496E6974 
 5547      54797065 
 5547      44656600 
 5548              	.LASF189:
 5549 037b 4932435F 		.ascii	"I2C_FLAG\000"
 5549      464C4147 
 5549      00
 5550              	.LASF199:
 5551 0384 4932435F 		.ascii	"I2C_EVENT\000"
 5551      4556454E 
 5551      5400
 5552              	.LASF214:
 5553 038e 4932435F 		.ascii	"I2C_SoftwareResetCmd\000"
 5553      536F6674 
 5553      77617265 
ARM GAS  /tmp/ccozkyvL.s 			page 125


 5553      52657365 
 5553      74436D64 
 5554              	.LASF210:
 5555 03a3 4932435F 		.ascii	"I2C_SMBusAlertConfig\000"
 5555      534D4275 
 5555      73416C65 
 5555      7274436F 
 5555      6E666967 
 5556              	.LASF200:
 5557 03b8 73746174 		.ascii	"status\000"
 5557      757300
 5558              	.LASF109:
 5559 03bf 5F636F6F 		.ascii	"_cookie\000"
 5559      6B696500 
 5560              	.LASF245:
 5561 03c7 4932435F 		.ascii	"I2C_DeInit\000"
 5561      4465496E 
 5561      697400
 5562              	.LASF223:
 5563 03d2 4932435F 		.ascii	"I2C_ITConfig\000"
 5563      4954436F 
 5563      6E666967 
 5563      00
 5564              	.LASF82:
 5565 03df 5F776473 		.ascii	"_wds\000"
 5565      00
 5566              	.LASF141:
 5567 03e4 5F736967 		.ascii	"_sig_func\000"
 5567      5F66756E 
 5567      6300
 5568              	.LASF117:
 5569 03ee 5F6F6666 		.ascii	"_offset\000"
 5569      73657400 
 5570              	.LASF138:
 5571 03f6 5F637674 		.ascii	"_cvtbuf\000"
 5571      62756600 
 5572              	.LASF233:
 5573 03fe 4932435F 		.ascii	"I2C_Cmd\000"
 5573      436D6400 
 5574              	.LASF218:
 5575 0406 41646472 		.ascii	"Address\000"
 5575      65737300 
 5576              	.LASF181:
 5577 040e 5F5F6664 		.ascii	"__fdlib_version\000"
 5577      6C69625F 
 5577      76657273 
 5577      696F6E00 
 5578              	.LASF135:
 5579 041e 5F703573 		.ascii	"_p5s\000"
 5579      00
 5580              	.LASF10:
 5581 0423 6C6F6E67 		.ascii	"long unsigned int\000"
 5581      20756E73 
 5581      69676E65 
 5581      6420696E 
 5581      7400
 5582              	.LASF49:
ARM GAS  /tmp/ccozkyvL.s 			page 126


 5583 0435 4932435F 		.ascii	"I2C_AcknowledgedAddress\000"
 5583      41636B6E 
 5583      6F776C65 
 5583      64676564 
 5583      41646472 
 5584              	.LASF105:
 5585 044d 5F5F7346 		.ascii	"__sFILE\000"
 5585      494C4500 
 5586              	.LASF131:
 5587 0455 5F5F7364 		.ascii	"__sdidinit\000"
 5587      6964696E 
 5587      697400
 5588              	.LASF121:
 5589 0460 5F666C61 		.ascii	"_flags2\000"
 5589      67733200 
 5590              	.LASF21:
 5591 0468 53797374 		.ascii	"SystemCoreClock\000"
 5591      656D436F 
 5591      7265436C 
 5591      6F636B00 
 5592              	.LASF67:
 5593 0478 5F4C4F43 		.ascii	"_LOCK_RECURSIVE_T\000"
 5593      4B5F5245 
 5593      43555253 
 5593      4956455F 
 5593      5400
 5594              	.LASF123:
 5595 048a 5F657272 		.ascii	"_errno\000"
 5595      6E6F00
 5596              	.LASF41:
 5597 0491 54524953 		.ascii	"TRISE\000"
 5597      4500
 5598              	.LASF62:
 5599 0497 41636331 		.ascii	"Acc1G_Values\000"
 5599      475F5661 
 5599      6C756573 
 5599      00
 5600              	.LASF183:
 5601 04a4 4932435F 		.ascii	"I2C_IT\000"
 5601      495400
 5602              	.LASF65:
 5603 04ab 526F6C6C 		.ascii	"Roll\000"
 5603      00
 5604              	.LASF215:
 5605 04b0 4932435F 		.ascii	"I2C_ReadRegister\000"
 5605      52656164 
 5605      52656769 
 5605      73746572 
 5605      00
 5606              	.LASF163:
 5607 04c1 5F736967 		.ascii	"_signal_buf\000"
 5607      6E616C5F 
 5607      62756600 
 5608              	.LASF240:
 5609 04cd 7263635F 		.ascii	"rcc_clocks\000"
 5609      636C6F63 
 5609      6B7300
ARM GAS  /tmp/ccozkyvL.s 			page 127


 5610              	.LASF28:
 5611 04d8 4552524F 		.ascii	"ERROR\000"
 5611      5200
 5612              	.LASF236:
 5613 04de 4932435F 		.ascii	"I2C_Init\000"
 5613      496E6974 
 5613      00
 5614              	.LASF83:
 5615 04e7 5F426967 		.ascii	"_Bigint\000"
 5615      696E7400 
 5616              	.LASF47:
 5617 04ef 4932435F 		.ascii	"I2C_OwnAddress1\000"
 5617      4F776E41 
 5617      64647265 
 5617      73733100 
 5618              	.LASF80:
 5619 04ff 5F6D6178 		.ascii	"_maxwds\000"
 5619      77647300 
 5620              	.LASF132:
 5621 0507 5F5F636C 		.ascii	"__cleanup\000"
 5621      65616E75 
 5621      7000
 5622              	.LASF140:
 5623 0511 5F617465 		.ascii	"_atexit0\000"
 5623      78697430 
 5623      00
 5624              	.LASF178:
 5625 051a 5F5F6664 		.ascii	"__fdlibm_svid\000"
 5625      6C69626D 
 5625      5F737669 
 5625      6400
 5626              	.LASF9:
 5627 0528 5F5F7569 		.ascii	"__uint32_t\000"
 5627      6E743332 
 5627      5F7400
 5628              	.LASF128:
 5629 0533 5F656D65 		.ascii	"_emergency\000"
 5629      7267656E 
 5629      637900
 5630              	.LASF11:
 5631 053e 6C6F6E67 		.ascii	"long long int\000"
 5631      206C6F6E 
 5631      6720696E 
 5631      7400
 5632              	.LASF232:
 5633 054c 4932435F 		.ascii	"I2C_DMACmd\000"
 5633      444D4143 
 5633      6D6400
 5634              	.LASF191:
 5635 0557 4932435F 		.ascii	"I2C_GetFlagStatus\000"
 5635      47657446 
 5635      6C616753 
 5635      74617475 
 5635      7300
 5636              	.LASF146:
 5637 0569 5F6E696F 		.ascii	"_niobs\000"
 5637      627300
ARM GAS  /tmp/ccozkyvL.s 			page 128


 5638              	.LASF60:
 5639 0570 47795F6F 		.ascii	"Gy_offset\000"
 5639      66667365 
 5639      7400
 5640              	.LASF142:
 5641 057a 5F5F7367 		.ascii	"__sglue\000"
 5641      6C756500 
 5642              	.LASF172:
 5643 0582 5F6E6D61 		.ascii	"_nmalloc\000"
 5643      6C6C6F63 
 5643      00
 5644              	.LASF176:
 5645 058b 646F7562 		.ascii	"double\000"
 5645      6C6500
 5646              	.LASF156:
 5647 0592 5F67616D 		.ascii	"_gamma_signgam\000"
 5647      6D615F73 
 5647      69676E67 
 5647      616D00
 5648              	.LASF239:
 5649 05a1 70636C6B 		.ascii	"pclk1\000"
 5649      3100
 5650              	.LASF130:
 5651 05a7 5F637572 		.ascii	"_current_locale\000"
 5651      72656E74 
 5651      5F6C6F63 
 5651      616C6500 
 5652              	.LASF136:
 5653 05b7 5F667265 		.ascii	"_freelist\000"
 5653      656C6973 
 5653      7400
 5654              	.LASF147:
 5655 05c1 5F696F62 		.ascii	"_iobs\000"
 5655      7300
 5656              	.LASF145:
 5657 05c7 5F676C75 		.ascii	"_glue\000"
 5657      6500
 5658              	.LASF20:
 5659 05cd 49544D5F 		.ascii	"ITM_RxBuffer\000"
 5659      52784275 
 5659      66666572 
 5659      00
 5660              	.LASF81:
 5661 05da 5F736967 		.ascii	"_sign\000"
 5661      6E00
 5662              	.LASF193:
 5663 05e0 69326378 		.ascii	"i2cxbase\000"
 5663      62617365 
 5663      00
 5664              	.LASF63:
 5665 05e9 666C6F61 		.ascii	"float\000"
 5665      7400
 5666              	.LASF13:
 5667 05ef 756E7369 		.ascii	"unsigned int\000"
 5667      676E6564 
 5667      20696E74 
 5667      00
ARM GAS  /tmp/ccozkyvL.s 			page 129


 5668              	.LASF184:
 5669 05fc 666C6167 		.ascii	"flagpos\000"
 5669      706F7300 
 5670              	.LASF170:
 5671 0604 5F685F65 		.ascii	"_h_errno\000"
 5671      72726E6F 
 5671      00
 5672              	.LASF211:
 5673 060d 4932435F 		.ascii	"I2C_SMBusAlert\000"
 5673      534D4275 
 5673      73416C65 
 5673      727400
 5674              	.LASF202:
 5675 061c 4932435F 		.ascii	"I2C_StretchClockCmd\000"
 5675      53747265 
 5675      74636843 
 5675      6C6F636B 
 5675      436D6400 
 5676              	.LASF88:
 5677 0630 5F5F746D 		.ascii	"__tm_mday\000"
 5677      5F6D6461 
 5677      7900
 5678              	.LASF139:
 5679 063a 5F6E6577 		.ascii	"_new\000"
 5679      00
 5680              	.LASF114:
 5681 063f 5F756275 		.ascii	"_ubuf\000"
 5681      6600
 5682              	.LASF126:
 5683 0645 5F737464 		.ascii	"_stderr\000"
 5683      65727200 
 5684              	.LASF161:
 5685 064d 5F776374 		.ascii	"_wctomb_state\000"
 5685      6F6D625F 
 5685      73746174 
 5685      6500
 5686              	.LASF120:
 5687 065b 5F6D6273 		.ascii	"_mbstate\000"
 5687      74617465 
 5687      00
 5688              	.LASF229:
 5689 0664 4932435F 		.ascii	"I2C_GenerateSTOP\000"
 5689      47656E65 
 5689      72617465 
 5689      53544F50 
 5689      00
 5690              	.LASF192:
 5691 0675 69326372 		.ascii	"i2creg\000"
 5691      656700
 5692              	.LASF157:
 5693 067c 5F72616E 		.ascii	"_rand_next\000"
 5693      645F6E65 
 5693      787400
 5694              	.LASF106:
 5695 0687 5F666C61 		.ascii	"_flags\000"
 5695      677300
 5696              	.LASF99:
ARM GAS  /tmp/ccozkyvL.s 			page 130


 5697 068e 5F617465 		.ascii	"_atexit\000"
 5697      78697400 
 5698              	.LASF73:
 5699 0696 5F5F636F 		.ascii	"__count\000"
 5699      756E7400 
 5700              	.LASF206:
 5701 069e 4932435F 		.ascii	"I2C_CalculatePEC\000"
 5701      43616C63 
 5701      756C6174 
 5701      65504543 
 5701      00
 5702              	.LASF91:
 5703 06af 5F5F746D 		.ascii	"__tm_wday\000"
 5703      5F776461 
 5703      7900
 5704              	.LASF25:
 5705 06b9 44495341 		.ascii	"DISABLE\000"
 5705      424C4500 
 5706              	.LASF24:
 5707 06c1 49545374 		.ascii	"ITStatus\000"
 5707      61747573 
 5707      00
 5708              	.LASF66:
 5709 06ca 6C6F6E67 		.ascii	"long double\000"
 5709      20646F75 
 5709      626C6500 
 5710              	.LASF92:
 5711 06d6 5F5F746D 		.ascii	"__tm_yday\000"
 5711      5F796461 
 5711      7900
 5712              	.LASF149:
 5713 06e0 5F736565 		.ascii	"_seed\000"
 5713      6400
 5714              	.LASF112:
 5715 06e6 5F736565 		.ascii	"_seek\000"
 5715      6B00
 5716              	.LASF30:
 5717 06ec 4572726F 		.ascii	"ErrorStatus\000"
 5717      72537461 
 5717      74757300 
 5718              	.LASF69:
 5719 06f8 5F66706F 		.ascii	"_fpos_t\000"
 5719      735F7400 
 5720              	.LASF48:
 5721 0700 4932435F 		.ascii	"I2C_Ack\000"
 5721      41636B00 
 5722              	.LASF72:
 5723 0708 5F5F7763 		.ascii	"__wchb\000"
 5723      686200
 5724              	.LASF224:
 5725 070f 4932435F 		.ascii	"I2C_GeneralCallCmd\000"
 5725      47656E65 
 5725      72616C43 
 5725      616C6C43 
 5725      6D6400
 5726              	.LASF160:
 5727 0722 5F6D6274 		.ascii	"_mbtowc_state\000"
ARM GAS  /tmp/ccozkyvL.s 			page 131


 5727      6F77635F 
 5727      73746174 
 5727      6500
 5728              	.LASF27:
 5729 0730 46756E63 		.ascii	"FunctionalState\000"
 5729      74696F6E 
 5729      616C5374 
 5729      61746500 
 5730              	.LASF12:
 5731 0740 6C6F6E67 		.ascii	"long long unsigned int\000"
 5731      206C6F6E 
 5731      6720756E 
 5731      7369676E 
 5731      65642069 
 5732              	.LASF208:
 5733 0757 4932435F 		.ascii	"I2C_PECPosition\000"
 5733      50454350 
 5733      6F736974 
 5733      696F6E00 
 5734              	.LASF16:
 5735 0767 75696E74 		.ascii	"uint16_t\000"
 5735      31365F74 
 5735      00
 5736              	.LASF96:
 5737 0770 5F64736F 		.ascii	"_dso_handle\000"
 5737      5F68616E 
 5737      646C6500 
 5738              	.LASF148:
 5739 077c 5F72616E 		.ascii	"_rand48\000"
 5739      64343800 
 5740              	.LASF125:
 5741 0784 5F737464 		.ascii	"_stdout\000"
 5741      6F757400 
 5742              	.LASF244:
 5743 078c 5F5F6664 		.ascii	"__fdlibm_version\000"
 5743      6C69626D 
 5743      5F766572 
 5743      73696F6E 
 5743      00
 5744              	.LASF219:
 5745 079d 4932435F 		.ascii	"I2C_Direction\000"
 5745      44697265 
 5745      6374696F 
 5745      6E00
 5746              	.LASF221:
 5747 07ab 4932435F 		.ascii	"I2C_SendData\000"
 5747      53656E64 
 5747      44617461 
 5747      00
 5748              	.LASF116:
 5749 07b8 5F626C6B 		.ascii	"_blksize\000"
 5749      73697A65 
 5749      00
 5750              	.LASF103:
 5751 07c1 5F626173 		.ascii	"_base\000"
 5751      6500
 5752              	.LASF29:
ARM GAS  /tmp/ccozkyvL.s 			page 132


 5753 07c7 53554343 		.ascii	"SUCCESS\000"
 5753      45535300 
 5754              	.LASF190:
 5755 07cf 4932435F 		.ascii	"I2C_GetITStatus\000"
 5755      47657449 
 5755      54537461 
 5755      74757300 
 5756              	.LASF153:
 5757 07df 5F737472 		.ascii	"_strtok_last\000"
 5757      746F6B5F 
 5757      6C617374 
 5757      00
 5758              	.LASF186:
 5759 07ec 656E6162 		.ascii	"enablestatus\000"
 5759      6C657374 
 5759      61747573 
 5759      00
 5760              	.LASF43:
 5761 07f9 4932435F 		.ascii	"I2C_TypeDef\000"
 5761      54797065 
 5761      44656600 
 5762              	.LASF166:
 5763 0805 5F6D6272 		.ascii	"_mbrtowc_state\000"
 5763      746F7763 
 5763      5F737461 
 5763      746500
 5764              	.LASF76:
 5765 0814 5F666C6F 		.ascii	"_flock_t\000"
 5765      636B5F74 
 5765      00
 5766              	.LASF144:
 5767 081d 5F5F4649 		.ascii	"__FILE\000"
 5767      4C4500
 5768              	.LASF3:
 5769 0824 5F5F696E 		.ascii	"__int16_t\000"
 5769      7431365F 
 5769      7400
 5770              	.LASF22:
 5771 082e 52455345 		.ascii	"RESET\000"
 5771      5400
 5772              	.LASF75:
 5773 0834 5F6D6273 		.ascii	"_mbstate_t\000"
 5773      74617465 
 5773      5F7400
 5774              	.LASF158:
 5775 083f 5F723438 		.ascii	"_r48\000"
 5775      00
 5776              	.LASF70:
 5777 0844 77696E74 		.ascii	"wint_t\000"
 5777      5F7400
 5778              	.LASF79:
 5779 084b 5F6E6578 		.ascii	"_next\000"
 5779      7400
 5780              	.LASF227:
 5781 0851 746D7072 		.ascii	"tmpreg\000"
 5781      656700
 5782              	.LASF118:
ARM GAS  /tmp/ccozkyvL.s 			page 133


 5783 0858 5F646174 		.ascii	"_data\000"
 5783      6100
 5784              	.LASF23:
 5785 085e 466C6167 		.ascii	"FlagStatus\000"
 5785      53746174 
 5785      757300
 5786              	.LASF33:
 5787 0869 4F415231 		.ascii	"OAR1\000"
 5787      00
 5788              	.LASF35:
 5789 086e 4F415232 		.ascii	"OAR2\000"
 5789      00
 5790              	.LASF225:
 5791 0873 4932435F 		.ascii	"I2C_DualAddressCmd\000"
 5791      4475616C 
 5791      41646472 
 5791      65737343 
 5791      6D6400
 5792              	.LASF212:
 5793 0886 4932435F 		.ascii	"I2C_NACKPositionConfig\000"
 5793      4E41434B 
 5793      506F7369 
 5793      74696F6E 
 5793      436F6E66 
 5794              	.LASF180:
 5795 089d 5F5F6664 		.ascii	"__fdlibm_posix\000"
 5795      6C69626D 
 5795      5F706F73 
 5795      697800
 5796              	.LASF56:
 5797 08ac 5243435F 		.ascii	"RCC_ClocksTypeDef\000"
 5797      436C6F63 
 5797      6B735479 
 5797      70654465 
 5797      6600
 5798              	.LASF222:
 5799 08be 44617461 		.ascii	"Data\000"
 5799      00
 5800              	.LASF159:
 5801 08c3 5F6D626C 		.ascii	"_mblen_state\000"
 5801      656E5F73 
 5801      74617465 
 5801      00
 5802              	.LASF4:
 5803 08d0 73686F72 		.ascii	"short int\000"
 5803      7420696E 
 5803      7400
 5804              	.LASF226:
 5805 08da 4932435F 		.ascii	"I2C_OwnAddress2Config\000"
 5805      4F776E41 
 5805      64647265 
 5805      73733243 
 5805      6F6E6669 
 5806              	.LASF179:
 5807 08f0 5F5F6664 		.ascii	"__fdlibm_xopen\000"
 5807      6C69626D 
 5807      5F786F70 
ARM GAS  /tmp/ccozkyvL.s 			page 134


 5807      656E00
 5808              	.LASF198:
 5809 08ff 4932435F 		.ascii	"I2C_CheckEvent\000"
 5809      43686563 
 5809      6B457665 
 5809      6E7400
 5810              	.LASF15:
 5811 090e 696E7431 		.ascii	"int16_t\000"
 5811      365F7400 
 5812              	.LASF97:
 5813 0916 5F666E74 		.ascii	"_fntypes\000"
 5813      79706573 
 5813      00
 5814              	.LASF185:
 5815 091f 62697473 		.ascii	"bitstatus\000"
 5815      74617475 
 5815      7300
 5816              	.LASF26:
 5817 0929 454E4142 		.ascii	"ENABLE\000"
 5817      4C4500
 5818              	.LASF230:
 5819 0930 4932435F 		.ascii	"I2C_GenerateSTART\000"
 5819      47656E65 
 5819      72617465 
 5819      53544152 
 5819      5400
 5820              	.LASF194:
 5821 0942 4932435F 		.ascii	"I2C_GetLastEvent\000"
 5821      4765744C 
 5821      61737445 
 5821      76656E74 
 5821      00
 5822              	.LASF90:
 5823 0953 5F5F746D 		.ascii	"__tm_year\000"
 5823      5F796561 
 5823      7200
 5824              	.LASF108:
 5825 095d 5F6C6266 		.ascii	"_lbfsize\000"
 5825      73697A65 
 5825      00
 5826              	.LASF58:
 5827 0966 61636365 		.ascii	"accel\000"
 5827      6C00
 5828              	.LASF127:
 5829 096c 5F696E63 		.ascii	"_inc\000"
 5829      00
 5830              	.LASF100:
 5831 0971 5F696E64 		.ascii	"_ind\000"
 5831      00
 5832              	.LASF59:
 5833 0976 47785F6F 		.ascii	"Gx_offset\000"
 5833      66667365 
 5833      7400
 5834              	.LASF177:
 5835 0980 5F5F6664 		.ascii	"__fdlibm_ieee\000"
 5835      6C69626D 
 5835      5F696565 
ARM GAS  /tmp/ccozkyvL.s 			page 135


 5835      6500
 5836              	.LASF102:
 5837 098e 5F5F7362 		.ascii	"__sbuf\000"
 5837      756600
 5838              	.LASF98:
 5839 0995 5F69735F 		.ascii	"_is_cxa\000"
 5839      63786100 
 5840              	.LASF171:
 5841 099d 5F6E6578 		.ascii	"_nextf\000"
 5841      746600
 5842              	.LASF44:
 5843 09a4 4932435F 		.ascii	"I2C_ClockSpeed\000"
 5843      436C6F63 
 5843      6B537065 
 5843      656400
 5844              	.LASF64:
 5845 09b3 50697463 		.ascii	"Pitch\000"
 5845      6800
 5846              	.LASF78:
 5847 09b9 5F5F554C 		.ascii	"__ULong\000"
 5847      6F6E6700 
 5848              	.LASF18:
 5849 09c1 75696E74 		.ascii	"uint32_t\000"
 5849      33325F74 
 5849      00
 5850              	.LASF133:
 5851 09ca 5F726573 		.ascii	"_result\000"
 5851      756C7400 
 5852              	.LASF68:
 5853 09d2 5F6F6666 		.ascii	"_off_t\000"
 5853      5F7400
 5854              	.LASF241:
 5855 09d9 474E5520 		.ascii	"GNU C11 6.1.1 20160526 -mcpu=cortex-m3 -mthumb -g -"
 5855      43313120 
 5855      362E312E 
 5855      31203230 
 5855      31363035 
 5856 0a0c 666E6F2D 		.ascii	"fno-common\000"
 5856      636F6D6D 
 5856      6F6E00
 5857              	.LASF151:
 5858 0a17 5F616464 		.ascii	"_add\000"
 5858      00
 5859              	.LASF6:
 5860 0a1c 73686F72 		.ascii	"short unsigned int\000"
 5860      7420756E 
 5860      7369676E 
 5860      65642069 
 5860      6E7400
 5861              	.LASF87:
 5862 0a2f 5F5F746D 		.ascii	"__tm_hour\000"
 5862      5F686F75 
 5862      7200
 5863              	.LASF51:
 5864 0a39 53595343 		.ascii	"SYSCLK_Frequency\000"
 5864      4C4B5F46 
 5864      72657175 
ARM GAS  /tmp/ccozkyvL.s 			page 136


 5864      656E6379 
 5864      00
 5865              	.LASF167:
 5866 0a4a 5F6D6273 		.ascii	"_mbsrtowcs_state\000"
 5866      72746F77 
 5866      63735F73 
 5866      74617465 
 5866      00
 5867              	.LASF231:
 5868 0a5b 4932435F 		.ascii	"I2C_DMALastTransferCmd\000"
 5868      444D414C 
 5868      61737454 
 5868      72616E73 
 5868      66657243 
 5869              	.LASF7:
 5870 0a72 5F5F696E 		.ascii	"__int32_t\000"
 5870      7433325F 
 5870      7400
 5871              	.LASF201:
 5872 0a7c 4932435F 		.ascii	"I2C_FastModeDutyCycleConfig\000"
 5872      46617374 
 5872      4D6F6465 
 5872      44757479 
 5872      4379636C 
 5873              	.LASF95:
 5874 0a98 5F666E61 		.ascii	"_fnargs\000"
 5874      72677300 
 5875              	.LASF168:
 5876 0aa0 5F776372 		.ascii	"_wcrtomb_state\000"
 5876      746F6D62 
 5876      5F737461 
 5876      746500
 5877              	.LASF93:
 5878 0aaf 5F5F746D 		.ascii	"__tm_isdst\000"
 5878      5F697364 
 5878      737400
 5879              	.LASF235:
 5880 0aba 4932435F 		.ascii	"I2C_InitStruct\000"
 5880      496E6974 
 5880      53747275 
 5880      637400
 5881              	.LASF86:
 5882 0ac9 5F5F746D 		.ascii	"__tm_min\000"
 5882      5F6D696E 
 5882      00
 5883              	.LASF164:
 5884 0ad2 5F676574 		.ascii	"_getdate_err\000"
 5884      64617465 
 5884      5F657272 
 5884      00
 5885              		.ident	"GCC: (Arch Repository) 6.1.1 20160526"
ARM GAS  /tmp/ccozkyvL.s 			page 137


DEFINED SYMBOLS
                            *ABS*:0000000000000000 i2c.c
     /tmp/ccozkyvL.s:15     .text:0000000000000000 $t
     /tmp/ccozkyvL.s:22     .text:0000000000000000 I2C_DeInit
     /tmp/ccozkyvL.s:74     .text:0000000000000044 $d
     /tmp/ccozkyvL.s:78     .text:0000000000000048 $t
     /tmp/ccozkyvL.s:85     .text:0000000000000048 I2C_Init
     /tmp/ccozkyvL.s:308    .text:00000000000001bc $d
     /tmp/ccozkyvL.s:315    .text:00000000000001cc $t
     /tmp/ccozkyvL.s:322    .text:00000000000001cc I2C_StructInit
     /tmp/ccozkyvL.s:382    .text:0000000000000208 I2C_Cmd
     /tmp/ccozkyvL.s:444    .text:0000000000000246 I2C_DMACmd
     /tmp/ccozkyvL.s:506    .text:0000000000000284 I2C_DMALastTransferCmd
     /tmp/ccozkyvL.s:568    .text:00000000000002c2 I2C_GenerateSTART
     /tmp/ccozkyvL.s:630    .text:0000000000000300 I2C_GenerateSTOP
     /tmp/ccozkyvL.s:692    .text:000000000000033e I2C_AcknowledgeConfig
     /tmp/ccozkyvL.s:754    .text:000000000000037c I2C_OwnAddress2Config
     /tmp/ccozkyvL.s:816    .text:00000000000003be I2C_DualAddressCmd
     /tmp/ccozkyvL.s:878    .text:00000000000003fc I2C_GeneralCallCmd
     /tmp/ccozkyvL.s:940    .text:000000000000043a I2C_ITConfig
     /tmp/ccozkyvL.s:1008   .text:0000000000000480 I2C_SendData
     /tmp/ccozkyvL.s:1051   .text:000000000000049e I2C_ReceiveData
     /tmp/ccozkyvL.s:1092   .text:00000000000004b8 I2C_Send7bitAddress
     /tmp/ccozkyvL.s:1152   .text:00000000000004f2 I2C_ReadRegister
     /tmp/ccozkyvL.s:1205   .text:000000000000051e I2C_SoftwareResetCmd
     /tmp/ccozkyvL.s:1268   .text:0000000000000560 I2C_NACKPositionConfig
     /tmp/ccozkyvL.s:1330   .text:00000000000005a0 I2C_SMBusAlertConfig
     /tmp/ccozkyvL.s:1392   .text:00000000000005e0 I2C_TransmitPEC
     /tmp/ccozkyvL.s:1454   .text:000000000000061e I2C_PECPositionConfig
     /tmp/ccozkyvL.s:1516   .text:000000000000065e I2C_CalculatePEC
     /tmp/ccozkyvL.s:1578   .text:000000000000069c I2C_GetPEC
     /tmp/ccozkyvL.s:1621   .text:00000000000006ba I2C_ARPCmd
     /tmp/ccozkyvL.s:1683   .text:00000000000006f8 I2C_StretchClockCmd
     /tmp/ccozkyvL.s:1745   .text:0000000000000736 I2C_FastModeDutyCycleConfig
     /tmp/ccozkyvL.s:1807   .text:0000000000000776 I2C_CheckEvent
     /tmp/ccozkyvL.s:1893   .text:00000000000007d4 I2C_GetLastEvent
     /tmp/ccozkyvL.s:1959   .text:0000000000000816 I2C_GetFlagStatus
     /tmp/ccozkyvL.s:2052   .text:000000000000087a I2C_ClearFlag
     /tmp/ccozkyvL.s:2103   .text:00000000000008a6 I2C_GetITStatus
     /tmp/ccozkyvL.s:2183   .text:00000000000008fe I2C_ClearITPendingBit
                     .debug_frame:0000000000000010 $d

UNDEFINED SYMBOLS
RCC_APB1PeriphResetCmd
RCC_GetClocksFreq
