ARM GAS  /tmp/ccBPBbjw.s 			page 1


   1              		.cpu cortex-m3
   2              		.eabi_attribute 20, 1
   3              		.eabi_attribute 21, 1
   4              		.eabi_attribute 23, 3
   5              		.eabi_attribute 24, 1
   6              		.eabi_attribute 25, 1
   7              		.eabi_attribute 26, 1
   8              		.eabi_attribute 30, 1
   9              		.eabi_attribute 34, 1
  10              		.eabi_attribute 18, 4
  11              		.file	"inv_mpu_dmp_motion_driver.c"
  12              		.text
  13              	.Ltext0:
  14              		.cfi_sections	.debug_frame
  15              		.align	1
  16              		.global	dmp_load_motion_driver_firmware
  17              		.syntax unified
  18              		.thumb
  19              		.thumb_func
  20              		.fpu softvfp
  21              		.type	dmp_load_motion_driver_firmware, %function
  22              	dmp_load_motion_driver_firmware:
  23              	.LFB64:
  24              		.file 1 "drivers/inv_mpu_dmp_motion_driver.c"
   1:drivers/inv_mpu_dmp_motion_driver.c **** 
   2:drivers/inv_mpu_dmp_motion_driver.c **** /**
   3:drivers/inv_mpu_dmp_motion_driver.c ****  *  @addtogroup  DRIVERS Sensor Driver Layer
   4:drivers/inv_mpu_dmp_motion_driver.c ****  *  @brief       Hardware drivers to communicate with sensors via I2C.
   5:drivers/inv_mpu_dmp_motion_driver.c ****  *
   6:drivers/inv_mpu_dmp_motion_driver.c ****  *  @{
   7:drivers/inv_mpu_dmp_motion_driver.c ****  *      @file       inv_mpu_dmp_motion_driver.c
   8:drivers/inv_mpu_dmp_motion_driver.c ****  *      @brief      DMP image and interface functions.
   9:drivers/inv_mpu_dmp_motion_driver.c ****  *      @details    All functions are preceded by the dmp_ prefix to
  10:drivers/inv_mpu_dmp_motion_driver.c ****  *                  differentiate among MPL and general driver function calls.
  11:drivers/inv_mpu_dmp_motion_driver.c ****  */
  12:drivers/inv_mpu_dmp_motion_driver.c **** #include "conf.h"
  13:drivers/inv_mpu_dmp_motion_driver.c **** 
  14:drivers/inv_mpu_dmp_motion_driver.c **** 
  15:drivers/inv_mpu_dmp_motion_driver.c **** #define  MOTION_DRIVER_TARGET_MSP430
  16:drivers/inv_mpu_dmp_motion_driver.c **** /* The following functions must be defined for this platform:
  17:drivers/inv_mpu_dmp_motion_driver.c ****  * i2c_write(unsigned char slave_addr, unsigned char reg_addr,
  18:drivers/inv_mpu_dmp_motion_driver.c ****  *      unsigned char length, unsigned char const *data)
  19:drivers/inv_mpu_dmp_motion_driver.c ****  * i2c_read(unsigned char slave_addr, unsigned char reg_addr,
  20:drivers/inv_mpu_dmp_motion_driver.c ****  *      unsigned char length, unsigned char *data)
  21:drivers/inv_mpu_dmp_motion_driver.c ****  * delay_ms(unsigned long num_ms)
  22:drivers/inv_mpu_dmp_motion_driver.c ****  * get_ms(unsigned long *count)
  23:drivers/inv_mpu_dmp_motion_driver.c ****  */
  24:drivers/inv_mpu_dmp_motion_driver.c **** #if defined MOTION_DRIVER_TARGET_MSP430
  25:drivers/inv_mpu_dmp_motion_driver.c **** //#include "msp430.h"
  26:drivers/inv_mpu_dmp_motion_driver.c **** //#include "msp430_clock.h"
  27:drivers/inv_mpu_dmp_motion_driver.c **** #define delay_ms    delay_ms
  28:drivers/inv_mpu_dmp_motion_driver.c **** #define get_ms      get_ms
  29:drivers/inv_mpu_dmp_motion_driver.c **** #define log_e    printf
  30:drivers/inv_mpu_dmp_motion_driver.c **** #define log_i    printf
  31:drivers/inv_mpu_dmp_motion_driver.c **** 
  32:drivers/inv_mpu_dmp_motion_driver.c **** #elif defined EMPL_TARGET_MSP430
  33:drivers/inv_mpu_dmp_motion_driver.c **** #include "msp430.h"
ARM GAS  /tmp/ccBPBbjw.s 			page 2


  34:drivers/inv_mpu_dmp_motion_driver.c **** #include "msp430_clock.h"
  35:drivers/inv_mpu_dmp_motion_driver.c **** #include "log.h"
  36:drivers/inv_mpu_dmp_motion_driver.c **** #define delay_ms    msp430_delay_ms
  37:drivers/inv_mpu_dmp_motion_driver.c **** #define get_ms      msp430_get_clock_ms
  38:drivers/inv_mpu_dmp_motion_driver.c **** #define log_i       MPL_LOGI
  39:drivers/inv_mpu_dmp_motion_driver.c **** #define log_e       MPL_LOGE
  40:drivers/inv_mpu_dmp_motion_driver.c **** 
  41:drivers/inv_mpu_dmp_motion_driver.c **** #elif defined EMPL_TARGET_UC3L0
  42:drivers/inv_mpu_dmp_motion_driver.c **** /* Instead of using the standard TWI driver from the ASF library, we're using
  43:drivers/inv_mpu_dmp_motion_driver.c ****  * a TWI driver that follows the slave address + register address convention.
  44:drivers/inv_mpu_dmp_motion_driver.c ****  */
  45:drivers/inv_mpu_dmp_motion_driver.c **** #include "delay.h"
  46:drivers/inv_mpu_dmp_motion_driver.c **** #include "sysclk.h"
  47:drivers/inv_mpu_dmp_motion_driver.c **** #include "log.h"
  48:drivers/inv_mpu_dmp_motion_driver.c **** #include "uc3l0_clock.h"
  49:drivers/inv_mpu_dmp_motion_driver.c **** /* delay_ms is a function already defined in ASF. */
  50:drivers/inv_mpu_dmp_motion_driver.c **** #define get_ms  uc3l0_get_clock_ms
  51:drivers/inv_mpu_dmp_motion_driver.c **** #define log_i       MPL_LOGI
  52:drivers/inv_mpu_dmp_motion_driver.c **** #define log_e       MPL_LOGE
  53:drivers/inv_mpu_dmp_motion_driver.c **** 
  54:drivers/inv_mpu_dmp_motion_driver.c **** #else
  55:drivers/inv_mpu_dmp_motion_driver.c **** //#error  Gyro driver is missing the system layer implementations.
  56:drivers/inv_mpu_dmp_motion_driver.c **** #endif
  57:drivers/inv_mpu_dmp_motion_driver.c **** 
  58:drivers/inv_mpu_dmp_motion_driver.c **** /* These defines are copied from dmpDefaultMPU6050.c in the general MPL
  59:drivers/inv_mpu_dmp_motion_driver.c ****  * releases. These defines may change for each DMP image, so be sure to modify
  60:drivers/inv_mpu_dmp_motion_driver.c ****  * these values when switching to a new image.
  61:drivers/inv_mpu_dmp_motion_driver.c ****  */
  62:drivers/inv_mpu_dmp_motion_driver.c **** #define CFG_LP_QUAT             (2712)
  63:drivers/inv_mpu_dmp_motion_driver.c **** #define END_ORIENT_TEMP         (1866)
  64:drivers/inv_mpu_dmp_motion_driver.c **** #define CFG_27                  (2742)
  65:drivers/inv_mpu_dmp_motion_driver.c **** #define CFG_20                  (2224)
  66:drivers/inv_mpu_dmp_motion_driver.c **** #define CFG_23                  (2745)
  67:drivers/inv_mpu_dmp_motion_driver.c **** #define CFG_FIFO_ON_EVENT       (2690)
  68:drivers/inv_mpu_dmp_motion_driver.c **** #define END_PREDICTION_UPDATE   (1761)
  69:drivers/inv_mpu_dmp_motion_driver.c **** #define CGNOTICE_INTR           (2620)
  70:drivers/inv_mpu_dmp_motion_driver.c **** #define X_GRT_Y_TMP             (1358)
  71:drivers/inv_mpu_dmp_motion_driver.c **** #define CFG_DR_INT              (1029)
  72:drivers/inv_mpu_dmp_motion_driver.c **** #define CFG_AUTH                (1035)
  73:drivers/inv_mpu_dmp_motion_driver.c **** #define UPDATE_PROP_ROT         (1835)
  74:drivers/inv_mpu_dmp_motion_driver.c **** #define END_COMPARE_Y_X_TMP2    (1455)
  75:drivers/inv_mpu_dmp_motion_driver.c **** #define SKIP_X_GRT_Y_TMP        (1359)
  76:drivers/inv_mpu_dmp_motion_driver.c **** #define SKIP_END_COMPARE        (1435)
  77:drivers/inv_mpu_dmp_motion_driver.c **** #define FCFG_3                  (1088)
  78:drivers/inv_mpu_dmp_motion_driver.c **** #define FCFG_2                  (1066)
  79:drivers/inv_mpu_dmp_motion_driver.c **** #define FCFG_1                  (1062)
  80:drivers/inv_mpu_dmp_motion_driver.c **** #define END_COMPARE_Y_X_TMP3    (1434)
  81:drivers/inv_mpu_dmp_motion_driver.c **** #define FCFG_7                  (1073)
  82:drivers/inv_mpu_dmp_motion_driver.c **** #define FCFG_6                  (1106)
  83:drivers/inv_mpu_dmp_motion_driver.c **** #define FLAT_STATE_END          (1713)
  84:drivers/inv_mpu_dmp_motion_driver.c **** #define SWING_END_4             (1616)
  85:drivers/inv_mpu_dmp_motion_driver.c **** #define SWING_END_2             (1565)
  86:drivers/inv_mpu_dmp_motion_driver.c **** #define SWING_END_3             (1587)
  87:drivers/inv_mpu_dmp_motion_driver.c **** #define SWING_END_1             (1550)
  88:drivers/inv_mpu_dmp_motion_driver.c **** #define CFG_8                   (2718)
  89:drivers/inv_mpu_dmp_motion_driver.c **** #define CFG_15                  (2727)
  90:drivers/inv_mpu_dmp_motion_driver.c **** #define CFG_16                  (2746)
ARM GAS  /tmp/ccBPBbjw.s 			page 3


  91:drivers/inv_mpu_dmp_motion_driver.c **** #define CFG_EXT_GYRO_BIAS       (1189)
  92:drivers/inv_mpu_dmp_motion_driver.c **** #define END_COMPARE_Y_X_TMP     (1407)
  93:drivers/inv_mpu_dmp_motion_driver.c **** #define DO_NOT_UPDATE_PROP_ROT  (1839)
  94:drivers/inv_mpu_dmp_motion_driver.c **** #define CFG_7                   (1205)
  95:drivers/inv_mpu_dmp_motion_driver.c **** #define FLAT_STATE_END_TEMP     (1683)
  96:drivers/inv_mpu_dmp_motion_driver.c **** #define END_COMPARE_Y_X         (1484)
  97:drivers/inv_mpu_dmp_motion_driver.c **** #define SKIP_SWING_END_1        (1551)
  98:drivers/inv_mpu_dmp_motion_driver.c **** #define SKIP_SWING_END_3        (1588)
  99:drivers/inv_mpu_dmp_motion_driver.c **** #define SKIP_SWING_END_2        (1566)
 100:drivers/inv_mpu_dmp_motion_driver.c **** #define TILTG75_START           (1672)
 101:drivers/inv_mpu_dmp_motion_driver.c **** #define CFG_6                   (2753)
 102:drivers/inv_mpu_dmp_motion_driver.c **** #define TILTL75_END             (1669)
 103:drivers/inv_mpu_dmp_motion_driver.c **** #define END_ORIENT              (1884)
 104:drivers/inv_mpu_dmp_motion_driver.c **** #define CFG_FLICK_IN            (2573)
 105:drivers/inv_mpu_dmp_motion_driver.c **** #define TILTL75_START           (1643)
 106:drivers/inv_mpu_dmp_motion_driver.c **** #define CFG_MOTION_BIAS         (1208)
 107:drivers/inv_mpu_dmp_motion_driver.c **** #define X_GRT_Y                 (1408)
 108:drivers/inv_mpu_dmp_motion_driver.c **** #define TEMPLABEL               (2324)
 109:drivers/inv_mpu_dmp_motion_driver.c **** #define CFG_ANDROID_ORIENT_INT  (1853)
 110:drivers/inv_mpu_dmp_motion_driver.c **** #define CFG_GYRO_RAW_DATA       (2722)
 111:drivers/inv_mpu_dmp_motion_driver.c **** #define X_GRT_Y_TMP2            (1379)
 112:drivers/inv_mpu_dmp_motion_driver.c **** 
 113:drivers/inv_mpu_dmp_motion_driver.c **** #define D_0_22                  (22+512)
 114:drivers/inv_mpu_dmp_motion_driver.c **** #define D_0_24                  (24+512)
 115:drivers/inv_mpu_dmp_motion_driver.c **** 
 116:drivers/inv_mpu_dmp_motion_driver.c **** #define D_0_36                  (36)
 117:drivers/inv_mpu_dmp_motion_driver.c **** #define D_0_52                  (52)
 118:drivers/inv_mpu_dmp_motion_driver.c **** #define D_0_96                  (96)
 119:drivers/inv_mpu_dmp_motion_driver.c **** #define D_0_104                 (104)
 120:drivers/inv_mpu_dmp_motion_driver.c **** #define D_0_108                 (108)
 121:drivers/inv_mpu_dmp_motion_driver.c **** #define D_0_163                 (163)
 122:drivers/inv_mpu_dmp_motion_driver.c **** #define D_0_188                 (188)
 123:drivers/inv_mpu_dmp_motion_driver.c **** #define D_0_192                 (192)
 124:drivers/inv_mpu_dmp_motion_driver.c **** #define D_0_224                 (224)
 125:drivers/inv_mpu_dmp_motion_driver.c **** #define D_0_228                 (228)
 126:drivers/inv_mpu_dmp_motion_driver.c **** #define D_0_232                 (232)
 127:drivers/inv_mpu_dmp_motion_driver.c **** #define D_0_236                 (236)
 128:drivers/inv_mpu_dmp_motion_driver.c **** 
 129:drivers/inv_mpu_dmp_motion_driver.c **** #define D_1_2                   (256 + 2)
 130:drivers/inv_mpu_dmp_motion_driver.c **** #define D_1_4                   (256 + 4)
 131:drivers/inv_mpu_dmp_motion_driver.c **** #define D_1_8                   (256 + 8)
 132:drivers/inv_mpu_dmp_motion_driver.c **** #define D_1_10                  (256 + 10)
 133:drivers/inv_mpu_dmp_motion_driver.c **** #define D_1_24                  (256 + 24)
 134:drivers/inv_mpu_dmp_motion_driver.c **** #define D_1_28                  (256 + 28)
 135:drivers/inv_mpu_dmp_motion_driver.c **** #define D_1_36                  (256 + 36)
 136:drivers/inv_mpu_dmp_motion_driver.c **** #define D_1_40                  (256 + 40)
 137:drivers/inv_mpu_dmp_motion_driver.c **** #define D_1_44                  (256 + 44)
 138:drivers/inv_mpu_dmp_motion_driver.c **** #define D_1_72                  (256 + 72)
 139:drivers/inv_mpu_dmp_motion_driver.c **** #define D_1_74                  (256 + 74)
 140:drivers/inv_mpu_dmp_motion_driver.c **** #define D_1_79                  (256 + 79)
 141:drivers/inv_mpu_dmp_motion_driver.c **** #define D_1_88                  (256 + 88)
 142:drivers/inv_mpu_dmp_motion_driver.c **** #define D_1_90                  (256 + 90)
 143:drivers/inv_mpu_dmp_motion_driver.c **** #define D_1_92                  (256 + 92)
 144:drivers/inv_mpu_dmp_motion_driver.c **** #define D_1_96                  (256 + 96)
 145:drivers/inv_mpu_dmp_motion_driver.c **** #define D_1_98                  (256 + 98)
 146:drivers/inv_mpu_dmp_motion_driver.c **** #define D_1_106                 (256 + 106)
 147:drivers/inv_mpu_dmp_motion_driver.c **** #define D_1_108                 (256 + 108)
ARM GAS  /tmp/ccBPBbjw.s 			page 4


 148:drivers/inv_mpu_dmp_motion_driver.c **** #define D_1_112                 (256 + 112)
 149:drivers/inv_mpu_dmp_motion_driver.c **** #define D_1_128                 (256 + 144)
 150:drivers/inv_mpu_dmp_motion_driver.c **** #define D_1_152                 (256 + 12)
 151:drivers/inv_mpu_dmp_motion_driver.c **** #define D_1_160                 (256 + 160)
 152:drivers/inv_mpu_dmp_motion_driver.c **** #define D_1_176                 (256 + 176)
 153:drivers/inv_mpu_dmp_motion_driver.c **** #define D_1_178                 (256 + 178)
 154:drivers/inv_mpu_dmp_motion_driver.c **** #define D_1_218                 (256 + 218)
 155:drivers/inv_mpu_dmp_motion_driver.c **** #define D_1_232                 (256 + 232)
 156:drivers/inv_mpu_dmp_motion_driver.c **** #define D_1_236                 (256 + 236)
 157:drivers/inv_mpu_dmp_motion_driver.c **** #define D_1_240                 (256 + 240)
 158:drivers/inv_mpu_dmp_motion_driver.c **** #define D_1_244                 (256 + 244)
 159:drivers/inv_mpu_dmp_motion_driver.c **** #define D_1_250                 (256 + 250)
 160:drivers/inv_mpu_dmp_motion_driver.c **** #define D_1_252                 (256 + 252)
 161:drivers/inv_mpu_dmp_motion_driver.c **** #define D_2_12                  (512 + 12)
 162:drivers/inv_mpu_dmp_motion_driver.c **** #define D_2_96                  (512 + 96)
 163:drivers/inv_mpu_dmp_motion_driver.c **** #define D_2_108                 (512 + 108)
 164:drivers/inv_mpu_dmp_motion_driver.c **** #define D_2_208                 (512 + 208)
 165:drivers/inv_mpu_dmp_motion_driver.c **** #define D_2_224                 (512 + 224)
 166:drivers/inv_mpu_dmp_motion_driver.c **** #define D_2_236                 (512 + 236)
 167:drivers/inv_mpu_dmp_motion_driver.c **** #define D_2_244                 (512 + 244)
 168:drivers/inv_mpu_dmp_motion_driver.c **** #define D_2_248                 (512 + 248)
 169:drivers/inv_mpu_dmp_motion_driver.c **** #define D_2_252                 (512 + 252)
 170:drivers/inv_mpu_dmp_motion_driver.c **** 
 171:drivers/inv_mpu_dmp_motion_driver.c **** #define CPASS_BIAS_X            (35 * 16 + 4)
 172:drivers/inv_mpu_dmp_motion_driver.c **** #define CPASS_BIAS_Y            (35 * 16 + 8)
 173:drivers/inv_mpu_dmp_motion_driver.c **** #define CPASS_BIAS_Z            (35 * 16 + 12)
 174:drivers/inv_mpu_dmp_motion_driver.c **** #define CPASS_MTX_00            (36 * 16)
 175:drivers/inv_mpu_dmp_motion_driver.c **** #define CPASS_MTX_01            (36 * 16 + 4)
 176:drivers/inv_mpu_dmp_motion_driver.c **** #define CPASS_MTX_02            (36 * 16 + 8)
 177:drivers/inv_mpu_dmp_motion_driver.c **** #define CPASS_MTX_10            (36 * 16 + 12)
 178:drivers/inv_mpu_dmp_motion_driver.c **** #define CPASS_MTX_11            (37 * 16)
 179:drivers/inv_mpu_dmp_motion_driver.c **** #define CPASS_MTX_12            (37 * 16 + 4)
 180:drivers/inv_mpu_dmp_motion_driver.c **** #define CPASS_MTX_20            (37 * 16 + 8)
 181:drivers/inv_mpu_dmp_motion_driver.c **** #define CPASS_MTX_21            (37 * 16 + 12)
 182:drivers/inv_mpu_dmp_motion_driver.c **** #define CPASS_MTX_22            (43 * 16 + 12)
 183:drivers/inv_mpu_dmp_motion_driver.c **** #define D_EXT_GYRO_BIAS_X       (61 * 16)
 184:drivers/inv_mpu_dmp_motion_driver.c **** #define D_EXT_GYRO_BIAS_Y       (61 * 16) + 4
 185:drivers/inv_mpu_dmp_motion_driver.c **** #define D_EXT_GYRO_BIAS_Z       (61 * 16) + 8
 186:drivers/inv_mpu_dmp_motion_driver.c **** #define D_ACT0                  (40 * 16)
 187:drivers/inv_mpu_dmp_motion_driver.c **** #define D_ACSX                  (40 * 16 + 4)
 188:drivers/inv_mpu_dmp_motion_driver.c **** #define D_ACSY                  (40 * 16 + 8)
 189:drivers/inv_mpu_dmp_motion_driver.c **** #define D_ACSZ                  (40 * 16 + 12)
 190:drivers/inv_mpu_dmp_motion_driver.c **** 
 191:drivers/inv_mpu_dmp_motion_driver.c **** #define FLICK_MSG               (45 * 16 + 4)
 192:drivers/inv_mpu_dmp_motion_driver.c **** #define FLICK_COUNTER           (45 * 16 + 8)
 193:drivers/inv_mpu_dmp_motion_driver.c **** #define FLICK_LOWER             (45 * 16 + 12)
 194:drivers/inv_mpu_dmp_motion_driver.c **** #define FLICK_UPPER             (46 * 16 + 12)
 195:drivers/inv_mpu_dmp_motion_driver.c **** 
 196:drivers/inv_mpu_dmp_motion_driver.c **** #define D_AUTH_OUT              (992)
 197:drivers/inv_mpu_dmp_motion_driver.c **** #define D_AUTH_IN               (996)
 198:drivers/inv_mpu_dmp_motion_driver.c **** #define D_AUTH_A                (1000)
 199:drivers/inv_mpu_dmp_motion_driver.c **** #define D_AUTH_B                (1004)
 200:drivers/inv_mpu_dmp_motion_driver.c **** 
 201:drivers/inv_mpu_dmp_motion_driver.c **** #define D_PEDSTD_BP_B           (768 + 0x1C)
 202:drivers/inv_mpu_dmp_motion_driver.c **** #define D_PEDSTD_HP_A           (768 + 0x78)
 203:drivers/inv_mpu_dmp_motion_driver.c **** #define D_PEDSTD_HP_B           (768 + 0x7C)
 204:drivers/inv_mpu_dmp_motion_driver.c **** #define D_PEDSTD_BP_A4          (768 + 0x40)
ARM GAS  /tmp/ccBPBbjw.s 			page 5


 205:drivers/inv_mpu_dmp_motion_driver.c **** #define D_PEDSTD_BP_A3          (768 + 0x44)
 206:drivers/inv_mpu_dmp_motion_driver.c **** #define D_PEDSTD_BP_A2          (768 + 0x48)
 207:drivers/inv_mpu_dmp_motion_driver.c **** #define D_PEDSTD_BP_A1          (768 + 0x4C)
 208:drivers/inv_mpu_dmp_motion_driver.c **** #define D_PEDSTD_INT_THRSH      (768 + 0x68)
 209:drivers/inv_mpu_dmp_motion_driver.c **** #define D_PEDSTD_CLIP           (768 + 0x6C)
 210:drivers/inv_mpu_dmp_motion_driver.c **** #define D_PEDSTD_SB             (768 + 0x28)
 211:drivers/inv_mpu_dmp_motion_driver.c **** #define D_PEDSTD_SB_TIME        (768 + 0x2C)
 212:drivers/inv_mpu_dmp_motion_driver.c **** #define D_PEDSTD_PEAKTHRSH      (768 + 0x98)
 213:drivers/inv_mpu_dmp_motion_driver.c **** #define D_PEDSTD_TIML           (768 + 0x2A)
 214:drivers/inv_mpu_dmp_motion_driver.c **** #define D_PEDSTD_TIMH           (768 + 0x2E)
 215:drivers/inv_mpu_dmp_motion_driver.c **** #define D_PEDSTD_PEAK           (768 + 0X94)
 216:drivers/inv_mpu_dmp_motion_driver.c **** #define D_PEDSTD_STEPCTR        (768 + 0x60)
 217:drivers/inv_mpu_dmp_motion_driver.c **** #define D_PEDSTD_TIMECTR        (964)
 218:drivers/inv_mpu_dmp_motion_driver.c **** #define D_PEDSTD_DECI           (768 + 0xA0)
 219:drivers/inv_mpu_dmp_motion_driver.c **** 
 220:drivers/inv_mpu_dmp_motion_driver.c **** #define D_HOST_NO_MOT           (976)
 221:drivers/inv_mpu_dmp_motion_driver.c **** #define D_ACCEL_BIAS            (660)
 222:drivers/inv_mpu_dmp_motion_driver.c **** 
 223:drivers/inv_mpu_dmp_motion_driver.c **** #define D_ORIENT_GAP            (76)
 224:drivers/inv_mpu_dmp_motion_driver.c **** 
 225:drivers/inv_mpu_dmp_motion_driver.c **** #define D_TILT0_H               (48)
 226:drivers/inv_mpu_dmp_motion_driver.c **** #define D_TILT0_L               (50)
 227:drivers/inv_mpu_dmp_motion_driver.c **** #define D_TILT1_H               (52)
 228:drivers/inv_mpu_dmp_motion_driver.c **** #define D_TILT1_L               (54)
 229:drivers/inv_mpu_dmp_motion_driver.c **** #define D_TILT2_H               (56)
 230:drivers/inv_mpu_dmp_motion_driver.c **** #define D_TILT2_L               (58)
 231:drivers/inv_mpu_dmp_motion_driver.c **** #define D_TILT3_H               (60)
 232:drivers/inv_mpu_dmp_motion_driver.c **** #define D_TILT3_L               (62)
 233:drivers/inv_mpu_dmp_motion_driver.c **** 
 234:drivers/inv_mpu_dmp_motion_driver.c **** #define DMP_CODE_SIZE           (3062)
 235:drivers/inv_mpu_dmp_motion_driver.c **** 
 236:drivers/inv_mpu_dmp_motion_driver.c **** static const unsigned char dmp_memory[DMP_CODE_SIZE] = {
 237:drivers/inv_mpu_dmp_motion_driver.c ****     /* bank # 0 */
 238:drivers/inv_mpu_dmp_motion_driver.c ****     0x00, 0x00, 0x70, 0x00, 0x00, 0x00, 0x00, 0x24, 0x00, 0x00, 0x00, 0x02, 0x00, 0x03, 0x00, 0x00,
 239:drivers/inv_mpu_dmp_motion_driver.c ****     0x00, 0x65, 0x00, 0x54, 0xff, 0xef, 0x00, 0x00, 0xfa, 0x80, 0x00, 0x0b, 0x12, 0x82, 0x00, 0x01,
 240:drivers/inv_mpu_dmp_motion_driver.c ****     0x03, 0x0c, 0x30, 0xc3, 0x0e, 0x8c, 0x8c, 0xe9, 0x14, 0xd5, 0x40, 0x02, 0x13, 0x71, 0x0f, 0x8e,
 241:drivers/inv_mpu_dmp_motion_driver.c ****     0x38, 0x83, 0xf8, 0x83, 0x30, 0x00, 0xf8, 0x83, 0x25, 0x8e, 0xf8, 0x83, 0x30, 0x00, 0xf8, 0x83,
 242:drivers/inv_mpu_dmp_motion_driver.c ****     0xff, 0xff, 0xff, 0xff, 0x0f, 0xfe, 0xa9, 0xd6, 0x24, 0x00, 0x04, 0x00, 0x1a, 0x82, 0x79, 0xa1,
 243:drivers/inv_mpu_dmp_motion_driver.c ****     0x00, 0x00, 0x00, 0x3c, 0xff, 0xff, 0x00, 0x00, 0x00, 0x10, 0x00, 0x00, 0x38, 0x83, 0x6f, 0xa2,
 244:drivers/inv_mpu_dmp_motion_driver.c ****     0x00, 0x3e, 0x03, 0x30, 0x40, 0x00, 0x00, 0x00, 0x02, 0xca, 0xe3, 0x09, 0x3e, 0x80, 0x00, 0x00,
 245:drivers/inv_mpu_dmp_motion_driver.c ****     0x20, 0x00, 0x00, 0x00, 0x00, 0x00, 0x00, 0x00, 0x40, 0x00, 0x00, 0x00, 0x60, 0x00, 0x00, 0x00,
 246:drivers/inv_mpu_dmp_motion_driver.c ****     0x00, 0x0c, 0x00, 0x00, 0x00, 0x0c, 0x18, 0x6e, 0x00, 0x00, 0x06, 0x92, 0x0a, 0x16, 0xc0, 0xdf,
 247:drivers/inv_mpu_dmp_motion_driver.c ****     0xff, 0xff, 0x02, 0x56, 0xfd, 0x8c, 0xd3, 0x77, 0xff, 0xe1, 0xc4, 0x96, 0xe0, 0xc5, 0xbe, 0xaa,
 248:drivers/inv_mpu_dmp_motion_driver.c ****     0x00, 0x00, 0x00, 0x00, 0xff, 0xff, 0x0b, 0x2b, 0x00, 0x00, 0x16, 0x57, 0x00, 0x00, 0x03, 0x59,
 249:drivers/inv_mpu_dmp_motion_driver.c ****     0x40, 0x00, 0x00, 0x00, 0x00, 0x00, 0x1d, 0xfa, 0x00, 0x02, 0x6c, 0x1d, 0x00, 0x00, 0x00, 0x00,
 250:drivers/inv_mpu_dmp_motion_driver.c ****     0x3f, 0xff, 0xdf, 0xeb, 0x00, 0x3e, 0xb3, 0xb6, 0x00, 0x0d, 0x22, 0x78, 0x00, 0x00, 0x2f, 0x3c,
 251:drivers/inv_mpu_dmp_motion_driver.c ****     0x00, 0x00, 0x00, 0x00, 0x00, 0x19, 0x42, 0xb5, 0x00, 0x00, 0x39, 0xa2, 0x00, 0x00, 0xb3, 0x65,
 252:drivers/inv_mpu_dmp_motion_driver.c ****     0xd9, 0x0e, 0x9f, 0xc9, 0x1d, 0xcf, 0x4c, 0x34, 0x30, 0x00, 0x00, 0x00, 0x50, 0x00, 0x00, 0x00,
 253:drivers/inv_mpu_dmp_motion_driver.c ****     0x3b, 0xb6, 0x7a, 0xe8, 0x00, 0x64, 0x00, 0x00, 0x00, 0xc8, 0x00, 0x00, 0x00, 0x00, 0x00, 0x00,
 254:drivers/inv_mpu_dmp_motion_driver.c ****     /* bank # 1 */
 255:drivers/inv_mpu_dmp_motion_driver.c ****     0x10, 0x00, 0x00, 0x00, 0x10, 0x00, 0xfa, 0x92, 0x10, 0x00, 0x22, 0x5e, 0x00, 0x0d, 0x22, 0x9f,
 256:drivers/inv_mpu_dmp_motion_driver.c ****     0x00, 0x01, 0x00, 0x00, 0x00, 0x32, 0x00, 0x00, 0xff, 0x46, 0x00, 0x00, 0x63, 0xd4, 0x00, 0x00,
 257:drivers/inv_mpu_dmp_motion_driver.c ****     0x10, 0x00, 0x00, 0x00, 0x04, 0xd6, 0x00, 0x00, 0x04, 0xcc, 0x00, 0x00, 0x04, 0xcc, 0x00, 0x00,
 258:drivers/inv_mpu_dmp_motion_driver.c ****     0x00, 0x00, 0x10, 0x72, 0x00, 0x00, 0x00, 0x40, 0x00, 0x00, 0x00, 0x00, 0x00, 0x00, 0x00, 0x00,
 259:drivers/inv_mpu_dmp_motion_driver.c ****     0x00, 0x06, 0x00, 0x02, 0x00, 0x05, 0x00, 0x07, 0x00, 0x00, 0x00, 0x00, 0x00, 0x64, 0x00, 0x00,
 260:drivers/inv_mpu_dmp_motion_driver.c ****     0x00, 0x00, 0x00, 0x00, 0x00, 0x00, 0x00, 0x05, 0x00, 0x05, 0x00, 0x64, 0x00, 0x20, 0x00, 0x00,
 261:drivers/inv_mpu_dmp_motion_driver.c ****     0x00, 0x00, 0x00, 0x00, 0x00, 0x00, 0x00, 0x00, 0x00, 0x00, 0x40, 0x00, 0x00, 0x00, 0x03, 0x00,
ARM GAS  /tmp/ccBPBbjw.s 			page 6


 262:drivers/inv_mpu_dmp_motion_driver.c ****     0x00, 0x00, 0x00, 0x32, 0xf8, 0x98, 0x00, 0x00, 0xff, 0x65, 0x00, 0x00, 0x83, 0x0f, 0x00, 0x00,
 263:drivers/inv_mpu_dmp_motion_driver.c ****     0xff, 0x9b, 0xfc, 0x00, 0x00, 0x00, 0x00, 0x00, 0x00, 0x00, 0x00, 0x00, 0x00, 0x00, 0x00, 0x00,
 264:drivers/inv_mpu_dmp_motion_driver.c ****     0x00, 0x00, 0x00, 0x00, 0x00, 0x00, 0x00, 0x00, 0x00, 0x00, 0x00, 0x00, 0x00, 0x00, 0x00, 0x00,
 265:drivers/inv_mpu_dmp_motion_driver.c ****     0x00, 0x00, 0x00, 0x00, 0x00, 0x00, 0x00, 0x00, 0x00, 0x00, 0x00, 0x00, 0x00, 0x00, 0x10, 0x00,
 266:drivers/inv_mpu_dmp_motion_driver.c ****     0x40, 0x00, 0x00, 0x00, 0x00, 0x00, 0x00, 0x06, 0x00, 0x00, 0xb2, 0x6a, 0x00, 0x02, 0x00, 0x00,
 267:drivers/inv_mpu_dmp_motion_driver.c ****     0x00, 0x01, 0xfb, 0x83, 0x00, 0x68, 0x00, 0x00, 0x00, 0xd9, 0xfc, 0x00, 0x7c, 0xf1, 0xff, 0x83,
 268:drivers/inv_mpu_dmp_motion_driver.c ****     0x00, 0x00, 0x00, 0x00, 0x00, 0x65, 0x00, 0x00, 0x00, 0x64, 0x03, 0xe8, 0x00, 0x64, 0x00, 0x28,
 269:drivers/inv_mpu_dmp_motion_driver.c ****     0x00, 0x00, 0x00, 0x25, 0x00, 0x00, 0x00, 0x00, 0x16, 0xa0, 0x00, 0x00, 0x00, 0x00, 0x10, 0x00,
 270:drivers/inv_mpu_dmp_motion_driver.c ****     0x00, 0x00, 0x10, 0x00, 0x00, 0x2f, 0x00, 0x00, 0x00, 0x00, 0x01, 0xf4, 0x00, 0x00, 0x10, 0x00,
 271:drivers/inv_mpu_dmp_motion_driver.c ****     /* bank # 2 */
 272:drivers/inv_mpu_dmp_motion_driver.c ****     0x00, 0x28, 0x00, 0x00, 0xff, 0xff, 0x45, 0x81, 0xff, 0xff, 0xfa, 0x72, 0x00, 0x00, 0x00, 0x00,
 273:drivers/inv_mpu_dmp_motion_driver.c ****     0x00, 0x00, 0x00, 0x00, 0x00, 0x44, 0x00, 0x05, 0x00, 0x05, 0xba, 0xc6, 0x00, 0x47, 0x78, 0xa2,
 274:drivers/inv_mpu_dmp_motion_driver.c ****     0x00, 0x00, 0x00, 0x01, 0x00, 0x00, 0x00, 0x00, 0x00, 0x00, 0x06, 0x00, 0x00, 0x00, 0x00, 0x14,
 275:drivers/inv_mpu_dmp_motion_driver.c ****     0x00, 0x00, 0x25, 0x4d, 0x00, 0x2f, 0x70, 0x6d, 0x00, 0x00, 0x05, 0xae, 0x00, 0x0c, 0x02, 0xd0,
 276:drivers/inv_mpu_dmp_motion_driver.c ****     0x00, 0x00, 0x00, 0x00, 0x00, 0x00, 0x00, 0x00, 0x00, 0x00, 0x00, 0x00, 0x00, 0x00, 0x00, 0x00,
 277:drivers/inv_mpu_dmp_motion_driver.c ****     0x00, 0x1b, 0x00, 0x00, 0x00, 0x00, 0x00, 0x00, 0x00, 0x00, 0x00, 0x00, 0x00, 0x00, 0x00, 0x00,
 278:drivers/inv_mpu_dmp_motion_driver.c ****     0x00, 0x64, 0x00, 0x00, 0x00, 0x08, 0x00, 0x00, 0x00, 0x00, 0x00, 0x00, 0x00, 0x00, 0x00, 0x00,
 279:drivers/inv_mpu_dmp_motion_driver.c ****     0x00, 0x00, 0x00, 0x00, 0x00, 0x00, 0x00, 0x00, 0x00, 0x00, 0x00, 0x00, 0x00, 0x00, 0x00, 0x00,
 280:drivers/inv_mpu_dmp_motion_driver.c ****     0x00, 0x00, 0x00, 0x00, 0x00, 0x00, 0x00, 0x00, 0x00, 0x00, 0x00, 0x00, 0x00, 0x00, 0x00, 0x00,
 281:drivers/inv_mpu_dmp_motion_driver.c ****     0x00, 0x00, 0x00, 0x00, 0x00, 0x00, 0x00, 0x00, 0x00, 0x00, 0x00, 0x00, 0x00, 0x00, 0x00, 0x00,
 282:drivers/inv_mpu_dmp_motion_driver.c ****     0x00, 0x00, 0x00, 0x00, 0x00, 0x00, 0x00, 0x00, 0x00, 0x00, 0x00, 0x00, 0x00, 0x00, 0x00, 0x00,
 283:drivers/inv_mpu_dmp_motion_driver.c ****     0x00, 0x00, 0x00, 0x00, 0x00, 0x00, 0x00, 0x00, 0x00, 0x00, 0x00, 0x00, 0x00, 0x00, 0x00, 0x00,
 284:drivers/inv_mpu_dmp_motion_driver.c ****     0x00, 0x1b, 0x00, 0x00, 0x00, 0x00, 0x00, 0x00, 0x00, 0x00, 0x00, 0x00, 0x00, 0x0e, 0x00, 0x0e,
 285:drivers/inv_mpu_dmp_motion_driver.c ****     0x00, 0x00, 0x0a, 0xc7, 0x00, 0x04, 0x00, 0x00, 0x00, 0x00, 0x00, 0x32, 0xff, 0xff, 0xff, 0x9c,
 286:drivers/inv_mpu_dmp_motion_driver.c ****     0x00, 0x00, 0x0b, 0x2b, 0x00, 0x00, 0x00, 0x02, 0x00, 0x00, 0x00, 0x01, 0x00, 0x00, 0x00, 0x64,
 287:drivers/inv_mpu_dmp_motion_driver.c ****     0xff, 0xe5, 0x00, 0x00, 0x00, 0x00, 0x00, 0x00, 0x00, 0x00, 0x00, 0x00, 0x00, 0x00, 0x00, 0x00,
 288:drivers/inv_mpu_dmp_motion_driver.c ****     /* bank # 3 */
 289:drivers/inv_mpu_dmp_motion_driver.c ****     0x00, 0x00, 0x00, 0x01, 0x00, 0x00, 0x00, 0x00, 0x00, 0x01, 0x00, 0x00, 0x00, 0x00, 0x00, 0x00,
 290:drivers/inv_mpu_dmp_motion_driver.c ****     0x00, 0x01, 0x80, 0x00, 0x00, 0x01, 0x80, 0x00, 0x00, 0x01, 0x80, 0x00, 0x00, 0x24, 0x26, 0xd3,
 291:drivers/inv_mpu_dmp_motion_driver.c ****     0x00, 0x00, 0x00, 0x00, 0x00, 0x00, 0x00, 0x00, 0x00, 0x06, 0x00, 0x10, 0x00, 0x96, 0x00, 0x3c,
 292:drivers/inv_mpu_dmp_motion_driver.c ****     0x00, 0x00, 0x00, 0x00, 0x00, 0x00, 0x00, 0x00, 0x00, 0x00, 0x00, 0x00, 0x00, 0x00, 0x00, 0x00,
 293:drivers/inv_mpu_dmp_motion_driver.c ****     0x0c, 0x0a, 0x4e, 0x68, 0xcd, 0xcf, 0x77, 0x09, 0x50, 0x16, 0x67, 0x59, 0xc6, 0x19, 0xce, 0x82,
 294:drivers/inv_mpu_dmp_motion_driver.c ****     0x00, 0x00, 0x00, 0x00, 0x00, 0x00, 0x00, 0x00, 0x00, 0x00, 0x00, 0x00, 0x00, 0x00, 0x00, 0x00,
 295:drivers/inv_mpu_dmp_motion_driver.c ****     0x00, 0x00, 0x00, 0x00, 0x00, 0x00, 0x00, 0x00, 0x17, 0xd7, 0x84, 0x00, 0x03, 0x00, 0x00, 0x00,
 296:drivers/inv_mpu_dmp_motion_driver.c ****     0x00, 0x00, 0x00, 0x00, 0x00, 0x00, 0x00, 0x00, 0xc7, 0x93, 0x8f, 0x9d, 0x1e, 0x1b, 0x1c, 0x19,
 297:drivers/inv_mpu_dmp_motion_driver.c ****     0x00, 0x00, 0x00, 0x00, 0x00, 0x00, 0x00, 0x00, 0x00, 0x00, 0x00, 0x00, 0x00, 0x00, 0x00, 0x00,
 298:drivers/inv_mpu_dmp_motion_driver.c ****     0x00, 0x00, 0x00, 0x00, 0x00, 0x00, 0x00, 0x00, 0x02, 0x03, 0x18, 0x85, 0x00, 0x00, 0x40, 0x00,
 299:drivers/inv_mpu_dmp_motion_driver.c ****     0x00, 0x00, 0x00, 0x03, 0x00, 0x00, 0x00, 0x03, 0x00, 0x00, 0x00, 0x00, 0x00, 0x00, 0x00, 0x00,
 300:drivers/inv_mpu_dmp_motion_driver.c ****     0x40, 0x00, 0x00, 0x00, 0x00, 0x00, 0x00, 0x00, 0x00, 0x00, 0x00, 0x00, 0x00, 0x00, 0x00, 0x00,
 301:drivers/inv_mpu_dmp_motion_driver.c ****     0x00, 0x00, 0x00, 0x00, 0x00, 0x00, 0x00, 0x00, 0x00, 0x00, 0x00, 0x00, 0x00, 0x00, 0x00, 0x00,
 302:drivers/inv_mpu_dmp_motion_driver.c ****     0x00, 0x00, 0x00, 0x00, 0x00, 0x00, 0x00, 0x00, 0x00, 0x00, 0x00, 0x00, 0x00, 0x00, 0x00, 0x00,
 303:drivers/inv_mpu_dmp_motion_driver.c ****     0x00, 0x00, 0x00, 0x00, 0x67, 0x7d, 0xdf, 0x7e, 0x72, 0x90, 0x2e, 0x55, 0x4c, 0xf6, 0xe6, 0x88,
 304:drivers/inv_mpu_dmp_motion_driver.c ****     0x00, 0x00, 0x00, 0x00, 0x00, 0x00, 0x00, 0x00, 0x00, 0x00, 0x00, 0x00, 0x00, 0x00, 0x00, 0x00,
 305:drivers/inv_mpu_dmp_motion_driver.c **** 
 306:drivers/inv_mpu_dmp_motion_driver.c ****     /* bank # 4 */
 307:drivers/inv_mpu_dmp_motion_driver.c ****     0xd8, 0xdc, 0xb4, 0xb8, 0xb0, 0xd8, 0xb9, 0xab, 0xf3, 0xf8, 0xfa, 0xb3, 0xb7, 0xbb, 0x8e, 0x9e,
 308:drivers/inv_mpu_dmp_motion_driver.c ****     0xae, 0xf1, 0x32, 0xf5, 0x1b, 0xf1, 0xb4, 0xb8, 0xb0, 0x80, 0x97, 0xf1, 0xa9, 0xdf, 0xdf, 0xdf,
 309:drivers/inv_mpu_dmp_motion_driver.c ****     0xaa, 0xdf, 0xdf, 0xdf, 0xf2, 0xaa, 0xc5, 0xcd, 0xc7, 0xa9, 0x0c, 0xc9, 0x2c, 0x97, 0xf1, 0xa9,
 310:drivers/inv_mpu_dmp_motion_driver.c ****     0x89, 0x26, 0x46, 0x66, 0xb2, 0x89, 0x99, 0xa9, 0x2d, 0x55, 0x7d, 0xb0, 0xb0, 0x8a, 0xa8, 0x96,
 311:drivers/inv_mpu_dmp_motion_driver.c ****     0x36, 0x56, 0x76, 0xf1, 0xba, 0xa3, 0xb4, 0xb2, 0x80, 0xc0, 0xb8, 0xa8, 0x97, 0x11, 0xb2, 0x83,
 312:drivers/inv_mpu_dmp_motion_driver.c ****     0x98, 0xba, 0xa3, 0xf0, 0x24, 0x08, 0x44, 0x10, 0x64, 0x18, 0xb2, 0xb9, 0xb4, 0x98, 0x83, 0xf1,
 313:drivers/inv_mpu_dmp_motion_driver.c ****     0xa3, 0x29, 0x55, 0x7d, 0xba, 0xb5, 0xb1, 0xa3, 0x83, 0x93, 0xf0, 0x00, 0x28, 0x50, 0xf5, 0xb2,
 314:drivers/inv_mpu_dmp_motion_driver.c ****     0xb6, 0xaa, 0x83, 0x93, 0x28, 0x54, 0x7c, 0xf1, 0xb9, 0xa3, 0x82, 0x93, 0x61, 0xba, 0xa2, 0xda,
 315:drivers/inv_mpu_dmp_motion_driver.c ****     0xde, 0xdf, 0xdb, 0x81, 0x9a, 0xb9, 0xae, 0xf5, 0x60, 0x68, 0x70, 0xf1, 0xda, 0xba, 0xa2, 0xdf,
 316:drivers/inv_mpu_dmp_motion_driver.c ****     0xd9, 0xba, 0xa2, 0xfa, 0xb9, 0xa3, 0x82, 0x92, 0xdb, 0x31, 0xba, 0xa2, 0xd9, 0xba, 0xa2, 0xf8,
 317:drivers/inv_mpu_dmp_motion_driver.c ****     0xdf, 0x85, 0xa4, 0xd0, 0xc1, 0xbb, 0xad, 0x83, 0xc2, 0xc5, 0xc7, 0xb8, 0xa2, 0xdf, 0xdf, 0xdf,
 318:drivers/inv_mpu_dmp_motion_driver.c ****     0xba, 0xa0, 0xdf, 0xdf, 0xdf, 0xd8, 0xd8, 0xf1, 0xb8, 0xaa, 0xb3, 0x8d, 0xb4, 0x98, 0x0d, 0x35,
ARM GAS  /tmp/ccBPBbjw.s 			page 7


 319:drivers/inv_mpu_dmp_motion_driver.c ****     0x5d, 0xb2, 0xb6, 0xba, 0xaf, 0x8c, 0x96, 0x19, 0x8f, 0x9f, 0xa7, 0x0e, 0x16, 0x1e, 0xb4, 0x9a,
 320:drivers/inv_mpu_dmp_motion_driver.c ****     0xb8, 0xaa, 0x87, 0x2c, 0x54, 0x7c, 0xba, 0xa4, 0xb0, 0x8a, 0xb6, 0x91, 0x32, 0x56, 0x76, 0xb2,
 321:drivers/inv_mpu_dmp_motion_driver.c ****     0x84, 0x94, 0xa4, 0xc8, 0x08, 0xcd, 0xd8, 0xb8, 0xb4, 0xb0, 0xf1, 0x99, 0x82, 0xa8, 0x2d, 0x55,
 322:drivers/inv_mpu_dmp_motion_driver.c ****     0x7d, 0x98, 0xa8, 0x0e, 0x16, 0x1e, 0xa2, 0x2c, 0x54, 0x7c, 0x92, 0xa4, 0xf0, 0x2c, 0x50, 0x78,
 323:drivers/inv_mpu_dmp_motion_driver.c ****     /* bank # 5 */
 324:drivers/inv_mpu_dmp_motion_driver.c ****     0xf1, 0x84, 0xa8, 0x98, 0xc4, 0xcd, 0xfc, 0xd8, 0x0d, 0xdb, 0xa8, 0xfc, 0x2d, 0xf3, 0xd9, 0xba,
 325:drivers/inv_mpu_dmp_motion_driver.c ****     0xa6, 0xf8, 0xda, 0xba, 0xa6, 0xde, 0xd8, 0xba, 0xb2, 0xb6, 0x86, 0x96, 0xa6, 0xd0, 0xf3, 0xc8,
 326:drivers/inv_mpu_dmp_motion_driver.c ****     0x41, 0xda, 0xa6, 0xc8, 0xf8, 0xd8, 0xb0, 0xb4, 0xb8, 0x82, 0xa8, 0x92, 0xf5, 0x2c, 0x54, 0x88,
 327:drivers/inv_mpu_dmp_motion_driver.c ****     0x98, 0xf1, 0x35, 0xd9, 0xf4, 0x18, 0xd8, 0xf1, 0xa2, 0xd0, 0xf8, 0xf9, 0xa8, 0x84, 0xd9, 0xc7,
 328:drivers/inv_mpu_dmp_motion_driver.c ****     0xdf, 0xf8, 0xf8, 0x83, 0xc5, 0xda, 0xdf, 0x69, 0xdf, 0x83, 0xc1, 0xd8, 0xf4, 0x01, 0x14, 0xf1,
 329:drivers/inv_mpu_dmp_motion_driver.c ****     0xa8, 0x82, 0x4e, 0xa8, 0x84, 0xf3, 0x11, 0xd1, 0x82, 0xf5, 0xd9, 0x92, 0x28, 0x97, 0x88, 0xf1,
 330:drivers/inv_mpu_dmp_motion_driver.c ****     0x09, 0xf4, 0x1c, 0x1c, 0xd8, 0x84, 0xa8, 0xf3, 0xc0, 0xf9, 0xd1, 0xd9, 0x97, 0x82, 0xf1, 0x29,
 331:drivers/inv_mpu_dmp_motion_driver.c ****     0xf4, 0x0d, 0xd8, 0xf3, 0xf9, 0xf9, 0xd1, 0xd9, 0x82, 0xf4, 0xc2, 0x03, 0xd8, 0xde, 0xdf, 0x1a,
 332:drivers/inv_mpu_dmp_motion_driver.c ****     0xd8, 0xf1, 0xa2, 0xfa, 0xf9, 0xa8, 0x84, 0x98, 0xd9, 0xc7, 0xdf, 0xf8, 0xf8, 0xf8, 0x83, 0xc7,
 333:drivers/inv_mpu_dmp_motion_driver.c ****     0xda, 0xdf, 0x69, 0xdf, 0xf8, 0x83, 0xc3, 0xd8, 0xf4, 0x01, 0x14, 0xf1, 0x98, 0xa8, 0x82, 0x2e,
 334:drivers/inv_mpu_dmp_motion_driver.c ****     0xa8, 0x84, 0xf3, 0x11, 0xd1, 0x82, 0xf5, 0xd9, 0x92, 0x50, 0x97, 0x88, 0xf1, 0x09, 0xf4, 0x1c,
 335:drivers/inv_mpu_dmp_motion_driver.c ****     0xd8, 0x84, 0xa8, 0xf3, 0xc0, 0xf8, 0xf9, 0xd1, 0xd9, 0x97, 0x82, 0xf1, 0x49, 0xf4, 0x0d, 0xd8,
 336:drivers/inv_mpu_dmp_motion_driver.c ****     0xf3, 0xf9, 0xf9, 0xd1, 0xd9, 0x82, 0xf4, 0xc4, 0x03, 0xd8, 0xde, 0xdf, 0xd8, 0xf1, 0xad, 0x88,
 337:drivers/inv_mpu_dmp_motion_driver.c ****     0x98, 0xcc, 0xa8, 0x09, 0xf9, 0xd9, 0x82, 0x92, 0xa8, 0xf5, 0x7c, 0xf1, 0x88, 0x3a, 0xcf, 0x94,
 338:drivers/inv_mpu_dmp_motion_driver.c ****     0x4a, 0x6e, 0x98, 0xdb, 0x69, 0x31, 0xda, 0xad, 0xf2, 0xde, 0xf9, 0xd8, 0x87, 0x95, 0xa8, 0xf2,
 339:drivers/inv_mpu_dmp_motion_driver.c ****     0x21, 0xd1, 0xda, 0xa5, 0xf9, 0xf4, 0x17, 0xd9, 0xf1, 0xae, 0x8e, 0xd0, 0xc0, 0xc3, 0xae, 0x82,
 340:drivers/inv_mpu_dmp_motion_driver.c ****     /* bank # 6 */
 341:drivers/inv_mpu_dmp_motion_driver.c ****     0xc6, 0x84, 0xc3, 0xa8, 0x85, 0x95, 0xc8, 0xa5, 0x88, 0xf2, 0xc0, 0xf1, 0xf4, 0x01, 0x0e, 0xf1,
 342:drivers/inv_mpu_dmp_motion_driver.c ****     0x8e, 0x9e, 0xa8, 0xc6, 0x3e, 0x56, 0xf5, 0x54, 0xf1, 0x88, 0x72, 0xf4, 0x01, 0x15, 0xf1, 0x98,
 343:drivers/inv_mpu_dmp_motion_driver.c ****     0x45, 0x85, 0x6e, 0xf5, 0x8e, 0x9e, 0x04, 0x88, 0xf1, 0x42, 0x98, 0x5a, 0x8e, 0x9e, 0x06, 0x88,
 344:drivers/inv_mpu_dmp_motion_driver.c ****     0x69, 0xf4, 0x01, 0x1c, 0xf1, 0x98, 0x1e, 0x11, 0x08, 0xd0, 0xf5, 0x04, 0xf1, 0x1e, 0x97, 0x02,
 345:drivers/inv_mpu_dmp_motion_driver.c ****     0x02, 0x98, 0x36, 0x25, 0xdb, 0xf9, 0xd9, 0x85, 0xa5, 0xf3, 0xc1, 0xda, 0x85, 0xa5, 0xf3, 0xdf,
 346:drivers/inv_mpu_dmp_motion_driver.c ****     0xd8, 0x85, 0x95, 0xa8, 0xf3, 0x09, 0xda, 0xa5, 0xfa, 0xd8, 0x82, 0x92, 0xa8, 0xf5, 0x78, 0xf1,
 347:drivers/inv_mpu_dmp_motion_driver.c ****     0x88, 0x1a, 0x84, 0x9f, 0x26, 0x88, 0x98, 0x21, 0xda, 0xf4, 0x1d, 0xf3, 0xd8, 0x87, 0x9f, 0x39,
 348:drivers/inv_mpu_dmp_motion_driver.c ****     0xd1, 0xaf, 0xd9, 0xdf, 0xdf, 0xfb, 0xf9, 0xf4, 0x0c, 0xf3, 0xd8, 0xfa, 0xd0, 0xf8, 0xda, 0xf9,
 349:drivers/inv_mpu_dmp_motion_driver.c ****     0xf9, 0xd0, 0xdf, 0xd9, 0xf9, 0xd8, 0xf4, 0x0b, 0xd8, 0xf3, 0x87, 0x9f, 0x39, 0xd1, 0xaf, 0xd9,
 350:drivers/inv_mpu_dmp_motion_driver.c ****     0xdf, 0xdf, 0xf4, 0x1d, 0xf3, 0xd8, 0xfa, 0xfc, 0xa8, 0x69, 0xf9, 0xf9, 0xaf, 0xd0, 0xda, 0xde,
 351:drivers/inv_mpu_dmp_motion_driver.c ****     0xfa, 0xd9, 0xf8, 0x8f, 0x9f, 0xa8, 0xf1, 0xcc, 0xf3, 0x98, 0xdb, 0x45, 0xd9, 0xaf, 0xdf, 0xd0,
 352:drivers/inv_mpu_dmp_motion_driver.c ****     0xf8, 0xd8, 0xf1, 0x8f, 0x9f, 0xa8, 0xca, 0xf3, 0x88, 0x09, 0xda, 0xaf, 0x8f, 0xcb, 0xf8, 0xd8,
 353:drivers/inv_mpu_dmp_motion_driver.c ****     0xf2, 0xad, 0x97, 0x8d, 0x0c, 0xd9, 0xa5, 0xdf, 0xf9, 0xba, 0xa6, 0xf3, 0xfa, 0xf4, 0x12, 0xf2,
 354:drivers/inv_mpu_dmp_motion_driver.c ****     0xd8, 0x95, 0x0d, 0xd1, 0xd9, 0xba, 0xa6, 0xf3, 0xfa, 0xda, 0xa5, 0xf2, 0xc1, 0xba, 0xa6, 0xf3,
 355:drivers/inv_mpu_dmp_motion_driver.c ****     0xdf, 0xd8, 0xf1, 0xba, 0xb2, 0xb6, 0x86, 0x96, 0xa6, 0xd0, 0xca, 0xf3, 0x49, 0xda, 0xa6, 0xcb,
 356:drivers/inv_mpu_dmp_motion_driver.c ****     0xf8, 0xd8, 0xb0, 0xb4, 0xb8, 0xd8, 0xad, 0x84, 0xf2, 0xc0, 0xdf, 0xf1, 0x8f, 0xcb, 0xc3, 0xa8,
 357:drivers/inv_mpu_dmp_motion_driver.c ****     /* bank # 7 */
 358:drivers/inv_mpu_dmp_motion_driver.c ****     0xb2, 0xb6, 0x86, 0x96, 0xc8, 0xc1, 0xcb, 0xc3, 0xf3, 0xb0, 0xb4, 0x88, 0x98, 0xa8, 0x21, 0xdb,
 359:drivers/inv_mpu_dmp_motion_driver.c ****     0x71, 0x8d, 0x9d, 0x71, 0x85, 0x95, 0x21, 0xd9, 0xad, 0xf2, 0xfa, 0xd8, 0x85, 0x97, 0xa8, 0x28,
 360:drivers/inv_mpu_dmp_motion_driver.c ****     0xd9, 0xf4, 0x08, 0xd8, 0xf2, 0x8d, 0x29, 0xda, 0xf4, 0x05, 0xd9, 0xf2, 0x85, 0xa4, 0xc2, 0xf2,
 361:drivers/inv_mpu_dmp_motion_driver.c ****     0xd8, 0xa8, 0x8d, 0x94, 0x01, 0xd1, 0xd9, 0xf4, 0x11, 0xf2, 0xd8, 0x87, 0x21, 0xd8, 0xf4, 0x0a,
 362:drivers/inv_mpu_dmp_motion_driver.c ****     0xd8, 0xf2, 0x84, 0x98, 0xa8, 0xc8, 0x01, 0xd1, 0xd9, 0xf4, 0x11, 0xd8, 0xf3, 0xa4, 0xc8, 0xbb,
 363:drivers/inv_mpu_dmp_motion_driver.c ****     0xaf, 0xd0, 0xf2, 0xde, 0xf8, 0xf8, 0xf8, 0xf8, 0xf8, 0xf8, 0xf8, 0xf8, 0xd8, 0xf1, 0xb8, 0xf6,
 364:drivers/inv_mpu_dmp_motion_driver.c ****     0xb5, 0xb9, 0xb0, 0x8a, 0x95, 0xa3, 0xde, 0x3c, 0xa3, 0xd9, 0xf8, 0xd8, 0x5c, 0xa3, 0xd9, 0xf8,
 365:drivers/inv_mpu_dmp_motion_driver.c ****     0xd8, 0x7c, 0xa3, 0xd9, 0xf8, 0xd8, 0xf8, 0xf9, 0xd1, 0xa5, 0xd9, 0xdf, 0xda, 0xfa, 0xd8, 0xb1,
 366:drivers/inv_mpu_dmp_motion_driver.c ****     0x85, 0x30, 0xf7, 0xd9, 0xde, 0xd8, 0xf8, 0x30, 0xad, 0xda, 0xde, 0xd8, 0xf2, 0xb4, 0x8c, 0x99,
 367:drivers/inv_mpu_dmp_motion_driver.c ****     0xa3, 0x2d, 0x55, 0x7d, 0xa0, 0x83, 0xdf, 0xdf, 0xdf, 0xb5, 0x91, 0xa0, 0xf6, 0x29, 0xd9, 0xfb,
 368:drivers/inv_mpu_dmp_motion_driver.c ****     0xd8, 0xa0, 0xfc, 0x29, 0xd9, 0xfa, 0xd8, 0xa0, 0xd0, 0x51, 0xd9, 0xf8, 0xd8, 0xfc, 0x51, 0xd9,
 369:drivers/inv_mpu_dmp_motion_driver.c ****     0xf9, 0xd8, 0x79, 0xd9, 0xfb, 0xd8, 0xa0, 0xd0, 0xfc, 0x79, 0xd9, 0xfa, 0xd8, 0xa1, 0xf9, 0xf9,
 370:drivers/inv_mpu_dmp_motion_driver.c ****     0xf9, 0xf9, 0xf9, 0xa0, 0xda, 0xdf, 0xdf, 0xdf, 0xd8, 0xa1, 0xf8, 0xf8, 0xf8, 0xf8, 0xf8, 0xac,
 371:drivers/inv_mpu_dmp_motion_driver.c ****     0xde, 0xf8, 0xad, 0xde, 0x83, 0x93, 0xac, 0x2c, 0x54, 0x7c, 0xf1, 0xa8, 0xdf, 0xdf, 0xdf, 0xf6,
 372:drivers/inv_mpu_dmp_motion_driver.c ****     0x9d, 0x2c, 0xda, 0xa0, 0xdf, 0xd9, 0xfa, 0xdb, 0x2d, 0xf8, 0xd8, 0xa8, 0x50, 0xda, 0xa0, 0xd0,
 373:drivers/inv_mpu_dmp_motion_driver.c ****     0xde, 0xd9, 0xd0, 0xf8, 0xf8, 0xf8, 0xdb, 0x55, 0xf8, 0xd8, 0xa8, 0x78, 0xda, 0xa0, 0xd0, 0xdf,
 374:drivers/inv_mpu_dmp_motion_driver.c ****     /* bank # 8 */
 375:drivers/inv_mpu_dmp_motion_driver.c ****     0xd9, 0xd0, 0xfa, 0xf8, 0xf8, 0xf8, 0xf8, 0xdb, 0x7d, 0xf8, 0xd8, 0x9c, 0xa8, 0x8c, 0xf5, 0x30,
ARM GAS  /tmp/ccBPBbjw.s 			page 8


 376:drivers/inv_mpu_dmp_motion_driver.c ****     0xdb, 0x38, 0xd9, 0xd0, 0xde, 0xdf, 0xa0, 0xd0, 0xde, 0xdf, 0xd8, 0xa8, 0x48, 0xdb, 0x58, 0xd9,
 377:drivers/inv_mpu_dmp_motion_driver.c ****     0xdf, 0xd0, 0xde, 0xa0, 0xdf, 0xd0, 0xde, 0xd8, 0xa8, 0x68, 0xdb, 0x70, 0xd9, 0xdf, 0xdf, 0xa0,
 378:drivers/inv_mpu_dmp_motion_driver.c ****     0xdf, 0xdf, 0xd8, 0xf1, 0xa8, 0x88, 0x90, 0x2c, 0x54, 0x7c, 0x98, 0xa8, 0xd0, 0x5c, 0x38, 0xd1,
 379:drivers/inv_mpu_dmp_motion_driver.c ****     0xda, 0xf2, 0xae, 0x8c, 0xdf, 0xf9, 0xd8, 0xb0, 0x87, 0xa8, 0xc1, 0xc1, 0xb1, 0x88, 0xa8, 0xc6,
 380:drivers/inv_mpu_dmp_motion_driver.c ****     0xf9, 0xf9, 0xda, 0x36, 0xd8, 0xa8, 0xf9, 0xda, 0x36, 0xd8, 0xa8, 0xf9, 0xda, 0x36, 0xd8, 0xa8,
 381:drivers/inv_mpu_dmp_motion_driver.c ****     0xf9, 0xda, 0x36, 0xd8, 0xa8, 0xf9, 0xda, 0x36, 0xd8, 0xf7, 0x8d, 0x9d, 0xad, 0xf8, 0x18, 0xda,
 382:drivers/inv_mpu_dmp_motion_driver.c ****     0xf2, 0xae, 0xdf, 0xd8, 0xf7, 0xad, 0xfa, 0x30, 0xd9, 0xa4, 0xde, 0xf9, 0xd8, 0xf2, 0xae, 0xde,
 383:drivers/inv_mpu_dmp_motion_driver.c ****     0xfa, 0xf9, 0x83, 0xa7, 0xd9, 0xc3, 0xc5, 0xc7, 0xf1, 0x88, 0x9b, 0xa7, 0x7a, 0xad, 0xf7, 0xde,
 384:drivers/inv_mpu_dmp_motion_driver.c ****     0xdf, 0xa4, 0xf8, 0x84, 0x94, 0x08, 0xa7, 0x97, 0xf3, 0x00, 0xae, 0xf2, 0x98, 0x19, 0xa4, 0x88,
 385:drivers/inv_mpu_dmp_motion_driver.c ****     0xc6, 0xa3, 0x94, 0x88, 0xf6, 0x32, 0xdf, 0xf2, 0x83, 0x93, 0xdb, 0x09, 0xd9, 0xf2, 0xaa, 0xdf,
 386:drivers/inv_mpu_dmp_motion_driver.c ****     0xd8, 0xd8, 0xae, 0xf8, 0xf9, 0xd1, 0xda, 0xf3, 0xa4, 0xde, 0xa7, 0xf1, 0x88, 0x9b, 0x7a, 0xd8,
 387:drivers/inv_mpu_dmp_motion_driver.c ****     0xf3, 0x84, 0x94, 0xae, 0x19, 0xf9, 0xda, 0xaa, 0xf1, 0xdf, 0xd8, 0xa8, 0x81, 0xc0, 0xc3, 0xc5,
 388:drivers/inv_mpu_dmp_motion_driver.c ****     0xc7, 0xa3, 0x92, 0x83, 0xf6, 0x28, 0xad, 0xde, 0xd9, 0xf8, 0xd8, 0xa3, 0x50, 0xad, 0xd9, 0xf8,
 389:drivers/inv_mpu_dmp_motion_driver.c ****     0xd8, 0xa3, 0x78, 0xad, 0xd9, 0xf8, 0xd8, 0xf8, 0xf9, 0xd1, 0xa1, 0xda, 0xde, 0xc3, 0xc5, 0xc7,
 390:drivers/inv_mpu_dmp_motion_driver.c ****     0xd8, 0xa1, 0x81, 0x94, 0xf8, 0x18, 0xf2, 0xb0, 0x89, 0xac, 0xc3, 0xc5, 0xc7, 0xf1, 0xd8, 0xb8,
 391:drivers/inv_mpu_dmp_motion_driver.c ****     /* bank # 9 */
 392:drivers/inv_mpu_dmp_motion_driver.c ****     0xb4, 0xb0, 0x97, 0x86, 0xa8, 0x31, 0x9b, 0x06, 0x99, 0x07, 0xab, 0x97, 0x28, 0x88, 0x9b, 0xf0,
 393:drivers/inv_mpu_dmp_motion_driver.c ****     0x0c, 0x20, 0x14, 0x40, 0xb0, 0xb4, 0xb8, 0xf0, 0xa8, 0x8a, 0x9a, 0x28, 0x50, 0x78, 0xb7, 0x9b,
 394:drivers/inv_mpu_dmp_motion_driver.c ****     0xa8, 0x29, 0x51, 0x79, 0x24, 0x70, 0x59, 0x44, 0x69, 0x38, 0x64, 0x48, 0x31, 0xf1, 0xbb, 0xab,
 395:drivers/inv_mpu_dmp_motion_driver.c ****     0x88, 0x00, 0x2c, 0x54, 0x7c, 0xf0, 0xb3, 0x8b, 0xb8, 0xa8, 0x04, 0x28, 0x50, 0x78, 0xf1, 0xb0,
 396:drivers/inv_mpu_dmp_motion_driver.c ****     0x88, 0xb4, 0x97, 0x26, 0xa8, 0x59, 0x98, 0xbb, 0xab, 0xb3, 0x8b, 0x02, 0x26, 0x46, 0x66, 0xb0,
 397:drivers/inv_mpu_dmp_motion_driver.c ****     0xb8, 0xf0, 0x8a, 0x9c, 0xa8, 0x29, 0x51, 0x79, 0x8b, 0x29, 0x51, 0x79, 0x8a, 0x24, 0x70, 0x59,
 398:drivers/inv_mpu_dmp_motion_driver.c ****     0x8b, 0x20, 0x58, 0x71, 0x8a, 0x44, 0x69, 0x38, 0x8b, 0x39, 0x40, 0x68, 0x8a, 0x64, 0x48, 0x31,
 399:drivers/inv_mpu_dmp_motion_driver.c ****     0x8b, 0x30, 0x49, 0x60, 0x88, 0xf1, 0xac, 0x00, 0x2c, 0x54, 0x7c, 0xf0, 0x8c, 0xa8, 0x04, 0x28,
 400:drivers/inv_mpu_dmp_motion_driver.c ****     0x50, 0x78, 0xf1, 0x88, 0x97, 0x26, 0xa8, 0x59, 0x98, 0xac, 0x8c, 0x02, 0x26, 0x46, 0x66, 0xf0,
 401:drivers/inv_mpu_dmp_motion_driver.c ****     0x89, 0x9c, 0xa8, 0x29, 0x51, 0x79, 0x24, 0x70, 0x59, 0x44, 0x69, 0x38, 0x64, 0x48, 0x31, 0xa9,
 402:drivers/inv_mpu_dmp_motion_driver.c ****     0x88, 0x09, 0x20, 0x59, 0x70, 0xab, 0x11, 0x38, 0x40, 0x69, 0xa8, 0x19, 0x31, 0x48, 0x60, 0x8c,
 403:drivers/inv_mpu_dmp_motion_driver.c ****     0xa8, 0x3c, 0x41, 0x5c, 0x20, 0x7c, 0x00, 0xf1, 0x87, 0x98, 0x19, 0x86, 0xa8, 0x6e, 0x76, 0x7e,
 404:drivers/inv_mpu_dmp_motion_driver.c ****     0xa9, 0x99, 0x88, 0x2d, 0x55, 0x7d, 0xd8, 0xb1, 0xb5, 0xb9, 0xa3, 0xdf, 0xdf, 0xdf, 0xae, 0xd0,
 405:drivers/inv_mpu_dmp_motion_driver.c ****     0xdf, 0xaa, 0xd0, 0xde, 0xf2, 0xab, 0xf8, 0xf9, 0xd9, 0xb0, 0x87, 0xc4, 0xaa, 0xf1, 0xdf, 0xdf,
 406:drivers/inv_mpu_dmp_motion_driver.c ****     0xbb, 0xaf, 0xdf, 0xdf, 0xb9, 0xd8, 0xb1, 0xf1, 0xa3, 0x97, 0x8e, 0x60, 0xdf, 0xb0, 0x84, 0xf2,
 407:drivers/inv_mpu_dmp_motion_driver.c ****     0xc8, 0xf8, 0xf9, 0xd9, 0xde, 0xd8, 0x93, 0x85, 0xf1, 0x4a, 0xb1, 0x83, 0xa3, 0x08, 0xb5, 0x83,
 408:drivers/inv_mpu_dmp_motion_driver.c ****     /* bank # 10 */
 409:drivers/inv_mpu_dmp_motion_driver.c ****     0x9a, 0x08, 0x10, 0xb7, 0x9f, 0x10, 0xd8, 0xf1, 0xb0, 0xba, 0xae, 0xb0, 0x8a, 0xc2, 0xb2, 0xb6,
 410:drivers/inv_mpu_dmp_motion_driver.c ****     0x8e, 0x9e, 0xf1, 0xfb, 0xd9, 0xf4, 0x1d, 0xd8, 0xf9, 0xd9, 0x0c, 0xf1, 0xd8, 0xf8, 0xf8, 0xad,
 411:drivers/inv_mpu_dmp_motion_driver.c ****     0x61, 0xd9, 0xae, 0xfb, 0xd8, 0xf4, 0x0c, 0xf1, 0xd8, 0xf8, 0xf8, 0xad, 0x19, 0xd9, 0xae, 0xfb,
 412:drivers/inv_mpu_dmp_motion_driver.c ****     0xdf, 0xd8, 0xf4, 0x16, 0xf1, 0xd8, 0xf8, 0xad, 0x8d, 0x61, 0xd9, 0xf4, 0xf4, 0xac, 0xf5, 0x9c,
 413:drivers/inv_mpu_dmp_motion_driver.c ****     0x9c, 0x8d, 0xdf, 0x2b, 0xba, 0xb6, 0xae, 0xfa, 0xf8, 0xf4, 0x0b, 0xd8, 0xf1, 0xae, 0xd0, 0xf8,
 414:drivers/inv_mpu_dmp_motion_driver.c ****     0xad, 0x51, 0xda, 0xae, 0xfa, 0xf8, 0xf1, 0xd8, 0xb9, 0xb1, 0xb6, 0xa3, 0x83, 0x9c, 0x08, 0xb9,
 415:drivers/inv_mpu_dmp_motion_driver.c ****     0xb1, 0x83, 0x9a, 0xb5, 0xaa, 0xc0, 0xfd, 0x30, 0x83, 0xb7, 0x9f, 0x10, 0xb5, 0x8b, 0x93, 0xf2,
 416:drivers/inv_mpu_dmp_motion_driver.c ****     0x02, 0x02, 0xd1, 0xab, 0xda, 0xde, 0xd8, 0xf1, 0xb0, 0x80, 0xba, 0xab, 0xc0, 0xc3, 0xb2, 0x84,
 417:drivers/inv_mpu_dmp_motion_driver.c ****     0xc1, 0xc3, 0xd8, 0xb1, 0xb9, 0xf3, 0x8b, 0xa3, 0x91, 0xb6, 0x09, 0xb4, 0xd9, 0xab, 0xde, 0xb0,
 418:drivers/inv_mpu_dmp_motion_driver.c ****     0x87, 0x9c, 0xb9, 0xa3, 0xdd, 0xf1, 0xb3, 0x8b, 0x8b, 0x8b, 0x8b, 0x8b, 0xb0, 0x87, 0xa3, 0xa3,
 419:drivers/inv_mpu_dmp_motion_driver.c ****     0xa3, 0xa3, 0xb2, 0x8b, 0xb6, 0x9b, 0xf2, 0xa3, 0xa3, 0xa3, 0xa3, 0xa3, 0xa3, 0xa3, 0xa3, 0xa3,
 420:drivers/inv_mpu_dmp_motion_driver.c ****     0xa3, 0xf1, 0xb0, 0x87, 0xb5, 0x9a, 0xa3, 0xf3, 0x9b, 0xa3, 0xa3, 0xdc, 0xba, 0xac, 0xdf, 0xb9,
 421:drivers/inv_mpu_dmp_motion_driver.c ****     0xa3, 0xa3, 0xa3, 0xa3, 0xa3, 0xa3, 0xa3, 0xa3, 0xa3, 0xa3, 0xa3, 0xa3, 0xa3, 0xa3, 0xa3, 0xa3,
 422:drivers/inv_mpu_dmp_motion_driver.c ****     0xd8, 0xd8, 0xd8, 0xbb, 0xb3, 0xb7, 0xf1, 0xaa, 0xf9, 0xda, 0xff, 0xd9, 0x80, 0x9a, 0xaa, 0x28,
 423:drivers/inv_mpu_dmp_motion_driver.c ****     0xb4, 0x80, 0x98, 0xa7, 0x20, 0xb7, 0x97, 0x87, 0xa8, 0x66, 0x88, 0xf0, 0x79, 0x51, 0xf1, 0x90,
 424:drivers/inv_mpu_dmp_motion_driver.c ****     0x2c, 0x87, 0x0c, 0xa7, 0x81, 0x97, 0x62, 0x93, 0xf0, 0x71, 0x71, 0x60, 0x85, 0x94, 0x01, 0x29,
 425:drivers/inv_mpu_dmp_motion_driver.c ****     /* bank # 11 */
 426:drivers/inv_mpu_dmp_motion_driver.c ****     0x51, 0x79, 0x90, 0xa5, 0xf1, 0x28, 0x4c, 0x6c, 0x87, 0x0c, 0x95, 0x18, 0x85, 0x78, 0xa3, 0x83,
 427:drivers/inv_mpu_dmp_motion_driver.c ****     0x90, 0x28, 0x4c, 0x6c, 0x88, 0x6c, 0xd8, 0xf3, 0xa2, 0x82, 0x00, 0xf2, 0x10, 0xa8, 0x92, 0x19,
 428:drivers/inv_mpu_dmp_motion_driver.c ****     0x80, 0xa2, 0xf2, 0xd9, 0x26, 0xd8, 0xf1, 0x88, 0xa8, 0x4d, 0xd9, 0x48, 0xd8, 0x96, 0xa8, 0x39,
 429:drivers/inv_mpu_dmp_motion_driver.c ****     0x80, 0xd9, 0x3c, 0xd8, 0x95, 0x80, 0xa8, 0x39, 0xa6, 0x86, 0x98, 0xd9, 0x2c, 0xda, 0x87, 0xa7,
 430:drivers/inv_mpu_dmp_motion_driver.c ****     0x2c, 0xd8, 0xa8, 0x89, 0x95, 0x19, 0xa9, 0x80, 0xd9, 0x38, 0xd8, 0xa8, 0x89, 0x39, 0xa9, 0x80,
 431:drivers/inv_mpu_dmp_motion_driver.c ****     0xda, 0x3c, 0xd8, 0xa8, 0x2e, 0xa8, 0x39, 0x90, 0xd9, 0x0c, 0xd8, 0xa8, 0x95, 0x31, 0x98, 0xd9,
 432:drivers/inv_mpu_dmp_motion_driver.c ****     0x0c, 0xd8, 0xa8, 0x09, 0xd9, 0xff, 0xd8, 0x01, 0xda, 0xff, 0xd8, 0x95, 0x39, 0xa9, 0xda, 0x26,
ARM GAS  /tmp/ccBPBbjw.s 			page 9


 433:drivers/inv_mpu_dmp_motion_driver.c ****     0xff, 0xd8, 0x90, 0xa8, 0x0d, 0x89, 0x99, 0xa8, 0x10, 0x80, 0x98, 0x21, 0xda, 0x2e, 0xd8, 0x89,
 434:drivers/inv_mpu_dmp_motion_driver.c ****     0x99, 0xa8, 0x31, 0x80, 0xda, 0x2e, 0xd8, 0xa8, 0x86, 0x96, 0x31, 0x80, 0xda, 0x2e, 0xd8, 0xa8,
 435:drivers/inv_mpu_dmp_motion_driver.c ****     0x87, 0x31, 0x80, 0xda, 0x2e, 0xd8, 0xa8, 0x82, 0x92, 0xf3, 0x41, 0x80, 0xf1, 0xd9, 0x2e, 0xd8,
 436:drivers/inv_mpu_dmp_motion_driver.c ****     0xa8, 0x82, 0xf3, 0x19, 0x80, 0xf1, 0xd9, 0x2e, 0xd8, 0x82, 0xac, 0xf3, 0xc0, 0xa2, 0x80, 0x22,
 437:drivers/inv_mpu_dmp_motion_driver.c ****     0xf1, 0xa6, 0x2e, 0xa7, 0x2e, 0xa9, 0x22, 0x98, 0xa8, 0x29, 0xda, 0xac, 0xde, 0xff, 0xd8, 0xa2,
 438:drivers/inv_mpu_dmp_motion_driver.c ****     0xf2, 0x2a, 0xf1, 0xa9, 0x2e, 0x82, 0x92, 0xa8, 0xf2, 0x31, 0x80, 0xa6, 0x96, 0xf1, 0xd9, 0x00,
 439:drivers/inv_mpu_dmp_motion_driver.c ****     0xac, 0x8c, 0x9c, 0x0c, 0x30, 0xac, 0xde, 0xd0, 0xde, 0xff, 0xd8, 0x8c, 0x9c, 0xac, 0xd0, 0x10,
 440:drivers/inv_mpu_dmp_motion_driver.c ****     0xac, 0xde, 0x80, 0x92, 0xa2, 0xf2, 0x4c, 0x82, 0xa8, 0xf1, 0xca, 0xf2, 0x35, 0xf1, 0x96, 0x88,
 441:drivers/inv_mpu_dmp_motion_driver.c ****     0xa6, 0xd9, 0x00, 0xd8, 0xf1, 0xff
 442:drivers/inv_mpu_dmp_motion_driver.c **** };
 443:drivers/inv_mpu_dmp_motion_driver.c **** 
 444:drivers/inv_mpu_dmp_motion_driver.c **** static const unsigned short sStartAddress = 0x0400;
 445:drivers/inv_mpu_dmp_motion_driver.c **** 
 446:drivers/inv_mpu_dmp_motion_driver.c **** /* END OF SECTION COPIED FROM dmpDefaultMPU6050.c */
 447:drivers/inv_mpu_dmp_motion_driver.c **** 
 448:drivers/inv_mpu_dmp_motion_driver.c **** #define INT_SRC_TAP             (0x01)
 449:drivers/inv_mpu_dmp_motion_driver.c **** #define INT_SRC_ANDROID_ORIENT  (0x08)
 450:drivers/inv_mpu_dmp_motion_driver.c **** 
 451:drivers/inv_mpu_dmp_motion_driver.c **** #define DMP_FEATURE_SEND_ANY_GYRO   (DMP_FEATURE_SEND_RAW_GYRO | \
 452:drivers/inv_mpu_dmp_motion_driver.c ****                                      DMP_FEATURE_SEND_CAL_GYRO)
 453:drivers/inv_mpu_dmp_motion_driver.c **** 
 454:drivers/inv_mpu_dmp_motion_driver.c **** #define MAX_PACKET_LENGTH   (32)
 455:drivers/inv_mpu_dmp_motion_driver.c **** 
 456:drivers/inv_mpu_dmp_motion_driver.c **** #define DMP_SAMPLE_RATE     (200)
 457:drivers/inv_mpu_dmp_motion_driver.c **** #define GYRO_SF             (46850825LL * 200 / DMP_SAMPLE_RATE)
 458:drivers/inv_mpu_dmp_motion_driver.c **** 
 459:drivers/inv_mpu_dmp_motion_driver.c **** #define FIFO_CORRUPTION_CHECK
 460:drivers/inv_mpu_dmp_motion_driver.c **** #ifdef FIFO_CORRUPTION_CHECK
 461:drivers/inv_mpu_dmp_motion_driver.c **** #define QUAT_ERROR_THRESH       (1L<<24)
 462:drivers/inv_mpu_dmp_motion_driver.c **** #define QUAT_MAG_SQ_NORMALIZED  (1L<<28)
 463:drivers/inv_mpu_dmp_motion_driver.c **** #define QUAT_MAG_SQ_MIN         (QUAT_MAG_SQ_NORMALIZED - QUAT_ERROR_THRESH)
 464:drivers/inv_mpu_dmp_motion_driver.c **** #define QUAT_MAG_SQ_MAX         (QUAT_MAG_SQ_NORMALIZED + QUAT_ERROR_THRESH)
 465:drivers/inv_mpu_dmp_motion_driver.c **** #endif
 466:drivers/inv_mpu_dmp_motion_driver.c **** 
 467:drivers/inv_mpu_dmp_motion_driver.c **** struct dmp_s {
 468:drivers/inv_mpu_dmp_motion_driver.c ****     void (*tap_cb)(unsigned char count, unsigned char direction);
 469:drivers/inv_mpu_dmp_motion_driver.c ****     void (*android_orient_cb)(unsigned char orientation);
 470:drivers/inv_mpu_dmp_motion_driver.c ****     unsigned short orient;
 471:drivers/inv_mpu_dmp_motion_driver.c ****     unsigned short feature_mask;
 472:drivers/inv_mpu_dmp_motion_driver.c ****     unsigned short fifo_rate;
 473:drivers/inv_mpu_dmp_motion_driver.c ****     unsigned char packet_length;
 474:drivers/inv_mpu_dmp_motion_driver.c **** };
 475:drivers/inv_mpu_dmp_motion_driver.c **** 
 476:drivers/inv_mpu_dmp_motion_driver.c **** //static struct dmp_s dmp = {
 477:drivers/inv_mpu_dmp_motion_driver.c **** //    .tap_cb = NULL,
 478:drivers/inv_mpu_dmp_motion_driver.c **** //    .android_orient_cb = NULL,
 479:drivers/inv_mpu_dmp_motion_driver.c **** //    .orient = 0,
 480:drivers/inv_mpu_dmp_motion_driver.c **** //    .feature_mask = 0,
 481:drivers/inv_mpu_dmp_motion_driver.c **** //    .fifo_rate = 0,
 482:drivers/inv_mpu_dmp_motion_driver.c **** //    .packet_length = 0
 483:drivers/inv_mpu_dmp_motion_driver.c **** //};
 484:drivers/inv_mpu_dmp_motion_driver.c **** static struct dmp_s dmp={
 485:drivers/inv_mpu_dmp_motion_driver.c ****   0,
 486:drivers/inv_mpu_dmp_motion_driver.c ****   0,
 487:drivers/inv_mpu_dmp_motion_driver.c ****   0,
 488:drivers/inv_mpu_dmp_motion_driver.c ****   0,
 489:drivers/inv_mpu_dmp_motion_driver.c ****   0,
ARM GAS  /tmp/ccBPBbjw.s 			page 10


 490:drivers/inv_mpu_dmp_motion_driver.c ****   0
 491:drivers/inv_mpu_dmp_motion_driver.c **** };
 492:drivers/inv_mpu_dmp_motion_driver.c **** /**
 493:drivers/inv_mpu_dmp_motion_driver.c ****  *  @brief  Load the DMP with this image.
 494:drivers/inv_mpu_dmp_motion_driver.c ****  *  @return 0 if successful.
 495:drivers/inv_mpu_dmp_motion_driver.c ****  */
 496:drivers/inv_mpu_dmp_motion_driver.c **** int dmp_load_motion_driver_firmware(void)
 497:drivers/inv_mpu_dmp_motion_driver.c **** {
  25              		.loc 1 497 0
  26              		.cfi_startproc
  27              		@ args = 0, pretend = 0, frame = 0
  28              		@ frame_needed = 0, uses_anonymous_args = 0
  29 0000 08B5     		push	{r3, lr}
  30              		.cfi_def_cfa_offset 8
  31              		.cfi_offset 3, -8
  32              		.cfi_offset 14, -4
 498:drivers/inv_mpu_dmp_motion_driver.c ****     return mpu_load_firmware(DMP_CODE_SIZE, dmp_memory, sStartAddress,
  33              		.loc 1 498 0
  34 0002 C823     		movs	r3, #200
  35 0004 4FF48062 		mov	r2, #1024
  36 0008 0249     		ldr	r1, .L3
  37 000a 40F6F630 		movw	r0, #3062
  38 000e FFF7FEFF 		bl	mpu_load_firmware
  39              	.LVL0:
 499:drivers/inv_mpu_dmp_motion_driver.c ****         DMP_SAMPLE_RATE);
 500:drivers/inv_mpu_dmp_motion_driver.c **** }
  40              		.loc 1 500 0
  41 0012 08BD     		pop	{r3, pc}
  42              	.L4:
  43              		.align	2
  44              	.L3:
  45 0014 00000000 		.word	.LANCHOR0
  46              		.cfi_endproc
  47              	.LFE64:
  48              		.size	dmp_load_motion_driver_firmware, .-dmp_load_motion_driver_firmware
  49              		.align	1
  50              		.global	dmp_set_orientation
  51              		.syntax unified
  52              		.thumb
  53              		.thumb_func
  54              		.fpu softvfp
  55              		.type	dmp_set_orientation, %function
  56              	dmp_set_orientation:
  57              	.LFB65:
 501:drivers/inv_mpu_dmp_motion_driver.c **** 
 502:drivers/inv_mpu_dmp_motion_driver.c **** /**
 503:drivers/inv_mpu_dmp_motion_driver.c ****  *  @brief      Push gyro and accel orientation to the DMP.
 504:drivers/inv_mpu_dmp_motion_driver.c ****  *  The orientation is represented here as the output of
 505:drivers/inv_mpu_dmp_motion_driver.c ****  *  @e inv_orientation_matrix_to_scalar.
 506:drivers/inv_mpu_dmp_motion_driver.c ****  *  @param[in]  orient  Gyro and accel orientation in body frame.
 507:drivers/inv_mpu_dmp_motion_driver.c ****  *  @return     0 if successful.
 508:drivers/inv_mpu_dmp_motion_driver.c ****  */
 509:drivers/inv_mpu_dmp_motion_driver.c **** int dmp_set_orientation(unsigned short orient)
 510:drivers/inv_mpu_dmp_motion_driver.c **** {
  58              		.loc 1 510 0
  59              		.cfi_startproc
  60              		@ args = 0, pretend = 0, frame = 16
ARM GAS  /tmp/ccBPBbjw.s 			page 11


  61              		@ frame_needed = 0, uses_anonymous_args = 0
  62              	.LVL1:
  63 0018 10B5     		push	{r4, lr}
  64              		.cfi_def_cfa_offset 8
  65              		.cfi_offset 4, -8
  66              		.cfi_offset 14, -4
  67 001a 84B0     		sub	sp, sp, #16
  68              		.cfi_def_cfa_offset 24
  69 001c 0446     		mov	r4, r0
 511:drivers/inv_mpu_dmp_motion_driver.c ****     unsigned char gyro_regs[3], accel_regs[3];
 512:drivers/inv_mpu_dmp_motion_driver.c ****     const unsigned char gyro_axes[3] = {DINA4C, DINACD, DINA6C};
  70              		.loc 1 512 0
  71 001e 4C23     		movs	r3, #76
  72 0020 8DF80430 		strb	r3, [sp, #4]
  73 0024 CD23     		movs	r3, #205
  74 0026 8DF80530 		strb	r3, [sp, #5]
  75 002a 6C23     		movs	r3, #108
  76 002c 8DF80630 		strb	r3, [sp, #6]
 513:drivers/inv_mpu_dmp_motion_driver.c ****     const unsigned char accel_axes[3] = {DINA0C, DINAC9, DINA2C};
  77              		.loc 1 513 0
  78 0030 0C23     		movs	r3, #12
  79 0032 8DF80030 		strb	r3, [sp]
  80 0036 C923     		movs	r3, #201
  81 0038 8DF80130 		strb	r3, [sp, #1]
  82 003c 2C23     		movs	r3, #44
  83 003e 8DF80230 		strb	r3, [sp, #2]
  84              	.LVL2:
 514:drivers/inv_mpu_dmp_motion_driver.c ****     const unsigned char gyro_sign[3] = {DINA36, DINA56, DINA76};
 515:drivers/inv_mpu_dmp_motion_driver.c ****     const unsigned char accel_sign[3] = {DINA26, DINA46, DINA66};
 516:drivers/inv_mpu_dmp_motion_driver.c **** 
 517:drivers/inv_mpu_dmp_motion_driver.c ****     gyro_regs[0] = gyro_axes[orient & 3];
  85              		.loc 1 517 0
  86 0042 00F00301 		and	r1, r0, #3
  87 0046 04AB     		add	r3, sp, #16
  88 0048 1944     		add	r1, r1, r3
  89 004a 11F80C3C 		ldrb	r3, [r1, #-12]	@ zero_extendqisi2
  90 004e 8DF80C30 		strb	r3, [sp, #12]
 518:drivers/inv_mpu_dmp_motion_driver.c ****     gyro_regs[1] = gyro_axes[(orient >> 3) & 3];
  91              		.loc 1 518 0
  92 0052 C0F3C102 		ubfx	r2, r0, #3, #2
  93 0056 04AB     		add	r3, sp, #16
  94 0058 1A44     		add	r2, r2, r3
  95 005a 12F80C3C 		ldrb	r3, [r2, #-12]	@ zero_extendqisi2
  96 005e 8DF80D30 		strb	r3, [sp, #13]
 519:drivers/inv_mpu_dmp_motion_driver.c ****     gyro_regs[2] = gyro_axes[(orient >> 6) & 3];
  97              		.loc 1 519 0
  98 0062 C0F38113 		ubfx	r3, r0, #6, #2
  99 0066 04A8     		add	r0, sp, #16
 100              	.LVL3:
 101 0068 0344     		add	r3, r3, r0
 102 006a 13F80C0C 		ldrb	r0, [r3, #-12]	@ zero_extendqisi2
 103 006e 8DF80E00 		strb	r0, [sp, #14]
 520:drivers/inv_mpu_dmp_motion_driver.c ****     accel_regs[0] = accel_axes[orient & 3];
 104              		.loc 1 520 0
 105 0072 11F8101C 		ldrb	r1, [r1, #-16]	@ zero_extendqisi2
 106 0076 8DF80810 		strb	r1, [sp, #8]
 521:drivers/inv_mpu_dmp_motion_driver.c ****     accel_regs[1] = accel_axes[(orient >> 3) & 3];
ARM GAS  /tmp/ccBPBbjw.s 			page 12


 107              		.loc 1 521 0
 108 007a 12F8102C 		ldrb	r2, [r2, #-16]	@ zero_extendqisi2
 109 007e 8DF80920 		strb	r2, [sp, #9]
 522:drivers/inv_mpu_dmp_motion_driver.c ****     accel_regs[2] = accel_axes[(orient >> 6) & 3];
 110              		.loc 1 522 0
 111 0082 13F8103C 		ldrb	r3, [r3, #-16]	@ zero_extendqisi2
 112 0086 8DF80A30 		strb	r3, [sp, #10]
 523:drivers/inv_mpu_dmp_motion_driver.c **** 
 524:drivers/inv_mpu_dmp_motion_driver.c ****     /* Chip-to-body, axes only. */
 525:drivers/inv_mpu_dmp_motion_driver.c ****     if (mpu_write_mem(FCFG_1, 3, gyro_regs))
 113              		.loc 1 525 0
 114 008a 03AA     		add	r2, sp, #12
 115 008c 0321     		movs	r1, #3
 116 008e 40F22640 		movw	r0, #1062
 117 0092 FFF7FEFF 		bl	mpu_write_mem
 118              	.LVL4:
 119 0096 0028     		cmp	r0, #0
 120 0098 48D1     		bne	.L10
 526:drivers/inv_mpu_dmp_motion_driver.c ****         return -1;
 527:drivers/inv_mpu_dmp_motion_driver.c ****     if (mpu_write_mem(FCFG_2, 3, accel_regs))
 121              		.loc 1 527 0
 122 009a 02AA     		add	r2, sp, #8
 123 009c 0321     		movs	r1, #3
 124 009e 40F22A40 		movw	r0, #1066
 125 00a2 FFF7FEFF 		bl	mpu_write_mem
 126              	.LVL5:
 127 00a6 0028     		cmp	r0, #0
 128 00a8 43D1     		bne	.L11
 528:drivers/inv_mpu_dmp_motion_driver.c ****         return -1;
 529:drivers/inv_mpu_dmp_motion_driver.c **** 
 530:drivers/inv_mpu_dmp_motion_driver.c ****     memcpy(gyro_regs, gyro_sign, 3);
 129              		.loc 1 530 0
 130 00aa 3623     		movs	r3, #54
 131 00ac 8DF80C30 		strb	r3, [sp, #12]
 132 00b0 5623     		movs	r3, #86
 133 00b2 8DF80D30 		strb	r3, [sp, #13]
 134 00b6 7623     		movs	r3, #118
 135 00b8 8DF80E30 		strb	r3, [sp, #14]
 531:drivers/inv_mpu_dmp_motion_driver.c ****     memcpy(accel_regs, accel_sign, 3);
 136              		.loc 1 531 0
 137 00bc 2623     		movs	r3, #38
 138 00be 8DF80830 		strb	r3, [sp, #8]
 139 00c2 4623     		movs	r3, #70
 140 00c4 8DF80930 		strb	r3, [sp, #9]
 141 00c8 6623     		movs	r3, #102
 142 00ca 8DF80A30 		strb	r3, [sp, #10]
 532:drivers/inv_mpu_dmp_motion_driver.c ****     if (orient & 4) {
 143              		.loc 1 532 0
 144 00ce 14F0040F 		tst	r4, #4
 145 00d2 05D0     		beq	.L7
 533:drivers/inv_mpu_dmp_motion_driver.c ****         gyro_regs[0] |= 1;
 146              		.loc 1 533 0
 147 00d4 3723     		movs	r3, #55
 148 00d6 8DF80C30 		strb	r3, [sp, #12]
 534:drivers/inv_mpu_dmp_motion_driver.c ****         accel_regs[0] |= 1;
 149              		.loc 1 534 0
 150 00da 2723     		movs	r3, #39
ARM GAS  /tmp/ccBPBbjw.s 			page 13


 151 00dc 8DF80830 		strb	r3, [sp, #8]
 152              	.L7:
 535:drivers/inv_mpu_dmp_motion_driver.c ****     }
 536:drivers/inv_mpu_dmp_motion_driver.c ****     if (orient & 0x20) {
 153              		.loc 1 536 0
 154 00e0 14F0200F 		tst	r4, #32
 155 00e4 05D0     		beq	.L8
 537:drivers/inv_mpu_dmp_motion_driver.c ****         gyro_regs[1] |= 1;
 156              		.loc 1 537 0
 157 00e6 5723     		movs	r3, #87
 158 00e8 8DF80D30 		strb	r3, [sp, #13]
 538:drivers/inv_mpu_dmp_motion_driver.c ****         accel_regs[1] |= 1;
 159              		.loc 1 538 0
 160 00ec 4723     		movs	r3, #71
 161 00ee 8DF80930 		strb	r3, [sp, #9]
 162              	.L8:
 539:drivers/inv_mpu_dmp_motion_driver.c ****     }
 540:drivers/inv_mpu_dmp_motion_driver.c ****     if (orient & 0x100) {
 163              		.loc 1 540 0
 164 00f2 14F4807F 		tst	r4, #256
 165 00f6 05D0     		beq	.L9
 541:drivers/inv_mpu_dmp_motion_driver.c ****         gyro_regs[2] |= 1;
 166              		.loc 1 541 0
 167 00f8 7723     		movs	r3, #119
 168 00fa 8DF80E30 		strb	r3, [sp, #14]
 542:drivers/inv_mpu_dmp_motion_driver.c ****         accel_regs[2] |= 1;
 169              		.loc 1 542 0
 170 00fe 6723     		movs	r3, #103
 171 0100 8DF80A30 		strb	r3, [sp, #10]
 172              	.L9:
 543:drivers/inv_mpu_dmp_motion_driver.c ****     }
 544:drivers/inv_mpu_dmp_motion_driver.c **** 
 545:drivers/inv_mpu_dmp_motion_driver.c ****     /* Chip-to-body, sign only. */
 546:drivers/inv_mpu_dmp_motion_driver.c ****     if (mpu_write_mem(FCFG_3, 3, gyro_regs))
 173              		.loc 1 546 0
 174 0104 03AA     		add	r2, sp, #12
 175 0106 0321     		movs	r1, #3
 176 0108 4FF48860 		mov	r0, #1088
 177 010c FFF7FEFF 		bl	mpu_write_mem
 178              	.LVL6:
 179 0110 90B9     		cbnz	r0, .L12
 547:drivers/inv_mpu_dmp_motion_driver.c ****         return -1;
 548:drivers/inv_mpu_dmp_motion_driver.c ****     if (mpu_write_mem(FCFG_7, 3, accel_regs))
 180              		.loc 1 548 0
 181 0112 02AA     		add	r2, sp, #8
 182 0114 0321     		movs	r1, #3
 183 0116 40F23140 		movw	r0, #1073
 184 011a FFF7FEFF 		bl	mpu_write_mem
 185              	.LVL7:
 186 011e 0346     		mov	r3, r0
 187 0120 68B9     		cbnz	r0, .L13
 549:drivers/inv_mpu_dmp_motion_driver.c ****         return -1;
 550:drivers/inv_mpu_dmp_motion_driver.c ****     dmp.orient = orient;
 188              		.loc 1 550 0
 189 0122 084A     		ldr	r2, .L15
 190 0124 1481     		strh	r4, [r2, #8]	@ movhi
 191              	.LVL8:
ARM GAS  /tmp/ccBPBbjw.s 			page 14


 192              	.L5:
 551:drivers/inv_mpu_dmp_motion_driver.c ****     return 0;
 552:drivers/inv_mpu_dmp_motion_driver.c **** }
 193              		.loc 1 552 0
 194 0126 1846     		mov	r0, r3
 195 0128 04B0     		add	sp, sp, #16
 196              		.cfi_remember_state
 197              		.cfi_def_cfa_offset 8
 198              		@ sp needed
 199 012a 10BD     		pop	{r4, pc}
 200              	.LVL9:
 201              	.L10:
 202              		.cfi_restore_state
 526:drivers/inv_mpu_dmp_motion_driver.c ****     if (mpu_write_mem(FCFG_2, 3, accel_regs))
 203              		.loc 1 526 0
 204 012c 4FF0FF33 		mov	r3, #-1
 205 0130 F9E7     		b	.L5
 206              	.L11:
 528:drivers/inv_mpu_dmp_motion_driver.c **** 
 207              		.loc 1 528 0
 208 0132 4FF0FF33 		mov	r3, #-1
 209 0136 F6E7     		b	.L5
 210              	.L12:
 547:drivers/inv_mpu_dmp_motion_driver.c ****     if (mpu_write_mem(FCFG_7, 3, accel_regs))
 211              		.loc 1 547 0
 212 0138 4FF0FF33 		mov	r3, #-1
 213 013c F3E7     		b	.L5
 214              	.L13:
 549:drivers/inv_mpu_dmp_motion_driver.c ****     dmp.orient = orient;
 215              		.loc 1 549 0
 216 013e 4FF0FF33 		mov	r3, #-1
 217              	.LVL10:
 218 0142 F0E7     		b	.L5
 219              	.L16:
 220              		.align	2
 221              	.L15:
 222 0144 00000000 		.word	.LANCHOR1
 223              		.cfi_endproc
 224              	.LFE65:
 225              		.size	dmp_set_orientation, .-dmp_set_orientation
 226              		.align	1
 227              		.global	dmp_set_gyro_bias
 228              		.syntax unified
 229              		.thumb
 230              		.thumb_func
 231              		.fpu softvfp
 232              		.type	dmp_set_gyro_bias, %function
 233              	dmp_set_gyro_bias:
 234              	.LFB66:
 553:drivers/inv_mpu_dmp_motion_driver.c **** 
 554:drivers/inv_mpu_dmp_motion_driver.c **** /**
 555:drivers/inv_mpu_dmp_motion_driver.c ****  *  @brief      Push gyro biases to the DMP.
 556:drivers/inv_mpu_dmp_motion_driver.c ****  *  Because the gyro integration is handled in the DMP, any gyro biases
 557:drivers/inv_mpu_dmp_motion_driver.c ****  *  calculated by the MPL should be pushed down to DMP memory to remove
 558:drivers/inv_mpu_dmp_motion_driver.c ****  *  3-axis quaternion drift.
 559:drivers/inv_mpu_dmp_motion_driver.c ****  *  \n NOTE: If the DMP-based gyro calibration is enabled, the DMP will
 560:drivers/inv_mpu_dmp_motion_driver.c ****  *  overwrite the biases written to this location once a new one is computed.
ARM GAS  /tmp/ccBPBbjw.s 			page 15


 561:drivers/inv_mpu_dmp_motion_driver.c ****  *  @param[in]  bias    Gyro biases in q16.
 562:drivers/inv_mpu_dmp_motion_driver.c ****  *  @return     0 if successful.
 563:drivers/inv_mpu_dmp_motion_driver.c ****  */
 564:drivers/inv_mpu_dmp_motion_driver.c **** int dmp_set_gyro_bias(long *bias)
 565:drivers/inv_mpu_dmp_motion_driver.c **** {
 235              		.loc 1 565 0
 236              		.cfi_startproc
 237              		@ args = 0, pretend = 0, frame = 8
 238              		@ frame_needed = 0, uses_anonymous_args = 0
 239              	.LVL11:
 240 0148 F0B5     		push	{r4, r5, r6, r7, lr}
 241              		.cfi_def_cfa_offset 20
 242              		.cfi_offset 4, -20
 243              		.cfi_offset 5, -16
 244              		.cfi_offset 6, -12
 245              		.cfi_offset 7, -8
 246              		.cfi_offset 14, -4
 247 014a 83B0     		sub	sp, sp, #12
 248              		.cfi_def_cfa_offset 32
 566:drivers/inv_mpu_dmp_motion_driver.c ****     long gyro_bias_body[3];
 567:drivers/inv_mpu_dmp_motion_driver.c ****     unsigned char regs[4];
 568:drivers/inv_mpu_dmp_motion_driver.c **** 
 569:drivers/inv_mpu_dmp_motion_driver.c ****     gyro_bias_body[0] = bias[dmp.orient & 3];
 249              		.loc 1 569 0
 250 014c 374B     		ldr	r3, .L25
 251 014e 1C89     		ldrh	r4, [r3, #8]
 252 0150 04F00303 		and	r3, r4, #3
 253 0154 50F82310 		ldr	r1, [r0, r3, lsl #2]
 254              	.LVL12:
 570:drivers/inv_mpu_dmp_motion_driver.c ****     if (dmp.orient & 4)
 255              		.loc 1 570 0
 256 0158 14F0040F 		tst	r4, #4
 571:drivers/inv_mpu_dmp_motion_driver.c ****         gyro_bias_body[0] *= -1;
 257              		.loc 1 571 0
 258 015c 18BF     		it	ne
 259 015e 4942     		rsbne	r1, r1, #0
 260              	.LVL13:
 572:drivers/inv_mpu_dmp_motion_driver.c ****     gyro_bias_body[1] = bias[(dmp.orient >> 3) & 3];
 261              		.loc 1 572 0
 262 0160 C4F3C103 		ubfx	r3, r4, #3, #2
 263 0164 50F82330 		ldr	r3, [r0, r3, lsl #2]
 264              	.LVL14:
 573:drivers/inv_mpu_dmp_motion_driver.c ****     if (dmp.orient & 0x20)
 265              		.loc 1 573 0
 266 0168 14F0200F 		tst	r4, #32
 574:drivers/inv_mpu_dmp_motion_driver.c ****         gyro_bias_body[1] *= -1;
 267              		.loc 1 574 0
 268 016c 18BF     		it	ne
 269 016e 5B42     		rsbne	r3, r3, #0
 270              	.LVL15:
 575:drivers/inv_mpu_dmp_motion_driver.c ****     gyro_bias_body[2] = bias[(dmp.orient >> 6) & 3];
 271              		.loc 1 575 0
 272 0170 C4F38112 		ubfx	r2, r4, #6, #2
 273 0174 50F82220 		ldr	r2, [r0, r2, lsl #2]
 274              	.LVL16:
 576:drivers/inv_mpu_dmp_motion_driver.c ****     if (dmp.orient & 0x100)
 275              		.loc 1 576 0
ARM GAS  /tmp/ccBPBbjw.s 			page 16


 276 0178 14F4807F 		tst	r4, #256
 577:drivers/inv_mpu_dmp_motion_driver.c ****         gyro_bias_body[2] *= -1;
 277              		.loc 1 577 0
 278 017c 18BF     		it	ne
 279 017e 5242     		rsbne	r2, r2, #0
 280              	.LVL17:
 578:drivers/inv_mpu_dmp_motion_driver.c **** 
 579:drivers/inv_mpu_dmp_motion_driver.c **** #ifdef EMPL_NO_64BIT
 580:drivers/inv_mpu_dmp_motion_driver.c ****     gyro_bias_body[0] = (long)(((float)gyro_bias_body[0] * GYRO_SF) / 1073741824.f);
 581:drivers/inv_mpu_dmp_motion_driver.c ****     gyro_bias_body[1] = (long)(((float)gyro_bias_body[1] * GYRO_SF) / 1073741824.f);
 582:drivers/inv_mpu_dmp_motion_driver.c ****     gyro_bias_body[2] = (long)(((float)gyro_bias_body[2] * GYRO_SF) / 1073741824.f);
 583:drivers/inv_mpu_dmp_motion_driver.c **** #else
 584:drivers/inv_mpu_dmp_motion_driver.c ****     gyro_bias_body[0] = (long)(((long long)gyro_bias_body[0] * GYRO_SF) >> 30);
 281              		.loc 1 584 0
 282 0180 CF17     		asrs	r7, r1, #31
 283 0182 2B4D     		ldr	r5, .L25+4
 284 0184 A1FB0501 		umull	r0, r1, r1, r5
 285              	.LVL18:
 286 0188 05FB0711 		mla	r1, r5, r7, r1
 287              	.LVL19:
 288 018c 840F     		lsrs	r4, r0, #30
 289              	.LVL20:
 290 018e 44EA8104 		orr	r4, r4, r1, lsl #2
 291              	.LVL21:
 585:drivers/inv_mpu_dmp_motion_driver.c ****     gyro_bias_body[1] = (long)(((long long)gyro_bias_body[1] * GYRO_SF) >> 30);
 292              		.loc 1 585 0
 293 0192 DF17     		asrs	r7, r3, #31
 294 0194 A3FB0501 		umull	r0, r1, r3, r5
 295 0198 05FB0711 		mla	r1, r5, r7, r1
 296 019c 860F     		lsrs	r6, r0, #30
 297 019e 46EA8106 		orr	r6, r6, r1, lsl #2
 298              	.LVL22:
 586:drivers/inv_mpu_dmp_motion_driver.c ****     gyro_bias_body[2] = (long)(((long long)gyro_bias_body[2] * GYRO_SF) >> 30);
 299              		.loc 1 586 0
 300 01a2 D117     		asrs	r1, r2, #31
 301 01a4 A2FB0523 		umull	r2, r3, r2, r5
 302              	.LVL23:
 303 01a8 05FB0133 		mla	r3, r5, r1, r3
 304 01ac 970F     		lsrs	r7, r2, #30
 305 01ae 47EA8307 		orr	r7, r7, r3, lsl #2
 306              	.LVL24:
 587:drivers/inv_mpu_dmp_motion_driver.c **** #endif
 588:drivers/inv_mpu_dmp_motion_driver.c **** 
 589:drivers/inv_mpu_dmp_motion_driver.c ****     regs[0] = (unsigned char)((gyro_bias_body[0] >> 24) & 0xFF);
 307              		.loc 1 589 0
 308 01b2 2316     		asrs	r3, r4, #24
 309 01b4 8DF80430 		strb	r3, [sp, #4]
 590:drivers/inv_mpu_dmp_motion_driver.c ****     regs[1] = (unsigned char)((gyro_bias_body[0] >> 16) & 0xFF);
 310              		.loc 1 590 0
 311 01b8 2314     		asrs	r3, r4, #16
 312 01ba 8DF80530 		strb	r3, [sp, #5]
 591:drivers/inv_mpu_dmp_motion_driver.c ****     regs[2] = (unsigned char)((gyro_bias_body[0] >> 8) & 0xFF);
 313              		.loc 1 591 0
 314 01be 2312     		asrs	r3, r4, #8
 315 01c0 8DF80630 		strb	r3, [sp, #6]
 592:drivers/inv_mpu_dmp_motion_driver.c ****     regs[3] = (unsigned char)(gyro_bias_body[0] & 0xFF);
 316              		.loc 1 592 0
ARM GAS  /tmp/ccBPBbjw.s 			page 17


 317 01c4 8DF80740 		strb	r4, [sp, #7]
 593:drivers/inv_mpu_dmp_motion_driver.c ****     if (mpu_write_mem(D_EXT_GYRO_BIAS_X, 4, regs))
 318              		.loc 1 593 0
 319 01c8 01AA     		add	r2, sp, #4
 320 01ca 0421     		movs	r1, #4
 321 01cc 4FF47470 		mov	r0, #976
 322 01d0 FFF7FEFF 		bl	mpu_write_mem
 323              	.LVL25:
 324 01d4 20BB     		cbnz	r0, .L22
 594:drivers/inv_mpu_dmp_motion_driver.c ****         return -1;
 595:drivers/inv_mpu_dmp_motion_driver.c **** 
 596:drivers/inv_mpu_dmp_motion_driver.c ****     regs[0] = (unsigned char)((gyro_bias_body[1] >> 24) & 0xFF);
 325              		.loc 1 596 0
 326 01d6 3316     		asrs	r3, r6, #24
 327 01d8 8DF80430 		strb	r3, [sp, #4]
 597:drivers/inv_mpu_dmp_motion_driver.c ****     regs[1] = (unsigned char)((gyro_bias_body[1] >> 16) & 0xFF);
 328              		.loc 1 597 0
 329 01dc 3314     		asrs	r3, r6, #16
 330 01de 8DF80530 		strb	r3, [sp, #5]
 598:drivers/inv_mpu_dmp_motion_driver.c ****     regs[2] = (unsigned char)((gyro_bias_body[1] >> 8) & 0xFF);
 331              		.loc 1 598 0
 332 01e2 3312     		asrs	r3, r6, #8
 333 01e4 8DF80630 		strb	r3, [sp, #6]
 599:drivers/inv_mpu_dmp_motion_driver.c ****     regs[3] = (unsigned char)(gyro_bias_body[1] & 0xFF);
 334              		.loc 1 599 0
 335 01e8 8DF80760 		strb	r6, [sp, #7]
 600:drivers/inv_mpu_dmp_motion_driver.c ****     if (mpu_write_mem(D_EXT_GYRO_BIAS_Y, 4, regs))
 336              		.loc 1 600 0
 337 01ec 01AA     		add	r2, sp, #4
 338 01ee 0421     		movs	r1, #4
 339 01f0 4FF47570 		mov	r0, #980
 340 01f4 FFF7FEFF 		bl	mpu_write_mem
 341              	.LVL26:
 342 01f8 A8B9     		cbnz	r0, .L23
 601:drivers/inv_mpu_dmp_motion_driver.c ****         return -1;
 602:drivers/inv_mpu_dmp_motion_driver.c **** 
 603:drivers/inv_mpu_dmp_motion_driver.c ****     regs[0] = (unsigned char)((gyro_bias_body[2] >> 24) & 0xFF);
 343              		.loc 1 603 0
 344 01fa 3B16     		asrs	r3, r7, #24
 345 01fc 8DF80430 		strb	r3, [sp, #4]
 604:drivers/inv_mpu_dmp_motion_driver.c ****     regs[1] = (unsigned char)((gyro_bias_body[2] >> 16) & 0xFF);
 346              		.loc 1 604 0
 347 0200 3B14     		asrs	r3, r7, #16
 348 0202 8DF80530 		strb	r3, [sp, #5]
 605:drivers/inv_mpu_dmp_motion_driver.c ****     regs[2] = (unsigned char)((gyro_bias_body[2] >> 8) & 0xFF);
 349              		.loc 1 605 0
 350 0206 3D12     		asrs	r5, r7, #8
 351 0208 8DF80650 		strb	r5, [sp, #6]
 606:drivers/inv_mpu_dmp_motion_driver.c ****     regs[3] = (unsigned char)(gyro_bias_body[2] & 0xFF);
 352              		.loc 1 606 0
 353 020c 8DF80770 		strb	r7, [sp, #7]
 607:drivers/inv_mpu_dmp_motion_driver.c ****     return mpu_write_mem(D_EXT_GYRO_BIAS_Z, 4, regs);
 354              		.loc 1 607 0
 355 0210 01AA     		add	r2, sp, #4
 356 0212 0421     		movs	r1, #4
 357 0214 4FF47670 		mov	r0, #984
 358 0218 FFF7FEFF 		bl	mpu_write_mem
ARM GAS  /tmp/ccBPBbjw.s 			page 18


 359              	.LVL27:
 360              	.L17:
 608:drivers/inv_mpu_dmp_motion_driver.c **** }
 361              		.loc 1 608 0
 362 021c 03B0     		add	sp, sp, #12
 363              		.cfi_remember_state
 364              		.cfi_def_cfa_offset 20
 365              		@ sp needed
 366 021e F0BD     		pop	{r4, r5, r6, r7, pc}
 367              	.LVL28:
 368              	.L22:
 369              		.cfi_restore_state
 594:drivers/inv_mpu_dmp_motion_driver.c **** 
 370              		.loc 1 594 0
 371 0220 4FF0FF30 		mov	r0, #-1
 372 0224 FAE7     		b	.L17
 373              	.L23:
 601:drivers/inv_mpu_dmp_motion_driver.c **** 
 374              		.loc 1 601 0
 375 0226 4FF0FF30 		mov	r0, #-1
 376 022a F7E7     		b	.L17
 377              	.L26:
 378              		.align	2
 379              	.L25:
 380 022c 00000000 		.word	.LANCHOR1
 381 0230 09E3CA02 		.word	46850825
 382              		.cfi_endproc
 383              	.LFE66:
 384              		.size	dmp_set_gyro_bias, .-dmp_set_gyro_bias
 385              		.align	1
 386              		.global	dmp_set_accel_bias
 387              		.syntax unified
 388              		.thumb
 389              		.thumb_func
 390              		.fpu softvfp
 391              		.type	dmp_set_accel_bias, %function
 392              	dmp_set_accel_bias:
 393              	.LFB67:
 609:drivers/inv_mpu_dmp_motion_driver.c **** 
 610:drivers/inv_mpu_dmp_motion_driver.c **** /**
 611:drivers/inv_mpu_dmp_motion_driver.c ****  *  @brief      Push accel biases to the DMP.
 612:drivers/inv_mpu_dmp_motion_driver.c ****  *  These biases will be removed from the DMP 6-axis quaternion.
 613:drivers/inv_mpu_dmp_motion_driver.c ****  *  @param[in]  bias    Accel biases in q16.
 614:drivers/inv_mpu_dmp_motion_driver.c ****  *  @return     0 if successful.
 615:drivers/inv_mpu_dmp_motion_driver.c ****  */
 616:drivers/inv_mpu_dmp_motion_driver.c **** int dmp_set_accel_bias(long *bias)
 617:drivers/inv_mpu_dmp_motion_driver.c **** {
 394              		.loc 1 617 0
 395              		.cfi_startproc
 396              		@ args = 0, pretend = 0, frame = 16
 397              		@ frame_needed = 0, uses_anonymous_args = 0
 398              	.LVL29:
 399 0234 2DE97043 		push	{r4, r5, r6, r8, r9, lr}
 400              		.cfi_def_cfa_offset 24
 401              		.cfi_offset 4, -24
 402              		.cfi_offset 5, -20
 403              		.cfi_offset 6, -16
ARM GAS  /tmp/ccBPBbjw.s 			page 19


 404              		.cfi_offset 8, -12
 405              		.cfi_offset 9, -8
 406              		.cfi_offset 14, -4
 407 0238 84B0     		sub	sp, sp, #16
 408              		.cfi_def_cfa_offset 40
 409 023a 0546     		mov	r5, r0
 618:drivers/inv_mpu_dmp_motion_driver.c ****     long accel_bias_body[3];
 619:drivers/inv_mpu_dmp_motion_driver.c ****     unsigned char regs[12];
 620:drivers/inv_mpu_dmp_motion_driver.c ****     long long accel_sf;
 621:drivers/inv_mpu_dmp_motion_driver.c ****     unsigned short accel_sens;
 622:drivers/inv_mpu_dmp_motion_driver.c **** 
 623:drivers/inv_mpu_dmp_motion_driver.c ****     mpu_get_accel_sens(&accel_sens);
 410              		.loc 1 623 0
 411 023c 0DF10200 		add	r0, sp, #2
 412              	.LVL30:
 413 0240 FFF7FEFF 		bl	mpu_get_accel_sens
 414              	.LVL31:
 624:drivers/inv_mpu_dmp_motion_driver.c ****     accel_sf = (long long)accel_sens << 15;
 415              		.loc 1 624 0
 416 0244 BDF80220 		ldrh	r2, [sp, #2]
 417 0248 560C     		lsrs	r6, r2, #17
 418 024a D303     		lsls	r3, r2, #15
 419              	.LVL32:
 625:drivers/inv_mpu_dmp_motion_driver.c ****     //__no_operation();
 626:drivers/inv_mpu_dmp_motion_driver.c **** 
 627:drivers/inv_mpu_dmp_motion_driver.c ****     accel_bias_body[0] = bias[dmp.orient & 3];
 420              		.loc 1 627 0
 421 024c 334A     		ldr	r2, .L32
 422 024e 1189     		ldrh	r1, [r2, #8]
 423 0250 01F00302 		and	r2, r1, #3
 424 0254 55F82240 		ldr	r4, [r5, r2, lsl #2]
 425              	.LVL33:
 628:drivers/inv_mpu_dmp_motion_driver.c ****     if (dmp.orient & 4)
 426              		.loc 1 628 0
 427 0258 11F0040F 		tst	r1, #4
 629:drivers/inv_mpu_dmp_motion_driver.c ****         accel_bias_body[0] *= -1;
 428              		.loc 1 629 0
 429 025c 18BF     		it	ne
 430 025e 6442     		rsbne	r4, r4, #0
 431              	.LVL34:
 630:drivers/inv_mpu_dmp_motion_driver.c ****     accel_bias_body[1] = bias[(dmp.orient >> 3) & 3];
 432              		.loc 1 630 0
 433 0260 C1F3C102 		ubfx	r2, r1, #3, #2
 434 0264 55F82200 		ldr	r0, [r5, r2, lsl #2]
 435              	.LVL35:
 631:drivers/inv_mpu_dmp_motion_driver.c ****     if (dmp.orient & 0x20)
 436              		.loc 1 631 0
 437 0268 11F0200F 		tst	r1, #32
 632:drivers/inv_mpu_dmp_motion_driver.c ****         accel_bias_body[1] *= -1;
 438              		.loc 1 632 0
 439 026c 18BF     		it	ne
 440 026e 4042     		rsbne	r0, r0, #0
 441              	.LVL36:
 633:drivers/inv_mpu_dmp_motion_driver.c ****     accel_bias_body[2] = bias[(dmp.orient >> 6) & 3];
 442              		.loc 1 633 0
 443 0270 C1F38112 		ubfx	r2, r1, #6, #2
 444 0274 55F82220 		ldr	r2, [r5, r2, lsl #2]
ARM GAS  /tmp/ccBPBbjw.s 			page 20


 445              	.LVL37:
 634:drivers/inv_mpu_dmp_motion_driver.c ****     if (dmp.orient & 0x100)
 446              		.loc 1 634 0
 447 0278 11F4807F 		tst	r1, #256
 635:drivers/inv_mpu_dmp_motion_driver.c ****         accel_bias_body[2] *= -1;
 448              		.loc 1 635 0
 449 027c 18BF     		it	ne
 450 027e 5242     		rsbne	r2, r2, #0
 451              	.LVL38:
 636:drivers/inv_mpu_dmp_motion_driver.c **** 
 637:drivers/inv_mpu_dmp_motion_driver.c **** #ifdef EMPL_NO_64BIT
 638:drivers/inv_mpu_dmp_motion_driver.c ****     accel_bias_body[0] = (long)(((float)accel_bias_body[0] * accel_sf) / 1073741824.f);
 639:drivers/inv_mpu_dmp_motion_driver.c ****     accel_bias_body[1] = (long)(((float)accel_bias_body[1] * accel_sf) / 1073741824.f);
 640:drivers/inv_mpu_dmp_motion_driver.c ****     accel_bias_body[2] = (long)(((float)accel_bias_body[2] * accel_sf) / 1073741824.f);
 641:drivers/inv_mpu_dmp_motion_driver.c **** #else
 642:drivers/inv_mpu_dmp_motion_driver.c ****     accel_bias_body[0] = (long)(((long long)accel_bias_body[0] * accel_sf) >> 30);
 452              		.loc 1 642 0
 453 0280 4FEAE479 		asr	r9, r4, #31
 454 0284 04FB06F1 		mul	r1, r4, r6
 455 0288 03FB0911 		mla	r1, r3, r9, r1
 456 028c A4FB0345 		umull	r4, r5, r4, r3
 457              	.LVL39:
 458 0290 0D44     		add	r5, r5, r1
 459              	.LVL40:
 460 0292 A40F     		lsrs	r4, r4, #30
 461 0294 44EA8504 		orr	r4, r4, r5, lsl #2
 462              	.LVL41:
 643:drivers/inv_mpu_dmp_motion_driver.c ****     accel_bias_body[1] = (long)(((long long)accel_bias_body[1] * accel_sf) >> 30);
 463              		.loc 1 643 0
 464 0298 4FEAE079 		asr	r9, r0, #31
 465 029c 00FB06F5 		mul	r5, r0, r6
 466 02a0 03FB0955 		mla	r5, r3, r9, r5
 467 02a4 A0FB0301 		umull	r0, r1, r0, r3
 468              	.LVL42:
 469 02a8 2944     		add	r1, r1, r5
 470 02aa 800F     		lsrs	r0, r0, #30
 471 02ac 40EA8100 		orr	r0, r0, r1, lsl #2
 472              	.LVL43:
 644:drivers/inv_mpu_dmp_motion_driver.c ****     accel_bias_body[2] = (long)(((long long)accel_bias_body[2] * accel_sf) >> 30);
 473              		.loc 1 644 0
 474 02b0 4FEAE279 		asr	r9, r2, #31
 475 02b4 02FB06F6 		mul	r6, r2, r6
 476              	.LVL44:
 477 02b8 03FB0966 		mla	r6, r3, r9, r6
 478 02bc A2FB0323 		umull	r2, r3, r2, r3
 479              	.LVL45:
 480 02c0 3344     		add	r3, r3, r6
 481              	.LVL46:
 482 02c2 920F     		lsrs	r2, r2, #30
 483 02c4 42EA8302 		orr	r2, r2, r3, lsl #2
 484              	.LVL47:
 645:drivers/inv_mpu_dmp_motion_driver.c **** #endif
 646:drivers/inv_mpu_dmp_motion_driver.c **** 
 647:drivers/inv_mpu_dmp_motion_driver.c ****     regs[0] = (unsigned char)((accel_bias_body[0] >> 24) & 0xFF);
 485              		.loc 1 647 0
 486 02c8 2316     		asrs	r3, r4, #24
 487 02ca 8DF80430 		strb	r3, [sp, #4]
ARM GAS  /tmp/ccBPBbjw.s 			page 21


 648:drivers/inv_mpu_dmp_motion_driver.c ****     regs[1] = (unsigned char)((accel_bias_body[0] >> 16) & 0xFF);
 488              		.loc 1 648 0
 489 02ce 2314     		asrs	r3, r4, #16
 490 02d0 8DF80530 		strb	r3, [sp, #5]
 649:drivers/inv_mpu_dmp_motion_driver.c ****     regs[2] = (unsigned char)((accel_bias_body[0] >> 8) & 0xFF);
 491              		.loc 1 649 0
 492 02d4 2312     		asrs	r3, r4, #8
 493 02d6 8DF80630 		strb	r3, [sp, #6]
 650:drivers/inv_mpu_dmp_motion_driver.c ****     regs[3] = (unsigned char)(accel_bias_body[0] & 0xFF);
 494              		.loc 1 650 0
 495 02da 8DF80740 		strb	r4, [sp, #7]
 651:drivers/inv_mpu_dmp_motion_driver.c ****     regs[4] = (unsigned char)((accel_bias_body[1] >> 24) & 0xFF);
 496              		.loc 1 651 0
 497 02de 0316     		asrs	r3, r0, #24
 498 02e0 8DF80830 		strb	r3, [sp, #8]
 652:drivers/inv_mpu_dmp_motion_driver.c ****     regs[5] = (unsigned char)((accel_bias_body[1] >> 16) & 0xFF);
 499              		.loc 1 652 0
 500 02e4 0314     		asrs	r3, r0, #16
 501 02e6 8DF80930 		strb	r3, [sp, #9]
 653:drivers/inv_mpu_dmp_motion_driver.c ****     regs[6] = (unsigned char)((accel_bias_body[1] >> 8) & 0xFF);
 502              		.loc 1 653 0
 503 02ea 0312     		asrs	r3, r0, #8
 504 02ec 8DF80A30 		strb	r3, [sp, #10]
 654:drivers/inv_mpu_dmp_motion_driver.c ****     regs[7] = (unsigned char)(accel_bias_body[1] & 0xFF);
 505              		.loc 1 654 0
 506 02f0 8DF80B00 		strb	r0, [sp, #11]
 655:drivers/inv_mpu_dmp_motion_driver.c ****     regs[8] = (unsigned char)((accel_bias_body[2] >> 24) & 0xFF);
 507              		.loc 1 655 0
 508 02f4 1316     		asrs	r3, r2, #24
 509 02f6 8DF80C30 		strb	r3, [sp, #12]
 656:drivers/inv_mpu_dmp_motion_driver.c ****     regs[9] = (unsigned char)((accel_bias_body[2] >> 16) & 0xFF);
 510              		.loc 1 656 0
 511 02fa 1314     		asrs	r3, r2, #16
 512 02fc 8DF80D30 		strb	r3, [sp, #13]
 657:drivers/inv_mpu_dmp_motion_driver.c ****     regs[10] = (unsigned char)((accel_bias_body[2] >> 8) & 0xFF);
 513              		.loc 1 657 0
 514 0300 1312     		asrs	r3, r2, #8
 515 0302 8DF80E30 		strb	r3, [sp, #14]
 658:drivers/inv_mpu_dmp_motion_driver.c ****     regs[11] = (unsigned char)(accel_bias_body[2] & 0xFF);
 516              		.loc 1 658 0
 517 0306 8DF80F20 		strb	r2, [sp, #15]
 659:drivers/inv_mpu_dmp_motion_driver.c ****     return mpu_write_mem(D_ACCEL_BIAS, 12, regs);
 518              		.loc 1 659 0
 519 030a 01AA     		add	r2, sp, #4
 520              	.LVL48:
 521 030c 0C21     		movs	r1, #12
 522 030e 4FF42570 		mov	r0, #660
 523              	.LVL49:
 524 0312 FFF7FEFF 		bl	mpu_write_mem
 525              	.LVL50:
 660:drivers/inv_mpu_dmp_motion_driver.c **** }
 526              		.loc 1 660 0
 527 0316 04B0     		add	sp, sp, #16
 528              		.cfi_def_cfa_offset 24
 529              		@ sp needed
 530 0318 BDE87083 		pop	{r4, r5, r6, r8, r9, pc}
 531              	.LVL51:
ARM GAS  /tmp/ccBPBbjw.s 			page 22


 532              	.L33:
 533              		.align	2
 534              	.L32:
 535 031c 00000000 		.word	.LANCHOR1
 536              		.cfi_endproc
 537              	.LFE67:
 538              		.size	dmp_set_accel_bias, .-dmp_set_accel_bias
 539              		.align	1
 540              		.global	dmp_set_fifo_rate
 541              		.syntax unified
 542              		.thumb
 543              		.thumb_func
 544              		.fpu softvfp
 545              		.type	dmp_set_fifo_rate, %function
 546              	dmp_set_fifo_rate:
 547              	.LFB68:
 661:drivers/inv_mpu_dmp_motion_driver.c **** 
 662:drivers/inv_mpu_dmp_motion_driver.c **** /**
 663:drivers/inv_mpu_dmp_motion_driver.c ****  *  @brief      Set DMP output rate.
 664:drivers/inv_mpu_dmp_motion_driver.c ****  *  Only used when DMP is on.
 665:drivers/inv_mpu_dmp_motion_driver.c ****  *  @param[in]  rate    Desired fifo rate (Hz).
 666:drivers/inv_mpu_dmp_motion_driver.c ****  *  @return     0 if successful.
 667:drivers/inv_mpu_dmp_motion_driver.c ****  */
 668:drivers/inv_mpu_dmp_motion_driver.c **** int dmp_set_fifo_rate(unsigned short rate)
 669:drivers/inv_mpu_dmp_motion_driver.c **** {
 548              		.loc 1 669 0
 549              		.cfi_startproc
 550              		@ args = 0, pretend = 0, frame = 24
 551              		@ frame_needed = 0, uses_anonymous_args = 0
 552              	.LVL52:
 553 0320 10B5     		push	{r4, lr}
 554              		.cfi_def_cfa_offset 8
 555              		.cfi_offset 4, -8
 556              		.cfi_offset 14, -4
 557 0322 86B0     		sub	sp, sp, #24
 558              		.cfi_def_cfa_offset 32
 559 0324 0446     		mov	r4, r0
 670:drivers/inv_mpu_dmp_motion_driver.c ****     const unsigned char regs_end[12] = {DINAFE, DINAF2, DINAAB,
 560              		.loc 1 670 0
 561 0326 03AB     		add	r3, sp, #12
 562 0328 164A     		ldr	r2, .L40
 563 032a 1068     		ldr	r0, [r2]	@ unaligned
 564              	.LVL53:
 565 032c 5168     		ldr	r1, [r2, #4]	@ unaligned
 566 032e 9268     		ldr	r2, [r2, #8]	@ unaligned
 567 0330 07C3     		stmia	r3!, {r0, r1, r2}
 671:drivers/inv_mpu_dmp_motion_driver.c ****         0xc4, DINAAA, DINAF1, DINADF, DINADF, 0xBB, 0xAF, DINADF, DINADF};
 672:drivers/inv_mpu_dmp_motion_driver.c ****     unsigned short div;
 673:drivers/inv_mpu_dmp_motion_driver.c ****     unsigned char tmp[8];
 674:drivers/inv_mpu_dmp_motion_driver.c **** 
 675:drivers/inv_mpu_dmp_motion_driver.c ****     if (rate > DMP_SAMPLE_RATE)
 568              		.loc 1 675 0
 569 0332 C82C     		cmp	r4, #200
 570 0334 1DD8     		bhi	.L36
 676:drivers/inv_mpu_dmp_motion_driver.c ****         return -1;
 677:drivers/inv_mpu_dmp_motion_driver.c ****     div = DMP_SAMPLE_RATE / rate - 1;
 571              		.loc 1 677 0
ARM GAS  /tmp/ccBPBbjw.s 			page 23


 572 0336 C823     		movs	r3, #200
 573 0338 93FBF4F3 		sdiv	r3, r3, r4
 574 033c 013B     		subs	r3, r3, #1
 575 033e 9BB2     		uxth	r3, r3
 576              	.LVL54:
 678:drivers/inv_mpu_dmp_motion_driver.c ****     tmp[0] = (unsigned char)((div >> 8) & 0xFF);
 577              		.loc 1 678 0
 578 0340 1A0A     		lsrs	r2, r3, #8
 579 0342 8DF80420 		strb	r2, [sp, #4]
 679:drivers/inv_mpu_dmp_motion_driver.c ****     tmp[1] = (unsigned char)(div & 0xFF);
 580              		.loc 1 679 0
 581 0346 8DF80530 		strb	r3, [sp, #5]
 680:drivers/inv_mpu_dmp_motion_driver.c ****     if (mpu_write_mem(D_0_22, 2, tmp))
 582              		.loc 1 680 0
 583 034a 01AA     		add	r2, sp, #4
 584 034c 0221     		movs	r1, #2
 585 034e 40F21620 		movw	r0, #534
 586 0352 FFF7FEFF 		bl	mpu_write_mem
 587              	.LVL55:
 588 0356 78B9     		cbnz	r0, .L37
 681:drivers/inv_mpu_dmp_motion_driver.c ****         return -1;
 682:drivers/inv_mpu_dmp_motion_driver.c ****     if (mpu_write_mem(CFG_6, 12, (unsigned char*)regs_end))
 589              		.loc 1 682 0
 590 0358 03AA     		add	r2, sp, #12
 591 035a 0C21     		movs	r1, #12
 592 035c 40F6C120 		movw	r0, #2753
 593 0360 FFF7FEFF 		bl	mpu_write_mem
 594              	.LVL56:
 595 0364 0346     		mov	r3, r0
 596 0366 50B9     		cbnz	r0, .L38
 683:drivers/inv_mpu_dmp_motion_driver.c ****         return -1;
 684:drivers/inv_mpu_dmp_motion_driver.c **** 
 685:drivers/inv_mpu_dmp_motion_driver.c ****     dmp.fifo_rate = rate;
 597              		.loc 1 685 0
 598 0368 074A     		ldr	r2, .L40+4
 599 036a 9481     		strh	r4, [r2, #12]	@ movhi
 600              	.LVL57:
 601              	.L34:
 686:drivers/inv_mpu_dmp_motion_driver.c ****     return 0;
 687:drivers/inv_mpu_dmp_motion_driver.c **** }
 602              		.loc 1 687 0
 603 036c 1846     		mov	r0, r3
 604 036e 06B0     		add	sp, sp, #24
 605              		.cfi_remember_state
 606              		.cfi_def_cfa_offset 8
 607              		@ sp needed
 608 0370 10BD     		pop	{r4, pc}
 609              	.L36:
 610              		.cfi_restore_state
 676:drivers/inv_mpu_dmp_motion_driver.c ****     div = DMP_SAMPLE_RATE / rate - 1;
 611              		.loc 1 676 0
 612 0372 4FF0FF33 		mov	r3, #-1
 613 0376 F9E7     		b	.L34
 614              	.LVL58:
 615              	.L37:
 681:drivers/inv_mpu_dmp_motion_driver.c ****     if (mpu_write_mem(CFG_6, 12, (unsigned char*)regs_end))
 616              		.loc 1 681 0
ARM GAS  /tmp/ccBPBbjw.s 			page 24


 617 0378 4FF0FF33 		mov	r3, #-1
 618 037c F6E7     		b	.L34
 619              	.L38:
 683:drivers/inv_mpu_dmp_motion_driver.c **** 
 620              		.loc 1 683 0
 621 037e 4FF0FF33 		mov	r3, #-1
 622 0382 F3E7     		b	.L34
 623              	.L41:
 624              		.align	2
 625              	.L40:
 626 0384 F80B0000 		.word	.LANCHOR0+3064
 627 0388 00000000 		.word	.LANCHOR1
 628              		.cfi_endproc
 629              	.LFE68:
 630              		.size	dmp_set_fifo_rate, .-dmp_set_fifo_rate
 631              		.align	1
 632              		.global	dmp_get_fifo_rate
 633              		.syntax unified
 634              		.thumb
 635              		.thumb_func
 636              		.fpu softvfp
 637              		.type	dmp_get_fifo_rate, %function
 638              	dmp_get_fifo_rate:
 639              	.LFB69:
 688:drivers/inv_mpu_dmp_motion_driver.c **** 
 689:drivers/inv_mpu_dmp_motion_driver.c **** /**
 690:drivers/inv_mpu_dmp_motion_driver.c ****  *  @brief      Get DMP output rate.
 691:drivers/inv_mpu_dmp_motion_driver.c ****  *  @param[out] rate    Current fifo rate (Hz).
 692:drivers/inv_mpu_dmp_motion_driver.c ****  *  @return     0 if successful.
 693:drivers/inv_mpu_dmp_motion_driver.c ****  */
 694:drivers/inv_mpu_dmp_motion_driver.c **** int dmp_get_fifo_rate(unsigned short *rate)
 695:drivers/inv_mpu_dmp_motion_driver.c **** {
 640              		.loc 1 695 0
 641              		.cfi_startproc
 642              		@ args = 0, pretend = 0, frame = 0
 643              		@ frame_needed = 0, uses_anonymous_args = 0
 644              		@ link register save eliminated.
 645              	.LVL59:
 696:drivers/inv_mpu_dmp_motion_driver.c ****     rate[0] = dmp.fifo_rate;
 646              		.loc 1 696 0
 647 038c 024B     		ldr	r3, .L43
 648 038e 9B89     		ldrh	r3, [r3, #12]
 649 0390 0380     		strh	r3, [r0]	@ movhi
 697:drivers/inv_mpu_dmp_motion_driver.c ****     return 0;
 698:drivers/inv_mpu_dmp_motion_driver.c **** }
 650              		.loc 1 698 0
 651 0392 0020     		movs	r0, #0
 652              	.LVL60:
 653 0394 7047     		bx	lr
 654              	.L44:
 655 0396 00BF     		.align	2
 656              	.L43:
 657 0398 00000000 		.word	.LANCHOR1
 658              		.cfi_endproc
 659              	.LFE69:
 660              		.size	dmp_get_fifo_rate, .-dmp_get_fifo_rate
 661              		.global	__aeabi_ui2f
ARM GAS  /tmp/ccBPBbjw.s 			page 25


 662              		.global	__aeabi_fdiv
 663              		.global	__aeabi_fmul
 664              		.global	__aeabi_f2uiz
 665              		.align	1
 666              		.global	dmp_set_tap_thresh
 667              		.syntax unified
 668              		.thumb
 669              		.thumb_func
 670              		.fpu softvfp
 671              		.type	dmp_set_tap_thresh, %function
 672              	dmp_set_tap_thresh:
 673              	.LFB70:
 699:drivers/inv_mpu_dmp_motion_driver.c **** 
 700:drivers/inv_mpu_dmp_motion_driver.c **** /**
 701:drivers/inv_mpu_dmp_motion_driver.c ****  *  @brief      Set tap threshold for a specific axis.
 702:drivers/inv_mpu_dmp_motion_driver.c ****  *  @param[in]  axis    1, 2, and 4 for XYZ accel, respectively.
 703:drivers/inv_mpu_dmp_motion_driver.c ****  *  @param[in]  thresh  Tap threshold, in mg/ms.
 704:drivers/inv_mpu_dmp_motion_driver.c ****  *  @return     0 if successful.
 705:drivers/inv_mpu_dmp_motion_driver.c ****  */
 706:drivers/inv_mpu_dmp_motion_driver.c **** int dmp_set_tap_thresh(unsigned char axis, unsigned short thresh)
 707:drivers/inv_mpu_dmp_motion_driver.c **** {
 674              		.loc 1 707 0
 675              		.cfi_startproc
 676              		@ args = 0, pretend = 0, frame = 8
 677              		@ frame_needed = 0, uses_anonymous_args = 0
 678              	.LVL61:
 708:drivers/inv_mpu_dmp_motion_driver.c ****     unsigned char tmp[4], accel_fsr;
 709:drivers/inv_mpu_dmp_motion_driver.c ****     float scaled_thresh;
 710:drivers/inv_mpu_dmp_motion_driver.c ****     unsigned short dmp_thresh, dmp_thresh_2;
 711:drivers/inv_mpu_dmp_motion_driver.c ****     if (!(axis & TAP_XYZ) || thresh > 1600)
 679              		.loc 1 711 0
 680 039c 10F0070F 		tst	r0, #7
 681 03a0 00F0B180 		beq	.L55
 682              		.loc 1 711 0 is_stmt 0 discriminator 1
 683 03a4 B1F5C86F 		cmp	r1, #1600
 684 03a8 00F2B080 		bhi	.L56
 707:drivers/inv_mpu_dmp_motion_driver.c ****     unsigned char tmp[4], accel_fsr;
 685              		.loc 1 707 0 is_stmt 1
 686 03ac 70B5     		push	{r4, r5, r6, lr}
 687              		.cfi_def_cfa_offset 16
 688              		.cfi_offset 4, -16
 689              		.cfi_offset 5, -12
 690              		.cfi_offset 6, -8
 691              		.cfi_offset 14, -4
 692 03ae 82B0     		sub	sp, sp, #8
 693              		.cfi_def_cfa_offset 24
 694 03b0 0446     		mov	r4, r0
 712:drivers/inv_mpu_dmp_motion_driver.c ****         return -1;
 713:drivers/inv_mpu_dmp_motion_driver.c **** 
 714:drivers/inv_mpu_dmp_motion_driver.c ****     scaled_thresh = (float)thresh / DMP_SAMPLE_RATE;
 695              		.loc 1 714 0
 696 03b2 0846     		mov	r0, r1
 697              	.LVL62:
 698 03b4 FFF7FEFF 		bl	__aeabi_ui2f
 699              	.LVL63:
 700 03b8 5C49     		ldr	r1, .L71
 701 03ba FFF7FEFF 		bl	__aeabi_fdiv
ARM GAS  /tmp/ccBPBbjw.s 			page 26


 702              	.LVL64:
 703 03be 0546     		mov	r5, r0
 704              	.LVL65:
 715:drivers/inv_mpu_dmp_motion_driver.c **** 
 716:drivers/inv_mpu_dmp_motion_driver.c ****     mpu_get_accel_fsr(&accel_fsr);
 705              		.loc 1 716 0
 706 03c0 0DF10300 		add	r0, sp, #3
 707              	.LVL66:
 708 03c4 FFF7FEFF 		bl	mpu_get_accel_fsr
 709              	.LVL67:
 717:drivers/inv_mpu_dmp_motion_driver.c ****     switch (accel_fsr) {
 710              		.loc 1 717 0
 711 03c8 9DF80330 		ldrb	r3, [sp, #3]	@ zero_extendqisi2
 712 03cc 023B     		subs	r3, r3, #2
 713 03ce 0E2B     		cmp	r3, #14
 714 03d0 00F29F80 		bhi	.L57
 715 03d4 DFE803F0 		tbb	[pc, r3]
 716              	.L48:
 717 03d8 08       		.byte	(.L47-.L48)/2
 718 03d9 9D       		.byte	(.L57-.L48)/2
 719 03da 2D       		.byte	(.L49-.L48)/2
 720 03db 9D       		.byte	(.L57-.L48)/2
 721 03dc 9D       		.byte	(.L57-.L48)/2
 722 03dd 9D       		.byte	(.L57-.L48)/2
 723 03de 3D       		.byte	(.L50-.L48)/2
 724 03df 9D       		.byte	(.L57-.L48)/2
 725 03e0 9D       		.byte	(.L57-.L48)/2
 726 03e1 9D       		.byte	(.L57-.L48)/2
 727 03e2 9D       		.byte	(.L57-.L48)/2
 728 03e3 9D       		.byte	(.L57-.L48)/2
 729 03e4 9D       		.byte	(.L57-.L48)/2
 730 03e5 9D       		.byte	(.L57-.L48)/2
 731 03e6 4D       		.byte	(.L51-.L48)/2
 732 03e7 00       		.p2align 1
 733              	.L47:
 718:drivers/inv_mpu_dmp_motion_driver.c ****     case 2:
 719:drivers/inv_mpu_dmp_motion_driver.c ****         dmp_thresh = (unsigned short)(scaled_thresh * 16384);
 734              		.loc 1 719 0
 735 03e8 4FF08D41 		mov	r1, #1182793728
 736 03ec 2846     		mov	r0, r5
 737 03ee FFF7FEFF 		bl	__aeabi_fmul
 738              	.LVL68:
 739 03f2 FFF7FEFF 		bl	__aeabi_f2uiz
 740              	.LVL69:
 741 03f6 86B2     		uxth	r6, r0
 742              	.LVL70:
 720:drivers/inv_mpu_dmp_motion_driver.c ****         /* dmp_thresh * 0.75 */
 721:drivers/inv_mpu_dmp_motion_driver.c ****         dmp_thresh_2 = (unsigned short)(scaled_thresh * 12288);
 743              		.loc 1 721 0
 744 03f8 4D49     		ldr	r1, .L71+4
 745 03fa 2846     		mov	r0, r5
 746 03fc FFF7FEFF 		bl	__aeabi_fmul
 747              	.LVL71:
 748 0400 FFF7FEFF 		bl	__aeabi_f2uiz
 749              	.LVL72:
 750 0404 80B2     		uxth	r0, r0
 751              	.LVL73:
ARM GAS  /tmp/ccBPBbjw.s 			page 27


 752              	.L52:
 722:drivers/inv_mpu_dmp_motion_driver.c ****         break;
 723:drivers/inv_mpu_dmp_motion_driver.c ****     case 4:
 724:drivers/inv_mpu_dmp_motion_driver.c ****         dmp_thresh = (unsigned short)(scaled_thresh * 8192);
 725:drivers/inv_mpu_dmp_motion_driver.c ****         /* dmp_thresh * 0.75 */
 726:drivers/inv_mpu_dmp_motion_driver.c ****         dmp_thresh_2 = (unsigned short)(scaled_thresh * 6144);
 727:drivers/inv_mpu_dmp_motion_driver.c ****         break;
 728:drivers/inv_mpu_dmp_motion_driver.c ****     case 8:
 729:drivers/inv_mpu_dmp_motion_driver.c ****         dmp_thresh = (unsigned short)(scaled_thresh * 4096);
 730:drivers/inv_mpu_dmp_motion_driver.c ****         /* dmp_thresh * 0.75 */
 731:drivers/inv_mpu_dmp_motion_driver.c ****         dmp_thresh_2 = (unsigned short)(scaled_thresh * 3072);
 732:drivers/inv_mpu_dmp_motion_driver.c ****         break;
 733:drivers/inv_mpu_dmp_motion_driver.c ****     case 16:
 734:drivers/inv_mpu_dmp_motion_driver.c ****         dmp_thresh = (unsigned short)(scaled_thresh * 2048);
 735:drivers/inv_mpu_dmp_motion_driver.c ****         /* dmp_thresh * 0.75 */
 736:drivers/inv_mpu_dmp_motion_driver.c ****         dmp_thresh_2 = (unsigned short)(scaled_thresh * 1536);
 737:drivers/inv_mpu_dmp_motion_driver.c ****         break;
 738:drivers/inv_mpu_dmp_motion_driver.c ****     default:
 739:drivers/inv_mpu_dmp_motion_driver.c ****         return -1;
 740:drivers/inv_mpu_dmp_motion_driver.c ****     }
 741:drivers/inv_mpu_dmp_motion_driver.c ****     tmp[0] = (unsigned char)(dmp_thresh >> 8);
 753              		.loc 1 741 0
 754 0406 330A     		lsrs	r3, r6, #8
 755 0408 8DF80430 		strb	r3, [sp, #4]
 742:drivers/inv_mpu_dmp_motion_driver.c ****     tmp[1] = (unsigned char)(dmp_thresh & 0xFF);
 756              		.loc 1 742 0
 757 040c 8DF80560 		strb	r6, [sp, #5]
 743:drivers/inv_mpu_dmp_motion_driver.c ****     tmp[2] = (unsigned char)(dmp_thresh_2 >> 8);
 758              		.loc 1 743 0
 759 0410 030A     		lsrs	r3, r0, #8
 760 0412 8DF80630 		strb	r3, [sp, #6]
 744:drivers/inv_mpu_dmp_motion_driver.c ****     tmp[3] = (unsigned char)(dmp_thresh_2 & 0xFF);
 761              		.loc 1 744 0
 762 0416 8DF80700 		strb	r0, [sp, #7]
 745:drivers/inv_mpu_dmp_motion_driver.c **** 
 746:drivers/inv_mpu_dmp_motion_driver.c ****     if (axis & TAP_X) {
 763              		.loc 1 746 0
 764 041a 14F0010F 		tst	r4, #1
 765 041e 38D1     		bne	.L68
 766              	.LVL74:
 767              	.L53:
 747:drivers/inv_mpu_dmp_motion_driver.c ****         if (mpu_write_mem(DMP_TAP_THX, 2, tmp))
 748:drivers/inv_mpu_dmp_motion_driver.c ****             return -1;
 749:drivers/inv_mpu_dmp_motion_driver.c ****         if (mpu_write_mem(D_1_36, 2, tmp+2))
 750:drivers/inv_mpu_dmp_motion_driver.c ****             return -1;
 751:drivers/inv_mpu_dmp_motion_driver.c ****     }
 752:drivers/inv_mpu_dmp_motion_driver.c ****     if (axis & TAP_Y) {
 768              		.loc 1 752 0
 769 0420 14F0020F 		tst	r4, #2
 770 0424 49D1     		bne	.L69
 771              	.L54:
 753:drivers/inv_mpu_dmp_motion_driver.c ****         if (mpu_write_mem(DMP_TAP_THY, 2, tmp))
 754:drivers/inv_mpu_dmp_motion_driver.c ****             return -1;
 755:drivers/inv_mpu_dmp_motion_driver.c ****         if (mpu_write_mem(D_1_40, 2, tmp+2))
 756:drivers/inv_mpu_dmp_motion_driver.c ****             return -1;
 757:drivers/inv_mpu_dmp_motion_driver.c ****     }
 758:drivers/inv_mpu_dmp_motion_driver.c ****     if (axis & TAP_Z) {
ARM GAS  /tmp/ccBPBbjw.s 			page 28


 772              		.loc 1 758 0
 773 0426 14F0040F 		tst	r4, #4
 774 042a 59D1     		bne	.L70
 759:drivers/inv_mpu_dmp_motion_driver.c ****         if (mpu_write_mem(DMP_TAP_THZ, 2, tmp))
 760:drivers/inv_mpu_dmp_motion_driver.c ****             return -1;
 761:drivers/inv_mpu_dmp_motion_driver.c ****         if (mpu_write_mem(D_1_44, 2, tmp+2))
 762:drivers/inv_mpu_dmp_motion_driver.c ****             return -1;
 763:drivers/inv_mpu_dmp_motion_driver.c ****     }
 764:drivers/inv_mpu_dmp_motion_driver.c ****     return 0;
 775              		.loc 1 764 0
 776 042c 0020     		movs	r0, #0
 777              	.LVL75:
 778              	.L45:
 765:drivers/inv_mpu_dmp_motion_driver.c **** }
 779              		.loc 1 765 0
 780 042e 02B0     		add	sp, sp, #8
 781              		.cfi_remember_state
 782              		.cfi_def_cfa_offset 16
 783              		@ sp needed
 784 0430 70BD     		pop	{r4, r5, r6, pc}
 785              	.LVL76:
 786              	.L49:
 787              		.cfi_restore_state
 724:drivers/inv_mpu_dmp_motion_driver.c ****         /* dmp_thresh * 0.75 */
 788              		.loc 1 724 0
 789 0432 4FF08C41 		mov	r1, #1174405120
 790 0436 2846     		mov	r0, r5
 791 0438 FFF7FEFF 		bl	__aeabi_fmul
 792              	.LVL77:
 793 043c FFF7FEFF 		bl	__aeabi_f2uiz
 794              	.LVL78:
 795 0440 86B2     		uxth	r6, r0
 796              	.LVL79:
 726:drivers/inv_mpu_dmp_motion_driver.c ****         break;
 797              		.loc 1 726 0
 798 0442 3C49     		ldr	r1, .L71+8
 799 0444 2846     		mov	r0, r5
 800 0446 FFF7FEFF 		bl	__aeabi_fmul
 801              	.LVL80:
 802 044a FFF7FEFF 		bl	__aeabi_f2uiz
 803              	.LVL81:
 804 044e 80B2     		uxth	r0, r0
 805              	.LVL82:
 727:drivers/inv_mpu_dmp_motion_driver.c ****     case 8:
 806              		.loc 1 727 0
 807 0450 D9E7     		b	.L52
 808              	.LVL83:
 809              	.L50:
 729:drivers/inv_mpu_dmp_motion_driver.c ****         /* dmp_thresh * 0.75 */
 810              		.loc 1 729 0
 811 0452 4FF08B41 		mov	r1, #1166016512
 812 0456 2846     		mov	r0, r5
 813 0458 FFF7FEFF 		bl	__aeabi_fmul
 814              	.LVL84:
 815 045c FFF7FEFF 		bl	__aeabi_f2uiz
 816              	.LVL85:
 817 0460 86B2     		uxth	r6, r0
ARM GAS  /tmp/ccBPBbjw.s 			page 29


 818              	.LVL86:
 731:drivers/inv_mpu_dmp_motion_driver.c ****         break;
 819              		.loc 1 731 0
 820 0462 3549     		ldr	r1, .L71+12
 821 0464 2846     		mov	r0, r5
 822 0466 FFF7FEFF 		bl	__aeabi_fmul
 823              	.LVL87:
 824 046a FFF7FEFF 		bl	__aeabi_f2uiz
 825              	.LVL88:
 826 046e 80B2     		uxth	r0, r0
 827              	.LVL89:
 732:drivers/inv_mpu_dmp_motion_driver.c ****     case 16:
 828              		.loc 1 732 0
 829 0470 C9E7     		b	.L52
 830              	.LVL90:
 831              	.L51:
 734:drivers/inv_mpu_dmp_motion_driver.c ****         /* dmp_thresh * 0.75 */
 832              		.loc 1 734 0
 833 0472 4FF08A41 		mov	r1, #1157627904
 834 0476 2846     		mov	r0, r5
 835 0478 FFF7FEFF 		bl	__aeabi_fmul
 836              	.LVL91:
 837 047c FFF7FEFF 		bl	__aeabi_f2uiz
 838              	.LVL92:
 839 0480 86B2     		uxth	r6, r0
 840              	.LVL93:
 736:drivers/inv_mpu_dmp_motion_driver.c ****         break;
 841              		.loc 1 736 0
 842 0482 2E49     		ldr	r1, .L71+16
 843 0484 2846     		mov	r0, r5
 844 0486 FFF7FEFF 		bl	__aeabi_fmul
 845              	.LVL94:
 846 048a FFF7FEFF 		bl	__aeabi_f2uiz
 847              	.LVL95:
 848 048e 80B2     		uxth	r0, r0
 849              	.LVL96:
 737:drivers/inv_mpu_dmp_motion_driver.c ****     default:
 850              		.loc 1 737 0
 851 0490 B9E7     		b	.L52
 852              	.L68:
 747:drivers/inv_mpu_dmp_motion_driver.c ****             return -1;
 853              		.loc 1 747 0
 854 0492 01AA     		add	r2, sp, #4
 855 0494 0221     		movs	r1, #2
 856 0496 4FF4EA70 		mov	r0, #468
 857              	.LVL97:
 858 049a FFF7FEFF 		bl	mpu_write_mem
 859              	.LVL98:
 860 049e 0028     		cmp	r0, #0
 861 04a0 3AD1     		bne	.L58
 749:drivers/inv_mpu_dmp_motion_driver.c ****             return -1;
 862              		.loc 1 749 0
 863 04a2 0DF10602 		add	r2, sp, #6
 864 04a6 0221     		movs	r1, #2
 865 04a8 4FF49270 		mov	r0, #292
 866 04ac FFF7FEFF 		bl	mpu_write_mem
 867              	.LVL99:
ARM GAS  /tmp/ccBPBbjw.s 			page 30


 868 04b0 0028     		cmp	r0, #0
 869 04b2 B5D0     		beq	.L53
 750:drivers/inv_mpu_dmp_motion_driver.c ****     }
 870              		.loc 1 750 0
 871 04b4 4FF0FF30 		mov	r0, #-1
 872 04b8 B9E7     		b	.L45
 873              	.L69:
 753:drivers/inv_mpu_dmp_motion_driver.c ****             return -1;
 874              		.loc 1 753 0
 875 04ba 01AA     		add	r2, sp, #4
 876 04bc 0221     		movs	r1, #2
 877 04be 4FF4EC70 		mov	r0, #472
 878 04c2 FFF7FEFF 		bl	mpu_write_mem
 879              	.LVL100:
 880 04c6 50BB     		cbnz	r0, .L60
 755:drivers/inv_mpu_dmp_motion_driver.c ****             return -1;
 881              		.loc 1 755 0
 882 04c8 0DF10602 		add	r2, sp, #6
 883 04cc 0221     		movs	r1, #2
 884 04ce 4FF49470 		mov	r0, #296
 885 04d2 FFF7FEFF 		bl	mpu_write_mem
 886              	.LVL101:
 887 04d6 0028     		cmp	r0, #0
 888 04d8 A5D0     		beq	.L54
 756:drivers/inv_mpu_dmp_motion_driver.c ****     }
 889              		.loc 1 756 0
 890 04da 4FF0FF30 		mov	r0, #-1
 891 04de A6E7     		b	.L45
 892              	.L70:
 759:drivers/inv_mpu_dmp_motion_driver.c ****             return -1;
 893              		.loc 1 759 0
 894 04e0 01AA     		add	r2, sp, #4
 895 04e2 0221     		movs	r1, #2
 896 04e4 4FF4EE70 		mov	r0, #476
 897 04e8 FFF7FEFF 		bl	mpu_write_mem
 898              	.LVL102:
 899 04ec D0B9     		cbnz	r0, .L63
 761:drivers/inv_mpu_dmp_motion_driver.c ****             return -1;
 900              		.loc 1 761 0
 901 04ee 0DF10602 		add	r2, sp, #6
 902 04f2 0221     		movs	r1, #2
 903 04f4 4FF49670 		mov	r0, #300
 904 04f8 FFF7FEFF 		bl	mpu_write_mem
 905              	.LVL103:
 906 04fc 0030     		adds	r0, r0, #0
 907 04fe 18BF     		it	ne
 908 0500 0120     		movne	r0, #1
 909 0502 4042     		negs	r0, r0
 910 0504 93E7     		b	.L45
 911              	.LVL104:
 912              	.L55:
 913              		.cfi_def_cfa_offset 0
 914              		.cfi_restore 4
 915              		.cfi_restore 5
 916              		.cfi_restore 6
 917              		.cfi_restore 14
 712:drivers/inv_mpu_dmp_motion_driver.c **** 
ARM GAS  /tmp/ccBPBbjw.s 			page 31


 918              		.loc 1 712 0
 919 0506 4FF0FF30 		mov	r0, #-1
 920              	.LVL105:
 921 050a 7047     		bx	lr
 922              	.LVL106:
 923              	.L56:
 924 050c 4FF0FF30 		mov	r0, #-1
 925              	.LVL107:
 926 0510 7047     		bx	lr
 927              	.LVL108:
 928              	.L57:
 929              		.cfi_def_cfa_offset 24
 930              		.cfi_offset 4, -16
 931              		.cfi_offset 5, -12
 932              		.cfi_offset 6, -8
 933              		.cfi_offset 14, -4
 739:drivers/inv_mpu_dmp_motion_driver.c ****     }
 934              		.loc 1 739 0
 935 0512 4FF0FF30 		mov	r0, #-1
 936 0516 8AE7     		b	.L45
 937              	.LVL109:
 938              	.L58:
 748:drivers/inv_mpu_dmp_motion_driver.c ****         if (mpu_write_mem(D_1_36, 2, tmp+2))
 939              		.loc 1 748 0
 940 0518 4FF0FF30 		mov	r0, #-1
 941 051c 87E7     		b	.L45
 942              	.L60:
 754:drivers/inv_mpu_dmp_motion_driver.c ****         if (mpu_write_mem(D_1_40, 2, tmp+2))
 943              		.loc 1 754 0
 944 051e 4FF0FF30 		mov	r0, #-1
 945 0522 84E7     		b	.L45
 946              	.L63:
 760:drivers/inv_mpu_dmp_motion_driver.c ****         if (mpu_write_mem(D_1_44, 2, tmp+2))
 947              		.loc 1 760 0
 948 0524 4FF0FF30 		mov	r0, #-1
 949 0528 81E7     		b	.L45
 950              	.L72:
 951 052a 00BF     		.align	2
 952              	.L71:
 953 052c 00004843 		.word	1128792064
 954 0530 00004046 		.word	1178599424
 955 0534 0000C045 		.word	1170210816
 956 0538 00004045 		.word	1161822208
 957 053c 0000C044 		.word	1153433600
 958              		.cfi_endproc
 959              	.LFE70:
 960              		.size	dmp_set_tap_thresh, .-dmp_set_tap_thresh
 961              		.align	1
 962              		.global	dmp_set_tap_axes
 963              		.syntax unified
 964              		.thumb
 965              		.thumb_func
 966              		.fpu softvfp
 967              		.type	dmp_set_tap_axes, %function
 968              	dmp_set_tap_axes:
 969              	.LFB71:
 766:drivers/inv_mpu_dmp_motion_driver.c **** 
ARM GAS  /tmp/ccBPBbjw.s 			page 32


 767:drivers/inv_mpu_dmp_motion_driver.c **** /**
 768:drivers/inv_mpu_dmp_motion_driver.c ****  *  @brief      Set which axes will register a tap.
 769:drivers/inv_mpu_dmp_motion_driver.c ****  *  @param[in]  axis    1, 2, and 4 for XYZ, respectively.
 770:drivers/inv_mpu_dmp_motion_driver.c ****  *  @return     0 if successful.
 771:drivers/inv_mpu_dmp_motion_driver.c ****  */
 772:drivers/inv_mpu_dmp_motion_driver.c **** int dmp_set_tap_axes(unsigned char axis)
 773:drivers/inv_mpu_dmp_motion_driver.c **** {
 970              		.loc 1 773 0
 971              		.cfi_startproc
 972              		@ args = 0, pretend = 0, frame = 8
 973              		@ frame_needed = 0, uses_anonymous_args = 0
 974              	.LVL110:
 975 0540 00B5     		push	{lr}
 976              		.cfi_def_cfa_offset 4
 977              		.cfi_offset 14, -4
 978 0542 83B0     		sub	sp, sp, #12
 979              		.cfi_def_cfa_offset 16
 774:drivers/inv_mpu_dmp_motion_driver.c ****     unsigned char tmp = 0;
 775:drivers/inv_mpu_dmp_motion_driver.c **** 
 776:drivers/inv_mpu_dmp_motion_driver.c ****     if (axis & TAP_X)
 980              		.loc 1 776 0
 981 0544 10F0010F 		tst	r0, #1
 774:drivers/inv_mpu_dmp_motion_driver.c ****     unsigned char tmp = 0;
 982              		.loc 1 774 0
 983 0548 0CBF     		ite	eq
 984 054a 0023     		moveq	r3, #0
 777:drivers/inv_mpu_dmp_motion_driver.c ****         tmp |= 0x30;
 985              		.loc 1 777 0
 986 054c 3023     		movne	r3, #48
 987 054e 8DF80730 		strb	r3, [sp, #7]
 778:drivers/inv_mpu_dmp_motion_driver.c ****     if (axis & TAP_Y)
 988              		.loc 1 778 0
 989 0552 10F0020F 		tst	r0, #2
 990 0556 05D0     		beq	.L76
 779:drivers/inv_mpu_dmp_motion_driver.c ****         tmp |= 0x0C;
 991              		.loc 1 779 0
 992 0558 9DF80730 		ldrb	r3, [sp, #7]	@ zero_extendqisi2
 993 055c 43F00C03 		orr	r3, r3, #12
 994 0560 8DF80730 		strb	r3, [sp, #7]
 995              	.L76:
 780:drivers/inv_mpu_dmp_motion_driver.c ****     if (axis & TAP_Z)
 996              		.loc 1 780 0
 997 0564 10F0040F 		tst	r0, #4
 998 0568 05D0     		beq	.L77
 781:drivers/inv_mpu_dmp_motion_driver.c ****         tmp |= 0x03;
 999              		.loc 1 781 0
 1000 056a 9DF80730 		ldrb	r3, [sp, #7]	@ zero_extendqisi2
 1001 056e 43F00303 		orr	r3, r3, #3
 1002 0572 8DF80730 		strb	r3, [sp, #7]
 1003              	.L77:
 782:drivers/inv_mpu_dmp_motion_driver.c ****     return mpu_write_mem(D_1_72, 1, &tmp);
 1004              		.loc 1 782 0
 1005 0576 0DF10702 		add	r2, sp, #7
 1006 057a 0121     		movs	r1, #1
 1007 057c 4FF4A470 		mov	r0, #328
 1008              	.LVL111:
 1009 0580 FFF7FEFF 		bl	mpu_write_mem
ARM GAS  /tmp/ccBPBbjw.s 			page 33


 1010              	.LVL112:
 783:drivers/inv_mpu_dmp_motion_driver.c **** }
 1011              		.loc 1 783 0
 1012 0584 03B0     		add	sp, sp, #12
 1013              		.cfi_def_cfa_offset 4
 1014              		@ sp needed
 1015 0586 5DF804FB 		ldr	pc, [sp], #4
 1016              		.cfi_endproc
 1017              	.LFE71:
 1018              		.size	dmp_set_tap_axes, .-dmp_set_tap_axes
 1019              		.align	1
 1020              		.global	dmp_set_tap_count
 1021              		.syntax unified
 1022              		.thumb
 1023              		.thumb_func
 1024              		.fpu softvfp
 1025              		.type	dmp_set_tap_count, %function
 1026              	dmp_set_tap_count:
 1027              	.LFB72:
 784:drivers/inv_mpu_dmp_motion_driver.c **** 
 785:drivers/inv_mpu_dmp_motion_driver.c **** /**
 786:drivers/inv_mpu_dmp_motion_driver.c ****  *  @brief      Set minimum number of taps needed for an interrupt.
 787:drivers/inv_mpu_dmp_motion_driver.c ****  *  @param[in]  min_taps    Minimum consecutive taps (1-4).
 788:drivers/inv_mpu_dmp_motion_driver.c ****  *  @return     0 if successful.
 789:drivers/inv_mpu_dmp_motion_driver.c ****  */
 790:drivers/inv_mpu_dmp_motion_driver.c **** int dmp_set_tap_count(unsigned char min_taps)
 791:drivers/inv_mpu_dmp_motion_driver.c **** {
 1028              		.loc 1 791 0
 1029              		.cfi_startproc
 1030              		@ args = 0, pretend = 0, frame = 8
 1031              		@ frame_needed = 0, uses_anonymous_args = 0
 1032              	.LVL113:
 1033 058a 00B5     		push	{lr}
 1034              		.cfi_def_cfa_offset 4
 1035              		.cfi_offset 14, -4
 1036 058c 83B0     		sub	sp, sp, #12
 1037              		.cfi_def_cfa_offset 16
 792:drivers/inv_mpu_dmp_motion_driver.c ****     unsigned char tmp;
 793:drivers/inv_mpu_dmp_motion_driver.c **** 
 794:drivers/inv_mpu_dmp_motion_driver.c ****     if (min_taps < 1)
 1038              		.loc 1 794 0
 1039 058e 80B1     		cbz	r0, .L81
 1040 0590 0346     		mov	r3, r0
 1041 0592 0428     		cmp	r0, #4
 1042 0594 28BF     		it	cs
 1043 0596 0423     		movcs	r3, #4
 1044 0598 1846     		mov	r0, r3
 1045              	.LVL114:
 1046              	.L80:
 795:drivers/inv_mpu_dmp_motion_driver.c ****         min_taps = 1;
 796:drivers/inv_mpu_dmp_motion_driver.c ****     else if (min_taps > 4)
 797:drivers/inv_mpu_dmp_motion_driver.c ****         min_taps = 4;
 798:drivers/inv_mpu_dmp_motion_driver.c **** 
 799:drivers/inv_mpu_dmp_motion_driver.c ****     tmp = min_taps - 1;
 1047              		.loc 1 799 0
 1048 059a 0138     		subs	r0, r0, #1
 1049              	.LVL115:
ARM GAS  /tmp/ccBPBbjw.s 			page 34


 1050 059c 02AA     		add	r2, sp, #8
 1051 059e 02F8010D 		strb	r0, [r2, #-1]!
 800:drivers/inv_mpu_dmp_motion_driver.c ****     return mpu_write_mem(D_1_79, 1, &tmp);
 1052              		.loc 1 800 0
 1053 05a2 0121     		movs	r1, #1
 1054 05a4 40F24F10 		movw	r0, #335
 1055 05a8 FFF7FEFF 		bl	mpu_write_mem
 1056              	.LVL116:
 801:drivers/inv_mpu_dmp_motion_driver.c **** }
 1057              		.loc 1 801 0
 1058 05ac 03B0     		add	sp, sp, #12
 1059              		.cfi_remember_state
 1060              		.cfi_def_cfa_offset 4
 1061              		@ sp needed
 1062 05ae 5DF804FB 		ldr	pc, [sp], #4
 1063              	.LVL117:
 1064              	.L81:
 1065              		.cfi_restore_state
 795:drivers/inv_mpu_dmp_motion_driver.c ****         min_taps = 1;
 1066              		.loc 1 795 0
 1067 05b2 0120     		movs	r0, #1
 1068              	.LVL118:
 1069 05b4 F1E7     		b	.L80
 1070              		.cfi_endproc
 1071              	.LFE72:
 1072              		.size	dmp_set_tap_count, .-dmp_set_tap_count
 1073              		.align	1
 1074              		.global	dmp_set_tap_time
 1075              		.syntax unified
 1076              		.thumb
 1077              		.thumb_func
 1078              		.fpu softvfp
 1079              		.type	dmp_set_tap_time, %function
 1080              	dmp_set_tap_time:
 1081              	.LFB73:
 802:drivers/inv_mpu_dmp_motion_driver.c **** 
 803:drivers/inv_mpu_dmp_motion_driver.c **** /**
 804:drivers/inv_mpu_dmp_motion_driver.c ****  *  @brief      Set length between valid taps.
 805:drivers/inv_mpu_dmp_motion_driver.c ****  *  @param[in]  time    Milliseconds between taps.
 806:drivers/inv_mpu_dmp_motion_driver.c ****  *  @return     0 if successful.
 807:drivers/inv_mpu_dmp_motion_driver.c ****  */
 808:drivers/inv_mpu_dmp_motion_driver.c **** int dmp_set_tap_time(unsigned short time)
 809:drivers/inv_mpu_dmp_motion_driver.c **** {
 1082              		.loc 1 809 0
 1083              		.cfi_startproc
 1084              		@ args = 0, pretend = 0, frame = 8
 1085              		@ frame_needed = 0, uses_anonymous_args = 0
 1086              	.LVL119:
 1087 05b6 00B5     		push	{lr}
 1088              		.cfi_def_cfa_offset 4
 1089              		.cfi_offset 14, -4
 1090 05b8 83B0     		sub	sp, sp, #12
 1091              		.cfi_def_cfa_offset 16
 810:drivers/inv_mpu_dmp_motion_driver.c ****     unsigned short dmp_time;
 811:drivers/inv_mpu_dmp_motion_driver.c ****     unsigned char tmp[2];
 812:drivers/inv_mpu_dmp_motion_driver.c **** 
 813:drivers/inv_mpu_dmp_motion_driver.c ****     dmp_time = time / (1000 / DMP_SAMPLE_RATE);
ARM GAS  /tmp/ccBPBbjw.s 			page 35


 1092              		.loc 1 813 0
 1093 05ba 094B     		ldr	r3, .L85
 1094 05bc A3FB0030 		umull	r3, r0, r3, r0
 1095              	.LVL120:
 1096 05c0 8008     		lsrs	r0, r0, #2
 1097              	.LVL121:
 814:drivers/inv_mpu_dmp_motion_driver.c ****     tmp[0] = (unsigned char)(dmp_time >> 8);
 1098              		.loc 1 814 0
 1099 05c2 030A     		lsrs	r3, r0, #8
 1100 05c4 8DF80430 		strb	r3, [sp, #4]
 815:drivers/inv_mpu_dmp_motion_driver.c ****     tmp[1] = (unsigned char)(dmp_time & 0xFF);
 1101              		.loc 1 815 0
 1102 05c8 8DF80500 		strb	r0, [sp, #5]
 816:drivers/inv_mpu_dmp_motion_driver.c ****     return mpu_write_mem(DMP_TAPW_MIN, 2, tmp);
 1103              		.loc 1 816 0
 1104 05cc 01AA     		add	r2, sp, #4
 1105 05ce 0221     		movs	r1, #2
 1106 05d0 4FF4EF70 		mov	r0, #478
 1107              	.LVL122:
 1108 05d4 FFF7FEFF 		bl	mpu_write_mem
 1109              	.LVL123:
 817:drivers/inv_mpu_dmp_motion_driver.c **** }
 1110              		.loc 1 817 0
 1111 05d8 03B0     		add	sp, sp, #12
 1112              		.cfi_def_cfa_offset 4
 1113              		@ sp needed
 1114 05da 5DF804FB 		ldr	pc, [sp], #4
 1115              	.L86:
 1116 05de 00BF     		.align	2
 1117              	.L85:
 1118 05e0 CDCCCCCC 		.word	-858993459
 1119              		.cfi_endproc
 1120              	.LFE73:
 1121              		.size	dmp_set_tap_time, .-dmp_set_tap_time
 1122              		.align	1
 1123              		.global	dmp_set_tap_time_multi
 1124              		.syntax unified
 1125              		.thumb
 1126              		.thumb_func
 1127              		.fpu softvfp
 1128              		.type	dmp_set_tap_time_multi, %function
 1129              	dmp_set_tap_time_multi:
 1130              	.LFB74:
 818:drivers/inv_mpu_dmp_motion_driver.c **** 
 819:drivers/inv_mpu_dmp_motion_driver.c **** /**
 820:drivers/inv_mpu_dmp_motion_driver.c ****  *  @brief      Set max time between taps to register as a multi-tap.
 821:drivers/inv_mpu_dmp_motion_driver.c ****  *  @param[in]  time    Max milliseconds between taps.
 822:drivers/inv_mpu_dmp_motion_driver.c ****  *  @return     0 if successful.
 823:drivers/inv_mpu_dmp_motion_driver.c ****  */
 824:drivers/inv_mpu_dmp_motion_driver.c **** int dmp_set_tap_time_multi(unsigned short time)
 825:drivers/inv_mpu_dmp_motion_driver.c **** {
 1131              		.loc 1 825 0
 1132              		.cfi_startproc
 1133              		@ args = 0, pretend = 0, frame = 8
 1134              		@ frame_needed = 0, uses_anonymous_args = 0
 1135              	.LVL124:
 1136 05e4 00B5     		push	{lr}
ARM GAS  /tmp/ccBPBbjw.s 			page 36


 1137              		.cfi_def_cfa_offset 4
 1138              		.cfi_offset 14, -4
 1139 05e6 83B0     		sub	sp, sp, #12
 1140              		.cfi_def_cfa_offset 16
 826:drivers/inv_mpu_dmp_motion_driver.c ****     unsigned short dmp_time;
 827:drivers/inv_mpu_dmp_motion_driver.c ****     unsigned char tmp[2];
 828:drivers/inv_mpu_dmp_motion_driver.c **** 
 829:drivers/inv_mpu_dmp_motion_driver.c ****     dmp_time = time / (1000 / DMP_SAMPLE_RATE);
 1141              		.loc 1 829 0
 1142 05e8 084B     		ldr	r3, .L89
 1143 05ea A3FB0030 		umull	r3, r0, r3, r0
 1144              	.LVL125:
 1145 05ee 8008     		lsrs	r0, r0, #2
 1146              	.LVL126:
 830:drivers/inv_mpu_dmp_motion_driver.c ****     tmp[0] = (unsigned char)(dmp_time >> 8);
 1147              		.loc 1 830 0
 1148 05f0 030A     		lsrs	r3, r0, #8
 1149 05f2 8DF80430 		strb	r3, [sp, #4]
 831:drivers/inv_mpu_dmp_motion_driver.c ****     tmp[1] = (unsigned char)(dmp_time & 0xFF);
 1150              		.loc 1 831 0
 1151 05f6 8DF80500 		strb	r0, [sp, #5]
 832:drivers/inv_mpu_dmp_motion_driver.c ****     return mpu_write_mem(D_1_218, 2, tmp);
 1152              		.loc 1 832 0
 1153 05fa 01AA     		add	r2, sp, #4
 1154 05fc 0221     		movs	r1, #2
 1155 05fe 4FF4ED70 		mov	r0, #474
 1156              	.LVL127:
 1157 0602 FFF7FEFF 		bl	mpu_write_mem
 1158              	.LVL128:
 833:drivers/inv_mpu_dmp_motion_driver.c **** }
 1159              		.loc 1 833 0
 1160 0606 03B0     		add	sp, sp, #12
 1161              		.cfi_def_cfa_offset 4
 1162              		@ sp needed
 1163 0608 5DF804FB 		ldr	pc, [sp], #4
 1164              	.L90:
 1165              		.align	2
 1166              	.L89:
 1167 060c CDCCCCCC 		.word	-858993459
 1168              		.cfi_endproc
 1169              	.LFE74:
 1170              		.size	dmp_set_tap_time_multi, .-dmp_set_tap_time_multi
 1171              		.align	1
 1172              		.global	dmp_set_shake_reject_thresh
 1173              		.syntax unified
 1174              		.thumb
 1175              		.thumb_func
 1176              		.fpu softvfp
 1177              		.type	dmp_set_shake_reject_thresh, %function
 1178              	dmp_set_shake_reject_thresh:
 1179              	.LFB75:
 834:drivers/inv_mpu_dmp_motion_driver.c **** 
 835:drivers/inv_mpu_dmp_motion_driver.c **** /**
 836:drivers/inv_mpu_dmp_motion_driver.c ****  *  @brief      Set shake rejection threshold.
 837:drivers/inv_mpu_dmp_motion_driver.c ****  *  If the DMP detects a gyro sample larger than @e thresh, taps are rejected.
 838:drivers/inv_mpu_dmp_motion_driver.c ****  *  @param[in]  sf      Gyro scale factor.
 839:drivers/inv_mpu_dmp_motion_driver.c ****  *  @param[in]  thresh  Gyro threshold in dps.
ARM GAS  /tmp/ccBPBbjw.s 			page 37


 840:drivers/inv_mpu_dmp_motion_driver.c ****  *  @return     0 if successful.
 841:drivers/inv_mpu_dmp_motion_driver.c ****  */
 842:drivers/inv_mpu_dmp_motion_driver.c **** int dmp_set_shake_reject_thresh(long sf, unsigned short thresh)
 843:drivers/inv_mpu_dmp_motion_driver.c **** {
 1180              		.loc 1 843 0
 1181              		.cfi_startproc
 1182              		@ args = 0, pretend = 0, frame = 8
 1183              		@ frame_needed = 0, uses_anonymous_args = 0
 1184              	.LVL129:
 1185 0610 00B5     		push	{lr}
 1186              		.cfi_def_cfa_offset 4
 1187              		.cfi_offset 14, -4
 1188 0612 83B0     		sub	sp, sp, #12
 1189              		.cfi_def_cfa_offset 16
 844:drivers/inv_mpu_dmp_motion_driver.c ****     unsigned char tmp[4];
 845:drivers/inv_mpu_dmp_motion_driver.c ****     long thresh_scaled = sf / 1000 * thresh;
 1190              		.loc 1 845 0
 1191 0614 0D4B     		ldr	r3, .L93
 1192 0616 83FB0023 		smull	r2, r3, r3, r0
 1193 061a C017     		asrs	r0, r0, #31
 1194              	.LVL130:
 1195 061c C0EBA310 		rsb	r0, r0, r3, asr #6
 1196 0620 01FB00F1 		mul	r1, r1, r0
 1197              	.LVL131:
 846:drivers/inv_mpu_dmp_motion_driver.c ****     tmp[0] = (unsigned char)(((long)thresh_scaled >> 24) & 0xFF);
 1198              		.loc 1 846 0
 1199 0624 0B16     		asrs	r3, r1, #24
 1200 0626 8DF80430 		strb	r3, [sp, #4]
 847:drivers/inv_mpu_dmp_motion_driver.c ****     tmp[1] = (unsigned char)(((long)thresh_scaled >> 16) & 0xFF);
 1201              		.loc 1 847 0
 1202 062a 0B14     		asrs	r3, r1, #16
 1203 062c 8DF80530 		strb	r3, [sp, #5]
 848:drivers/inv_mpu_dmp_motion_driver.c ****     tmp[2] = (unsigned char)(((long)thresh_scaled >> 8) & 0xFF);
 1204              		.loc 1 848 0
 1205 0630 0B12     		asrs	r3, r1, #8
 1206 0632 8DF80630 		strb	r3, [sp, #6]
 849:drivers/inv_mpu_dmp_motion_driver.c ****     tmp[3] = (unsigned char)((long)thresh_scaled & 0xFF);
 1207              		.loc 1 849 0
 1208 0636 8DF80710 		strb	r1, [sp, #7]
 850:drivers/inv_mpu_dmp_motion_driver.c ****     return mpu_write_mem(D_1_92, 4, tmp);
 1209              		.loc 1 850 0
 1210 063a 01AA     		add	r2, sp, #4
 1211 063c 0421     		movs	r1, #4
 1212              	.LVL132:
 1213 063e 4FF4AE70 		mov	r0, #348
 1214 0642 FFF7FEFF 		bl	mpu_write_mem
 1215              	.LVL133:
 851:drivers/inv_mpu_dmp_motion_driver.c **** }
 1216              		.loc 1 851 0
 1217 0646 03B0     		add	sp, sp, #12
 1218              		.cfi_def_cfa_offset 4
 1219              		@ sp needed
 1220 0648 5DF804FB 		ldr	pc, [sp], #4
 1221              	.L94:
 1222              		.align	2
 1223              	.L93:
 1224 064c D34D6210 		.word	274877907
ARM GAS  /tmp/ccBPBbjw.s 			page 38


 1225              		.cfi_endproc
 1226              	.LFE75:
 1227              		.size	dmp_set_shake_reject_thresh, .-dmp_set_shake_reject_thresh
 1228              		.align	1
 1229              		.global	dmp_set_shake_reject_time
 1230              		.syntax unified
 1231              		.thumb
 1232              		.thumb_func
 1233              		.fpu softvfp
 1234              		.type	dmp_set_shake_reject_time, %function
 1235              	dmp_set_shake_reject_time:
 1236              	.LFB76:
 852:drivers/inv_mpu_dmp_motion_driver.c **** 
 853:drivers/inv_mpu_dmp_motion_driver.c **** /**
 854:drivers/inv_mpu_dmp_motion_driver.c ****  *  @brief      Set shake rejection time.
 855:drivers/inv_mpu_dmp_motion_driver.c ****  *  Sets the length of time that the gyro must be outside of the threshold set
 856:drivers/inv_mpu_dmp_motion_driver.c ****  *  by @e gyro_set_shake_reject_thresh before taps are rejected. A mandatory
 857:drivers/inv_mpu_dmp_motion_driver.c ****  *  60 ms is added to this parameter.
 858:drivers/inv_mpu_dmp_motion_driver.c ****  *  @param[in]  time    Time in milliseconds.
 859:drivers/inv_mpu_dmp_motion_driver.c ****  *  @return     0 if successful.
 860:drivers/inv_mpu_dmp_motion_driver.c ****  */
 861:drivers/inv_mpu_dmp_motion_driver.c **** int dmp_set_shake_reject_time(unsigned short time)
 862:drivers/inv_mpu_dmp_motion_driver.c **** {
 1237              		.loc 1 862 0
 1238              		.cfi_startproc
 1239              		@ args = 0, pretend = 0, frame = 8
 1240              		@ frame_needed = 0, uses_anonymous_args = 0
 1241              	.LVL134:
 1242 0650 00B5     		push	{lr}
 1243              		.cfi_def_cfa_offset 4
 1244              		.cfi_offset 14, -4
 1245 0652 83B0     		sub	sp, sp, #12
 1246              		.cfi_def_cfa_offset 16
 863:drivers/inv_mpu_dmp_motion_driver.c ****     unsigned char tmp[2];
 864:drivers/inv_mpu_dmp_motion_driver.c **** 
 865:drivers/inv_mpu_dmp_motion_driver.c ****     time /= (1000 / DMP_SAMPLE_RATE);
 1247              		.loc 1 865 0
 1248 0654 084B     		ldr	r3, .L97
 1249 0656 A3FB0030 		umull	r3, r0, r3, r0
 1250              	.LVL135:
 1251 065a 8008     		lsrs	r0, r0, #2
 1252              	.LVL136:
 866:drivers/inv_mpu_dmp_motion_driver.c ****     tmp[0] = time >> 8;
 1253              		.loc 1 866 0
 1254 065c 030A     		lsrs	r3, r0, #8
 1255 065e 8DF80430 		strb	r3, [sp, #4]
 867:drivers/inv_mpu_dmp_motion_driver.c ****     tmp[1] = time & 0xFF;
 1256              		.loc 1 867 0
 1257 0662 8DF80500 		strb	r0, [sp, #5]
 868:drivers/inv_mpu_dmp_motion_driver.c ****     return mpu_write_mem(D_1_90,2,tmp);
 1258              		.loc 1 868 0
 1259 0666 01AA     		add	r2, sp, #4
 1260 0668 0221     		movs	r1, #2
 1261 066a 4FF4AD70 		mov	r0, #346
 1262              	.LVL137:
 1263 066e FFF7FEFF 		bl	mpu_write_mem
 1264              	.LVL138:
ARM GAS  /tmp/ccBPBbjw.s 			page 39


 869:drivers/inv_mpu_dmp_motion_driver.c **** }
 1265              		.loc 1 869 0
 1266 0672 03B0     		add	sp, sp, #12
 1267              		.cfi_def_cfa_offset 4
 1268              		@ sp needed
 1269 0674 5DF804FB 		ldr	pc, [sp], #4
 1270              	.L98:
 1271              		.align	2
 1272              	.L97:
 1273 0678 CDCCCCCC 		.word	-858993459
 1274              		.cfi_endproc
 1275              	.LFE76:
 1276              		.size	dmp_set_shake_reject_time, .-dmp_set_shake_reject_time
 1277              		.align	1
 1278              		.global	dmp_set_shake_reject_timeout
 1279              		.syntax unified
 1280              		.thumb
 1281              		.thumb_func
 1282              		.fpu softvfp
 1283              		.type	dmp_set_shake_reject_timeout, %function
 1284              	dmp_set_shake_reject_timeout:
 1285              	.LFB77:
 870:drivers/inv_mpu_dmp_motion_driver.c **** 
 871:drivers/inv_mpu_dmp_motion_driver.c **** /**
 872:drivers/inv_mpu_dmp_motion_driver.c ****  *  @brief      Set shake rejection timeout.
 873:drivers/inv_mpu_dmp_motion_driver.c ****  *  Sets the length of time after a shake rejection that the gyro must stay
 874:drivers/inv_mpu_dmp_motion_driver.c ****  *  inside of the threshold before taps can be detected again. A mandatory
 875:drivers/inv_mpu_dmp_motion_driver.c ****  *  60 ms is added to this parameter.
 876:drivers/inv_mpu_dmp_motion_driver.c ****  *  @param[in]  time    Time in milliseconds.
 877:drivers/inv_mpu_dmp_motion_driver.c ****  *  @return     0 if successful.
 878:drivers/inv_mpu_dmp_motion_driver.c ****  */
 879:drivers/inv_mpu_dmp_motion_driver.c **** int dmp_set_shake_reject_timeout(unsigned short time)
 880:drivers/inv_mpu_dmp_motion_driver.c **** {
 1286              		.loc 1 880 0
 1287              		.cfi_startproc
 1288              		@ args = 0, pretend = 0, frame = 8
 1289              		@ frame_needed = 0, uses_anonymous_args = 0
 1290              	.LVL139:
 1291 067c 00B5     		push	{lr}
 1292              		.cfi_def_cfa_offset 4
 1293              		.cfi_offset 14, -4
 1294 067e 83B0     		sub	sp, sp, #12
 1295              		.cfi_def_cfa_offset 16
 881:drivers/inv_mpu_dmp_motion_driver.c ****     unsigned char tmp[2];
 882:drivers/inv_mpu_dmp_motion_driver.c **** 
 883:drivers/inv_mpu_dmp_motion_driver.c ****     time /= (1000 / DMP_SAMPLE_RATE);
 1296              		.loc 1 883 0
 1297 0680 084B     		ldr	r3, .L101
 1298 0682 A3FB0030 		umull	r3, r0, r3, r0
 1299              	.LVL140:
 1300 0686 8008     		lsrs	r0, r0, #2
 1301              	.LVL141:
 884:drivers/inv_mpu_dmp_motion_driver.c ****     tmp[0] = time >> 8;
 1302              		.loc 1 884 0
 1303 0688 030A     		lsrs	r3, r0, #8
 1304 068a 8DF80430 		strb	r3, [sp, #4]
 885:drivers/inv_mpu_dmp_motion_driver.c ****     tmp[1] = time & 0xFF;
ARM GAS  /tmp/ccBPBbjw.s 			page 40


 1305              		.loc 1 885 0
 1306 068e 8DF80500 		strb	r0, [sp, #5]
 886:drivers/inv_mpu_dmp_motion_driver.c ****     return mpu_write_mem(D_1_88,2,tmp);
 1307              		.loc 1 886 0
 1308 0692 01AA     		add	r2, sp, #4
 1309 0694 0221     		movs	r1, #2
 1310 0696 4FF4AC70 		mov	r0, #344
 1311              	.LVL142:
 1312 069a FFF7FEFF 		bl	mpu_write_mem
 1313              	.LVL143:
 887:drivers/inv_mpu_dmp_motion_driver.c **** }
 1314              		.loc 1 887 0
 1315 069e 03B0     		add	sp, sp, #12
 1316              		.cfi_def_cfa_offset 4
 1317              		@ sp needed
 1318 06a0 5DF804FB 		ldr	pc, [sp], #4
 1319              	.L102:
 1320              		.align	2
 1321              	.L101:
 1322 06a4 CDCCCCCC 		.word	-858993459
 1323              		.cfi_endproc
 1324              	.LFE77:
 1325              		.size	dmp_set_shake_reject_timeout, .-dmp_set_shake_reject_timeout
 1326              		.align	1
 1327              		.global	dmp_get_pedometer_step_count
 1328              		.syntax unified
 1329              		.thumb
 1330              		.thumb_func
 1331              		.fpu softvfp
 1332              		.type	dmp_get_pedometer_step_count, %function
 1333              	dmp_get_pedometer_step_count:
 1334              	.LFB78:
 888:drivers/inv_mpu_dmp_motion_driver.c **** 
 889:drivers/inv_mpu_dmp_motion_driver.c **** /**
 890:drivers/inv_mpu_dmp_motion_driver.c ****  *  @brief      Get current step count.
 891:drivers/inv_mpu_dmp_motion_driver.c ****  *  @param[out] count   Number of steps detected.
 892:drivers/inv_mpu_dmp_motion_driver.c ****  *  @return     0 if successful.
 893:drivers/inv_mpu_dmp_motion_driver.c ****  */
 894:drivers/inv_mpu_dmp_motion_driver.c **** int dmp_get_pedometer_step_count(unsigned long *count)
 895:drivers/inv_mpu_dmp_motion_driver.c **** {
 1335              		.loc 1 895 0
 1336              		.cfi_startproc
 1337              		@ args = 0, pretend = 0, frame = 8
 1338              		@ frame_needed = 0, uses_anonymous_args = 0
 1339              	.LVL144:
 896:drivers/inv_mpu_dmp_motion_driver.c ****     unsigned char tmp[4];
 897:drivers/inv_mpu_dmp_motion_driver.c ****     if (!count)
 1340              		.loc 1 897 0
 1341 06a8 E0B1     		cbz	r0, .L105
 895:drivers/inv_mpu_dmp_motion_driver.c ****     unsigned char tmp[4];
 1342              		.loc 1 895 0
 1343 06aa 10B5     		push	{r4, lr}
 1344              		.cfi_def_cfa_offset 8
 1345              		.cfi_offset 4, -8
 1346              		.cfi_offset 14, -4
 1347 06ac 82B0     		sub	sp, sp, #8
 1348              		.cfi_def_cfa_offset 16
ARM GAS  /tmp/ccBPBbjw.s 			page 41


 1349 06ae 0446     		mov	r4, r0
 898:drivers/inv_mpu_dmp_motion_driver.c ****         return -1;
 899:drivers/inv_mpu_dmp_motion_driver.c **** 
 900:drivers/inv_mpu_dmp_motion_driver.c ****     if (mpu_read_mem(D_PEDSTD_STEPCTR, 4, tmp))
 1350              		.loc 1 900 0
 1351 06b0 01AA     		add	r2, sp, #4
 1352 06b2 0421     		movs	r1, #4
 1353 06b4 4FF45870 		mov	r0, #864
 1354              	.LVL145:
 1355 06b8 FFF7FEFF 		bl	mpu_read_mem
 1356              	.LVL146:
 1357 06bc 0246     		mov	r2, r0
 1358 06be A8B9     		cbnz	r0, .L106
 901:drivers/inv_mpu_dmp_motion_driver.c ****         return -1;
 902:drivers/inv_mpu_dmp_motion_driver.c **** 
 903:drivers/inv_mpu_dmp_motion_driver.c ****     count[0] = ((unsigned long)tmp[0] << 24) | ((unsigned long)tmp[1] << 16) |
 1359              		.loc 1 903 0
 1360 06c0 9DF80410 		ldrb	r1, [sp, #4]	@ zero_extendqisi2
 1361 06c4 9DF80530 		ldrb	r3, [sp, #5]	@ zero_extendqisi2
 1362 06c8 1B04     		lsls	r3, r3, #16
 1363 06ca 43EA0163 		orr	r3, r3, r1, lsl #24
 904:drivers/inv_mpu_dmp_motion_driver.c ****         ((unsigned long)tmp[2] << 8) | tmp[3];
 1364              		.loc 1 904 0
 1365 06ce 9DF80710 		ldrb	r1, [sp, #7]	@ zero_extendqisi2
 1366 06d2 0B43     		orrs	r3, r3, r1
 1367 06d4 9DF80610 		ldrb	r1, [sp, #6]	@ zero_extendqisi2
 1368 06d8 43EA0123 		orr	r3, r3, r1, lsl #8
 903:drivers/inv_mpu_dmp_motion_driver.c ****         ((unsigned long)tmp[2] << 8) | tmp[3];
 1369              		.loc 1 903 0
 1370 06dc 2360     		str	r3, [r4]
 1371              	.L103:
 905:drivers/inv_mpu_dmp_motion_driver.c ****     return 0;
 906:drivers/inv_mpu_dmp_motion_driver.c **** }
 1372              		.loc 1 906 0
 1373 06de 1046     		mov	r0, r2
 1374 06e0 02B0     		add	sp, sp, #8
 1375              		.cfi_def_cfa_offset 8
 1376              		@ sp needed
 1377 06e2 10BD     		pop	{r4, pc}
 1378              	.LVL147:
 1379              	.L105:
 1380              		.cfi_def_cfa_offset 0
 1381              		.cfi_restore 4
 1382              		.cfi_restore 14
 898:drivers/inv_mpu_dmp_motion_driver.c **** 
 1383              		.loc 1 898 0
 1384 06e4 4FF0FF32 		mov	r2, #-1
 1385              		.loc 1 906 0
 1386 06e8 1046     		mov	r0, r2
 1387              	.LVL148:
 1388 06ea 7047     		bx	lr
 1389              	.LVL149:
 1390              	.L106:
 1391              		.cfi_def_cfa_offset 16
 1392              		.cfi_offset 4, -8
 1393              		.cfi_offset 14, -4
 901:drivers/inv_mpu_dmp_motion_driver.c **** 
ARM GAS  /tmp/ccBPBbjw.s 			page 42


 1394              		.loc 1 901 0
 1395 06ec 4FF0FF32 		mov	r2, #-1
 1396 06f0 F5E7     		b	.L103
 1397              		.cfi_endproc
 1398              	.LFE78:
 1399              		.size	dmp_get_pedometer_step_count, .-dmp_get_pedometer_step_count
 1400              		.align	1
 1401              		.global	dmp_set_pedometer_step_count
 1402              		.syntax unified
 1403              		.thumb
 1404              		.thumb_func
 1405              		.fpu softvfp
 1406              		.type	dmp_set_pedometer_step_count, %function
 1407              	dmp_set_pedometer_step_count:
 1408              	.LFB79:
 907:drivers/inv_mpu_dmp_motion_driver.c **** 
 908:drivers/inv_mpu_dmp_motion_driver.c **** /**
 909:drivers/inv_mpu_dmp_motion_driver.c ****  *  @brief      Overwrite current step count.
 910:drivers/inv_mpu_dmp_motion_driver.c ****  *  WARNING: This function writes to DMP memory and could potentially encounter
 911:drivers/inv_mpu_dmp_motion_driver.c ****  *  a race condition if called while the pedometer is enabled.
 912:drivers/inv_mpu_dmp_motion_driver.c ****  *  @param[in]  count   New step count.
 913:drivers/inv_mpu_dmp_motion_driver.c ****  *  @return     0 if successful.
 914:drivers/inv_mpu_dmp_motion_driver.c ****  */
 915:drivers/inv_mpu_dmp_motion_driver.c **** int dmp_set_pedometer_step_count(unsigned long count)
 916:drivers/inv_mpu_dmp_motion_driver.c **** {
 1409              		.loc 1 916 0
 1410              		.cfi_startproc
 1411              		@ args = 0, pretend = 0, frame = 8
 1412              		@ frame_needed = 0, uses_anonymous_args = 0
 1413              	.LVL150:
 1414 06f2 00B5     		push	{lr}
 1415              		.cfi_def_cfa_offset 4
 1416              		.cfi_offset 14, -4
 1417 06f4 83B0     		sub	sp, sp, #12
 1418              		.cfi_def_cfa_offset 16
 917:drivers/inv_mpu_dmp_motion_driver.c ****     unsigned char tmp[4];
 918:drivers/inv_mpu_dmp_motion_driver.c **** 
 919:drivers/inv_mpu_dmp_motion_driver.c ****     tmp[0] = (unsigned char)((count >> 24) & 0xFF);
 1419              		.loc 1 919 0
 1420 06f6 030E     		lsrs	r3, r0, #24
 1421 06f8 8DF80430 		strb	r3, [sp, #4]
 920:drivers/inv_mpu_dmp_motion_driver.c ****     tmp[1] = (unsigned char)((count >> 16) & 0xFF);
 1422              		.loc 1 920 0
 1423 06fc 030C     		lsrs	r3, r0, #16
 1424 06fe 8DF80530 		strb	r3, [sp, #5]
 921:drivers/inv_mpu_dmp_motion_driver.c ****     tmp[2] = (unsigned char)((count >> 8) & 0xFF);
 1425              		.loc 1 921 0
 1426 0702 030A     		lsrs	r3, r0, #8
 1427 0704 8DF80630 		strb	r3, [sp, #6]
 922:drivers/inv_mpu_dmp_motion_driver.c ****     tmp[3] = (unsigned char)(count & 0xFF);
 1428              		.loc 1 922 0
 1429 0708 8DF80700 		strb	r0, [sp, #7]
 923:drivers/inv_mpu_dmp_motion_driver.c ****     return mpu_write_mem(D_PEDSTD_STEPCTR, 4, tmp);
 1430              		.loc 1 923 0
 1431 070c 01AA     		add	r2, sp, #4
 1432 070e 0421     		movs	r1, #4
 1433 0710 4FF45870 		mov	r0, #864
ARM GAS  /tmp/ccBPBbjw.s 			page 43


 1434              	.LVL151:
 1435 0714 FFF7FEFF 		bl	mpu_write_mem
 1436              	.LVL152:
 924:drivers/inv_mpu_dmp_motion_driver.c **** }
 1437              		.loc 1 924 0
 1438 0718 03B0     		add	sp, sp, #12
 1439              		.cfi_def_cfa_offset 4
 1440              		@ sp needed
 1441 071a 5DF804FB 		ldr	pc, [sp], #4
 1442              		.cfi_endproc
 1443              	.LFE79:
 1444              		.size	dmp_set_pedometer_step_count, .-dmp_set_pedometer_step_count
 1445              		.align	1
 1446              		.global	dmp_get_pedometer_walk_time
 1447              		.syntax unified
 1448              		.thumb
 1449              		.thumb_func
 1450              		.fpu softvfp
 1451              		.type	dmp_get_pedometer_walk_time, %function
 1452              	dmp_get_pedometer_walk_time:
 1453              	.LFB80:
 925:drivers/inv_mpu_dmp_motion_driver.c **** 
 926:drivers/inv_mpu_dmp_motion_driver.c **** /**
 927:drivers/inv_mpu_dmp_motion_driver.c ****  *  @brief      Get duration of walking time.
 928:drivers/inv_mpu_dmp_motion_driver.c ****  *  @param[in]  time    Walk time in milliseconds.
 929:drivers/inv_mpu_dmp_motion_driver.c ****  *  @return     0 if successful.
 930:drivers/inv_mpu_dmp_motion_driver.c ****  */
 931:drivers/inv_mpu_dmp_motion_driver.c **** int dmp_get_pedometer_walk_time(unsigned long *time)
 932:drivers/inv_mpu_dmp_motion_driver.c **** {
 1454              		.loc 1 932 0
 1455              		.cfi_startproc
 1456              		@ args = 0, pretend = 0, frame = 8
 1457              		@ frame_needed = 0, uses_anonymous_args = 0
 1458              	.LVL153:
 933:drivers/inv_mpu_dmp_motion_driver.c ****     unsigned char tmp[4];
 934:drivers/inv_mpu_dmp_motion_driver.c ****     if (!time)
 1459              		.loc 1 934 0
 1460 071e F8B1     		cbz	r0, .L115
 932:drivers/inv_mpu_dmp_motion_driver.c ****     unsigned char tmp[4];
 1461              		.loc 1 932 0
 1462 0720 10B5     		push	{r4, lr}
 1463              		.cfi_def_cfa_offset 8
 1464              		.cfi_offset 4, -8
 1465              		.cfi_offset 14, -4
 1466 0722 82B0     		sub	sp, sp, #8
 1467              		.cfi_def_cfa_offset 16
 1468 0724 0446     		mov	r4, r0
 935:drivers/inv_mpu_dmp_motion_driver.c ****         return -1;
 936:drivers/inv_mpu_dmp_motion_driver.c **** 
 937:drivers/inv_mpu_dmp_motion_driver.c ****     if (mpu_read_mem(D_PEDSTD_TIMECTR, 4, tmp))
 1469              		.loc 1 937 0
 1470 0726 01AA     		add	r2, sp, #4
 1471 0728 0421     		movs	r1, #4
 1472 072a 4FF47170 		mov	r0, #964
 1473              	.LVL154:
 1474 072e FFF7FEFF 		bl	mpu_read_mem
 1475              	.LVL155:
ARM GAS  /tmp/ccBPBbjw.s 			page 44


 1476 0732 0246     		mov	r2, r0
 1477 0734 C0B9     		cbnz	r0, .L116
 938:drivers/inv_mpu_dmp_motion_driver.c ****         return -1;
 939:drivers/inv_mpu_dmp_motion_driver.c **** 
 940:drivers/inv_mpu_dmp_motion_driver.c ****     time[0] = (((unsigned long)tmp[0] << 24) | ((unsigned long)tmp[1] << 16) |
 1478              		.loc 1 940 0
 1479 0736 9DF80410 		ldrb	r1, [sp, #4]	@ zero_extendqisi2
 1480 073a 9DF80530 		ldrb	r3, [sp, #5]	@ zero_extendqisi2
 1481 073e 1B04     		lsls	r3, r3, #16
 1482 0740 43EA0163 		orr	r3, r3, r1, lsl #24
 941:drivers/inv_mpu_dmp_motion_driver.c ****         ((unsigned long)tmp[2] << 8) | tmp[3]) * 20;
 1483              		.loc 1 941 0
 1484 0744 9DF80710 		ldrb	r1, [sp, #7]	@ zero_extendqisi2
 1485 0748 0B43     		orrs	r3, r3, r1
 1486 074a 9DF80610 		ldrb	r1, [sp, #6]	@ zero_extendqisi2
 1487 074e 43EA0123 		orr	r3, r3, r1, lsl #8
 1488 0752 03EB8303 		add	r3, r3, r3, lsl #2
 1489 0756 9B00     		lsls	r3, r3, #2
 940:drivers/inv_mpu_dmp_motion_driver.c ****         ((unsigned long)tmp[2] << 8) | tmp[3]) * 20;
 1490              		.loc 1 940 0
 1491 0758 2360     		str	r3, [r4]
 1492              	.L113:
 942:drivers/inv_mpu_dmp_motion_driver.c ****     return 0;
 943:drivers/inv_mpu_dmp_motion_driver.c **** }
 1493              		.loc 1 943 0
 1494 075a 1046     		mov	r0, r2
 1495 075c 02B0     		add	sp, sp, #8
 1496              		.cfi_def_cfa_offset 8
 1497              		@ sp needed
 1498 075e 10BD     		pop	{r4, pc}
 1499              	.LVL156:
 1500              	.L115:
 1501              		.cfi_def_cfa_offset 0
 1502              		.cfi_restore 4
 1503              		.cfi_restore 14
 935:drivers/inv_mpu_dmp_motion_driver.c **** 
 1504              		.loc 1 935 0
 1505 0760 4FF0FF32 		mov	r2, #-1
 1506              		.loc 1 943 0
 1507 0764 1046     		mov	r0, r2
 1508              	.LVL157:
 1509 0766 7047     		bx	lr
 1510              	.LVL158:
 1511              	.L116:
 1512              		.cfi_def_cfa_offset 16
 1513              		.cfi_offset 4, -8
 1514              		.cfi_offset 14, -4
 938:drivers/inv_mpu_dmp_motion_driver.c **** 
 1515              		.loc 1 938 0
 1516 0768 4FF0FF32 		mov	r2, #-1
 1517 076c F5E7     		b	.L113
 1518              		.cfi_endproc
 1519              	.LFE80:
 1520              		.size	dmp_get_pedometer_walk_time, .-dmp_get_pedometer_walk_time
 1521              		.align	1
 1522              		.global	dmp_set_pedometer_walk_time
 1523              		.syntax unified
ARM GAS  /tmp/ccBPBbjw.s 			page 45


 1524              		.thumb
 1525              		.thumb_func
 1526              		.fpu softvfp
 1527              		.type	dmp_set_pedometer_walk_time, %function
 1528              	dmp_set_pedometer_walk_time:
 1529              	.LFB81:
 944:drivers/inv_mpu_dmp_motion_driver.c **** 
 945:drivers/inv_mpu_dmp_motion_driver.c **** /**
 946:drivers/inv_mpu_dmp_motion_driver.c ****  *  @brief      Overwrite current walk time.
 947:drivers/inv_mpu_dmp_motion_driver.c ****  *  WARNING: This function writes to DMP memory and could potentially encounter
 948:drivers/inv_mpu_dmp_motion_driver.c ****  *  a race condition if called while the pedometer is enabled.
 949:drivers/inv_mpu_dmp_motion_driver.c ****  *  @param[in]  time    New walk time in milliseconds.
 950:drivers/inv_mpu_dmp_motion_driver.c ****  */
 951:drivers/inv_mpu_dmp_motion_driver.c **** int dmp_set_pedometer_walk_time(unsigned long time)
 952:drivers/inv_mpu_dmp_motion_driver.c **** {
 1530              		.loc 1 952 0
 1531              		.cfi_startproc
 1532              		@ args = 0, pretend = 0, frame = 8
 1533              		@ frame_needed = 0, uses_anonymous_args = 0
 1534              	.LVL159:
 1535 076e 00B5     		push	{lr}
 1536              		.cfi_def_cfa_offset 4
 1537              		.cfi_offset 14, -4
 1538 0770 83B0     		sub	sp, sp, #12
 1539              		.cfi_def_cfa_offset 16
 953:drivers/inv_mpu_dmp_motion_driver.c ****     unsigned char tmp[4];
 954:drivers/inv_mpu_dmp_motion_driver.c **** 
 955:drivers/inv_mpu_dmp_motion_driver.c ****     time /= 20;
 1540              		.loc 1 955 0
 1541 0772 0C4B     		ldr	r3, .L123
 1542 0774 A3FB0030 		umull	r3, r0, r3, r0
 1543              	.LVL160:
 1544 0778 0309     		lsrs	r3, r0, #4
 1545              	.LVL161:
 956:drivers/inv_mpu_dmp_motion_driver.c **** 
 957:drivers/inv_mpu_dmp_motion_driver.c ****     tmp[0] = (unsigned char)((time >> 24) & 0xFF);
 1546              		.loc 1 957 0
 1547 077a 020F     		lsrs	r2, r0, #28
 1548 077c 8DF80420 		strb	r2, [sp, #4]
 958:drivers/inv_mpu_dmp_motion_driver.c ****     tmp[1] = (unsigned char)((time >> 16) & 0xFF);
 1549              		.loc 1 958 0
 1550 0780 020D     		lsrs	r2, r0, #20
 1551 0782 8DF80520 		strb	r2, [sp, #5]
 959:drivers/inv_mpu_dmp_motion_driver.c ****     tmp[2] = (unsigned char)((time >> 8) & 0xFF);
 1552              		.loc 1 959 0
 1553 0786 000B     		lsrs	r0, r0, #12
 1554 0788 8DF80600 		strb	r0, [sp, #6]
 960:drivers/inv_mpu_dmp_motion_driver.c ****     tmp[3] = (unsigned char)(time & 0xFF);
 1555              		.loc 1 960 0
 1556 078c 8DF80730 		strb	r3, [sp, #7]
 961:drivers/inv_mpu_dmp_motion_driver.c ****     return mpu_write_mem(D_PEDSTD_TIMECTR, 4, tmp);
 1557              		.loc 1 961 0
 1558 0790 01AA     		add	r2, sp, #4
 1559 0792 0421     		movs	r1, #4
 1560 0794 4FF47170 		mov	r0, #964
 1561 0798 FFF7FEFF 		bl	mpu_write_mem
 1562              	.LVL162:
ARM GAS  /tmp/ccBPBbjw.s 			page 46


 962:drivers/inv_mpu_dmp_motion_driver.c **** }
 1563              		.loc 1 962 0
 1564 079c 03B0     		add	sp, sp, #12
 1565              		.cfi_def_cfa_offset 4
 1566              		@ sp needed
 1567 079e 5DF804FB 		ldr	pc, [sp], #4
 1568              	.L124:
 1569 07a2 00BF     		.align	2
 1570              	.L123:
 1571 07a4 CDCCCCCC 		.word	-858993459
 1572              		.cfi_endproc
 1573              	.LFE81:
 1574              		.size	dmp_set_pedometer_walk_time, .-dmp_set_pedometer_walk_time
 1575              		.align	1
 1576              		.global	dmp_get_enabled_features
 1577              		.syntax unified
 1578              		.thumb
 1579              		.thumb_func
 1580              		.fpu softvfp
 1581              		.type	dmp_get_enabled_features, %function
 1582              	dmp_get_enabled_features:
 1583              	.LFB83:
 963:drivers/inv_mpu_dmp_motion_driver.c **** 
 964:drivers/inv_mpu_dmp_motion_driver.c **** /**
 965:drivers/inv_mpu_dmp_motion_driver.c ****  *  @brief      Enable DMP features.
 966:drivers/inv_mpu_dmp_motion_driver.c ****  *  The following \#define's are used in the input mask:
 967:drivers/inv_mpu_dmp_motion_driver.c ****  *  \n DMP_FEATURE_TAP
 968:drivers/inv_mpu_dmp_motion_driver.c ****  *  \n DMP_FEATURE_ANDROID_ORIENT
 969:drivers/inv_mpu_dmp_motion_driver.c ****  *  \n DMP_FEATURE_LP_QUAT
 970:drivers/inv_mpu_dmp_motion_driver.c ****  *  \n DMP_FEATURE_6X_LP_QUAT
 971:drivers/inv_mpu_dmp_motion_driver.c ****  *  \n DMP_FEATURE_GYRO_CAL
 972:drivers/inv_mpu_dmp_motion_driver.c ****  *  \n DMP_FEATURE_SEND_RAW_ACCEL
 973:drivers/inv_mpu_dmp_motion_driver.c ****  *  \n DMP_FEATURE_SEND_RAW_GYRO
 974:drivers/inv_mpu_dmp_motion_driver.c ****  *  \n NOTE: DMP_FEATURE_LP_QUAT and DMP_FEATURE_6X_LP_QUAT are mutually
 975:drivers/inv_mpu_dmp_motion_driver.c ****  *  exclusive.
 976:drivers/inv_mpu_dmp_motion_driver.c ****  *  \n NOTE: DMP_FEATURE_SEND_RAW_GYRO and DMP_FEATURE_SEND_CAL_GYRO are also
 977:drivers/inv_mpu_dmp_motion_driver.c ****  *  mutually exclusive.
 978:drivers/inv_mpu_dmp_motion_driver.c ****  *  @param[in]  mask    Mask of features to enable.
 979:drivers/inv_mpu_dmp_motion_driver.c ****  *  @return     0 if successful.
 980:drivers/inv_mpu_dmp_motion_driver.c ****  */
 981:drivers/inv_mpu_dmp_motion_driver.c **** int dmp_enable_feature(unsigned short mask)
 982:drivers/inv_mpu_dmp_motion_driver.c **** {
 983:drivers/inv_mpu_dmp_motion_driver.c ****     unsigned char tmp[10];
 984:drivers/inv_mpu_dmp_motion_driver.c **** 
 985:drivers/inv_mpu_dmp_motion_driver.c ****     /* TODO: All of these settings can probably be integrated into the default
 986:drivers/inv_mpu_dmp_motion_driver.c ****      * DMP image.
 987:drivers/inv_mpu_dmp_motion_driver.c ****      */
 988:drivers/inv_mpu_dmp_motion_driver.c ****     /* Set integration scale factor. */
 989:drivers/inv_mpu_dmp_motion_driver.c ****     tmp[0] = (unsigned char)((GYRO_SF >> 24) & 0xFF);
 990:drivers/inv_mpu_dmp_motion_driver.c ****     tmp[1] = (unsigned char)((GYRO_SF >> 16) & 0xFF);
 991:drivers/inv_mpu_dmp_motion_driver.c ****     tmp[2] = (unsigned char)((GYRO_SF >> 8) & 0xFF);
 992:drivers/inv_mpu_dmp_motion_driver.c ****     tmp[3] = (unsigned char)(GYRO_SF & 0xFF);
 993:drivers/inv_mpu_dmp_motion_driver.c ****     mpu_write_mem(D_0_104, 4, tmp);
 994:drivers/inv_mpu_dmp_motion_driver.c **** 
 995:drivers/inv_mpu_dmp_motion_driver.c ****     /* Send sensor data to the FIFO. */
 996:drivers/inv_mpu_dmp_motion_driver.c ****     tmp[0] = 0xA3;
 997:drivers/inv_mpu_dmp_motion_driver.c ****     if (mask & DMP_FEATURE_SEND_RAW_ACCEL) {
ARM GAS  /tmp/ccBPBbjw.s 			page 47


 998:drivers/inv_mpu_dmp_motion_driver.c ****         tmp[1] = 0xC0;
 999:drivers/inv_mpu_dmp_motion_driver.c ****         tmp[2] = 0xC8;
1000:drivers/inv_mpu_dmp_motion_driver.c ****         tmp[3] = 0xC2;
1001:drivers/inv_mpu_dmp_motion_driver.c ****     } else {
1002:drivers/inv_mpu_dmp_motion_driver.c ****         tmp[1] = 0xA3;
1003:drivers/inv_mpu_dmp_motion_driver.c ****         tmp[2] = 0xA3;
1004:drivers/inv_mpu_dmp_motion_driver.c ****         tmp[3] = 0xA3;
1005:drivers/inv_mpu_dmp_motion_driver.c ****     }
1006:drivers/inv_mpu_dmp_motion_driver.c ****     if (mask & DMP_FEATURE_SEND_ANY_GYRO) {
1007:drivers/inv_mpu_dmp_motion_driver.c ****         tmp[4] = 0xC4;
1008:drivers/inv_mpu_dmp_motion_driver.c ****         tmp[5] = 0xCC;
1009:drivers/inv_mpu_dmp_motion_driver.c ****         tmp[6] = 0xC6;
1010:drivers/inv_mpu_dmp_motion_driver.c ****     } else {
1011:drivers/inv_mpu_dmp_motion_driver.c ****         tmp[4] = 0xA3;
1012:drivers/inv_mpu_dmp_motion_driver.c ****         tmp[5] = 0xA3;
1013:drivers/inv_mpu_dmp_motion_driver.c ****         tmp[6] = 0xA3;
1014:drivers/inv_mpu_dmp_motion_driver.c ****     }
1015:drivers/inv_mpu_dmp_motion_driver.c ****     tmp[7] = 0xA3;
1016:drivers/inv_mpu_dmp_motion_driver.c ****     tmp[8] = 0xA3;
1017:drivers/inv_mpu_dmp_motion_driver.c ****     tmp[9] = 0xA3;
1018:drivers/inv_mpu_dmp_motion_driver.c ****     mpu_write_mem(CFG_15,10,tmp);
1019:drivers/inv_mpu_dmp_motion_driver.c **** 
1020:drivers/inv_mpu_dmp_motion_driver.c ****     /* Send gesture data to the FIFO. */
1021:drivers/inv_mpu_dmp_motion_driver.c ****     if (mask & (DMP_FEATURE_TAP | DMP_FEATURE_ANDROID_ORIENT))
1022:drivers/inv_mpu_dmp_motion_driver.c ****         tmp[0] = DINA20;
1023:drivers/inv_mpu_dmp_motion_driver.c ****     else
1024:drivers/inv_mpu_dmp_motion_driver.c ****         tmp[0] = 0xD8;
1025:drivers/inv_mpu_dmp_motion_driver.c ****     mpu_write_mem(CFG_27,1,tmp);
1026:drivers/inv_mpu_dmp_motion_driver.c **** 
1027:drivers/inv_mpu_dmp_motion_driver.c ****     if (mask & DMP_FEATURE_GYRO_CAL)
1028:drivers/inv_mpu_dmp_motion_driver.c ****         dmp_enable_gyro_cal(1);
1029:drivers/inv_mpu_dmp_motion_driver.c ****     else
1030:drivers/inv_mpu_dmp_motion_driver.c ****         dmp_enable_gyro_cal(0);
1031:drivers/inv_mpu_dmp_motion_driver.c **** 
1032:drivers/inv_mpu_dmp_motion_driver.c ****     if (mask & DMP_FEATURE_SEND_ANY_GYRO) {
1033:drivers/inv_mpu_dmp_motion_driver.c ****         if (mask & DMP_FEATURE_SEND_CAL_GYRO) {
1034:drivers/inv_mpu_dmp_motion_driver.c ****             tmp[0] = 0xB2;
1035:drivers/inv_mpu_dmp_motion_driver.c ****             tmp[1] = 0x8B;
1036:drivers/inv_mpu_dmp_motion_driver.c ****             tmp[2] = 0xB6;
1037:drivers/inv_mpu_dmp_motion_driver.c ****             tmp[3] = 0x9B;
1038:drivers/inv_mpu_dmp_motion_driver.c ****         } else {
1039:drivers/inv_mpu_dmp_motion_driver.c ****             tmp[0] = DINAC0;
1040:drivers/inv_mpu_dmp_motion_driver.c ****             tmp[1] = DINA80;
1041:drivers/inv_mpu_dmp_motion_driver.c ****             tmp[2] = DINAC2;
1042:drivers/inv_mpu_dmp_motion_driver.c ****             tmp[3] = DINA90;
1043:drivers/inv_mpu_dmp_motion_driver.c ****         }
1044:drivers/inv_mpu_dmp_motion_driver.c ****         mpu_write_mem(CFG_GYRO_RAW_DATA, 4, tmp);
1045:drivers/inv_mpu_dmp_motion_driver.c ****     }
1046:drivers/inv_mpu_dmp_motion_driver.c **** 
1047:drivers/inv_mpu_dmp_motion_driver.c ****     if (mask & DMP_FEATURE_TAP) {
1048:drivers/inv_mpu_dmp_motion_driver.c ****         /* Enable tap. */
1049:drivers/inv_mpu_dmp_motion_driver.c ****         tmp[0] = 0xF8;
1050:drivers/inv_mpu_dmp_motion_driver.c ****         mpu_write_mem(CFG_20, 1, tmp);
1051:drivers/inv_mpu_dmp_motion_driver.c ****         dmp_set_tap_thresh(TAP_XYZ, 250);
1052:drivers/inv_mpu_dmp_motion_driver.c ****         dmp_set_tap_axes(TAP_XYZ);
1053:drivers/inv_mpu_dmp_motion_driver.c ****         dmp_set_tap_count(1);
1054:drivers/inv_mpu_dmp_motion_driver.c ****         dmp_set_tap_time(100);
ARM GAS  /tmp/ccBPBbjw.s 			page 48


1055:drivers/inv_mpu_dmp_motion_driver.c ****         dmp_set_tap_time_multi(500);
1056:drivers/inv_mpu_dmp_motion_driver.c **** 
1057:drivers/inv_mpu_dmp_motion_driver.c ****         dmp_set_shake_reject_thresh(GYRO_SF, 200);
1058:drivers/inv_mpu_dmp_motion_driver.c ****         dmp_set_shake_reject_time(40);
1059:drivers/inv_mpu_dmp_motion_driver.c ****         dmp_set_shake_reject_timeout(10);
1060:drivers/inv_mpu_dmp_motion_driver.c ****     } else {
1061:drivers/inv_mpu_dmp_motion_driver.c ****         tmp[0] = 0xD8;
1062:drivers/inv_mpu_dmp_motion_driver.c ****         mpu_write_mem(CFG_20, 1, tmp);
1063:drivers/inv_mpu_dmp_motion_driver.c ****     }
1064:drivers/inv_mpu_dmp_motion_driver.c **** 
1065:drivers/inv_mpu_dmp_motion_driver.c ****     if (mask & DMP_FEATURE_ANDROID_ORIENT) {
1066:drivers/inv_mpu_dmp_motion_driver.c ****         tmp[0] = 0xD9;
1067:drivers/inv_mpu_dmp_motion_driver.c ****     } else
1068:drivers/inv_mpu_dmp_motion_driver.c ****         tmp[0] = 0xD8;
1069:drivers/inv_mpu_dmp_motion_driver.c ****     mpu_write_mem(CFG_ANDROID_ORIENT_INT, 1, tmp);
1070:drivers/inv_mpu_dmp_motion_driver.c **** 
1071:drivers/inv_mpu_dmp_motion_driver.c ****     if (mask & DMP_FEATURE_LP_QUAT)
1072:drivers/inv_mpu_dmp_motion_driver.c ****         dmp_enable_lp_quat(1);
1073:drivers/inv_mpu_dmp_motion_driver.c ****     else
1074:drivers/inv_mpu_dmp_motion_driver.c ****         dmp_enable_lp_quat(0);
1075:drivers/inv_mpu_dmp_motion_driver.c **** 
1076:drivers/inv_mpu_dmp_motion_driver.c ****     if (mask & DMP_FEATURE_6X_LP_QUAT)
1077:drivers/inv_mpu_dmp_motion_driver.c ****         dmp_enable_6x_lp_quat(1);
1078:drivers/inv_mpu_dmp_motion_driver.c ****     else
1079:drivers/inv_mpu_dmp_motion_driver.c ****         dmp_enable_6x_lp_quat(0);
1080:drivers/inv_mpu_dmp_motion_driver.c **** 
1081:drivers/inv_mpu_dmp_motion_driver.c ****     /* Pedometer is always enabled. */
1082:drivers/inv_mpu_dmp_motion_driver.c ****     dmp.feature_mask = mask | DMP_FEATURE_PEDOMETER;
1083:drivers/inv_mpu_dmp_motion_driver.c ****     mpu_reset_fifo();
1084:drivers/inv_mpu_dmp_motion_driver.c **** 
1085:drivers/inv_mpu_dmp_motion_driver.c ****     dmp.packet_length = 0;
1086:drivers/inv_mpu_dmp_motion_driver.c ****     if (mask & DMP_FEATURE_SEND_RAW_ACCEL)
1087:drivers/inv_mpu_dmp_motion_driver.c ****         dmp.packet_length += 6;
1088:drivers/inv_mpu_dmp_motion_driver.c ****     if (mask & DMP_FEATURE_SEND_ANY_GYRO)
1089:drivers/inv_mpu_dmp_motion_driver.c ****         dmp.packet_length += 6;
1090:drivers/inv_mpu_dmp_motion_driver.c ****     if (mask & (DMP_FEATURE_LP_QUAT | DMP_FEATURE_6X_LP_QUAT))
1091:drivers/inv_mpu_dmp_motion_driver.c ****         dmp.packet_length += 16;
1092:drivers/inv_mpu_dmp_motion_driver.c ****     if (mask & (DMP_FEATURE_TAP | DMP_FEATURE_ANDROID_ORIENT))
1093:drivers/inv_mpu_dmp_motion_driver.c ****         dmp.packet_length += 4;
1094:drivers/inv_mpu_dmp_motion_driver.c **** 
1095:drivers/inv_mpu_dmp_motion_driver.c ****     return 0;
1096:drivers/inv_mpu_dmp_motion_driver.c **** }
1097:drivers/inv_mpu_dmp_motion_driver.c **** 
1098:drivers/inv_mpu_dmp_motion_driver.c **** /**
1099:drivers/inv_mpu_dmp_motion_driver.c ****  *  @brief      Get list of currently enabled DMP features.
1100:drivers/inv_mpu_dmp_motion_driver.c ****  *  @param[out] Mask of enabled features.
1101:drivers/inv_mpu_dmp_motion_driver.c ****  *  @return     0 if successful.
1102:drivers/inv_mpu_dmp_motion_driver.c ****  */
1103:drivers/inv_mpu_dmp_motion_driver.c **** int dmp_get_enabled_features(unsigned short *mask)
1104:drivers/inv_mpu_dmp_motion_driver.c **** {
 1584              		.loc 1 1104 0
 1585              		.cfi_startproc
 1586              		@ args = 0, pretend = 0, frame = 0
 1587              		@ frame_needed = 0, uses_anonymous_args = 0
 1588              		@ link register save eliminated.
 1589              	.LVL163:
1105:drivers/inv_mpu_dmp_motion_driver.c ****     mask[0] = dmp.feature_mask;
ARM GAS  /tmp/ccBPBbjw.s 			page 49


 1590              		.loc 1 1105 0
 1591 07a8 024B     		ldr	r3, .L126
 1592 07aa 5B89     		ldrh	r3, [r3, #10]
 1593 07ac 0380     		strh	r3, [r0]	@ movhi
1106:drivers/inv_mpu_dmp_motion_driver.c ****     return 0;
1107:drivers/inv_mpu_dmp_motion_driver.c **** }
 1594              		.loc 1 1107 0
 1595 07ae 0020     		movs	r0, #0
 1596              	.LVL164:
 1597 07b0 7047     		bx	lr
 1598              	.L127:
 1599 07b2 00BF     		.align	2
 1600              	.L126:
 1601 07b4 00000000 		.word	.LANCHOR1
 1602              		.cfi_endproc
 1603              	.LFE83:
 1604              		.size	dmp_get_enabled_features, .-dmp_get_enabled_features
 1605              		.align	1
 1606              		.global	dmp_enable_gyro_cal
 1607              		.syntax unified
 1608              		.thumb
 1609              		.thumb_func
 1610              		.fpu softvfp
 1611              		.type	dmp_enable_gyro_cal, %function
 1612              	dmp_enable_gyro_cal:
 1613              	.LFB84:
1108:drivers/inv_mpu_dmp_motion_driver.c **** 
1109:drivers/inv_mpu_dmp_motion_driver.c **** /**
1110:drivers/inv_mpu_dmp_motion_driver.c ****  *  @brief      Calibrate the gyro data in the DMP.
1111:drivers/inv_mpu_dmp_motion_driver.c ****  *  After eight seconds of no motion, the DMP will compute gyro biases and
1112:drivers/inv_mpu_dmp_motion_driver.c ****  *  subtract them from the quaternion output. If @e dmp_enable_feature is
1113:drivers/inv_mpu_dmp_motion_driver.c ****  *  called with @e DMP_FEATURE_SEND_CAL_GYRO, the biases will also be
1114:drivers/inv_mpu_dmp_motion_driver.c ****  *  subtracted from the gyro output.
1115:drivers/inv_mpu_dmp_motion_driver.c ****  *  @param[in]  enable  1 to enable gyro calibration.
1116:drivers/inv_mpu_dmp_motion_driver.c ****  *  @return     0 if successful.
1117:drivers/inv_mpu_dmp_motion_driver.c ****  */
1118:drivers/inv_mpu_dmp_motion_driver.c **** int dmp_enable_gyro_cal(unsigned char enable)
1119:drivers/inv_mpu_dmp_motion_driver.c **** {
 1614              		.loc 1 1119 0
 1615              		.cfi_startproc
 1616              		@ args = 0, pretend = 0, frame = 16
 1617              		@ frame_needed = 0, uses_anonymous_args = 0
 1618              	.LVL165:
 1619 07b8 00B5     		push	{lr}
 1620              		.cfi_def_cfa_offset 4
 1621              		.cfi_offset 14, -4
 1622 07ba 85B0     		sub	sp, sp, #20
 1623              		.cfi_def_cfa_offset 24
1120:drivers/inv_mpu_dmp_motion_driver.c ****     if (enable) {
 1624              		.loc 1 1120 0
 1625 07bc 78B9     		cbnz	r0, .L132
 1626              	.LBB2:
1121:drivers/inv_mpu_dmp_motion_driver.c ****         unsigned char regs[9] = {0xb8, 0xaa, 0xb3, 0x8d, 0xb4, 0x98, 0x0d, 0x35, 0x5d};
1122:drivers/inv_mpu_dmp_motion_driver.c ****         return mpu_write_mem(CFG_MOTION_BIAS, 9, regs);
1123:drivers/inv_mpu_dmp_motion_driver.c ****     } else {
1124:drivers/inv_mpu_dmp_motion_driver.c ****         unsigned char regs[9] = {0xb8, 0xaa, 0xaa, 0xaa, 0xb0, 0x88, 0xc3, 0xc5, 0xc7};
 1627              		.loc 1 1124 0
ARM GAS  /tmp/ccBPBbjw.s 			page 50


 1628 07be 01AB     		add	r3, sp, #4
 1629 07c0 0E4A     		ldr	r2, .L133
 1630 07c2 1068     		ldr	r0, [r2]	@ unaligned
 1631              	.LVL166:
 1632 07c4 5168     		ldr	r1, [r2, #4]	@ unaligned
 1633 07c6 03C3     		stmia	r3!, {r0, r1}
 1634 07c8 127A     		ldrb	r2, [r2, #8]	@ zero_extendqisi2
 1635 07ca 1A70     		strb	r2, [r3]
1125:drivers/inv_mpu_dmp_motion_driver.c ****         return mpu_write_mem(CFG_MOTION_BIAS, 9, regs);
 1636              		.loc 1 1125 0
 1637 07cc 01AA     		add	r2, sp, #4
 1638 07ce 0921     		movs	r1, #9
 1639 07d0 4FF49760 		mov	r0, #1208
 1640 07d4 FFF7FEFF 		bl	mpu_write_mem
 1641              	.LVL167:
 1642              	.L128:
 1643              	.LBE2:
1126:drivers/inv_mpu_dmp_motion_driver.c ****     }
1127:drivers/inv_mpu_dmp_motion_driver.c **** }
 1644              		.loc 1 1127 0
 1645 07d8 05B0     		add	sp, sp, #20
 1646              		.cfi_remember_state
 1647              		.cfi_def_cfa_offset 4
 1648              		@ sp needed
 1649 07da 5DF804FB 		ldr	pc, [sp], #4
 1650              	.LVL168:
 1651              	.L132:
 1652              		.cfi_restore_state
 1653              	.LBB3:
1121:drivers/inv_mpu_dmp_motion_driver.c ****         return mpu_write_mem(CFG_MOTION_BIAS, 9, regs);
 1654              		.loc 1 1121 0
 1655 07de 01AB     		add	r3, sp, #4
 1656 07e0 074A     		ldr	r2, .L133+4
 1657 07e2 1068     		ldr	r0, [r2]	@ unaligned
 1658              	.LVL169:
 1659 07e4 5168     		ldr	r1, [r2, #4]	@ unaligned
 1660 07e6 03C3     		stmia	r3!, {r0, r1}
 1661 07e8 127A     		ldrb	r2, [r2, #8]	@ zero_extendqisi2
 1662 07ea 1A70     		strb	r2, [r3]
1122:drivers/inv_mpu_dmp_motion_driver.c ****     } else {
 1663              		.loc 1 1122 0
 1664 07ec 01AA     		add	r2, sp, #4
 1665 07ee 0921     		movs	r1, #9
 1666 07f0 4FF49760 		mov	r0, #1208
 1667 07f4 FFF7FEFF 		bl	mpu_write_mem
 1668              	.LVL170:
 1669 07f8 EEE7     		b	.L128
 1670              	.L134:
 1671 07fa 00BF     		.align	2
 1672              	.L133:
 1673 07fc 100C0000 		.word	.LANCHOR0+3088
 1674 0800 040C0000 		.word	.LANCHOR0+3076
 1675              	.LBE3:
 1676              		.cfi_endproc
 1677              	.LFE84:
 1678              		.size	dmp_enable_gyro_cal, .-dmp_enable_gyro_cal
 1679              		.align	1
ARM GAS  /tmp/ccBPBbjw.s 			page 51


 1680              		.global	dmp_enable_lp_quat
 1681              		.syntax unified
 1682              		.thumb
 1683              		.thumb_func
 1684              		.fpu softvfp
 1685              		.type	dmp_enable_lp_quat, %function
 1686              	dmp_enable_lp_quat:
 1687              	.LFB85:
1128:drivers/inv_mpu_dmp_motion_driver.c **** 
1129:drivers/inv_mpu_dmp_motion_driver.c **** /**
1130:drivers/inv_mpu_dmp_motion_driver.c ****  *  @brief      Generate 3-axis quaternions from the DMP.
1131:drivers/inv_mpu_dmp_motion_driver.c ****  *  In this driver, the 3-axis and 6-axis DMP quaternion features are mutually
1132:drivers/inv_mpu_dmp_motion_driver.c ****  *  exclusive.
1133:drivers/inv_mpu_dmp_motion_driver.c ****  *  @param[in]  enable  1 to enable 3-axis quaternion.
1134:drivers/inv_mpu_dmp_motion_driver.c ****  *  @return     0 if successful.
1135:drivers/inv_mpu_dmp_motion_driver.c ****  */
1136:drivers/inv_mpu_dmp_motion_driver.c **** int dmp_enable_lp_quat(unsigned char enable)
1137:drivers/inv_mpu_dmp_motion_driver.c **** {
 1688              		.loc 1 1137 0
 1689              		.cfi_startproc
 1690              		@ args = 0, pretend = 0, frame = 8
 1691              		@ frame_needed = 0, uses_anonymous_args = 0
 1692              	.LVL171:
 1693 0804 00B5     		push	{lr}
 1694              		.cfi_def_cfa_offset 4
 1695              		.cfi_offset 14, -4
 1696 0806 83B0     		sub	sp, sp, #12
 1697              		.cfi_def_cfa_offset 16
1138:drivers/inv_mpu_dmp_motion_driver.c ****     unsigned char regs[4];
1139:drivers/inv_mpu_dmp_motion_driver.c ****     if (enable) {
 1698              		.loc 1 1139 0
 1699 0808 B0B1     		cbz	r0, .L136
1140:drivers/inv_mpu_dmp_motion_driver.c ****         regs[0] = DINBC0;
 1700              		.loc 1 1140 0
 1701 080a C023     		movs	r3, #192
 1702 080c 8DF80430 		strb	r3, [sp, #4]
1141:drivers/inv_mpu_dmp_motion_driver.c ****         regs[1] = DINBC2;
 1703              		.loc 1 1141 0
 1704 0810 C223     		movs	r3, #194
 1705 0812 8DF80530 		strb	r3, [sp, #5]
1142:drivers/inv_mpu_dmp_motion_driver.c ****         regs[2] = DINBC4;
 1706              		.loc 1 1142 0
 1707 0816 C423     		movs	r3, #196
 1708 0818 8DF80630 		strb	r3, [sp, #6]
1143:drivers/inv_mpu_dmp_motion_driver.c ****         regs[3] = DINBC6;
 1709              		.loc 1 1143 0
 1710 081c C623     		movs	r3, #198
 1711 081e 8DF80730 		strb	r3, [sp, #7]
 1712              	.L137:
1144:drivers/inv_mpu_dmp_motion_driver.c ****     }
1145:drivers/inv_mpu_dmp_motion_driver.c ****     else
1146:drivers/inv_mpu_dmp_motion_driver.c ****         memset(regs, 0x8B, 4);
1147:drivers/inv_mpu_dmp_motion_driver.c **** 
1148:drivers/inv_mpu_dmp_motion_driver.c ****     mpu_write_mem(CFG_LP_QUAT, 4, regs);
 1713              		.loc 1 1148 0
 1714 0822 01AA     		add	r2, sp, #4
 1715 0824 0421     		movs	r1, #4
ARM GAS  /tmp/ccBPBbjw.s 			page 52


 1716 0826 40F69820 		movw	r0, #2712
 1717              	.LVL172:
 1718 082a FFF7FEFF 		bl	mpu_write_mem
 1719              	.LVL173:
1149:drivers/inv_mpu_dmp_motion_driver.c **** 
1150:drivers/inv_mpu_dmp_motion_driver.c ****     return mpu_reset_fifo();
 1720              		.loc 1 1150 0
 1721 082e FFF7FEFF 		bl	mpu_reset_fifo
 1722              	.LVL174:
1151:drivers/inv_mpu_dmp_motion_driver.c **** }
 1723              		.loc 1 1151 0
 1724 0832 03B0     		add	sp, sp, #12
 1725              		.cfi_remember_state
 1726              		.cfi_def_cfa_offset 4
 1727              		@ sp needed
 1728 0834 5DF804FB 		ldr	pc, [sp], #4
 1729              	.LVL175:
 1730              	.L136:
 1731              		.cfi_restore_state
1146:drivers/inv_mpu_dmp_motion_driver.c **** 
 1732              		.loc 1 1146 0
 1733 0838 4FF08B33 		mov	r3, #-1953789045
 1734 083c 0193     		str	r3, [sp, #4]
 1735 083e F0E7     		b	.L137
 1736              		.cfi_endproc
 1737              	.LFE85:
 1738              		.size	dmp_enable_lp_quat, .-dmp_enable_lp_quat
 1739              		.align	1
 1740              		.global	dmp_enable_6x_lp_quat
 1741              		.syntax unified
 1742              		.thumb
 1743              		.thumb_func
 1744              		.fpu softvfp
 1745              		.type	dmp_enable_6x_lp_quat, %function
 1746              	dmp_enable_6x_lp_quat:
 1747              	.LFB86:
1152:drivers/inv_mpu_dmp_motion_driver.c **** 
1153:drivers/inv_mpu_dmp_motion_driver.c **** /**
1154:drivers/inv_mpu_dmp_motion_driver.c ****  *  @brief       Generate 6-axis quaternions from the DMP.
1155:drivers/inv_mpu_dmp_motion_driver.c ****  *  In this driver, the 3-axis and 6-axis DMP quaternion features are mutually
1156:drivers/inv_mpu_dmp_motion_driver.c ****  *  exclusive.
1157:drivers/inv_mpu_dmp_motion_driver.c ****  *  @param[in]   enable  1 to enable 6-axis quaternion.
1158:drivers/inv_mpu_dmp_motion_driver.c ****  *  @return      0 if successful.
1159:drivers/inv_mpu_dmp_motion_driver.c ****  */
1160:drivers/inv_mpu_dmp_motion_driver.c **** int dmp_enable_6x_lp_quat(unsigned char enable)
1161:drivers/inv_mpu_dmp_motion_driver.c **** {
 1748              		.loc 1 1161 0
 1749              		.cfi_startproc
 1750              		@ args = 0, pretend = 0, frame = 8
 1751              		@ frame_needed = 0, uses_anonymous_args = 0
 1752              	.LVL176:
 1753 0840 00B5     		push	{lr}
 1754              		.cfi_def_cfa_offset 4
 1755              		.cfi_offset 14, -4
 1756 0842 83B0     		sub	sp, sp, #12
 1757              		.cfi_def_cfa_offset 16
1162:drivers/inv_mpu_dmp_motion_driver.c ****     unsigned char regs[4];
ARM GAS  /tmp/ccBPBbjw.s 			page 53


1163:drivers/inv_mpu_dmp_motion_driver.c ****     if (enable) {
 1758              		.loc 1 1163 0
 1759 0844 B0B1     		cbz	r0, .L140
1164:drivers/inv_mpu_dmp_motion_driver.c ****         regs[0] = DINA20;
 1760              		.loc 1 1164 0
 1761 0846 2023     		movs	r3, #32
 1762 0848 8DF80430 		strb	r3, [sp, #4]
1165:drivers/inv_mpu_dmp_motion_driver.c ****         regs[1] = DINA28;
 1763              		.loc 1 1165 0
 1764 084c 2823     		movs	r3, #40
 1765 084e 8DF80530 		strb	r3, [sp, #5]
1166:drivers/inv_mpu_dmp_motion_driver.c ****         regs[2] = DINA30;
 1766              		.loc 1 1166 0
 1767 0852 3023     		movs	r3, #48
 1768 0854 8DF80630 		strb	r3, [sp, #6]
1167:drivers/inv_mpu_dmp_motion_driver.c ****         regs[3] = DINA38;
 1769              		.loc 1 1167 0
 1770 0858 3823     		movs	r3, #56
 1771 085a 8DF80730 		strb	r3, [sp, #7]
 1772              	.L141:
1168:drivers/inv_mpu_dmp_motion_driver.c ****     } else
1169:drivers/inv_mpu_dmp_motion_driver.c ****         memset(regs, 0xA3, 4);
1170:drivers/inv_mpu_dmp_motion_driver.c **** 
1171:drivers/inv_mpu_dmp_motion_driver.c ****     mpu_write_mem(CFG_8, 4, regs);
 1773              		.loc 1 1171 0
 1774 085e 01AA     		add	r2, sp, #4
 1775 0860 0421     		movs	r1, #4
 1776 0862 40F69E20 		movw	r0, #2718
 1777              	.LVL177:
 1778 0866 FFF7FEFF 		bl	mpu_write_mem
 1779              	.LVL178:
1172:drivers/inv_mpu_dmp_motion_driver.c **** 
1173:drivers/inv_mpu_dmp_motion_driver.c ****     return mpu_reset_fifo();
 1780              		.loc 1 1173 0
 1781 086a FFF7FEFF 		bl	mpu_reset_fifo
 1782              	.LVL179:
1174:drivers/inv_mpu_dmp_motion_driver.c **** }
 1783              		.loc 1 1174 0
 1784 086e 03B0     		add	sp, sp, #12
 1785              		.cfi_remember_state
 1786              		.cfi_def_cfa_offset 4
 1787              		@ sp needed
 1788 0870 5DF804FB 		ldr	pc, [sp], #4
 1789              	.LVL180:
 1790              	.L140:
 1791              		.cfi_restore_state
1169:drivers/inv_mpu_dmp_motion_driver.c **** 
 1792              		.loc 1 1169 0
 1793 0874 4FF0A333 		mov	r3, #-1549556829
 1794 0878 0193     		str	r3, [sp, #4]
 1795 087a F0E7     		b	.L141
 1796              		.cfi_endproc
 1797              	.LFE86:
 1798              		.size	dmp_enable_6x_lp_quat, .-dmp_enable_6x_lp_quat
 1799              		.align	1
 1800              		.global	dmp_enable_feature
 1801              		.syntax unified
ARM GAS  /tmp/ccBPBbjw.s 			page 54


 1802              		.thumb
 1803              		.thumb_func
 1804              		.fpu softvfp
 1805              		.type	dmp_enable_feature, %function
 1806              	dmp_enable_feature:
 1807              	.LFB82:
 982:drivers/inv_mpu_dmp_motion_driver.c ****     unsigned char tmp[10];
 1808              		.loc 1 982 0
 1809              		.cfi_startproc
 1810              		@ args = 0, pretend = 0, frame = 16
 1811              		@ frame_needed = 0, uses_anonymous_args = 0
 1812              	.LVL181:
 1813 087c F0B5     		push	{r4, r5, r6, r7, lr}
 1814              		.cfi_def_cfa_offset 20
 1815              		.cfi_offset 4, -20
 1816              		.cfi_offset 5, -16
 1817              		.cfi_offset 6, -12
 1818              		.cfi_offset 7, -8
 1819              		.cfi_offset 14, -4
 1820 087e 85B0     		sub	sp, sp, #20
 1821              		.cfi_def_cfa_offset 40
 1822 0880 0446     		mov	r4, r0
 989:drivers/inv_mpu_dmp_motion_driver.c ****     tmp[1] = (unsigned char)((GYRO_SF >> 16) & 0xFF);
 1823              		.loc 1 989 0
 1824 0882 0223     		movs	r3, #2
 1825 0884 8DF80430 		strb	r3, [sp, #4]
 990:drivers/inv_mpu_dmp_motion_driver.c ****     tmp[2] = (unsigned char)((GYRO_SF >> 8) & 0xFF);
 1826              		.loc 1 990 0
 1827 0888 CA23     		movs	r3, #202
 1828 088a 8DF80530 		strb	r3, [sp, #5]
 991:drivers/inv_mpu_dmp_motion_driver.c ****     tmp[3] = (unsigned char)(GYRO_SF & 0xFF);
 1829              		.loc 1 991 0
 1830 088e E323     		movs	r3, #227
 1831 0890 8DF80630 		strb	r3, [sp, #6]
 992:drivers/inv_mpu_dmp_motion_driver.c ****     mpu_write_mem(D_0_104, 4, tmp);
 1832              		.loc 1 992 0
 1833 0894 0923     		movs	r3, #9
 1834 0896 8DF80730 		strb	r3, [sp, #7]
 993:drivers/inv_mpu_dmp_motion_driver.c **** 
 1835              		.loc 1 993 0
 1836 089a 01AA     		add	r2, sp, #4
 1837 089c 0421     		movs	r1, #4
 1838 089e 6820     		movs	r0, #104
 1839              	.LVL182:
 1840 08a0 FFF7FEFF 		bl	mpu_write_mem
 1841              	.LVL183:
 996:drivers/inv_mpu_dmp_motion_driver.c ****     if (mask & DMP_FEATURE_SEND_RAW_ACCEL) {
 1842              		.loc 1 996 0
 1843 08a4 A323     		movs	r3, #163
 1844 08a6 8DF80430 		strb	r3, [sp, #4]
 997:drivers/inv_mpu_dmp_motion_driver.c ****         tmp[1] = 0xC0;
 1845              		.loc 1 997 0
 1846 08aa 14F04007 		ands	r7, r4, #64
 1847 08ae 00F0AF80 		beq	.L144
 998:drivers/inv_mpu_dmp_motion_driver.c ****         tmp[2] = 0xC8;
 1848              		.loc 1 998 0
 1849 08b2 C023     		movs	r3, #192
ARM GAS  /tmp/ccBPBbjw.s 			page 55


 1850 08b4 8DF80530 		strb	r3, [sp, #5]
 999:drivers/inv_mpu_dmp_motion_driver.c ****         tmp[3] = 0xC2;
 1851              		.loc 1 999 0
 1852 08b8 C823     		movs	r3, #200
 1853 08ba 8DF80630 		strb	r3, [sp, #6]
1000:drivers/inv_mpu_dmp_motion_driver.c ****     } else {
 1854              		.loc 1 1000 0
 1855 08be C223     		movs	r3, #194
 1856 08c0 8DF80730 		strb	r3, [sp, #7]
 1857              	.L145:
1006:drivers/inv_mpu_dmp_motion_driver.c ****         tmp[4] = 0xC4;
 1858              		.loc 1 1006 0
 1859 08c4 14F4C075 		ands	r5, r4, #384
 1860 08c8 00F0AA80 		beq	.L146
1007:drivers/inv_mpu_dmp_motion_driver.c ****         tmp[5] = 0xCC;
 1861              		.loc 1 1007 0
 1862 08cc C423     		movs	r3, #196
 1863 08ce 8DF80830 		strb	r3, [sp, #8]
1008:drivers/inv_mpu_dmp_motion_driver.c ****         tmp[6] = 0xC6;
 1864              		.loc 1 1008 0
 1865 08d2 CC23     		movs	r3, #204
 1866 08d4 8DF80930 		strb	r3, [sp, #9]
1009:drivers/inv_mpu_dmp_motion_driver.c ****     } else {
 1867              		.loc 1 1009 0
 1868 08d8 C623     		movs	r3, #198
 1869 08da 8DF80A30 		strb	r3, [sp, #10]
 1870              	.L147:
1015:drivers/inv_mpu_dmp_motion_driver.c ****     tmp[8] = 0xA3;
 1871              		.loc 1 1015 0
 1872 08de A323     		movs	r3, #163
 1873 08e0 8DF80B30 		strb	r3, [sp, #11]
1016:drivers/inv_mpu_dmp_motion_driver.c ****     tmp[9] = 0xA3;
 1874              		.loc 1 1016 0
 1875 08e4 8DF80C30 		strb	r3, [sp, #12]
1017:drivers/inv_mpu_dmp_motion_driver.c ****     mpu_write_mem(CFG_15,10,tmp);
 1876              		.loc 1 1017 0
 1877 08e8 8DF80D30 		strb	r3, [sp, #13]
1018:drivers/inv_mpu_dmp_motion_driver.c **** 
 1878              		.loc 1 1018 0
 1879 08ec 01AA     		add	r2, sp, #4
 1880 08ee 0A21     		movs	r1, #10
 1881 08f0 40F6A720 		movw	r0, #2727
 1882 08f4 FFF7FEFF 		bl	mpu_write_mem
 1883              	.LVL184:
1021:drivers/inv_mpu_dmp_motion_driver.c ****         tmp[0] = DINA20;
 1884              		.loc 1 1021 0
 1885 08f8 14F00306 		ands	r6, r4, #3
1022:drivers/inv_mpu_dmp_motion_driver.c ****     else
 1886              		.loc 1 1022 0
 1887 08fc 14BF     		ite	ne
 1888 08fe 2023     		movne	r3, #32
1024:drivers/inv_mpu_dmp_motion_driver.c ****     mpu_write_mem(CFG_27,1,tmp);
 1889              		.loc 1 1024 0
 1890 0900 D823     		moveq	r3, #216
 1891 0902 8DF80430 		strb	r3, [sp, #4]
1025:drivers/inv_mpu_dmp_motion_driver.c **** 
 1892              		.loc 1 1025 0
ARM GAS  /tmp/ccBPBbjw.s 			page 56


 1893 0906 01AA     		add	r2, sp, #4
 1894 0908 0121     		movs	r1, #1
 1895 090a 40F6B620 		movw	r0, #2742
 1896 090e FFF7FEFF 		bl	mpu_write_mem
 1897              	.LVL185:
1027:drivers/inv_mpu_dmp_motion_driver.c ****         dmp_enable_gyro_cal(1);
 1898              		.loc 1 1027 0
 1899 0912 14F0200F 		tst	r4, #32
1028:drivers/inv_mpu_dmp_motion_driver.c ****     else
 1900              		.loc 1 1028 0
 1901 0916 14BF     		ite	ne
 1902 0918 0120     		movne	r0, #1
1030:drivers/inv_mpu_dmp_motion_driver.c **** 
 1903              		.loc 1 1030 0
 1904 091a 0020     		moveq	r0, #0
 1905 091c FFF7FEFF 		bl	dmp_enable_gyro_cal
 1906              	.LVL186:
1032:drivers/inv_mpu_dmp_motion_driver.c ****         if (mask & DMP_FEATURE_SEND_CAL_GYRO) {
 1907              		.loc 1 1032 0
 1908 0920 ADB1     		cbz	r5, .L152
1033:drivers/inv_mpu_dmp_motion_driver.c ****             tmp[0] = 0xB2;
 1909              		.loc 1 1033 0
 1910 0922 14F4807F 		tst	r4, #256
 1911 0926 00F08380 		beq	.L153
1034:drivers/inv_mpu_dmp_motion_driver.c ****             tmp[1] = 0x8B;
 1912              		.loc 1 1034 0
 1913 092a B223     		movs	r3, #178
 1914 092c 8DF80430 		strb	r3, [sp, #4]
1035:drivers/inv_mpu_dmp_motion_driver.c ****             tmp[2] = 0xB6;
 1915              		.loc 1 1035 0
 1916 0930 8B23     		movs	r3, #139
 1917 0932 8DF80530 		strb	r3, [sp, #5]
1036:drivers/inv_mpu_dmp_motion_driver.c ****             tmp[3] = 0x9B;
 1918              		.loc 1 1036 0
 1919 0936 B623     		movs	r3, #182
 1920 0938 8DF80630 		strb	r3, [sp, #6]
1037:drivers/inv_mpu_dmp_motion_driver.c ****         } else {
 1921              		.loc 1 1037 0
 1922 093c 9B23     		movs	r3, #155
 1923 093e 8DF80730 		strb	r3, [sp, #7]
 1924              	.L154:
1044:drivers/inv_mpu_dmp_motion_driver.c ****     }
 1925              		.loc 1 1044 0
 1926 0942 01AA     		add	r2, sp, #4
 1927 0944 0421     		movs	r1, #4
 1928 0946 40F6A220 		movw	r0, #2722
 1929 094a FFF7FEFF 		bl	mpu_write_mem
 1930              	.LVL187:
 1931              	.L152:
1047:drivers/inv_mpu_dmp_motion_driver.c ****         /* Enable tap. */
 1932              		.loc 1 1047 0
 1933 094e 14F0010F 		tst	r4, #1
 1934 0952 7AD0     		beq	.L155
1049:drivers/inv_mpu_dmp_motion_driver.c ****         mpu_write_mem(CFG_20, 1, tmp);
 1935              		.loc 1 1049 0
 1936 0954 04AA     		add	r2, sp, #16
 1937 0956 F823     		movs	r3, #248
ARM GAS  /tmp/ccBPBbjw.s 			page 57


 1938 0958 02F80C3D 		strb	r3, [r2, #-12]!
1050:drivers/inv_mpu_dmp_motion_driver.c ****         dmp_set_tap_thresh(TAP_XYZ, 250);
 1939              		.loc 1 1050 0
 1940 095c 0121     		movs	r1, #1
 1941 095e 4FF40B60 		mov	r0, #2224
 1942 0962 FFF7FEFF 		bl	mpu_write_mem
 1943              	.LVL188:
1051:drivers/inv_mpu_dmp_motion_driver.c ****         dmp_set_tap_axes(TAP_XYZ);
 1944              		.loc 1 1051 0
 1945 0966 FA21     		movs	r1, #250
 1946 0968 0720     		movs	r0, #7
 1947 096a FFF7FEFF 		bl	dmp_set_tap_thresh
 1948              	.LVL189:
1052:drivers/inv_mpu_dmp_motion_driver.c ****         dmp_set_tap_count(1);
 1949              		.loc 1 1052 0
 1950 096e 0720     		movs	r0, #7
 1951 0970 FFF7FEFF 		bl	dmp_set_tap_axes
 1952              	.LVL190:
1053:drivers/inv_mpu_dmp_motion_driver.c ****         dmp_set_tap_time(100);
 1953              		.loc 1 1053 0
 1954 0974 0120     		movs	r0, #1
 1955 0976 FFF7FEFF 		bl	dmp_set_tap_count
 1956              	.LVL191:
1054:drivers/inv_mpu_dmp_motion_driver.c ****         dmp_set_tap_time_multi(500);
 1957              		.loc 1 1054 0
 1958 097a 6420     		movs	r0, #100
 1959 097c FFF7FEFF 		bl	dmp_set_tap_time
 1960              	.LVL192:
1055:drivers/inv_mpu_dmp_motion_driver.c **** 
 1961              		.loc 1 1055 0
 1962 0980 4FF4FA70 		mov	r0, #500
 1963 0984 FFF7FEFF 		bl	dmp_set_tap_time_multi
 1964              	.LVL193:
1057:drivers/inv_mpu_dmp_motion_driver.c ****         dmp_set_shake_reject_time(40);
 1965              		.loc 1 1057 0
 1966 0988 C821     		movs	r1, #200
 1967 098a 3748     		ldr	r0, .L169
 1968 098c FFF7FEFF 		bl	dmp_set_shake_reject_thresh
 1969              	.LVL194:
1058:drivers/inv_mpu_dmp_motion_driver.c ****         dmp_set_shake_reject_timeout(10);
 1970              		.loc 1 1058 0
 1971 0990 2820     		movs	r0, #40
 1972 0992 FFF7FEFF 		bl	dmp_set_shake_reject_time
 1973              	.LVL195:
1059:drivers/inv_mpu_dmp_motion_driver.c ****     } else {
 1974              		.loc 1 1059 0
 1975 0996 0A20     		movs	r0, #10
 1976 0998 FFF7FEFF 		bl	dmp_set_shake_reject_timeout
 1977              	.LVL196:
 1978              	.L156:
1065:drivers/inv_mpu_dmp_motion_driver.c ****         tmp[0] = 0xD9;
 1979              		.loc 1 1065 0
 1980 099c 14F0020F 		tst	r4, #2
1066:drivers/inv_mpu_dmp_motion_driver.c ****     } else
 1981              		.loc 1 1066 0
 1982 09a0 14BF     		ite	ne
 1983 09a2 D923     		movne	r3, #217
ARM GAS  /tmp/ccBPBbjw.s 			page 58


1068:drivers/inv_mpu_dmp_motion_driver.c ****     mpu_write_mem(CFG_ANDROID_ORIENT_INT, 1, tmp);
 1984              		.loc 1 1068 0
 1985 09a4 D823     		moveq	r3, #216
 1986 09a6 8DF80430 		strb	r3, [sp, #4]
1069:drivers/inv_mpu_dmp_motion_driver.c **** 
 1987              		.loc 1 1069 0
 1988 09aa 01AA     		add	r2, sp, #4
 1989 09ac 0121     		movs	r1, #1
 1990 09ae 40F23D70 		movw	r0, #1853
 1991 09b2 FFF7FEFF 		bl	mpu_write_mem
 1992              	.LVL197:
1071:drivers/inv_mpu_dmp_motion_driver.c ****         dmp_enable_lp_quat(1);
 1993              		.loc 1 1071 0
 1994 09b6 14F0040F 		tst	r4, #4
1072:drivers/inv_mpu_dmp_motion_driver.c ****     else
 1995              		.loc 1 1072 0
 1996 09ba 14BF     		ite	ne
 1997 09bc 0120     		movne	r0, #1
1074:drivers/inv_mpu_dmp_motion_driver.c **** 
 1998              		.loc 1 1074 0
 1999 09be 0020     		moveq	r0, #0
 2000 09c0 FFF7FEFF 		bl	dmp_enable_lp_quat
 2001              	.LVL198:
1076:drivers/inv_mpu_dmp_motion_driver.c ****         dmp_enable_6x_lp_quat(1);
 2002              		.loc 1 1076 0
 2003 09c4 14F0100F 		tst	r4, #16
1077:drivers/inv_mpu_dmp_motion_driver.c ****     else
 2004              		.loc 1 1077 0
 2005 09c8 14BF     		ite	ne
 2006 09ca 0120     		movne	r0, #1
1079:drivers/inv_mpu_dmp_motion_driver.c **** 
 2007              		.loc 1 1079 0
 2008 09cc 0020     		moveq	r0, #0
 2009 09ce FFF7FEFF 		bl	dmp_enable_6x_lp_quat
 2010              	.LVL199:
1082:drivers/inv_mpu_dmp_motion_driver.c ****     mpu_reset_fifo();
 2011              		.loc 1 1082 0
 2012 09d2 44F00803 		orr	r3, r4, #8
 2013 09d6 254A     		ldr	r2, .L169+4
 2014 09d8 5381     		strh	r3, [r2, #10]	@ movhi
1083:drivers/inv_mpu_dmp_motion_driver.c **** 
 2015              		.loc 1 1083 0
 2016 09da FFF7FEFF 		bl	mpu_reset_fifo
 2017              	.LVL200:
1086:drivers/inv_mpu_dmp_motion_driver.c ****         dmp.packet_length += 6;
 2018              		.loc 1 1086 0
 2019 09de 002F     		cmp	r7, #0
 2020 09e0 3DD1     		bne	.L163
1085:drivers/inv_mpu_dmp_motion_driver.c ****     if (mask & DMP_FEATURE_SEND_RAW_ACCEL)
 2021              		.loc 1 1085 0
 2022 09e2 0022     		movs	r2, #0
 2023 09e4 214B     		ldr	r3, .L169+4
 2024 09e6 9A73     		strb	r2, [r3, #14]
 2025              	.L164:
1088:drivers/inv_mpu_dmp_motion_driver.c ****         dmp.packet_length += 6;
 2026              		.loc 1 1088 0
 2027 09e8 1DB1     		cbz	r5, .L165
ARM GAS  /tmp/ccBPBbjw.s 			page 59


1089:drivers/inv_mpu_dmp_motion_driver.c ****     if (mask & (DMP_FEATURE_LP_QUAT | DMP_FEATURE_6X_LP_QUAT))
 2028              		.loc 1 1089 0
 2029 09ea 204A     		ldr	r2, .L169+4
 2030 09ec 937B     		ldrb	r3, [r2, #14]	@ zero_extendqisi2
 2031 09ee 0633     		adds	r3, r3, #6
 2032 09f0 9373     		strb	r3, [r2, #14]
 2033              	.L165:
1090:drivers/inv_mpu_dmp_motion_driver.c ****         dmp.packet_length += 16;
 2034              		.loc 1 1090 0
 2035 09f2 14F0140F 		tst	r4, #20
 2036 09f6 03D0     		beq	.L166
1091:drivers/inv_mpu_dmp_motion_driver.c ****     if (mask & (DMP_FEATURE_TAP | DMP_FEATURE_ANDROID_ORIENT))
 2037              		.loc 1 1091 0
 2038 09f8 1C4A     		ldr	r2, .L169+4
 2039 09fa 937B     		ldrb	r3, [r2, #14]	@ zero_extendqisi2
 2040 09fc 1033     		adds	r3, r3, #16
 2041 09fe 9373     		strb	r3, [r2, #14]
 2042              	.L166:
1092:drivers/inv_mpu_dmp_motion_driver.c ****         dmp.packet_length += 4;
 2043              		.loc 1 1092 0
 2044 0a00 1EB1     		cbz	r6, .L167
1093:drivers/inv_mpu_dmp_motion_driver.c **** 
 2045              		.loc 1 1093 0
 2046 0a02 1A4A     		ldr	r2, .L169+4
 2047 0a04 937B     		ldrb	r3, [r2, #14]	@ zero_extendqisi2
 2048 0a06 0433     		adds	r3, r3, #4
 2049 0a08 9373     		strb	r3, [r2, #14]
 2050              	.L167:
1096:drivers/inv_mpu_dmp_motion_driver.c **** 
 2051              		.loc 1 1096 0
 2052 0a0a 0020     		movs	r0, #0
 2053 0a0c 05B0     		add	sp, sp, #20
 2054              		.cfi_remember_state
 2055              		.cfi_def_cfa_offset 20
 2056              		@ sp needed
 2057 0a0e F0BD     		pop	{r4, r5, r6, r7, pc}
 2058              	.L144:
 2059              		.cfi_restore_state
1002:drivers/inv_mpu_dmp_motion_driver.c ****         tmp[2] = 0xA3;
 2060              		.loc 1 1002 0
 2061 0a10 A323     		movs	r3, #163
 2062 0a12 8DF80530 		strb	r3, [sp, #5]
1003:drivers/inv_mpu_dmp_motion_driver.c ****         tmp[3] = 0xA3;
 2063              		.loc 1 1003 0
 2064 0a16 8DF80630 		strb	r3, [sp, #6]
1004:drivers/inv_mpu_dmp_motion_driver.c ****     }
 2065              		.loc 1 1004 0
 2066 0a1a 8DF80730 		strb	r3, [sp, #7]
 2067 0a1e 51E7     		b	.L145
 2068              	.L146:
1011:drivers/inv_mpu_dmp_motion_driver.c ****         tmp[5] = 0xA3;
 2069              		.loc 1 1011 0
 2070 0a20 A323     		movs	r3, #163
 2071 0a22 8DF80830 		strb	r3, [sp, #8]
1012:drivers/inv_mpu_dmp_motion_driver.c ****         tmp[6] = 0xA3;
 2072              		.loc 1 1012 0
 2073 0a26 8DF80930 		strb	r3, [sp, #9]
ARM GAS  /tmp/ccBPBbjw.s 			page 60


1013:drivers/inv_mpu_dmp_motion_driver.c ****     }
 2074              		.loc 1 1013 0
 2075 0a2a 8DF80A30 		strb	r3, [sp, #10]
 2076 0a2e 56E7     		b	.L147
 2077              	.L153:
1039:drivers/inv_mpu_dmp_motion_driver.c ****             tmp[1] = DINA80;
 2078              		.loc 1 1039 0
 2079 0a30 B023     		movs	r3, #176
 2080 0a32 8DF80430 		strb	r3, [sp, #4]
1040:drivers/inv_mpu_dmp_motion_driver.c ****             tmp[2] = DINAC2;
 2081              		.loc 1 1040 0
 2082 0a36 8023     		movs	r3, #128
 2083 0a38 8DF80530 		strb	r3, [sp, #5]
1041:drivers/inv_mpu_dmp_motion_driver.c ****             tmp[3] = DINA90;
 2084              		.loc 1 1041 0
 2085 0a3c B423     		movs	r3, #180
 2086 0a3e 8DF80630 		strb	r3, [sp, #6]
1042:drivers/inv_mpu_dmp_motion_driver.c ****         }
 2087              		.loc 1 1042 0
 2088 0a42 9023     		movs	r3, #144
 2089 0a44 8DF80730 		strb	r3, [sp, #7]
 2090 0a48 7BE7     		b	.L154
 2091              	.L155:
1061:drivers/inv_mpu_dmp_motion_driver.c ****         mpu_write_mem(CFG_20, 1, tmp);
 2092              		.loc 1 1061 0
 2093 0a4a 04AA     		add	r2, sp, #16
 2094 0a4c D823     		movs	r3, #216
 2095 0a4e 02F80C3D 		strb	r3, [r2, #-12]!
1062:drivers/inv_mpu_dmp_motion_driver.c ****     }
 2096              		.loc 1 1062 0
 2097 0a52 0121     		movs	r1, #1
 2098 0a54 4FF40B60 		mov	r0, #2224
 2099 0a58 FFF7FEFF 		bl	mpu_write_mem
 2100              	.LVL201:
 2101 0a5c 9EE7     		b	.L156
 2102              	.L163:
1087:drivers/inv_mpu_dmp_motion_driver.c ****     if (mask & DMP_FEATURE_SEND_ANY_GYRO)
 2103              		.loc 1 1087 0
 2104 0a5e 0622     		movs	r2, #6
 2105 0a60 024B     		ldr	r3, .L169+4
 2106 0a62 9A73     		strb	r2, [r3, #14]
 2107 0a64 C0E7     		b	.L164
 2108              	.L170:
 2109 0a66 00BF     		.align	2
 2110              	.L169:
 2111 0a68 09E3CA02 		.word	46850825
 2112 0a6c 00000000 		.word	.LANCHOR1
 2113              		.cfi_endproc
 2114              	.LFE82:
 2115              		.size	dmp_enable_feature, .-dmp_enable_feature
 2116              		.align	1
 2117              		.global	dmp_set_interrupt_mode
 2118              		.syntax unified
 2119              		.thumb
 2120              		.thumb_func
 2121              		.fpu softvfp
 2122              		.type	dmp_set_interrupt_mode, %function
ARM GAS  /tmp/ccBPBbjw.s 			page 61


 2123              	dmp_set_interrupt_mode:
 2124              	.LFB88:
1175:drivers/inv_mpu_dmp_motion_driver.c **** 
1176:drivers/inv_mpu_dmp_motion_driver.c **** /**
1177:drivers/inv_mpu_dmp_motion_driver.c ****  *  @brief      Decode the four-byte gesture data and execute any callbacks.
1178:drivers/inv_mpu_dmp_motion_driver.c ****  *  @param[in]  gesture Gesture data from DMP packet.
1179:drivers/inv_mpu_dmp_motion_driver.c ****  *  @return     0 if successful.
1180:drivers/inv_mpu_dmp_motion_driver.c ****  */
1181:drivers/inv_mpu_dmp_motion_driver.c **** static int decode_gesture(unsigned char *gesture)
1182:drivers/inv_mpu_dmp_motion_driver.c **** {
1183:drivers/inv_mpu_dmp_motion_driver.c ****     unsigned char tap, android_orient;
1184:drivers/inv_mpu_dmp_motion_driver.c **** 
1185:drivers/inv_mpu_dmp_motion_driver.c ****     android_orient = gesture[3] & 0xC0;
1186:drivers/inv_mpu_dmp_motion_driver.c ****     tap = 0x3F & gesture[3];
1187:drivers/inv_mpu_dmp_motion_driver.c **** 
1188:drivers/inv_mpu_dmp_motion_driver.c ****     if (gesture[1] & INT_SRC_TAP) {
1189:drivers/inv_mpu_dmp_motion_driver.c ****         unsigned char direction, count;
1190:drivers/inv_mpu_dmp_motion_driver.c ****         direction = tap >> 3;
1191:drivers/inv_mpu_dmp_motion_driver.c ****         count = (tap % 8) + 1;
1192:drivers/inv_mpu_dmp_motion_driver.c ****         if (dmp.tap_cb)
1193:drivers/inv_mpu_dmp_motion_driver.c ****             dmp.tap_cb(direction, count);
1194:drivers/inv_mpu_dmp_motion_driver.c ****     }
1195:drivers/inv_mpu_dmp_motion_driver.c **** 
1196:drivers/inv_mpu_dmp_motion_driver.c ****     if (gesture[1] & INT_SRC_ANDROID_ORIENT) {
1197:drivers/inv_mpu_dmp_motion_driver.c ****         if (dmp.android_orient_cb)
1198:drivers/inv_mpu_dmp_motion_driver.c ****             dmp.android_orient_cb(android_orient >> 6);
1199:drivers/inv_mpu_dmp_motion_driver.c ****     }
1200:drivers/inv_mpu_dmp_motion_driver.c **** 
1201:drivers/inv_mpu_dmp_motion_driver.c ****     return 0;
1202:drivers/inv_mpu_dmp_motion_driver.c **** }
1203:drivers/inv_mpu_dmp_motion_driver.c **** 
1204:drivers/inv_mpu_dmp_motion_driver.c **** /**
1205:drivers/inv_mpu_dmp_motion_driver.c ****  *  @brief      Specify when a DMP interrupt should occur.
1206:drivers/inv_mpu_dmp_motion_driver.c ****  *  A DMP interrupt can be configured to trigger on either of the two
1207:drivers/inv_mpu_dmp_motion_driver.c ****  *  conditions below:
1208:drivers/inv_mpu_dmp_motion_driver.c ****  *  \n a. One FIFO period has elapsed (set by @e mpu_set_sample_rate).
1209:drivers/inv_mpu_dmp_motion_driver.c ****  *  \n b. A tap event has been detected.
1210:drivers/inv_mpu_dmp_motion_driver.c ****  *  @param[in]  mode    DMP_INT_GESTURE or DMP_INT_CONTINUOUS.
1211:drivers/inv_mpu_dmp_motion_driver.c ****  *  @return     0 if successful.
1212:drivers/inv_mpu_dmp_motion_driver.c ****  */
1213:drivers/inv_mpu_dmp_motion_driver.c **** int dmp_set_interrupt_mode(unsigned char mode)
1214:drivers/inv_mpu_dmp_motion_driver.c **** {
 2125              		.loc 1 1214 0
 2126              		.cfi_startproc
 2127              		@ args = 0, pretend = 0, frame = 24
 2128              		@ frame_needed = 0, uses_anonymous_args = 0
 2129              	.LVL202:
 2130 0a70 30B5     		push	{r4, r5, lr}
 2131              		.cfi_def_cfa_offset 12
 2132              		.cfi_offset 4, -12
 2133              		.cfi_offset 5, -8
 2134              		.cfi_offset 14, -4
 2135 0a72 87B0     		sub	sp, sp, #28
 2136              		.cfi_def_cfa_offset 40
 2137 0a74 0546     		mov	r5, r0
1215:drivers/inv_mpu_dmp_motion_driver.c ****     const unsigned char regs_continuous[11] =
 2138              		.loc 1 1215 0
ARM GAS  /tmp/ccBPBbjw.s 			page 62


 2139 0a76 184B     		ldr	r3, .L178
 2140 0a78 03AA     		add	r2, sp, #12
 2141 0a7a D3F81C0C 		ldr	r0, [r3, #3100]	@ unaligned
 2142              	.LVL203:
 2143 0a7e D3F8201C 		ldr	r1, [r3, #3104]	@ unaligned
 2144 0a82 03C2     		stmia	r2!, {r0, r1}
 2145 0a84 B3F8240C 		ldrh	r0, [r3, #3108]	@ unaligned
 2146 0a88 93F8261C 		ldrb	r1, [r3, #3110]	@ zero_extendqisi2
 2147 0a8c 1080     		strh	r0, [r2]	@ unaligned
 2148 0a8e 9170     		strb	r1, [r2, #2]
1216:drivers/inv_mpu_dmp_motion_driver.c ****         {0xd8, 0xb1, 0xb9, 0xf3, 0x8b, 0xa3, 0x91, 0xb6, 0x09, 0xb4, 0xd9};
1217:drivers/inv_mpu_dmp_motion_driver.c ****     const unsigned char regs_gesture[11] =
 2149              		.loc 1 1217 0
 2150 0a90 6A46     		mov	r2, sp
 2151 0a92 D3F8280C 		ldr	r0, [r3, #3112]	@ unaligned
 2152 0a96 D3F82C1C 		ldr	r1, [r3, #3116]	@ unaligned
 2153 0a9a 03C2     		stmia	r2!, {r0, r1}
 2154 0a9c B3F8301C 		ldrh	r1, [r3, #3120]	@ unaligned
 2155 0aa0 03F62843 		addw	r3, r3, #3112
 2156 0aa4 9B7A     		ldrb	r3, [r3, #10]	@ zero_extendqisi2
 2157 0aa6 1180     		strh	r1, [r2]	@ unaligned
 2158 0aa8 9370     		strb	r3, [r2, #2]
1218:drivers/inv_mpu_dmp_motion_driver.c ****         {0xda, 0xb1, 0xb9, 0xf3, 0x8b, 0xa3, 0x91, 0xb6, 0xda, 0xb4, 0xda};
1219:drivers/inv_mpu_dmp_motion_driver.c **** 
1220:drivers/inv_mpu_dmp_motion_driver.c ****     switch (mode) {
 2159              		.loc 1 1220 0
 2160 0aaa 012D     		cmp	r5, #1
 2161 0aac 09D0     		beq	.L173
 2162 0aae 022D     		cmp	r5, #2
 2163 0ab0 0ED1     		bne	.L176
1221:drivers/inv_mpu_dmp_motion_driver.c ****     case DMP_INT_CONTINUOUS:
1222:drivers/inv_mpu_dmp_motion_driver.c ****         return mpu_write_mem(CFG_FIFO_ON_EVENT, 11,
 2164              		.loc 1 1222 0
 2165 0ab2 03AA     		add	r2, sp, #12
 2166 0ab4 0B21     		movs	r1, #11
 2167 0ab6 40F68220 		movw	r0, #2690
 2168 0aba FFF7FEFF 		bl	mpu_write_mem
 2169              	.LVL204:
 2170              	.L171:
1223:drivers/inv_mpu_dmp_motion_driver.c ****             (unsigned char*)regs_continuous);
1224:drivers/inv_mpu_dmp_motion_driver.c ****     case DMP_INT_GESTURE:
1225:drivers/inv_mpu_dmp_motion_driver.c ****         return mpu_write_mem(CFG_FIFO_ON_EVENT, 11,
1226:drivers/inv_mpu_dmp_motion_driver.c ****             (unsigned char*)regs_gesture);
1227:drivers/inv_mpu_dmp_motion_driver.c ****     default:
1228:drivers/inv_mpu_dmp_motion_driver.c ****         return -1;
1229:drivers/inv_mpu_dmp_motion_driver.c ****     }
1230:drivers/inv_mpu_dmp_motion_driver.c **** }
 2171              		.loc 1 1230 0
 2172 0abe 07B0     		add	sp, sp, #28
 2173              		.cfi_remember_state
 2174              		.cfi_def_cfa_offset 12
 2175              		@ sp needed
 2176 0ac0 30BD     		pop	{r4, r5, pc}
 2177              	.L173:
 2178              		.cfi_restore_state
1225:drivers/inv_mpu_dmp_motion_driver.c ****             (unsigned char*)regs_gesture);
 2179              		.loc 1 1225 0
ARM GAS  /tmp/ccBPBbjw.s 			page 63


 2180 0ac2 6A46     		mov	r2, sp
 2181 0ac4 0B21     		movs	r1, #11
 2182 0ac6 40F68220 		movw	r0, #2690
 2183 0aca FFF7FEFF 		bl	mpu_write_mem
 2184              	.LVL205:
 2185 0ace F6E7     		b	.L171
 2186              	.L176:
1228:drivers/inv_mpu_dmp_motion_driver.c ****     }
 2187              		.loc 1 1228 0
 2188 0ad0 4FF0FF30 		mov	r0, #-1
 2189 0ad4 F3E7     		b	.L171
 2190              	.L179:
 2191 0ad6 00BF     		.align	2
 2192              	.L178:
 2193 0ad8 00000000 		.word	.LANCHOR0
 2194              		.cfi_endproc
 2195              	.LFE88:
 2196              		.size	dmp_set_interrupt_mode, .-dmp_set_interrupt_mode
 2197              		.align	1
 2198              		.global	dmp_read_fifo
 2199              		.syntax unified
 2200              		.thumb
 2201              		.thumb_func
 2202              		.fpu softvfp
 2203              		.type	dmp_read_fifo, %function
 2204              	dmp_read_fifo:
 2205              	.LFB89:
1231:drivers/inv_mpu_dmp_motion_driver.c **** 
1232:drivers/inv_mpu_dmp_motion_driver.c **** /**
1233:drivers/inv_mpu_dmp_motion_driver.c ****  *  @brief      Get one packet from the FIFO.
1234:drivers/inv_mpu_dmp_motion_driver.c ****  *  If @e sensors does not contain a particular sensor, disregard the data
1235:drivers/inv_mpu_dmp_motion_driver.c ****  *  returned to that pointer.
1236:drivers/inv_mpu_dmp_motion_driver.c ****  *  \n @e sensors can contain a combination of the following flags:
1237:drivers/inv_mpu_dmp_motion_driver.c ****  *  \n INV_X_GYRO, INV_Y_GYRO, INV_Z_GYRO
1238:drivers/inv_mpu_dmp_motion_driver.c ****  *  \n INV_XYZ_GYRO
1239:drivers/inv_mpu_dmp_motion_driver.c ****  *  \n INV_XYZ_ACCEL
1240:drivers/inv_mpu_dmp_motion_driver.c ****  *  \n INV_WXYZ_QUAT
1241:drivers/inv_mpu_dmp_motion_driver.c ****  *  \n If the FIFO has no new data, @e sensors will be zero.
1242:drivers/inv_mpu_dmp_motion_driver.c ****  *  \n If the FIFO is disabled, @e sensors will be zero and this function will
1243:drivers/inv_mpu_dmp_motion_driver.c ****  *  return a non-zero error code.
1244:drivers/inv_mpu_dmp_motion_driver.c ****  *  @param[out] gyro        Gyro data in hardware units.
1245:drivers/inv_mpu_dmp_motion_driver.c ****  *  @param[out] accel       Accel data in hardware units.
1246:drivers/inv_mpu_dmp_motion_driver.c ****  *  @param[out] quat        3-axis quaternion data in hardware units.
1247:drivers/inv_mpu_dmp_motion_driver.c ****  *  @param[out] timestamp   Timestamp in milliseconds.
1248:drivers/inv_mpu_dmp_motion_driver.c ****  *  @param[out] sensors     Mask of sensors read from FIFO.
1249:drivers/inv_mpu_dmp_motion_driver.c ****  *  @param[out] more        Number of remaining packets.
1250:drivers/inv_mpu_dmp_motion_driver.c ****  *  @return     0 if successful.
1251:drivers/inv_mpu_dmp_motion_driver.c ****  */
1252:drivers/inv_mpu_dmp_motion_driver.c **** int dmp_read_fifo(short *gyro, short *accel, long *quat,
1253:drivers/inv_mpu_dmp_motion_driver.c ****     unsigned long *timestamp, short *sensors, unsigned char *more)
1254:drivers/inv_mpu_dmp_motion_driver.c **** {
 2206              		.loc 1 1254 0
 2207              		.cfi_startproc
 2208              		@ args = 8, pretend = 0, frame = 32
 2209              		@ frame_needed = 0, uses_anonymous_args = 0
 2210              	.LVL206:
 2211 0adc 2DE9F043 		push	{r4, r5, r6, r7, r8, r9, lr}
ARM GAS  /tmp/ccBPBbjw.s 			page 64


 2212              		.cfi_def_cfa_offset 28
 2213              		.cfi_offset 4, -28
 2214              		.cfi_offset 5, -24
 2215              		.cfi_offset 6, -20
 2216              		.cfi_offset 7, -16
 2217              		.cfi_offset 8, -12
 2218              		.cfi_offset 9, -8
 2219              		.cfi_offset 14, -4
 2220 0ae0 89B0     		sub	sp, sp, #36
 2221              		.cfi_def_cfa_offset 64
 2222 0ae2 0546     		mov	r5, r0
 2223 0ae4 0E46     		mov	r6, r1
 2224 0ae6 9146     		mov	r9, r2
 2225 0ae8 9846     		mov	r8, r3
 2226 0aea 109C     		ldr	r4, [sp, #64]
 2227              	.LVL207:
1255:drivers/inv_mpu_dmp_motion_driver.c ****     unsigned char fifo_data[MAX_PACKET_LENGTH];
1256:drivers/inv_mpu_dmp_motion_driver.c ****     unsigned char ii = 0;
1257:drivers/inv_mpu_dmp_motion_driver.c ****     sensors[0] = 0;
 2228              		.loc 1 1257 0
 2229 0aec 0023     		movs	r3, #0
 2230              	.LVL208:
 2231 0aee 2380     		strh	r3, [r4]	@ movhi
1258:drivers/inv_mpu_dmp_motion_driver.c **** 
1259:drivers/inv_mpu_dmp_motion_driver.c ****     /* Get a packet. */
1260:drivers/inv_mpu_dmp_motion_driver.c ****     if (mpu_read_fifo_stream(dmp.packet_length, fifo_data, more))
 2232              		.loc 1 1260 0
 2233 0af0 119A     		ldr	r2, [sp, #68]
 2234              	.LVL209:
 2235 0af2 6946     		mov	r1, sp
 2236              	.LVL210:
 2237 0af4 6B4B     		ldr	r3, .L193
 2238 0af6 987B     		ldrb	r0, [r3, #14]	@ zero_extendqisi2
 2239              	.LVL211:
 2240 0af8 FFF7FEFF 		bl	mpu_read_fifo_stream
 2241              	.LVL212:
 2242 0afc 0028     		cmp	r0, #0
 2243 0afe 40F0CE80 		bne	.L188
 2244 0b02 0746     		mov	r7, r0
1261:drivers/inv_mpu_dmp_motion_driver.c ****         return -1;
1262:drivers/inv_mpu_dmp_motion_driver.c **** 
1263:drivers/inv_mpu_dmp_motion_driver.c ****     /* Parse DMP packet. */
1264:drivers/inv_mpu_dmp_motion_driver.c ****     if (dmp.feature_mask & (DMP_FEATURE_LP_QUAT | DMP_FEATURE_6X_LP_QUAT)) {
 2245              		.loc 1 1264 0
 2246 0b04 674B     		ldr	r3, .L193
 2247 0b06 5A89     		ldrh	r2, [r3, #10]
 2248 0b08 12F0140F 		tst	r2, #20
 2249 0b0c 61D0     		beq	.L189
 2250              	.LBB8:
1265:drivers/inv_mpu_dmp_motion_driver.c **** #ifdef FIFO_CORRUPTION_CHECK
1266:drivers/inv_mpu_dmp_motion_driver.c ****         long quat_q14[4], quat_mag_sq;
1267:drivers/inv_mpu_dmp_motion_driver.c **** #endif
1268:drivers/inv_mpu_dmp_motion_driver.c ****         quat[0] = ((long)fifo_data[0] << 24) | ((long)fifo_data[1] << 16) |
 2251              		.loc 1 1268 0
 2252 0b0e 9DF80030 		ldrb	r3, [sp]	@ zero_extendqisi2
 2253 0b12 9DF80100 		ldrb	r0, [sp, #1]	@ zero_extendqisi2
 2254 0b16 0004     		lsls	r0, r0, #16
ARM GAS  /tmp/ccBPBbjw.s 			page 65


 2255 0b18 40EA0360 		orr	r0, r0, r3, lsl #24
1269:drivers/inv_mpu_dmp_motion_driver.c ****             ((long)fifo_data[2] << 8) | fifo_data[3];
 2256              		.loc 1 1269 0
 2257 0b1c 9DF80330 		ldrb	r3, [sp, #3]	@ zero_extendqisi2
 2258 0b20 1843     		orrs	r0, r0, r3
 2259 0b22 9DF80230 		ldrb	r3, [sp, #2]	@ zero_extendqisi2
 2260 0b26 40EA0320 		orr	r0, r0, r3, lsl #8
1268:drivers/inv_mpu_dmp_motion_driver.c ****             ((long)fifo_data[2] << 8) | fifo_data[3];
 2261              		.loc 1 1268 0
 2262 0b2a C9F80000 		str	r0, [r9]
1270:drivers/inv_mpu_dmp_motion_driver.c ****         quat[1] = ((long)fifo_data[4] << 24) | ((long)fifo_data[5] << 16) |
 2263              		.loc 1 1270 0
 2264 0b2e 9DF80430 		ldrb	r3, [sp, #4]	@ zero_extendqisi2
 2265 0b32 9DF805E0 		ldrb	lr, [sp, #5]	@ zero_extendqisi2
 2266 0b36 4FEA0E4E 		lsl	lr, lr, #16
 2267 0b3a 4EEA036E 		orr	lr, lr, r3, lsl #24
1271:drivers/inv_mpu_dmp_motion_driver.c ****             ((long)fifo_data[6] << 8) | fifo_data[7];
 2268              		.loc 1 1271 0
 2269 0b3e 9DF80730 		ldrb	r3, [sp, #7]	@ zero_extendqisi2
 2270 0b42 4EEA030E 		orr	lr, lr, r3
 2271 0b46 9DF80630 		ldrb	r3, [sp, #6]	@ zero_extendqisi2
 2272 0b4a 4EEA032E 		orr	lr, lr, r3, lsl #8
1270:drivers/inv_mpu_dmp_motion_driver.c ****         quat[1] = ((long)fifo_data[4] << 24) | ((long)fifo_data[5] << 16) |
 2273              		.loc 1 1270 0
 2274 0b4e C9F804E0 		str	lr, [r9, #4]
1272:drivers/inv_mpu_dmp_motion_driver.c ****         quat[2] = ((long)fifo_data[8] << 24) | ((long)fifo_data[9] << 16) |
 2275              		.loc 1 1272 0
 2276 0b52 9DF80830 		ldrb	r3, [sp, #8]	@ zero_extendqisi2
 2277 0b56 9DF80910 		ldrb	r1, [sp, #9]	@ zero_extendqisi2
 2278 0b5a 0904     		lsls	r1, r1, #16
 2279 0b5c 41EA0361 		orr	r1, r1, r3, lsl #24
1273:drivers/inv_mpu_dmp_motion_driver.c ****             ((long)fifo_data[10] << 8) | fifo_data[11];
 2280              		.loc 1 1273 0
 2281 0b60 9DF80B30 		ldrb	r3, [sp, #11]	@ zero_extendqisi2
 2282 0b64 1943     		orrs	r1, r1, r3
 2283 0b66 9DF80A30 		ldrb	r3, [sp, #10]	@ zero_extendqisi2
 2284 0b6a 41EA0321 		orr	r1, r1, r3, lsl #8
1272:drivers/inv_mpu_dmp_motion_driver.c ****         quat[2] = ((long)fifo_data[8] << 24) | ((long)fifo_data[9] << 16) |
 2285              		.loc 1 1272 0
 2286 0b6e C9F80810 		str	r1, [r9, #8]
1274:drivers/inv_mpu_dmp_motion_driver.c ****         quat[3] = ((long)fifo_data[12] << 24) | ((long)fifo_data[13] << 16) |
 2287              		.loc 1 1274 0
 2288 0b72 9DF80CC0 		ldrb	ip, [sp, #12]	@ zero_extendqisi2
 2289 0b76 9DF80D30 		ldrb	r3, [sp, #13]	@ zero_extendqisi2
 2290 0b7a 1B04     		lsls	r3, r3, #16
 2291 0b7c 43EA0C63 		orr	r3, r3, ip, lsl #24
1275:drivers/inv_mpu_dmp_motion_driver.c ****             ((long)fifo_data[14] << 8) | fifo_data[15];
 2292              		.loc 1 1275 0
 2293 0b80 9DF80FC0 		ldrb	ip, [sp, #15]	@ zero_extendqisi2
 2294 0b84 43EA0C03 		orr	r3, r3, ip
 2295 0b88 9DF80EC0 		ldrb	ip, [sp, #14]	@ zero_extendqisi2
 2296 0b8c 43EA0C23 		orr	r3, r3, ip, lsl #8
1274:drivers/inv_mpu_dmp_motion_driver.c ****         quat[3] = ((long)fifo_data[12] << 24) | ((long)fifo_data[13] << 16) |
 2297              		.loc 1 1274 0
 2298 0b90 C9F80C30 		str	r3, [r9, #12]
 2299              	.LVL213:
1276:drivers/inv_mpu_dmp_motion_driver.c ****         ii += 16;
ARM GAS  /tmp/ccBPBbjw.s 			page 66


1277:drivers/inv_mpu_dmp_motion_driver.c **** #ifdef FIFO_CORRUPTION_CHECK
1278:drivers/inv_mpu_dmp_motion_driver.c ****         /* We can detect a corrupted FIFO by monitoring the quaternion data and
1279:drivers/inv_mpu_dmp_motion_driver.c ****          * ensuring that the magnitude is always normalized to one. This
1280:drivers/inv_mpu_dmp_motion_driver.c ****          * shouldn't happen in normal operation, but if an I2C error occurs,
1281:drivers/inv_mpu_dmp_motion_driver.c ****          * the FIFO reads might become misaligned.
1282:drivers/inv_mpu_dmp_motion_driver.c ****          *
1283:drivers/inv_mpu_dmp_motion_driver.c ****          * Let's start by scaling down the quaternion data to avoid long long
1284:drivers/inv_mpu_dmp_motion_driver.c ****          * math.
1285:drivers/inv_mpu_dmp_motion_driver.c ****          */
1286:drivers/inv_mpu_dmp_motion_driver.c ****         quat_q14[0] = quat[0] >> 16;
 2300              		.loc 1 1286 0
 2301 0b94 0014     		asrs	r0, r0, #16
 2302              	.LVL214:
1287:drivers/inv_mpu_dmp_motion_driver.c ****         quat_q14[1] = quat[1] >> 16;
 2303              		.loc 1 1287 0
 2304 0b96 4FEA2E4E 		asr	lr, lr, #16
 2305              	.LVL215:
1288:drivers/inv_mpu_dmp_motion_driver.c ****         quat_q14[2] = quat[2] >> 16;
 2306              		.loc 1 1288 0
 2307 0b9a 0914     		asrs	r1, r1, #16
 2308              	.LVL216:
1289:drivers/inv_mpu_dmp_motion_driver.c ****         quat_q14[3] = quat[3] >> 16;
 2309              		.loc 1 1289 0
 2310 0b9c 1B14     		asrs	r3, r3, #16
 2311              	.LVL217:
1290:drivers/inv_mpu_dmp_motion_driver.c ****         quat_mag_sq = quat_q14[0] * quat_q14[0] + quat_q14[1] * quat_q14[1] +
 2312              		.loc 1 1290 0
 2313 0b9e 0EFB0EFE 		mul	lr, lr, lr
 2314              	.LVL218:
 2315 0ba2 00FB00E0 		mla	r0, r0, r0, lr
 2316              	.LVL219:
 2317 0ba6 01FB0101 		mla	r1, r1, r1, r0
 2318              	.LVL220:
 2319 0baa 03FB0313 		mla	r3, r3, r3, r1
 2320              	.LVL221:
1291:drivers/inv_mpu_dmp_motion_driver.c ****             quat_q14[2] * quat_q14[2] + quat_q14[3] * quat_q14[3];
1292:drivers/inv_mpu_dmp_motion_driver.c ****         if ((quat_mag_sq < QUAT_MAG_SQ_MIN) ||
 2321              		.loc 1 1292 0
 2322 0bae 03F17143 		add	r3, r3, #-251658240
 2323 0bb2 B3F1007F 		cmp	r3, #33554432
 2324 0bb6 05D8     		bhi	.L191
1293:drivers/inv_mpu_dmp_motion_driver.c ****             (quat_mag_sq > QUAT_MAG_SQ_MAX)) {
1294:drivers/inv_mpu_dmp_motion_driver.c ****             /* Quaternion is outside of the acceptable threshold. */
1295:drivers/inv_mpu_dmp_motion_driver.c ****             mpu_reset_fifo();
1296:drivers/inv_mpu_dmp_motion_driver.c ****             sensors[0] = 0;
1297:drivers/inv_mpu_dmp_motion_driver.c ****             return -1;
1298:drivers/inv_mpu_dmp_motion_driver.c ****         }
1299:drivers/inv_mpu_dmp_motion_driver.c ****         sensors[0] |= INV_WXYZ_QUAT;
 2325              		.loc 1 1299 0
 2326 0bb8 2388     		ldrh	r3, [r4]
 2327 0bba 43F48073 		orr	r3, r3, #256
 2328 0bbe 2380     		strh	r3, [r4]	@ movhi
 2329              	.LVL222:
1276:drivers/inv_mpu_dmp_motion_driver.c **** #ifdef FIFO_CORRUPTION_CHECK
 2330              		.loc 1 1276 0
 2331 0bc0 1023     		movs	r3, #16
 2332 0bc2 07E0     		b	.L182
ARM GAS  /tmp/ccBPBbjw.s 			page 67


 2333              	.LVL223:
 2334              	.L191:
1295:drivers/inv_mpu_dmp_motion_driver.c ****             sensors[0] = 0;
 2335              		.loc 1 1295 0
 2336 0bc4 FFF7FEFF 		bl	mpu_reset_fifo
 2337              	.LVL224:
1296:drivers/inv_mpu_dmp_motion_driver.c ****             return -1;
 2338              		.loc 1 1296 0
 2339 0bc8 0023     		movs	r3, #0
 2340 0bca 2380     		strh	r3, [r4]	@ movhi
1297:drivers/inv_mpu_dmp_motion_driver.c ****         }
 2341              		.loc 1 1297 0
 2342 0bcc 4FF0FF37 		mov	r7, #-1
 2343 0bd0 46E0     		b	.L180
 2344              	.LVL225:
 2345              	.L189:
 2346              	.LBE8:
1256:drivers/inv_mpu_dmp_motion_driver.c ****     sensors[0] = 0;
 2347              		.loc 1 1256 0
 2348 0bd2 0023     		movs	r3, #0
 2349              	.LVL226:
 2350              	.L182:
1300:drivers/inv_mpu_dmp_motion_driver.c **** #endif
1301:drivers/inv_mpu_dmp_motion_driver.c ****     }
1302:drivers/inv_mpu_dmp_motion_driver.c **** 
1303:drivers/inv_mpu_dmp_motion_driver.c ****     if (dmp.feature_mask & DMP_FEATURE_SEND_RAW_ACCEL) {
 2351              		.loc 1 1303 0
 2352 0bd4 12F0400F 		tst	r2, #64
 2353 0bd8 1CD0     		beq	.L184
1304:drivers/inv_mpu_dmp_motion_driver.c ****         accel[0] = ((short)fifo_data[ii+0] << 8) | fifo_data[ii+1];
 2354              		.loc 1 1304 0
 2355 0bda 08A9     		add	r1, sp, #32
 2356 0bdc 1944     		add	r1, r1, r3
 2357 0bde 11F820EC 		ldrb	lr, [r1, #-32]	@ zero_extendqisi2
 2358 0be2 11F81F0C 		ldrb	r0, [r1, #-31]	@ zero_extendqisi2
 2359 0be6 40EA0E20 		orr	r0, r0, lr, lsl #8
 2360 0bea 3080     		strh	r0, [r6]	@ movhi
1305:drivers/inv_mpu_dmp_motion_driver.c ****         accel[1] = ((short)fifo_data[ii+2] << 8) | fifo_data[ii+3];
 2361              		.loc 1 1305 0
 2362 0bec 11F81EEC 		ldrb	lr, [r1, #-30]	@ zero_extendqisi2
 2363 0bf0 11F81D0C 		ldrb	r0, [r1, #-29]	@ zero_extendqisi2
 2364 0bf4 40EA0E20 		orr	r0, r0, lr, lsl #8
 2365 0bf8 7080     		strh	r0, [r6, #2]	@ movhi
1306:drivers/inv_mpu_dmp_motion_driver.c ****         accel[2] = ((short)fifo_data[ii+4] << 8) | fifo_data[ii+5];
 2366              		.loc 1 1306 0
 2367 0bfa 11F81C0C 		ldrb	r0, [r1, #-28]	@ zero_extendqisi2
 2368 0bfe 11F81B1C 		ldrb	r1, [r1, #-27]	@ zero_extendqisi2
 2369 0c02 41EA0021 		orr	r1, r1, r0, lsl #8
 2370 0c06 B180     		strh	r1, [r6, #4]	@ movhi
1307:drivers/inv_mpu_dmp_motion_driver.c ****         ii += 6;
 2371              		.loc 1 1307 0
 2372 0c08 0633     		adds	r3, r3, #6
 2373              	.LVL227:
 2374 0c0a DBB2     		uxtb	r3, r3
 2375              	.LVL228:
1308:drivers/inv_mpu_dmp_motion_driver.c ****         sensors[0] |= INV_XYZ_ACCEL;
 2376              		.loc 1 1308 0
ARM GAS  /tmp/ccBPBbjw.s 			page 68


 2377 0c0c 2188     		ldrh	r1, [r4]
 2378 0c0e 41F00801 		orr	r1, r1, #8
 2379 0c12 2180     		strh	r1, [r4]	@ movhi
 2380              	.L184:
1309:drivers/inv_mpu_dmp_motion_driver.c ****     }
1310:drivers/inv_mpu_dmp_motion_driver.c **** 
1311:drivers/inv_mpu_dmp_motion_driver.c ****     if (dmp.feature_mask & DMP_FEATURE_SEND_ANY_GYRO) {
 2381              		.loc 1 1311 0
 2382 0c14 12F4C07F 		tst	r2, #384
 2383 0c18 1CD0     		beq	.L185
1312:drivers/inv_mpu_dmp_motion_driver.c ****         gyro[0] = ((short)fifo_data[ii+0] << 8) | fifo_data[ii+1];
 2384              		.loc 1 1312 0
 2385 0c1a 08A9     		add	r1, sp, #32
 2386 0c1c 1944     		add	r1, r1, r3
 2387 0c1e 11F8206C 		ldrb	r6, [r1, #-32]	@ zero_extendqisi2
 2388              	.LVL229:
 2389 0c22 11F81F0C 		ldrb	r0, [r1, #-31]	@ zero_extendqisi2
 2390 0c26 40EA0620 		orr	r0, r0, r6, lsl #8
 2391 0c2a 2880     		strh	r0, [r5]	@ movhi
1313:drivers/inv_mpu_dmp_motion_driver.c ****         gyro[1] = ((short)fifo_data[ii+2] << 8) | fifo_data[ii+3];
 2392              		.loc 1 1313 0
 2393 0c2c 11F81E6C 		ldrb	r6, [r1, #-30]	@ zero_extendqisi2
 2394 0c30 11F81D0C 		ldrb	r0, [r1, #-29]	@ zero_extendqisi2
 2395 0c34 40EA0620 		orr	r0, r0, r6, lsl #8
 2396 0c38 6880     		strh	r0, [r5, #2]	@ movhi
1314:drivers/inv_mpu_dmp_motion_driver.c ****         gyro[2] = ((short)fifo_data[ii+4] << 8) | fifo_data[ii+5];
 2397              		.loc 1 1314 0
 2398 0c3a 11F81C0C 		ldrb	r0, [r1, #-28]	@ zero_extendqisi2
 2399 0c3e 11F81B1C 		ldrb	r1, [r1, #-27]	@ zero_extendqisi2
 2400 0c42 41EA0021 		orr	r1, r1, r0, lsl #8
 2401 0c46 A980     		strh	r1, [r5, #4]	@ movhi
1315:drivers/inv_mpu_dmp_motion_driver.c ****         ii += 6;
 2402              		.loc 1 1315 0
 2403 0c48 0633     		adds	r3, r3, #6
 2404              	.LVL230:
 2405 0c4a DBB2     		uxtb	r3, r3
 2406              	.LVL231:
1316:drivers/inv_mpu_dmp_motion_driver.c ****         sensors[0] |= INV_XYZ_GYRO;
 2407              		.loc 1 1316 0
 2408 0c4c 2188     		ldrh	r1, [r4]
 2409 0c4e 41F07001 		orr	r1, r1, #112
 2410 0c52 2180     		strh	r1, [r4]	@ movhi
 2411              	.L185:
1317:drivers/inv_mpu_dmp_motion_driver.c ****     }
1318:drivers/inv_mpu_dmp_motion_driver.c **** 
1319:drivers/inv_mpu_dmp_motion_driver.c ****     /* Gesture data is at the end of the DMP packet. Parse it and call
1320:drivers/inv_mpu_dmp_motion_driver.c ****      * the gesture callbacks (if registered).
1321:drivers/inv_mpu_dmp_motion_driver.c ****      */
1322:drivers/inv_mpu_dmp_motion_driver.c ****     if (dmp.feature_mask & (DMP_FEATURE_TAP | DMP_FEATURE_ANDROID_ORIENT))
 2412              		.loc 1 1322 0
 2413 0c54 12F0030F 		tst	r2, #3
 2414 0c58 06D1     		bne	.L192
 2415              	.LVL232:
 2416              	.L186:
1323:drivers/inv_mpu_dmp_motion_driver.c ****         decode_gesture(fifo_data + ii);
1324:drivers/inv_mpu_dmp_motion_driver.c **** 
1325:drivers/inv_mpu_dmp_motion_driver.c ****     myget_ms(timestamp);
ARM GAS  /tmp/ccBPBbjw.s 			page 69


 2417              		.loc 1 1325 0
 2418 0c5a 4046     		mov	r0, r8
 2419 0c5c FFF7FEFF 		bl	myget_ms
 2420              	.LVL233:
 2421              	.L180:
1326:drivers/inv_mpu_dmp_motion_driver.c ****     return 0;
1327:drivers/inv_mpu_dmp_motion_driver.c **** }
 2422              		.loc 1 1327 0
 2423 0c60 3846     		mov	r0, r7
 2424 0c62 09B0     		add	sp, sp, #36
 2425              		.cfi_remember_state
 2426              		.cfi_def_cfa_offset 28
 2427              		@ sp needed
 2428 0c64 BDE8F083 		pop	{r4, r5, r6, r7, r8, r9, pc}
 2429              	.LVL234:
 2430              	.L192:
 2431              		.cfi_restore_state
1323:drivers/inv_mpu_dmp_motion_driver.c ****         decode_gesture(fifo_data + ii);
 2432              		.loc 1 1323 0
 2433 0c68 0DEB0304 		add	r4, sp, r3
 2434              	.LVL235:
 2435              	.LBB9:
 2436              	.LBB10:
1185:drivers/inv_mpu_dmp_motion_driver.c ****     tap = 0x3F & gesture[3];
 2437              		.loc 1 1185 0
 2438 0c6c E578     		ldrb	r5, [r4, #3]	@ zero_extendqisi2
 2439              	.LVL236:
1188:drivers/inv_mpu_dmp_motion_driver.c ****         unsigned char direction, count;
 2440              		.loc 1 1188 0
 2441 0c6e 6378     		ldrb	r3, [r4, #1]	@ zero_extendqisi2
 2442              	.LVL237:
 2443 0c70 13F0010F 		tst	r3, #1
 2444 0c74 08D0     		beq	.L187
 2445              	.LVL238:
 2446              	.LBB11:
1192:drivers/inv_mpu_dmp_motion_driver.c ****             dmp.tap_cb(direction, count);
 2447              		.loc 1 1192 0
 2448 0c76 0B4B     		ldr	r3, .L193
 2449 0c78 1B68     		ldr	r3, [r3]
 2450 0c7a 2BB1     		cbz	r3, .L187
1191:drivers/inv_mpu_dmp_motion_driver.c ****         if (dmp.tap_cb)
 2451              		.loc 1 1191 0
 2452 0c7c 05F00701 		and	r1, r5, #7
1193:drivers/inv_mpu_dmp_motion_driver.c ****     }
 2453              		.loc 1 1193 0
 2454 0c80 0131     		adds	r1, r1, #1
 2455 0c82 C5F3C200 		ubfx	r0, r5, #3, #3
 2456 0c86 9847     		blx	r3
 2457              	.LVL239:
 2458              	.L187:
 2459              	.LBE11:
1196:drivers/inv_mpu_dmp_motion_driver.c ****         if (dmp.android_orient_cb)
 2460              		.loc 1 1196 0
 2461 0c88 6378     		ldrb	r3, [r4, #1]	@ zero_extendqisi2
 2462 0c8a 13F0080F 		tst	r3, #8
 2463 0c8e E4D0     		beq	.L186
1197:drivers/inv_mpu_dmp_motion_driver.c ****             dmp.android_orient_cb(android_orient >> 6);
ARM GAS  /tmp/ccBPBbjw.s 			page 70


 2464              		.loc 1 1197 0
 2465 0c90 044B     		ldr	r3, .L193
 2466 0c92 5B68     		ldr	r3, [r3, #4]
 2467 0c94 002B     		cmp	r3, #0
 2468 0c96 E0D0     		beq	.L186
1198:drivers/inv_mpu_dmp_motion_driver.c ****     }
 2469              		.loc 1 1198 0
 2470 0c98 A809     		lsrs	r0, r5, #6
 2471 0c9a 9847     		blx	r3
 2472              	.LVL240:
 2473 0c9c DDE7     		b	.L186
 2474              	.LVL241:
 2475              	.L188:
 2476              	.LBE10:
 2477              	.LBE9:
1261:drivers/inv_mpu_dmp_motion_driver.c **** 
 2478              		.loc 1 1261 0
 2479 0c9e 4FF0FF37 		mov	r7, #-1
 2480 0ca2 DDE7     		b	.L180
 2481              	.L194:
 2482              		.align	2
 2483              	.L193:
 2484 0ca4 00000000 		.word	.LANCHOR1
 2485              		.cfi_endproc
 2486              	.LFE89:
 2487              		.size	dmp_read_fifo, .-dmp_read_fifo
 2488              		.align	1
 2489              		.global	dmp_register_tap_cb
 2490              		.syntax unified
 2491              		.thumb
 2492              		.thumb_func
 2493              		.fpu softvfp
 2494              		.type	dmp_register_tap_cb, %function
 2495              	dmp_register_tap_cb:
 2496              	.LFB90:
1328:drivers/inv_mpu_dmp_motion_driver.c **** 
1329:drivers/inv_mpu_dmp_motion_driver.c **** /**
1330:drivers/inv_mpu_dmp_motion_driver.c ****  *  @brief      Register a function to be executed on a tap event.
1331:drivers/inv_mpu_dmp_motion_driver.c ****  *  The tap direction is represented by one of the following:
1332:drivers/inv_mpu_dmp_motion_driver.c ****  *  \n TAP_X_UP
1333:drivers/inv_mpu_dmp_motion_driver.c ****  *  \n TAP_X_DOWN
1334:drivers/inv_mpu_dmp_motion_driver.c ****  *  \n TAP_Y_UP
1335:drivers/inv_mpu_dmp_motion_driver.c ****  *  \n TAP_Y_DOWN
1336:drivers/inv_mpu_dmp_motion_driver.c ****  *  \n TAP_Z_UP
1337:drivers/inv_mpu_dmp_motion_driver.c ****  *  \n TAP_Z_DOWN
1338:drivers/inv_mpu_dmp_motion_driver.c ****  *  @param[in]  func    Callback function.
1339:drivers/inv_mpu_dmp_motion_driver.c ****  *  @return     0 if successful.
1340:drivers/inv_mpu_dmp_motion_driver.c ****  */
1341:drivers/inv_mpu_dmp_motion_driver.c **** int dmp_register_tap_cb(void (*func)(unsigned char, unsigned char))
1342:drivers/inv_mpu_dmp_motion_driver.c **** {
 2497              		.loc 1 1342 0
 2498              		.cfi_startproc
 2499              		@ args = 0, pretend = 0, frame = 0
 2500              		@ frame_needed = 0, uses_anonymous_args = 0
 2501              		@ link register save eliminated.
 2502              	.LVL242:
1343:drivers/inv_mpu_dmp_motion_driver.c ****     dmp.tap_cb = func;
ARM GAS  /tmp/ccBPBbjw.s 			page 71


 2503              		.loc 1 1343 0
 2504 0ca8 014B     		ldr	r3, .L196
 2505 0caa 1860     		str	r0, [r3]
1344:drivers/inv_mpu_dmp_motion_driver.c ****     return 0;
1345:drivers/inv_mpu_dmp_motion_driver.c **** }
 2506              		.loc 1 1345 0
 2507 0cac 0020     		movs	r0, #0
 2508              	.LVL243:
 2509 0cae 7047     		bx	lr
 2510              	.L197:
 2511              		.align	2
 2512              	.L196:
 2513 0cb0 00000000 		.word	.LANCHOR1
 2514              		.cfi_endproc
 2515              	.LFE90:
 2516              		.size	dmp_register_tap_cb, .-dmp_register_tap_cb
 2517              		.align	1
 2518              		.global	dmp_register_android_orient_cb
 2519              		.syntax unified
 2520              		.thumb
 2521              		.thumb_func
 2522              		.fpu softvfp
 2523              		.type	dmp_register_android_orient_cb, %function
 2524              	dmp_register_android_orient_cb:
 2525              	.LFB91:
1346:drivers/inv_mpu_dmp_motion_driver.c **** 
1347:drivers/inv_mpu_dmp_motion_driver.c **** /**
1348:drivers/inv_mpu_dmp_motion_driver.c ****  *  @brief      Register a function to be executed on a android orientation event.
1349:drivers/inv_mpu_dmp_motion_driver.c ****  *  @param[in]  func    Callback function.
1350:drivers/inv_mpu_dmp_motion_driver.c ****  *  @return     0 if successful.
1351:drivers/inv_mpu_dmp_motion_driver.c ****  */
1352:drivers/inv_mpu_dmp_motion_driver.c **** int dmp_register_android_orient_cb(void (*func)(unsigned char))
1353:drivers/inv_mpu_dmp_motion_driver.c **** {
 2526              		.loc 1 1353 0
 2527              		.cfi_startproc
 2528              		@ args = 0, pretend = 0, frame = 0
 2529              		@ frame_needed = 0, uses_anonymous_args = 0
 2530              		@ link register save eliminated.
 2531              	.LVL244:
1354:drivers/inv_mpu_dmp_motion_driver.c ****     dmp.android_orient_cb = func;
 2532              		.loc 1 1354 0
 2533 0cb4 014B     		ldr	r3, .L199
 2534 0cb6 5860     		str	r0, [r3, #4]
1355:drivers/inv_mpu_dmp_motion_driver.c ****     return 0;
1356:drivers/inv_mpu_dmp_motion_driver.c **** }
 2535              		.loc 1 1356 0
 2536 0cb8 0020     		movs	r0, #0
 2537              	.LVL245:
 2538 0cba 7047     		bx	lr
 2539              	.L200:
 2540              		.align	2
 2541              	.L199:
 2542 0cbc 00000000 		.word	.LANCHOR1
 2543              		.cfi_endproc
 2544              	.LFE91:
 2545              		.size	dmp_register_android_orient_cb, .-dmp_register_android_orient_cb
 2546              		.section	.rodata
ARM GAS  /tmp/ccBPBbjw.s 			page 72


 2547              		.align	2
 2548              		.set	.LANCHOR0,. + 0
 2549              		.type	dmp_memory, %object
 2550              		.size	dmp_memory, 3062
 2551              	dmp_memory:
 2552 0000 00       		.byte	0
 2553 0001 00       		.byte	0
 2554 0002 70       		.byte	112
 2555 0003 00       		.byte	0
 2556 0004 00       		.byte	0
 2557 0005 00       		.byte	0
 2558 0006 00       		.byte	0
 2559 0007 24       		.byte	36
 2560 0008 00       		.byte	0
 2561 0009 00       		.byte	0
 2562 000a 00       		.byte	0
 2563 000b 02       		.byte	2
 2564 000c 00       		.byte	0
 2565 000d 03       		.byte	3
 2566 000e 00       		.byte	0
 2567 000f 00       		.byte	0
 2568 0010 00       		.byte	0
 2569 0011 65       		.byte	101
 2570 0012 00       		.byte	0
 2571 0013 54       		.byte	84
 2572 0014 FF       		.byte	-1
 2573 0015 EF       		.byte	-17
 2574 0016 00       		.byte	0
 2575 0017 00       		.byte	0
 2576 0018 FA       		.byte	-6
 2577 0019 80       		.byte	-128
 2578 001a 00       		.byte	0
 2579 001b 0B       		.byte	11
 2580 001c 12       		.byte	18
 2581 001d 82       		.byte	-126
 2582 001e 00       		.byte	0
 2583 001f 01       		.byte	1
 2584 0020 03       		.byte	3
 2585 0021 0C       		.byte	12
 2586 0022 30       		.byte	48
 2587 0023 C3       		.byte	-61
 2588 0024 0E       		.byte	14
 2589 0025 8C       		.byte	-116
 2590 0026 8C       		.byte	-116
 2591 0027 E9       		.byte	-23
 2592 0028 14       		.byte	20
 2593 0029 D5       		.byte	-43
 2594 002a 40       		.byte	64
 2595 002b 02       		.byte	2
 2596 002c 13       		.byte	19
 2597 002d 71       		.byte	113
 2598 002e 0F       		.byte	15
 2599 002f 8E       		.byte	-114
 2600 0030 38       		.byte	56
 2601 0031 83       		.byte	-125
 2602 0032 F8       		.byte	-8
 2603 0033 83       		.byte	-125
ARM GAS  /tmp/ccBPBbjw.s 			page 73


 2604 0034 30       		.byte	48
 2605 0035 00       		.byte	0
 2606 0036 F8       		.byte	-8
 2607 0037 83       		.byte	-125
 2608 0038 25       		.byte	37
 2609 0039 8E       		.byte	-114
 2610 003a F8       		.byte	-8
 2611 003b 83       		.byte	-125
 2612 003c 30       		.byte	48
 2613 003d 00       		.byte	0
 2614 003e F8       		.byte	-8
 2615 003f 83       		.byte	-125
 2616 0040 FF       		.byte	-1
 2617 0041 FF       		.byte	-1
 2618 0042 FF       		.byte	-1
 2619 0043 FF       		.byte	-1
 2620 0044 0F       		.byte	15
 2621 0045 FE       		.byte	-2
 2622 0046 A9       		.byte	-87
 2623 0047 D6       		.byte	-42
 2624 0048 24       		.byte	36
 2625 0049 00       		.byte	0
 2626 004a 04       		.byte	4
 2627 004b 00       		.byte	0
 2628 004c 1A       		.byte	26
 2629 004d 82       		.byte	-126
 2630 004e 79       		.byte	121
 2631 004f A1       		.byte	-95
 2632 0050 00       		.byte	0
 2633 0051 00       		.byte	0
 2634 0052 00       		.byte	0
 2635 0053 3C       		.byte	60
 2636 0054 FF       		.byte	-1
 2637 0055 FF       		.byte	-1
 2638 0056 00       		.byte	0
 2639 0057 00       		.byte	0
 2640 0058 00       		.byte	0
 2641 0059 10       		.byte	16
 2642 005a 00       		.byte	0
 2643 005b 00       		.byte	0
 2644 005c 38       		.byte	56
 2645 005d 83       		.byte	-125
 2646 005e 6F       		.byte	111
 2647 005f A2       		.byte	-94
 2648 0060 00       		.byte	0
 2649 0061 3E       		.byte	62
 2650 0062 03       		.byte	3
 2651 0063 30       		.byte	48
 2652 0064 40       		.byte	64
 2653 0065 00       		.byte	0
 2654 0066 00       		.byte	0
 2655 0067 00       		.byte	0
 2656 0068 02       		.byte	2
 2657 0069 CA       		.byte	-54
 2658 006a E3       		.byte	-29
 2659 006b 09       		.byte	9
 2660 006c 3E       		.byte	62
ARM GAS  /tmp/ccBPBbjw.s 			page 74


 2661 006d 80       		.byte	-128
 2662 006e 00       		.byte	0
 2663 006f 00       		.byte	0
 2664 0070 20       		.byte	32
 2665 0071 00       		.byte	0
 2666 0072 00       		.byte	0
 2667 0073 00       		.byte	0
 2668 0074 00       		.byte	0
 2669 0075 00       		.byte	0
 2670 0076 00       		.byte	0
 2671 0077 00       		.byte	0
 2672 0078 40       		.byte	64
 2673 0079 00       		.byte	0
 2674 007a 00       		.byte	0
 2675 007b 00       		.byte	0
 2676 007c 60       		.byte	96
 2677 007d 00       		.byte	0
 2678 007e 00       		.byte	0
 2679 007f 00       		.byte	0
 2680 0080 00       		.byte	0
 2681 0081 0C       		.byte	12
 2682 0082 00       		.byte	0
 2683 0083 00       		.byte	0
 2684 0084 00       		.byte	0
 2685 0085 0C       		.byte	12
 2686 0086 18       		.byte	24
 2687 0087 6E       		.byte	110
 2688 0088 00       		.byte	0
 2689 0089 00       		.byte	0
 2690 008a 06       		.byte	6
 2691 008b 92       		.byte	-110
 2692 008c 0A       		.byte	10
 2693 008d 16       		.byte	22
 2694 008e C0       		.byte	-64
 2695 008f DF       		.byte	-33
 2696 0090 FF       		.byte	-1
 2697 0091 FF       		.byte	-1
 2698 0092 02       		.byte	2
 2699 0093 56       		.byte	86
 2700 0094 FD       		.byte	-3
 2701 0095 8C       		.byte	-116
 2702 0096 D3       		.byte	-45
 2703 0097 77       		.byte	119
 2704 0098 FF       		.byte	-1
 2705 0099 E1       		.byte	-31
 2706 009a C4       		.byte	-60
 2707 009b 96       		.byte	-106
 2708 009c E0       		.byte	-32
 2709 009d C5       		.byte	-59
 2710 009e BE       		.byte	-66
 2711 009f AA       		.byte	-86
 2712 00a0 00       		.byte	0
 2713 00a1 00       		.byte	0
 2714 00a2 00       		.byte	0
 2715 00a3 00       		.byte	0
 2716 00a4 FF       		.byte	-1
 2717 00a5 FF       		.byte	-1
ARM GAS  /tmp/ccBPBbjw.s 			page 75


 2718 00a6 0B       		.byte	11
 2719 00a7 2B       		.byte	43
 2720 00a8 00       		.byte	0
 2721 00a9 00       		.byte	0
 2722 00aa 16       		.byte	22
 2723 00ab 57       		.byte	87
 2724 00ac 00       		.byte	0
 2725 00ad 00       		.byte	0
 2726 00ae 03       		.byte	3
 2727 00af 59       		.byte	89
 2728 00b0 40       		.byte	64
 2729 00b1 00       		.byte	0
 2730 00b2 00       		.byte	0
 2731 00b3 00       		.byte	0
 2732 00b4 00       		.byte	0
 2733 00b5 00       		.byte	0
 2734 00b6 1D       		.byte	29
 2735 00b7 FA       		.byte	-6
 2736 00b8 00       		.byte	0
 2737 00b9 02       		.byte	2
 2738 00ba 6C       		.byte	108
 2739 00bb 1D       		.byte	29
 2740 00bc 00       		.byte	0
 2741 00bd 00       		.byte	0
 2742 00be 00       		.byte	0
 2743 00bf 00       		.byte	0
 2744 00c0 3F       		.byte	63
 2745 00c1 FF       		.byte	-1
 2746 00c2 DF       		.byte	-33
 2747 00c3 EB       		.byte	-21
 2748 00c4 00       		.byte	0
 2749 00c5 3E       		.byte	62
 2750 00c6 B3       		.byte	-77
 2751 00c7 B6       		.byte	-74
 2752 00c8 00       		.byte	0
 2753 00c9 0D       		.byte	13
 2754 00ca 22       		.byte	34
 2755 00cb 78       		.byte	120
 2756 00cc 00       		.byte	0
 2757 00cd 00       		.byte	0
 2758 00ce 2F       		.byte	47
 2759 00cf 3C       		.byte	60
 2760 00d0 00       		.byte	0
 2761 00d1 00       		.byte	0
 2762 00d2 00       		.byte	0
 2763 00d3 00       		.byte	0
 2764 00d4 00       		.byte	0
 2765 00d5 19       		.byte	25
 2766 00d6 42       		.byte	66
 2767 00d7 B5       		.byte	-75
 2768 00d8 00       		.byte	0
 2769 00d9 00       		.byte	0
 2770 00da 39       		.byte	57
 2771 00db A2       		.byte	-94
 2772 00dc 00       		.byte	0
 2773 00dd 00       		.byte	0
 2774 00de B3       		.byte	-77
ARM GAS  /tmp/ccBPBbjw.s 			page 76


 2775 00df 65       		.byte	101
 2776 00e0 D9       		.byte	-39
 2777 00e1 0E       		.byte	14
 2778 00e2 9F       		.byte	-97
 2779 00e3 C9       		.byte	-55
 2780 00e4 1D       		.byte	29
 2781 00e5 CF       		.byte	-49
 2782 00e6 4C       		.byte	76
 2783 00e7 34       		.byte	52
 2784 00e8 30       		.byte	48
 2785 00e9 00       		.byte	0
 2786 00ea 00       		.byte	0
 2787 00eb 00       		.byte	0
 2788 00ec 50       		.byte	80
 2789 00ed 00       		.byte	0
 2790 00ee 00       		.byte	0
 2791 00ef 00       		.byte	0
 2792 00f0 3B       		.byte	59
 2793 00f1 B6       		.byte	-74
 2794 00f2 7A       		.byte	122
 2795 00f3 E8       		.byte	-24
 2796 00f4 00       		.byte	0
 2797 00f5 64       		.byte	100
 2798 00f6 00       		.byte	0
 2799 00f7 00       		.byte	0
 2800 00f8 00       		.byte	0
 2801 00f9 C8       		.byte	-56
 2802 00fa 00       		.byte	0
 2803 00fb 00       		.byte	0
 2804 00fc 00       		.byte	0
 2805 00fd 00       		.byte	0
 2806 00fe 00       		.byte	0
 2807 00ff 00       		.byte	0
 2808 0100 10       		.byte	16
 2809 0101 00       		.byte	0
 2810 0102 00       		.byte	0
 2811 0103 00       		.byte	0
 2812 0104 10       		.byte	16
 2813 0105 00       		.byte	0
 2814 0106 FA       		.byte	-6
 2815 0107 92       		.byte	-110
 2816 0108 10       		.byte	16
 2817 0109 00       		.byte	0
 2818 010a 22       		.byte	34
 2819 010b 5E       		.byte	94
 2820 010c 00       		.byte	0
 2821 010d 0D       		.byte	13
 2822 010e 22       		.byte	34
 2823 010f 9F       		.byte	-97
 2824 0110 00       		.byte	0
 2825 0111 01       		.byte	1
 2826 0112 00       		.byte	0
 2827 0113 00       		.byte	0
 2828 0114 00       		.byte	0
 2829 0115 32       		.byte	50
 2830 0116 00       		.byte	0
 2831 0117 00       		.byte	0
ARM GAS  /tmp/ccBPBbjw.s 			page 77


 2832 0118 FF       		.byte	-1
 2833 0119 46       		.byte	70
 2834 011a 00       		.byte	0
 2835 011b 00       		.byte	0
 2836 011c 63       		.byte	99
 2837 011d D4       		.byte	-44
 2838 011e 00       		.byte	0
 2839 011f 00       		.byte	0
 2840 0120 10       		.byte	16
 2841 0121 00       		.byte	0
 2842 0122 00       		.byte	0
 2843 0123 00       		.byte	0
 2844 0124 04       		.byte	4
 2845 0125 D6       		.byte	-42
 2846 0126 00       		.byte	0
 2847 0127 00       		.byte	0
 2848 0128 04       		.byte	4
 2849 0129 CC       		.byte	-52
 2850 012a 00       		.byte	0
 2851 012b 00       		.byte	0
 2852 012c 04       		.byte	4
 2853 012d CC       		.byte	-52
 2854 012e 00       		.byte	0
 2855 012f 00       		.byte	0
 2856 0130 00       		.byte	0
 2857 0131 00       		.byte	0
 2858 0132 10       		.byte	16
 2859 0133 72       		.byte	114
 2860 0134 00       		.byte	0
 2861 0135 00       		.byte	0
 2862 0136 00       		.byte	0
 2863 0137 40       		.byte	64
 2864 0138 00       		.byte	0
 2865 0139 00       		.byte	0
 2866 013a 00       		.byte	0
 2867 013b 00       		.byte	0
 2868 013c 00       		.byte	0
 2869 013d 00       		.byte	0
 2870 013e 00       		.byte	0
 2871 013f 00       		.byte	0
 2872 0140 00       		.byte	0
 2873 0141 06       		.byte	6
 2874 0142 00       		.byte	0
 2875 0143 02       		.byte	2
 2876 0144 00       		.byte	0
 2877 0145 05       		.byte	5
 2878 0146 00       		.byte	0
 2879 0147 07       		.byte	7
 2880 0148 00       		.byte	0
 2881 0149 00       		.byte	0
 2882 014a 00       		.byte	0
 2883 014b 00       		.byte	0
 2884 014c 00       		.byte	0
 2885 014d 64       		.byte	100
 2886 014e 00       		.byte	0
 2887 014f 00       		.byte	0
 2888 0150 00       		.byte	0
ARM GAS  /tmp/ccBPBbjw.s 			page 78


 2889 0151 00       		.byte	0
 2890 0152 00       		.byte	0
 2891 0153 00       		.byte	0
 2892 0154 00       		.byte	0
 2893 0155 00       		.byte	0
 2894 0156 00       		.byte	0
 2895 0157 05       		.byte	5
 2896 0158 00       		.byte	0
 2897 0159 05       		.byte	5
 2898 015a 00       		.byte	0
 2899 015b 64       		.byte	100
 2900 015c 00       		.byte	0
 2901 015d 20       		.byte	32
 2902 015e 00       		.byte	0
 2903 015f 00       		.byte	0
 2904 0160 00       		.byte	0
 2905 0161 00       		.byte	0
 2906 0162 00       		.byte	0
 2907 0163 00       		.byte	0
 2908 0164 00       		.byte	0
 2909 0165 00       		.byte	0
 2910 0166 00       		.byte	0
 2911 0167 00       		.byte	0
 2912 0168 00       		.byte	0
 2913 0169 00       		.byte	0
 2914 016a 40       		.byte	64
 2915 016b 00       		.byte	0
 2916 016c 00       		.byte	0
 2917 016d 00       		.byte	0
 2918 016e 03       		.byte	3
 2919 016f 00       		.byte	0
 2920 0170 00       		.byte	0
 2921 0171 00       		.byte	0
 2922 0172 00       		.byte	0
 2923 0173 32       		.byte	50
 2924 0174 F8       		.byte	-8
 2925 0175 98       		.byte	-104
 2926 0176 00       		.byte	0
 2927 0177 00       		.byte	0
 2928 0178 FF       		.byte	-1
 2929 0179 65       		.byte	101
 2930 017a 00       		.byte	0
 2931 017b 00       		.byte	0
 2932 017c 83       		.byte	-125
 2933 017d 0F       		.byte	15
 2934 017e 00       		.byte	0
 2935 017f 00       		.byte	0
 2936 0180 FF       		.byte	-1
 2937 0181 9B       		.byte	-101
 2938 0182 FC       		.byte	-4
 2939 0183 00       		.byte	0
 2940 0184 00       		.byte	0
 2941 0185 00       		.byte	0
 2942 0186 00       		.byte	0
 2943 0187 00       		.byte	0
 2944 0188 00       		.byte	0
 2945 0189 00       		.byte	0
ARM GAS  /tmp/ccBPBbjw.s 			page 79


 2946 018a 00       		.byte	0
 2947 018b 00       		.byte	0
 2948 018c 00       		.byte	0
 2949 018d 00       		.byte	0
 2950 018e 00       		.byte	0
 2951 018f 00       		.byte	0
 2952 0190 00       		.byte	0
 2953 0191 00       		.byte	0
 2954 0192 00       		.byte	0
 2955 0193 00       		.byte	0
 2956 0194 00       		.byte	0
 2957 0195 00       		.byte	0
 2958 0196 00       		.byte	0
 2959 0197 00       		.byte	0
 2960 0198 00       		.byte	0
 2961 0199 00       		.byte	0
 2962 019a 00       		.byte	0
 2963 019b 00       		.byte	0
 2964 019c 00       		.byte	0
 2965 019d 00       		.byte	0
 2966 019e 00       		.byte	0
 2967 019f 00       		.byte	0
 2968 01a0 00       		.byte	0
 2969 01a1 00       		.byte	0
 2970 01a2 00       		.byte	0
 2971 01a3 00       		.byte	0
 2972 01a4 00       		.byte	0
 2973 01a5 00       		.byte	0
 2974 01a6 00       		.byte	0
 2975 01a7 00       		.byte	0
 2976 01a8 00       		.byte	0
 2977 01a9 00       		.byte	0
 2978 01aa 00       		.byte	0
 2979 01ab 00       		.byte	0
 2980 01ac 00       		.byte	0
 2981 01ad 00       		.byte	0
 2982 01ae 10       		.byte	16
 2983 01af 00       		.byte	0
 2984 01b0 40       		.byte	64
 2985 01b1 00       		.byte	0
 2986 01b2 00       		.byte	0
 2987 01b3 00       		.byte	0
 2988 01b4 00       		.byte	0
 2989 01b5 00       		.byte	0
 2990 01b6 00       		.byte	0
 2991 01b7 06       		.byte	6
 2992 01b8 00       		.byte	0
 2993 01b9 00       		.byte	0
 2994 01ba B2       		.byte	-78
 2995 01bb 6A       		.byte	106
 2996 01bc 00       		.byte	0
 2997 01bd 02       		.byte	2
 2998 01be 00       		.byte	0
 2999 01bf 00       		.byte	0
 3000 01c0 00       		.byte	0
 3001 01c1 01       		.byte	1
 3002 01c2 FB       		.byte	-5
ARM GAS  /tmp/ccBPBbjw.s 			page 80


 3003 01c3 83       		.byte	-125
 3004 01c4 00       		.byte	0
 3005 01c5 68       		.byte	104
 3006 01c6 00       		.byte	0
 3007 01c7 00       		.byte	0
 3008 01c8 00       		.byte	0
 3009 01c9 D9       		.byte	-39
 3010 01ca FC       		.byte	-4
 3011 01cb 00       		.byte	0
 3012 01cc 7C       		.byte	124
 3013 01cd F1       		.byte	-15
 3014 01ce FF       		.byte	-1
 3015 01cf 83       		.byte	-125
 3016 01d0 00       		.byte	0
 3017 01d1 00       		.byte	0
 3018 01d2 00       		.byte	0
 3019 01d3 00       		.byte	0
 3020 01d4 00       		.byte	0
 3021 01d5 65       		.byte	101
 3022 01d6 00       		.byte	0
 3023 01d7 00       		.byte	0
 3024 01d8 00       		.byte	0
 3025 01d9 64       		.byte	100
 3026 01da 03       		.byte	3
 3027 01db E8       		.byte	-24
 3028 01dc 00       		.byte	0
 3029 01dd 64       		.byte	100
 3030 01de 00       		.byte	0
 3031 01df 28       		.byte	40
 3032 01e0 00       		.byte	0
 3033 01e1 00       		.byte	0
 3034 01e2 00       		.byte	0
 3035 01e3 25       		.byte	37
 3036 01e4 00       		.byte	0
 3037 01e5 00       		.byte	0
 3038 01e6 00       		.byte	0
 3039 01e7 00       		.byte	0
 3040 01e8 16       		.byte	22
 3041 01e9 A0       		.byte	-96
 3042 01ea 00       		.byte	0
 3043 01eb 00       		.byte	0
 3044 01ec 00       		.byte	0
 3045 01ed 00       		.byte	0
 3046 01ee 10       		.byte	16
 3047 01ef 00       		.byte	0
 3048 01f0 00       		.byte	0
 3049 01f1 00       		.byte	0
 3050 01f2 10       		.byte	16
 3051 01f3 00       		.byte	0
 3052 01f4 00       		.byte	0
 3053 01f5 2F       		.byte	47
 3054 01f6 00       		.byte	0
 3055 01f7 00       		.byte	0
 3056 01f8 00       		.byte	0
 3057 01f9 00       		.byte	0
 3058 01fa 01       		.byte	1
 3059 01fb F4       		.byte	-12
ARM GAS  /tmp/ccBPBbjw.s 			page 81


 3060 01fc 00       		.byte	0
 3061 01fd 00       		.byte	0
 3062 01fe 10       		.byte	16
 3063 01ff 00       		.byte	0
 3064 0200 00       		.byte	0
 3065 0201 28       		.byte	40
 3066 0202 00       		.byte	0
 3067 0203 00       		.byte	0
 3068 0204 FF       		.byte	-1
 3069 0205 FF       		.byte	-1
 3070 0206 45       		.byte	69
 3071 0207 81       		.byte	-127
 3072 0208 FF       		.byte	-1
 3073 0209 FF       		.byte	-1
 3074 020a FA       		.byte	-6
 3075 020b 72       		.byte	114
 3076 020c 00       		.byte	0
 3077 020d 00       		.byte	0
 3078 020e 00       		.byte	0
 3079 020f 00       		.byte	0
 3080 0210 00       		.byte	0
 3081 0211 00       		.byte	0
 3082 0212 00       		.byte	0
 3083 0213 00       		.byte	0
 3084 0214 00       		.byte	0
 3085 0215 44       		.byte	68
 3086 0216 00       		.byte	0
 3087 0217 05       		.byte	5
 3088 0218 00       		.byte	0
 3089 0219 05       		.byte	5
 3090 021a BA       		.byte	-70
 3091 021b C6       		.byte	-58
 3092 021c 00       		.byte	0
 3093 021d 47       		.byte	71
 3094 021e 78       		.byte	120
 3095 021f A2       		.byte	-94
 3096 0220 00       		.byte	0
 3097 0221 00       		.byte	0
 3098 0222 00       		.byte	0
 3099 0223 01       		.byte	1
 3100 0224 00       		.byte	0
 3101 0225 00       		.byte	0
 3102 0226 00       		.byte	0
 3103 0227 00       		.byte	0
 3104 0228 00       		.byte	0
 3105 0229 00       		.byte	0
 3106 022a 06       		.byte	6
 3107 022b 00       		.byte	0
 3108 022c 00       		.byte	0
 3109 022d 00       		.byte	0
 3110 022e 00       		.byte	0
 3111 022f 14       		.byte	20
 3112 0230 00       		.byte	0
 3113 0231 00       		.byte	0
 3114 0232 25       		.byte	37
 3115 0233 4D       		.byte	77
 3116 0234 00       		.byte	0
ARM GAS  /tmp/ccBPBbjw.s 			page 82


 3117 0235 2F       		.byte	47
 3118 0236 70       		.byte	112
 3119 0237 6D       		.byte	109
 3120 0238 00       		.byte	0
 3121 0239 00       		.byte	0
 3122 023a 05       		.byte	5
 3123 023b AE       		.byte	-82
 3124 023c 00       		.byte	0
 3125 023d 0C       		.byte	12
 3126 023e 02       		.byte	2
 3127 023f D0       		.byte	-48
 3128 0240 00       		.byte	0
 3129 0241 00       		.byte	0
 3130 0242 00       		.byte	0
 3131 0243 00       		.byte	0
 3132 0244 00       		.byte	0
 3133 0245 00       		.byte	0
 3134 0246 00       		.byte	0
 3135 0247 00       		.byte	0
 3136 0248 00       		.byte	0
 3137 0249 00       		.byte	0
 3138 024a 00       		.byte	0
 3139 024b 00       		.byte	0
 3140 024c 00       		.byte	0
 3141 024d 00       		.byte	0
 3142 024e 00       		.byte	0
 3143 024f 00       		.byte	0
 3144 0250 00       		.byte	0
 3145 0251 1B       		.byte	27
 3146 0252 00       		.byte	0
 3147 0253 00       		.byte	0
 3148 0254 00       		.byte	0
 3149 0255 00       		.byte	0
 3150 0256 00       		.byte	0
 3151 0257 00       		.byte	0
 3152 0258 00       		.byte	0
 3153 0259 00       		.byte	0
 3154 025a 00       		.byte	0
 3155 025b 00       		.byte	0
 3156 025c 00       		.byte	0
 3157 025d 00       		.byte	0
 3158 025e 00       		.byte	0
 3159 025f 00       		.byte	0
 3160 0260 00       		.byte	0
 3161 0261 64       		.byte	100
 3162 0262 00       		.byte	0
 3163 0263 00       		.byte	0
 3164 0264 00       		.byte	0
 3165 0265 08       		.byte	8
 3166 0266 00       		.byte	0
 3167 0267 00       		.byte	0
 3168 0268 00       		.byte	0
 3169 0269 00       		.byte	0
 3170 026a 00       		.byte	0
 3171 026b 00       		.byte	0
 3172 026c 00       		.byte	0
 3173 026d 00       		.byte	0
ARM GAS  /tmp/ccBPBbjw.s 			page 83


 3174 026e 00       		.byte	0
 3175 026f 00       		.byte	0
 3176 0270 00       		.byte	0
 3177 0271 00       		.byte	0
 3178 0272 00       		.byte	0
 3179 0273 00       		.byte	0
 3180 0274 00       		.byte	0
 3181 0275 00       		.byte	0
 3182 0276 00       		.byte	0
 3183 0277 00       		.byte	0
 3184 0278 00       		.byte	0
 3185 0279 00       		.byte	0
 3186 027a 00       		.byte	0
 3187 027b 00       		.byte	0
 3188 027c 00       		.byte	0
 3189 027d 00       		.byte	0
 3190 027e 00       		.byte	0
 3191 027f 00       		.byte	0
 3192 0280 00       		.byte	0
 3193 0281 00       		.byte	0
 3194 0282 00       		.byte	0
 3195 0283 00       		.byte	0
 3196 0284 00       		.byte	0
 3197 0285 00       		.byte	0
 3198 0286 00       		.byte	0
 3199 0287 00       		.byte	0
 3200 0288 00       		.byte	0
 3201 0289 00       		.byte	0
 3202 028a 00       		.byte	0
 3203 028b 00       		.byte	0
 3204 028c 00       		.byte	0
 3205 028d 00       		.byte	0
 3206 028e 00       		.byte	0
 3207 028f 00       		.byte	0
 3208 0290 00       		.byte	0
 3209 0291 00       		.byte	0
 3210 0292 00       		.byte	0
 3211 0293 00       		.byte	0
 3212 0294 00       		.byte	0
 3213 0295 00       		.byte	0
 3214 0296 00       		.byte	0
 3215 0297 00       		.byte	0
 3216 0298 00       		.byte	0
 3217 0299 00       		.byte	0
 3218 029a 00       		.byte	0
 3219 029b 00       		.byte	0
 3220 029c 00       		.byte	0
 3221 029d 00       		.byte	0
 3222 029e 00       		.byte	0
 3223 029f 00       		.byte	0
 3224 02a0 00       		.byte	0
 3225 02a1 00       		.byte	0
 3226 02a2 00       		.byte	0
 3227 02a3 00       		.byte	0
 3228 02a4 00       		.byte	0
 3229 02a5 00       		.byte	0
 3230 02a6 00       		.byte	0
ARM GAS  /tmp/ccBPBbjw.s 			page 84


 3231 02a7 00       		.byte	0
 3232 02a8 00       		.byte	0
 3233 02a9 00       		.byte	0
 3234 02aa 00       		.byte	0
 3235 02ab 00       		.byte	0
 3236 02ac 00       		.byte	0
 3237 02ad 00       		.byte	0
 3238 02ae 00       		.byte	0
 3239 02af 00       		.byte	0
 3240 02b0 00       		.byte	0
 3241 02b1 00       		.byte	0
 3242 02b2 00       		.byte	0
 3243 02b3 00       		.byte	0
 3244 02b4 00       		.byte	0
 3245 02b5 00       		.byte	0
 3246 02b6 00       		.byte	0
 3247 02b7 00       		.byte	0
 3248 02b8 00       		.byte	0
 3249 02b9 00       		.byte	0
 3250 02ba 00       		.byte	0
 3251 02bb 00       		.byte	0
 3252 02bc 00       		.byte	0
 3253 02bd 00       		.byte	0
 3254 02be 00       		.byte	0
 3255 02bf 00       		.byte	0
 3256 02c0 00       		.byte	0
 3257 02c1 1B       		.byte	27
 3258 02c2 00       		.byte	0
 3259 02c3 00       		.byte	0
 3260 02c4 00       		.byte	0
 3261 02c5 00       		.byte	0
 3262 02c6 00       		.byte	0
 3263 02c7 00       		.byte	0
 3264 02c8 00       		.byte	0
 3265 02c9 00       		.byte	0
 3266 02ca 00       		.byte	0
 3267 02cb 00       		.byte	0
 3268 02cc 00       		.byte	0
 3269 02cd 0E       		.byte	14
 3270 02ce 00       		.byte	0
 3271 02cf 0E       		.byte	14
 3272 02d0 00       		.byte	0
 3273 02d1 00       		.byte	0
 3274 02d2 0A       		.byte	10
 3275 02d3 C7       		.byte	-57
 3276 02d4 00       		.byte	0
 3277 02d5 04       		.byte	4
 3278 02d6 00       		.byte	0
 3279 02d7 00       		.byte	0
 3280 02d8 00       		.byte	0
 3281 02d9 00       		.byte	0
 3282 02da 00       		.byte	0
 3283 02db 32       		.byte	50
 3284 02dc FF       		.byte	-1
 3285 02dd FF       		.byte	-1
 3286 02de FF       		.byte	-1
 3287 02df 9C       		.byte	-100
ARM GAS  /tmp/ccBPBbjw.s 			page 85


 3288 02e0 00       		.byte	0
 3289 02e1 00       		.byte	0
 3290 02e2 0B       		.byte	11
 3291 02e3 2B       		.byte	43
 3292 02e4 00       		.byte	0
 3293 02e5 00       		.byte	0
 3294 02e6 00       		.byte	0
 3295 02e7 02       		.byte	2
 3296 02e8 00       		.byte	0
 3297 02e9 00       		.byte	0
 3298 02ea 00       		.byte	0
 3299 02eb 01       		.byte	1
 3300 02ec 00       		.byte	0
 3301 02ed 00       		.byte	0
 3302 02ee 00       		.byte	0
 3303 02ef 64       		.byte	100
 3304 02f0 FF       		.byte	-1
 3305 02f1 E5       		.byte	-27
 3306 02f2 00       		.byte	0
 3307 02f3 00       		.byte	0
 3308 02f4 00       		.byte	0
 3309 02f5 00       		.byte	0
 3310 02f6 00       		.byte	0
 3311 02f7 00       		.byte	0
 3312 02f8 00       		.byte	0
 3313 02f9 00       		.byte	0
 3314 02fa 00       		.byte	0
 3315 02fb 00       		.byte	0
 3316 02fc 00       		.byte	0
 3317 02fd 00       		.byte	0
 3318 02fe 00       		.byte	0
 3319 02ff 00       		.byte	0
 3320 0300 00       		.byte	0
 3321 0301 00       		.byte	0
 3322 0302 00       		.byte	0
 3323 0303 01       		.byte	1
 3324 0304 00       		.byte	0
 3325 0305 00       		.byte	0
 3326 0306 00       		.byte	0
 3327 0307 00       		.byte	0
 3328 0308 00       		.byte	0
 3329 0309 01       		.byte	1
 3330 030a 00       		.byte	0
 3331 030b 00       		.byte	0
 3332 030c 00       		.byte	0
 3333 030d 00       		.byte	0
 3334 030e 00       		.byte	0
