ARM GAS  /tmp/cc18izUm.s 			page 1


   1              		.cpu cortex-m3
   2              		.eabi_attribute 20, 1
   3              		.eabi_attribute 21, 1
   4              		.eabi_attribute 23, 3
   5              		.eabi_attribute 24, 1
   6              		.eabi_attribute 25, 1
   7              		.eabi_attribute 26, 1
   8              		.eabi_attribute 30, 1
   9              		.eabi_attribute 34, 1
  10              		.eabi_attribute 18, 4
  11              		.file	"inv_mpu.c"
  12              		.text
  13              	.Ltext0:
  14              		.cfi_sections	.debug_frame
  15              		.align	1
  16              		.syntax unified
  17              		.thumb
  18              		.thumb_func
  19              		.fpu softvfp
  20              		.type	set_int_enable, %function
  21              	set_int_enable:
  22              	.LFB64:
  23              		.file 1 "drivers/inv_mpu.c"
   1:drivers/inv_mpu.c **** 
   2:drivers/inv_mpu.c **** /**
   3:drivers/inv_mpu.c ****  *  @addtogroup  DRIVERS Sensor Driver Layer
   4:drivers/inv_mpu.c ****  *  @brief       Hardware drivers to communicate with sensors via I2C.
   5:drivers/inv_mpu.c ****  *
   6:drivers/inv_mpu.c ****  *  @{
   7:drivers/inv_mpu.c ****  *      @file       inv_mpu.c
   8:drivers/inv_mpu.c ****  *      @brief      An I2C-based driver for Invensense gyroscopes.
   9:drivers/inv_mpu.c ****  *      @details    This driver currently works for the following devices:
  10:drivers/inv_mpu.c ****  *                  MPU6050
  11:drivers/inv_mpu.c ****  *                  MPU6500
  12:drivers/inv_mpu.c ****  *                  MPU9150 (or MPU6050 w/ AK8975 on the auxiliary bus)
  13:drivers/inv_mpu.c ****  *                  MPU9250 (or MPU6500 w/ AK8963 on the auxiliary bus)
  14:drivers/inv_mpu.c ****  */
  15:drivers/inv_mpu.c **** #include "conf.h"
  16:drivers/inv_mpu.c **** #include "tools.h"
  17:drivers/inv_mpu.c **** 
  18:drivers/inv_mpu.c **** /* The following functions must be defined for this platform:
  19:drivers/inv_mpu.c ****  * I2C_Write(unsigned char slave_addr, unsigned char reg_addr,
  20:drivers/inv_mpu.c ****  *      unsigned char length, unsigned char const *data)
  21:drivers/inv_mpu.c ****  * I2C_Read(unsigned char slave_addr, unsigned char reg_addr,
  22:drivers/inv_mpu.c ****  *      unsigned char length, unsigned char *data)
  23:drivers/inv_mpu.c ****  * DelayMs(unsigned long num_ms)
  24:drivers/inv_mpu.c ****  * get_ms(unsigned long *count)
  25:drivers/inv_mpu.c ****  * reg_int_cb(void (*cb)(void), unsigned char port, unsigned char pin)
  26:drivers/inv_mpu.c ****  * labs(long x)
  27:drivers/inv_mpu.c ****  * fabsf(float x)
  28:drivers/inv_mpu.c ****  * min(int a, int b)
  29:drivers/inv_mpu.c ****  */
  30:drivers/inv_mpu.c **** #define MPU6050
  31:drivers/inv_mpu.c **** #define MOTION_DRIVER_TARGET_MSP430
  32:drivers/inv_mpu.c **** 
  33:drivers/inv_mpu.c **** #if defined MOTION_DRIVER_TARGET_MSP430
  34:drivers/inv_mpu.c **** /*#include "msp430.h"
ARM GAS  /tmp/cc18izUm.s 			page 2


  35:drivers/inv_mpu.c **** #include "msp430_i2c.h"
  36:drivers/inv_mpu.c **** #include "msp430_clock.h"
  37:drivers/inv_mpu.c **** #include "msp430_interrupt.h" */
  38:drivers/inv_mpu.c **** 
  39:drivers/inv_mpu.c **** #define get_ms      myget_ms
  40:drivers/inv_mpu.c **** 
  41:drivers/inv_mpu.c **** //static int reg_int_cb(struct int_param_s *int_param)
  42:drivers/inv_mpu.c **** //{
  43:drivers/inv_mpu.c **** //    /*return msp430_reg_int_cb(int_param->cb, int_param->pin, int_param->lp_exit,
  44:drivers/inv_mpu.c **** //        int_param->active_low);*/
  45:drivers/inv_mpu.c **** //		return 0;
  46:drivers/inv_mpu.c **** //}	  
  47:drivers/inv_mpu.c **** //#define log_i(...)     do {} while (0)
  48:drivers/inv_mpu.c **** //#define log_e(...)     do {} while (0)
  49:drivers/inv_mpu.c **** #define log_e    printf
  50:drivers/inv_mpu.c **** #define log_i    printf
  51:drivers/inv_mpu.c **** /* labs is already defined by TI's toolchain. */
  52:drivers/inv_mpu.c **** /* fabs is for doubles. fabsf is for floats. */
  53:drivers/inv_mpu.c **** #define fabs        fabsf
  54:drivers/inv_mpu.c **** #define min(a,b) ((a<b)?a:b)
  55:drivers/inv_mpu.c **** 
  56:drivers/inv_mpu.c **** #elif defined EMPL_TARGET_MSP430
  57:drivers/inv_mpu.c **** #include "msp430.h"
  58:drivers/inv_mpu.c **** #include "msp430_i2c.h"
  59:drivers/inv_mpu.c **** #include "msp430_clock.h"
  60:drivers/inv_mpu.c **** #include "msp430_interrupt.h"
  61:drivers/inv_mpu.c **** #include "log.h"
  62:drivers/inv_mpu.c **** 
  63:drivers/inv_mpu.c **** static inline int reg_int_cb(struct int_param_s *int_param)
  64:drivers/inv_mpu.c **** {
  65:drivers/inv_mpu.c ****     return msp430_reg_int_cb(int_param->cb, int_param->pin, int_param->lp_exit,
  66:drivers/inv_mpu.c ****         int_param->active_low);
  67:drivers/inv_mpu.c **** }
  68:drivers/inv_mpu.c **** #define log_i       MPL_LOGI
  69:drivers/inv_mpu.c **** #define log_e       MPL_LOGE
  70:drivers/inv_mpu.c **** /* labs is already defined by TI's toolchain. */
  71:drivers/inv_mpu.c **** /* fabs is for doubles. fabsf is for floats. */
  72:drivers/inv_mpu.c **** #define fabs        fabsf
  73:drivers/inv_mpu.c **** #define min(a,b) ((a<b)?a:b)
  74:drivers/inv_mpu.c **** #elif defined EMPL_TARGET_UC3L0
  75:drivers/inv_mpu.c **** /* Instead of using the standard TWI driver from the ASF library, we're using
  76:drivers/inv_mpu.c ****  * a TWI driver that follows the slave address + register address convention.
  77:drivers/inv_mpu.c ****  */
  78:drivers/inv_mpu.c **** #include "twi.h"
  79:drivers/inv_mpu.c **** #include "delay.h"
  80:drivers/inv_mpu.c **** #include "sysclk.h"
  81:drivers/inv_mpu.c **** #include "log.h"
  82:drivers/inv_mpu.c **** #include "sensors_xplained.h"
  83:drivers/inv_mpu.c **** #include "uc3l0_clock.h"
  84:drivers/inv_mpu.c **** #define I2C_Write(a, b, c, d)   twi_write(a, b, d, c)
  85:drivers/inv_mpu.c **** #define I2C_Read(a, b, c, d)    twi_read(a, b, d, c)
  86:drivers/inv_mpu.c **** /* DelayMs is a function already defined in ASF. */
  87:drivers/inv_mpu.c **** #define get_ms  uc3l0_get_clock_ms
  88:drivers/inv_mpu.c **** static inline int reg_int_cb(struct int_param_s *int_param)
  89:drivers/inv_mpu.c **** {
  90:drivers/inv_mpu.c ****     sensor_board_irq_connect(int_param->pin, int_param->cb, int_param->arg);
  91:drivers/inv_mpu.c ****     return 0;
ARM GAS  /tmp/cc18izUm.s 			page 3


  92:drivers/inv_mpu.c **** }
  93:drivers/inv_mpu.c **** #define log_i       MPL_LOGI
  94:drivers/inv_mpu.c **** #define log_e       MPL_LOGE
  95:drivers/inv_mpu.c **** /* UC3 is a 32-bit processor, so abs and labs are equivalent. */
  96:drivers/inv_mpu.c **** #define labs        abs
  97:drivers/inv_mpu.c **** #define fabs(x)     (((x)>0)?(x):-(x))
  98:drivers/inv_mpu.c **** #else
  99:drivers/inv_mpu.c **** //#error  Gyro driver is missing the system layer implementations.
 100:drivers/inv_mpu.c **** #endif
 101:drivers/inv_mpu.c **** 
 102:drivers/inv_mpu.c **** #if !defined MPU6050 && !defined MPU9150 && !defined MPU6500 && !defined MPU9250
 103:drivers/inv_mpu.c **** //#error  Which gyro are you using? Define MPUxxxx in your compiler options.
 104:drivers/inv_mpu.c **** #endif
 105:drivers/inv_mpu.c **** 
 106:drivers/inv_mpu.c **** /* Time for some messy macro work. =]
 107:drivers/inv_mpu.c ****  * #define MPU9150
 108:drivers/inv_mpu.c ****  * is equivalent to..
 109:drivers/inv_mpu.c ****  * #define MPU6050
 110:drivers/inv_mpu.c ****  * #define AK8975_SECONDARY
 111:drivers/inv_mpu.c ****  *
 112:drivers/inv_mpu.c ****  * #define MPU9250
 113:drivers/inv_mpu.c ****  * is equivalent to..
 114:drivers/inv_mpu.c ****  * #define MPU6500
 115:drivers/inv_mpu.c ****  * #define AK8963_SECONDARY
 116:drivers/inv_mpu.c ****  */
 117:drivers/inv_mpu.c **** #if defined MPU9150
 118:drivers/inv_mpu.c **** #ifndef MPU6050
 119:drivers/inv_mpu.c **** #define MPU6050
 120:drivers/inv_mpu.c **** #endif                          /* #ifndef MPU6050 */
 121:drivers/inv_mpu.c **** #if defined AK8963_SECONDARY
 122:drivers/inv_mpu.c **** #error "MPU9150 and AK8963_SECONDARY cannot both be defined."
 123:drivers/inv_mpu.c **** #elif !defined AK8975_SECONDARY /* #if defined AK8963_SECONDARY */
 124:drivers/inv_mpu.c **** #define AK8975_SECONDARY
 125:drivers/inv_mpu.c **** #endif                          /* #if defined AK8963_SECONDARY */
 126:drivers/inv_mpu.c **** #elif defined MPU9250           /* #if defined MPU9150 */
 127:drivers/inv_mpu.c **** #ifndef MPU6500
 128:drivers/inv_mpu.c **** #define MPU6500
 129:drivers/inv_mpu.c **** #endif                          /* #ifndef MPU6500 */
 130:drivers/inv_mpu.c **** #if defined AK8975_SECONDARY
 131:drivers/inv_mpu.c **** #error "MPU9250 and AK8975_SECONDARY cannot both be defined."
 132:drivers/inv_mpu.c **** #elif !defined AK8963_SECONDARY /* #if defined AK8975_SECONDARY */
 133:drivers/inv_mpu.c **** #define AK8963_SECONDARY
 134:drivers/inv_mpu.c **** #endif                          /* #if defined AK8975_SECONDARY */
 135:drivers/inv_mpu.c **** #endif                          /* #if defined MPU9150 */
 136:drivers/inv_mpu.c **** 
 137:drivers/inv_mpu.c **** #if defined AK8975_SECONDARY || defined AK8963_SECONDARY
 138:drivers/inv_mpu.c **** #define AK89xx_SECONDARY
 139:drivers/inv_mpu.c **** #else
 140:drivers/inv_mpu.c **** /* #warning "No compass = less profit for Invensense. Lame." */
 141:drivers/inv_mpu.c **** #endif
 142:drivers/inv_mpu.c **** 
 143:drivers/inv_mpu.c **** static int set_int_enable(unsigned char enable);
 144:drivers/inv_mpu.c **** 
 145:drivers/inv_mpu.c **** /* Hardware registers needed by driver. */
 146:drivers/inv_mpu.c **** struct gyro_reg_s {
 147:drivers/inv_mpu.c ****     unsigned char who_am_i;
 148:drivers/inv_mpu.c ****     unsigned char rate_div;
ARM GAS  /tmp/cc18izUm.s 			page 4


 149:drivers/inv_mpu.c ****     unsigned char lpf;
 150:drivers/inv_mpu.c ****     unsigned char prod_id;
 151:drivers/inv_mpu.c ****     unsigned char user_ctrl;
 152:drivers/inv_mpu.c ****     unsigned char fifo_en;
 153:drivers/inv_mpu.c ****     unsigned char gyro_cfg;
 154:drivers/inv_mpu.c ****     unsigned char accel_cfg;
 155:drivers/inv_mpu.c **** 
 156:drivers/inv_mpu.c ****     //unsigned char accel_cfg2;
 157:drivers/inv_mpu.c **** 
 158:drivers/inv_mpu.c ****     //unsigned char lp_accel_odr;
 159:drivers/inv_mpu.c **** 
 160:drivers/inv_mpu.c ****     unsigned char motion_thr;
 161:drivers/inv_mpu.c ****     unsigned char motion_dur;
 162:drivers/inv_mpu.c ****     unsigned char fifo_count_h;
 163:drivers/inv_mpu.c ****     unsigned char fifo_r_w;
 164:drivers/inv_mpu.c ****     unsigned char raw_gyro;
 165:drivers/inv_mpu.c ****     unsigned char raw_accel;
 166:drivers/inv_mpu.c ****     unsigned char temp;
 167:drivers/inv_mpu.c ****     unsigned char int_enable;
 168:drivers/inv_mpu.c ****     unsigned char dmp_int_status;
 169:drivers/inv_mpu.c ****     unsigned char int_status;
 170:drivers/inv_mpu.c **** 
 171:drivers/inv_mpu.c ****     //unsigned char accel_intel;
 172:drivers/inv_mpu.c **** 
 173:drivers/inv_mpu.c ****     unsigned char pwr_mgmt_1;
 174:drivers/inv_mpu.c ****     unsigned char pwr_mgmt_2;
 175:drivers/inv_mpu.c ****     unsigned char int_pin_cfg;
 176:drivers/inv_mpu.c ****     unsigned char mem_r_w;
 177:drivers/inv_mpu.c ****     unsigned char accel_offs;
 178:drivers/inv_mpu.c ****     unsigned char i2c_mst;
 179:drivers/inv_mpu.c ****     unsigned char bank_sel;
 180:drivers/inv_mpu.c ****     unsigned char mem_start_addr;
 181:drivers/inv_mpu.c ****     unsigned char prgm_start_h;
 182:drivers/inv_mpu.c **** #if defined AK89xx_SECONDARY
 183:drivers/inv_mpu.c ****     unsigned char s0_addr;
 184:drivers/inv_mpu.c ****     unsigned char s0_reg;
 185:drivers/inv_mpu.c ****     unsigned char s0_ctrl;
 186:drivers/inv_mpu.c ****     unsigned char s1_addr;
 187:drivers/inv_mpu.c ****     unsigned char s1_reg;
 188:drivers/inv_mpu.c ****     unsigned char s1_ctrl;
 189:drivers/inv_mpu.c ****     unsigned char s4_ctrl;
 190:drivers/inv_mpu.c ****     unsigned char s0_do;
 191:drivers/inv_mpu.c ****     unsigned char s1_do;
 192:drivers/inv_mpu.c ****     unsigned char i2c_delay_ctrl;
 193:drivers/inv_mpu.c ****     unsigned char raw_compass;
 194:drivers/inv_mpu.c ****     /* The I2C_MST_VDDIO bit is in this register. */
 195:drivers/inv_mpu.c ****     unsigned char yg_offs_tc;
 196:drivers/inv_mpu.c **** #endif
 197:drivers/inv_mpu.c **** };
 198:drivers/inv_mpu.c **** 
 199:drivers/inv_mpu.c **** /* Information specific to a particular device. */
 200:drivers/inv_mpu.c **** struct hw_s {
 201:drivers/inv_mpu.c ****     unsigned char addr;
 202:drivers/inv_mpu.c ****     unsigned short max_fifo;
 203:drivers/inv_mpu.c ****     unsigned char num_reg;
 204:drivers/inv_mpu.c ****     unsigned short temp_sens;
 205:drivers/inv_mpu.c ****     short temp_offset;
ARM GAS  /tmp/cc18izUm.s 			page 5


 206:drivers/inv_mpu.c ****     unsigned short bank_size;
 207:drivers/inv_mpu.c **** #if defined AK89xx_SECONDARY
 208:drivers/inv_mpu.c ****     unsigned short compass_fsr;
 209:drivers/inv_mpu.c **** #endif
 210:drivers/inv_mpu.c **** };
 211:drivers/inv_mpu.c **** 
 212:drivers/inv_mpu.c **** /* When entering motion interrupt mode, the driver keeps track of the
 213:drivers/inv_mpu.c ****  * previous state so that it can be restored at a later time.
 214:drivers/inv_mpu.c ****  * TODO: This is tacky. Fix it.
 215:drivers/inv_mpu.c ****  */
 216:drivers/inv_mpu.c **** struct motion_int_cache_s {
 217:drivers/inv_mpu.c ****     unsigned short gyro_fsr;
 218:drivers/inv_mpu.c ****     unsigned char accel_fsr;
 219:drivers/inv_mpu.c ****     unsigned short lpf;
 220:drivers/inv_mpu.c ****     unsigned short sample_rate;
 221:drivers/inv_mpu.c ****     unsigned char sensors_on;
 222:drivers/inv_mpu.c ****     unsigned char fifo_sensors;
 223:drivers/inv_mpu.c ****     unsigned char dmp_on;
 224:drivers/inv_mpu.c **** };
 225:drivers/inv_mpu.c **** 
 226:drivers/inv_mpu.c **** /* Cached chip configuration data.
 227:drivers/inv_mpu.c ****  * TODO: A lot of these can be handled with a bitmask.
 228:drivers/inv_mpu.c ****  */
 229:drivers/inv_mpu.c **** struct chip_cfg_s {
 230:drivers/inv_mpu.c ****     /* Matches gyro_cfg >> 3 & 0x03 */
 231:drivers/inv_mpu.c ****     unsigned char gyro_fsr;
 232:drivers/inv_mpu.c ****     /* Matches accel_cfg >> 3 & 0x03 */
 233:drivers/inv_mpu.c ****     unsigned char accel_fsr;
 234:drivers/inv_mpu.c ****     /* Enabled sensors. Uses same masks as fifo_en, NOT pwr_mgmt_2. */
 235:drivers/inv_mpu.c ****     unsigned char sensors;
 236:drivers/inv_mpu.c ****     /* Matches config register. */
 237:drivers/inv_mpu.c ****     unsigned char lpf;
 238:drivers/inv_mpu.c ****     unsigned char clk_src;
 239:drivers/inv_mpu.c ****     /* Sample rate, NOT rate divider. */
 240:drivers/inv_mpu.c ****     unsigned short sample_rate;
 241:drivers/inv_mpu.c ****     /* Matches fifo_en register. */
 242:drivers/inv_mpu.c ****     unsigned char fifo_enable;
 243:drivers/inv_mpu.c ****     /* Matches int enable register. */
 244:drivers/inv_mpu.c ****     unsigned char int_enable;
 245:drivers/inv_mpu.c ****     /* 1 if devices on auxiliary I2C bus appear on the primary. */
 246:drivers/inv_mpu.c ****     unsigned char bypass_mode;
 247:drivers/inv_mpu.c ****     /* 1 if half-sensitivity.
 248:drivers/inv_mpu.c ****      * NOTE: This doesn't belong here, but everything else in hw_s is const,
 249:drivers/inv_mpu.c ****      * and this allows us to save some precious RAM.
 250:drivers/inv_mpu.c ****      */
 251:drivers/inv_mpu.c ****     unsigned char accel_half;
 252:drivers/inv_mpu.c ****     /* 1 if device in low-power accel-only mode. */
 253:drivers/inv_mpu.c ****     unsigned char lp_accel_mode;
 254:drivers/inv_mpu.c ****     /* 1 if interrupts are only triggered on motion events. */
 255:drivers/inv_mpu.c ****     unsigned char int_motion_only;
 256:drivers/inv_mpu.c ****     struct motion_int_cache_s cache;
 257:drivers/inv_mpu.c ****     /* 1 for active low interrupts. */
 258:drivers/inv_mpu.c ****     unsigned char active_low_int;
 259:drivers/inv_mpu.c ****     /* 1 for latched interrupts. */
 260:drivers/inv_mpu.c ****     unsigned char latched_int;
 261:drivers/inv_mpu.c ****     /* 1 if DMP is enabled. */
 262:drivers/inv_mpu.c ****     unsigned char dmp_on;
ARM GAS  /tmp/cc18izUm.s 			page 6


 263:drivers/inv_mpu.c ****     /* Ensures that DMP will only be loaded once. */
 264:drivers/inv_mpu.c ****     unsigned char dmp_loaded;
 265:drivers/inv_mpu.c ****     /* Sampling rate used when DMP is enabled. */
 266:drivers/inv_mpu.c ****     unsigned short dmp_sample_rate;
 267:drivers/inv_mpu.c **** #ifdef AK89xx_SECONDARY
 268:drivers/inv_mpu.c ****     /* Compass sample rate. */
 269:drivers/inv_mpu.c ****     unsigned short compass_sample_rate;
 270:drivers/inv_mpu.c ****     unsigned char compass_addr;
 271:drivers/inv_mpu.c ****     short mag_sens_adj[3];
 272:drivers/inv_mpu.c **** #endif
 273:drivers/inv_mpu.c **** };
 274:drivers/inv_mpu.c **** 
 275:drivers/inv_mpu.c **** /* Information for self-test. */
 276:drivers/inv_mpu.c **** struct test_s {
 277:drivers/inv_mpu.c ****     unsigned long gyro_sens;
 278:drivers/inv_mpu.c ****     unsigned long accel_sens;
 279:drivers/inv_mpu.c ****     unsigned char reg_rate_div;
 280:drivers/inv_mpu.c ****     unsigned char reg_lpf;
 281:drivers/inv_mpu.c ****     unsigned char reg_gyro_fsr;
 282:drivers/inv_mpu.c ****     unsigned char reg_accel_fsr;
 283:drivers/inv_mpu.c ****     unsigned short wait_ms;
 284:drivers/inv_mpu.c ****     unsigned char packet_thresh;
 285:drivers/inv_mpu.c ****     float min_dps;
 286:drivers/inv_mpu.c ****     float max_dps;
 287:drivers/inv_mpu.c ****     float max_gyro_var;
 288:drivers/inv_mpu.c ****     float min_g;
 289:drivers/inv_mpu.c ****     float max_g;
 290:drivers/inv_mpu.c ****     float max_accel_var;
 291:drivers/inv_mpu.c **** };
 292:drivers/inv_mpu.c **** 
 293:drivers/inv_mpu.c **** /* Gyro driver state variables. */
 294:drivers/inv_mpu.c **** struct gyro_state_s {
 295:drivers/inv_mpu.c ****     const struct gyro_reg_s *reg;
 296:drivers/inv_mpu.c ****     const struct hw_s *hw;
 297:drivers/inv_mpu.c ****     struct chip_cfg_s chip_cfg;
 298:drivers/inv_mpu.c ****     const struct test_s *test;
 299:drivers/inv_mpu.c **** };
 300:drivers/inv_mpu.c **** 
 301:drivers/inv_mpu.c **** /* Filter configurations. */
 302:drivers/inv_mpu.c **** enum lpf_e {
 303:drivers/inv_mpu.c ****     INV_FILTER_256HZ_NOLPF2 = 0,
 304:drivers/inv_mpu.c ****     INV_FILTER_188HZ,
 305:drivers/inv_mpu.c ****     INV_FILTER_98HZ,
 306:drivers/inv_mpu.c ****     INV_FILTER_42HZ,
 307:drivers/inv_mpu.c ****     INV_FILTER_20HZ,
 308:drivers/inv_mpu.c ****     INV_FILTER_10HZ,
 309:drivers/inv_mpu.c ****     INV_FILTER_5HZ,
 310:drivers/inv_mpu.c ****     INV_FILTER_2100HZ_NOLPF,
 311:drivers/inv_mpu.c ****     NUM_FILTER
 312:drivers/inv_mpu.c **** };
 313:drivers/inv_mpu.c **** 
 314:drivers/inv_mpu.c **** /* Full scale ranges. */
 315:drivers/inv_mpu.c **** enum gyro_fsr_e {
 316:drivers/inv_mpu.c ****     INV_FSR_250DPS = 0,
 317:drivers/inv_mpu.c ****     INV_FSR_500DPS,
 318:drivers/inv_mpu.c ****     INV_FSR_1000DPS,
 319:drivers/inv_mpu.c ****     INV_FSR_2000DPS,
ARM GAS  /tmp/cc18izUm.s 			page 7


 320:drivers/inv_mpu.c ****     NUM_GYRO_FSR
 321:drivers/inv_mpu.c **** };
 322:drivers/inv_mpu.c **** 
 323:drivers/inv_mpu.c **** /* Full scale ranges. */
 324:drivers/inv_mpu.c **** enum accel_fsr_e {
 325:drivers/inv_mpu.c ****     INV_FSR_2G = 0,
 326:drivers/inv_mpu.c ****     INV_FSR_4G,
 327:drivers/inv_mpu.c ****     INV_FSR_8G,
 328:drivers/inv_mpu.c ****     INV_FSR_16G,
 329:drivers/inv_mpu.c ****     NUM_ACCEL_FSR
 330:drivers/inv_mpu.c **** };
 331:drivers/inv_mpu.c **** 
 332:drivers/inv_mpu.c **** /* Clock sources. */
 333:drivers/inv_mpu.c **** enum clock_sel_e {
 334:drivers/inv_mpu.c ****     INV_CLK_INTERNAL = 0,
 335:drivers/inv_mpu.c ****     INV_CLK_PLL,
 336:drivers/inv_mpu.c ****     NUM_CLK
 337:drivers/inv_mpu.c **** };
 338:drivers/inv_mpu.c **** 
 339:drivers/inv_mpu.c **** /* Low-power accel wakeup rates. */
 340:drivers/inv_mpu.c **** enum lp_accel_rate_e {
 341:drivers/inv_mpu.c **** #if defined MPU6050
 342:drivers/inv_mpu.c ****     INV_LPA_1_25HZ,
 343:drivers/inv_mpu.c ****     INV_LPA_5HZ,
 344:drivers/inv_mpu.c ****     INV_LPA_20HZ,
 345:drivers/inv_mpu.c ****     INV_LPA_40HZ
 346:drivers/inv_mpu.c **** #elif defined MPU6500
 347:drivers/inv_mpu.c ****     INV_LPA_0_3125HZ,
 348:drivers/inv_mpu.c ****     INV_LPA_0_625HZ,
 349:drivers/inv_mpu.c ****     INV_LPA_1_25HZ,
 350:drivers/inv_mpu.c ****     INV_LPA_2_5HZ,
 351:drivers/inv_mpu.c ****     INV_LPA_5HZ,
 352:drivers/inv_mpu.c ****     INV_LPA_10HZ,
 353:drivers/inv_mpu.c ****     INV_LPA_20HZ,
 354:drivers/inv_mpu.c ****     INV_LPA_40HZ,
 355:drivers/inv_mpu.c ****     INV_LPA_80HZ,
 356:drivers/inv_mpu.c ****     INV_LPA_160HZ,
 357:drivers/inv_mpu.c ****     INV_LPA_320HZ,
 358:drivers/inv_mpu.c ****     INV_LPA_640HZ
 359:drivers/inv_mpu.c **** #endif
 360:drivers/inv_mpu.c **** };
 361:drivers/inv_mpu.c **** 
 362:drivers/inv_mpu.c **** #define BIT_I2C_MST_VDDIO   (0x80)
 363:drivers/inv_mpu.c **** #define BIT_FIFO_EN         (0x40)
 364:drivers/inv_mpu.c **** #define BIT_DMP_EN          (0x80)
 365:drivers/inv_mpu.c **** #define BIT_FIFO_RST        (0x04)
 366:drivers/inv_mpu.c **** #define BIT_DMP_RST         (0x08)
 367:drivers/inv_mpu.c **** #define BIT_FIFO_OVERFLOW   (0x10)
 368:drivers/inv_mpu.c **** #define BIT_DATA_RDY_EN     (0x01)
 369:drivers/inv_mpu.c **** #define BIT_DMP_INT_EN      (0x02)
 370:drivers/inv_mpu.c **** #define BIT_MOT_INT_EN      (0x40)
 371:drivers/inv_mpu.c **** #define BITS_FSR            (0x18)
 372:drivers/inv_mpu.c **** #define BITS_LPF            (0x07)
 373:drivers/inv_mpu.c **** #define BITS_HPF            (0x07)
 374:drivers/inv_mpu.c **** #define BITS_CLK            (0x07)
 375:drivers/inv_mpu.c **** #define BIT_FIFO_SIZE_1024  (0x40)
 376:drivers/inv_mpu.c **** #define BIT_FIFO_SIZE_2048  (0x80)
ARM GAS  /tmp/cc18izUm.s 			page 8


 377:drivers/inv_mpu.c **** #define BIT_FIFO_SIZE_4096  (0xC0)
 378:drivers/inv_mpu.c **** #define BIT_RESET           (0x80)
 379:drivers/inv_mpu.c **** #define BIT_SLEEP           (0x40)
 380:drivers/inv_mpu.c **** #define BIT_S0_DELAY_EN     (0x01)
 381:drivers/inv_mpu.c **** #define BIT_S2_DELAY_EN     (0x04)
 382:drivers/inv_mpu.c **** #define BITS_SLAVE_LENGTH   (0x0F)
 383:drivers/inv_mpu.c **** #define BIT_SLAVE_BYTE_SW   (0x40)
 384:drivers/inv_mpu.c **** #define BIT_SLAVE_GROUP     (0x10)
 385:drivers/inv_mpu.c **** #define BIT_SLAVE_EN        (0x80)
 386:drivers/inv_mpu.c **** #define BIT_I2C_READ        (0x80)
 387:drivers/inv_mpu.c **** #define BITS_I2C_MASTER_DLY (0x1F)
 388:drivers/inv_mpu.c **** #define BIT_AUX_IF_EN       (0x20)
 389:drivers/inv_mpu.c **** #define BIT_ACTL            (0x80)
 390:drivers/inv_mpu.c **** #define BIT_LATCH_EN        (0x20)
 391:drivers/inv_mpu.c **** #define BIT_ANY_RD_CLR      (0x10)
 392:drivers/inv_mpu.c **** #define BIT_BYPASS_EN       (0x02)
 393:drivers/inv_mpu.c **** #define BITS_WOM_EN         (0xC0)
 394:drivers/inv_mpu.c **** #define BIT_LPA_CYCLE       (0x20)
 395:drivers/inv_mpu.c **** #define BIT_STBY_XA         (0x20)
 396:drivers/inv_mpu.c **** #define BIT_STBY_YA         (0x10)
 397:drivers/inv_mpu.c **** #define BIT_STBY_ZA         (0x08)
 398:drivers/inv_mpu.c **** #define BIT_STBY_XG         (0x04)
 399:drivers/inv_mpu.c **** #define BIT_STBY_YG         (0x02)
 400:drivers/inv_mpu.c **** #define BIT_STBY_ZG         (0x01)
 401:drivers/inv_mpu.c **** #define BIT_STBY_XYZA       (BIT_STBY_XA | BIT_STBY_YA | BIT_STBY_ZA)
 402:drivers/inv_mpu.c **** #define BIT_STBY_XYZG       (BIT_STBY_XG | BIT_STBY_YG | BIT_STBY_ZG)
 403:drivers/inv_mpu.c **** 
 404:drivers/inv_mpu.c **** #if defined AK8975_SECONDARY
 405:drivers/inv_mpu.c **** #define SUPPORTS_AK89xx_HIGH_SENS   (0x00)
 406:drivers/inv_mpu.c **** #define AK89xx_FSR                  (9830)
 407:drivers/inv_mpu.c **** #elif defined AK8963_SECONDARY
 408:drivers/inv_mpu.c **** #define SUPPORTS_AK89xx_HIGH_SENS   (0x10)
 409:drivers/inv_mpu.c **** #define AK89xx_FSR                  (4915)
 410:drivers/inv_mpu.c **** #endif
 411:drivers/inv_mpu.c **** 
 412:drivers/inv_mpu.c **** #ifdef AK89xx_SECONDARY
 413:drivers/inv_mpu.c **** #define AKM_REG_WHOAMI      (0x00)
 414:drivers/inv_mpu.c **** 
 415:drivers/inv_mpu.c **** #define AKM_REG_ST1         (0x02)
 416:drivers/inv_mpu.c **** #define AKM_REG_HXL         (0x03)
 417:drivers/inv_mpu.c **** #define AKM_REG_ST2         (0x09)
 418:drivers/inv_mpu.c **** 
 419:drivers/inv_mpu.c **** #define AKM_REG_CNTL        (0x0A)
 420:drivers/inv_mpu.c **** #define AKM_REG_ASTC        (0x0C)
 421:drivers/inv_mpu.c **** #define AKM_REG_ASAX        (0x10)
 422:drivers/inv_mpu.c **** #define AKM_REG_ASAY        (0x11)
 423:drivers/inv_mpu.c **** #define AKM_REG_ASAZ        (0x12)
 424:drivers/inv_mpu.c **** 
 425:drivers/inv_mpu.c **** #define AKM_DATA_READY      (0x01)
 426:drivers/inv_mpu.c **** #define AKM_DATA_OVERRUN    (0x02)
 427:drivers/inv_mpu.c **** #define AKM_OVERFLOW        (0x80)
 428:drivers/inv_mpu.c **** #define AKM_DATA_ERROR      (0x40)
 429:drivers/inv_mpu.c **** 
 430:drivers/inv_mpu.c **** #define AKM_BIT_SELF_TEST   (0x40)
 431:drivers/inv_mpu.c **** 
 432:drivers/inv_mpu.c **** #define AKM_POWER_DOWN          (0x00 | SUPPORTS_AK89xx_HIGH_SENS)
 433:drivers/inv_mpu.c **** #define AKM_SINGLE_MEASUREMENT  (0x01 | SUPPORTS_AK89xx_HIGH_SENS)
ARM GAS  /tmp/cc18izUm.s 			page 9


 434:drivers/inv_mpu.c **** #define AKM_FUSE_ROM_ACCESS     (0x0F | SUPPORTS_AK89xx_HIGH_SENS)
 435:drivers/inv_mpu.c **** #define AKM_MODE_SELF_TEST      (0x08 | SUPPORTS_AK89xx_HIGH_SENS)
 436:drivers/inv_mpu.c **** 
 437:drivers/inv_mpu.c **** #define AKM_WHOAMI      (0x48)
 438:drivers/inv_mpu.c **** #endif
 439:drivers/inv_mpu.c **** 
 440:drivers/inv_mpu.c **** #if defined MPU6050
 441:drivers/inv_mpu.c **** /*
 442:drivers/inv_mpu.c **** const struct gyro_reg_s reg = {
 443:drivers/inv_mpu.c ****    .who_am_i       = 0x75,
 444:drivers/inv_mpu.c ****     .rate_div       = 0x19,
 445:drivers/inv_mpu.c ****     .lpf            = 0x1A,
 446:drivers/inv_mpu.c ****     .prod_id        = 0x0C,
 447:drivers/inv_mpu.c ****     .user_ctrl      = 0x6A,
 448:drivers/inv_mpu.c ****     .fifo_en        = 0x23,
 449:drivers/inv_mpu.c ****     .gyro_cfg       = 0x1B,
 450:drivers/inv_mpu.c ****     .accel_cfg      = 0x1C,
 451:drivers/inv_mpu.c ****     .motion_thr     = 0x1F,
 452:drivers/inv_mpu.c ****     .motion_dur     = 0x20,
 453:drivers/inv_mpu.c ****     .fifo_count_h   = 0x72,
 454:drivers/inv_mpu.c ****     .fifo_r_w       = 0x74,
 455:drivers/inv_mpu.c ****     .raw_gyro       = 0x43,
 456:drivers/inv_mpu.c ****     .raw_accel      = 0x3B,
 457:drivers/inv_mpu.c ****     .temp           = 0x41,
 458:drivers/inv_mpu.c ****     .int_enable     = 0x38,
 459:drivers/inv_mpu.c ****     .dmp_int_status = 0x39,
 460:drivers/inv_mpu.c ****     .int_status     = 0x3A,
 461:drivers/inv_mpu.c ****     .pwr_mgmt_1     = 0x6B,
 462:drivers/inv_mpu.c ****     .pwr_mgmt_2     = 0x6C,
 463:drivers/inv_mpu.c ****     .int_pin_cfg    = 0x37,
 464:drivers/inv_mpu.c ****     .mem_r_w        = 0x6F,
 465:drivers/inv_mpu.c ****     .accel_offs     = 0x06,
 466:drivers/inv_mpu.c ****     .i2c_mst        = 0x24,
 467:drivers/inv_mpu.c ****     .bank_sel       = 0x6D,
 468:drivers/inv_mpu.c ****     .mem_start_addr = 0x6E,
 469:drivers/inv_mpu.c ****     .prgm_start_h   = 0x70
 470:drivers/inv_mpu.c **** #ifdef AK89xx_SECONDARY
 471:drivers/inv_mpu.c ****     ,.raw_compass   = 0x49,
 472:drivers/inv_mpu.c ****     .yg_offs_tc     = 0x01,
 473:drivers/inv_mpu.c ****     .s0_addr        = 0x25,
 474:drivers/inv_mpu.c ****     .s0_reg         = 0x26,
 475:drivers/inv_mpu.c ****     .s0_ctrl        = 0x27,
 476:drivers/inv_mpu.c ****     .s1_addr        = 0x28,
 477:drivers/inv_mpu.c ****     .s1_reg         = 0x29,
 478:drivers/inv_mpu.c ****     .s1_ctrl        = 0x2A,
 479:drivers/inv_mpu.c ****     .s4_ctrl        = 0x34,
 480:drivers/inv_mpu.c ****     .s0_do          = 0x63,
 481:drivers/inv_mpu.c ****     .s1_do          = 0x64,
 482:drivers/inv_mpu.c ****     .i2c_delay_ctrl = 0x67
 483:drivers/inv_mpu.c **** #endif
 484:drivers/inv_mpu.c **** };
 485:drivers/inv_mpu.c **** const struct hw_s hw = {
 486:drivers/inv_mpu.c ****     .addr           = 0x68,
 487:drivers/inv_mpu.c ****     .max_fifo       = 1024,
 488:drivers/inv_mpu.c ****     .num_reg        = 118,
 489:drivers/inv_mpu.c ****     .temp_sens      = 340,
 490:drivers/inv_mpu.c ****     .temp_offset    = -521,
ARM GAS  /tmp/cc18izUm.s 			page 10


 491:drivers/inv_mpu.c ****     .bank_size      = 256
 492:drivers/inv_mpu.c **** #if defined AK89xx_SECONDARY
 493:drivers/inv_mpu.c ****     ,.compass_fsr    = AK89xx_FSR
 494:drivers/inv_mpu.c **** #endif
 495:drivers/inv_mpu.c **** };
 496:drivers/inv_mpu.c **** */
 497:drivers/inv_mpu.c **** const struct hw_s hw={
 498:drivers/inv_mpu.c ****   0x68,	 //addr
 499:drivers/inv_mpu.c ****   1024,	 //max_fifo
 500:drivers/inv_mpu.c ****   118,	 //num_reg
 501:drivers/inv_mpu.c ****   340,	 //temp_sens
 502:drivers/inv_mpu.c ****   -521,	 //temp_offset
 503:drivers/inv_mpu.c ****   256	 //bank_size
 504:drivers/inv_mpu.c **** };
 505:drivers/inv_mpu.c **** const struct gyro_reg_s reg = {
 506:drivers/inv_mpu.c **** 0x75,  //who_am_i
 507:drivers/inv_mpu.c **** 0x19,  //rate_div
 508:drivers/inv_mpu.c **** 0x1A,  //lpf
 509:drivers/inv_mpu.c **** 0x0C,  //prod_id
 510:drivers/inv_mpu.c **** 0x6A,  //user_ctrl
 511:drivers/inv_mpu.c **** 0x23,  //fifo_en
 512:drivers/inv_mpu.c **** 0x1B,  //gyro_cfg
 513:drivers/inv_mpu.c **** 0x1C,  //accel_cfg
 514:drivers/inv_mpu.c **** 0x1F,  // motion_thr
 515:drivers/inv_mpu.c **** 0x20,  // motion_dur
 516:drivers/inv_mpu.c **** 0x72,  // fifo_count_h
 517:drivers/inv_mpu.c **** 0x74,  // fifo_r_w
 518:drivers/inv_mpu.c **** 0x43,  // raw_gyro
 519:drivers/inv_mpu.c **** 0x3B,  // raw_accel
 520:drivers/inv_mpu.c **** 0x41,  // temp
 521:drivers/inv_mpu.c **** 0x38,  // int_enable
 522:drivers/inv_mpu.c **** 0x39,  //  dmp_int_status
 523:drivers/inv_mpu.c **** 0x3A,  //  int_status
 524:drivers/inv_mpu.c **** 0x6B,  // pwr_mgmt_1
 525:drivers/inv_mpu.c **** 0x6C,  // pwr_mgmt_2
 526:drivers/inv_mpu.c **** 0x37,  // int_pin_cfg
 527:drivers/inv_mpu.c **** 0x6F,  // mem_r_w
 528:drivers/inv_mpu.c **** 0x06,  // accel_offs
 529:drivers/inv_mpu.c **** 0x24,  // i2c_mst
 530:drivers/inv_mpu.c **** 0x6D,  // bank_sel
 531:drivers/inv_mpu.c **** 0x6E,  // mem_start_addr
 532:drivers/inv_mpu.c **** 0x70   // prgm_start_h
 533:drivers/inv_mpu.c **** };
 534:drivers/inv_mpu.c **** 
 535:drivers/inv_mpu.c **** //const struct test_s test = {
 536:drivers/inv_mpu.c **** //    .gyro_sens      = 32768/250,
 537:drivers/inv_mpu.c **** //    .accel_sens     = 32768/16,	  
 538:drivers/inv_mpu.c **** //    .reg_rate_div   = 0,    /* 1kHz. */
 539:drivers/inv_mpu.c **** //    .reg_lpf        = 1,    /* 188Hz. */
 540:drivers/inv_mpu.c **** //    .reg_gyro_fsr   = 0,    /* 250dps. */
 541:drivers/inv_mpu.c **** //    .reg_accel_fsr  = 0x18, /* 16g. */
 542:drivers/inv_mpu.c **** //    .wait_ms        = 50,
 543:drivers/inv_mpu.c **** //    .packet_thresh  = 5,    /* 5% */
 544:drivers/inv_mpu.c **** //    .min_dps        = 10.f,
 545:drivers/inv_mpu.c **** //    .max_dps        = 105.f,
 546:drivers/inv_mpu.c **** //    .max_gyro_var   = 0.14f,
 547:drivers/inv_mpu.c **** //    .min_g          = 0.3f,
ARM GAS  /tmp/cc18izUm.s 			page 11


 548:drivers/inv_mpu.c **** //    .max_g          = 0.95f,
 549:drivers/inv_mpu.c **** //    .max_accel_var  = 0.14f
 550:drivers/inv_mpu.c **** //};
 551:drivers/inv_mpu.c **** const struct test_s test={
 552:drivers/inv_mpu.c **** 32768/250,		 //gyro_sens
 553:drivers/inv_mpu.c **** 32768/16,		 //	accel_sens
 554:drivers/inv_mpu.c **** 0,				 //	reg_rate_div
 555:drivers/inv_mpu.c **** 1,				//	reg_lpf
 556:drivers/inv_mpu.c **** 0,				 //	reg_gyro_fsr
 557:drivers/inv_mpu.c **** 0x18,			//	reg_accel_fsr
 558:drivers/inv_mpu.c **** 50,				//	wait_ms
 559:drivers/inv_mpu.c **** 5,				//	packet_thresh
 560:drivers/inv_mpu.c **** 10.0f,			 //	min_dps
 561:drivers/inv_mpu.c **** 105.0f,			 //	max_dps
 562:drivers/inv_mpu.c **** 0.14f,			//	max_gyro_var
 563:drivers/inv_mpu.c **** 0.3f,		   //	min_g
 564:drivers/inv_mpu.c **** 0.95f,		   //	max_g
 565:drivers/inv_mpu.c **** 0.14f		   //	max_accel_var
 566:drivers/inv_mpu.c **** };
 567:drivers/inv_mpu.c **** /*
 568:drivers/inv_mpu.c **** static struct gyro_state_s st = {
 569:drivers/inv_mpu.c ****     .reg = &reg,
 570:drivers/inv_mpu.c ****     .hw = &hw,
 571:drivers/inv_mpu.c ****     .test = &test
 572:drivers/inv_mpu.c **** };	*/
 573:drivers/inv_mpu.c **** static struct gyro_state_s st={
 574:drivers/inv_mpu.c ****   &reg,
 575:drivers/inv_mpu.c ****   &hw,
 576:drivers/inv_mpu.c ****   {0},
 577:drivers/inv_mpu.c ****   &test
 578:drivers/inv_mpu.c **** };
 579:drivers/inv_mpu.c **** //st.chip_cfg.dmp_on = 1;
 580:drivers/inv_mpu.c **** //st.dhip_cfg.fifo_enabel = 1;
 581:drivers/inv_mpu.c **** /*
 582:drivers/inv_mpu.c **** #elif defined MPU6500
 583:drivers/inv_mpu.c **** const struct gyro_reg_s reg = {
 584:drivers/inv_mpu.c ****     .who_am_i       = 0x75,
 585:drivers/inv_mpu.c ****     .rate_div       = 0x19,
 586:drivers/inv_mpu.c ****     .lpf            = 0x1A,
 587:drivers/inv_mpu.c ****     .prod_id        = 0x0C,
 588:drivers/inv_mpu.c ****     .user_ctrl      = 0x6A,
 589:drivers/inv_mpu.c ****     .fifo_en        = 0x23,
 590:drivers/inv_mpu.c ****     .gyro_cfg       = 0x1B,
 591:drivers/inv_mpu.c ****     .accel_cfg      = 0x1C,
 592:drivers/inv_mpu.c ****     .accel_cfg2     = 0x1D,
 593:drivers/inv_mpu.c ****     .lp_accel_odr   = 0x1E,
 594:drivers/inv_mpu.c ****     .motion_thr     = 0x1F,
 595:drivers/inv_mpu.c ****     .motion_dur     = 0x20,
 596:drivers/inv_mpu.c ****     .fifo_count_h   = 0x72,
 597:drivers/inv_mpu.c ****     .fifo_r_w       = 0x74,
 598:drivers/inv_mpu.c ****     .raw_gyro       = 0x43,
 599:drivers/inv_mpu.c ****     .raw_accel      = 0x3B,
 600:drivers/inv_mpu.c ****     .temp           = 0x41,
 601:drivers/inv_mpu.c ****     .int_enable     = 0x38,
 602:drivers/inv_mpu.c ****     .dmp_int_status = 0x39,
 603:drivers/inv_mpu.c ****     .int_status     = 0x3A,
 604:drivers/inv_mpu.c ****     .accel_intel    = 0x69,
ARM GAS  /tmp/cc18izUm.s 			page 12


 605:drivers/inv_mpu.c ****     .pwr_mgmt_1     = 0x6B,
 606:drivers/inv_mpu.c ****     .pwr_mgmt_2     = 0x6C,
 607:drivers/inv_mpu.c ****     .int_pin_cfg    = 0x37,
 608:drivers/inv_mpu.c ****     .mem_r_w        = 0x6F,
 609:drivers/inv_mpu.c ****     .accel_offs     = 0x77,
 610:drivers/inv_mpu.c ****     .i2c_mst        = 0x24,
 611:drivers/inv_mpu.c ****     .bank_sel       = 0x6D,
 612:drivers/inv_mpu.c ****     .mem_start_addr = 0x6E,
 613:drivers/inv_mpu.c ****     .prgm_start_h   = 0x70
 614:drivers/inv_mpu.c **** #ifdef AK89xx_SECONDARY
 615:drivers/inv_mpu.c ****     ,.raw_compass   = 0x49,
 616:drivers/inv_mpu.c ****     .s0_addr        = 0x25,
 617:drivers/inv_mpu.c ****     .s0_reg         = 0x26,
 618:drivers/inv_mpu.c ****     .s0_ctrl        = 0x27,
 619:drivers/inv_mpu.c ****     .s1_addr        = 0x28,
 620:drivers/inv_mpu.c ****     .s1_reg         = 0x29,
 621:drivers/inv_mpu.c ****     .s1_ctrl        = 0x2A,
 622:drivers/inv_mpu.c ****     .s4_ctrl        = 0x34,
 623:drivers/inv_mpu.c ****     .s0_do          = 0x63,
 624:drivers/inv_mpu.c ****     .s1_do          = 0x64,
 625:drivers/inv_mpu.c ****     .i2c_delay_ctrl = 0x67
 626:drivers/inv_mpu.c **** #endif
 627:drivers/inv_mpu.c **** };
 628:drivers/inv_mpu.c **** const struct hw_s hw = {
 629:drivers/inv_mpu.c ****     .addr           = 0x68,
 630:drivers/inv_mpu.c ****     .max_fifo       = 1024,
 631:drivers/inv_mpu.c ****     .num_reg        = 128,
 632:drivers/inv_mpu.c ****     .temp_sens      = 321,
 633:drivers/inv_mpu.c ****     .temp_offset    = 0,
 634:drivers/inv_mpu.c ****     .bank_size      = 256
 635:drivers/inv_mpu.c **** #if defined AK89xx_SECONDARY
 636:drivers/inv_mpu.c ****     ,.compass_fsr    = AK89xx_FSR
 637:drivers/inv_mpu.c **** #endif
 638:drivers/inv_mpu.c **** };
 639:drivers/inv_mpu.c **** */
 640:drivers/inv_mpu.c **** //const struct test_s test = {
 641:drivers/inv_mpu.c **** //    .gyro_sens      = 32768/250,
 642:drivers/inv_mpu.c **** //    .accel_sens     = 32768/16,
 643:drivers/inv_mpu.c **** //    .reg_rate_div   = 0,    /* 1kHz. */
 644:drivers/inv_mpu.c **** //    .reg_lpf        = 1,    /* 188Hz. */
 645:drivers/inv_mpu.c **** //    .reg_gyro_fsr   = 0,    /* 250dps. */
 646:drivers/inv_mpu.c **** //    .reg_accel_fsr  = 0x18, /* 16g. */
 647:drivers/inv_mpu.c **** //    .wait_ms        = 50,
 648:drivers/inv_mpu.c **** //    .packet_thresh  = 5,    /* 5% */
 649:drivers/inv_mpu.c **** //    .min_dps        = 10.f,
 650:drivers/inv_mpu.c **** //    .max_dps        = 105.f,
 651:drivers/inv_mpu.c **** //    .max_gyro_var   = 0.14f,
 652:drivers/inv_mpu.c **** //    .min_g          = 0.3f,
 653:drivers/inv_mpu.c **** //    .max_g          = 0.95f,
 654:drivers/inv_mpu.c **** //    .max_accel_var  = 0.14f
 655:drivers/inv_mpu.c **** //};
 656:drivers/inv_mpu.c **** //
 657:drivers/inv_mpu.c **** //static struct gyro_state_s st = {
 658:drivers/inv_mpu.c **** //    .reg = &reg,
 659:drivers/inv_mpu.c **** //    .hw = &hw,
 660:drivers/inv_mpu.c **** //    .test = &test
 661:drivers/inv_mpu.c **** //};
ARM GAS  /tmp/cc18izUm.s 			page 13


 662:drivers/inv_mpu.c **** #endif
 663:drivers/inv_mpu.c **** 
 664:drivers/inv_mpu.c **** #define MAX_PACKET_LENGTH (12)
 665:drivers/inv_mpu.c **** 
 666:drivers/inv_mpu.c **** #ifdef AK89xx_SECONDARY
 667:drivers/inv_mpu.c **** static int setup_compass(void);
 668:drivers/inv_mpu.c **** #define MAX_COMPASS_SAMPLE_RATE (100)
 669:drivers/inv_mpu.c **** #endif
 670:drivers/inv_mpu.c **** 
 671:drivers/inv_mpu.c **** /**
 672:drivers/inv_mpu.c ****  *  @brief      Enable/disable data ready interrupt.
 673:drivers/inv_mpu.c ****  *  If the DMP is on, the DMP interrupt is enabled. Otherwise, the data ready
 674:drivers/inv_mpu.c ****  *  interrupt is used.
 675:drivers/inv_mpu.c ****  *  @param[in]  enable      1 to enable interrupt.
 676:drivers/inv_mpu.c ****  *  @return     0 if successful.
 677:drivers/inv_mpu.c ****  */
 678:drivers/inv_mpu.c **** static int set_int_enable(unsigned char enable)
 679:drivers/inv_mpu.c **** {
  24              		.loc 1 679 0
  25              		.cfi_startproc
  26              		@ args = 0, pretend = 0, frame = 8
  27              		@ frame_needed = 0, uses_anonymous_args = 0
  28              	.LVL0:
  29 0000 00B5     		push	{lr}
  30              		.cfi_def_cfa_offset 4
  31              		.cfi_offset 14, -4
  32 0002 83B0     		sub	sp, sp, #12
  33              		.cfi_def_cfa_offset 16
 680:drivers/inv_mpu.c ****     unsigned char tmp;
 681:drivers/inv_mpu.c **** 
 682:drivers/inv_mpu.c ****     if (st.chip_cfg.dmp_on) {
  34              		.loc 1 682 0
  35 0004 234B     		ldr	r3, .L13
  36 0006 93F82430 		ldrb	r3, [r3, #36]	@ zero_extendqisi2
  37 000a CBB1     		cbz	r3, .L2
 683:drivers/inv_mpu.c ****         if (enable)
  38              		.loc 1 683 0
  39 000c A0B1     		cbz	r0, .L3
 684:drivers/inv_mpu.c ****             tmp = BIT_DMP_INT_EN;
  40              		.loc 1 684 0
  41 000e 0223     		movs	r3, #2
  42 0010 8DF80730 		strb	r3, [sp, #7]
  43              	.L4:
 685:drivers/inv_mpu.c ****         else
 686:drivers/inv_mpu.c ****             tmp = 0x00;
 687:drivers/inv_mpu.c ****         if (I2C_Write(st.hw->addr, st.reg->int_enable, 1, &tmp))
  44              		.loc 1 687 0
  45 0014 1F4B     		ldr	r3, .L13
  46 0016 1968     		ldr	r1, [r3]
  47 0018 5868     		ldr	r0, [r3, #4]
  48              	.LVL1:
  49 001a 0DF10703 		add	r3, sp, #7
  50 001e 0122     		movs	r2, #1
  51 0020 C97B     		ldrb	r1, [r1, #15]	@ zero_extendqisi2
  52 0022 0078     		ldrb	r0, [r0]	@ zero_extendqisi2
  53 0024 FFF7FEFF 		bl	I2C_Write
  54              	.LVL2:
ARM GAS  /tmp/cc18izUm.s 			page 14


  55 0028 40BB     		cbnz	r0, .L8
 688:drivers/inv_mpu.c ****             return -1;
 689:drivers/inv_mpu.c ****         st.chip_cfg.int_enable = tmp;
  56              		.loc 1 689 0
  57 002a 9DF80720 		ldrb	r2, [sp, #7]	@ zero_extendqisi2
  58 002e 194B     		ldr	r3, .L13
  59 0030 5A74     		strb	r2, [r3, #17]
  60              	.L1:
 690:drivers/inv_mpu.c ****     } else {
 691:drivers/inv_mpu.c ****         if (!st.chip_cfg.sensors)
 692:drivers/inv_mpu.c ****             return -1;
 693:drivers/inv_mpu.c ****         if (enable && st.chip_cfg.int_enable)
 694:drivers/inv_mpu.c ****             return 0;
 695:drivers/inv_mpu.c ****         if (enable)
 696:drivers/inv_mpu.c ****             tmp = BIT_DATA_RDY_EN;
 697:drivers/inv_mpu.c ****         else
 698:drivers/inv_mpu.c ****             tmp = 0x00;
 699:drivers/inv_mpu.c ****         if (I2C_Write(st.hw->addr, st.reg->int_enable, 1, &tmp))
 700:drivers/inv_mpu.c ****             return -1;
 701:drivers/inv_mpu.c ****         st.chip_cfg.int_enable = tmp;
 702:drivers/inv_mpu.c ****     }
 703:drivers/inv_mpu.c ****     return 0;
 704:drivers/inv_mpu.c **** }
  61              		.loc 1 704 0
  62 0032 03B0     		add	sp, sp, #12
  63              		.cfi_remember_state
  64              		.cfi_def_cfa_offset 4
  65              		@ sp needed
  66 0034 5DF804FB 		ldr	pc, [sp], #4
  67              	.LVL3:
  68              	.L3:
  69              		.cfi_restore_state
 686:drivers/inv_mpu.c ****         if (I2C_Write(st.hw->addr, st.reg->int_enable, 1, &tmp))
  70              		.loc 1 686 0
  71 0038 0023     		movs	r3, #0
  72 003a 8DF80730 		strb	r3, [sp, #7]
  73 003e E9E7     		b	.L4
  74              	.L2:
 691:drivers/inv_mpu.c ****             return -1;
  75              		.loc 1 691 0
  76 0040 144B     		ldr	r3, .L13
  77 0042 9B7A     		ldrb	r3, [r3, #10]	@ zero_extendqisi2
  78 0044 EBB1     		cbz	r3, .L9
 693:drivers/inv_mpu.c ****             return 0;
  79              		.loc 1 693 0
  80 0046 A8B1     		cbz	r0, .L6
 693:drivers/inv_mpu.c ****             return 0;
  81              		.loc 1 693 0 is_stmt 0 discriminator 1
  82 0048 124B     		ldr	r3, .L13
  83 004a 5B7C     		ldrb	r3, [r3, #17]	@ zero_extendqisi2
  84 004c E3B9     		cbnz	r3, .L10
 696:drivers/inv_mpu.c ****         else
  85              		.loc 1 696 0 is_stmt 1
  86 004e 0123     		movs	r3, #1
  87 0050 8DF80730 		strb	r3, [sp, #7]
  88              	.L7:
 699:drivers/inv_mpu.c ****             return -1;
ARM GAS  /tmp/cc18izUm.s 			page 15


  89              		.loc 1 699 0
  90 0054 0F4B     		ldr	r3, .L13
  91 0056 1968     		ldr	r1, [r3]
  92 0058 5868     		ldr	r0, [r3, #4]
  93              	.LVL4:
  94 005a 0DF10703 		add	r3, sp, #7
  95 005e 0122     		movs	r2, #1
  96 0060 C97B     		ldrb	r1, [r1, #15]	@ zero_extendqisi2
  97 0062 0078     		ldrb	r0, [r0]	@ zero_extendqisi2
  98 0064 FFF7FEFF 		bl	I2C_Write
  99              	.LVL5:
 100 0068 80B9     		cbnz	r0, .L11
 701:drivers/inv_mpu.c ****     }
 101              		.loc 1 701 0
 102 006a 9DF80720 		ldrb	r2, [sp, #7]	@ zero_extendqisi2
 103 006e 094B     		ldr	r3, .L13
 104 0070 5A74     		strb	r2, [r3, #17]
 105 0072 DEE7     		b	.L1
 106              	.LVL6:
 107              	.L6:
 698:drivers/inv_mpu.c ****         if (I2C_Write(st.hw->addr, st.reg->int_enable, 1, &tmp))
 108              		.loc 1 698 0
 109 0074 0023     		movs	r3, #0
 110 0076 8DF80730 		strb	r3, [sp, #7]
 111 007a EBE7     		b	.L7
 112              	.LVL7:
 113              	.L8:
 688:drivers/inv_mpu.c ****         st.chip_cfg.int_enable = tmp;
 114              		.loc 1 688 0
 115 007c 4FF0FF30 		mov	r0, #-1
 116 0080 D7E7     		b	.L1
 117              	.LVL8:
 118              	.L9:
 692:drivers/inv_mpu.c ****         if (enable && st.chip_cfg.int_enable)
 119              		.loc 1 692 0
 120 0082 4FF0FF30 		mov	r0, #-1
 121              	.LVL9:
 122 0086 D4E7     		b	.L1
 123              	.LVL10:
 124              	.L10:
 694:drivers/inv_mpu.c ****         if (enable)
 125              		.loc 1 694 0
 126 0088 0020     		movs	r0, #0
 127              	.LVL11:
 128 008a D2E7     		b	.L1
 129              	.L11:
 700:drivers/inv_mpu.c ****         st.chip_cfg.int_enable = tmp;
 130              		.loc 1 700 0
 131 008c 4FF0FF30 		mov	r0, #-1
 132 0090 CFE7     		b	.L1
 133              	.L14:
 134 0092 00BF     		.align	2
 135              	.L13:
 136 0094 00000000 		.word	.LANCHOR0
 137              		.cfi_endproc
 138              	.LFE64:
 139              		.size	set_int_enable, .-set_int_enable
ARM GAS  /tmp/cc18izUm.s 			page 16


 140              		.global	__aeabi_ldivmod
 141              		.align	1
 142              		.syntax unified
 143              		.thumb
 144              		.thumb_func
 145              		.fpu softvfp
 146              		.type	get_st_biases, %function
 147              	get_st_biases:
 148              	.LFB99:
 705:drivers/inv_mpu.c **** 
 706:drivers/inv_mpu.c **** 
 707:drivers/inv_mpu.c **** /**
 708:drivers/inv_mpu.c ****  *  @brief      Register dump for testing.
 709:drivers/inv_mpu.c ****  *  @return     0 if successful.
 710:drivers/inv_mpu.c ****  */
 711:drivers/inv_mpu.c **** int mpu_reg_dump(void)
 712:drivers/inv_mpu.c **** {
 713:drivers/inv_mpu.c ****     unsigned char ii;
 714:drivers/inv_mpu.c ****     unsigned char data;
 715:drivers/inv_mpu.c **** 
 716:drivers/inv_mpu.c ****     for (ii = 0; ii < st.hw->num_reg; ii++) {
 717:drivers/inv_mpu.c ****         if (ii == st.reg->fifo_r_w || ii == st.reg->mem_r_w)
 718:drivers/inv_mpu.c ****             continue;
 719:drivers/inv_mpu.c ****         if (I2C_Read(st.hw->addr, ii, 1, &data))
 720:drivers/inv_mpu.c ****             return -1;
 721:drivers/inv_mpu.c ****         //log_i("%#5x: %#5x\r\n", ii, data);
 722:drivers/inv_mpu.c ****     }
 723:drivers/inv_mpu.c ****     return 0;
 724:drivers/inv_mpu.c **** }
 725:drivers/inv_mpu.c **** 
 726:drivers/inv_mpu.c **** /**
 727:drivers/inv_mpu.c ****  *  @brief      Read from a single register.
 728:drivers/inv_mpu.c ****  *  NOTE: The memory and FIFO read/write registers cannot be accessed.
 729:drivers/inv_mpu.c ****  *  @param[in]  reg     Register address.
 730:drivers/inv_mpu.c ****  *  @param[out] data    Register data.
 731:drivers/inv_mpu.c ****  *  @return     0 if successful.
 732:drivers/inv_mpu.c ****  */
 733:drivers/inv_mpu.c **** int mpu_read_reg(unsigned char reg, unsigned char *data)
 734:drivers/inv_mpu.c **** {
 735:drivers/inv_mpu.c ****     if (reg == st.reg->fifo_r_w || reg == st.reg->mem_r_w)
 736:drivers/inv_mpu.c ****         return -1;
 737:drivers/inv_mpu.c ****     if (reg >= st.hw->num_reg)
 738:drivers/inv_mpu.c ****         return -1;
 739:drivers/inv_mpu.c ****     return I2C_Read(st.hw->addr, reg, 1, data);
 740:drivers/inv_mpu.c **** }
 741:drivers/inv_mpu.c **** 
 742:drivers/inv_mpu.c **** /**
 743:drivers/inv_mpu.c ****  *  @brief      Initialize hardware.
 744:drivers/inv_mpu.c ****  *  Initial configuration:\n
 745:drivers/inv_mpu.c ****  *  Gyro FSR: +/- 2000DPS\n
 746:drivers/inv_mpu.c ****  *  Accel FSR +/- 2G\n
 747:drivers/inv_mpu.c ****  *  DLPF: 42Hz\n
 748:drivers/inv_mpu.c ****  *  FIFO rate: 50Hz\n
 749:drivers/inv_mpu.c ****  *  Clock source: Gyro PLL\n
 750:drivers/inv_mpu.c ****  *  FIFO: Disabled.\n
 751:drivers/inv_mpu.c ****  *  Data ready interrupt: Disabled, active low, unlatched.
 752:drivers/inv_mpu.c ****  *  @param[in]  int_param   Platform-specific parameters to interrupt API.
ARM GAS  /tmp/cc18izUm.s 			page 17


 753:drivers/inv_mpu.c ****  *  @return     0 if successful.
 754:drivers/inv_mpu.c ****  */
 755:drivers/inv_mpu.c **** int mpu_init(void)
 756:drivers/inv_mpu.c **** {
 757:drivers/inv_mpu.c ****     unsigned char data[6], rev;
 758:drivers/inv_mpu.c **** 
 759:drivers/inv_mpu.c ****     /* Reset device. */
 760:drivers/inv_mpu.c ****     data[0] = 0x80;//BIT_RESET;
 761:drivers/inv_mpu.c ****     if (I2C_Write(st.hw->addr, st.reg->pwr_mgmt_1, 1, &(data[0])))
 762:drivers/inv_mpu.c ****         return -1;
 763:drivers/inv_mpu.c ****     DelayMs(100);
 764:drivers/inv_mpu.c **** 
 765:drivers/inv_mpu.c ****     /* Wake up chip. */
 766:drivers/inv_mpu.c ****     data[0] = 0x00;
 767:drivers/inv_mpu.c ****     if (I2C_Write(st.hw->addr, st.reg->pwr_mgmt_1, 1, &(data[0])))
 768:drivers/inv_mpu.c ****         return -1;
 769:drivers/inv_mpu.c **** 
 770:drivers/inv_mpu.c **** #if defined MPU6050
 771:drivers/inv_mpu.c ****     /* Check product revision. */
 772:drivers/inv_mpu.c ****     if (I2C_Read(st.hw->addr, st.reg->accel_offs, 6, data))
 773:drivers/inv_mpu.c ****         return -1;
 774:drivers/inv_mpu.c ****     rev = ((data[5] & 0x01) << 2) | ((data[3] & 0x01) << 1) |
 775:drivers/inv_mpu.c ****         (data[1] & 0x01);
 776:drivers/inv_mpu.c **** 
 777:drivers/inv_mpu.c ****     if (rev) {
 778:drivers/inv_mpu.c ****         /* Congrats, these parts are better. */
 779:drivers/inv_mpu.c ****         if (rev == 1)
 780:drivers/inv_mpu.c ****             st.chip_cfg.accel_half = 1;
 781:drivers/inv_mpu.c ****         else if (rev == 2)
 782:drivers/inv_mpu.c ****             st.chip_cfg.accel_half = 0;
 783:drivers/inv_mpu.c ****         else {
 784:drivers/inv_mpu.c ****             log_e("Unsupported software product rev %d.\n",rev);
 785:drivers/inv_mpu.c ****             return -1;
 786:drivers/inv_mpu.c ****         }
 787:drivers/inv_mpu.c ****     } else {
 788:drivers/inv_mpu.c ****         if (I2C_Read(st.hw->addr, st.reg->prod_id, 1, &(data[0])))
 789:drivers/inv_mpu.c ****             return -1;
 790:drivers/inv_mpu.c ****         rev = data[0] & 0x0F;
 791:drivers/inv_mpu.c ****         if (!rev) {
 792:drivers/inv_mpu.c ****             log_e("Product ID read as 0 indicates device is either incompatible or an MPU3050.\r\n"
 793:drivers/inv_mpu.c ****             return -1;
 794:drivers/inv_mpu.c ****         } else if (rev == 4) {
 795:drivers/inv_mpu.c ****             log_i("Half sensitivity part found.\r\n");
 796:drivers/inv_mpu.c ****             st.chip_cfg.accel_half = 1;
 797:drivers/inv_mpu.c ****         } else
 798:drivers/inv_mpu.c ****             st.chip_cfg.accel_half = 0;
 799:drivers/inv_mpu.c ****     }
 800:drivers/inv_mpu.c **** #elif defined MPU6500
 801:drivers/inv_mpu.c **** #define MPU6500_MEM_REV_ADDR    (0x17)
 802:drivers/inv_mpu.c ****     if (mpu_read_mem(MPU6500_MEM_REV_ADDR, 1, &rev))
 803:drivers/inv_mpu.c ****         return -1;
 804:drivers/inv_mpu.c ****     if (rev == 0x1)
 805:drivers/inv_mpu.c ****         st.chip_cfg.accel_half = 0;
 806:drivers/inv_mpu.c ****     else {
 807:drivers/inv_mpu.c ****         log_e("Unsupported software product rev %d.\r\n", rev);
 808:drivers/inv_mpu.c ****         return -1;
 809:drivers/inv_mpu.c ****     }
ARM GAS  /tmp/cc18izUm.s 			page 18


 810:drivers/inv_mpu.c **** 
 811:drivers/inv_mpu.c ****     /* MPU6500 shares 4kB of memory between the DMP and the FIFO. Since the
 812:drivers/inv_mpu.c ****      * first 3kB are needed by the DMP, we'll use the last 1kB for the FIFO.
 813:drivers/inv_mpu.c ****      */
 814:drivers/inv_mpu.c ****     data[0] = BIT_FIFO_SIZE_1024 | 0x8;
 815:drivers/inv_mpu.c ****     if (I2C_Write(st.hw->addr, st.reg->accel_cfg2, 1, data))
 816:drivers/inv_mpu.c ****         return -1;
 817:drivers/inv_mpu.c **** #endif
 818:drivers/inv_mpu.c **** 
 819:drivers/inv_mpu.c ****     /* Set to invalid values to ensure no I2C writes are skipped. */
 820:drivers/inv_mpu.c ****     st.chip_cfg.sensors = 0xFF;
 821:drivers/inv_mpu.c ****     st.chip_cfg.gyro_fsr = 0xFF;
 822:drivers/inv_mpu.c ****     st.chip_cfg.accel_fsr = 0xFF;
 823:drivers/inv_mpu.c ****     st.chip_cfg.lpf = 0xFF;
 824:drivers/inv_mpu.c ****     st.chip_cfg.sample_rate = 0xFFFF;
 825:drivers/inv_mpu.c ****     st.chip_cfg.fifo_enable = 0xFF;
 826:drivers/inv_mpu.c ****     st.chip_cfg.bypass_mode = 0xFF;
 827:drivers/inv_mpu.c **** #ifdef AK89xx_SECONDARY
 828:drivers/inv_mpu.c ****     st.chip_cfg.compass_sample_rate = 0xFFFF;
 829:drivers/inv_mpu.c **** #endif
 830:drivers/inv_mpu.c ****     /* mpu_set_sensors always preserves this setting. */
 831:drivers/inv_mpu.c ****     st.chip_cfg.clk_src = INV_CLK_PLL;
 832:drivers/inv_mpu.c ****     /* Handled in next call to mpu_set_bypass. */
 833:drivers/inv_mpu.c ****     st.chip_cfg.active_low_int = 1;
 834:drivers/inv_mpu.c ****     st.chip_cfg.latched_int = 0;
 835:drivers/inv_mpu.c ****     st.chip_cfg.int_motion_only = 0;
 836:drivers/inv_mpu.c ****     st.chip_cfg.lp_accel_mode = 0;
 837:drivers/inv_mpu.c ****     memset(&st.chip_cfg.cache, 0, sizeof(st.chip_cfg.cache));
 838:drivers/inv_mpu.c ****     st.chip_cfg.dmp_on = 0;
 839:drivers/inv_mpu.c ****     st.chip_cfg.dmp_loaded = 0;
 840:drivers/inv_mpu.c ****     st.chip_cfg.dmp_sample_rate = 0;
 841:drivers/inv_mpu.c **** 
 842:drivers/inv_mpu.c ****     if (mpu_set_gyro_fsr(2000))
 843:drivers/inv_mpu.c ****         return -1;
 844:drivers/inv_mpu.c ****     if (mpu_set_accel_fsr(2))
 845:drivers/inv_mpu.c ****         return -1;
 846:drivers/inv_mpu.c ****     if (mpu_set_lpf(42))
 847:drivers/inv_mpu.c ****         return -1;
 848:drivers/inv_mpu.c ****     if (mpu_set_sample_rate(50))
 849:drivers/inv_mpu.c ****         return -1;
 850:drivers/inv_mpu.c ****     if (mpu_configure_fifo(0))
 851:drivers/inv_mpu.c ****         return -1;
 852:drivers/inv_mpu.c **** 
 853:drivers/inv_mpu.c ****     /*if (int_param)
 854:drivers/inv_mpu.c ****         reg_int_cb(int_param);*/
 855:drivers/inv_mpu.c **** 
 856:drivers/inv_mpu.c **** #ifdef AK89xx_SECONDARY
 857:drivers/inv_mpu.c ****     setup_compass();
 858:drivers/inv_mpu.c ****     if (mpu_set_compass_sample_rate(10))
 859:drivers/inv_mpu.c ****         return -1;
 860:drivers/inv_mpu.c **** #else
 861:drivers/inv_mpu.c ****     /* Already disabled by setup_compass. */
 862:drivers/inv_mpu.c ****     if (mpu_set_bypass(0))
 863:drivers/inv_mpu.c ****         return -1;
 864:drivers/inv_mpu.c **** #endif
 865:drivers/inv_mpu.c **** 
 866:drivers/inv_mpu.c ****     mpu_set_sensors(0);
ARM GAS  /tmp/cc18izUm.s 			page 19


 867:drivers/inv_mpu.c ****     return 0;
 868:drivers/inv_mpu.c **** }
 869:drivers/inv_mpu.c **** 
 870:drivers/inv_mpu.c **** /**
 871:drivers/inv_mpu.c ****  *  @brief      Enter low-power accel-only mode.
 872:drivers/inv_mpu.c ****  *  In low-power accel mode, the chip goes to sleep and only wakes up to sample
 873:drivers/inv_mpu.c ****  *  the accelerometer at one of the following frequencies:
 874:drivers/inv_mpu.c ****  *  \n MPU6050: 1.25Hz, 5Hz, 20Hz, 40Hz
 875:drivers/inv_mpu.c ****  *  \n MPU6500: 1.25Hz, 2.5Hz, 5Hz, 10Hz, 20Hz, 40Hz, 80Hz, 160Hz, 320Hz, 640Hz
 876:drivers/inv_mpu.c ****  *  \n If the requested rate is not one listed above, the device will be set to
 877:drivers/inv_mpu.c ****  *  the next highest rate. Requesting a rate above the maximum supported
 878:drivers/inv_mpu.c ****  *  frequency will result in an error.
 879:drivers/inv_mpu.c ****  *  \n To select a fractional wake-up frequency, round down the value passed to
 880:drivers/inv_mpu.c ****  *  @e rate.
 881:drivers/inv_mpu.c ****  *  @param[in]  rate        Minimum sampling rate, or zero to disable LP
 882:drivers/inv_mpu.c ****  *                          accel mode.
 883:drivers/inv_mpu.c ****  *  @return     0 if successful.
 884:drivers/inv_mpu.c ****  */
 885:drivers/inv_mpu.c **** int mpu_lp_accel_mode(unsigned char rate)
 886:drivers/inv_mpu.c **** {
 887:drivers/inv_mpu.c ****     unsigned char tmp[2];
 888:drivers/inv_mpu.c **** 
 889:drivers/inv_mpu.c ****     if (rate > 40)
 890:drivers/inv_mpu.c ****         return -1;
 891:drivers/inv_mpu.c **** 
 892:drivers/inv_mpu.c ****     if (!rate) {
 893:drivers/inv_mpu.c ****         mpu_set_int_latched(0);
 894:drivers/inv_mpu.c ****         tmp[0] = 0;
 895:drivers/inv_mpu.c ****         tmp[1] = BIT_STBY_XYZG;
 896:drivers/inv_mpu.c ****         if (I2C_Write(st.hw->addr, st.reg->pwr_mgmt_1, 2, tmp))
 897:drivers/inv_mpu.c ****             return -1;
 898:drivers/inv_mpu.c ****         st.chip_cfg.lp_accel_mode = 0;
 899:drivers/inv_mpu.c ****         return 0;
 900:drivers/inv_mpu.c ****     }
 901:drivers/inv_mpu.c ****     /* For LP accel, we automatically configure the hardware to produce latched
 902:drivers/inv_mpu.c ****      * interrupts. In LP accel mode, the hardware cycles into sleep mode before
 903:drivers/inv_mpu.c ****      * it gets a chance to deassert the interrupt pin; therefore, we shift this
 904:drivers/inv_mpu.c ****      * responsibility over to the MCU.
 905:drivers/inv_mpu.c ****      *
 906:drivers/inv_mpu.c ****      * Any register read will clear the interrupt.
 907:drivers/inv_mpu.c ****      */
 908:drivers/inv_mpu.c ****     mpu_set_int_latched(1);
 909:drivers/inv_mpu.c **** #if defined MPU6050
 910:drivers/inv_mpu.c ****     tmp[0] = BIT_LPA_CYCLE;
 911:drivers/inv_mpu.c ****     if (rate == 1) {
 912:drivers/inv_mpu.c ****         tmp[1] = INV_LPA_1_25HZ;
 913:drivers/inv_mpu.c ****         mpu_set_lpf(5);
 914:drivers/inv_mpu.c ****     } else if (rate <= 5) {
 915:drivers/inv_mpu.c ****         tmp[1] = INV_LPA_5HZ;
 916:drivers/inv_mpu.c ****         mpu_set_lpf(5);
 917:drivers/inv_mpu.c ****     } else if (rate <= 20) {
 918:drivers/inv_mpu.c ****         tmp[1] = INV_LPA_20HZ;
 919:drivers/inv_mpu.c ****         mpu_set_lpf(10);
 920:drivers/inv_mpu.c ****     } else {
 921:drivers/inv_mpu.c ****         tmp[1] = INV_LPA_40HZ;
 922:drivers/inv_mpu.c ****         mpu_set_lpf(20);
 923:drivers/inv_mpu.c ****     }
ARM GAS  /tmp/cc18izUm.s 			page 20


 924:drivers/inv_mpu.c ****     tmp[1] = (tmp[1] << 6) | BIT_STBY_XYZG;
 925:drivers/inv_mpu.c ****     if (I2C_Write(st.hw->addr, st.reg->pwr_mgmt_1, 2, tmp))
 926:drivers/inv_mpu.c ****         return -1;
 927:drivers/inv_mpu.c **** #elif defined MPU6500
 928:drivers/inv_mpu.c ****     /* Set wake frequency. */
 929:drivers/inv_mpu.c ****     if (rate == 1)
 930:drivers/inv_mpu.c ****         tmp[0] = INV_LPA_1_25HZ;
 931:drivers/inv_mpu.c ****     else if (rate == 2)
 932:drivers/inv_mpu.c ****         tmp[0] = INV_LPA_2_5HZ;
 933:drivers/inv_mpu.c ****     else if (rate <= 5)
 934:drivers/inv_mpu.c ****         tmp[0] = INV_LPA_5HZ;
 935:drivers/inv_mpu.c ****     else if (rate <= 10)
 936:drivers/inv_mpu.c ****         tmp[0] = INV_LPA_10HZ;
 937:drivers/inv_mpu.c ****     else if (rate <= 20)
 938:drivers/inv_mpu.c ****         tmp[0] = INV_LPA_20HZ;
 939:drivers/inv_mpu.c ****     else if (rate <= 40)
 940:drivers/inv_mpu.c ****         tmp[0] = INV_LPA_40HZ;
 941:drivers/inv_mpu.c ****     else if (rate <= 80)
 942:drivers/inv_mpu.c ****         tmp[0] = INV_LPA_80HZ;
 943:drivers/inv_mpu.c ****     else if (rate <= 160)
 944:drivers/inv_mpu.c ****         tmp[0] = INV_LPA_160HZ;
 945:drivers/inv_mpu.c ****     else if (rate <= 320)
 946:drivers/inv_mpu.c ****         tmp[0] = INV_LPA_320HZ;
 947:drivers/inv_mpu.c ****     else
 948:drivers/inv_mpu.c ****         tmp[0] = INV_LPA_640HZ;
 949:drivers/inv_mpu.c ****     if (I2C_Write(st.hw->addr, st.reg->lp_accel_odr, 1, tmp))
 950:drivers/inv_mpu.c ****         return -1;
 951:drivers/inv_mpu.c ****     tmp[0] = BIT_LPA_CYCLE;
 952:drivers/inv_mpu.c ****     if (I2C_Write(st.hw->addr, st.reg->pwr_mgmt_1, 1, tmp))
 953:drivers/inv_mpu.c ****         return -1;
 954:drivers/inv_mpu.c **** #endif
 955:drivers/inv_mpu.c ****     st.chip_cfg.sensors = INV_XYZ_ACCEL;
 956:drivers/inv_mpu.c ****     st.chip_cfg.clk_src = 0;
 957:drivers/inv_mpu.c ****     st.chip_cfg.lp_accel_mode = 1;
 958:drivers/inv_mpu.c ****     mpu_configure_fifo(0);
 959:drivers/inv_mpu.c **** 
 960:drivers/inv_mpu.c ****     return 0;
 961:drivers/inv_mpu.c **** }
 962:drivers/inv_mpu.c **** 
 963:drivers/inv_mpu.c **** /**
 964:drivers/inv_mpu.c ****  *  @brief      Read raw gyro data directly from the registers.
 965:drivers/inv_mpu.c ****  *  @param[out] data        Raw data in hardware units.
 966:drivers/inv_mpu.c ****  *  @param[out] timestamp   Timestamp in milliseconds. Null if not needed.
 967:drivers/inv_mpu.c ****  *  @return     0 if successful.
 968:drivers/inv_mpu.c ****  */
 969:drivers/inv_mpu.c **** int mpu_get_gyro_reg(short *data, unsigned long *timestamp)
 970:drivers/inv_mpu.c **** {
 971:drivers/inv_mpu.c ****     unsigned char tmp[6];
 972:drivers/inv_mpu.c **** 
 973:drivers/inv_mpu.c ****     if (!(st.chip_cfg.sensors & INV_XYZ_GYRO))
 974:drivers/inv_mpu.c ****         return -1;
 975:drivers/inv_mpu.c **** 
 976:drivers/inv_mpu.c ****     if (I2C_Read(st.hw->addr, st.reg->raw_gyro, 6, tmp))
 977:drivers/inv_mpu.c ****         return -1;
 978:drivers/inv_mpu.c ****     data[0] = (tmp[0] << 8) | tmp[1];
 979:drivers/inv_mpu.c ****     data[1] = (tmp[2] << 8) | tmp[3];
 980:drivers/inv_mpu.c ****     data[2] = (tmp[4] << 8) | tmp[5];
ARM GAS  /tmp/cc18izUm.s 			page 21


 981:drivers/inv_mpu.c ****     if (timestamp)
 982:drivers/inv_mpu.c ****         get_ms(timestamp);
 983:drivers/inv_mpu.c ****     return 0;
 984:drivers/inv_mpu.c **** }
 985:drivers/inv_mpu.c **** 
 986:drivers/inv_mpu.c **** /**
 987:drivers/inv_mpu.c ****  *  @brief      Read raw accel data directly from the registers.
 988:drivers/inv_mpu.c ****  *  @param[out] data        Raw data in hardware units.
 989:drivers/inv_mpu.c ****  *  @param[out] timestamp   Timestamp in milliseconds. Null if not needed.
 990:drivers/inv_mpu.c ****  *  @return     0 if successful.
 991:drivers/inv_mpu.c ****  */
 992:drivers/inv_mpu.c **** int mpu_get_accel_reg(short *data, unsigned long *timestamp)
 993:drivers/inv_mpu.c **** {
 994:drivers/inv_mpu.c ****     unsigned char tmp[6];
 995:drivers/inv_mpu.c **** 
 996:drivers/inv_mpu.c ****     if (!(st.chip_cfg.sensors & INV_XYZ_ACCEL))
 997:drivers/inv_mpu.c ****         return -1;
 998:drivers/inv_mpu.c **** 
 999:drivers/inv_mpu.c ****     if (I2C_Read(st.hw->addr, st.reg->raw_accel, 6, tmp))
1000:drivers/inv_mpu.c ****         return -1;
1001:drivers/inv_mpu.c ****     data[0] = (tmp[0] << 8) | tmp[1];
1002:drivers/inv_mpu.c ****     data[1] = (tmp[2] << 8) | tmp[3];
1003:drivers/inv_mpu.c ****     data[2] = (tmp[4] << 8) | tmp[5];
1004:drivers/inv_mpu.c ****     if (timestamp)
1005:drivers/inv_mpu.c ****         get_ms(timestamp);
1006:drivers/inv_mpu.c ****     return 0;
1007:drivers/inv_mpu.c **** }
1008:drivers/inv_mpu.c **** 
1009:drivers/inv_mpu.c **** /**
1010:drivers/inv_mpu.c ****  *  @brief      Read temperature data directly from the registers.
1011:drivers/inv_mpu.c ****  *  @param[out] data        Data in q16 format.
1012:drivers/inv_mpu.c ****  *  @param[out] timestamp   Timestamp in milliseconds. Null if not needed.
1013:drivers/inv_mpu.c ****  *  @return     0 if successful.
1014:drivers/inv_mpu.c ****  */
1015:drivers/inv_mpu.c **** int mpu_get_temperature(long *data, unsigned long *timestamp)
1016:drivers/inv_mpu.c **** {
1017:drivers/inv_mpu.c ****     unsigned char tmp[2];
1018:drivers/inv_mpu.c ****     short raw;
1019:drivers/inv_mpu.c **** 
1020:drivers/inv_mpu.c ****     if (!(st.chip_cfg.sensors))
1021:drivers/inv_mpu.c ****         return -1;
1022:drivers/inv_mpu.c **** 
1023:drivers/inv_mpu.c ****     if (I2C_Read(st.hw->addr, st.reg->temp, 2, tmp))
1024:drivers/inv_mpu.c ****         return -1;
1025:drivers/inv_mpu.c ****     raw = (tmp[0] << 8) | tmp[1];
1026:drivers/inv_mpu.c ****     if (timestamp)
1027:drivers/inv_mpu.c ****         get_ms(timestamp);
1028:drivers/inv_mpu.c **** 
1029:drivers/inv_mpu.c ****     data[0] = (long)((35 + ((raw - (float)st.hw->temp_offset) / st.hw->temp_sens)) * 65536L);
1030:drivers/inv_mpu.c ****     return 0;
1031:drivers/inv_mpu.c **** }
1032:drivers/inv_mpu.c **** 
1033:drivers/inv_mpu.c **** /**
1034:drivers/inv_mpu.c ****  *  @brief      Push biases to the accel bias registers.
1035:drivers/inv_mpu.c ****  *  This function expects biases relative to the current sensor output, and
1036:drivers/inv_mpu.c ****  *  these biases will be added to the factory-supplied values.
1037:drivers/inv_mpu.c ****  *  @param[in]  accel_bias  New biases.
ARM GAS  /tmp/cc18izUm.s 			page 22


1038:drivers/inv_mpu.c ****  *  @return     0 if successful.
1039:drivers/inv_mpu.c ****  */
1040:drivers/inv_mpu.c **** int mpu_set_accel_bias(const long *accel_bias)
1041:drivers/inv_mpu.c **** {
1042:drivers/inv_mpu.c ****     unsigned char data[6];
1043:drivers/inv_mpu.c ****     short accel_hw[3];
1044:drivers/inv_mpu.c ****     short got_accel[3];
1045:drivers/inv_mpu.c ****     short fg[3];
1046:drivers/inv_mpu.c **** 
1047:drivers/inv_mpu.c ****     if (!accel_bias)
1048:drivers/inv_mpu.c ****         return -1;
1049:drivers/inv_mpu.c ****     if (!accel_bias[0] && !accel_bias[1] && !accel_bias[2])
1050:drivers/inv_mpu.c ****         return 0;
1051:drivers/inv_mpu.c **** 
1052:drivers/inv_mpu.c ****     if (I2C_Read(st.hw->addr, 3, 3, data))
1053:drivers/inv_mpu.c ****         return -1;
1054:drivers/inv_mpu.c ****     fg[0] = ((data[0] >> 4) + 8) & 0xf;
1055:drivers/inv_mpu.c ****     fg[1] = ((data[1] >> 4) + 8) & 0xf;
1056:drivers/inv_mpu.c ****     fg[2] = ((data[2] >> 4) + 8) & 0xf;
1057:drivers/inv_mpu.c **** 
1058:drivers/inv_mpu.c ****     accel_hw[0] = (short)(accel_bias[0] * 2 / (64 + fg[0]));
1059:drivers/inv_mpu.c ****     accel_hw[1] = (short)(accel_bias[1] * 2 / (64 + fg[1]));
1060:drivers/inv_mpu.c ****     accel_hw[2] = (short)(accel_bias[2] * 2 / (64 + fg[2]));
1061:drivers/inv_mpu.c **** 
1062:drivers/inv_mpu.c ****     if (I2C_Read(st.hw->addr, 0x06, 6, data))
1063:drivers/inv_mpu.c ****         return -1;
1064:drivers/inv_mpu.c **** 
1065:drivers/inv_mpu.c ****     got_accel[0] = ((short)data[0] << 8) | data[1];
1066:drivers/inv_mpu.c ****     got_accel[1] = ((short)data[2] << 8) | data[3];
1067:drivers/inv_mpu.c ****     got_accel[2] = ((short)data[4] << 8) | data[5];
1068:drivers/inv_mpu.c **** 
1069:drivers/inv_mpu.c ****     accel_hw[0] += got_accel[0];
1070:drivers/inv_mpu.c ****     accel_hw[1] += got_accel[1];
1071:drivers/inv_mpu.c ****     accel_hw[2] += got_accel[2];
1072:drivers/inv_mpu.c **** 
1073:drivers/inv_mpu.c ****     data[0] = (accel_hw[0] >> 8) & 0xff;
1074:drivers/inv_mpu.c ****     data[1] = (accel_hw[0]) & 0xff;
1075:drivers/inv_mpu.c ****     data[2] = (accel_hw[1] >> 8) & 0xff;
1076:drivers/inv_mpu.c ****     data[3] = (accel_hw[1]) & 0xff;
1077:drivers/inv_mpu.c ****     data[4] = (accel_hw[2] >> 8) & 0xff;
1078:drivers/inv_mpu.c ****     data[5] = (accel_hw[2]) & 0xff;
1079:drivers/inv_mpu.c **** 
1080:drivers/inv_mpu.c ****     if (I2C_Write(st.hw->addr, 0x06, 6, data))
1081:drivers/inv_mpu.c ****         return -1;
1082:drivers/inv_mpu.c ****     return 0;
1083:drivers/inv_mpu.c **** }
1084:drivers/inv_mpu.c **** 
1085:drivers/inv_mpu.c **** /**
1086:drivers/inv_mpu.c ****  *  @brief  Reset FIFO read/write pointers.
1087:drivers/inv_mpu.c ****  *  @return 0 if successful.
1088:drivers/inv_mpu.c ****  */
1089:drivers/inv_mpu.c **** int mpu_reset_fifo(void)
1090:drivers/inv_mpu.c **** {
1091:drivers/inv_mpu.c ****     unsigned char data;
1092:drivers/inv_mpu.c **** 
1093:drivers/inv_mpu.c ****     if (!(st.chip_cfg.sensors))
1094:drivers/inv_mpu.c ****         return -1;
ARM GAS  /tmp/cc18izUm.s 			page 23


1095:drivers/inv_mpu.c **** 
1096:drivers/inv_mpu.c ****     data = 0;
1097:drivers/inv_mpu.c ****     if (I2C_Write(st.hw->addr, st.reg->int_enable, 1, &data))
1098:drivers/inv_mpu.c ****         return -1;
1099:drivers/inv_mpu.c ****     if (I2C_Write(st.hw->addr, st.reg->fifo_en, 1, &data))
1100:drivers/inv_mpu.c ****         return -1;
1101:drivers/inv_mpu.c ****     if (I2C_Write(st.hw->addr, st.reg->user_ctrl, 1, &data))
1102:drivers/inv_mpu.c ****         return -1;
1103:drivers/inv_mpu.c **** 
1104:drivers/inv_mpu.c ****     if (st.chip_cfg.dmp_on) {
1105:drivers/inv_mpu.c ****         data = BIT_FIFO_RST | BIT_DMP_RST;
1106:drivers/inv_mpu.c ****         if (I2C_Write(st.hw->addr, st.reg->user_ctrl, 1, &data))
1107:drivers/inv_mpu.c ****             return -1;
1108:drivers/inv_mpu.c ****        
1109:drivers/inv_mpu.c ****         data = BIT_DMP_EN | BIT_FIFO_EN;
1110:drivers/inv_mpu.c ****         if (st.chip_cfg.sensors & INV_XYZ_COMPASS)
1111:drivers/inv_mpu.c ****             data |= BIT_AUX_IF_EN;
1112:drivers/inv_mpu.c ****         if (I2C_Write(st.hw->addr, st.reg->user_ctrl, 1, &data))
1113:drivers/inv_mpu.c ****             return -1;
1114:drivers/inv_mpu.c ****         if (st.chip_cfg.int_enable)
1115:drivers/inv_mpu.c ****             data = BIT_DMP_INT_EN;
1116:drivers/inv_mpu.c ****         else
1117:drivers/inv_mpu.c ****             data = 0;
1118:drivers/inv_mpu.c ****         if (I2C_Write(st.hw->addr, st.reg->int_enable, 1, &data))
1119:drivers/inv_mpu.c ****             return -1;
1120:drivers/inv_mpu.c ****         data = 0;
1121:drivers/inv_mpu.c ****         if (I2C_Write(st.hw->addr, st.reg->fifo_en, 1, &data))
1122:drivers/inv_mpu.c ****             return -1;
1123:drivers/inv_mpu.c ****     } else {
1124:drivers/inv_mpu.c ****         data = BIT_FIFO_RST;
1125:drivers/inv_mpu.c ****         if (I2C_Write(st.hw->addr, st.reg->user_ctrl, 1, &data))
1126:drivers/inv_mpu.c ****             return -1;
1127:drivers/inv_mpu.c ****         if (st.chip_cfg.bypass_mode || !(st.chip_cfg.sensors & INV_XYZ_COMPASS))
1128:drivers/inv_mpu.c ****             data = BIT_FIFO_EN;
1129:drivers/inv_mpu.c ****         else
1130:drivers/inv_mpu.c ****             data = BIT_FIFO_EN | BIT_AUX_IF_EN;
1131:drivers/inv_mpu.c ****         if (I2C_Write(st.hw->addr, st.reg->user_ctrl, 1, &data))
1132:drivers/inv_mpu.c ****             return -1;
1133:drivers/inv_mpu.c ****     
1134:drivers/inv_mpu.c ****         if (st.chip_cfg.int_enable)
1135:drivers/inv_mpu.c ****             data = BIT_DATA_RDY_EN;
1136:drivers/inv_mpu.c ****         else
1137:drivers/inv_mpu.c ****             data = 0;
1138:drivers/inv_mpu.c ****         if (I2C_Write(st.hw->addr, st.reg->int_enable, 1, &data))
1139:drivers/inv_mpu.c ****             return -1;
1140:drivers/inv_mpu.c ****         if (I2C_Write(st.hw->addr, st.reg->fifo_en, 1, &st.chip_cfg.fifo_enable))
1141:drivers/inv_mpu.c ****             return -1;
1142:drivers/inv_mpu.c ****     }
1143:drivers/inv_mpu.c ****     return 0;
1144:drivers/inv_mpu.c **** }
1145:drivers/inv_mpu.c **** 
1146:drivers/inv_mpu.c **** /**
1147:drivers/inv_mpu.c ****  *  @brief      Get the gyro full-scale range.
1148:drivers/inv_mpu.c ****  *  @param[out] fsr Current full-scale range.
1149:drivers/inv_mpu.c ****  *  @return     0 if successful.
1150:drivers/inv_mpu.c ****  */
1151:drivers/inv_mpu.c **** int mpu_get_gyro_fsr(unsigned short *fsr)
ARM GAS  /tmp/cc18izUm.s 			page 24


1152:drivers/inv_mpu.c **** {
1153:drivers/inv_mpu.c ****     switch (st.chip_cfg.gyro_fsr) {
1154:drivers/inv_mpu.c ****     case INV_FSR_250DPS:
1155:drivers/inv_mpu.c ****         fsr[0] = 250;
1156:drivers/inv_mpu.c ****         break;
1157:drivers/inv_mpu.c ****     case INV_FSR_500DPS:
1158:drivers/inv_mpu.c ****         fsr[0] = 500;
1159:drivers/inv_mpu.c ****         break;
1160:drivers/inv_mpu.c ****     case INV_FSR_1000DPS:
1161:drivers/inv_mpu.c ****         fsr[0] = 1000;
1162:drivers/inv_mpu.c ****         break;
1163:drivers/inv_mpu.c ****     case INV_FSR_2000DPS:
1164:drivers/inv_mpu.c ****         fsr[0] = 2000;
1165:drivers/inv_mpu.c ****         break;
1166:drivers/inv_mpu.c ****     default:
1167:drivers/inv_mpu.c ****         fsr[0] = 0;
1168:drivers/inv_mpu.c ****         break;
1169:drivers/inv_mpu.c ****     }
1170:drivers/inv_mpu.c ****     return 0;
1171:drivers/inv_mpu.c **** }
1172:drivers/inv_mpu.c **** 
1173:drivers/inv_mpu.c **** /**
1174:drivers/inv_mpu.c ****  *  @brief      Set the gyro full-scale range.
1175:drivers/inv_mpu.c ****  *  @param[in]  fsr Desired full-scale range.
1176:drivers/inv_mpu.c ****  *  @return     0 if successful.
1177:drivers/inv_mpu.c ****  */
1178:drivers/inv_mpu.c **** int mpu_set_gyro_fsr(unsigned short fsr)
1179:drivers/inv_mpu.c **** {
1180:drivers/inv_mpu.c ****     unsigned char data;
1181:drivers/inv_mpu.c **** 
1182:drivers/inv_mpu.c ****     if (!(st.chip_cfg.sensors))
1183:drivers/inv_mpu.c ****         return -1;
1184:drivers/inv_mpu.c **** 
1185:drivers/inv_mpu.c ****     switch (fsr) {
1186:drivers/inv_mpu.c ****     case 250:
1187:drivers/inv_mpu.c ****         data = INV_FSR_250DPS << 3;
1188:drivers/inv_mpu.c ****         break;
1189:drivers/inv_mpu.c ****     case 500:
1190:drivers/inv_mpu.c ****         data = INV_FSR_500DPS << 3;
1191:drivers/inv_mpu.c ****         break;
1192:drivers/inv_mpu.c ****     case 1000:
1193:drivers/inv_mpu.c ****         data = INV_FSR_1000DPS << 3;
1194:drivers/inv_mpu.c ****         break;
1195:drivers/inv_mpu.c ****     case 2000:
1196:drivers/inv_mpu.c ****         data = INV_FSR_2000DPS << 3;
1197:drivers/inv_mpu.c ****         break;
1198:drivers/inv_mpu.c ****     default:
1199:drivers/inv_mpu.c ****         return -1;
1200:drivers/inv_mpu.c ****     }
1201:drivers/inv_mpu.c **** 
1202:drivers/inv_mpu.c ****     if (st.chip_cfg.gyro_fsr == (data >> 3))
1203:drivers/inv_mpu.c ****         return 0;
1204:drivers/inv_mpu.c ****     if (I2C_Write(st.hw->addr, st.reg->gyro_cfg, 1, &data))
1205:drivers/inv_mpu.c ****         return -1;
1206:drivers/inv_mpu.c ****     st.chip_cfg.gyro_fsr = data >> 3;
1207:drivers/inv_mpu.c ****     return 0;
1208:drivers/inv_mpu.c **** }
ARM GAS  /tmp/cc18izUm.s 			page 25


1209:drivers/inv_mpu.c **** 
1210:drivers/inv_mpu.c **** /**
1211:drivers/inv_mpu.c ****  *  @brief      Get the accel full-scale range.
1212:drivers/inv_mpu.c ****  *  @param[out] fsr Current full-scale range.
1213:drivers/inv_mpu.c ****  *  @return     0 if successful.
1214:drivers/inv_mpu.c ****  */
1215:drivers/inv_mpu.c **** int mpu_get_accel_fsr(unsigned char *fsr)
1216:drivers/inv_mpu.c **** {
1217:drivers/inv_mpu.c ****     switch (st.chip_cfg.accel_fsr) {
1218:drivers/inv_mpu.c ****     case INV_FSR_2G:
1219:drivers/inv_mpu.c ****         fsr[0] = 2;
1220:drivers/inv_mpu.c ****         break;
1221:drivers/inv_mpu.c ****     case INV_FSR_4G:
1222:drivers/inv_mpu.c ****         fsr[0] = 4;
1223:drivers/inv_mpu.c ****         break;
1224:drivers/inv_mpu.c ****     case INV_FSR_8G:
1225:drivers/inv_mpu.c ****         fsr[0] = 8;
1226:drivers/inv_mpu.c ****         break;
1227:drivers/inv_mpu.c ****     case INV_FSR_16G:
1228:drivers/inv_mpu.c ****         fsr[0] = 16;
1229:drivers/inv_mpu.c ****         break;
1230:drivers/inv_mpu.c ****     default:
1231:drivers/inv_mpu.c ****         return -1;
1232:drivers/inv_mpu.c ****     }
1233:drivers/inv_mpu.c ****     if (st.chip_cfg.accel_half)
1234:drivers/inv_mpu.c ****         fsr[0] <<= 1;
1235:drivers/inv_mpu.c ****     return 0;
1236:drivers/inv_mpu.c **** }
1237:drivers/inv_mpu.c **** 
1238:drivers/inv_mpu.c **** /**
1239:drivers/inv_mpu.c ****  *  @brief      Set the accel full-scale range.
1240:drivers/inv_mpu.c ****  *  @param[in]  fsr Desired full-scale range.
1241:drivers/inv_mpu.c ****  *  @return     0 if successful.
1242:drivers/inv_mpu.c ****  */
1243:drivers/inv_mpu.c **** int mpu_set_accel_fsr(unsigned char fsr)
1244:drivers/inv_mpu.c **** {
1245:drivers/inv_mpu.c ****     unsigned char data;
1246:drivers/inv_mpu.c **** 
1247:drivers/inv_mpu.c ****     if (!(st.chip_cfg.sensors))
1248:drivers/inv_mpu.c ****         return -1;
1249:drivers/inv_mpu.c **** 
1250:drivers/inv_mpu.c ****     switch (fsr) {
1251:drivers/inv_mpu.c ****     case 2:
1252:drivers/inv_mpu.c ****         data = INV_FSR_2G << 3;
1253:drivers/inv_mpu.c ****         break;
1254:drivers/inv_mpu.c ****     case 4:
1255:drivers/inv_mpu.c ****         data = INV_FSR_4G << 3;
1256:drivers/inv_mpu.c ****         break;
1257:drivers/inv_mpu.c ****     case 8:
1258:drivers/inv_mpu.c ****         data = INV_FSR_8G << 3;
1259:drivers/inv_mpu.c ****         break;
1260:drivers/inv_mpu.c ****     case 16:
1261:drivers/inv_mpu.c ****         data = INV_FSR_16G << 3;
1262:drivers/inv_mpu.c ****         break;
1263:drivers/inv_mpu.c ****     default:
1264:drivers/inv_mpu.c ****         return -1;
1265:drivers/inv_mpu.c ****     }
ARM GAS  /tmp/cc18izUm.s 			page 26


1266:drivers/inv_mpu.c **** 
1267:drivers/inv_mpu.c ****     if (st.chip_cfg.accel_fsr == (data >> 3))
1268:drivers/inv_mpu.c ****         return 0;
1269:drivers/inv_mpu.c ****     if (I2C_Write(st.hw->addr, st.reg->accel_cfg, 1, &data))
1270:drivers/inv_mpu.c ****         return -1;
1271:drivers/inv_mpu.c ****     st.chip_cfg.accel_fsr = data >> 3;
1272:drivers/inv_mpu.c ****     return 0;
1273:drivers/inv_mpu.c **** }
1274:drivers/inv_mpu.c **** 
1275:drivers/inv_mpu.c **** /**
1276:drivers/inv_mpu.c ****  *  @brief      Get the current DLPF setting.
1277:drivers/inv_mpu.c ****  *  @param[out] lpf Current LPF setting.
1278:drivers/inv_mpu.c ****  *  0 if successful.
1279:drivers/inv_mpu.c ****  */
1280:drivers/inv_mpu.c **** int mpu_get_lpf(unsigned short *lpf)
1281:drivers/inv_mpu.c **** {
1282:drivers/inv_mpu.c ****     switch (st.chip_cfg.lpf) {
1283:drivers/inv_mpu.c ****     case INV_FILTER_188HZ:
1284:drivers/inv_mpu.c ****         lpf[0] = 188;
1285:drivers/inv_mpu.c ****         break;
1286:drivers/inv_mpu.c ****     case INV_FILTER_98HZ:
1287:drivers/inv_mpu.c ****         lpf[0] = 98;
1288:drivers/inv_mpu.c ****         break;
1289:drivers/inv_mpu.c ****     case INV_FILTER_42HZ:
1290:drivers/inv_mpu.c ****         lpf[0] = 42;
1291:drivers/inv_mpu.c ****         break;
1292:drivers/inv_mpu.c ****     case INV_FILTER_20HZ:
1293:drivers/inv_mpu.c ****         lpf[0] = 20;
1294:drivers/inv_mpu.c ****         break;
1295:drivers/inv_mpu.c ****     case INV_FILTER_10HZ:
1296:drivers/inv_mpu.c ****         lpf[0] = 10;
1297:drivers/inv_mpu.c ****         break;
1298:drivers/inv_mpu.c ****     case INV_FILTER_5HZ:
1299:drivers/inv_mpu.c ****         lpf[0] = 5;
1300:drivers/inv_mpu.c ****         break;
1301:drivers/inv_mpu.c ****     case INV_FILTER_256HZ_NOLPF2:
1302:drivers/inv_mpu.c ****     case INV_FILTER_2100HZ_NOLPF:
1303:drivers/inv_mpu.c ****     default:
1304:drivers/inv_mpu.c ****         lpf[0] = 0;
1305:drivers/inv_mpu.c ****         break;
1306:drivers/inv_mpu.c ****     }
1307:drivers/inv_mpu.c ****     return 0;
1308:drivers/inv_mpu.c **** }
1309:drivers/inv_mpu.c **** 
1310:drivers/inv_mpu.c **** /**
1311:drivers/inv_mpu.c ****  *  @brief      Set digital low pass filter.
1312:drivers/inv_mpu.c ****  *  The following LPF settings are supported: 188, 98, 42, 20, 10, 5.
1313:drivers/inv_mpu.c ****  *  @param[in]  lpf Desired LPF setting.
1314:drivers/inv_mpu.c ****  *  @return     0 if successful.
1315:drivers/inv_mpu.c ****  */
1316:drivers/inv_mpu.c **** int mpu_set_lpf(unsigned short lpf)
1317:drivers/inv_mpu.c **** {
1318:drivers/inv_mpu.c ****     unsigned char data;
1319:drivers/inv_mpu.c **** 
1320:drivers/inv_mpu.c ****     if (!(st.chip_cfg.sensors))
1321:drivers/inv_mpu.c ****         return -1;
1322:drivers/inv_mpu.c **** 
ARM GAS  /tmp/cc18izUm.s 			page 27


1323:drivers/inv_mpu.c ****     if (lpf >= 188)
1324:drivers/inv_mpu.c ****         data = INV_FILTER_188HZ;
1325:drivers/inv_mpu.c ****     else if (lpf >= 98)
1326:drivers/inv_mpu.c ****         data = INV_FILTER_98HZ;
1327:drivers/inv_mpu.c ****     else if (lpf >= 42)
1328:drivers/inv_mpu.c ****         data = INV_FILTER_42HZ;
1329:drivers/inv_mpu.c ****     else if (lpf >= 20)
1330:drivers/inv_mpu.c ****         data = INV_FILTER_20HZ;
1331:drivers/inv_mpu.c ****     else if (lpf >= 10)
1332:drivers/inv_mpu.c ****         data = INV_FILTER_10HZ;
1333:drivers/inv_mpu.c ****     else
1334:drivers/inv_mpu.c ****         data = INV_FILTER_5HZ;
1335:drivers/inv_mpu.c **** 
1336:drivers/inv_mpu.c ****     if (st.chip_cfg.lpf == data)
1337:drivers/inv_mpu.c ****         return 0;
1338:drivers/inv_mpu.c ****     if (I2C_Write(st.hw->addr, st.reg->lpf, 1, &data))
1339:drivers/inv_mpu.c ****         return -1;
1340:drivers/inv_mpu.c ****     st.chip_cfg.lpf = data;
1341:drivers/inv_mpu.c ****     return 0;
1342:drivers/inv_mpu.c **** }
1343:drivers/inv_mpu.c **** 
1344:drivers/inv_mpu.c **** /**
1345:drivers/inv_mpu.c ****  *  @brief      Get sampling rate.
1346:drivers/inv_mpu.c ****  *  @param[out] rate    Current sampling rate (Hz).
1347:drivers/inv_mpu.c ****  *  @return     0 if successful.
1348:drivers/inv_mpu.c ****  */
1349:drivers/inv_mpu.c **** int mpu_get_sample_rate(unsigned short *rate)
1350:drivers/inv_mpu.c **** {
1351:drivers/inv_mpu.c ****     if (st.chip_cfg.dmp_on)
1352:drivers/inv_mpu.c ****         return -1;
1353:drivers/inv_mpu.c ****     else
1354:drivers/inv_mpu.c ****         rate[0] = st.chip_cfg.sample_rate;
1355:drivers/inv_mpu.c ****     return 0;
1356:drivers/inv_mpu.c **** }
1357:drivers/inv_mpu.c **** 
1358:drivers/inv_mpu.c **** /**
1359:drivers/inv_mpu.c ****  *  @brief      Set sampling rate.
1360:drivers/inv_mpu.c ****  *  Sampling rate must be between 4Hz and 1kHz.
1361:drivers/inv_mpu.c ****  *  @param[in]  rate    Desired sampling rate (Hz).
1362:drivers/inv_mpu.c ****  *  @return     0 if successful.
1363:drivers/inv_mpu.c ****  */
1364:drivers/inv_mpu.c **** int mpu_set_sample_rate(unsigned short rate)
1365:drivers/inv_mpu.c **** {
1366:drivers/inv_mpu.c ****     unsigned char data;
1367:drivers/inv_mpu.c **** 
1368:drivers/inv_mpu.c ****     if (!(st.chip_cfg.sensors))
1369:drivers/inv_mpu.c ****         return -1;
1370:drivers/inv_mpu.c **** 
1371:drivers/inv_mpu.c ****     if (st.chip_cfg.dmp_on)
1372:drivers/inv_mpu.c ****         return -1;
1373:drivers/inv_mpu.c ****     else {
1374:drivers/inv_mpu.c ****         if (st.chip_cfg.lp_accel_mode) {
1375:drivers/inv_mpu.c ****             if (rate && (rate <= 40)) {
1376:drivers/inv_mpu.c ****                 /* Just stay in low-power accel mode. */
1377:drivers/inv_mpu.c ****                 mpu_lp_accel_mode(rate);
1378:drivers/inv_mpu.c ****                 return 0;
1379:drivers/inv_mpu.c ****             }
ARM GAS  /tmp/cc18izUm.s 			page 28


1380:drivers/inv_mpu.c ****             /* Requested rate exceeds the allowed frequencies in LP accel mode,
1381:drivers/inv_mpu.c ****              * switch back to full-power mode.
1382:drivers/inv_mpu.c ****              */
1383:drivers/inv_mpu.c ****             mpu_lp_accel_mode(0);
1384:drivers/inv_mpu.c ****         }
1385:drivers/inv_mpu.c ****         if (rate < 4)
1386:drivers/inv_mpu.c ****             rate = 4;
1387:drivers/inv_mpu.c ****         else if (rate > 1000)
1388:drivers/inv_mpu.c ****             rate = 1000;
1389:drivers/inv_mpu.c **** 
1390:drivers/inv_mpu.c ****         data = 1000 / rate - 1;
1391:drivers/inv_mpu.c ****         if (I2C_Write(st.hw->addr, st.reg->rate_div, 1, &data))
1392:drivers/inv_mpu.c ****             return -1;
1393:drivers/inv_mpu.c **** 
1394:drivers/inv_mpu.c ****         st.chip_cfg.sample_rate = 1000 / (1 + data);
1395:drivers/inv_mpu.c **** 
1396:drivers/inv_mpu.c **** #ifdef AK89xx_SECONDARY
1397:drivers/inv_mpu.c ****         mpu_set_compass_sample_rate(min(st.chip_cfg.compass_sample_rate, MAX_COMPASS_SAMPLE_RATE));
1398:drivers/inv_mpu.c **** #endif
1399:drivers/inv_mpu.c **** 
1400:drivers/inv_mpu.c ****         /* Automatically set LPF to 1/2 sampling rate. */
1401:drivers/inv_mpu.c ****         mpu_set_lpf(st.chip_cfg.sample_rate >> 1);
1402:drivers/inv_mpu.c ****         return 0;
1403:drivers/inv_mpu.c ****     }
1404:drivers/inv_mpu.c **** }
1405:drivers/inv_mpu.c **** 
1406:drivers/inv_mpu.c **** /**
1407:drivers/inv_mpu.c ****  *  @brief      Get compass sampling rate.
1408:drivers/inv_mpu.c ****  *  @param[out] rate    Current compass sampling rate (Hz).
1409:drivers/inv_mpu.c ****  *  @return     0 if successful.
1410:drivers/inv_mpu.c ****  */
1411:drivers/inv_mpu.c **** int mpu_get_compass_sample_rate(unsigned short *rate)
1412:drivers/inv_mpu.c **** {
1413:drivers/inv_mpu.c **** #ifdef AK89xx_SECONDARY
1414:drivers/inv_mpu.c ****     rate[0] = st.chip_cfg.compass_sample_rate;
1415:drivers/inv_mpu.c ****     return 0;
1416:drivers/inv_mpu.c **** #else
1417:drivers/inv_mpu.c ****     rate[0] = 0;
1418:drivers/inv_mpu.c ****     return -1;
1419:drivers/inv_mpu.c **** #endif
1420:drivers/inv_mpu.c **** }
1421:drivers/inv_mpu.c **** 
1422:drivers/inv_mpu.c **** /**
1423:drivers/inv_mpu.c ****  *  @brief      Set compass sampling rate.
1424:drivers/inv_mpu.c ****  *  The compass on the auxiliary I2C bus is read by the MPU hardware at a
1425:drivers/inv_mpu.c ****  *  maximum of 100Hz. The actual rate can be set to a fraction of the gyro
1426:drivers/inv_mpu.c ****  *  sampling rate.
1427:drivers/inv_mpu.c ****  *
1428:drivers/inv_mpu.c ****  *  \n WARNING: The new rate may be different than what was requested. Call
1429:drivers/inv_mpu.c ****  *  mpu_get_compass_sample_rate to check the actual setting.
1430:drivers/inv_mpu.c ****  *  @param[in]  rate    Desired compass sampling rate (Hz).
1431:drivers/inv_mpu.c ****  *  @return     0 if successful.
1432:drivers/inv_mpu.c ****  */
1433:drivers/inv_mpu.c **** int mpu_set_compass_sample_rate(unsigned short rate)
1434:drivers/inv_mpu.c **** {
1435:drivers/inv_mpu.c **** #ifdef AK89xx_SECONDARY
1436:drivers/inv_mpu.c ****     unsigned char div;
ARM GAS  /tmp/cc18izUm.s 			page 29


1437:drivers/inv_mpu.c ****     if (!rate || rate > st.chip_cfg.sample_rate || rate > MAX_COMPASS_SAMPLE_RATE)
1438:drivers/inv_mpu.c ****         return -1;
1439:drivers/inv_mpu.c **** 
1440:drivers/inv_mpu.c ****     div = st.chip_cfg.sample_rate / rate - 1;
1441:drivers/inv_mpu.c ****     if (I2C_Write(st.hw->addr, st.reg->s4_ctrl, 1, &div))
1442:drivers/inv_mpu.c ****         return -1;
1443:drivers/inv_mpu.c ****     st.chip_cfg.compass_sample_rate = st.chip_cfg.sample_rate / (div + 1);
1444:drivers/inv_mpu.c ****     return 0;
1445:drivers/inv_mpu.c **** #else
1446:drivers/inv_mpu.c ****     return -1;
1447:drivers/inv_mpu.c **** #endif
1448:drivers/inv_mpu.c **** }
1449:drivers/inv_mpu.c **** 
1450:drivers/inv_mpu.c **** /**
1451:drivers/inv_mpu.c ****  *  @brief      Get gyro sensitivity scale factor.
1452:drivers/inv_mpu.c ****  *  @param[out] sens    Conversion from hardware units to dps.
1453:drivers/inv_mpu.c ****  *  @return     0 if successful.
1454:drivers/inv_mpu.c ****  */
1455:drivers/inv_mpu.c **** int mpu_get_gyro_sens(float *sens)
1456:drivers/inv_mpu.c **** {
1457:drivers/inv_mpu.c ****     switch (st.chip_cfg.gyro_fsr) {
1458:drivers/inv_mpu.c ****     case INV_FSR_250DPS:
1459:drivers/inv_mpu.c ****         sens[0] = 131.f;
1460:drivers/inv_mpu.c ****         break;
1461:drivers/inv_mpu.c ****     case INV_FSR_500DPS:
1462:drivers/inv_mpu.c ****         sens[0] = 65.5f;
1463:drivers/inv_mpu.c ****         break;
1464:drivers/inv_mpu.c ****     case INV_FSR_1000DPS:
1465:drivers/inv_mpu.c ****         sens[0] = 32.8f;
1466:drivers/inv_mpu.c ****         break;
1467:drivers/inv_mpu.c ****     case INV_FSR_2000DPS:
1468:drivers/inv_mpu.c ****         sens[0] = 16.4f;
1469:drivers/inv_mpu.c ****         break;
1470:drivers/inv_mpu.c ****     default:
1471:drivers/inv_mpu.c ****         return -1;
1472:drivers/inv_mpu.c ****     }
1473:drivers/inv_mpu.c ****     return 0;
1474:drivers/inv_mpu.c **** }
1475:drivers/inv_mpu.c **** 
1476:drivers/inv_mpu.c **** /**
1477:drivers/inv_mpu.c ****  *  @brief      Get accel sensitivity scale factor.
1478:drivers/inv_mpu.c ****  *  @param[out] sens    Conversion from hardware units to g's.
1479:drivers/inv_mpu.c ****  *  @return     0 if successful.
1480:drivers/inv_mpu.c ****  */
1481:drivers/inv_mpu.c **** int mpu_get_accel_sens(unsigned short *sens)
1482:drivers/inv_mpu.c **** {
1483:drivers/inv_mpu.c ****     switch (st.chip_cfg.accel_fsr) {
1484:drivers/inv_mpu.c ****     case INV_FSR_2G:
1485:drivers/inv_mpu.c ****         sens[0] = 16384;
1486:drivers/inv_mpu.c ****         break;
1487:drivers/inv_mpu.c ****     case INV_FSR_4G:
1488:drivers/inv_mpu.c ****         sens[0] = 8092;
1489:drivers/inv_mpu.c ****         break;
1490:drivers/inv_mpu.c ****     case INV_FSR_8G:
1491:drivers/inv_mpu.c ****         sens[0] = 4096;
1492:drivers/inv_mpu.c ****         break;
1493:drivers/inv_mpu.c ****     case INV_FSR_16G:
ARM GAS  /tmp/cc18izUm.s 			page 30


1494:drivers/inv_mpu.c ****         sens[0] = 2048;
1495:drivers/inv_mpu.c ****         break;
1496:drivers/inv_mpu.c ****     default:
1497:drivers/inv_mpu.c ****         return -1;
1498:drivers/inv_mpu.c ****     }
1499:drivers/inv_mpu.c ****     if (st.chip_cfg.accel_half)
1500:drivers/inv_mpu.c ****         sens[0] >>= 1;
1501:drivers/inv_mpu.c ****     return 0;
1502:drivers/inv_mpu.c **** }
1503:drivers/inv_mpu.c **** 
1504:drivers/inv_mpu.c **** /**
1505:drivers/inv_mpu.c ****  *  @brief      Get current FIFO configuration.
1506:drivers/inv_mpu.c ****  *  @e sensors can contain a combination of the following flags:
1507:drivers/inv_mpu.c ****  *  \n INV_X_GYRO, INV_Y_GYRO, INV_Z_GYRO
1508:drivers/inv_mpu.c ****  *  \n INV_XYZ_GYRO
1509:drivers/inv_mpu.c ****  *  \n INV_XYZ_ACCEL
1510:drivers/inv_mpu.c ****  *  @param[out] sensors Mask of sensors in FIFO.
1511:drivers/inv_mpu.c ****  *  @return     0 if successful.
1512:drivers/inv_mpu.c ****  */
1513:drivers/inv_mpu.c **** int mpu_get_fifo_config(unsigned char *sensors)
1514:drivers/inv_mpu.c **** {
1515:drivers/inv_mpu.c ****     sensors[0] = st.chip_cfg.fifo_enable;
1516:drivers/inv_mpu.c ****     return 0;
1517:drivers/inv_mpu.c **** }
1518:drivers/inv_mpu.c **** 
1519:drivers/inv_mpu.c **** /**
1520:drivers/inv_mpu.c ****  *  @brief      Select which sensors are pushed to FIFO.
1521:drivers/inv_mpu.c ****  *  @e sensors can contain a combination of the following flags:
1522:drivers/inv_mpu.c ****  *  \n INV_X_GYRO, INV_Y_GYRO, INV_Z_GYRO
1523:drivers/inv_mpu.c ****  *  \n INV_XYZ_GYRO
1524:drivers/inv_mpu.c ****  *  \n INV_XYZ_ACCEL
1525:drivers/inv_mpu.c ****  *  @param[in]  sensors Mask of sensors to push to FIFO.
1526:drivers/inv_mpu.c ****  *  @return     0 if successful.
1527:drivers/inv_mpu.c ****  */
1528:drivers/inv_mpu.c **** int mpu_configure_fifo(unsigned char sensors)
1529:drivers/inv_mpu.c **** {
1530:drivers/inv_mpu.c ****     unsigned char prev;
1531:drivers/inv_mpu.c ****     int result = 0;
1532:drivers/inv_mpu.c **** 
1533:drivers/inv_mpu.c ****     /* Compass data isn't going into the FIFO. Stop trying. */
1534:drivers/inv_mpu.c ****     sensors &= ~INV_XYZ_COMPASS;
1535:drivers/inv_mpu.c **** 
1536:drivers/inv_mpu.c ****     if (st.chip_cfg.dmp_on)
1537:drivers/inv_mpu.c ****         return 0;
1538:drivers/inv_mpu.c ****     else {
1539:drivers/inv_mpu.c ****         if (!(st.chip_cfg.sensors))
1540:drivers/inv_mpu.c ****             return -1;
1541:drivers/inv_mpu.c ****         prev = st.chip_cfg.fifo_enable;
1542:drivers/inv_mpu.c ****         st.chip_cfg.fifo_enable = sensors & st.chip_cfg.sensors;
1543:drivers/inv_mpu.c ****         if (st.chip_cfg.fifo_enable != sensors)
1544:drivers/inv_mpu.c ****             /* You're not getting what you asked for. Some sensors are
1545:drivers/inv_mpu.c ****              * asleep.
1546:drivers/inv_mpu.c ****              */
1547:drivers/inv_mpu.c ****             result = -1;
1548:drivers/inv_mpu.c ****         else
1549:drivers/inv_mpu.c ****             result = 0;
1550:drivers/inv_mpu.c ****         if (sensors || st.chip_cfg.lp_accel_mode)
ARM GAS  /tmp/cc18izUm.s 			page 31


1551:drivers/inv_mpu.c ****             set_int_enable(1);
1552:drivers/inv_mpu.c ****         else
1553:drivers/inv_mpu.c ****             set_int_enable(0);
1554:drivers/inv_mpu.c ****         if (sensors) {
1555:drivers/inv_mpu.c ****             if (mpu_reset_fifo()) {
1556:drivers/inv_mpu.c ****                 st.chip_cfg.fifo_enable = prev;
1557:drivers/inv_mpu.c ****                 return -1;
1558:drivers/inv_mpu.c ****             }
1559:drivers/inv_mpu.c ****         }
1560:drivers/inv_mpu.c ****     }
1561:drivers/inv_mpu.c **** 
1562:drivers/inv_mpu.c ****     return result;
1563:drivers/inv_mpu.c **** }
1564:drivers/inv_mpu.c **** 
1565:drivers/inv_mpu.c **** /**
1566:drivers/inv_mpu.c ****  *  @brief      Get current power state.
1567:drivers/inv_mpu.c ****  *  @param[in]  power_on    1 if turned on, 0 if suspended.
1568:drivers/inv_mpu.c ****  *  @return     0 if successful.
1569:drivers/inv_mpu.c ****  */
1570:drivers/inv_mpu.c **** int mpu_get_power_state(unsigned char *power_on)
1571:drivers/inv_mpu.c **** {
1572:drivers/inv_mpu.c ****     if (st.chip_cfg.sensors)
1573:drivers/inv_mpu.c ****         power_on[0] = 1;
1574:drivers/inv_mpu.c ****     else
1575:drivers/inv_mpu.c ****         power_on[0] = 0;
1576:drivers/inv_mpu.c ****     return 0;
1577:drivers/inv_mpu.c **** }
1578:drivers/inv_mpu.c **** 
1579:drivers/inv_mpu.c **** /**
1580:drivers/inv_mpu.c ****  *  @brief      Turn specific sensors on/off.
1581:drivers/inv_mpu.c ****  *  @e sensors can contain a combination of the following flags:
1582:drivers/inv_mpu.c ****  *  \n INV_X_GYRO, INV_Y_GYRO, INV_Z_GYRO
1583:drivers/inv_mpu.c ****  *  \n INV_XYZ_GYRO
1584:drivers/inv_mpu.c ****  *  \n INV_XYZ_ACCEL
1585:drivers/inv_mpu.c ****  *  \n INV_XYZ_COMPASS
1586:drivers/inv_mpu.c ****  *  @param[in]  sensors    Mask of sensors to wake.
1587:drivers/inv_mpu.c ****  *  @return     0 if successful.
1588:drivers/inv_mpu.c ****  */
1589:drivers/inv_mpu.c **** int mpu_set_sensors(unsigned char sensors)
1590:drivers/inv_mpu.c **** {
1591:drivers/inv_mpu.c ****     unsigned char data;
1592:drivers/inv_mpu.c **** #ifdef AK89xx_SECONDARY
1593:drivers/inv_mpu.c ****     unsigned char user_ctrl;
1594:drivers/inv_mpu.c **** #endif
1595:drivers/inv_mpu.c **** 
1596:drivers/inv_mpu.c ****     if (sensors & INV_XYZ_GYRO)
1597:drivers/inv_mpu.c ****         data = INV_CLK_PLL;
1598:drivers/inv_mpu.c ****     else if (sensors)
1599:drivers/inv_mpu.c ****         data = 0;
1600:drivers/inv_mpu.c ****     else
1601:drivers/inv_mpu.c ****         data = BIT_SLEEP;
1602:drivers/inv_mpu.c ****     if (I2C_Write(st.hw->addr, st.reg->pwr_mgmt_1, 1, &data)) {
1603:drivers/inv_mpu.c ****         st.chip_cfg.sensors = 0;
1604:drivers/inv_mpu.c ****         return -1;
1605:drivers/inv_mpu.c ****     }
1606:drivers/inv_mpu.c ****     st.chip_cfg.clk_src = data & ~BIT_SLEEP;
1607:drivers/inv_mpu.c **** 
ARM GAS  /tmp/cc18izUm.s 			page 32


1608:drivers/inv_mpu.c ****     data = 0;
1609:drivers/inv_mpu.c ****     if (!(sensors & INV_X_GYRO))
1610:drivers/inv_mpu.c ****         data |= BIT_STBY_XG;
1611:drivers/inv_mpu.c ****     if (!(sensors & INV_Y_GYRO))
1612:drivers/inv_mpu.c ****         data |= BIT_STBY_YG;
1613:drivers/inv_mpu.c ****     if (!(sensors & INV_Z_GYRO))
1614:drivers/inv_mpu.c ****         data |= BIT_STBY_ZG;
1615:drivers/inv_mpu.c ****     if (!(sensors & INV_XYZ_ACCEL))
1616:drivers/inv_mpu.c ****         data |= BIT_STBY_XYZA;
1617:drivers/inv_mpu.c ****     if (I2C_Write(st.hw->addr, st.reg->pwr_mgmt_2, 1, &data)) {
1618:drivers/inv_mpu.c ****         st.chip_cfg.sensors = 0;
1619:drivers/inv_mpu.c ****         return -1;
1620:drivers/inv_mpu.c ****     }
1621:drivers/inv_mpu.c **** 
1622:drivers/inv_mpu.c ****     if (sensors && (sensors != INV_XYZ_ACCEL))
1623:drivers/inv_mpu.c ****         /* Latched interrupts only used in LP accel mode. */
1624:drivers/inv_mpu.c ****         mpu_set_int_latched(0);
1625:drivers/inv_mpu.c **** 
1626:drivers/inv_mpu.c **** #ifdef AK89xx_SECONDARY
1627:drivers/inv_mpu.c **** #ifdef AK89xx_BYPASS
1628:drivers/inv_mpu.c ****     if (sensors & INV_XYZ_COMPASS)
1629:drivers/inv_mpu.c ****         mpu_set_bypass(1);
1630:drivers/inv_mpu.c ****     else
1631:drivers/inv_mpu.c ****         mpu_set_bypass(0);
1632:drivers/inv_mpu.c **** #else
1633:drivers/inv_mpu.c ****     if (I2C_Read(st.hw->addr, st.reg->user_ctrl, 1, &user_ctrl))
1634:drivers/inv_mpu.c ****         return -1;
1635:drivers/inv_mpu.c ****     /* Handle AKM power management. */
1636:drivers/inv_mpu.c ****     if (sensors & INV_XYZ_COMPASS) {
1637:drivers/inv_mpu.c ****         data = AKM_SINGLE_MEASUREMENT;
1638:drivers/inv_mpu.c ****         user_ctrl |= BIT_AUX_IF_EN;
1639:drivers/inv_mpu.c ****     } else {
1640:drivers/inv_mpu.c ****         data = AKM_POWER_DOWN;
1641:drivers/inv_mpu.c ****         user_ctrl &= ~BIT_AUX_IF_EN;
1642:drivers/inv_mpu.c ****     }
1643:drivers/inv_mpu.c ****     if (st.chip_cfg.dmp_on)
1644:drivers/inv_mpu.c ****         user_ctrl |= BIT_DMP_EN;
1645:drivers/inv_mpu.c ****     else
1646:drivers/inv_mpu.c ****         user_ctrl &= ~BIT_DMP_EN;
1647:drivers/inv_mpu.c ****     if (I2C_Write(st.hw->addr, st.reg->s1_do, 1, &data))
1648:drivers/inv_mpu.c ****         return -1;
1649:drivers/inv_mpu.c ****     /* Enable/disable I2C master mode. */
1650:drivers/inv_mpu.c ****     if (I2C_Write(st.hw->addr, st.reg->user_ctrl, 1, &user_ctrl))
1651:drivers/inv_mpu.c ****         return -1;
1652:drivers/inv_mpu.c **** #endif
1653:drivers/inv_mpu.c **** #endif
1654:drivers/inv_mpu.c **** 
1655:drivers/inv_mpu.c ****     st.chip_cfg.sensors = sensors;
1656:drivers/inv_mpu.c ****     st.chip_cfg.lp_accel_mode = 0;
1657:drivers/inv_mpu.c ****     DelayMs(50);
1658:drivers/inv_mpu.c ****     return 0;
1659:drivers/inv_mpu.c **** }
1660:drivers/inv_mpu.c **** 
1661:drivers/inv_mpu.c **** /**
1662:drivers/inv_mpu.c ****  *  @brief      Read the MPU interrupt status registers.
1663:drivers/inv_mpu.c ****  *  @param[out] status  Mask of interrupt bits.
1664:drivers/inv_mpu.c ****  *  @return     0 if successful.
ARM GAS  /tmp/cc18izUm.s 			page 33


1665:drivers/inv_mpu.c ****  */
1666:drivers/inv_mpu.c **** int mpu_get_int_status(short *status)
1667:drivers/inv_mpu.c **** {
1668:drivers/inv_mpu.c ****     unsigned char tmp[2];
1669:drivers/inv_mpu.c ****     if (!st.chip_cfg.sensors)
1670:drivers/inv_mpu.c ****         return -1;
1671:drivers/inv_mpu.c ****     if (I2C_Read(st.hw->addr, st.reg->dmp_int_status, 2, tmp))
1672:drivers/inv_mpu.c ****         return -1;
1673:drivers/inv_mpu.c ****     status[0] = (tmp[0] << 8) | tmp[1];
1674:drivers/inv_mpu.c ****     return 0;
1675:drivers/inv_mpu.c **** }
1676:drivers/inv_mpu.c **** 
1677:drivers/inv_mpu.c **** /**
1678:drivers/inv_mpu.c ****  *  @brief      Get one packet from the FIFO.
1679:drivers/inv_mpu.c ****  *  If @e sensors does not contain a particular sensor, disregard the data
1680:drivers/inv_mpu.c ****  *  returned to that pointer.
1681:drivers/inv_mpu.c ****  *  \n @e sensors can contain a combination of the following flags:
1682:drivers/inv_mpu.c ****  *  \n INV_X_GYRO, INV_Y_GYRO, INV_Z_GYRO
1683:drivers/inv_mpu.c ****  *  \n INV_XYZ_GYRO
1684:drivers/inv_mpu.c ****  *  \n INV_XYZ_ACCEL
1685:drivers/inv_mpu.c ****  *  \n If the FIFO has no new data, @e sensors will be zero.
1686:drivers/inv_mpu.c ****  *  \n If the FIFO is disabled, @e sensors will be zero and this function will
1687:drivers/inv_mpu.c ****  *  return a non-zero error code.
1688:drivers/inv_mpu.c ****  *  @param[out] gyro        Gyro data in hardware units.
1689:drivers/inv_mpu.c ****  *  @param[out] accel       Accel data in hardware units.
1690:drivers/inv_mpu.c ****  *  @param[out] timestamp   Timestamp in milliseconds.
1691:drivers/inv_mpu.c ****  *  @param[out] sensors     Mask of sensors read from FIFO.
1692:drivers/inv_mpu.c ****  *  @param[out] more        Number of remaining packets.
1693:drivers/inv_mpu.c ****  *  @return     0 if successful.
1694:drivers/inv_mpu.c ****  */
1695:drivers/inv_mpu.c **** int mpu_read_fifo(short *gyro, short *accel, unsigned long *timestamp,
1696:drivers/inv_mpu.c ****         unsigned char *sensors, unsigned char *more)
1697:drivers/inv_mpu.c **** {
1698:drivers/inv_mpu.c ****     /* Assumes maximum packet size is gyro (6) + accel (6). */
1699:drivers/inv_mpu.c ****     unsigned char data[MAX_PACKET_LENGTH];
1700:drivers/inv_mpu.c ****     unsigned char packet_size = 0;
1701:drivers/inv_mpu.c ****     unsigned short fifo_count, index = 0;
1702:drivers/inv_mpu.c **** 
1703:drivers/inv_mpu.c ****     if (st.chip_cfg.dmp_on)
1704:drivers/inv_mpu.c ****         return -1;
1705:drivers/inv_mpu.c **** 
1706:drivers/inv_mpu.c ****     sensors[0] = 0;
1707:drivers/inv_mpu.c ****     if (!st.chip_cfg.sensors)
1708:drivers/inv_mpu.c ****         return -1;
1709:drivers/inv_mpu.c ****     if (!st.chip_cfg.fifo_enable)
1710:drivers/inv_mpu.c ****         return -1;
1711:drivers/inv_mpu.c **** 
1712:drivers/inv_mpu.c ****     if (st.chip_cfg.fifo_enable & INV_X_GYRO)
1713:drivers/inv_mpu.c ****         packet_size += 2;
1714:drivers/inv_mpu.c ****     if (st.chip_cfg.fifo_enable & INV_Y_GYRO)
1715:drivers/inv_mpu.c ****         packet_size += 2;
1716:drivers/inv_mpu.c ****     if (st.chip_cfg.fifo_enable & INV_Z_GYRO)
1717:drivers/inv_mpu.c ****         packet_size += 2;
1718:drivers/inv_mpu.c ****     if (st.chip_cfg.fifo_enable & INV_XYZ_ACCEL)
1719:drivers/inv_mpu.c ****         packet_size += 6;
1720:drivers/inv_mpu.c **** 
1721:drivers/inv_mpu.c ****     if (I2C_Read(st.hw->addr, st.reg->fifo_count_h, 2, data))
ARM GAS  /tmp/cc18izUm.s 			page 34


1722:drivers/inv_mpu.c ****         return -1;
1723:drivers/inv_mpu.c ****     fifo_count = (data[0] << 8) | data[1];
1724:drivers/inv_mpu.c ****     if (fifo_count < packet_size)
1725:drivers/inv_mpu.c ****         return 0;
1726:drivers/inv_mpu.c **** //    log_i("FIFO count: %hd\n", fifo_count);
1727:drivers/inv_mpu.c ****     if (fifo_count > (st.hw->max_fifo >> 1)) {
1728:drivers/inv_mpu.c ****         /* FIFO is 50% full, better check overflow bit. */
1729:drivers/inv_mpu.c ****         if (I2C_Read(st.hw->addr, st.reg->int_status, 1, data))
1730:drivers/inv_mpu.c ****             return -1;
1731:drivers/inv_mpu.c ****         if (data[0] & BIT_FIFO_OVERFLOW) {
1732:drivers/inv_mpu.c ****             mpu_reset_fifo();
1733:drivers/inv_mpu.c ****             return -2;
1734:drivers/inv_mpu.c ****         }
1735:drivers/inv_mpu.c ****     }
1736:drivers/inv_mpu.c ****     get_ms((unsigned long*)timestamp);
1737:drivers/inv_mpu.c **** 
1738:drivers/inv_mpu.c ****     if (I2C_Read(st.hw->addr, st.reg->fifo_r_w, packet_size, data))
1739:drivers/inv_mpu.c ****         return -1;
1740:drivers/inv_mpu.c ****     more[0] = fifo_count / packet_size - 1;
1741:drivers/inv_mpu.c ****     sensors[0] = 0;
1742:drivers/inv_mpu.c **** 
1743:drivers/inv_mpu.c ****     if ((index != packet_size) && st.chip_cfg.fifo_enable & INV_XYZ_ACCEL) {
1744:drivers/inv_mpu.c ****         accel[0] = (data[index+0] << 8) | data[index+1];
1745:drivers/inv_mpu.c ****         accel[1] = (data[index+2] << 8) | data[index+3];
1746:drivers/inv_mpu.c ****         accel[2] = (data[index+4] << 8) | data[index+5];
1747:drivers/inv_mpu.c ****         sensors[0] |= INV_XYZ_ACCEL;
1748:drivers/inv_mpu.c ****         index += 6;
1749:drivers/inv_mpu.c ****     }
1750:drivers/inv_mpu.c ****     if ((index != packet_size) && st.chip_cfg.fifo_enable & INV_X_GYRO) {
1751:drivers/inv_mpu.c ****         gyro[0] = (data[index+0] << 8) | data[index+1];
1752:drivers/inv_mpu.c ****         sensors[0] |= INV_X_GYRO;
1753:drivers/inv_mpu.c ****         index += 2;
1754:drivers/inv_mpu.c ****     }
1755:drivers/inv_mpu.c ****     if ((index != packet_size) && st.chip_cfg.fifo_enable & INV_Y_GYRO) {
1756:drivers/inv_mpu.c ****         gyro[1] = (data[index+0] << 8) | data[index+1];
1757:drivers/inv_mpu.c ****         sensors[0] |= INV_Y_GYRO;
1758:drivers/inv_mpu.c ****         index += 2;
1759:drivers/inv_mpu.c ****     }
1760:drivers/inv_mpu.c ****     if ((index != packet_size) && st.chip_cfg.fifo_enable & INV_Z_GYRO) {
1761:drivers/inv_mpu.c ****         gyro[2] = (data[index+0] << 8) | data[index+1];
1762:drivers/inv_mpu.c ****         sensors[0] |= INV_Z_GYRO;
1763:drivers/inv_mpu.c ****         index += 2;
1764:drivers/inv_mpu.c ****     }
1765:drivers/inv_mpu.c **** 
1766:drivers/inv_mpu.c ****     return 0;
1767:drivers/inv_mpu.c **** }
1768:drivers/inv_mpu.c **** 
1769:drivers/inv_mpu.c **** /**
1770:drivers/inv_mpu.c ****  *  @brief      Get one unparsed packet from the FIFO.
1771:drivers/inv_mpu.c ****  *  This function should be used if the packet is to be parsed elsewhere.
1772:drivers/inv_mpu.c ****  *  @param[in]  length  Length of one FIFO packet.
1773:drivers/inv_mpu.c ****  *  @param[in]  data    FIFO packet.
1774:drivers/inv_mpu.c ****  *  @param[in]  more    Number of remaining packets.
1775:drivers/inv_mpu.c ****  */
1776:drivers/inv_mpu.c **** int mpu_read_fifo_stream(unsigned short length, unsigned char *data,
1777:drivers/inv_mpu.c ****     unsigned char *more)
1778:drivers/inv_mpu.c **** {
ARM GAS  /tmp/cc18izUm.s 			page 35


1779:drivers/inv_mpu.c ****     unsigned char tmp[2];
1780:drivers/inv_mpu.c ****     unsigned short fifo_count;
1781:drivers/inv_mpu.c ****     if (!st.chip_cfg.dmp_on)
1782:drivers/inv_mpu.c ****         return -1;
1783:drivers/inv_mpu.c ****     if (!st.chip_cfg.sensors)
1784:drivers/inv_mpu.c ****         return -1;
1785:drivers/inv_mpu.c **** 
1786:drivers/inv_mpu.c ****     if (I2C_Read(st.hw->addr, st.reg->fifo_count_h, 2, tmp))
1787:drivers/inv_mpu.c ****         return -1;
1788:drivers/inv_mpu.c ****     fifo_count = (tmp[0] << 8) | tmp[1];
1789:drivers/inv_mpu.c ****     if (fifo_count < length) {
1790:drivers/inv_mpu.c ****         more[0] = 0;
1791:drivers/inv_mpu.c ****         return -1;
1792:drivers/inv_mpu.c ****     }
1793:drivers/inv_mpu.c ****     if (fifo_count > (st.hw->max_fifo >> 1)) {
1794:drivers/inv_mpu.c ****         /* FIFO is 50% full, better check overflow bit. */
1795:drivers/inv_mpu.c ****         if (I2C_Read(st.hw->addr, st.reg->int_status, 1, tmp))
1796:drivers/inv_mpu.c ****             return -1;
1797:drivers/inv_mpu.c ****         if (tmp[0] & BIT_FIFO_OVERFLOW) {
1798:drivers/inv_mpu.c ****             mpu_reset_fifo();
1799:drivers/inv_mpu.c ****             return -2;
1800:drivers/inv_mpu.c ****         }
1801:drivers/inv_mpu.c ****     }
1802:drivers/inv_mpu.c **** 
1803:drivers/inv_mpu.c ****     if (I2C_Read(st.hw->addr, st.reg->fifo_r_w, length, data))
1804:drivers/inv_mpu.c ****         return -1;
1805:drivers/inv_mpu.c ****     more[0] = fifo_count / length - 1;
1806:drivers/inv_mpu.c ****     return 0;
1807:drivers/inv_mpu.c **** }
1808:drivers/inv_mpu.c **** 
1809:drivers/inv_mpu.c **** /**
1810:drivers/inv_mpu.c ****  *  @brief      Set device to bypass mode.
1811:drivers/inv_mpu.c ****  *  @param[in]  bypass_on   1 to enable bypass mode.
1812:drivers/inv_mpu.c ****  *  @return     0 if successful.
1813:drivers/inv_mpu.c ****  */
1814:drivers/inv_mpu.c **** int mpu_set_bypass(unsigned char bypass_on)
1815:drivers/inv_mpu.c **** {
1816:drivers/inv_mpu.c ****     unsigned char tmp;
1817:drivers/inv_mpu.c **** 
1818:drivers/inv_mpu.c ****     if (st.chip_cfg.bypass_mode == bypass_on)
1819:drivers/inv_mpu.c ****         return 0;
1820:drivers/inv_mpu.c **** 
1821:drivers/inv_mpu.c ****     if (bypass_on) {
1822:drivers/inv_mpu.c ****         if (I2C_Read(st.hw->addr, st.reg->user_ctrl, 1, &tmp))
1823:drivers/inv_mpu.c ****             return -1;
1824:drivers/inv_mpu.c ****         tmp &= ~BIT_AUX_IF_EN;
1825:drivers/inv_mpu.c ****         if (I2C_Write(st.hw->addr, st.reg->user_ctrl, 1, &tmp))
1826:drivers/inv_mpu.c ****             return -1;
1827:drivers/inv_mpu.c ****         DelayMs(3);
1828:drivers/inv_mpu.c ****         tmp = BIT_BYPASS_EN;
1829:drivers/inv_mpu.c ****         if (st.chip_cfg.active_low_int)
1830:drivers/inv_mpu.c ****             tmp |= BIT_ACTL;
1831:drivers/inv_mpu.c ****         if (st.chip_cfg.latched_int)
1832:drivers/inv_mpu.c ****             tmp |= BIT_LATCH_EN | BIT_ANY_RD_CLR;
1833:drivers/inv_mpu.c ****         if (I2C_Write(st.hw->addr, st.reg->int_pin_cfg, 1, &tmp))
1834:drivers/inv_mpu.c ****             return -1;
1835:drivers/inv_mpu.c ****     } else {
ARM GAS  /tmp/cc18izUm.s 			page 36


1836:drivers/inv_mpu.c ****         /* Enable I2C master mode if compass is being used. */
1837:drivers/inv_mpu.c ****         if (I2C_Read(st.hw->addr, st.reg->user_ctrl, 1, &tmp))
1838:drivers/inv_mpu.c ****             return -1;
1839:drivers/inv_mpu.c ****         if (st.chip_cfg.sensors & INV_XYZ_COMPASS)
1840:drivers/inv_mpu.c ****             tmp |= BIT_AUX_IF_EN;
1841:drivers/inv_mpu.c ****         else
1842:drivers/inv_mpu.c ****             tmp &= ~BIT_AUX_IF_EN;
1843:drivers/inv_mpu.c ****         if (I2C_Write(st.hw->addr, st.reg->user_ctrl, 1, &tmp))
1844:drivers/inv_mpu.c ****             return -1;
1845:drivers/inv_mpu.c ****         DelayMs(3);
1846:drivers/inv_mpu.c ****         if (st.chip_cfg.active_low_int)
1847:drivers/inv_mpu.c ****             tmp = BIT_ACTL;
1848:drivers/inv_mpu.c ****         else
1849:drivers/inv_mpu.c ****             tmp = 0;
1850:drivers/inv_mpu.c ****         if (st.chip_cfg.latched_int)
1851:drivers/inv_mpu.c ****             tmp |= BIT_LATCH_EN | BIT_ANY_RD_CLR;
1852:drivers/inv_mpu.c ****         if (I2C_Write(st.hw->addr, st.reg->int_pin_cfg, 1, &tmp))
1853:drivers/inv_mpu.c ****             return -1;
1854:drivers/inv_mpu.c ****     }
1855:drivers/inv_mpu.c ****     st.chip_cfg.bypass_mode = bypass_on;
1856:drivers/inv_mpu.c ****     return 0;
1857:drivers/inv_mpu.c **** }
1858:drivers/inv_mpu.c **** 
1859:drivers/inv_mpu.c **** /**
1860:drivers/inv_mpu.c ****  *  @brief      Set interrupt level.
1861:drivers/inv_mpu.c ****  *  @param[in]  active_low  1 for active low, 0 for active high.
1862:drivers/inv_mpu.c ****  *  @return     0 if successful.
1863:drivers/inv_mpu.c ****  */
1864:drivers/inv_mpu.c **** int mpu_set_int_level(unsigned char active_low)
1865:drivers/inv_mpu.c **** {
1866:drivers/inv_mpu.c ****     st.chip_cfg.active_low_int = active_low;
1867:drivers/inv_mpu.c ****     return 0;
1868:drivers/inv_mpu.c **** }
1869:drivers/inv_mpu.c **** 
1870:drivers/inv_mpu.c **** /**
1871:drivers/inv_mpu.c ****  *  @brief      Enable latched interrupts.
1872:drivers/inv_mpu.c ****  *  Any MPU register will clear the interrupt.
1873:drivers/inv_mpu.c ****  *  @param[in]  enable  1 to enable, 0 to disable.
1874:drivers/inv_mpu.c ****  *  @return     0 if successful.
1875:drivers/inv_mpu.c ****  */
1876:drivers/inv_mpu.c **** int mpu_set_int_latched(unsigned char enable)
1877:drivers/inv_mpu.c **** {
1878:drivers/inv_mpu.c ****     unsigned char tmp;
1879:drivers/inv_mpu.c ****     if (st.chip_cfg.latched_int == enable)
1880:drivers/inv_mpu.c ****         return 0;
1881:drivers/inv_mpu.c **** 
1882:drivers/inv_mpu.c ****     if (enable)
1883:drivers/inv_mpu.c ****         tmp = BIT_LATCH_EN | BIT_ANY_RD_CLR;
1884:drivers/inv_mpu.c ****     else
1885:drivers/inv_mpu.c ****         tmp = 0;
1886:drivers/inv_mpu.c ****     if (st.chip_cfg.bypass_mode)
1887:drivers/inv_mpu.c ****         tmp |= BIT_BYPASS_EN;
1888:drivers/inv_mpu.c ****     if (st.chip_cfg.active_low_int)
1889:drivers/inv_mpu.c ****         tmp |= BIT_ACTL;
1890:drivers/inv_mpu.c ****     if (I2C_Write(st.hw->addr, st.reg->int_pin_cfg, 1, &tmp))
1891:drivers/inv_mpu.c ****         return -1;
1892:drivers/inv_mpu.c ****     st.chip_cfg.latched_int = enable;
ARM GAS  /tmp/cc18izUm.s 			page 37


1893:drivers/inv_mpu.c ****     return 0;
1894:drivers/inv_mpu.c **** }
1895:drivers/inv_mpu.c **** 
1896:drivers/inv_mpu.c **** #ifdef MPU6050
1897:drivers/inv_mpu.c **** static int get_accel_prod_shift(float *st_shift)
1898:drivers/inv_mpu.c **** {
1899:drivers/inv_mpu.c ****     unsigned char tmp[4], shift_code[3], ii;
1900:drivers/inv_mpu.c **** 
1901:drivers/inv_mpu.c ****     if (I2C_Read(st.hw->addr, 0x0D, 4, tmp))
1902:drivers/inv_mpu.c ****         return 0x07;
1903:drivers/inv_mpu.c **** 
1904:drivers/inv_mpu.c ****     shift_code[0] = ((tmp[0] & 0xE0) >> 3) | ((tmp[3] & 0x30) >> 4);
1905:drivers/inv_mpu.c ****     shift_code[1] = ((tmp[1] & 0xE0) >> 3) | ((tmp[3] & 0x0C) >> 2);
1906:drivers/inv_mpu.c ****     shift_code[2] = ((tmp[2] & 0xE0) >> 3) | (tmp[3] & 0x03);
1907:drivers/inv_mpu.c ****     for (ii = 0; ii < 3; ii++) {
1908:drivers/inv_mpu.c ****         if (!shift_code[ii]) {
1909:drivers/inv_mpu.c ****             st_shift[ii] = 0.f;
1910:drivers/inv_mpu.c ****             continue;
1911:drivers/inv_mpu.c ****         }
1912:drivers/inv_mpu.c ****         /* Equivalent to..
1913:drivers/inv_mpu.c ****          * st_shift[ii] = 0.34f * powf(0.92f/0.34f, (shift_code[ii]-1) / 30.f)
1914:drivers/inv_mpu.c ****          */
1915:drivers/inv_mpu.c ****         st_shift[ii] = 0.34f;
1916:drivers/inv_mpu.c ****         while (--shift_code[ii])
1917:drivers/inv_mpu.c ****             st_shift[ii] *= 1.034f;
1918:drivers/inv_mpu.c ****     }
1919:drivers/inv_mpu.c ****     return 0;
1920:drivers/inv_mpu.c **** }
1921:drivers/inv_mpu.c **** 
1922:drivers/inv_mpu.c **** static int accel_self_test(long *bias_regular, long *bias_st)
1923:drivers/inv_mpu.c **** {
1924:drivers/inv_mpu.c ****     int jj, result = 0;
1925:drivers/inv_mpu.c ****     float st_shift[3], st_shift_cust, st_shift_var;
1926:drivers/inv_mpu.c **** 
1927:drivers/inv_mpu.c ****     get_accel_prod_shift(st_shift);
1928:drivers/inv_mpu.c ****     for(jj = 0; jj < 3; jj++) {
1929:drivers/inv_mpu.c ****         st_shift_cust = labs(bias_regular[jj] - bias_st[jj]) / 65536.f;
1930:drivers/inv_mpu.c ****         if (st_shift[jj]) {
1931:drivers/inv_mpu.c ****             st_shift_var = st_shift_cust / st_shift[jj] - 1.f;
1932:drivers/inv_mpu.c ****             if (fabs(st_shift_var) > test.max_accel_var)
1933:drivers/inv_mpu.c ****                 result |= 1 << jj;
1934:drivers/inv_mpu.c ****         } else if ((st_shift_cust < test.min_g) ||
1935:drivers/inv_mpu.c ****             (st_shift_cust > test.max_g))
1936:drivers/inv_mpu.c ****             result |= 1 << jj;
1937:drivers/inv_mpu.c ****     }
1938:drivers/inv_mpu.c **** 
1939:drivers/inv_mpu.c ****     return result;
1940:drivers/inv_mpu.c **** }
1941:drivers/inv_mpu.c **** 
1942:drivers/inv_mpu.c **** static int gyro_self_test(long *bias_regular, long *bias_st)
1943:drivers/inv_mpu.c **** {
1944:drivers/inv_mpu.c ****     int jj, result = 0;
1945:drivers/inv_mpu.c ****     unsigned char tmp[3];
1946:drivers/inv_mpu.c ****     float st_shift, st_shift_cust, st_shift_var;
1947:drivers/inv_mpu.c **** 
1948:drivers/inv_mpu.c ****     if (I2C_Read(st.hw->addr, 0x0D, 3, tmp))
1949:drivers/inv_mpu.c ****         return 0x07;
ARM GAS  /tmp/cc18izUm.s 			page 38


1950:drivers/inv_mpu.c **** 
1951:drivers/inv_mpu.c ****     tmp[0] &= 0x1F;
1952:drivers/inv_mpu.c ****     tmp[1] &= 0x1F;
1953:drivers/inv_mpu.c ****     tmp[2] &= 0x1F;
1954:drivers/inv_mpu.c **** 
1955:drivers/inv_mpu.c ****     for (jj = 0; jj < 3; jj++) {
1956:drivers/inv_mpu.c ****         st_shift_cust = labs(bias_regular[jj] - bias_st[jj]) / 65536.f;
1957:drivers/inv_mpu.c ****         if (tmp[jj]) {
1958:drivers/inv_mpu.c ****             st_shift = 3275.f / test.gyro_sens;
1959:drivers/inv_mpu.c ****             while (--tmp[jj])
1960:drivers/inv_mpu.c ****                 st_shift *= 1.046f;
1961:drivers/inv_mpu.c ****             st_shift_var = st_shift_cust / st_shift - 1.f;
1962:drivers/inv_mpu.c ****             if (fabs(st_shift_var) > test.max_gyro_var)
1963:drivers/inv_mpu.c ****                 result |= 1 << jj;
1964:drivers/inv_mpu.c ****         } else if ((st_shift_cust < test.min_dps) ||
1965:drivers/inv_mpu.c ****             (st_shift_cust > test.max_dps))
1966:drivers/inv_mpu.c ****             result |= 1 << jj;
1967:drivers/inv_mpu.c ****     }
1968:drivers/inv_mpu.c ****     return result;
1969:drivers/inv_mpu.c **** }
1970:drivers/inv_mpu.c **** 
1971:drivers/inv_mpu.c **** #ifdef AK89xx_SECONDARY
1972:drivers/inv_mpu.c **** static int compass_self_test(void)
1973:drivers/inv_mpu.c **** {
1974:drivers/inv_mpu.c ****     unsigned char tmp[6];
1975:drivers/inv_mpu.c ****     unsigned char tries = 10;
1976:drivers/inv_mpu.c ****     int result = 0x07;
1977:drivers/inv_mpu.c ****     short data;
1978:drivers/inv_mpu.c **** 
1979:drivers/inv_mpu.c ****     mpu_set_bypass(1);
1980:drivers/inv_mpu.c **** 
1981:drivers/inv_mpu.c ****     tmp[0] = AKM_POWER_DOWN;
1982:drivers/inv_mpu.c ****     if (I2C_Write(st.chip_cfg.compass_addr, AKM_REG_CNTL, 1, tmp))
1983:drivers/inv_mpu.c ****         return 0x07;
1984:drivers/inv_mpu.c ****     tmp[0] = AKM_BIT_SELF_TEST;
1985:drivers/inv_mpu.c ****     if (I2C_Write(st.chip_cfg.compass_addr, AKM_REG_ASTC, 1, tmp))
1986:drivers/inv_mpu.c ****         goto AKM_restore;
1987:drivers/inv_mpu.c ****     tmp[0] = AKM_MODE_SELF_TEST;
1988:drivers/inv_mpu.c ****     if (I2C_Write(st.chip_cfg.compass_addr, AKM_REG_CNTL, 1, tmp))
1989:drivers/inv_mpu.c ****         goto AKM_restore;
1990:drivers/inv_mpu.c **** 
1991:drivers/inv_mpu.c ****     do {
1992:drivers/inv_mpu.c ****         DelayMs(10);
1993:drivers/inv_mpu.c ****         if (I2C_Read(st.chip_cfg.compass_addr, AKM_REG_ST1, 1, tmp))
1994:drivers/inv_mpu.c ****             goto AKM_restore;
1995:drivers/inv_mpu.c ****         if (tmp[0] & AKM_DATA_READY)
1996:drivers/inv_mpu.c ****             break;
1997:drivers/inv_mpu.c ****     } while (tries--);
1998:drivers/inv_mpu.c ****     if (!(tmp[0] & AKM_DATA_READY))
1999:drivers/inv_mpu.c ****         goto AKM_restore;
2000:drivers/inv_mpu.c **** 
2001:drivers/inv_mpu.c ****     if (I2C_Read(st.chip_cfg.compass_addr, AKM_REG_HXL, 6, tmp))
2002:drivers/inv_mpu.c ****         goto AKM_restore;
2003:drivers/inv_mpu.c **** 
2004:drivers/inv_mpu.c ****     result = 0;
2005:drivers/inv_mpu.c ****     data = (short)(tmp[1] << 8) | tmp[0];
2006:drivers/inv_mpu.c ****     if ((data > 100) || (data < -100))
ARM GAS  /tmp/cc18izUm.s 			page 39


2007:drivers/inv_mpu.c ****         result |= 0x01;
2008:drivers/inv_mpu.c ****     data = (short)(tmp[3] << 8) | tmp[2];
2009:drivers/inv_mpu.c ****     if ((data > 100) || (data < -100))
2010:drivers/inv_mpu.c ****         result |= 0x02;
2011:drivers/inv_mpu.c ****     data = (short)(tmp[5] << 8) | tmp[4];
2012:drivers/inv_mpu.c ****     if ((data > -300) || (data < -1000))
2013:drivers/inv_mpu.c ****         result |= 0x04;
2014:drivers/inv_mpu.c **** 
2015:drivers/inv_mpu.c **** AKM_restore:
2016:drivers/inv_mpu.c ****     tmp[0] = 0 | SUPPORTS_AK89xx_HIGH_SENS;
2017:drivers/inv_mpu.c ****     I2C_Write(st.chip_cfg.compass_addr, AKM_REG_ASTC, 1, tmp);
2018:drivers/inv_mpu.c ****     tmp[0] = SUPPORTS_AK89xx_HIGH_SENS;
2019:drivers/inv_mpu.c ****     I2C_Write(st.chip_cfg.compass_addr, AKM_REG_CNTL, 1, tmp);
2020:drivers/inv_mpu.c ****     mpu_set_bypass(0);
2021:drivers/inv_mpu.c ****     return result;
2022:drivers/inv_mpu.c **** }
2023:drivers/inv_mpu.c **** #endif
2024:drivers/inv_mpu.c **** #endif
2025:drivers/inv_mpu.c **** 
2026:drivers/inv_mpu.c **** static int get_st_biases(long *gyro, long *accel, unsigned char hw_test)
2027:drivers/inv_mpu.c **** {
 149              		.loc 1 2027 0
 150              		.cfi_startproc
 151              		@ args = 0, pretend = 0, frame = 16
 152              		@ frame_needed = 0, uses_anonymous_args = 0
 153              	.LVL12:
 154 0098 2DE9F043 		push	{r4, r5, r6, r7, r8, r9, lr}
 155              		.cfi_def_cfa_offset 28
 156              		.cfi_offset 4, -28
 157              		.cfi_offset 5, -24
 158              		.cfi_offset 6, -20
 159              		.cfi_offset 7, -16
 160              		.cfi_offset 8, -12
 161              		.cfi_offset 9, -8
 162              		.cfi_offset 14, -4
 163 009c 85B0     		sub	sp, sp, #20
 164              		.cfi_def_cfa_offset 48
 165 009e 0546     		mov	r5, r0
 166 00a0 0C46     		mov	r4, r1
 167 00a2 1646     		mov	r6, r2
2028:drivers/inv_mpu.c ****     unsigned char data[MAX_PACKET_LENGTH];
2029:drivers/inv_mpu.c ****     unsigned char packet_count, ii;
2030:drivers/inv_mpu.c ****     unsigned short fifo_count;
2031:drivers/inv_mpu.c **** 
2032:drivers/inv_mpu.c ****     data[0] = 0x01;
 168              		.loc 1 2032 0
 169 00a4 0123     		movs	r3, #1
 170 00a6 8DF80430 		strb	r3, [sp, #4]
2033:drivers/inv_mpu.c ****     data[1] = 0;
 171              		.loc 1 2033 0
 172 00aa 0023     		movs	r3, #0
 173 00ac 8DF80530 		strb	r3, [sp, #5]
2034:drivers/inv_mpu.c ****     if (I2C_Write(st.hw->addr, st.reg->pwr_mgmt_1, 2, data))
 174              		.loc 1 2034 0
 175 00b0 544B     		ldr	r3, .L58
 176 00b2 1968     		ldr	r1, [r3]
 177              	.LVL13:
ARM GAS  /tmp/cc18izUm.s 			page 40


 178 00b4 5868     		ldr	r0, [r3, #4]
 179              	.LVL14:
 180 00b6 01AB     		add	r3, sp, #4
 181 00b8 0222     		movs	r2, #2
 182              	.LVL15:
 183 00ba 897C     		ldrb	r1, [r1, #18]	@ zero_extendqisi2
 184 00bc 0078     		ldrb	r0, [r0]	@ zero_extendqisi2
 185 00be FFF7FEFF 		bl	I2C_Write
 186              	.LVL16:
 187 00c2 0028     		cmp	r0, #0
 188 00c4 40F0E681 		bne	.L28
2035:drivers/inv_mpu.c ****         return -1;
2036:drivers/inv_mpu.c ****     DelayMs(200);
 189              		.loc 1 2036 0
 190 00c8 C820     		movs	r0, #200
 191 00ca FFF7FEFF 		bl	DelayMs
 192              	.LVL17:
2037:drivers/inv_mpu.c ****     data[0] = 0;
 193              		.loc 1 2037 0
 194 00ce 04AB     		add	r3, sp, #16
 195 00d0 0022     		movs	r2, #0
 196 00d2 03F80C2D 		strb	r2, [r3, #-12]!
2038:drivers/inv_mpu.c ****     if (I2C_Write(st.hw->addr, st.reg->int_enable, 1, data))
 197              		.loc 1 2038 0
 198 00d6 4B4A     		ldr	r2, .L58
 199 00d8 1168     		ldr	r1, [r2]
 200 00da 5068     		ldr	r0, [r2, #4]
 201 00dc 0122     		movs	r2, #1
 202 00de C97B     		ldrb	r1, [r1, #15]	@ zero_extendqisi2
 203 00e0 0078     		ldrb	r0, [r0]	@ zero_extendqisi2
 204 00e2 FFF7FEFF 		bl	I2C_Write
 205              	.LVL18:
 206 00e6 0028     		cmp	r0, #0
 207 00e8 40F0D781 		bne	.L29
2039:drivers/inv_mpu.c ****         return -1;
2040:drivers/inv_mpu.c ****     if (I2C_Write(st.hw->addr, st.reg->fifo_en, 1, data))
 208              		.loc 1 2040 0
 209 00ec 454B     		ldr	r3, .L58
 210 00ee 1968     		ldr	r1, [r3]
 211 00f0 5868     		ldr	r0, [r3, #4]
 212 00f2 01AB     		add	r3, sp, #4
 213 00f4 0122     		movs	r2, #1
 214 00f6 4979     		ldrb	r1, [r1, #5]	@ zero_extendqisi2
 215 00f8 0078     		ldrb	r0, [r0]	@ zero_extendqisi2
 216 00fa FFF7FEFF 		bl	I2C_Write
 217              	.LVL19:
 218 00fe 0028     		cmp	r0, #0
 219 0100 40F0CE81 		bne	.L30
2041:drivers/inv_mpu.c ****         return -1;
2042:drivers/inv_mpu.c ****     if (I2C_Write(st.hw->addr, st.reg->pwr_mgmt_1, 1, data))
 220              		.loc 1 2042 0
 221 0104 3F4B     		ldr	r3, .L58
 222 0106 1968     		ldr	r1, [r3]
 223 0108 5868     		ldr	r0, [r3, #4]
 224 010a 01AB     		add	r3, sp, #4
 225 010c 0122     		movs	r2, #1
 226 010e 897C     		ldrb	r1, [r1, #18]	@ zero_extendqisi2
ARM GAS  /tmp/cc18izUm.s 			page 41


 227 0110 0078     		ldrb	r0, [r0]	@ zero_extendqisi2
 228 0112 FFF7FEFF 		bl	I2C_Write
 229              	.LVL20:
 230 0116 0028     		cmp	r0, #0
 231 0118 40F0C581 		bne	.L31
2043:drivers/inv_mpu.c ****         return -1;
2044:drivers/inv_mpu.c ****     if (I2C_Write(st.hw->addr, st.reg->i2c_mst, 1, data))
 232              		.loc 1 2044 0
 233 011c 394B     		ldr	r3, .L58
 234 011e 1968     		ldr	r1, [r3]
 235 0120 5868     		ldr	r0, [r3, #4]
 236 0122 01AB     		add	r3, sp, #4
 237 0124 0122     		movs	r2, #1
 238 0126 C97D     		ldrb	r1, [r1, #23]	@ zero_extendqisi2
 239 0128 0078     		ldrb	r0, [r0]	@ zero_extendqisi2
 240 012a FFF7FEFF 		bl	I2C_Write
 241              	.LVL21:
 242 012e 0028     		cmp	r0, #0
 243 0130 40F0BC81 		bne	.L32
2045:drivers/inv_mpu.c ****         return -1;
2046:drivers/inv_mpu.c ****     if (I2C_Write(st.hw->addr, st.reg->user_ctrl, 1, data))
 244              		.loc 1 2046 0
 245 0134 334B     		ldr	r3, .L58
 246 0136 1968     		ldr	r1, [r3]
 247 0138 5868     		ldr	r0, [r3, #4]
 248 013a 01AB     		add	r3, sp, #4
 249 013c 0122     		movs	r2, #1
 250 013e 0979     		ldrb	r1, [r1, #4]	@ zero_extendqisi2
 251 0140 0078     		ldrb	r0, [r0]	@ zero_extendqisi2
 252 0142 FFF7FEFF 		bl	I2C_Write
 253              	.LVL22:
 254 0146 0028     		cmp	r0, #0
 255 0148 40F0B381 		bne	.L33
2047:drivers/inv_mpu.c ****         return -1;
2048:drivers/inv_mpu.c ****     data[0] = BIT_FIFO_RST | BIT_DMP_RST;
 256              		.loc 1 2048 0
 257 014c 04AB     		add	r3, sp, #16
 258 014e 0C22     		movs	r2, #12
 259 0150 03F80C2D 		strb	r2, [r3, #-12]!
2049:drivers/inv_mpu.c ****     if (I2C_Write(st.hw->addr, st.reg->user_ctrl, 1, data))
 260              		.loc 1 2049 0
 261 0154 2B4A     		ldr	r2, .L58
 262 0156 1168     		ldr	r1, [r2]
 263 0158 5068     		ldr	r0, [r2, #4]
 264 015a 0122     		movs	r2, #1
 265 015c 0979     		ldrb	r1, [r1, #4]	@ zero_extendqisi2
 266 015e 0078     		ldrb	r0, [r0]	@ zero_extendqisi2
 267 0160 FFF7FEFF 		bl	I2C_Write
 268              	.LVL23:
 269 0164 0028     		cmp	r0, #0
 270 0166 40F0A781 		bne	.L34
2050:drivers/inv_mpu.c ****         return -1;
2051:drivers/inv_mpu.c ****     DelayMs(15);
 271              		.loc 1 2051 0
 272 016a 0F20     		movs	r0, #15
 273 016c FFF7FEFF 		bl	DelayMs
 274              	.LVL24:
ARM GAS  /tmp/cc18izUm.s 			page 42


2052:drivers/inv_mpu.c ****     data[0] = st.test->reg_lpf;
 275              		.loc 1 2052 0
 276 0170 244A     		ldr	r2, .L58
 277 0172 936A     		ldr	r3, [r2, #40]
 278 0174 597A     		ldrb	r1, [r3, #9]	@ zero_extendqisi2
 279 0176 04AB     		add	r3, sp, #16
 280 0178 03F80C1D 		strb	r1, [r3, #-12]!
2053:drivers/inv_mpu.c ****     if (I2C_Write(st.hw->addr, st.reg->lpf, 1, data))
 281              		.loc 1 2053 0
 282 017c 1168     		ldr	r1, [r2]
 283 017e 5068     		ldr	r0, [r2, #4]
 284 0180 0122     		movs	r2, #1
 285 0182 8978     		ldrb	r1, [r1, #2]	@ zero_extendqisi2
 286 0184 0078     		ldrb	r0, [r0]	@ zero_extendqisi2
 287 0186 FFF7FEFF 		bl	I2C_Write
 288              	.LVL25:
 289 018a 0028     		cmp	r0, #0
 290 018c 40F09781 		bne	.L35
2054:drivers/inv_mpu.c ****         return -1;
2055:drivers/inv_mpu.c ****     data[0] = st.test->reg_rate_div;
 291              		.loc 1 2055 0
 292 0190 1C4A     		ldr	r2, .L58
 293 0192 936A     		ldr	r3, [r2, #40]
 294 0194 197A     		ldrb	r1, [r3, #8]	@ zero_extendqisi2
 295 0196 04AB     		add	r3, sp, #16
 296 0198 03F80C1D 		strb	r1, [r3, #-12]!
2056:drivers/inv_mpu.c ****     if (I2C_Write(st.hw->addr, st.reg->rate_div, 1, data))
 297              		.loc 1 2056 0
 298 019c 1168     		ldr	r1, [r2]
 299 019e 5068     		ldr	r0, [r2, #4]
 300 01a0 0122     		movs	r2, #1
 301 01a2 4978     		ldrb	r1, [r1, #1]	@ zero_extendqisi2
 302 01a4 0078     		ldrb	r0, [r0]	@ zero_extendqisi2
 303 01a6 FFF7FEFF 		bl	I2C_Write
 304              	.LVL26:
 305 01aa 0028     		cmp	r0, #0
 306 01ac 40F08A81 		bne	.L36
2057:drivers/inv_mpu.c ****         return -1;
2058:drivers/inv_mpu.c ****     if (hw_test)
 307              		.loc 1 2058 0
 308 01b0 56B3     		cbz	r6, .L17
2059:drivers/inv_mpu.c ****         data[0] = st.test->reg_gyro_fsr | 0xE0;
 309              		.loc 1 2059 0
 310 01b2 144A     		ldr	r2, .L58
 311 01b4 936A     		ldr	r3, [r2, #40]
 312 01b6 997A     		ldrb	r1, [r3, #10]	@ zero_extendqisi2
 313 01b8 61F01F01 		orn	r1, r1, #31
 314 01bc 04AB     		add	r3, sp, #16
 315 01be 03F80C1D 		strb	r1, [r3, #-12]!
2060:drivers/inv_mpu.c ****     else
2061:drivers/inv_mpu.c ****         data[0] = st.test->reg_gyro_fsr;
2062:drivers/inv_mpu.c ****     if (I2C_Write(st.hw->addr, st.reg->gyro_cfg, 1, data))
 316              		.loc 1 2062 0
 317 01c2 1168     		ldr	r1, [r2]
 318 01c4 5068     		ldr	r0, [r2, #4]
 319 01c6 0122     		movs	r2, #1
 320 01c8 8979     		ldrb	r1, [r1, #6]	@ zero_extendqisi2
ARM GAS  /tmp/cc18izUm.s 			page 43


 321 01ca 0078     		ldrb	r0, [r0]	@ zero_extendqisi2
 322 01cc FFF7FEFF 		bl	I2C_Write
 323              	.LVL27:
 324 01d0 0028     		cmp	r0, #0
 325 01d2 40F07A81 		bne	.L51
2063:drivers/inv_mpu.c ****         return -1;
2064:drivers/inv_mpu.c **** 
2065:drivers/inv_mpu.c ****     if (hw_test)
2066:drivers/inv_mpu.c ****         data[0] = st.test->reg_accel_fsr | 0xE0;
 326              		.loc 1 2066 0
 327 01d6 0B4A     		ldr	r2, .L58
 328 01d8 936A     		ldr	r3, [r2, #40]
 329 01da D97A     		ldrb	r1, [r3, #11]	@ zero_extendqisi2
 330 01dc 61F01F01 		orn	r1, r1, #31
 331 01e0 04AB     		add	r3, sp, #16
 332 01e2 03F80C1D 		strb	r1, [r3, #-12]!
2067:drivers/inv_mpu.c ****     else
2068:drivers/inv_mpu.c ****         data[0] = test.reg_accel_fsr;
2069:drivers/inv_mpu.c ****     if (I2C_Write(st.hw->addr, st.reg->accel_cfg, 1, data))
 333              		.loc 1 2069 0
 334 01e6 1168     		ldr	r1, [r2]
 335 01e8 5068     		ldr	r0, [r2, #4]
 336 01ea 0122     		movs	r2, #1
 337 01ec C979     		ldrb	r1, [r1, #7]	@ zero_extendqisi2
 338 01ee 0078     		ldrb	r0, [r0]	@ zero_extendqisi2
 339 01f0 FFF7FEFF 		bl	I2C_Write
 340              	.LVL28:
 341 01f4 0028     		cmp	r0, #0
 342 01f6 40F06E81 		bne	.L52
2070:drivers/inv_mpu.c ****         return -1;
2071:drivers/inv_mpu.c ****     if (hw_test)
2072:drivers/inv_mpu.c ****         DelayMs(200);
 343              		.loc 1 2072 0
 344 01fa C820     		movs	r0, #200
 345 01fc FFF7FEFF 		bl	DelayMs
 346              	.LVL29:
 347 0200 21E0     		b	.L21
 348              	.L59:
 349 0202 00BF     		.align	2
 350              	.L58:
 351 0204 00000000 		.word	.LANCHOR0
 352              	.L17:
2061:drivers/inv_mpu.c ****     if (I2C_Write(st.hw->addr, st.reg->gyro_cfg, 1, data))
 353              		.loc 1 2061 0
 354 0208 BD4A     		ldr	r2, .L60
 355 020a 936A     		ldr	r3, [r2, #40]
 356 020c 997A     		ldrb	r1, [r3, #10]	@ zero_extendqisi2
 357 020e 04AB     		add	r3, sp, #16
 358 0210 03F80C1D 		strb	r1, [r3, #-12]!
2062:drivers/inv_mpu.c ****         return -1;
 359              		.loc 1 2062 0
 360 0214 1168     		ldr	r1, [r2]
 361 0216 5068     		ldr	r0, [r2, #4]
 362 0218 0122     		movs	r2, #1
 363 021a 8979     		ldrb	r1, [r1, #6]	@ zero_extendqisi2
 364 021c 0078     		ldrb	r0, [r0]	@ zero_extendqisi2
 365 021e FFF7FEFF 		bl	I2C_Write
ARM GAS  /tmp/cc18izUm.s 			page 44


 366              	.LVL30:
 367 0222 0028     		cmp	r0, #0
 368 0224 40F05481 		bne	.L53
2068:drivers/inv_mpu.c ****     if (I2C_Write(st.hw->addr, st.reg->accel_cfg, 1, data))
 369              		.loc 1 2068 0
 370 0228 04AB     		add	r3, sp, #16
 371 022a 1822     		movs	r2, #24
 372 022c 03F80C2D 		strb	r2, [r3, #-12]!
2069:drivers/inv_mpu.c ****         return -1;
 373              		.loc 1 2069 0
 374 0230 B34A     		ldr	r2, .L60
 375 0232 1168     		ldr	r1, [r2]
 376 0234 5068     		ldr	r0, [r2, #4]
 377 0236 0122     		movs	r2, #1
 378 0238 C979     		ldrb	r1, [r1, #7]	@ zero_extendqisi2
 379 023a 0078     		ldrb	r0, [r0]	@ zero_extendqisi2
 380 023c FFF7FEFF 		bl	I2C_Write
 381              	.LVL31:
 382 0240 0028     		cmp	r0, #0
 383 0242 40F04B81 		bne	.L54
 384              	.L21:
2073:drivers/inv_mpu.c **** 
2074:drivers/inv_mpu.c ****     /* Fill FIFO for test.wait_ms milliseconds. */
2075:drivers/inv_mpu.c ****     data[0] = BIT_FIFO_EN;
 385              		.loc 1 2075 0
 386 0246 04AB     		add	r3, sp, #16
 387 0248 4022     		movs	r2, #64
 388 024a 03F80C2D 		strb	r2, [r3, #-12]!
2076:drivers/inv_mpu.c ****     if (I2C_Write(st.hw->addr, st.reg->user_ctrl, 1, data))
 389              		.loc 1 2076 0
 390 024e AC4A     		ldr	r2, .L60
 391 0250 1168     		ldr	r1, [r2]
 392 0252 5068     		ldr	r0, [r2, #4]
 393 0254 0122     		movs	r2, #1
 394 0256 0979     		ldrb	r1, [r1, #4]	@ zero_extendqisi2
 395 0258 0078     		ldrb	r0, [r0]	@ zero_extendqisi2
 396 025a FFF7FEFF 		bl	I2C_Write
 397              	.LVL32:
 398 025e 0028     		cmp	r0, #0
 399 0260 40F03F81 		bne	.L41
2077:drivers/inv_mpu.c ****         return -1;
2078:drivers/inv_mpu.c **** 
2079:drivers/inv_mpu.c ****     data[0] = INV_XYZ_GYRO | INV_XYZ_ACCEL;
 400              		.loc 1 2079 0
 401 0264 04AB     		add	r3, sp, #16
 402 0266 7822     		movs	r2, #120
 403 0268 03F80C2D 		strb	r2, [r3, #-12]!
2080:drivers/inv_mpu.c ****     if (I2C_Write(st.hw->addr, st.reg->fifo_en, 1, data))
 404              		.loc 1 2080 0
 405 026c A44A     		ldr	r2, .L60
 406 026e 1168     		ldr	r1, [r2]
 407 0270 5068     		ldr	r0, [r2, #4]
 408 0272 0122     		movs	r2, #1
 409 0274 4979     		ldrb	r1, [r1, #5]	@ zero_extendqisi2
 410 0276 0078     		ldrb	r0, [r0]	@ zero_extendqisi2
 411 0278 FFF7FEFF 		bl	I2C_Write
 412              	.LVL33:
ARM GAS  /tmp/cc18izUm.s 			page 45


 413 027c 0028     		cmp	r0, #0
 414 027e 40F03381 		bne	.L42
2081:drivers/inv_mpu.c ****         return -1;
2082:drivers/inv_mpu.c ****     DelayMs(test.wait_ms);
 415              		.loc 1 2082 0
 416 0282 3220     		movs	r0, #50
 417 0284 FFF7FEFF 		bl	DelayMs
 418              	.LVL34:
2083:drivers/inv_mpu.c ****     data[0] = 0;
 419              		.loc 1 2083 0
 420 0288 04AB     		add	r3, sp, #16
 421 028a 0022     		movs	r2, #0
 422 028c 03F80C2D 		strb	r2, [r3, #-12]!
2084:drivers/inv_mpu.c ****     if (I2C_Write(st.hw->addr, st.reg->fifo_en, 1, data))
 423              		.loc 1 2084 0
 424 0290 9B4A     		ldr	r2, .L60
 425 0292 1168     		ldr	r1, [r2]
 426 0294 5068     		ldr	r0, [r2, #4]
 427 0296 0122     		movs	r2, #1
 428 0298 4979     		ldrb	r1, [r1, #5]	@ zero_extendqisi2
 429 029a 0078     		ldrb	r0, [r0]	@ zero_extendqisi2
 430 029c FFF7FEFF 		bl	I2C_Write
 431              	.LVL35:
 432 02a0 0028     		cmp	r0, #0
 433 02a2 40F02481 		bne	.L43
2085:drivers/inv_mpu.c ****         return -1;
2086:drivers/inv_mpu.c **** 
2087:drivers/inv_mpu.c ****     if (I2C_Read(st.hw->addr, st.reg->fifo_count_h, 2, data))
 434              		.loc 1 2087 0
 435 02a6 964B     		ldr	r3, .L60
 436 02a8 1968     		ldr	r1, [r3]
 437 02aa 5868     		ldr	r0, [r3, #4]
 438 02ac 01AB     		add	r3, sp, #4
 439 02ae 0222     		movs	r2, #2
 440 02b0 897A     		ldrb	r1, [r1, #10]	@ zero_extendqisi2
 441 02b2 0078     		ldrb	r0, [r0]	@ zero_extendqisi2
 442 02b4 FFF7FEFF 		bl	I2C_Read
 443              	.LVL36:
 444 02b8 0028     		cmp	r0, #0
 445 02ba 40F01B81 		bne	.L44
 446              	.LVL37:
2088:drivers/inv_mpu.c ****         return -1;
2089:drivers/inv_mpu.c **** 
2090:drivers/inv_mpu.c ****     fifo_count = (data[0] << 8) | data[1];
 447              		.loc 1 2090 0
 448 02be 9DF80430 		ldrb	r3, [sp, #4]	@ zero_extendqisi2
 449 02c2 9DF80580 		ldrb	r8, [sp, #5]	@ zero_extendqisi2
2091:drivers/inv_mpu.c ****     packet_count = fifo_count / MAX_PACKET_LENGTH;
 450              		.loc 1 2091 0
 451 02c6 48EA0328 		orr	r8, r8, r3, lsl #8
 452 02ca 8E4B     		ldr	r3, .L60+4
 453 02cc A3FB0838 		umull	r3, r8, r3, r8
 454 02d0 C8F3C708 		ubfx	r8, r8, #3, #8
 455              	.LVL38:
2092:drivers/inv_mpu.c ****     gyro[0] = gyro[1] = gyro[2] = 0;
 456              		.loc 1 2092 0
 457 02d4 0023     		movs	r3, #0
ARM GAS  /tmp/cc18izUm.s 			page 46


 458 02d6 AB60     		str	r3, [r5, #8]
 459 02d8 6B60     		str	r3, [r5, #4]
 460 02da 2B60     		str	r3, [r5]
2093:drivers/inv_mpu.c ****     accel[0] = accel[1] = accel[2] = 0;
 461              		.loc 1 2093 0
 462 02dc A360     		str	r3, [r4, #8]
 463 02de 6360     		str	r3, [r4, #4]
 464 02e0 2360     		str	r3, [r4]
 465              	.LVL39:
2094:drivers/inv_mpu.c **** 
2095:drivers/inv_mpu.c ****     for (ii = 0; ii < packet_count; ii++) {
 466              		.loc 1 2095 0
 467 02e2 B8F1000F 		cmp	r8, #0
 468 02e6 4ED0     		beq	.L22
 469 02e8 1E46     		mov	r6, r3
 470              	.LBB2:
2096:drivers/inv_mpu.c ****         short accel_cur[3], gyro_cur[3];
2097:drivers/inv_mpu.c ****         if (I2C_Read(st.hw->addr, st.reg->fifo_r_w, MAX_PACKET_LENGTH, data))
 471              		.loc 1 2097 0
 472 02ea 854F     		ldr	r7, .L60
 473 02ec 4FF00C09 		mov	r9, #12
 474              	.LVL40:
 475              	.L23:
 476 02f0 3968     		ldr	r1, [r7]
 477 02f2 7868     		ldr	r0, [r7, #4]
 478 02f4 01AB     		add	r3, sp, #4
 479 02f6 4A46     		mov	r2, r9
 480 02f8 C97A     		ldrb	r1, [r1, #11]	@ zero_extendqisi2
 481 02fa 0078     		ldrb	r0, [r0]	@ zero_extendqisi2
 482 02fc FFF7FEFF 		bl	I2C_Read
 483              	.LVL41:
 484 0300 0028     		cmp	r0, #0
 485 0302 40F0FA80 		bne	.L45
 486              	.LVL42:
2098:drivers/inv_mpu.c ****             return -1;
2099:drivers/inv_mpu.c ****         accel_cur[0] = ((short)data[0] << 8) | data[1];
2100:drivers/inv_mpu.c ****         accel_cur[1] = ((short)data[2] << 8) | data[3];
 487              		.loc 1 2100 0
 488 0306 9DF80630 		ldrb	r3, [sp, #6]	@ zero_extendqisi2
 489 030a 9DF80720 		ldrb	r2, [sp, #7]	@ zero_extendqisi2
 490 030e 42EA0322 		orr	r2, r2, r3, lsl #8
 491 0312 12B2     		sxth	r2, r2
 492              	.LVL43:
2101:drivers/inv_mpu.c ****         accel_cur[2] = ((short)data[4] << 8) | data[5];
 493              		.loc 1 2101 0
 494 0314 9DF80810 		ldrb	r1, [sp, #8]	@ zero_extendqisi2
 495 0318 9DF80930 		ldrb	r3, [sp, #9]	@ zero_extendqisi2
 496 031c 43EA0123 		orr	r3, r3, r1, lsl #8
 497 0320 1BB2     		sxth	r3, r3
 498              	.LVL44:
2099:drivers/inv_mpu.c ****         accel_cur[1] = ((short)data[2] << 8) | data[3];
 499              		.loc 1 2099 0
 500 0322 9DF80400 		ldrb	r0, [sp, #4]	@ zero_extendqisi2
 501 0326 9DF80510 		ldrb	r1, [sp, #5]	@ zero_extendqisi2
 502 032a 41EA0021 		orr	r1, r1, r0, lsl #8
2102:drivers/inv_mpu.c ****         accel[0] += (long)accel_cur[0];
 503              		.loc 1 2102 0
ARM GAS  /tmp/cc18izUm.s 			page 47


 504 032e 09B2     		sxth	r1, r1
 505 0330 2068     		ldr	r0, [r4]
 506 0332 0144     		add	r1, r1, r0
 507 0334 2160     		str	r1, [r4]
2103:drivers/inv_mpu.c ****         accel[1] += (long)accel_cur[1];
 508              		.loc 1 2103 0
 509 0336 6168     		ldr	r1, [r4, #4]
 510 0338 0A44     		add	r2, r2, r1
 511              	.LVL45:
 512 033a 6260     		str	r2, [r4, #4]
2104:drivers/inv_mpu.c ****         accel[2] += (long)accel_cur[2];
 513              		.loc 1 2104 0
 514 033c A268     		ldr	r2, [r4, #8]
 515 033e 1344     		add	r3, r3, r2
 516              	.LVL46:
 517 0340 A360     		str	r3, [r4, #8]
 518              	.LVL47:
2105:drivers/inv_mpu.c ****         gyro_cur[0] = (((short)data[6] << 8) | data[7]);
2106:drivers/inv_mpu.c ****         gyro_cur[1] = (((short)data[8] << 8) | data[9]);
 519              		.loc 1 2106 0
 520 0342 9DF80C30 		ldrb	r3, [sp, #12]	@ zero_extendqisi2
 521 0346 9DF80D10 		ldrb	r1, [sp, #13]	@ zero_extendqisi2
 522 034a 41EA0321 		orr	r1, r1, r3, lsl #8
 523 034e 09B2     		sxth	r1, r1
 524              	.LVL48:
2107:drivers/inv_mpu.c ****         gyro_cur[2] = (((short)data[10] << 8) | data[11]);
 525              		.loc 1 2107 0
 526 0350 9DF80E20 		ldrb	r2, [sp, #14]	@ zero_extendqisi2
 527 0354 9DF80F30 		ldrb	r3, [sp, #15]	@ zero_extendqisi2
 528 0358 43EA0223 		orr	r3, r3, r2, lsl #8
 529 035c 1BB2     		sxth	r3, r3
 530              	.LVL49:
2105:drivers/inv_mpu.c ****         gyro_cur[0] = (((short)data[6] << 8) | data[7]);
 531              		.loc 1 2105 0
 532 035e 9DF80A00 		ldrb	r0, [sp, #10]	@ zero_extendqisi2
 533 0362 9DF80B20 		ldrb	r2, [sp, #11]	@ zero_extendqisi2
 534 0366 42EA0022 		orr	r2, r2, r0, lsl #8
2108:drivers/inv_mpu.c ****         gyro[0] += (long)gyro_cur[0];
 535              		.loc 1 2108 0
 536 036a 12B2     		sxth	r2, r2
 537 036c 2868     		ldr	r0, [r5]
 538 036e 0244     		add	r2, r2, r0
 539 0370 2A60     		str	r2, [r5]
2109:drivers/inv_mpu.c ****         gyro[1] += (long)gyro_cur[1];
 540              		.loc 1 2109 0
 541 0372 6A68     		ldr	r2, [r5, #4]
 542 0374 1144     		add	r1, r1, r2
 543              	.LVL50:
 544 0376 6960     		str	r1, [r5, #4]
2110:drivers/inv_mpu.c ****         gyro[2] += (long)gyro_cur[2];
 545              		.loc 1 2110 0
 546 0378 AA68     		ldr	r2, [r5, #8]
 547 037a 1344     		add	r3, r3, r2
 548              	.LVL51:
 549 037c AB60     		str	r3, [r5, #8]
 550              	.LVL52:
 551 037e 0136     		adds	r6, r6, #1
ARM GAS  /tmp/cc18izUm.s 			page 48


 552              	.LVL53:
 553              	.LBE2:
2095:drivers/inv_mpu.c ****         short accel_cur[3], gyro_cur[3];
 554              		.loc 1 2095 0
 555 0380 F3B2     		uxtb	r3, r6
 556 0382 9845     		cmp	r8, r3
 557 0384 B4D8     		bhi	.L23
 558              	.LVL54:
 559              	.L22:
2111:drivers/inv_mpu.c ****     }
2112:drivers/inv_mpu.c **** #ifdef EMPL_NO_64BIT
2113:drivers/inv_mpu.c ****     gyro[0] = (long)(((float)gyro[0]*65536.f) / test.gyro_sens / packet_count);
2114:drivers/inv_mpu.c ****     gyro[1] = (long)(((float)gyro[1]*65536.f) / test.gyro_sens / packet_count);
2115:drivers/inv_mpu.c ****     gyro[2] = (long)(((float)gyro[2]*65536.f) / test.gyro_sens / packet_count);
2116:drivers/inv_mpu.c ****     if (has_accel) {
2117:drivers/inv_mpu.c ****         accel[0] = (long)(((float)accel[0]*65536.f) / test.accel_sens /
2118:drivers/inv_mpu.c ****             packet_count);
2119:drivers/inv_mpu.c ****         accel[1] = (long)(((float)accel[1]*65536.f) / test.accel_sens /
2120:drivers/inv_mpu.c ****             packet_count);
2121:drivers/inv_mpu.c ****         accel[2] = (long)(((float)accel[2]*65536.f) / test.accel_sens /
2122:drivers/inv_mpu.c ****             packet_count);
2123:drivers/inv_mpu.c ****         /* Don't remove gravity! */
2124:drivers/inv_mpu.c ****         accel[2] -= 65536L;
2125:drivers/inv_mpu.c ****     }
2126:drivers/inv_mpu.c **** #else
2127:drivers/inv_mpu.c ****     gyro[0] = (long)(((long long)gyro[0]<<16) / test.gyro_sens / packet_count);
 560              		.loc 1 2127 0
 561 0386 5FFA88F8 		uxtb	r8, r8
 562 038a 4FF00009 		mov	r9, #0
 563 038e 2968     		ldr	r1, [r5]
 564 0390 CB17     		asrs	r3, r1, #31
 565 0392 1E04     		lsls	r6, r3, #16
 566 0394 8322     		movs	r2, #131
 567 0396 0023     		movs	r3, #0
 568 0398 0804     		lsls	r0, r1, #16
 569 039a 46EA1141 		orr	r1, r6, r1, lsr #16
 570 039e FFF7FEFF 		bl	__aeabi_ldivmod
 571              	.LVL55:
 572 03a2 4246     		mov	r2, r8
 573 03a4 4B46     		mov	r3, r9
 574 03a6 FFF7FEFF 		bl	__aeabi_ldivmod
 575              	.LVL56:
 576 03aa 2860     		str	r0, [r5]
2128:drivers/inv_mpu.c ****     gyro[1] = (long)(((long long)gyro[1]<<16) / test.gyro_sens / packet_count);
 577              		.loc 1 2128 0
 578 03ac 6968     		ldr	r1, [r5, #4]
 579 03ae CB17     		asrs	r3, r1, #31
 580 03b0 1E04     		lsls	r6, r3, #16
 581 03b2 8322     		movs	r2, #131
 582 03b4 0023     		movs	r3, #0
 583 03b6 0804     		lsls	r0, r1, #16
 584 03b8 46EA1141 		orr	r1, r6, r1, lsr #16
 585 03bc FFF7FEFF 		bl	__aeabi_ldivmod
 586              	.LVL57:
 587 03c0 4246     		mov	r2, r8
 588 03c2 4B46     		mov	r3, r9
 589 03c4 FFF7FEFF 		bl	__aeabi_ldivmod
ARM GAS  /tmp/cc18izUm.s 			page 49


 590              	.LVL58:
 591 03c8 6860     		str	r0, [r5, #4]
2129:drivers/inv_mpu.c ****     gyro[2] = (long)(((long long)gyro[2]<<16) / test.gyro_sens / packet_count);
 592              		.loc 1 2129 0
 593 03ca A968     		ldr	r1, [r5, #8]
 594 03cc CB17     		asrs	r3, r1, #31
 595 03ce 1E04     		lsls	r6, r3, #16
 596 03d0 8322     		movs	r2, #131
 597 03d2 0023     		movs	r3, #0
 598 03d4 0804     		lsls	r0, r1, #16
 599 03d6 46EA1141 		orr	r1, r6, r1, lsr #16
 600 03da FFF7FEFF 		bl	__aeabi_ldivmod
 601              	.LVL59:
 602 03de 4246     		mov	r2, r8
 603 03e0 4B46     		mov	r3, r9
 604 03e2 FFF7FEFF 		bl	__aeabi_ldivmod
 605              	.LVL60:
 606 03e6 A860     		str	r0, [r5, #8]
2130:drivers/inv_mpu.c ****     accel[0] = (long)(((long long)accel[0]<<16) / test.accel_sens /
 607              		.loc 1 2130 0
 608 03e8 2368     		ldr	r3, [r4]
 609 03ea D917     		asrs	r1, r3, #31
 610 03ec 0A04     		lsls	r2, r1, #16
 611 03ee 1E04     		lsls	r6, r3, #16
 612 03f0 42EA1347 		orr	r7, r2, r3, lsr #16
 613 03f4 002E     		cmp	r6, #0
 614 03f6 77F10003 		sbcs	r3, r7, #0
 615 03fa 39DB     		blt	.L55
 616              	.L24:
 617 03fc F00A     		lsrs	r0, r6, #11
 618 03fe 4246     		mov	r2, r8
 619 0400 4B46     		mov	r3, r9
 620 0402 40EA4750 		orr	r0, r0, r7, lsl #21
 621 0406 F912     		asrs	r1, r7, #11
 622 0408 FFF7FEFF 		bl	__aeabi_ldivmod
 623              	.LVL61:
 624 040c 2060     		str	r0, [r4]
2131:drivers/inv_mpu.c ****         packet_count);
2132:drivers/inv_mpu.c ****     accel[1] = (long)(((long long)accel[1]<<16) / test.accel_sens /
 625              		.loc 1 2132 0
 626 040e 6368     		ldr	r3, [r4, #4]
 627 0410 D917     		asrs	r1, r3, #31
 628 0412 0A04     		lsls	r2, r1, #16
 629 0414 1E04     		lsls	r6, r3, #16
 630 0416 42EA1347 		orr	r7, r2, r3, lsr #16
 631 041a 002E     		cmp	r6, #0
 632 041c 77F10003 		sbcs	r3, r7, #0
 633 0420 2CDB     		blt	.L56
 634              	.L25:
 635 0422 F00A     		lsrs	r0, r6, #11
 636 0424 4246     		mov	r2, r8
 637 0426 4B46     		mov	r3, r9
 638 0428 40EA4750 		orr	r0, r0, r7, lsl #21
 639 042c F912     		asrs	r1, r7, #11
 640 042e FFF7FEFF 		bl	__aeabi_ldivmod
 641              	.LVL62:
 642 0432 6060     		str	r0, [r4, #4]
ARM GAS  /tmp/cc18izUm.s 			page 50


2133:drivers/inv_mpu.c ****         packet_count);
2134:drivers/inv_mpu.c ****     accel[2] = (long)(((long long)accel[2]<<16) / test.accel_sens /
 643              		.loc 1 2134 0
 644 0434 A368     		ldr	r3, [r4, #8]
 645 0436 D917     		asrs	r1, r3, #31
 646 0438 0A04     		lsls	r2, r1, #16
 647 043a 1E04     		lsls	r6, r3, #16
 648 043c 42EA1347 		orr	r7, r2, r3, lsr #16
 649 0440 002E     		cmp	r6, #0
 650 0442 77F10003 		sbcs	r3, r7, #0
 651 0446 1FDB     		blt	.L57
 652              	.L26:
 653 0448 F00A     		lsrs	r0, r6, #11
 654 044a 4246     		mov	r2, r8
 655 044c 4B46     		mov	r3, r9
 656 044e 40EA4750 		orr	r0, r0, r7, lsl #21
 657 0452 F912     		asrs	r1, r7, #11
 658 0454 FFF7FEFF 		bl	__aeabi_ldivmod
 659              	.LVL63:
 660 0458 A060     		str	r0, [r4, #8]
2135:drivers/inv_mpu.c ****         packet_count);
2136:drivers/inv_mpu.c ****     /* Don't remove gravity! */
2137:drivers/inv_mpu.c ****     if (accel[2] > 0L)
 661              		.loc 1 2137 0
 662 045a 0028     		cmp	r0, #0
2138:drivers/inv_mpu.c ****         accel[2] -= 65536L;
 663              		.loc 1 2138 0
 664 045c CCBF     		ite	gt
 665 045e A0F58030 		subgt	r0, r0, #65536
2139:drivers/inv_mpu.c ****     else
2140:drivers/inv_mpu.c ****         accel[2] += 65536L;
 666              		.loc 1 2140 0
 667 0462 00F58030 		addle	r0, r0, #65536
 668 0466 A060     		str	r0, [r4, #8]
2141:drivers/inv_mpu.c **** #endif
2142:drivers/inv_mpu.c **** 
2143:drivers/inv_mpu.c ****     return 0;
 669              		.loc 1 2143 0
 670 0468 0020     		movs	r0, #0
 671              	.LVL64:
 672              	.L15:
2144:drivers/inv_mpu.c **** }
 673              		.loc 1 2144 0
 674 046a 05B0     		add	sp, sp, #20
 675              		.cfi_remember_state
 676              		.cfi_def_cfa_offset 28
 677              		@ sp needed
 678 046c BDE8F083 		pop	{r4, r5, r6, r7, r8, r9, pc}
 679              	.LVL65:
 680              	.L55:
 681              		.cfi_restore_state
2130:drivers/inv_mpu.c ****         packet_count);
 682              		.loc 1 2130 0
 683 0470 40F2FF72 		movw	r2, #2047
 684 0474 0023     		movs	r3, #0
 685 0476 B618     		adds	r6, r6, r2
 686 0478 5F41     		adcs	r7, r7, r3
ARM GAS  /tmp/cc18izUm.s 			page 51


 687 047a BFE7     		b	.L24
 688              	.L56:
2132:drivers/inv_mpu.c ****         packet_count);
 689              		.loc 1 2132 0
 690 047c 40F2FF72 		movw	r2, #2047
 691 0480 0023     		movs	r3, #0
 692 0482 B618     		adds	r6, r6, r2
 693 0484 5F41     		adcs	r7, r7, r3
 694 0486 CCE7     		b	.L25
 695              	.L57:
2134:drivers/inv_mpu.c ****         packet_count);
 696              		.loc 1 2134 0
 697 0488 40F2FF72 		movw	r2, #2047
 698 048c 0023     		movs	r3, #0
 699 048e B618     		adds	r6, r6, r2
 700 0490 5F41     		adcs	r7, r7, r3
 701 0492 D9E7     		b	.L26
 702              	.LVL66:
 703              	.L28:
2035:drivers/inv_mpu.c ****     DelayMs(200);
 704              		.loc 1 2035 0
 705 0494 4FF0FF30 		mov	r0, #-1
 706 0498 E7E7     		b	.L15
 707              	.L29:
2039:drivers/inv_mpu.c ****     if (I2C_Write(st.hw->addr, st.reg->fifo_en, 1, data))
 708              		.loc 1 2039 0
 709 049a 4FF0FF30 		mov	r0, #-1
 710 049e E4E7     		b	.L15
 711              	.L30:
2041:drivers/inv_mpu.c ****     if (I2C_Write(st.hw->addr, st.reg->pwr_mgmt_1, 1, data))
 712              		.loc 1 2041 0
 713 04a0 4FF0FF30 		mov	r0, #-1
 714 04a4 E1E7     		b	.L15
 715              	.L31:
2043:drivers/inv_mpu.c ****     if (I2C_Write(st.hw->addr, st.reg->i2c_mst, 1, data))
 716              		.loc 1 2043 0
 717 04a6 4FF0FF30 		mov	r0, #-1
 718 04aa DEE7     		b	.L15
 719              	.L32:
2045:drivers/inv_mpu.c ****     if (I2C_Write(st.hw->addr, st.reg->user_ctrl, 1, data))
 720              		.loc 1 2045 0
 721 04ac 4FF0FF30 		mov	r0, #-1
 722 04b0 DBE7     		b	.L15
 723              	.L33:
2047:drivers/inv_mpu.c ****     data[0] = BIT_FIFO_RST | BIT_DMP_RST;
 724              		.loc 1 2047 0
 725 04b2 4FF0FF30 		mov	r0, #-1
 726 04b6 D8E7     		b	.L15
 727              	.L34:
2050:drivers/inv_mpu.c ****     DelayMs(15);
 728              		.loc 1 2050 0
 729 04b8 4FF0FF30 		mov	r0, #-1
 730 04bc D5E7     		b	.L15
 731              	.L35:
2054:drivers/inv_mpu.c ****     data[0] = st.test->reg_rate_div;
 732              		.loc 1 2054 0
 733 04be 4FF0FF30 		mov	r0, #-1
ARM GAS  /tmp/cc18izUm.s 			page 52


 734 04c2 D2E7     		b	.L15
 735              	.L36:
2057:drivers/inv_mpu.c ****     if (hw_test)
 736              		.loc 1 2057 0
 737 04c4 4FF0FF30 		mov	r0, #-1
 738 04c8 CFE7     		b	.L15
 739              	.L51:
2063:drivers/inv_mpu.c **** 
 740              		.loc 1 2063 0
 741 04ca 4FF0FF30 		mov	r0, #-1
 742 04ce CCE7     		b	.L15
 743              	.L53:
 744 04d0 4FF0FF30 		mov	r0, #-1
 745 04d4 C9E7     		b	.L15
 746              	.L52:
2070:drivers/inv_mpu.c ****     if (hw_test)
 747              		.loc 1 2070 0
 748 04d6 4FF0FF30 		mov	r0, #-1
 749 04da C6E7     		b	.L15
 750              	.L54:
 751 04dc 4FF0FF30 		mov	r0, #-1
 752 04e0 C3E7     		b	.L15
 753              	.L41:
2077:drivers/inv_mpu.c **** 
 754              		.loc 1 2077 0
 755 04e2 4FF0FF30 		mov	r0, #-1
 756 04e6 C0E7     		b	.L15
 757              	.L42:
2081:drivers/inv_mpu.c ****     DelayMs(test.wait_ms);
 758              		.loc 1 2081 0
 759 04e8 4FF0FF30 		mov	r0, #-1
 760 04ec BDE7     		b	.L15
 761              	.L43:
2085:drivers/inv_mpu.c **** 
 762              		.loc 1 2085 0
 763 04ee 4FF0FF30 		mov	r0, #-1
 764 04f2 BAE7     		b	.L15
 765              	.L44:
2088:drivers/inv_mpu.c **** 
 766              		.loc 1 2088 0
 767 04f4 4FF0FF30 		mov	r0, #-1
 768 04f8 B7E7     		b	.L15
 769              	.LVL67:
 770              	.L45:
 771              	.LBB3:
2098:drivers/inv_mpu.c ****         accel_cur[0] = ((short)data[0] << 8) | data[1];
 772              		.loc 1 2098 0
 773 04fa 4FF0FF30 		mov	r0, #-1
 774 04fe B4E7     		b	.L15
 775              	.L61:
 776              		.align	2
 777              	.L60:
 778 0500 00000000 		.word	.LANCHOR0
 779 0504 ABAAAAAA 		.word	-1431655765
 780              	.LBE3:
 781              		.cfi_endproc
 782              	.LFE99:
ARM GAS  /tmp/cc18izUm.s 			page 53


 783              		.size	get_st_biases, .-get_st_biases
 784              		.align	1
 785              		.global	mpu_reg_dump
 786              		.syntax unified
 787              		.thumb
 788              		.thumb_func
 789              		.fpu softvfp
 790              		.type	mpu_reg_dump, %function
 791              	mpu_reg_dump:
 792              	.LFB65:
 712:drivers/inv_mpu.c ****     unsigned char ii;
 793              		.loc 1 712 0
 794              		.cfi_startproc
 795              		@ args = 0, pretend = 0, frame = 8
 796              		@ frame_needed = 0, uses_anonymous_args = 0
 797              	.LVL68:
 716:drivers/inv_mpu.c ****         if (ii == st.reg->fifo_r_w || ii == st.reg->mem_r_w)
 798              		.loc 1 716 0
 799 0508 134B     		ldr	r3, .L74
 800 050a 5868     		ldr	r0, [r3, #4]
 801 050c 0379     		ldrb	r3, [r0, #4]	@ zero_extendqisi2
 802 050e 0BB3     		cbz	r3, .L66
 712:drivers/inv_mpu.c ****     unsigned char ii;
 803              		.loc 1 712 0
 804 0510 70B5     		push	{r4, r5, r6, lr}
 805              		.cfi_def_cfa_offset 16
 806              		.cfi_offset 4, -16
 807              		.cfi_offset 5, -12
 808              		.cfi_offset 6, -8
 809              		.cfi_offset 14, -4
 810 0512 82B0     		sub	sp, sp, #8
 811              		.cfi_def_cfa_offset 24
 716:drivers/inv_mpu.c ****         if (ii == st.reg->fifo_r_w || ii == st.reg->mem_r_w)
 812              		.loc 1 716 0
 813 0514 0024     		movs	r4, #0
 717:drivers/inv_mpu.c ****             continue;
 814              		.loc 1 717 0
 815 0516 104D     		ldr	r5, .L74
 719:drivers/inv_mpu.c ****             return -1;
 816              		.loc 1 719 0
 817 0518 0126     		movs	r6, #1
 818 051a 05E0     		b	.L65
 819              	.LVL69:
 820              	.L64:
 716:drivers/inv_mpu.c ****         if (ii == st.reg->fifo_r_w || ii == st.reg->mem_r_w)
 821              		.loc 1 716 0 discriminator 2
 822 051c 0134     		adds	r4, r4, #1
 823              	.LVL70:
 824 051e E4B2     		uxtb	r4, r4
 825              	.LVL71:
 826 0520 6868     		ldr	r0, [r5, #4]
 827 0522 0379     		ldrb	r3, [r0, #4]	@ zero_extendqisi2
 828 0524 A342     		cmp	r3, r4
 829 0526 12D9     		bls	.L73
 830              	.LVL72:
 831              	.L65:
 717:drivers/inv_mpu.c ****             continue;
ARM GAS  /tmp/cc18izUm.s 			page 54


 832              		.loc 1 717 0
 833 0528 2B68     		ldr	r3, [r5]
 834 052a DA7A     		ldrb	r2, [r3, #11]	@ zero_extendqisi2
 835 052c A242     		cmp	r2, r4
 836 052e F5D0     		beq	.L64
 717:drivers/inv_mpu.c ****             continue;
 837              		.loc 1 717 0 is_stmt 0 discriminator 1
 838 0530 5B7D     		ldrb	r3, [r3, #21]	@ zero_extendqisi2
 839 0532 A342     		cmp	r3, r4
 840 0534 F2D0     		beq	.L64
 719:drivers/inv_mpu.c ****             return -1;
 841              		.loc 1 719 0 is_stmt 1
 842 0536 0DF10703 		add	r3, sp, #7
 843 053a 3246     		mov	r2, r6
 844 053c 2146     		mov	r1, r4
 845 053e 0078     		ldrb	r0, [r0]	@ zero_extendqisi2
 846 0540 FFF7FEFF 		bl	I2C_Read
 847              	.LVL73:
 848 0544 0028     		cmp	r0, #0
 849 0546 E9D0     		beq	.L64
 720:drivers/inv_mpu.c ****         //log_i("%#5x: %#5x\r\n", ii, data);
 850              		.loc 1 720 0
 851 0548 4FF0FF30 		mov	r0, #-1
 852 054c 00E0     		b	.L62
 853              	.L73:
 723:drivers/inv_mpu.c **** }
 854              		.loc 1 723 0
 855 054e 0020     		movs	r0, #0
 856              	.L62:
 724:drivers/inv_mpu.c **** 
 857              		.loc 1 724 0
 858 0550 02B0     		add	sp, sp, #8
 859              		.cfi_def_cfa_offset 16
 860              		@ sp needed
 861 0552 70BD     		pop	{r4, r5, r6, pc}
 862              	.LVL74:
 863              	.L66:
 864              		.cfi_def_cfa_offset 0
 865              		.cfi_restore 4
 866              		.cfi_restore 5
 867              		.cfi_restore 6
 868              		.cfi_restore 14
 723:drivers/inv_mpu.c **** }
 869              		.loc 1 723 0
 870 0554 0020     		movs	r0, #0
 871 0556 7047     		bx	lr
 872              	.L75:
 873              		.align	2
 874              	.L74:
 875 0558 00000000 		.word	.LANCHOR0
 876              		.cfi_endproc
 877              	.LFE65:
 878              		.size	mpu_reg_dump, .-mpu_reg_dump
 879              		.align	1
 880              		.global	mpu_read_reg
 881              		.syntax unified
 882              		.thumb
ARM GAS  /tmp/cc18izUm.s 			page 55


 883              		.thumb_func
 884              		.fpu softvfp
 885              		.type	mpu_read_reg, %function
 886              	mpu_read_reg:
 887              	.LFB66:
 734:drivers/inv_mpu.c ****     if (reg == st.reg->fifo_r_w || reg == st.reg->mem_r_w)
 888              		.loc 1 734 0
 889              		.cfi_startproc
 890              		@ args = 0, pretend = 0, frame = 0
 891              		@ frame_needed = 0, uses_anonymous_args = 0
 892              	.LVL75:
 735:drivers/inv_mpu.c ****         return -1;
 893              		.loc 1 735 0
 894 055c 0E4B     		ldr	r3, .L85
 895 055e 1B68     		ldr	r3, [r3]
 896 0560 DA7A     		ldrb	r2, [r3, #11]	@ zero_extendqisi2
 897 0562 8242     		cmp	r2, r0
 898 0564 0FD0     		beq	.L78
 735:drivers/inv_mpu.c ****         return -1;
 899              		.loc 1 735 0 is_stmt 0 discriminator 1
 900 0566 5B7D     		ldrb	r3, [r3, #21]	@ zero_extendqisi2
 901 0568 8342     		cmp	r3, r0
 902 056a 0FD0     		beq	.L79
 734:drivers/inv_mpu.c ****     if (reg == st.reg->fifo_r_w || reg == st.reg->mem_r_w)
 903              		.loc 1 734 0 is_stmt 1
 904 056c 10B5     		push	{r4, lr}
 905              		.cfi_def_cfa_offset 8
 906              		.cfi_offset 4, -8
 907              		.cfi_offset 14, -4
 737:drivers/inv_mpu.c ****         return -1;
 908              		.loc 1 737 0
 909 056e 0A4B     		ldr	r3, .L85
 910 0570 5C68     		ldr	r4, [r3, #4]
 911 0572 2379     		ldrb	r3, [r4, #4]	@ zero_extendqisi2
 912 0574 8342     		cmp	r3, r0
 913 0576 0CD9     		bls	.L80
 914 0578 0B46     		mov	r3, r1
 915 057a 0146     		mov	r1, r0
 916              	.LVL76:
 739:drivers/inv_mpu.c **** }
 917              		.loc 1 739 0
 918 057c 0122     		movs	r2, #1
 919 057e 2078     		ldrb	r0, [r4]	@ zero_extendqisi2
 920              	.LVL77:
 921 0580 FFF7FEFF 		bl	I2C_Read
 922              	.LVL78:
 923 0584 10BD     		pop	{r4, pc}
 924              	.LVL79:
 925              	.L78:
 926              		.cfi_def_cfa_offset 0
 927              		.cfi_restore 4
 928              		.cfi_restore 14
 736:drivers/inv_mpu.c ****     if (reg >= st.hw->num_reg)
 929              		.loc 1 736 0
 930 0586 4FF0FF30 		mov	r0, #-1
 931              	.LVL80:
 932 058a 7047     		bx	lr
ARM GAS  /tmp/cc18izUm.s 			page 56


 933              	.LVL81:
 934              	.L79:
 935 058c 4FF0FF30 		mov	r0, #-1
 936              	.LVL82:
 937 0590 7047     		bx	lr
 938              	.LVL83:
 939              	.L80:
 940              		.cfi_def_cfa_offset 8
 941              		.cfi_offset 4, -8
 942              		.cfi_offset 14, -4
 738:drivers/inv_mpu.c ****     return I2C_Read(st.hw->addr, reg, 1, data);
 943              		.loc 1 738 0
 944 0592 4FF0FF30 		mov	r0, #-1
 945              	.LVL84:
 740:drivers/inv_mpu.c **** 
 946              		.loc 1 740 0
 947 0596 10BD     		pop	{r4, pc}
 948              	.L86:
 949              		.align	2
 950              	.L85:
 951 0598 00000000 		.word	.LANCHOR0
 952              		.cfi_endproc
 953              	.LFE66:
 954              		.size	mpu_read_reg, .-mpu_read_reg
 955              		.align	1
 956              		.global	mpu_get_gyro_reg
 957              		.syntax unified
 958              		.thumb
 959              		.thumb_func
 960              		.fpu softvfp
 961              		.type	mpu_get_gyro_reg, %function
 962              	mpu_get_gyro_reg:
 963              	.LFB69:
 970:drivers/inv_mpu.c ****     unsigned char tmp[6];
 964              		.loc 1 970 0
 965              		.cfi_startproc
 966              		@ args = 0, pretend = 0, frame = 8
 967              		@ frame_needed = 0, uses_anonymous_args = 0
 968              	.LVL85:
 973:drivers/inv_mpu.c ****         return -1;
 969              		.loc 1 973 0
 970 059c 174B     		ldr	r3, .L95
 971 059e 9B7A     		ldrb	r3, [r3, #10]	@ zero_extendqisi2
 972 05a0 13F0700F 		tst	r3, #112
 973 05a4 23D0     		beq	.L89
 970:drivers/inv_mpu.c ****     unsigned char tmp[6];
 974              		.loc 1 970 0
 975 05a6 10B5     		push	{r4, lr}
 976              		.cfi_def_cfa_offset 8
 977              		.cfi_offset 4, -8
 978              		.cfi_offset 14, -4
 979 05a8 82B0     		sub	sp, sp, #8
 980              		.cfi_def_cfa_offset 16
 981 05aa 0446     		mov	r4, r0
 976:drivers/inv_mpu.c ****         return -1;
 982              		.loc 1 976 0
 983 05ac 134B     		ldr	r3, .L95
ARM GAS  /tmp/cc18izUm.s 			page 57


 984 05ae 1968     		ldr	r1, [r3]
 985              	.LVL86:
 986 05b0 5868     		ldr	r0, [r3, #4]
 987              	.LVL87:
 988 05b2 6B46     		mov	r3, sp
 989 05b4 0622     		movs	r2, #6
 990 05b6 097B     		ldrb	r1, [r1, #12]	@ zero_extendqisi2
 991 05b8 0078     		ldrb	r0, [r0]	@ zero_extendqisi2
 992 05ba FFF7FEFF 		bl	I2C_Read
 993              	.LVL88:
 994 05be C8B9     		cbnz	r0, .L90
 978:drivers/inv_mpu.c ****     data[1] = (tmp[2] << 8) | tmp[3];
 995              		.loc 1 978 0
 996 05c0 9DF80020 		ldrb	r2, [sp]	@ zero_extendqisi2
 997 05c4 9DF80130 		ldrb	r3, [sp, #1]	@ zero_extendqisi2
 998 05c8 43EA0223 		orr	r3, r3, r2, lsl #8
 999 05cc 2380     		strh	r3, [r4]	@ movhi
 979:drivers/inv_mpu.c ****     data[2] = (tmp[4] << 8) | tmp[5];
 1000              		.loc 1 979 0
 1001 05ce 9DF80220 		ldrb	r2, [sp, #2]	@ zero_extendqisi2
 1002 05d2 9DF80330 		ldrb	r3, [sp, #3]	@ zero_extendqisi2
 1003 05d6 43EA0223 		orr	r3, r3, r2, lsl #8
 1004 05da 6380     		strh	r3, [r4, #2]	@ movhi
 980:drivers/inv_mpu.c ****     if (timestamp)
 1005              		.loc 1 980 0
 1006 05dc 9DF80420 		ldrb	r2, [sp, #4]	@ zero_extendqisi2
 1007 05e0 9DF80530 		ldrb	r3, [sp, #5]	@ zero_extendqisi2
 1008 05e4 43EA0223 		orr	r3, r3, r2, lsl #8
 1009 05e8 A380     		strh	r3, [r4, #4]	@ movhi
 1010              	.L87:
 984:drivers/inv_mpu.c **** 
 1011              		.loc 1 984 0
 1012 05ea 02B0     		add	sp, sp, #8
 1013              		.cfi_def_cfa_offset 8
 1014              		@ sp needed
 1015 05ec 10BD     		pop	{r4, pc}
 1016              	.LVL89:
 1017              	.L89:
 1018              		.cfi_def_cfa_offset 0
 1019              		.cfi_restore 4
 1020              		.cfi_restore 14
 974:drivers/inv_mpu.c **** 
 1021              		.loc 1 974 0
 1022 05ee 4FF0FF30 		mov	r0, #-1
 1023              	.LVL90:
 1024 05f2 7047     		bx	lr
 1025              	.LVL91:
 1026              	.L90:
 1027              		.cfi_def_cfa_offset 16
 1028              		.cfi_offset 4, -8
 1029              		.cfi_offset 14, -4
 977:drivers/inv_mpu.c ****     data[0] = (tmp[0] << 8) | tmp[1];
 1030              		.loc 1 977 0
 1031 05f4 4FF0FF30 		mov	r0, #-1
 1032 05f8 F7E7     		b	.L87
 1033              	.L96:
 1034 05fa 00BF     		.align	2
ARM GAS  /tmp/cc18izUm.s 			page 58


 1035              	.L95:
 1036 05fc 00000000 		.word	.LANCHOR0
 1037              		.cfi_endproc
 1038              	.LFE69:
 1039              		.size	mpu_get_gyro_reg, .-mpu_get_gyro_reg
 1040              		.align	1
 1041              		.global	mpu_get_accel_reg
 1042              		.syntax unified
 1043              		.thumb
 1044              		.thumb_func
 1045              		.fpu softvfp
 1046              		.type	mpu_get_accel_reg, %function
 1047              	mpu_get_accel_reg:
 1048              	.LFB70:
 993:drivers/inv_mpu.c ****     unsigned char tmp[6];
 1049              		.loc 1 993 0
 1050              		.cfi_startproc
 1051              		@ args = 0, pretend = 0, frame = 8
 1052              		@ frame_needed = 0, uses_anonymous_args = 0
 1053              	.LVL92:
 996:drivers/inv_mpu.c ****         return -1;
 1054              		.loc 1 996 0
 1055 0600 174B     		ldr	r3, .L105
 1056 0602 9B7A     		ldrb	r3, [r3, #10]	@ zero_extendqisi2
 1057 0604 13F0080F 		tst	r3, #8
 1058 0608 23D0     		beq	.L99
 993:drivers/inv_mpu.c ****     unsigned char tmp[6];
 1059              		.loc 1 993 0
 1060 060a 10B5     		push	{r4, lr}
 1061              		.cfi_def_cfa_offset 8
 1062              		.cfi_offset 4, -8
 1063              		.cfi_offset 14, -4
 1064 060c 82B0     		sub	sp, sp, #8
 1065              		.cfi_def_cfa_offset 16
 1066 060e 0446     		mov	r4, r0
 999:drivers/inv_mpu.c ****         return -1;
 1067              		.loc 1 999 0
 1068 0610 134B     		ldr	r3, .L105
 1069 0612 1968     		ldr	r1, [r3]
 1070              	.LVL93:
 1071 0614 5868     		ldr	r0, [r3, #4]
 1072              	.LVL94:
 1073 0616 6B46     		mov	r3, sp
 1074 0618 0622     		movs	r2, #6
 1075 061a 497B     		ldrb	r1, [r1, #13]	@ zero_extendqisi2
 1076 061c 0078     		ldrb	r0, [r0]	@ zero_extendqisi2
 1077 061e FFF7FEFF 		bl	I2C_Read
 1078              	.LVL95:
 1079 0622 C8B9     		cbnz	r0, .L100
1001:drivers/inv_mpu.c ****     data[1] = (tmp[2] << 8) | tmp[3];
 1080              		.loc 1 1001 0
 1081 0624 9DF80020 		ldrb	r2, [sp]	@ zero_extendqisi2
 1082 0628 9DF80130 		ldrb	r3, [sp, #1]	@ zero_extendqisi2
 1083 062c 43EA0223 		orr	r3, r3, r2, lsl #8
 1084 0630 2380     		strh	r3, [r4]	@ movhi
1002:drivers/inv_mpu.c ****     data[2] = (tmp[4] << 8) | tmp[5];
 1085              		.loc 1 1002 0
ARM GAS  /tmp/cc18izUm.s 			page 59


 1086 0632 9DF80220 		ldrb	r2, [sp, #2]	@ zero_extendqisi2
 1087 0636 9DF80330 		ldrb	r3, [sp, #3]	@ zero_extendqisi2
 1088 063a 43EA0223 		orr	r3, r3, r2, lsl #8
 1089 063e 6380     		strh	r3, [r4, #2]	@ movhi
1003:drivers/inv_mpu.c ****     if (timestamp)
 1090              		.loc 1 1003 0
 1091 0640 9DF80420 		ldrb	r2, [sp, #4]	@ zero_extendqisi2
 1092 0644 9DF80530 		ldrb	r3, [sp, #5]	@ zero_extendqisi2
 1093 0648 43EA0223 		orr	r3, r3, r2, lsl #8
 1094 064c A380     		strh	r3, [r4, #4]	@ movhi
 1095              	.L97:
1007:drivers/inv_mpu.c **** 
 1096              		.loc 1 1007 0
 1097 064e 02B0     		add	sp, sp, #8
 1098              		.cfi_def_cfa_offset 8
 1099              		@ sp needed
 1100 0650 10BD     		pop	{r4, pc}
 1101              	.LVL96:
 1102              	.L99:
 1103              		.cfi_def_cfa_offset 0
 1104              		.cfi_restore 4
 1105              		.cfi_restore 14
 997:drivers/inv_mpu.c **** 
 1106              		.loc 1 997 0
 1107 0652 4FF0FF30 		mov	r0, #-1
 1108              	.LVL97:
 1109 0656 7047     		bx	lr
 1110              	.LVL98:
 1111              	.L100:
 1112              		.cfi_def_cfa_offset 16
 1113              		.cfi_offset 4, -8
 1114              		.cfi_offset 14, -4
1000:drivers/inv_mpu.c ****     data[0] = (tmp[0] << 8) | tmp[1];
 1115              		.loc 1 1000 0
 1116 0658 4FF0FF30 		mov	r0, #-1
 1117 065c F7E7     		b	.L97
 1118              	.L106:
 1119 065e 00BF     		.align	2
 1120              	.L105:
 1121 0660 00000000 		.word	.LANCHOR0
 1122              		.cfi_endproc
 1123              	.LFE70:
 1124              		.size	mpu_get_accel_reg, .-mpu_get_accel_reg
 1125              		.global	__aeabi_i2f
 1126              		.global	__aeabi_fsub
 1127              		.global	__aeabi_fdiv
 1128              		.global	__aeabi_fadd
 1129              		.global	__aeabi_fmul
 1130              		.global	__aeabi_f2iz
 1131              		.align	1
 1132              		.global	mpu_get_temperature
 1133              		.syntax unified
 1134              		.thumb
 1135              		.thumb_func
 1136              		.fpu softvfp
 1137              		.type	mpu_get_temperature, %function
 1138              	mpu_get_temperature:
ARM GAS  /tmp/cc18izUm.s 			page 60


 1139              	.LFB71:
1016:drivers/inv_mpu.c ****     unsigned char tmp[2];
 1140              		.loc 1 1016 0
 1141              		.cfi_startproc
 1142              		@ args = 0, pretend = 0, frame = 8
 1143              		@ frame_needed = 0, uses_anonymous_args = 0
 1144              	.LVL99:
1020:drivers/inv_mpu.c ****         return -1;
 1145              		.loc 1 1020 0
 1146 0664 1F4B     		ldr	r3, .L115
 1147 0666 9B7A     		ldrb	r3, [r3, #10]	@ zero_extendqisi2
 1148 0668 002B     		cmp	r3, #0
 1149 066a 35D0     		beq	.L109
1016:drivers/inv_mpu.c ****     unsigned char tmp[2];
 1150              		.loc 1 1016 0
 1151 066c 70B5     		push	{r4, r5, r6, lr}
 1152              		.cfi_def_cfa_offset 16
 1153              		.cfi_offset 4, -16
 1154              		.cfi_offset 5, -12
 1155              		.cfi_offset 6, -8
 1156              		.cfi_offset 14, -4
 1157 066e 82B0     		sub	sp, sp, #8
 1158              		.cfi_def_cfa_offset 24
 1159 0670 0546     		mov	r5, r0
1023:drivers/inv_mpu.c ****         return -1;
 1160              		.loc 1 1023 0
 1161 0672 1C4B     		ldr	r3, .L115
 1162 0674 1968     		ldr	r1, [r3]
 1163              	.LVL100:
 1164 0676 5868     		ldr	r0, [r3, #4]
 1165              	.LVL101:
 1166 0678 01AB     		add	r3, sp, #4
 1167 067a 0222     		movs	r2, #2
 1168 067c 897B     		ldrb	r1, [r1, #14]	@ zero_extendqisi2
 1169 067e 0078     		ldrb	r0, [r0]	@ zero_extendqisi2
 1170 0680 FFF7FEFF 		bl	I2C_Read
 1171              	.LVL102:
 1172 0684 58BB     		cbnz	r0, .L110
 1173              	.LVL103:
1029:drivers/inv_mpu.c ****     return 0;
 1174              		.loc 1 1029 0
 1175 0686 174B     		ldr	r3, .L115
 1176 0688 5C68     		ldr	r4, [r3, #4]
1025:drivers/inv_mpu.c ****     if (timestamp)
 1177              		.loc 1 1025 0
 1178 068a 9DF80400 		ldrb	r0, [sp, #4]	@ zero_extendqisi2
 1179 068e 9DF80530 		ldrb	r3, [sp, #5]	@ zero_extendqisi2
 1180 0692 43EA0020 		orr	r0, r3, r0, lsl #8
1029:drivers/inv_mpu.c ****     return 0;
 1181              		.loc 1 1029 0
 1182 0696 00B2     		sxth	r0, r0
 1183 0698 FFF7FEFF 		bl	__aeabi_i2f
 1184              	.LVL104:
 1185 069c 0646     		mov	r6, r0
 1186 069e B4F90800 		ldrsh	r0, [r4, #8]
 1187 06a2 FFF7FEFF 		bl	__aeabi_i2f
 1188              	.LVL105:
ARM GAS  /tmp/cc18izUm.s 			page 61


 1189 06a6 0146     		mov	r1, r0
 1190 06a8 3046     		mov	r0, r6
 1191 06aa FFF7FEFF 		bl	__aeabi_fsub
 1192              	.LVL106:
 1193 06ae 0646     		mov	r6, r0
 1194 06b0 E088     		ldrh	r0, [r4, #6]
 1195 06b2 FFF7FEFF 		bl	__aeabi_i2f
 1196              	.LVL107:
 1197 06b6 0146     		mov	r1, r0
 1198 06b8 3046     		mov	r0, r6
 1199 06ba FFF7FEFF 		bl	__aeabi_fdiv
 1200              	.LVL108:
 1201 06be 0A49     		ldr	r1, .L115+4
 1202 06c0 FFF7FEFF 		bl	__aeabi_fadd
 1203              	.LVL109:
 1204 06c4 4FF08F41 		mov	r1, #1199570944
 1205 06c8 FFF7FEFF 		bl	__aeabi_fmul
 1206              	.LVL110:
 1207 06cc FFF7FEFF 		bl	__aeabi_f2iz
 1208              	.LVL111:
 1209 06d0 2860     		str	r0, [r5]
1030:drivers/inv_mpu.c **** }
 1210              		.loc 1 1030 0
 1211 06d2 0020     		movs	r0, #0
 1212              	.L107:
1031:drivers/inv_mpu.c **** 
 1213              		.loc 1 1031 0
 1214 06d4 02B0     		add	sp, sp, #8
 1215              		.cfi_def_cfa_offset 16
 1216              		@ sp needed
 1217 06d6 70BD     		pop	{r4, r5, r6, pc}
 1218              	.LVL112:
 1219              	.L109:
 1220              		.cfi_def_cfa_offset 0
 1221              		.cfi_restore 4
 1222              		.cfi_restore 5
 1223              		.cfi_restore 6
 1224              		.cfi_restore 14
1021:drivers/inv_mpu.c **** 
 1225              		.loc 1 1021 0
 1226 06d8 4FF0FF30 		mov	r0, #-1
 1227              	.LVL113:
 1228 06dc 7047     		bx	lr
 1229              	.LVL114:
 1230              	.L110:
 1231              		.cfi_def_cfa_offset 24
 1232              		.cfi_offset 4, -16
 1233              		.cfi_offset 5, -12
 1234              		.cfi_offset 6, -8
 1235              		.cfi_offset 14, -4
1024:drivers/inv_mpu.c ****     raw = (tmp[0] << 8) | tmp[1];
 1236              		.loc 1 1024 0
 1237 06de 4FF0FF30 		mov	r0, #-1
 1238 06e2 F7E7     		b	.L107
 1239              	.L116:
 1240              		.align	2
 1241              	.L115:
ARM GAS  /tmp/cc18izUm.s 			page 62


 1242 06e4 00000000 		.word	.LANCHOR0
 1243 06e8 00000C42 		.word	1108082688
 1244              		.cfi_endproc
 1245              	.LFE71:
 1246              		.size	mpu_get_temperature, .-mpu_get_temperature
 1247              		.align	1
 1248              		.global	mpu_set_accel_bias
 1249              		.syntax unified
 1250              		.thumb
 1251              		.thumb_func
 1252              		.fpu softvfp
 1253              		.type	mpu_set_accel_bias, %function
 1254              	mpu_set_accel_bias:
 1255              	.LFB72:
1041:drivers/inv_mpu.c ****     unsigned char data[6];
 1256              		.loc 1 1041 0
 1257              		.cfi_startproc
 1258              		@ args = 0, pretend = 0, frame = 8
 1259              		@ frame_needed = 0, uses_anonymous_args = 0
 1260              	.LVL115:
1047:drivers/inv_mpu.c ****         return -1;
 1261              		.loc 1 1047 0
 1262 06ec 0028     		cmp	r0, #0
 1263 06ee 76D0     		beq	.L120
1041:drivers/inv_mpu.c ****     unsigned char data[6];
 1264              		.loc 1 1041 0
 1265 06f0 70B5     		push	{r4, r5, r6, lr}
 1266              		.cfi_def_cfa_offset 16
 1267              		.cfi_offset 4, -16
 1268              		.cfi_offset 5, -12
 1269              		.cfi_offset 6, -8
 1270              		.cfi_offset 14, -4
 1271 06f2 82B0     		sub	sp, sp, #8
 1272              		.cfi_def_cfa_offset 24
 1273 06f4 0546     		mov	r5, r0
1049:drivers/inv_mpu.c ****         return 0;
 1274              		.loc 1 1049 0
 1275 06f6 0368     		ldr	r3, [r0]
 1276 06f8 23B9     		cbnz	r3, .L119
1049:drivers/inv_mpu.c ****         return 0;
 1277              		.loc 1 1049 0 is_stmt 0 discriminator 1
 1278 06fa 4368     		ldr	r3, [r0, #4]
 1279 06fc 13B9     		cbnz	r3, .L119
1049:drivers/inv_mpu.c ****         return 0;
 1280              		.loc 1 1049 0 discriminator 2
 1281 06fe 8368     		ldr	r3, [r0, #8]
 1282 0700 002B     		cmp	r3, #0
 1283 0702 6FD0     		beq	.L121
 1284              	.L119:
1052:drivers/inv_mpu.c ****         return -1;
 1285              		.loc 1 1052 0 is_stmt 1
 1286 0704 3B4B     		ldr	r3, .L128
 1287 0706 5868     		ldr	r0, [r3, #4]
 1288              	.LVL116:
 1289 0708 6B46     		mov	r3, sp
 1290 070a 0322     		movs	r2, #3
 1291 070c 1146     		mov	r1, r2
ARM GAS  /tmp/cc18izUm.s 			page 63


 1292 070e 0078     		ldrb	r0, [r0]	@ zero_extendqisi2
 1293 0710 FFF7FEFF 		bl	I2C_Read
 1294              	.LVL117:
 1295 0714 0028     		cmp	r0, #0
 1296 0716 67D1     		bne	.L122
 1297              	.LVL118:
1058:drivers/inv_mpu.c ****     accel_hw[1] = (short)(accel_bias[1] * 2 / (64 + fg[1]));
 1298              		.loc 1 1058 0
 1299 0718 2C68     		ldr	r4, [r5]
 1300 071a 6400     		lsls	r4, r4, #1
1054:drivers/inv_mpu.c ****     fg[1] = ((data[1] >> 4) + 8) & 0xf;
 1301              		.loc 1 1054 0
 1302 071c 9DF80030 		ldrb	r3, [sp]	@ zero_extendqisi2
 1303 0720 1B09     		lsrs	r3, r3, #4
 1304 0722 0833     		adds	r3, r3, #8
1058:drivers/inv_mpu.c ****     accel_hw[1] = (short)(accel_bias[1] * 2 / (64 + fg[1]));
 1305              		.loc 1 1058 0
 1306 0724 03F00F03 		and	r3, r3, #15
 1307 0728 4033     		adds	r3, r3, #64
 1308 072a 94FBF3F4 		sdiv	r4, r4, r3
 1309              	.LVL119:
1059:drivers/inv_mpu.c ****     accel_hw[2] = (short)(accel_bias[2] * 2 / (64 + fg[2]));
 1310              		.loc 1 1059 0
 1311 072e 6A68     		ldr	r2, [r5, #4]
 1312 0730 5200     		lsls	r2, r2, #1
1055:drivers/inv_mpu.c ****     fg[2] = ((data[2] >> 4) + 8) & 0xf;
 1313              		.loc 1 1055 0
 1314 0732 9DF80130 		ldrb	r3, [sp, #1]	@ zero_extendqisi2
 1315 0736 1B09     		lsrs	r3, r3, #4
 1316 0738 0833     		adds	r3, r3, #8
1059:drivers/inv_mpu.c ****     accel_hw[2] = (short)(accel_bias[2] * 2 / (64 + fg[2]));
 1317              		.loc 1 1059 0
 1318 073a 03F00F03 		and	r3, r3, #15
 1319 073e 4033     		adds	r3, r3, #64
 1320 0740 92FBF3F6 		sdiv	r6, r2, r3
 1321              	.LVL120:
1060:drivers/inv_mpu.c **** 
 1322              		.loc 1 1060 0
 1323 0744 AD68     		ldr	r5, [r5, #8]
 1324              	.LVL121:
 1325 0746 6D00     		lsls	r5, r5, #1
1056:drivers/inv_mpu.c **** 
 1326              		.loc 1 1056 0
 1327 0748 9DF80230 		ldrb	r3, [sp, #2]	@ zero_extendqisi2
 1328 074c 1B09     		lsrs	r3, r3, #4
 1329 074e 0833     		adds	r3, r3, #8
1060:drivers/inv_mpu.c **** 
 1330              		.loc 1 1060 0
 1331 0750 03F00F03 		and	r3, r3, #15
 1332 0754 4033     		adds	r3, r3, #64
 1333 0756 95FBF3F5 		sdiv	r5, r5, r3
 1334              	.LVL122:
1062:drivers/inv_mpu.c ****         return -1;
 1335              		.loc 1 1062 0
 1336 075a 264B     		ldr	r3, .L128
 1337 075c 5868     		ldr	r0, [r3, #4]
 1338 075e 6B46     		mov	r3, sp
ARM GAS  /tmp/cc18izUm.s 			page 64


 1339 0760 0622     		movs	r2, #6
 1340 0762 1146     		mov	r1, r2
 1341 0764 0078     		ldrb	r0, [r0]	@ zero_extendqisi2
 1342 0766 FFF7FEFF 		bl	I2C_Read
 1343              	.LVL123:
 1344 076a 0028     		cmp	r0, #0
 1345 076c 3FD1     		bne	.L123
 1346              	.LVL124:
1065:drivers/inv_mpu.c ****     got_accel[1] = ((short)data[2] << 8) | data[3];
 1347              		.loc 1 1065 0
 1348 076e 9DF80020 		ldrb	r2, [sp]	@ zero_extendqisi2
 1349 0772 9DF80130 		ldrb	r3, [sp, #1]	@ zero_extendqisi2
 1350 0776 43EA0223 		orr	r3, r3, r2, lsl #8
1069:drivers/inv_mpu.c ****     accel_hw[1] += got_accel[1];
 1351              		.loc 1 1069 0
 1352 077a 1C44     		add	r4, r4, r3
 1353              	.LVL125:
 1354 077c A4B2     		uxth	r4, r4
 1355              	.LVL126:
1066:drivers/inv_mpu.c ****     got_accel[2] = ((short)data[4] << 8) | data[5];
 1356              		.loc 1 1066 0
 1357 077e 9DF80230 		ldrb	r3, [sp, #2]	@ zero_extendqisi2
 1358 0782 9DF80320 		ldrb	r2, [sp, #3]	@ zero_extendqisi2
 1359 0786 42EA0322 		orr	r2, r2, r3, lsl #8
1070:drivers/inv_mpu.c ****     accel_hw[2] += got_accel[2];
 1360              		.loc 1 1070 0
 1361 078a 3244     		add	r2, r2, r6
 1362 078c 92B2     		uxth	r2, r2
 1363              	.LVL127:
1067:drivers/inv_mpu.c **** 
 1364              		.loc 1 1067 0
 1365 078e 9DF80410 		ldrb	r1, [sp, #4]	@ zero_extendqisi2
 1366 0792 9DF80530 		ldrb	r3, [sp, #5]	@ zero_extendqisi2
 1367 0796 43EA0123 		orr	r3, r3, r1, lsl #8
1071:drivers/inv_mpu.c **** 
 1368              		.loc 1 1071 0
 1369 079a 2B44     		add	r3, r3, r5
 1370 079c 9BB2     		uxth	r3, r3
 1371              	.LVL128:
1073:drivers/inv_mpu.c ****     data[1] = (accel_hw[0]) & 0xff;
 1372              		.loc 1 1073 0
 1373 079e 44F30721 		sbfx	r1, r4, #8, #8
 1374 07a2 8DF80010 		strb	r1, [sp]
 1375              	.LVL129:
1074:drivers/inv_mpu.c ****     data[2] = (accel_hw[1] >> 8) & 0xff;
 1376              		.loc 1 1074 0
 1377 07a6 8DF80140 		strb	r4, [sp, #1]
1075:drivers/inv_mpu.c ****     data[3] = (accel_hw[1]) & 0xff;
 1378              		.loc 1 1075 0
 1379 07aa 42F30721 		sbfx	r1, r2, #8, #8
 1380 07ae 8DF80210 		strb	r1, [sp, #2]
 1381              	.LVL130:
1076:drivers/inv_mpu.c ****     data[4] = (accel_hw[2] >> 8) & 0xff;
 1382              		.loc 1 1076 0
 1383 07b2 8DF80320 		strb	r2, [sp, #3]
1077:drivers/inv_mpu.c ****     data[5] = (accel_hw[2]) & 0xff;
 1384              		.loc 1 1077 0
ARM GAS  /tmp/cc18izUm.s 			page 65


 1385 07b6 43F30722 		sbfx	r2, r3, #8, #8
 1386              	.LVL131:
 1387 07ba 8DF80420 		strb	r2, [sp, #4]
 1388              	.LVL132:
1078:drivers/inv_mpu.c **** 
 1389              		.loc 1 1078 0
 1390 07be 8DF80530 		strb	r3, [sp, #5]
1080:drivers/inv_mpu.c ****         return -1;
 1391              		.loc 1 1080 0
 1392 07c2 0C4B     		ldr	r3, .L128
 1393              	.LVL133:
 1394 07c4 5868     		ldr	r0, [r3, #4]
 1395 07c6 6B46     		mov	r3, sp
 1396 07c8 0622     		movs	r2, #6
 1397 07ca 1146     		mov	r1, r2
 1398 07cc 0078     		ldrb	r0, [r0]	@ zero_extendqisi2
 1399 07ce FFF7FEFF 		bl	I2C_Write
 1400              	.LVL134:
 1401 07d2 0030     		adds	r0, r0, #0
 1402 07d4 18BF     		it	ne
 1403 07d6 0120     		movne	r0, #1
 1404 07d8 4042     		negs	r0, r0
 1405              	.LVL135:
 1406              	.L117:
1083:drivers/inv_mpu.c **** 
 1407              		.loc 1 1083 0
 1408 07da 02B0     		add	sp, sp, #8
 1409              		.cfi_def_cfa_offset 16
 1410              		@ sp needed
 1411 07dc 70BD     		pop	{r4, r5, r6, pc}
 1412              	.LVL136:
 1413              	.L120:
 1414              		.cfi_def_cfa_offset 0
 1415              		.cfi_restore 4
 1416              		.cfi_restore 5
 1417              		.cfi_restore 6
 1418              		.cfi_restore 14
1048:drivers/inv_mpu.c ****     if (!accel_bias[0] && !accel_bias[1] && !accel_bias[2])
 1419              		.loc 1 1048 0
 1420 07de 4FF0FF30 		mov	r0, #-1
 1421              	.LVL137:
 1422 07e2 7047     		bx	lr
 1423              	.LVL138:
 1424              	.L121:
 1425              		.cfi_def_cfa_offset 24
 1426              		.cfi_offset 4, -16
 1427              		.cfi_offset 5, -12
 1428              		.cfi_offset 6, -8
 1429              		.cfi_offset 14, -4
1050:drivers/inv_mpu.c **** 
 1430              		.loc 1 1050 0
 1431 07e4 0020     		movs	r0, #0
 1432              	.LVL139:
 1433 07e6 F8E7     		b	.L117
 1434              	.L122:
1053:drivers/inv_mpu.c ****     fg[0] = ((data[0] >> 4) + 8) & 0xf;
 1435              		.loc 1 1053 0
ARM GAS  /tmp/cc18izUm.s 			page 66


 1436 07e8 4FF0FF30 		mov	r0, #-1
 1437 07ec F5E7     		b	.L117
 1438              	.LVL140:
 1439              	.L123:
1063:drivers/inv_mpu.c **** 
 1440              		.loc 1 1063 0
 1441 07ee 4FF0FF30 		mov	r0, #-1
 1442 07f2 F2E7     		b	.L117
 1443              	.L129:
 1444              		.align	2
 1445              	.L128:
 1446 07f4 00000000 		.word	.LANCHOR0
 1447              		.cfi_endproc
 1448              	.LFE72:
 1449              		.size	mpu_set_accel_bias, .-mpu_set_accel_bias
 1450              		.align	1
 1451              		.global	mpu_reset_fifo
 1452              		.syntax unified
 1453              		.thumb
 1454              		.thumb_func
 1455              		.fpu softvfp
 1456              		.type	mpu_reset_fifo, %function
 1457              	mpu_reset_fifo:
 1458              	.LFB73:
1090:drivers/inv_mpu.c ****     unsigned char data;
 1459              		.loc 1 1090 0
 1460              		.cfi_startproc
 1461              		@ args = 0, pretend = 0, frame = 8
 1462              		@ frame_needed = 0, uses_anonymous_args = 0
1093:drivers/inv_mpu.c ****         return -1;
 1463              		.loc 1 1093 0
 1464 07f8 774B     		ldr	r3, .L155
 1465 07fa 9B7A     		ldrb	r3, [r3, #10]	@ zero_extendqisi2
 1466 07fc 002B     		cmp	r3, #0
 1467 07fe 00F0CC80 		beq	.L141
1090:drivers/inv_mpu.c ****     unsigned char data;
 1468              		.loc 1 1090 0
 1469 0802 00B5     		push	{lr}
 1470              		.cfi_def_cfa_offset 4
 1471              		.cfi_offset 14, -4
 1472 0804 83B0     		sub	sp, sp, #12
 1473              		.cfi_def_cfa_offset 16
1096:drivers/inv_mpu.c ****     if (I2C_Write(st.hw->addr, st.reg->int_enable, 1, &data))
 1474              		.loc 1 1096 0
 1475 0806 02AB     		add	r3, sp, #8
 1476 0808 0022     		movs	r2, #0
 1477 080a 03F8012D 		strb	r2, [r3, #-1]!
1097:drivers/inv_mpu.c ****         return -1;
 1478              		.loc 1 1097 0
 1479 080e 724A     		ldr	r2, .L155
 1480 0810 1168     		ldr	r1, [r2]
 1481 0812 5068     		ldr	r0, [r2, #4]
 1482 0814 0122     		movs	r2, #1
 1483 0816 C97B     		ldrb	r1, [r1, #15]	@ zero_extendqisi2
 1484 0818 0078     		ldrb	r0, [r0]	@ zero_extendqisi2
 1485 081a FFF7FEFF 		bl	I2C_Write
 1486              	.LVL141:
ARM GAS  /tmp/cc18izUm.s 			page 67


 1487 081e 0028     		cmp	r0, #0
 1488 0820 40F0BE80 		bne	.L142
1099:drivers/inv_mpu.c ****         return -1;
 1489              		.loc 1 1099 0
 1490 0824 6C4B     		ldr	r3, .L155
 1491 0826 1968     		ldr	r1, [r3]
 1492 0828 5868     		ldr	r0, [r3, #4]
 1493 082a 0DF10703 		add	r3, sp, #7
 1494 082e 0122     		movs	r2, #1
 1495 0830 4979     		ldrb	r1, [r1, #5]	@ zero_extendqisi2
 1496 0832 0078     		ldrb	r0, [r0]	@ zero_extendqisi2
 1497 0834 FFF7FEFF 		bl	I2C_Write
 1498              	.LVL142:
 1499 0838 0028     		cmp	r0, #0
 1500 083a 40F0B480 		bne	.L143
1101:drivers/inv_mpu.c ****         return -1;
 1501              		.loc 1 1101 0
 1502 083e 664B     		ldr	r3, .L155
 1503 0840 1968     		ldr	r1, [r3]
 1504 0842 5868     		ldr	r0, [r3, #4]
 1505 0844 0DF10703 		add	r3, sp, #7
 1506 0848 0122     		movs	r2, #1
 1507 084a 0979     		ldrb	r1, [r1, #4]	@ zero_extendqisi2
 1508 084c 0078     		ldrb	r0, [r0]	@ zero_extendqisi2
 1509 084e FFF7FEFF 		bl	I2C_Write
 1510              	.LVL143:
 1511 0852 0028     		cmp	r0, #0
 1512 0854 40F0AA80 		bne	.L144
1104:drivers/inv_mpu.c ****         data = BIT_FIFO_RST | BIT_DMP_RST;
 1513              		.loc 1 1104 0
 1514 0858 5F4B     		ldr	r3, .L155
 1515 085a 93F82430 		ldrb	r3, [r3, #36]	@ zero_extendqisi2
 1516 085e 002B     		cmp	r3, #0
 1517 0860 4FD0     		beq	.L132
1105:drivers/inv_mpu.c ****         if (I2C_Write(st.hw->addr, st.reg->user_ctrl, 1, &data))
 1518              		.loc 1 1105 0
 1519 0862 02AB     		add	r3, sp, #8
 1520 0864 0C22     		movs	r2, #12
 1521 0866 03F8012D 		strb	r2, [r3, #-1]!
1106:drivers/inv_mpu.c ****             return -1;
 1522              		.loc 1 1106 0
 1523 086a 5B4A     		ldr	r2, .L155
 1524 086c 1168     		ldr	r1, [r2]
 1525 086e 5068     		ldr	r0, [r2, #4]
 1526 0870 0122     		movs	r2, #1
 1527 0872 0979     		ldrb	r1, [r1, #4]	@ zero_extendqisi2
 1528 0874 0078     		ldrb	r0, [r0]	@ zero_extendqisi2
 1529 0876 FFF7FEFF 		bl	I2C_Write
 1530              	.LVL144:
 1531 087a 0028     		cmp	r0, #0
 1532 087c 40F09980 		bne	.L145
1109:drivers/inv_mpu.c ****         if (st.chip_cfg.sensors & INV_XYZ_COMPASS)
 1533              		.loc 1 1109 0
 1534 0880 C023     		movs	r3, #192
 1535 0882 8DF80730 		strb	r3, [sp, #7]
1110:drivers/inv_mpu.c ****             data |= BIT_AUX_IF_EN;
 1536              		.loc 1 1110 0
ARM GAS  /tmp/cc18izUm.s 			page 68


 1537 0886 544B     		ldr	r3, .L155
 1538 0888 9B7A     		ldrb	r3, [r3, #10]	@ zero_extendqisi2
 1539 088a 13F0010F 		tst	r3, #1
1111:drivers/inv_mpu.c ****         if (I2C_Write(st.hw->addr, st.reg->user_ctrl, 1, &data))
 1540              		.loc 1 1111 0
 1541 088e 1CBF     		itt	ne
 1542 0890 E023     		movne	r3, #224
 1543 0892 8DF80730 		strbne	r3, [sp, #7]
1112:drivers/inv_mpu.c ****             return -1;
 1544              		.loc 1 1112 0
 1545 0896 504B     		ldr	r3, .L155
 1546 0898 1968     		ldr	r1, [r3]
 1547 089a 5868     		ldr	r0, [r3, #4]
 1548 089c 0DF10703 		add	r3, sp, #7
 1549 08a0 0122     		movs	r2, #1
 1550 08a2 0979     		ldrb	r1, [r1, #4]	@ zero_extendqisi2
 1551 08a4 0078     		ldrb	r0, [r0]	@ zero_extendqisi2
 1552 08a6 FFF7FEFF 		bl	I2C_Write
 1553              	.LVL145:
 1554 08aa 0028     		cmp	r0, #0
 1555 08ac 40F08480 		bne	.L146
1114:drivers/inv_mpu.c ****             data = BIT_DMP_INT_EN;
 1556              		.loc 1 1114 0
 1557 08b0 494B     		ldr	r3, .L155
 1558 08b2 5B7C     		ldrb	r3, [r3, #17]	@ zero_extendqisi2
 1559 08b4 0BB3     		cbz	r3, .L134
1115:drivers/inv_mpu.c ****         else
 1560              		.loc 1 1115 0
 1561 08b6 0223     		movs	r3, #2
 1562 08b8 8DF80730 		strb	r3, [sp, #7]
 1563              	.L135:
1118:drivers/inv_mpu.c ****             return -1;
 1564              		.loc 1 1118 0
 1565 08bc 464B     		ldr	r3, .L155
 1566 08be 1968     		ldr	r1, [r3]
 1567 08c0 5868     		ldr	r0, [r3, #4]
 1568 08c2 0DF10703 		add	r3, sp, #7
 1569 08c6 0122     		movs	r2, #1
 1570 08c8 C97B     		ldrb	r1, [r1, #15]	@ zero_extendqisi2
 1571 08ca 0078     		ldrb	r0, [r0]	@ zero_extendqisi2
 1572 08cc FFF7FEFF 		bl	I2C_Write
 1573              	.LVL146:
 1574 08d0 0028     		cmp	r0, #0
 1575 08d2 74D1     		bne	.L147
1120:drivers/inv_mpu.c ****         if (I2C_Write(st.hw->addr, st.reg->fifo_en, 1, &data))
 1576              		.loc 1 1120 0
 1577 08d4 02AB     		add	r3, sp, #8
 1578 08d6 0022     		movs	r2, #0
 1579 08d8 03F8012D 		strb	r2, [r3, #-1]!
1121:drivers/inv_mpu.c ****             return -1;
 1580              		.loc 1 1121 0
 1581 08dc 3E4A     		ldr	r2, .L155
 1582 08de 1168     		ldr	r1, [r2]
 1583 08e0 5068     		ldr	r0, [r2, #4]
 1584 08e2 0122     		movs	r2, #1
 1585 08e4 4979     		ldrb	r1, [r1, #5]	@ zero_extendqisi2
 1586 08e6 0078     		ldrb	r0, [r0]	@ zero_extendqisi2
ARM GAS  /tmp/cc18izUm.s 			page 69


 1587 08e8 FFF7FEFF 		bl	I2C_Write
 1588              	.LVL147:
 1589 08ec 0030     		adds	r0, r0, #0
 1590 08ee 18BF     		it	ne
 1591 08f0 0120     		movne	r0, #1
 1592 08f2 4042     		negs	r0, r0
 1593              	.L130:
1144:drivers/inv_mpu.c **** 
 1594              		.loc 1 1144 0
 1595 08f4 03B0     		add	sp, sp, #12
 1596              		.cfi_remember_state
 1597              		.cfi_def_cfa_offset 4
 1598              		@ sp needed
 1599 08f6 5DF804FB 		ldr	pc, [sp], #4
 1600              	.L134:
 1601              		.cfi_restore_state
1117:drivers/inv_mpu.c ****         if (I2C_Write(st.hw->addr, st.reg->int_enable, 1, &data))
 1602              		.loc 1 1117 0
 1603 08fa 0023     		movs	r3, #0
 1604 08fc 8DF80730 		strb	r3, [sp, #7]
 1605 0900 DCE7     		b	.L135
 1606              	.L132:
1124:drivers/inv_mpu.c ****         if (I2C_Write(st.hw->addr, st.reg->user_ctrl, 1, &data))
 1607              		.loc 1 1124 0
 1608 0902 02AB     		add	r3, sp, #8
 1609 0904 0422     		movs	r2, #4
 1610 0906 03F8012D 		strb	r2, [r3, #-1]!
1125:drivers/inv_mpu.c ****             return -1;
 1611              		.loc 1 1125 0
 1612 090a 334A     		ldr	r2, .L155
 1613 090c 1168     		ldr	r1, [r2]
 1614 090e 5068     		ldr	r0, [r2, #4]
 1615 0910 0122     		movs	r2, #1
 1616 0912 0979     		ldrb	r1, [r1, #4]	@ zero_extendqisi2
 1617 0914 0078     		ldrb	r0, [r0]	@ zero_extendqisi2
 1618 0916 FFF7FEFF 		bl	I2C_Write
 1619              	.LVL148:
 1620 091a 0028     		cmp	r0, #0
 1621 091c 52D1     		bne	.L148
1127:drivers/inv_mpu.c ****             data = BIT_FIFO_EN;
 1622              		.loc 1 1127 0
 1623 091e 2E4B     		ldr	r3, .L155
 1624 0920 9B7C     		ldrb	r3, [r3, #18]	@ zero_extendqisi2
 1625 0922 23B9     		cbnz	r3, .L136
1127:drivers/inv_mpu.c ****             data = BIT_FIFO_EN;
 1626              		.loc 1 1127 0 is_stmt 0 discriminator 1
 1627 0924 2C4B     		ldr	r3, .L155
 1628 0926 9B7A     		ldrb	r3, [r3, #10]	@ zero_extendqisi2
 1629 0928 13F0010F 		tst	r3, #1
 1630 092c 2DD1     		bne	.L137
 1631              	.L136:
1128:drivers/inv_mpu.c ****         else
 1632              		.loc 1 1128 0 is_stmt 1
 1633 092e 4023     		movs	r3, #64
 1634 0930 8DF80730 		strb	r3, [sp, #7]
 1635              	.L138:
1131:drivers/inv_mpu.c ****             return -1;
ARM GAS  /tmp/cc18izUm.s 			page 70


 1636              		.loc 1 1131 0
 1637 0934 284B     		ldr	r3, .L155
 1638 0936 1968     		ldr	r1, [r3]
 1639 0938 5868     		ldr	r0, [r3, #4]
 1640 093a 0DF10703 		add	r3, sp, #7
 1641 093e 0122     		movs	r2, #1
 1642 0940 0979     		ldrb	r1, [r1, #4]	@ zero_extendqisi2
 1643 0942 0078     		ldrb	r0, [r0]	@ zero_extendqisi2
 1644 0944 FFF7FEFF 		bl	I2C_Write
 1645              	.LVL149:
 1646 0948 0028     		cmp	r0, #0
 1647 094a 3ED1     		bne	.L149
1134:drivers/inv_mpu.c ****             data = BIT_DATA_RDY_EN;
 1648              		.loc 1 1134 0
 1649 094c 224B     		ldr	r3, .L155
 1650 094e 5B7C     		ldrb	r3, [r3, #17]	@ zero_extendqisi2
 1651 0950 FBB1     		cbz	r3, .L139
1135:drivers/inv_mpu.c ****         else
 1652              		.loc 1 1135 0
 1653 0952 0123     		movs	r3, #1
 1654 0954 8DF80730 		strb	r3, [sp, #7]
 1655              	.L140:
1138:drivers/inv_mpu.c ****             return -1;
 1656              		.loc 1 1138 0
 1657 0958 1F4B     		ldr	r3, .L155
 1658 095a 1968     		ldr	r1, [r3]
 1659 095c 5868     		ldr	r0, [r3, #4]
 1660 095e 0DF10703 		add	r3, sp, #7
 1661 0962 0122     		movs	r2, #1
 1662 0964 C97B     		ldrb	r1, [r1, #15]	@ zero_extendqisi2
 1663 0966 0078     		ldrb	r0, [r0]	@ zero_extendqisi2
 1664 0968 FFF7FEFF 		bl	I2C_Write
 1665              	.LVL150:
 1666 096c 80BB     		cbnz	r0, .L150
1140:drivers/inv_mpu.c ****             return -1;
 1667              		.loc 1 1140 0
 1668 096e 1A4B     		ldr	r3, .L155
 1669 0970 1968     		ldr	r1, [r3]
 1670 0972 5868     		ldr	r0, [r3, #4]
 1671 0974 1033     		adds	r3, r3, #16
 1672 0976 0122     		movs	r2, #1
 1673 0978 4979     		ldrb	r1, [r1, #5]	@ zero_extendqisi2
 1674 097a 0078     		ldrb	r0, [r0]	@ zero_extendqisi2
 1675 097c FFF7FEFF 		bl	I2C_Write
 1676              	.LVL151:
 1677 0980 0030     		adds	r0, r0, #0
 1678 0982 18BF     		it	ne
 1679 0984 0120     		movne	r0, #1
 1680 0986 4042     		negs	r0, r0
 1681 0988 B4E7     		b	.L130
 1682              	.L137:
1130:drivers/inv_mpu.c ****         if (I2C_Write(st.hw->addr, st.reg->user_ctrl, 1, &data))
 1683              		.loc 1 1130 0
 1684 098a 6023     		movs	r3, #96
 1685 098c 8DF80730 		strb	r3, [sp, #7]
 1686 0990 D0E7     		b	.L138
 1687              	.L139:
ARM GAS  /tmp/cc18izUm.s 			page 71


1137:drivers/inv_mpu.c ****         if (I2C_Write(st.hw->addr, st.reg->int_enable, 1, &data))
 1688              		.loc 1 1137 0
 1689 0992 0023     		movs	r3, #0
 1690 0994 8DF80730 		strb	r3, [sp, #7]
 1691 0998 DEE7     		b	.L140
 1692              	.L141:
 1693              		.cfi_def_cfa_offset 0
 1694              		.cfi_restore 14
1094:drivers/inv_mpu.c **** 
 1695              		.loc 1 1094 0
 1696 099a 4FF0FF30 		mov	r0, #-1
 1697 099e 7047     		bx	lr
 1698              	.L142:
 1699              		.cfi_def_cfa_offset 16
 1700              		.cfi_offset 14, -4
1098:drivers/inv_mpu.c ****     if (I2C_Write(st.hw->addr, st.reg->fifo_en, 1, &data))
 1701              		.loc 1 1098 0
 1702 09a0 4FF0FF30 		mov	r0, #-1
 1703 09a4 A6E7     		b	.L130
 1704              	.L143:
1100:drivers/inv_mpu.c ****     if (I2C_Write(st.hw->addr, st.reg->user_ctrl, 1, &data))
 1705              		.loc 1 1100 0
 1706 09a6 4FF0FF30 		mov	r0, #-1
 1707 09aa A3E7     		b	.L130
 1708              	.L144:
1102:drivers/inv_mpu.c **** 
 1709              		.loc 1 1102 0
 1710 09ac 4FF0FF30 		mov	r0, #-1
 1711 09b0 A0E7     		b	.L130
 1712              	.L145:
1107:drivers/inv_mpu.c ****        
 1713              		.loc 1 1107 0
 1714 09b2 4FF0FF30 		mov	r0, #-1
 1715 09b6 9DE7     		b	.L130
 1716              	.L146:
1113:drivers/inv_mpu.c ****         if (st.chip_cfg.int_enable)
 1717              		.loc 1 1113 0
 1718 09b8 4FF0FF30 		mov	r0, #-1
 1719 09bc 9AE7     		b	.L130
 1720              	.L147:
1119:drivers/inv_mpu.c ****         data = 0;
 1721              		.loc 1 1119 0
 1722 09be 4FF0FF30 		mov	r0, #-1
 1723 09c2 97E7     		b	.L130
 1724              	.L148:
1126:drivers/inv_mpu.c ****         if (st.chip_cfg.bypass_mode || !(st.chip_cfg.sensors & INV_XYZ_COMPASS))
 1725              		.loc 1 1126 0
 1726 09c4 4FF0FF30 		mov	r0, #-1
 1727 09c8 94E7     		b	.L130
 1728              	.L149:
1132:drivers/inv_mpu.c ****     
 1729              		.loc 1 1132 0
 1730 09ca 4FF0FF30 		mov	r0, #-1
 1731 09ce 91E7     		b	.L130
 1732              	.L150:
1139:drivers/inv_mpu.c ****         if (I2C_Write(st.hw->addr, st.reg->fifo_en, 1, &st.chip_cfg.fifo_enable))
 1733              		.loc 1 1139 0
ARM GAS  /tmp/cc18izUm.s 			page 72


 1734 09d0 4FF0FF30 		mov	r0, #-1
 1735 09d4 8EE7     		b	.L130
 1736              	.L156:
 1737 09d6 00BF     		.align	2
 1738              	.L155:
 1739 09d8 00000000 		.word	.LANCHOR0
 1740              		.cfi_endproc
 1741              	.LFE73:
 1742              		.size	mpu_reset_fifo, .-mpu_reset_fifo
 1743              		.align	1
 1744              		.global	mpu_get_gyro_fsr
 1745              		.syntax unified
 1746              		.thumb
 1747              		.thumb_func
 1748              		.fpu softvfp
 1749              		.type	mpu_get_gyro_fsr, %function
 1750              	mpu_get_gyro_fsr:
 1751              	.LFB74:
1152:drivers/inv_mpu.c ****     switch (st.chip_cfg.gyro_fsr) {
 1752              		.loc 1 1152 0
 1753              		.cfi_startproc
 1754              		@ args = 0, pretend = 0, frame = 0
 1755              		@ frame_needed = 0, uses_anonymous_args = 0
 1756              		@ link register save eliminated.
 1757              	.LVL152:
1153:drivers/inv_mpu.c ****     case INV_FSR_250DPS:
 1758              		.loc 1 1153 0
 1759 09dc 0D4B     		ldr	r3, .L165
 1760 09de 1B7A     		ldrb	r3, [r3, #8]	@ zero_extendqisi2
 1761 09e0 032B     		cmp	r3, #3
 1762 09e2 13D8     		bhi	.L158
 1763 09e4 DFE803F0 		tbb	[pc, r3]
 1764              	.L160:
 1765 09e8 02       		.byte	(.L159-.L160)/2
 1766 09e9 06       		.byte	(.L161-.L160)/2
 1767 09ea 0A       		.byte	(.L162-.L160)/2
 1768 09eb 0E       		.byte	(.L163-.L160)/2
 1769              		.p2align 1
 1770              	.L159:
1155:drivers/inv_mpu.c ****         break;
 1771              		.loc 1 1155 0
 1772 09ec FA23     		movs	r3, #250
 1773 09ee 0380     		strh	r3, [r0]	@ movhi
 1774              	.L164:
1171:drivers/inv_mpu.c **** 
 1775              		.loc 1 1171 0
 1776 09f0 0020     		movs	r0, #0
 1777              	.LVL153:
 1778 09f2 7047     		bx	lr
 1779              	.LVL154:
 1780              	.L161:
1158:drivers/inv_mpu.c ****         break;
 1781              		.loc 1 1158 0
 1782 09f4 4FF4FA73 		mov	r3, #500
 1783 09f8 0380     		strh	r3, [r0]	@ movhi
1159:drivers/inv_mpu.c ****     case INV_FSR_1000DPS:
 1784              		.loc 1 1159 0
ARM GAS  /tmp/cc18izUm.s 			page 73


 1785 09fa F9E7     		b	.L164
 1786              	.L162:
1161:drivers/inv_mpu.c ****         break;
 1787              		.loc 1 1161 0
 1788 09fc 4FF47A73 		mov	r3, #1000
 1789 0a00 0380     		strh	r3, [r0]	@ movhi
1162:drivers/inv_mpu.c ****     case INV_FSR_2000DPS:
 1790              		.loc 1 1162 0
 1791 0a02 F5E7     		b	.L164
 1792              	.L163:
1164:drivers/inv_mpu.c ****         break;
 1793              		.loc 1 1164 0
 1794 0a04 4FF4FA63 		mov	r3, #2000
 1795 0a08 0380     		strh	r3, [r0]	@ movhi
1165:drivers/inv_mpu.c ****     default:
 1796              		.loc 1 1165 0
 1797 0a0a F1E7     		b	.L164
 1798              	.L158:
1167:drivers/inv_mpu.c ****         break;
 1799              		.loc 1 1167 0
 1800 0a0c 0023     		movs	r3, #0
 1801 0a0e 0380     		strh	r3, [r0]	@ movhi
1168:drivers/inv_mpu.c ****     }
 1802              		.loc 1 1168 0
 1803 0a10 EEE7     		b	.L164
 1804              	.L166:
 1805 0a12 00BF     		.align	2
 1806              	.L165:
 1807 0a14 00000000 		.word	.LANCHOR0
 1808              		.cfi_endproc
 1809              	.LFE74:
 1810              		.size	mpu_get_gyro_fsr, .-mpu_get_gyro_fsr
 1811              		.align	1
 1812              		.global	mpu_set_gyro_fsr
 1813              		.syntax unified
 1814              		.thumb
 1815              		.thumb_func
 1816              		.fpu softvfp
 1817              		.type	mpu_set_gyro_fsr, %function
 1818              	mpu_set_gyro_fsr:
 1819              	.LFB75:
1179:drivers/inv_mpu.c ****     unsigned char data;
 1820              		.loc 1 1179 0
 1821              		.cfi_startproc
 1822              		@ args = 0, pretend = 0, frame = 8
 1823              		@ frame_needed = 0, uses_anonymous_args = 0
 1824              	.LVL155:
1182:drivers/inv_mpu.c ****         return -1;
 1825              		.loc 1 1182 0
 1826 0a18 224B     		ldr	r3, .L184
 1827 0a1a 9B7A     		ldrb	r3, [r3, #10]	@ zero_extendqisi2
 1828 0a1c 002B     		cmp	r3, #0
 1829 0a1e 36D0     		beq	.L175
1179:drivers/inv_mpu.c ****     unsigned char data;
 1830              		.loc 1 1179 0
 1831 0a20 00B5     		push	{lr}
 1832              		.cfi_def_cfa_offset 4
ARM GAS  /tmp/cc18izUm.s 			page 74


 1833              		.cfi_offset 14, -4
 1834 0a22 83B0     		sub	sp, sp, #12
 1835              		.cfi_def_cfa_offset 16
1185:drivers/inv_mpu.c ****     case 250:
 1836              		.loc 1 1185 0
 1837 0a24 B0F5FA7F 		cmp	r0, #500
 1838 0a28 29D0     		beq	.L169
 1839 0a2a 09D9     		bls	.L183
 1840 0a2c B0F57A7F 		cmp	r0, #1000
 1841 0a30 29D0     		beq	.L172
 1842 0a32 B0F5FA6F 		cmp	r0, #2000
 1843 0a36 2DD1     		bne	.L176
1196:drivers/inv_mpu.c ****         break;
 1844              		.loc 1 1196 0
 1845 0a38 1823     		movs	r3, #24
 1846 0a3a 8DF80730 		strb	r3, [sp, #7]
1197:drivers/inv_mpu.c ****     default:
 1847              		.loc 1 1197 0
 1848 0a3e 04E0     		b	.L174
 1849              	.L183:
1185:drivers/inv_mpu.c ****     case 250:
 1850              		.loc 1 1185 0
 1851 0a40 FA28     		cmp	r0, #250
 1852 0a42 27D1     		bne	.L176
1187:drivers/inv_mpu.c ****         break;
 1853              		.loc 1 1187 0
 1854 0a44 0023     		movs	r3, #0
 1855 0a46 8DF80730 		strb	r3, [sp, #7]
 1856              	.L174:
1202:drivers/inv_mpu.c ****         return 0;
 1857              		.loc 1 1202 0
 1858 0a4a 9DF80720 		ldrb	r2, [sp, #7]	@ zero_extendqisi2
 1859 0a4e 154B     		ldr	r3, .L184
 1860 0a50 1B7A     		ldrb	r3, [r3, #8]	@ zero_extendqisi2
 1861 0a52 B3EBD20F 		cmp	r3, r2, lsr #3
 1862 0a56 20D0     		beq	.L177
1204:drivers/inv_mpu.c ****         return -1;
 1863              		.loc 1 1204 0
 1864 0a58 124B     		ldr	r3, .L184
 1865 0a5a 1968     		ldr	r1, [r3]
 1866 0a5c 5868     		ldr	r0, [r3, #4]
 1867              	.LVL156:
 1868 0a5e 0DF10703 		add	r3, sp, #7
 1869 0a62 0122     		movs	r2, #1
 1870 0a64 8979     		ldrb	r1, [r1, #6]	@ zero_extendqisi2
 1871 0a66 0078     		ldrb	r0, [r0]	@ zero_extendqisi2
 1872 0a68 FFF7FEFF 		bl	I2C_Write
 1873              	.LVL157:
 1874 0a6c B8B9     		cbnz	r0, .L178
1206:drivers/inv_mpu.c ****     return 0;
 1875              		.loc 1 1206 0
 1876 0a6e 9DF80730 		ldrb	r3, [sp, #7]	@ zero_extendqisi2
 1877 0a72 DB08     		lsrs	r3, r3, #3
 1878 0a74 0B4A     		ldr	r2, .L184
 1879 0a76 1372     		strb	r3, [r2, #8]
 1880              	.L167:
1208:drivers/inv_mpu.c **** 
ARM GAS  /tmp/cc18izUm.s 			page 75


 1881              		.loc 1 1208 0
 1882 0a78 03B0     		add	sp, sp, #12
 1883              		.cfi_remember_state
 1884              		.cfi_def_cfa_offset 4
 1885              		@ sp needed
 1886 0a7a 5DF804FB 		ldr	pc, [sp], #4
 1887              	.LVL158:
 1888              	.L169:
 1889              		.cfi_restore_state
1190:drivers/inv_mpu.c ****         break;
 1890              		.loc 1 1190 0
 1891 0a7e 0823     		movs	r3, #8
 1892 0a80 8DF80730 		strb	r3, [sp, #7]
1191:drivers/inv_mpu.c ****     case 1000:
 1893              		.loc 1 1191 0
 1894 0a84 E1E7     		b	.L174
 1895              	.L172:
1193:drivers/inv_mpu.c ****         break;
 1896              		.loc 1 1193 0
 1897 0a86 1023     		movs	r3, #16
 1898 0a88 8DF80730 		strb	r3, [sp, #7]
1194:drivers/inv_mpu.c ****     case 2000:
 1899              		.loc 1 1194 0
 1900 0a8c DDE7     		b	.L174
 1901              	.L175:
 1902              		.cfi_def_cfa_offset 0
 1903              		.cfi_restore 14
1183:drivers/inv_mpu.c **** 
 1904              		.loc 1 1183 0
 1905 0a8e 4FF0FF30 		mov	r0, #-1
 1906              	.LVL159:
 1907 0a92 7047     		bx	lr
 1908              	.LVL160:
 1909              	.L176:
 1910              		.cfi_def_cfa_offset 16
 1911              		.cfi_offset 14, -4
1199:drivers/inv_mpu.c ****     }
 1912              		.loc 1 1199 0
 1913 0a94 4FF0FF30 		mov	r0, #-1
 1914              	.LVL161:
 1915 0a98 EEE7     		b	.L167
 1916              	.LVL162:
 1917              	.L177:
1203:drivers/inv_mpu.c ****     if (I2C_Write(st.hw->addr, st.reg->gyro_cfg, 1, &data))
 1918              		.loc 1 1203 0
 1919 0a9a 0020     		movs	r0, #0
 1920              	.LVL163:
 1921 0a9c ECE7     		b	.L167
 1922              	.L178:
1205:drivers/inv_mpu.c ****     st.chip_cfg.gyro_fsr = data >> 3;
 1923              		.loc 1 1205 0
 1924 0a9e 4FF0FF30 		mov	r0, #-1
 1925 0aa2 E9E7     		b	.L167
 1926              	.L185:
 1927              		.align	2
 1928              	.L184:
 1929 0aa4 00000000 		.word	.LANCHOR0
ARM GAS  /tmp/cc18izUm.s 			page 76


 1930              		.cfi_endproc
 1931              	.LFE75:
 1932              		.size	mpu_set_gyro_fsr, .-mpu_set_gyro_fsr
 1933              		.align	1
 1934              		.global	mpu_get_accel_fsr
 1935              		.syntax unified
 1936              		.thumb
 1937              		.thumb_func
 1938              		.fpu softvfp
 1939              		.type	mpu_get_accel_fsr, %function
 1940              	mpu_get_accel_fsr:
 1941              	.LFB76:
1216:drivers/inv_mpu.c ****     switch (st.chip_cfg.accel_fsr) {
 1942              		.loc 1 1216 0
 1943              		.cfi_startproc
 1944              		@ args = 0, pretend = 0, frame = 0
 1945              		@ frame_needed = 0, uses_anonymous_args = 0
 1946              		@ link register save eliminated.
 1947              	.LVL164:
1217:drivers/inv_mpu.c ****     case INV_FSR_2G:
 1948              		.loc 1 1217 0
 1949 0aa8 0F4B     		ldr	r3, .L196
 1950 0aaa 5B7A     		ldrb	r3, [r3, #9]	@ zero_extendqisi2
 1951 0aac 032B     		cmp	r3, #3
 1952 0aae 16D8     		bhi	.L194
 1953 0ab0 DFE803F0 		tbb	[pc, r3]
 1954              	.L189:
 1955 0ab4 02       		.byte	(.L188-.L189)/2
 1956 0ab5 0C       		.byte	(.L190-.L189)/2
 1957 0ab6 0F       		.byte	(.L191-.L189)/2
 1958 0ab7 12       		.byte	(.L192-.L189)/2
 1959              		.p2align 1
 1960              	.L188:
1219:drivers/inv_mpu.c ****         break;
 1961              		.loc 1 1219 0
 1962 0ab8 0223     		movs	r3, #2
 1963 0aba 0370     		strb	r3, [r0]
 1964              	.L193:
1233:drivers/inv_mpu.c ****         fsr[0] <<= 1;
 1965              		.loc 1 1233 0
 1966 0abc 0A4B     		ldr	r3, .L196
 1967 0abe DB7C     		ldrb	r3, [r3, #19]	@ zero_extendqisi2
 1968 0ac0 83B1     		cbz	r3, .L195
1234:drivers/inv_mpu.c ****     return 0;
 1969              		.loc 1 1234 0
 1970 0ac2 0378     		ldrb	r3, [r0]	@ zero_extendqisi2
 1971 0ac4 5B00     		lsls	r3, r3, #1
 1972 0ac6 0370     		strb	r3, [r0]
1235:drivers/inv_mpu.c **** }
 1973              		.loc 1 1235 0
 1974 0ac8 0020     		movs	r0, #0
 1975              	.LVL165:
 1976 0aca 7047     		bx	lr
 1977              	.LVL166:
 1978              	.L190:
1222:drivers/inv_mpu.c ****         break;
 1979              		.loc 1 1222 0
ARM GAS  /tmp/cc18izUm.s 			page 77


 1980 0acc 0423     		movs	r3, #4
 1981 0ace 0370     		strb	r3, [r0]
1223:drivers/inv_mpu.c ****     case INV_FSR_8G:
 1982              		.loc 1 1223 0
 1983 0ad0 F4E7     		b	.L193
 1984              	.L191:
1225:drivers/inv_mpu.c ****         break;
 1985              		.loc 1 1225 0
 1986 0ad2 0823     		movs	r3, #8
 1987 0ad4 0370     		strb	r3, [r0]
1226:drivers/inv_mpu.c ****     case INV_FSR_16G:
 1988              		.loc 1 1226 0
 1989 0ad6 F1E7     		b	.L193
 1990              	.L192:
1228:drivers/inv_mpu.c ****         break;
 1991              		.loc 1 1228 0
 1992 0ad8 1023     		movs	r3, #16
 1993 0ada 0370     		strb	r3, [r0]
1229:drivers/inv_mpu.c ****     default:
 1994              		.loc 1 1229 0
 1995 0adc EEE7     		b	.L193
 1996              	.L194:
1231:drivers/inv_mpu.c ****     }
 1997              		.loc 1 1231 0
 1998 0ade 4FF0FF30 		mov	r0, #-1
 1999              	.LVL167:
 2000 0ae2 7047     		bx	lr
 2001              	.LVL168:
 2002              	.L195:
1235:drivers/inv_mpu.c **** }
 2003              		.loc 1 1235 0
 2004 0ae4 0020     		movs	r0, #0
 2005              	.LVL169:
1236:drivers/inv_mpu.c **** 
 2006              		.loc 1 1236 0
 2007 0ae6 7047     		bx	lr
 2008              	.L197:
 2009              		.align	2
 2010              	.L196:
 2011 0ae8 00000000 		.word	.LANCHOR0
 2012              		.cfi_endproc
 2013              	.LFE76:
 2014              		.size	mpu_get_accel_fsr, .-mpu_get_accel_fsr
 2015              		.align	1
 2016              		.global	mpu_set_accel_fsr
 2017              		.syntax unified
 2018              		.thumb
 2019              		.thumb_func
 2020              		.fpu softvfp
 2021              		.type	mpu_set_accel_fsr, %function
 2022              	mpu_set_accel_fsr:
 2023              	.LFB77:
1244:drivers/inv_mpu.c ****     unsigned char data;
 2024              		.loc 1 1244 0
 2025              		.cfi_startproc
 2026              		@ args = 0, pretend = 0, frame = 8
 2027              		@ frame_needed = 0, uses_anonymous_args = 0
ARM GAS  /tmp/cc18izUm.s 			page 78


 2028              	.LVL170:
1247:drivers/inv_mpu.c ****         return -1;
 2029              		.loc 1 1247 0
 2030 0aec 234B     		ldr	r3, .L214
 2031 0aee 9B7A     		ldrb	r3, [r3, #10]	@ zero_extendqisi2
 2032 0af0 002B     		cmp	r3, #0
 2033 0af2 37D0     		beq	.L206
1244:drivers/inv_mpu.c ****     unsigned char data;
 2034              		.loc 1 1244 0
 2035 0af4 00B5     		push	{lr}
 2036              		.cfi_def_cfa_offset 4
 2037              		.cfi_offset 14, -4
 2038 0af6 83B0     		sub	sp, sp, #12
 2039              		.cfi_def_cfa_offset 16
1250:drivers/inv_mpu.c ****     case 2:
 2040              		.loc 1 1250 0
 2041 0af8 0238     		subs	r0, r0, #2
 2042              	.LVL171:
 2043 0afa 0E28     		cmp	r0, #14
 2044 0afc 35D8     		bhi	.L207
 2045 0afe DFE800F0 		tbb	[pc, r0]
 2046              	.L201:
 2047 0b02 08       		.byte	(.L200-.L201)/2
 2048 0b03 34       		.byte	(.L207-.L201)/2
 2049 0b04 25       		.byte	(.L202-.L201)/2
 2050 0b05 34       		.byte	(.L207-.L201)/2
 2051 0b06 34       		.byte	(.L207-.L201)/2
 2052 0b07 34       		.byte	(.L207-.L201)/2
 2053 0b08 29       		.byte	(.L203-.L201)/2
 2054 0b09 34       		.byte	(.L207-.L201)/2
 2055 0b0a 34       		.byte	(.L207-.L201)/2
 2056 0b0b 34       		.byte	(.L207-.L201)/2
 2057 0b0c 34       		.byte	(.L207-.L201)/2
 2058 0b0d 34       		.byte	(.L207-.L201)/2
 2059 0b0e 34       		.byte	(.L207-.L201)/2
 2060 0b0f 34       		.byte	(.L207-.L201)/2
 2061 0b10 2D       		.byte	(.L204-.L201)/2
 2062 0b11 00       		.p2align 1
 2063              	.L200:
1252:drivers/inv_mpu.c ****         break;
 2064              		.loc 1 1252 0
 2065 0b12 0023     		movs	r3, #0
 2066 0b14 8DF80730 		strb	r3, [sp, #7]
 2067              	.L205:
1267:drivers/inv_mpu.c ****         return 0;
 2068              		.loc 1 1267 0
 2069 0b18 9DF80720 		ldrb	r2, [sp, #7]	@ zero_extendqisi2
 2070 0b1c 174B     		ldr	r3, .L214
 2071 0b1e 5B7A     		ldrb	r3, [r3, #9]	@ zero_extendqisi2
 2072 0b20 B3EBD20F 		cmp	r3, r2, lsr #3
 2073 0b24 24D0     		beq	.L208
1269:drivers/inv_mpu.c ****         return -1;
 2074              		.loc 1 1269 0
 2075 0b26 154B     		ldr	r3, .L214
 2076 0b28 1968     		ldr	r1, [r3]
 2077 0b2a 5868     		ldr	r0, [r3, #4]
 2078 0b2c 0DF10703 		add	r3, sp, #7
ARM GAS  /tmp/cc18izUm.s 			page 79


 2079 0b30 0122     		movs	r2, #1
 2080 0b32 C979     		ldrb	r1, [r1, #7]	@ zero_extendqisi2
 2081 0b34 0078     		ldrb	r0, [r0]	@ zero_extendqisi2
 2082 0b36 FFF7FEFF 		bl	I2C_Write
 2083              	.LVL172:
 2084 0b3a D8B9     		cbnz	r0, .L209
1271:drivers/inv_mpu.c ****     return 0;
 2085              		.loc 1 1271 0
 2086 0b3c 9DF80730 		ldrb	r3, [sp, #7]	@ zero_extendqisi2
 2087 0b40 DB08     		lsrs	r3, r3, #3
 2088 0b42 0E4A     		ldr	r2, .L214
 2089 0b44 5372     		strb	r3, [r2, #9]
 2090              	.L198:
1273:drivers/inv_mpu.c **** 
 2091              		.loc 1 1273 0
 2092 0b46 03B0     		add	sp, sp, #12
 2093              		.cfi_remember_state
 2094              		.cfi_def_cfa_offset 4
 2095              		@ sp needed
 2096 0b48 5DF804FB 		ldr	pc, [sp], #4
 2097              	.L202:
 2098              		.cfi_restore_state
1255:drivers/inv_mpu.c ****         break;
 2099              		.loc 1 1255 0
 2100 0b4c 0823     		movs	r3, #8
 2101 0b4e 8DF80730 		strb	r3, [sp, #7]
1256:drivers/inv_mpu.c ****     case 8:
 2102              		.loc 1 1256 0
 2103 0b52 E1E7     		b	.L205
 2104              	.L203:
1258:drivers/inv_mpu.c ****         break;
 2105              		.loc 1 1258 0
 2106 0b54 1023     		movs	r3, #16
 2107 0b56 8DF80730 		strb	r3, [sp, #7]
1259:drivers/inv_mpu.c ****     case 16:
 2108              		.loc 1 1259 0
 2109 0b5a DDE7     		b	.L205
 2110              	.L204:
1261:drivers/inv_mpu.c ****         break;
 2111              		.loc 1 1261 0
 2112 0b5c 1823     		movs	r3, #24
 2113 0b5e 8DF80730 		strb	r3, [sp, #7]
1262:drivers/inv_mpu.c ****     default:
 2114              		.loc 1 1262 0
 2115 0b62 D9E7     		b	.L205
 2116              	.LVL173:
 2117              	.L206:
 2118              		.cfi_def_cfa_offset 0
 2119              		.cfi_restore 14
1248:drivers/inv_mpu.c **** 
 2120              		.loc 1 1248 0
 2121 0b64 4FF0FF30 		mov	r0, #-1
 2122              	.LVL174:
 2123 0b68 7047     		bx	lr
 2124              	.L207:
 2125              		.cfi_def_cfa_offset 16
 2126              		.cfi_offset 14, -4
ARM GAS  /tmp/cc18izUm.s 			page 80


1264:drivers/inv_mpu.c ****     }
 2127              		.loc 1 1264 0
 2128 0b6a 4FF0FF30 		mov	r0, #-1
 2129 0b6e EAE7     		b	.L198
 2130              	.L208:
1268:drivers/inv_mpu.c ****     if (I2C_Write(st.hw->addr, st.reg->accel_cfg, 1, &data))
 2131              		.loc 1 1268 0
 2132 0b70 0020     		movs	r0, #0
 2133 0b72 E8E7     		b	.L198
 2134              	.L209:
1270:drivers/inv_mpu.c ****     st.chip_cfg.accel_fsr = data >> 3;
 2135              		.loc 1 1270 0
 2136 0b74 4FF0FF30 		mov	r0, #-1
 2137 0b78 E5E7     		b	.L198
 2138              	.L215:
 2139 0b7a 00BF     		.align	2
 2140              	.L214:
 2141 0b7c 00000000 		.word	.LANCHOR0
 2142              		.cfi_endproc
 2143              	.LFE77:
 2144              		.size	mpu_set_accel_fsr, .-mpu_set_accel_fsr
 2145              		.align	1
 2146              		.global	mpu_get_lpf
 2147              		.syntax unified
 2148              		.thumb
 2149              		.thumb_func
 2150              		.fpu softvfp
 2151              		.type	mpu_get_lpf, %function
 2152              	mpu_get_lpf:
 2153              	.LFB78:
1281:drivers/inv_mpu.c ****     switch (st.chip_cfg.lpf) {
 2154              		.loc 1 1281 0
 2155              		.cfi_startproc
 2156              		@ args = 0, pretend = 0, frame = 0
 2157              		@ frame_needed = 0, uses_anonymous_args = 0
 2158              		@ link register save eliminated.
 2159              	.LVL175:
1282:drivers/inv_mpu.c ****     case INV_FILTER_188HZ:
 2160              		.loc 1 1282 0
 2161 0b80 0F4B     		ldr	r3, .L226
 2162 0b82 DB7A     		ldrb	r3, [r3, #11]	@ zero_extendqisi2
 2163 0b84 013B     		subs	r3, r3, #1
 2164 0b86 052B     		cmp	r3, #5
 2165 0b88 17D8     		bhi	.L217
 2166 0b8a DFE803F0 		tbb	[pc, r3]
 2167              	.L219:
 2168 0b8e 03       		.byte	(.L218-.L219)/2
 2169 0b8f 07       		.byte	(.L220-.L219)/2
 2170 0b90 0A       		.byte	(.L221-.L219)/2
 2171 0b91 0D       		.byte	(.L222-.L219)/2
 2172 0b92 10       		.byte	(.L223-.L219)/2
 2173 0b93 13       		.byte	(.L224-.L219)/2
 2174              		.p2align 1
 2175              	.L218:
1284:drivers/inv_mpu.c ****         break;
 2176              		.loc 1 1284 0
 2177 0b94 BC23     		movs	r3, #188
ARM GAS  /tmp/cc18izUm.s 			page 81


 2178 0b96 0380     		strh	r3, [r0]	@ movhi
 2179              	.L225:
1308:drivers/inv_mpu.c **** 
 2180              		.loc 1 1308 0
 2181 0b98 0020     		movs	r0, #0
 2182              	.LVL176:
 2183 0b9a 7047     		bx	lr
 2184              	.LVL177:
 2185              	.L220:
1287:drivers/inv_mpu.c ****         break;
 2186              		.loc 1 1287 0
 2187 0b9c 6223     		movs	r3, #98
 2188 0b9e 0380     		strh	r3, [r0]	@ movhi
1288:drivers/inv_mpu.c ****     case INV_FILTER_42HZ:
 2189              		.loc 1 1288 0
 2190 0ba0 FAE7     		b	.L225
 2191              	.L221:
1290:drivers/inv_mpu.c ****         break;
 2192              		.loc 1 1290 0
 2193 0ba2 2A23     		movs	r3, #42
 2194 0ba4 0380     		strh	r3, [r0]	@ movhi
1291:drivers/inv_mpu.c ****     case INV_FILTER_20HZ:
 2195              		.loc 1 1291 0
 2196 0ba6 F7E7     		b	.L225
 2197              	.L222:
1293:drivers/inv_mpu.c ****         break;
 2198              		.loc 1 1293 0
 2199 0ba8 1423     		movs	r3, #20
 2200 0baa 0380     		strh	r3, [r0]	@ movhi
1294:drivers/inv_mpu.c ****     case INV_FILTER_10HZ:
 2201              		.loc 1 1294 0
 2202 0bac F4E7     		b	.L225
 2203              	.L223:
1296:drivers/inv_mpu.c ****         break;
 2204              		.loc 1 1296 0
 2205 0bae 0A23     		movs	r3, #10
 2206 0bb0 0380     		strh	r3, [r0]	@ movhi
1297:drivers/inv_mpu.c ****     case INV_FILTER_5HZ:
 2207              		.loc 1 1297 0
 2208 0bb2 F1E7     		b	.L225
 2209              	.L224:
1299:drivers/inv_mpu.c ****         break;
 2210              		.loc 1 1299 0
 2211 0bb4 0523     		movs	r3, #5
 2212 0bb6 0380     		strh	r3, [r0]	@ movhi
1300:drivers/inv_mpu.c ****     case INV_FILTER_256HZ_NOLPF2:
 2213              		.loc 1 1300 0
 2214 0bb8 EEE7     		b	.L225
 2215              	.L217:
1304:drivers/inv_mpu.c ****         break;
 2216              		.loc 1 1304 0
 2217 0bba 0023     		movs	r3, #0
 2218 0bbc 0380     		strh	r3, [r0]	@ movhi
1305:drivers/inv_mpu.c ****     }
 2219              		.loc 1 1305 0
 2220 0bbe EBE7     		b	.L225
 2221              	.L227:
ARM GAS  /tmp/cc18izUm.s 			page 82


 2222              		.align	2
 2223              	.L226:
 2224 0bc0 00000000 		.word	.LANCHOR0
 2225              		.cfi_endproc
 2226              	.LFE78:
 2227              		.size	mpu_get_lpf, .-mpu_get_lpf
 2228              		.align	1
 2229              		.global	mpu_set_lpf
 2230              		.syntax unified
 2231              		.thumb
 2232              		.thumb_func
 2233              		.fpu softvfp
 2234              		.type	mpu_set_lpf, %function
 2235              	mpu_set_lpf:
 2236              	.LFB79:
1317:drivers/inv_mpu.c ****     unsigned char data;
 2237              		.loc 1 1317 0
 2238              		.cfi_startproc
 2239              		@ args = 0, pretend = 0, frame = 8
 2240              		@ frame_needed = 0, uses_anonymous_args = 0
 2241              	.LVL178:
1320:drivers/inv_mpu.c ****         return -1;
 2242              		.loc 1 1320 0
 2243 0bc4 214B     		ldr	r3, .L243
 2244 0bc6 9B7A     		ldrb	r3, [r3, #10]	@ zero_extendqisi2
 2245 0bc8 002B     		cmp	r3, #0
 2246 0bca 37D0     		beq	.L236
1317:drivers/inv_mpu.c ****     unsigned char data;
 2247              		.loc 1 1317 0
 2248 0bcc 00B5     		push	{lr}
 2249              		.cfi_def_cfa_offset 4
 2250              		.cfi_offset 14, -4
 2251 0bce 83B0     		sub	sp, sp, #12
 2252              		.cfi_def_cfa_offset 16
1323:drivers/inv_mpu.c ****         data = INV_FILTER_188HZ;
 2253              		.loc 1 1323 0
 2254 0bd0 BB28     		cmp	r0, #187
 2255 0bd2 1AD9     		bls	.L230
1324:drivers/inv_mpu.c ****     else if (lpf >= 98)
 2256              		.loc 1 1324 0
 2257 0bd4 0123     		movs	r3, #1
 2258 0bd6 8DF80730 		strb	r3, [sp, #7]
 2259              	.L231:
1336:drivers/inv_mpu.c ****         return 0;
 2260              		.loc 1 1336 0
 2261 0bda 1C4B     		ldr	r3, .L243
 2262 0bdc DA7A     		ldrb	r2, [r3, #11]	@ zero_extendqisi2
 2263 0bde 9DF80730 		ldrb	r3, [sp, #7]	@ zero_extendqisi2
 2264 0be2 9A42     		cmp	r2, r3
 2265 0be4 2DD0     		beq	.L237
1338:drivers/inv_mpu.c ****         return -1;
 2266              		.loc 1 1338 0
 2267 0be6 194B     		ldr	r3, .L243
 2268 0be8 1968     		ldr	r1, [r3]
 2269 0bea 5868     		ldr	r0, [r3, #4]
 2270              	.LVL179:
 2271 0bec 0DF10703 		add	r3, sp, #7
ARM GAS  /tmp/cc18izUm.s 			page 83


 2272 0bf0 0122     		movs	r2, #1
 2273 0bf2 8978     		ldrb	r1, [r1, #2]	@ zero_extendqisi2
 2274 0bf4 0078     		ldrb	r0, [r0]	@ zero_extendqisi2
 2275 0bf6 FFF7FEFF 		bl	I2C_Write
 2276              	.LVL180:
 2277 0bfa 20BB     		cbnz	r0, .L238
1340:drivers/inv_mpu.c ****     return 0;
 2278              		.loc 1 1340 0
 2279 0bfc 9DF80720 		ldrb	r2, [sp, #7]	@ zero_extendqisi2
 2280 0c00 124B     		ldr	r3, .L243
 2281 0c02 DA72     		strb	r2, [r3, #11]
 2282              	.L228:
1342:drivers/inv_mpu.c **** 
 2283              		.loc 1 1342 0
 2284 0c04 03B0     		add	sp, sp, #12
 2285              		.cfi_remember_state
 2286              		.cfi_def_cfa_offset 4
 2287              		@ sp needed
 2288 0c06 5DF804FB 		ldr	pc, [sp], #4
 2289              	.LVL181:
 2290              	.L230:
 2291              		.cfi_restore_state
1325:drivers/inv_mpu.c ****         data = INV_FILTER_98HZ;
 2292              		.loc 1 1325 0
 2293 0c0a 6128     		cmp	r0, #97
 2294 0c0c 03D9     		bls	.L232
1326:drivers/inv_mpu.c ****     else if (lpf >= 42)
 2295              		.loc 1 1326 0
 2296 0c0e 0223     		movs	r3, #2
 2297 0c10 8DF80730 		strb	r3, [sp, #7]
 2298 0c14 E1E7     		b	.L231
 2299              	.L232:
1327:drivers/inv_mpu.c ****         data = INV_FILTER_42HZ;
 2300              		.loc 1 1327 0
 2301 0c16 2928     		cmp	r0, #41
 2302 0c18 03D9     		bls	.L233
1328:drivers/inv_mpu.c ****     else if (lpf >= 20)
 2303              		.loc 1 1328 0
 2304 0c1a 0323     		movs	r3, #3
 2305 0c1c 8DF80730 		strb	r3, [sp, #7]
 2306 0c20 DBE7     		b	.L231
 2307              	.L233:
1329:drivers/inv_mpu.c ****         data = INV_FILTER_20HZ;
 2308              		.loc 1 1329 0
 2309 0c22 1328     		cmp	r0, #19
 2310 0c24 03D9     		bls	.L234
1330:drivers/inv_mpu.c ****     else if (lpf >= 10)
 2311              		.loc 1 1330 0
 2312 0c26 0423     		movs	r3, #4
 2313 0c28 8DF80730 		strb	r3, [sp, #7]
 2314 0c2c D5E7     		b	.L231
 2315              	.L234:
1331:drivers/inv_mpu.c ****         data = INV_FILTER_10HZ;
 2316              		.loc 1 1331 0
 2317 0c2e 0928     		cmp	r0, #9
1332:drivers/inv_mpu.c ****     else
 2318              		.loc 1 1332 0
ARM GAS  /tmp/cc18izUm.s 			page 84


 2319 0c30 8CBF     		ite	hi
 2320 0c32 0523     		movhi	r3, #5
1334:drivers/inv_mpu.c **** 
 2321              		.loc 1 1334 0
 2322 0c34 0623     		movls	r3, #6
 2323 0c36 8DF80730 		strb	r3, [sp, #7]
 2324 0c3a CEE7     		b	.L231
 2325              	.L236:
 2326              		.cfi_def_cfa_offset 0
 2327              		.cfi_restore 14
1321:drivers/inv_mpu.c **** 
 2328              		.loc 1 1321 0
 2329 0c3c 4FF0FF30 		mov	r0, #-1
 2330              	.LVL182:
 2331 0c40 7047     		bx	lr
 2332              	.LVL183:
 2333              	.L237:
 2334              		.cfi_def_cfa_offset 16
 2335              		.cfi_offset 14, -4
1337:drivers/inv_mpu.c ****     if (I2C_Write(st.hw->addr, st.reg->lpf, 1, &data))
 2336              		.loc 1 1337 0
 2337 0c42 0020     		movs	r0, #0
 2338              	.LVL184:
 2339 0c44 DEE7     		b	.L228
 2340              	.L238:
1339:drivers/inv_mpu.c ****     st.chip_cfg.lpf = data;
 2341              		.loc 1 1339 0
 2342 0c46 4FF0FF30 		mov	r0, #-1
 2343 0c4a DBE7     		b	.L228
 2344              	.L244:
 2345              		.align	2
 2346              	.L243:
 2347 0c4c 00000000 		.word	.LANCHOR0
 2348              		.cfi_endproc
 2349              	.LFE79:
 2350              		.size	mpu_set_lpf, .-mpu_set_lpf
 2351              		.align	1
 2352              		.global	mpu_get_sample_rate
 2353              		.syntax unified
 2354              		.thumb
 2355              		.thumb_func
 2356              		.fpu softvfp
 2357              		.type	mpu_get_sample_rate, %function
 2358              	mpu_get_sample_rate:
 2359              	.LFB80:
1350:drivers/inv_mpu.c ****     if (st.chip_cfg.dmp_on)
 2360              		.loc 1 1350 0
 2361              		.cfi_startproc
 2362              		@ args = 0, pretend = 0, frame = 0
 2363              		@ frame_needed = 0, uses_anonymous_args = 0
 2364              		@ link register save eliminated.
 2365              	.LVL185:
1351:drivers/inv_mpu.c ****         return -1;
 2366              		.loc 1 1351 0
 2367 0c50 054B     		ldr	r3, .L248
 2368 0c52 93F82430 		ldrb	r3, [r3, #36]	@ zero_extendqisi2
 2369 0c56 23B9     		cbnz	r3, .L247
ARM GAS  /tmp/cc18izUm.s 			page 85


1354:drivers/inv_mpu.c ****     return 0;
 2370              		.loc 1 1354 0
 2371 0c58 034B     		ldr	r3, .L248
 2372 0c5a DB89     		ldrh	r3, [r3, #14]
 2373 0c5c 0380     		strh	r3, [r0]	@ movhi
1355:drivers/inv_mpu.c **** }
 2374              		.loc 1 1355 0
 2375 0c5e 0020     		movs	r0, #0
 2376              	.LVL186:
 2377 0c60 7047     		bx	lr
 2378              	.LVL187:
 2379              	.L247:
1352:drivers/inv_mpu.c ****     else
 2380              		.loc 1 1352 0
 2381 0c62 4FF0FF30 		mov	r0, #-1
 2382              	.LVL188:
1356:drivers/inv_mpu.c **** 
 2383              		.loc 1 1356 0
 2384 0c66 7047     		bx	lr
 2385              	.L249:
 2386              		.align	2
 2387              	.L248:
 2388 0c68 00000000 		.word	.LANCHOR0
 2389              		.cfi_endproc
 2390              	.LFE80:
 2391              		.size	mpu_get_sample_rate, .-mpu_get_sample_rate
 2392              		.align	1
 2393              		.global	mpu_get_compass_sample_rate
 2394              		.syntax unified
 2395              		.thumb
 2396              		.thumb_func
 2397              		.fpu softvfp
 2398              		.type	mpu_get_compass_sample_rate, %function
 2399              	mpu_get_compass_sample_rate:
 2400              	.LFB82:
1412:drivers/inv_mpu.c **** #ifdef AK89xx_SECONDARY
 2401              		.loc 1 1412 0
 2402              		.cfi_startproc
 2403              		@ args = 0, pretend = 0, frame = 0
 2404              		@ frame_needed = 0, uses_anonymous_args = 0
 2405              		@ link register save eliminated.
 2406              	.LVL189:
1417:drivers/inv_mpu.c ****     return -1;
 2407              		.loc 1 1417 0
 2408 0c6c 0023     		movs	r3, #0
 2409 0c6e 0380     		strh	r3, [r0]	@ movhi
1420:drivers/inv_mpu.c **** 
 2410              		.loc 1 1420 0
 2411 0c70 4FF0FF30 		mov	r0, #-1
 2412              	.LVL190:
 2413 0c74 7047     		bx	lr
 2414              		.cfi_endproc
 2415              	.LFE82:
 2416              		.size	mpu_get_compass_sample_rate, .-mpu_get_compass_sample_rate
 2417              		.align	1
 2418              		.global	mpu_set_compass_sample_rate
 2419              		.syntax unified
ARM GAS  /tmp/cc18izUm.s 			page 86


 2420              		.thumb
 2421              		.thumb_func
 2422              		.fpu softvfp
 2423              		.type	mpu_set_compass_sample_rate, %function
 2424              	mpu_set_compass_sample_rate:
 2425              	.LFB83:
1434:drivers/inv_mpu.c **** #ifdef AK89xx_SECONDARY
 2426              		.loc 1 1434 0
 2427              		.cfi_startproc
 2428              		@ args = 0, pretend = 0, frame = 0
 2429              		@ frame_needed = 0, uses_anonymous_args = 0
 2430              		@ link register save eliminated.
 2431              	.LVL191:
1448:drivers/inv_mpu.c **** 
 2432              		.loc 1 1448 0
 2433 0c76 4FF0FF30 		mov	r0, #-1
 2434              	.LVL192:
 2435 0c7a 7047     		bx	lr
 2436              		.cfi_endproc
 2437              	.LFE83:
 2438              		.size	mpu_set_compass_sample_rate, .-mpu_set_compass_sample_rate
 2439              		.align	1
 2440              		.global	mpu_get_gyro_sens
 2441              		.syntax unified
 2442              		.thumb
 2443              		.thumb_func
 2444              		.fpu softvfp
 2445              		.type	mpu_get_gyro_sens, %function
 2446              	mpu_get_gyro_sens:
 2447              	.LFB84:
1456:drivers/inv_mpu.c ****     switch (st.chip_cfg.gyro_fsr) {
 2448              		.loc 1 1456 0
 2449              		.cfi_startproc
 2450              		@ args = 0, pretend = 0, frame = 0
 2451              		@ frame_needed = 0, uses_anonymous_args = 0
 2452              		@ link register save eliminated.
 2453              	.LVL193:
1457:drivers/inv_mpu.c ****     case INV_FSR_250DPS:
 2454              		.loc 1 1457 0
 2455 0c7c 0D4B     		ldr	r3, .L260
 2456 0c7e 1B7A     		ldrb	r3, [r3, #8]	@ zero_extendqisi2
 2457 0c80 032B     		cmp	r3, #3
 2458 0c82 13D8     		bhi	.L259
 2459 0c84 DFE803F0 		tbb	[pc, r3]
 2460              	.L255:
 2461 0c88 02       		.byte	(.L254-.L255)/2
 2462 0c89 06       		.byte	(.L256-.L255)/2
 2463 0c8a 0A       		.byte	(.L257-.L255)/2
 2464 0c8b 0E       		.byte	(.L258-.L255)/2
 2465              		.p2align 1
 2466              	.L254:
1459:drivers/inv_mpu.c ****         break;
 2467              		.loc 1 1459 0
 2468 0c8c 0A4B     		ldr	r3, .L260+4
 2469 0c8e 0360     		str	r3, [r0]	@ float
1473:drivers/inv_mpu.c **** }
 2470              		.loc 1 1473 0
ARM GAS  /tmp/cc18izUm.s 			page 87


 2471 0c90 0020     		movs	r0, #0
 2472              	.LVL194:
1460:drivers/inv_mpu.c ****     case INV_FSR_500DPS:
 2473              		.loc 1 1460 0
 2474 0c92 7047     		bx	lr
 2475              	.LVL195:
 2476              	.L256:
1462:drivers/inv_mpu.c ****         break;
 2477              		.loc 1 1462 0
 2478 0c94 094B     		ldr	r3, .L260+8
 2479 0c96 0360     		str	r3, [r0]	@ float
1473:drivers/inv_mpu.c **** }
 2480              		.loc 1 1473 0
 2481 0c98 0020     		movs	r0, #0
 2482              	.LVL196:
1463:drivers/inv_mpu.c ****     case INV_FSR_1000DPS:
 2483              		.loc 1 1463 0
 2484 0c9a 7047     		bx	lr
 2485              	.LVL197:
 2486              	.L257:
1465:drivers/inv_mpu.c ****         break;
 2487              		.loc 1 1465 0
 2488 0c9c 084B     		ldr	r3, .L260+12
 2489 0c9e 0360     		str	r3, [r0]	@ float
1473:drivers/inv_mpu.c **** }
 2490              		.loc 1 1473 0
 2491 0ca0 0020     		movs	r0, #0
 2492              	.LVL198:
1466:drivers/inv_mpu.c ****     case INV_FSR_2000DPS:
 2493              		.loc 1 1466 0
 2494 0ca2 7047     		bx	lr
 2495              	.LVL199:
 2496              	.L258:
1468:drivers/inv_mpu.c ****         break;
 2497              		.loc 1 1468 0
 2498 0ca4 074B     		ldr	r3, .L260+16
 2499 0ca6 0360     		str	r3, [r0]	@ float
1473:drivers/inv_mpu.c **** }
 2500              		.loc 1 1473 0
 2501 0ca8 0020     		movs	r0, #0
 2502              	.LVL200:
1469:drivers/inv_mpu.c ****     default:
 2503              		.loc 1 1469 0
 2504 0caa 7047     		bx	lr
 2505              	.LVL201:
 2506              	.L259:
1471:drivers/inv_mpu.c ****     }
 2507              		.loc 1 1471 0
 2508 0cac 4FF0FF30 		mov	r0, #-1
 2509              	.LVL202:
1474:drivers/inv_mpu.c **** 
 2510              		.loc 1 1474 0
 2511 0cb0 7047     		bx	lr
 2512              	.L261:
 2513 0cb2 00BF     		.align	2
 2514              	.L260:
 2515 0cb4 00000000 		.word	.LANCHOR0
ARM GAS  /tmp/cc18izUm.s 			page 88


 2516 0cb8 00000343 		.word	1124270080
 2517 0cbc 00008342 		.word	1115881472
 2518 0cc0 33330342 		.word	1107505971
 2519 0cc4 33338341 		.word	1099117363
 2520              		.cfi_endproc
 2521              	.LFE84:
 2522              		.size	mpu_get_gyro_sens, .-mpu_get_gyro_sens
 2523              		.align	1
 2524              		.global	mpu_get_accel_sens
 2525              		.syntax unified
 2526              		.thumb
 2527              		.thumb_func
 2528              		.fpu softvfp
 2529              		.type	mpu_get_accel_sens, %function
 2530              	mpu_get_accel_sens:
 2531              	.LFB85:
1482:drivers/inv_mpu.c ****     switch (st.chip_cfg.accel_fsr) {
 2532              		.loc 1 1482 0
 2533              		.cfi_startproc
 2534              		@ args = 0, pretend = 0, frame = 0
 2535              		@ frame_needed = 0, uses_anonymous_args = 0
 2536              		@ link register save eliminated.
 2537              	.LVL203:
1483:drivers/inv_mpu.c ****     case INV_FSR_2G:
 2538              		.loc 1 1483 0
 2539 0cc8 114B     		ldr	r3, .L272
 2540 0cca 5B7A     		ldrb	r3, [r3, #9]	@ zero_extendqisi2
 2541 0ccc 032B     		cmp	r3, #3
 2542 0cce 1AD8     		bhi	.L270
 2543 0cd0 DFE803F0 		tbb	[pc, r3]
 2544              	.L265:
 2545 0cd4 02       		.byte	(.L264-.L265)/2
 2546 0cd5 0D       		.byte	(.L266-.L265)/2
 2547 0cd6 11       		.byte	(.L267-.L265)/2
 2548 0cd7 15       		.byte	(.L268-.L265)/2
 2549              		.p2align 1
 2550              	.L264:
1485:drivers/inv_mpu.c ****         break;
 2551              		.loc 1 1485 0
 2552 0cd8 4FF48043 		mov	r3, #16384
 2553 0cdc 0380     		strh	r3, [r0]	@ movhi
 2554              	.L269:
1499:drivers/inv_mpu.c ****         sens[0] >>= 1;
 2555              		.loc 1 1499 0
 2556 0cde 0C4B     		ldr	r3, .L272
 2557 0ce0 DB7C     		ldrb	r3, [r3, #19]	@ zero_extendqisi2
 2558 0ce2 9BB1     		cbz	r3, .L271
1500:drivers/inv_mpu.c ****     return 0;
 2559              		.loc 1 1500 0
 2560 0ce4 0388     		ldrh	r3, [r0]
 2561 0ce6 5B08     		lsrs	r3, r3, #1
 2562 0ce8 0380     		strh	r3, [r0]	@ movhi
1501:drivers/inv_mpu.c **** }
 2563              		.loc 1 1501 0
 2564 0cea 0020     		movs	r0, #0
 2565              	.LVL204:
 2566 0cec 7047     		bx	lr
ARM GAS  /tmp/cc18izUm.s 			page 89


 2567              	.LVL205:
 2568              	.L266:
1488:drivers/inv_mpu.c ****         break;
 2569              		.loc 1 1488 0
 2570 0cee 41F69C73 		movw	r3, #8092
 2571 0cf2 0380     		strh	r3, [r0]	@ movhi
1489:drivers/inv_mpu.c ****     case INV_FSR_8G:
 2572              		.loc 1 1489 0
 2573 0cf4 F3E7     		b	.L269
 2574              	.L267:
1491:drivers/inv_mpu.c ****         break;
 2575              		.loc 1 1491 0
 2576 0cf6 4FF48053 		mov	r3, #4096
 2577 0cfa 0380     		strh	r3, [r0]	@ movhi
1492:drivers/inv_mpu.c ****     case INV_FSR_16G:
 2578              		.loc 1 1492 0
 2579 0cfc EFE7     		b	.L269
 2580              	.L268:
1494:drivers/inv_mpu.c ****         break;
 2581              		.loc 1 1494 0
 2582 0cfe 4FF40063 		mov	r3, #2048
 2583 0d02 0380     		strh	r3, [r0]	@ movhi
1495:drivers/inv_mpu.c ****     default:
 2584              		.loc 1 1495 0
 2585 0d04 EBE7     		b	.L269
 2586              	.L270:
1497:drivers/inv_mpu.c ****     }
 2587              		.loc 1 1497 0
 2588 0d06 4FF0FF30 		mov	r0, #-1
 2589              	.LVL206:
 2590 0d0a 7047     		bx	lr
 2591              	.LVL207:
 2592              	.L271:
1501:drivers/inv_mpu.c **** }
 2593              		.loc 1 1501 0
 2594 0d0c 0020     		movs	r0, #0
 2595              	.LVL208:
1502:drivers/inv_mpu.c **** 
 2596              		.loc 1 1502 0
 2597 0d0e 7047     		bx	lr
 2598              	.L273:
 2599              		.align	2
 2600              	.L272:
 2601 0d10 00000000 		.word	.LANCHOR0
 2602              		.cfi_endproc
 2603              	.LFE85:
 2604              		.size	mpu_get_accel_sens, .-mpu_get_accel_sens
 2605              		.align	1
 2606              		.global	mpu_get_fifo_config
 2607              		.syntax unified
 2608              		.thumb
 2609              		.thumb_func
 2610              		.fpu softvfp
 2611              		.type	mpu_get_fifo_config, %function
 2612              	mpu_get_fifo_config:
 2613              	.LFB86:
1514:drivers/inv_mpu.c ****     sensors[0] = st.chip_cfg.fifo_enable;
ARM GAS  /tmp/cc18izUm.s 			page 90


 2614              		.loc 1 1514 0
 2615              		.cfi_startproc
 2616              		@ args = 0, pretend = 0, frame = 0
 2617              		@ frame_needed = 0, uses_anonymous_args = 0
 2618              		@ link register save eliminated.
 2619              	.LVL209:
1515:drivers/inv_mpu.c ****     return 0;
 2620              		.loc 1 1515 0
 2621 0d14 024B     		ldr	r3, .L275
 2622 0d16 1B7C     		ldrb	r3, [r3, #16]	@ zero_extendqisi2
 2623 0d18 0370     		strb	r3, [r0]
1517:drivers/inv_mpu.c **** 
 2624              		.loc 1 1517 0
 2625 0d1a 0020     		movs	r0, #0
 2626              	.LVL210:
 2627 0d1c 7047     		bx	lr
 2628              	.L276:
 2629 0d1e 00BF     		.align	2
 2630              	.L275:
 2631 0d20 00000000 		.word	.LANCHOR0
 2632              		.cfi_endproc
 2633              	.LFE86:
 2634              		.size	mpu_get_fifo_config, .-mpu_get_fifo_config
 2635              		.align	1
 2636              		.global	mpu_configure_fifo
 2637              		.syntax unified
 2638              		.thumb
 2639              		.thumb_func
 2640              		.fpu softvfp
 2641              		.type	mpu_configure_fifo, %function
 2642              	mpu_configure_fifo:
 2643              	.LFB87:
1529:drivers/inv_mpu.c ****     unsigned char prev;
 2644              		.loc 1 1529 0
 2645              		.cfi_startproc
 2646              		@ args = 0, pretend = 0, frame = 0
 2647              		@ frame_needed = 0, uses_anonymous_args = 0
 2648              	.LVL211:
 2649 0d24 38B5     		push	{r3, r4, r5, lr}
 2650              		.cfi_def_cfa_offset 16
 2651              		.cfi_offset 3, -16
 2652              		.cfi_offset 4, -12
 2653              		.cfi_offset 5, -8
 2654              		.cfi_offset 14, -4
 2655              	.LVL212:
1536:drivers/inv_mpu.c ****         return 0;
 2656              		.loc 1 1536 0
 2657 0d26 164B     		ldr	r3, .L286
 2658 0d28 93F82430 		ldrb	r3, [r3, #36]	@ zero_extendqisi2
 2659 0d2c ABB9     		cbnz	r3, .L282
1539:drivers/inv_mpu.c ****             return -1;
 2660              		.loc 1 1539 0
 2661 0d2e 144B     		ldr	r3, .L286
 2662 0d30 9C7A     		ldrb	r4, [r3, #10]	@ zero_extendqisi2
 2663 0d32 ACB1     		cbz	r4, .L283
1534:drivers/inv_mpu.c **** 
 2664              		.loc 1 1534 0
ARM GAS  /tmp/cc18izUm.s 			page 91


 2665 0d34 00F0FE00 		and	r0, r0, #254
 2666              	.LVL213:
1541:drivers/inv_mpu.c ****         st.chip_cfg.fifo_enable = sensors & st.chip_cfg.sensors;
 2667              		.loc 1 1541 0
 2668 0d38 1D7C     		ldrb	r5, [r3, #16]	@ zero_extendqisi2
 2669              	.LVL214:
1542:drivers/inv_mpu.c ****         if (st.chip_cfg.fifo_enable != sensors)
 2670              		.loc 1 1542 0
 2671 0d3a 0440     		ands	r4, r4, r0
 2672 0d3c 1C74     		strb	r4, [r3, #16]
1543:drivers/inv_mpu.c ****             /* You're not getting what you asked for. Some sensors are
 2673              		.loc 1 1543 0
 2674 0d3e 041B     		subs	r4, r0, r4
 2675 0d40 18BF     		it	ne
 2676 0d42 4FF0FF34 		movne	r4, #-1
 2677              	.LVL215:
1550:drivers/inv_mpu.c ****             set_int_enable(1);
 2678              		.loc 1 1550 0
 2679 0d46 70B9     		cbnz	r0, .L279
1550:drivers/inv_mpu.c ****             set_int_enable(1);
 2680              		.loc 1 1550 0 is_stmt 0 discriminator 1
 2681 0d48 1B7D     		ldrb	r3, [r3, #20]	@ zero_extendqisi2
 2682 0d4a 1BB1     		cbz	r3, .L285
1551:drivers/inv_mpu.c ****         else
 2683              		.loc 1 1551 0 is_stmt 1
 2684 0d4c 0120     		movs	r0, #1
 2685 0d4e FFF757F9 		bl	set_int_enable
 2686              	.LVL216:
 2687 0d52 03E0     		b	.L277
 2688              	.L285:
1553:drivers/inv_mpu.c ****         if (sensors) {
 2689              		.loc 1 1553 0
 2690 0d54 FFF754F9 		bl	set_int_enable
 2691              	.LVL217:
 2692 0d58 00E0     		b	.L277
 2693              	.LVL218:
 2694              	.L282:
1537:drivers/inv_mpu.c ****     else {
 2695              		.loc 1 1537 0
 2696 0d5a 0024     		movs	r4, #0
 2697              	.LVL219:
 2698              	.L277:
1563:drivers/inv_mpu.c **** 
 2699              		.loc 1 1563 0
 2700 0d5c 2046     		mov	r0, r4
 2701 0d5e 38BD     		pop	{r3, r4, r5, pc}
 2702              	.LVL220:
 2703              	.L283:
1540:drivers/inv_mpu.c ****         prev = st.chip_cfg.fifo_enable;
 2704              		.loc 1 1540 0
 2705 0d60 4FF0FF34 		mov	r4, #-1
 2706 0d64 FAE7     		b	.L277
 2707              	.LVL221:
 2708              	.L279:
1551:drivers/inv_mpu.c ****         else
 2709              		.loc 1 1551 0
 2710 0d66 0120     		movs	r0, #1
ARM GAS  /tmp/cc18izUm.s 			page 92


 2711 0d68 FFF74AF9 		bl	set_int_enable
 2712              	.LVL222:
1555:drivers/inv_mpu.c ****                 st.chip_cfg.fifo_enable = prev;
 2713              		.loc 1 1555 0
 2714 0d6c FFF7FEFF 		bl	mpu_reset_fifo
 2715              	.LVL223:
 2716 0d70 0028     		cmp	r0, #0
 2717 0d72 F3D0     		beq	.L277
1556:drivers/inv_mpu.c ****                 return -1;
 2718              		.loc 1 1556 0
 2719 0d74 024B     		ldr	r3, .L286
 2720 0d76 1D74     		strb	r5, [r3, #16]
1557:drivers/inv_mpu.c ****             }
 2721              		.loc 1 1557 0
 2722 0d78 4FF0FF34 		mov	r4, #-1
 2723              	.LVL224:
 2724 0d7c EEE7     		b	.L277
 2725              	.L287:
 2726 0d7e 00BF     		.align	2
 2727              	.L286:
 2728 0d80 00000000 		.word	.LANCHOR0
 2729              		.cfi_endproc
 2730              	.LFE87:
 2731              		.size	mpu_configure_fifo, .-mpu_configure_fifo
 2732              		.align	1
 2733              		.global	mpu_get_power_state
 2734              		.syntax unified
 2735              		.thumb
 2736              		.thumb_func
 2737              		.fpu softvfp
 2738              		.type	mpu_get_power_state, %function
 2739              	mpu_get_power_state:
 2740              	.LFB88:
1571:drivers/inv_mpu.c ****     if (st.chip_cfg.sensors)
 2741              		.loc 1 1571 0
 2742              		.cfi_startproc
 2743              		@ args = 0, pretend = 0, frame = 0
 2744              		@ frame_needed = 0, uses_anonymous_args = 0
 2745              		@ link register save eliminated.
 2746              	.LVL225:
1572:drivers/inv_mpu.c ****         power_on[0] = 1;
 2747              		.loc 1 1572 0
 2748 0d84 044B     		ldr	r3, .L292
 2749 0d86 9B7A     		ldrb	r3, [r3, #10]	@ zero_extendqisi2
 2750 0d88 1BB9     		cbnz	r3, .L291
1575:drivers/inv_mpu.c ****     return 0;
 2751              		.loc 1 1575 0
 2752 0d8a 0023     		movs	r3, #0
 2753 0d8c 0370     		strb	r3, [r0]
 2754              	.L290:
1577:drivers/inv_mpu.c **** 
 2755              		.loc 1 1577 0
 2756 0d8e 0020     		movs	r0, #0
 2757              	.LVL226:
 2758 0d90 7047     		bx	lr
 2759              	.LVL227:
 2760              	.L291:
ARM GAS  /tmp/cc18izUm.s 			page 93


1573:drivers/inv_mpu.c ****     else
 2761              		.loc 1 1573 0
 2762 0d92 0123     		movs	r3, #1
 2763 0d94 0370     		strb	r3, [r0]
 2764 0d96 FAE7     		b	.L290
 2765              	.L293:
 2766              		.align	2
 2767              	.L292:
 2768 0d98 00000000 		.word	.LANCHOR0
 2769              		.cfi_endproc
 2770              	.LFE88:
 2771              		.size	mpu_get_power_state, .-mpu_get_power_state
 2772              		.align	1
 2773              		.global	mpu_get_int_status
 2774              		.syntax unified
 2775              		.thumb
 2776              		.thumb_func
 2777              		.fpu softvfp
 2778              		.type	mpu_get_int_status, %function
 2779              	mpu_get_int_status:
 2780              	.LFB90:
1667:drivers/inv_mpu.c ****     unsigned char tmp[2];
 2781              		.loc 1 1667 0
 2782              		.cfi_startproc
 2783              		@ args = 0, pretend = 0, frame = 8
 2784              		@ frame_needed = 0, uses_anonymous_args = 0
 2785              	.LVL228:
1669:drivers/inv_mpu.c ****         return -1;
 2786              		.loc 1 1669 0
 2787 0d9c 0F4B     		ldr	r3, .L302
 2788 0d9e 9B7A     		ldrb	r3, [r3, #10]	@ zero_extendqisi2
 2789 0da0 ABB1     		cbz	r3, .L296
1667:drivers/inv_mpu.c ****     unsigned char tmp[2];
 2790              		.loc 1 1667 0
 2791 0da2 10B5     		push	{r4, lr}
 2792              		.cfi_def_cfa_offset 8
 2793              		.cfi_offset 4, -8
 2794              		.cfi_offset 14, -4
 2795 0da4 82B0     		sub	sp, sp, #8
 2796              		.cfi_def_cfa_offset 16
 2797 0da6 0446     		mov	r4, r0
1671:drivers/inv_mpu.c ****         return -1;
 2798              		.loc 1 1671 0
 2799 0da8 0C4B     		ldr	r3, .L302
 2800 0daa 1968     		ldr	r1, [r3]
 2801 0dac 5868     		ldr	r0, [r3, #4]
 2802              	.LVL229:
 2803 0dae 01AB     		add	r3, sp, #4
 2804 0db0 0222     		movs	r2, #2
 2805 0db2 097C     		ldrb	r1, [r1, #16]	@ zero_extendqisi2
 2806 0db4 0078     		ldrb	r0, [r0]	@ zero_extendqisi2
 2807 0db6 FFF7FEFF 		bl	I2C_Read
 2808              	.LVL230:
 2809 0dba 58B9     		cbnz	r0, .L297
1673:drivers/inv_mpu.c ****     return 0;
 2810              		.loc 1 1673 0
 2811 0dbc 9DF80420 		ldrb	r2, [sp, #4]	@ zero_extendqisi2
ARM GAS  /tmp/cc18izUm.s 			page 94


 2812 0dc0 9DF80530 		ldrb	r3, [sp, #5]	@ zero_extendqisi2
 2813 0dc4 43EA0223 		orr	r3, r3, r2, lsl #8
 2814 0dc8 2380     		strh	r3, [r4]	@ movhi
 2815              	.L294:
1675:drivers/inv_mpu.c **** 
 2816              		.loc 1 1675 0
 2817 0dca 02B0     		add	sp, sp, #8
 2818              		.cfi_def_cfa_offset 8
 2819              		@ sp needed
 2820 0dcc 10BD     		pop	{r4, pc}
 2821              	.LVL231:
 2822              	.L296:
 2823              		.cfi_def_cfa_offset 0
 2824              		.cfi_restore 4
 2825              		.cfi_restore 14
1670:drivers/inv_mpu.c ****     if (I2C_Read(st.hw->addr, st.reg->dmp_int_status, 2, tmp))
 2826              		.loc 1 1670 0
 2827 0dce 4FF0FF30 		mov	r0, #-1
 2828              	.LVL232:
 2829 0dd2 7047     		bx	lr
 2830              	.LVL233:
 2831              	.L297:
 2832              		.cfi_def_cfa_offset 16
 2833              		.cfi_offset 4, -8
 2834              		.cfi_offset 14, -4
1672:drivers/inv_mpu.c ****     status[0] = (tmp[0] << 8) | tmp[1];
 2835              		.loc 1 1672 0
 2836 0dd4 4FF0FF30 		mov	r0, #-1
 2837 0dd8 F7E7     		b	.L294
 2838              	.L303:
 2839 0dda 00BF     		.align	2
 2840              	.L302:
 2841 0ddc 00000000 		.word	.LANCHOR0
 2842              		.cfi_endproc
 2843              	.LFE90:
 2844              		.size	mpu_get_int_status, .-mpu_get_int_status
 2845              		.align	1
 2846              		.global	mpu_read_fifo
 2847              		.syntax unified
 2848              		.thumb
 2849              		.thumb_func
 2850              		.fpu softvfp
 2851              		.type	mpu_read_fifo, %function
 2852              	mpu_read_fifo:
 2853              	.LFB91:
1697:drivers/inv_mpu.c ****     /* Assumes maximum packet size is gyro (6) + accel (6). */
 2854              		.loc 1 1697 0
 2855              		.cfi_startproc
 2856              		@ args = 4, pretend = 0, frame = 16
 2857              		@ frame_needed = 0, uses_anonymous_args = 0
 2858              	.LVL234:
1703:drivers/inv_mpu.c ****         return -1;
 2859              		.loc 1 1703 0
 2860 0de0 7B4A     		ldr	r2, .L332
 2861              	.LVL235:
 2862 0de2 92F82420 		ldrb	r2, [r2, #36]	@ zero_extendqisi2
 2863 0de6 002A     		cmp	r2, #0
ARM GAS  /tmp/cc18izUm.s 			page 95


 2864 0de8 40F0D280 		bne	.L314
1706:drivers/inv_mpu.c ****     if (!st.chip_cfg.sensors)
 2865              		.loc 1 1706 0
 2866 0dec 1A70     		strb	r2, [r3]
1707:drivers/inv_mpu.c ****         return -1;
 2867              		.loc 1 1707 0
 2868 0dee 784A     		ldr	r2, .L332
 2869 0df0 927A     		ldrb	r2, [r2, #10]	@ zero_extendqisi2
 2870 0df2 002A     		cmp	r2, #0
 2871 0df4 00F0CF80 		beq	.L315
1709:drivers/inv_mpu.c ****         return -1;
 2872              		.loc 1 1709 0
 2873 0df8 754A     		ldr	r2, .L332
 2874 0dfa 127C     		ldrb	r2, [r2, #16]	@ zero_extendqisi2
 2875 0dfc 002A     		cmp	r2, #0
 2876 0dfe 00F0CD80 		beq	.L316
1697:drivers/inv_mpu.c ****     /* Assumes maximum packet size is gyro (6) + accel (6). */
 2877              		.loc 1 1697 0
 2878 0e02 2DE9F043 		push	{r4, r5, r6, r7, r8, r9, lr}
 2879              		.cfi_def_cfa_offset 28
 2880              		.cfi_offset 4, -28
 2881              		.cfi_offset 5, -24
 2882              		.cfi_offset 6, -20
 2883              		.cfi_offset 7, -16
 2884              		.cfi_offset 8, -12
 2885              		.cfi_offset 9, -8
 2886              		.cfi_offset 14, -4
 2887 0e06 85B0     		sub	sp, sp, #20
 2888              		.cfi_def_cfa_offset 48
 2889 0e08 02F04004 		and	r4, r2, #64
1713:drivers/inv_mpu.c ****     if (st.chip_cfg.fifo_enable & INV_Y_GYRO)
 2890              		.loc 1 1713 0
 2891 0e0c 002C     		cmp	r4, #0
 2892 0e0e 18BF     		it	ne
 2893 0e10 0224     		movne	r4, #2
 2894              	.LVL236:
1714:drivers/inv_mpu.c ****         packet_size += 2;
 2895              		.loc 1 1714 0
 2896 0e12 12F0200F 		tst	r2, #32
1715:drivers/inv_mpu.c ****     if (st.chip_cfg.fifo_enable & INV_Z_GYRO)
 2897              		.loc 1 1715 0
 2898 0e16 18BF     		it	ne
 2899 0e18 0234     		addne	r4, r4, #2
 2900              	.LVL237:
1716:drivers/inv_mpu.c ****         packet_size += 2;
 2901              		.loc 1 1716 0
 2902 0e1a 12F0100F 		tst	r2, #16
1717:drivers/inv_mpu.c ****     if (st.chip_cfg.fifo_enable & INV_XYZ_ACCEL)
 2903              		.loc 1 1717 0
 2904 0e1e 1CBF     		itt	ne
 2905 0e20 0234     		addne	r4, r4, #2
 2906              	.LVL238:
 2907 0e22 E4B2     		uxtbne	r4, r4
 2908              	.LVL239:
1718:drivers/inv_mpu.c ****         packet_size += 6;
 2909              		.loc 1 1718 0
 2910 0e24 12F0080F 		tst	r2, #8
ARM GAS  /tmp/cc18izUm.s 			page 96


1719:drivers/inv_mpu.c **** 
 2911              		.loc 1 1719 0
 2912 0e28 1CBF     		itt	ne
 2913 0e2a 0634     		addne	r4, r4, #6
 2914              	.LVL240:
 2915 0e2c E4B2     		uxtbne	r4, r4
 2916              	.LVL241:
 2917 0e2e 1E46     		mov	r6, r3
 2918 0e30 8946     		mov	r9, r1
 2919 0e32 0746     		mov	r7, r0
1721:drivers/inv_mpu.c ****         return -1;
 2920              		.loc 1 1721 0
 2921 0e34 664B     		ldr	r3, .L332
 2922              	.LVL242:
 2923 0e36 1968     		ldr	r1, [r3]
 2924              	.LVL243:
 2925 0e38 5868     		ldr	r0, [r3, #4]
 2926              	.LVL244:
 2927 0e3a 01AB     		add	r3, sp, #4
 2928 0e3c 0222     		movs	r2, #2
 2929 0e3e 897A     		ldrb	r1, [r1, #10]	@ zero_extendqisi2
 2930 0e40 0078     		ldrb	r0, [r0]	@ zero_extendqisi2
 2931 0e42 FFF7FEFF 		bl	I2C_Read
 2932              	.LVL245:
 2933 0e46 0028     		cmp	r0, #0
 2934 0e48 40F0AB80 		bne	.L317
1723:drivers/inv_mpu.c ****     if (fifo_count < packet_size)
 2935              		.loc 1 1723 0
 2936 0e4c 9DF80430 		ldrb	r3, [sp, #4]	@ zero_extendqisi2
 2937 0e50 9DF80550 		ldrb	r5, [sp, #5]	@ zero_extendqisi2
 2938 0e54 45EA0325 		orr	r5, r5, r3, lsl #8
 2939              	.LVL246:
1724:drivers/inv_mpu.c ****         return 0;
 2940              		.loc 1 1724 0
 2941 0e58 1FFA84F8 		uxth	r8, r4
 2942 0e5c 4545     		cmp	r5, r8
 2943 0e5e C0F0A380 		bcc	.L318
1727:drivers/inv_mpu.c ****         /* FIFO is 50% full, better check overflow bit. */
 2944              		.loc 1 1727 0
 2945 0e62 5B4B     		ldr	r3, .L332
 2946 0e64 5868     		ldr	r0, [r3, #4]
 2947 0e66 4388     		ldrh	r3, [r0, #2]
 2948 0e68 B5EB530F 		cmp	r5, r3, lsr #1
 2949 0e6c 0FD9     		bls	.L310
1729:drivers/inv_mpu.c ****             return -1;
 2950              		.loc 1 1729 0
 2951 0e6e 584B     		ldr	r3, .L332
 2952 0e70 1968     		ldr	r1, [r3]
