ARM GAS  /tmp/ccp3ezWO.s 			page 1


   1              		.cpu cortex-m3
   2              		.eabi_attribute 20, 1
   3              		.eabi_attribute 21, 1
   4              		.eabi_attribute 23, 3
   5              		.eabi_attribute 24, 1
   6              		.eabi_attribute 25, 1
   7              		.eabi_attribute 26, 1
   8              		.eabi_attribute 30, 1
   9              		.eabi_attribute 34, 1
  10              		.eabi_attribute 18, 4
  11              		.file	"inv_mpu_dmp_motion_driver.c"
  12              		.text
  13              	.Ltext0:
  14              		.cfi_sections	.debug_frame
  15              		.align	1
  16              		.global	dmp_load_motion_driver_firmware
  17              		.syntax unified
  18              		.thumb
  19              		.thumb_func
  20              		.fpu softvfp
  21              		.type	dmp_load_motion_driver_firmware, %function
  22              	dmp_load_motion_driver_firmware:
  23              	.LFB64:
  24              		.file 1 "drivers/inv_mpu_dmp_motion_driver.c"
   1:drivers/inv_mpu_dmp_motion_driver.c **** 
   2:drivers/inv_mpu_dmp_motion_driver.c **** /**
   3:drivers/inv_mpu_dmp_motion_driver.c ****  *  @addtogroup  DRIVERS Sensor Driver Layer
   4:drivers/inv_mpu_dmp_motion_driver.c ****  *  @brief       Hardware drivers to communicate with sensors via I2C.
   5:drivers/inv_mpu_dmp_motion_driver.c ****  *
   6:drivers/inv_mpu_dmp_motion_driver.c ****  *  @{
   7:drivers/inv_mpu_dmp_motion_driver.c ****  *      @file       inv_mpu_dmp_motion_driver.c
   8:drivers/inv_mpu_dmp_motion_driver.c ****  *      @brief      DMP image and interface functions.
   9:drivers/inv_mpu_dmp_motion_driver.c ****  *      @details    All functions are preceded by the dmp_ prefix to
  10:drivers/inv_mpu_dmp_motion_driver.c ****  *                  differentiate among MPL and general driver function calls.
  11:drivers/inv_mpu_dmp_motion_driver.c ****  */
  12:drivers/inv_mpu_dmp_motion_driver.c **** 
  13:drivers/inv_mpu_dmp_motion_driver.c **** #include "conf.h"
  14:drivers/inv_mpu_dmp_motion_driver.c **** #include "tools.h"
  15:drivers/inv_mpu_dmp_motion_driver.c **** 
  16:drivers/inv_mpu_dmp_motion_driver.c **** #define  MOTION_DRIVER_TARGET_MSP430
  17:drivers/inv_mpu_dmp_motion_driver.c **** /* The following functions must be defined for this platform:
  18:drivers/inv_mpu_dmp_motion_driver.c ****  * i2c_write(unsigned char slave_addr, unsigned char reg_addr,
  19:drivers/inv_mpu_dmp_motion_driver.c ****  *      unsigned char length, unsigned char const *data)
  20:drivers/inv_mpu_dmp_motion_driver.c ****  * i2c_read(unsigned char slave_addr, unsigned char reg_addr,
  21:drivers/inv_mpu_dmp_motion_driver.c ****  *      unsigned char length, unsigned char *data)
  22:drivers/inv_mpu_dmp_motion_driver.c ****  * delay_ms(unsigned long num_ms)
  23:drivers/inv_mpu_dmp_motion_driver.c ****  * get_ms(unsigned long *count)
  24:drivers/inv_mpu_dmp_motion_driver.c ****  */
  25:drivers/inv_mpu_dmp_motion_driver.c **** #if defined MOTION_DRIVER_TARGET_MSP430
  26:drivers/inv_mpu_dmp_motion_driver.c **** //#include "msp430.h"
  27:drivers/inv_mpu_dmp_motion_driver.c **** //#include "msp430_clock.h"
  28:drivers/inv_mpu_dmp_motion_driver.c **** #define delay_ms    delay_ms
  29:drivers/inv_mpu_dmp_motion_driver.c **** #define get_ms      get_ms
  30:drivers/inv_mpu_dmp_motion_driver.c **** #define log_e    printf
  31:drivers/inv_mpu_dmp_motion_driver.c **** #define log_i    printf
  32:drivers/inv_mpu_dmp_motion_driver.c **** 
  33:drivers/inv_mpu_dmp_motion_driver.c **** #elif defined EMPL_TARGET_MSP430
ARM GAS  /tmp/ccp3ezWO.s 			page 2


  34:drivers/inv_mpu_dmp_motion_driver.c **** #include "msp430.h"
  35:drivers/inv_mpu_dmp_motion_driver.c **** #include "msp430_clock.h"
  36:drivers/inv_mpu_dmp_motion_driver.c **** #include "log.h"
  37:drivers/inv_mpu_dmp_motion_driver.c **** #define delay_ms    msp430_delay_ms
  38:drivers/inv_mpu_dmp_motion_driver.c **** #define get_ms      msp430_get_clock_ms
  39:drivers/inv_mpu_dmp_motion_driver.c **** #define log_i       MPL_LOGI
  40:drivers/inv_mpu_dmp_motion_driver.c **** #define log_e       MPL_LOGE
  41:drivers/inv_mpu_dmp_motion_driver.c **** 
  42:drivers/inv_mpu_dmp_motion_driver.c **** #elif defined EMPL_TARGET_UC3L0
  43:drivers/inv_mpu_dmp_motion_driver.c **** /* Instead of using the standard TWI driver from the ASF library, we're using
  44:drivers/inv_mpu_dmp_motion_driver.c ****  * a TWI driver that follows the slave address + register address convention.
  45:drivers/inv_mpu_dmp_motion_driver.c ****  */
  46:drivers/inv_mpu_dmp_motion_driver.c **** #include "delay.h"
  47:drivers/inv_mpu_dmp_motion_driver.c **** #include "sysclk.h"
  48:drivers/inv_mpu_dmp_motion_driver.c **** #include "log.h"
  49:drivers/inv_mpu_dmp_motion_driver.c **** #include "uc3l0_clock.h"
  50:drivers/inv_mpu_dmp_motion_driver.c **** /* delay_ms is a function already defined in ASF. */
  51:drivers/inv_mpu_dmp_motion_driver.c **** #define get_ms  uc3l0_get_clock_ms
  52:drivers/inv_mpu_dmp_motion_driver.c **** #define log_i       MPL_LOGI
  53:drivers/inv_mpu_dmp_motion_driver.c **** #define log_e       MPL_LOGE
  54:drivers/inv_mpu_dmp_motion_driver.c **** 
  55:drivers/inv_mpu_dmp_motion_driver.c **** #else
  56:drivers/inv_mpu_dmp_motion_driver.c **** //#error  Gyro driver is missing the system layer implementations.
  57:drivers/inv_mpu_dmp_motion_driver.c **** #endif
  58:drivers/inv_mpu_dmp_motion_driver.c **** 
  59:drivers/inv_mpu_dmp_motion_driver.c **** /* These defines are copied from dmpDefaultMPU6050.c in the general MPL
  60:drivers/inv_mpu_dmp_motion_driver.c ****  * releases. These defines may change for each DMP image, so be sure to modify
  61:drivers/inv_mpu_dmp_motion_driver.c ****  * these values when switching to a new image.
  62:drivers/inv_mpu_dmp_motion_driver.c ****  */
  63:drivers/inv_mpu_dmp_motion_driver.c **** #define CFG_LP_QUAT             (2712)
  64:drivers/inv_mpu_dmp_motion_driver.c **** #define END_ORIENT_TEMP         (1866)
  65:drivers/inv_mpu_dmp_motion_driver.c **** #define CFG_27                  (2742)
  66:drivers/inv_mpu_dmp_motion_driver.c **** #define CFG_20                  (2224)
  67:drivers/inv_mpu_dmp_motion_driver.c **** #define CFG_23                  (2745)
  68:drivers/inv_mpu_dmp_motion_driver.c **** #define CFG_FIFO_ON_EVENT       (2690)
  69:drivers/inv_mpu_dmp_motion_driver.c **** #define END_PREDICTION_UPDATE   (1761)
  70:drivers/inv_mpu_dmp_motion_driver.c **** #define CGNOTICE_INTR           (2620)
  71:drivers/inv_mpu_dmp_motion_driver.c **** #define X_GRT_Y_TMP             (1358)
  72:drivers/inv_mpu_dmp_motion_driver.c **** #define CFG_DR_INT              (1029)
  73:drivers/inv_mpu_dmp_motion_driver.c **** #define CFG_AUTH                (1035)
  74:drivers/inv_mpu_dmp_motion_driver.c **** #define UPDATE_PROP_ROT         (1835)
  75:drivers/inv_mpu_dmp_motion_driver.c **** #define END_COMPARE_Y_X_TMP2    (1455)
  76:drivers/inv_mpu_dmp_motion_driver.c **** #define SKIP_X_GRT_Y_TMP        (1359)
  77:drivers/inv_mpu_dmp_motion_driver.c **** #define SKIP_END_COMPARE        (1435)
  78:drivers/inv_mpu_dmp_motion_driver.c **** #define FCFG_3                  (1088)
  79:drivers/inv_mpu_dmp_motion_driver.c **** #define FCFG_2                  (1066)
  80:drivers/inv_mpu_dmp_motion_driver.c **** #define FCFG_1                  (1062)
  81:drivers/inv_mpu_dmp_motion_driver.c **** #define END_COMPARE_Y_X_TMP3    (1434)
  82:drivers/inv_mpu_dmp_motion_driver.c **** #define FCFG_7                  (1073)
  83:drivers/inv_mpu_dmp_motion_driver.c **** #define FCFG_6                  (1106)
  84:drivers/inv_mpu_dmp_motion_driver.c **** #define FLAT_STATE_END          (1713)
  85:drivers/inv_mpu_dmp_motion_driver.c **** #define SWING_END_4             (1616)
  86:drivers/inv_mpu_dmp_motion_driver.c **** #define SWING_END_2             (1565)
  87:drivers/inv_mpu_dmp_motion_driver.c **** #define SWING_END_3             (1587)
  88:drivers/inv_mpu_dmp_motion_driver.c **** #define SWING_END_1             (1550)
  89:drivers/inv_mpu_dmp_motion_driver.c **** #define CFG_8                   (2718)
  90:drivers/inv_mpu_dmp_motion_driver.c **** #define CFG_15                  (2727)
ARM GAS  /tmp/ccp3ezWO.s 			page 3


  91:drivers/inv_mpu_dmp_motion_driver.c **** #define CFG_16                  (2746)
  92:drivers/inv_mpu_dmp_motion_driver.c **** #define CFG_EXT_GYRO_BIAS       (1189)
  93:drivers/inv_mpu_dmp_motion_driver.c **** #define END_COMPARE_Y_X_TMP     (1407)
  94:drivers/inv_mpu_dmp_motion_driver.c **** #define DO_NOT_UPDATE_PROP_ROT  (1839)
  95:drivers/inv_mpu_dmp_motion_driver.c **** #define CFG_7                   (1205)
  96:drivers/inv_mpu_dmp_motion_driver.c **** #define FLAT_STATE_END_TEMP     (1683)
  97:drivers/inv_mpu_dmp_motion_driver.c **** #define END_COMPARE_Y_X         (1484)
  98:drivers/inv_mpu_dmp_motion_driver.c **** #define SKIP_SWING_END_1        (1551)
  99:drivers/inv_mpu_dmp_motion_driver.c **** #define SKIP_SWING_END_3        (1588)
 100:drivers/inv_mpu_dmp_motion_driver.c **** #define SKIP_SWING_END_2        (1566)
 101:drivers/inv_mpu_dmp_motion_driver.c **** #define TILTG75_START           (1672)
 102:drivers/inv_mpu_dmp_motion_driver.c **** #define CFG_6                   (2753)
 103:drivers/inv_mpu_dmp_motion_driver.c **** #define TILTL75_END             (1669)
 104:drivers/inv_mpu_dmp_motion_driver.c **** #define END_ORIENT              (1884)
 105:drivers/inv_mpu_dmp_motion_driver.c **** #define CFG_FLICK_IN            (2573)
 106:drivers/inv_mpu_dmp_motion_driver.c **** #define TILTL75_START           (1643)
 107:drivers/inv_mpu_dmp_motion_driver.c **** #define CFG_MOTION_BIAS         (1208)
 108:drivers/inv_mpu_dmp_motion_driver.c **** #define X_GRT_Y                 (1408)
 109:drivers/inv_mpu_dmp_motion_driver.c **** #define TEMPLABEL               (2324)
 110:drivers/inv_mpu_dmp_motion_driver.c **** #define CFG_ANDROID_ORIENT_INT  (1853)
 111:drivers/inv_mpu_dmp_motion_driver.c **** #define CFG_GYRO_RAW_DATA       (2722)
 112:drivers/inv_mpu_dmp_motion_driver.c **** #define X_GRT_Y_TMP2            (1379)
 113:drivers/inv_mpu_dmp_motion_driver.c **** 
 114:drivers/inv_mpu_dmp_motion_driver.c **** #define D_0_22                  (22+512)
 115:drivers/inv_mpu_dmp_motion_driver.c **** #define D_0_24                  (24+512)
 116:drivers/inv_mpu_dmp_motion_driver.c **** 
 117:drivers/inv_mpu_dmp_motion_driver.c **** #define D_0_36                  (36)
 118:drivers/inv_mpu_dmp_motion_driver.c **** #define D_0_52                  (52)
 119:drivers/inv_mpu_dmp_motion_driver.c **** #define D_0_96                  (96)
 120:drivers/inv_mpu_dmp_motion_driver.c **** #define D_0_104                 (104)
 121:drivers/inv_mpu_dmp_motion_driver.c **** #define D_0_108                 (108)
 122:drivers/inv_mpu_dmp_motion_driver.c **** #define D_0_163                 (163)
 123:drivers/inv_mpu_dmp_motion_driver.c **** #define D_0_188                 (188)
 124:drivers/inv_mpu_dmp_motion_driver.c **** #define D_0_192                 (192)
 125:drivers/inv_mpu_dmp_motion_driver.c **** #define D_0_224                 (224)
 126:drivers/inv_mpu_dmp_motion_driver.c **** #define D_0_228                 (228)
 127:drivers/inv_mpu_dmp_motion_driver.c **** #define D_0_232                 (232)
 128:drivers/inv_mpu_dmp_motion_driver.c **** #define D_0_236                 (236)
 129:drivers/inv_mpu_dmp_motion_driver.c **** 
 130:drivers/inv_mpu_dmp_motion_driver.c **** #define D_1_2                   (256 + 2)
 131:drivers/inv_mpu_dmp_motion_driver.c **** #define D_1_4                   (256 + 4)
 132:drivers/inv_mpu_dmp_motion_driver.c **** #define D_1_8                   (256 + 8)
 133:drivers/inv_mpu_dmp_motion_driver.c **** #define D_1_10                  (256 + 10)
 134:drivers/inv_mpu_dmp_motion_driver.c **** #define D_1_24                  (256 + 24)
 135:drivers/inv_mpu_dmp_motion_driver.c **** #define D_1_28                  (256 + 28)
 136:drivers/inv_mpu_dmp_motion_driver.c **** #define D_1_36                  (256 + 36)
 137:drivers/inv_mpu_dmp_motion_driver.c **** #define D_1_40                  (256 + 40)
 138:drivers/inv_mpu_dmp_motion_driver.c **** #define D_1_44                  (256 + 44)
 139:drivers/inv_mpu_dmp_motion_driver.c **** #define D_1_72                  (256 + 72)
 140:drivers/inv_mpu_dmp_motion_driver.c **** #define D_1_74                  (256 + 74)
 141:drivers/inv_mpu_dmp_motion_driver.c **** #define D_1_79                  (256 + 79)
 142:drivers/inv_mpu_dmp_motion_driver.c **** #define D_1_88                  (256 + 88)
 143:drivers/inv_mpu_dmp_motion_driver.c **** #define D_1_90                  (256 + 90)
 144:drivers/inv_mpu_dmp_motion_driver.c **** #define D_1_92                  (256 + 92)
 145:drivers/inv_mpu_dmp_motion_driver.c **** #define D_1_96                  (256 + 96)
 146:drivers/inv_mpu_dmp_motion_driver.c **** #define D_1_98                  (256 + 98)
 147:drivers/inv_mpu_dmp_motion_driver.c **** #define D_1_106                 (256 + 106)
ARM GAS  /tmp/ccp3ezWO.s 			page 4


 148:drivers/inv_mpu_dmp_motion_driver.c **** #define D_1_108                 (256 + 108)
 149:drivers/inv_mpu_dmp_motion_driver.c **** #define D_1_112                 (256 + 112)
 150:drivers/inv_mpu_dmp_motion_driver.c **** #define D_1_128                 (256 + 144)
 151:drivers/inv_mpu_dmp_motion_driver.c **** #define D_1_152                 (256 + 12)
 152:drivers/inv_mpu_dmp_motion_driver.c **** #define D_1_160                 (256 + 160)
 153:drivers/inv_mpu_dmp_motion_driver.c **** #define D_1_176                 (256 + 176)
 154:drivers/inv_mpu_dmp_motion_driver.c **** #define D_1_178                 (256 + 178)
 155:drivers/inv_mpu_dmp_motion_driver.c **** #define D_1_218                 (256 + 218)
 156:drivers/inv_mpu_dmp_motion_driver.c **** #define D_1_232                 (256 + 232)
 157:drivers/inv_mpu_dmp_motion_driver.c **** #define D_1_236                 (256 + 236)
 158:drivers/inv_mpu_dmp_motion_driver.c **** #define D_1_240                 (256 + 240)
 159:drivers/inv_mpu_dmp_motion_driver.c **** #define D_1_244                 (256 + 244)
 160:drivers/inv_mpu_dmp_motion_driver.c **** #define D_1_250                 (256 + 250)
 161:drivers/inv_mpu_dmp_motion_driver.c **** #define D_1_252                 (256 + 252)
 162:drivers/inv_mpu_dmp_motion_driver.c **** #define D_2_12                  (512 + 12)
 163:drivers/inv_mpu_dmp_motion_driver.c **** #define D_2_96                  (512 + 96)
 164:drivers/inv_mpu_dmp_motion_driver.c **** #define D_2_108                 (512 + 108)
 165:drivers/inv_mpu_dmp_motion_driver.c **** #define D_2_208                 (512 + 208)
 166:drivers/inv_mpu_dmp_motion_driver.c **** #define D_2_224                 (512 + 224)
 167:drivers/inv_mpu_dmp_motion_driver.c **** #define D_2_236                 (512 + 236)
 168:drivers/inv_mpu_dmp_motion_driver.c **** #define D_2_244                 (512 + 244)
 169:drivers/inv_mpu_dmp_motion_driver.c **** #define D_2_248                 (512 + 248)
 170:drivers/inv_mpu_dmp_motion_driver.c **** #define D_2_252                 (512 + 252)
 171:drivers/inv_mpu_dmp_motion_driver.c **** 
 172:drivers/inv_mpu_dmp_motion_driver.c **** #define CPASS_BIAS_X            (35 * 16 + 4)
 173:drivers/inv_mpu_dmp_motion_driver.c **** #define CPASS_BIAS_Y            (35 * 16 + 8)
 174:drivers/inv_mpu_dmp_motion_driver.c **** #define CPASS_BIAS_Z            (35 * 16 + 12)
 175:drivers/inv_mpu_dmp_motion_driver.c **** #define CPASS_MTX_00            (36 * 16)
 176:drivers/inv_mpu_dmp_motion_driver.c **** #define CPASS_MTX_01            (36 * 16 + 4)
 177:drivers/inv_mpu_dmp_motion_driver.c **** #define CPASS_MTX_02            (36 * 16 + 8)
 178:drivers/inv_mpu_dmp_motion_driver.c **** #define CPASS_MTX_10            (36 * 16 + 12)
 179:drivers/inv_mpu_dmp_motion_driver.c **** #define CPASS_MTX_11            (37 * 16)
 180:drivers/inv_mpu_dmp_motion_driver.c **** #define CPASS_MTX_12            (37 * 16 + 4)
 181:drivers/inv_mpu_dmp_motion_driver.c **** #define CPASS_MTX_20            (37 * 16 + 8)
 182:drivers/inv_mpu_dmp_motion_driver.c **** #define CPASS_MTX_21            (37 * 16 + 12)
 183:drivers/inv_mpu_dmp_motion_driver.c **** #define CPASS_MTX_22            (43 * 16 + 12)
 184:drivers/inv_mpu_dmp_motion_driver.c **** #define D_EXT_GYRO_BIAS_X       (61 * 16)
 185:drivers/inv_mpu_dmp_motion_driver.c **** #define D_EXT_GYRO_BIAS_Y       (61 * 16) + 4
 186:drivers/inv_mpu_dmp_motion_driver.c **** #define D_EXT_GYRO_BIAS_Z       (61 * 16) + 8
 187:drivers/inv_mpu_dmp_motion_driver.c **** #define D_ACT0                  (40 * 16)
 188:drivers/inv_mpu_dmp_motion_driver.c **** #define D_ACSX                  (40 * 16 + 4)
 189:drivers/inv_mpu_dmp_motion_driver.c **** #define D_ACSY                  (40 * 16 + 8)
 190:drivers/inv_mpu_dmp_motion_driver.c **** #define D_ACSZ                  (40 * 16 + 12)
 191:drivers/inv_mpu_dmp_motion_driver.c **** 
 192:drivers/inv_mpu_dmp_motion_driver.c **** #define FLICK_MSG               (45 * 16 + 4)
 193:drivers/inv_mpu_dmp_motion_driver.c **** #define FLICK_COUNTER           (45 * 16 + 8)
 194:drivers/inv_mpu_dmp_motion_driver.c **** #define FLICK_LOWER             (45 * 16 + 12)
 195:drivers/inv_mpu_dmp_motion_driver.c **** #define FLICK_UPPER             (46 * 16 + 12)
 196:drivers/inv_mpu_dmp_motion_driver.c **** 
 197:drivers/inv_mpu_dmp_motion_driver.c **** #define D_AUTH_OUT              (992)
 198:drivers/inv_mpu_dmp_motion_driver.c **** #define D_AUTH_IN               (996)
 199:drivers/inv_mpu_dmp_motion_driver.c **** #define D_AUTH_A                (1000)
 200:drivers/inv_mpu_dmp_motion_driver.c **** #define D_AUTH_B                (1004)
 201:drivers/inv_mpu_dmp_motion_driver.c **** 
 202:drivers/inv_mpu_dmp_motion_driver.c **** #define D_PEDSTD_BP_B           (768 + 0x1C)
 203:drivers/inv_mpu_dmp_motion_driver.c **** #define D_PEDSTD_HP_A           (768 + 0x78)
 204:drivers/inv_mpu_dmp_motion_driver.c **** #define D_PEDSTD_HP_B           (768 + 0x7C)
ARM GAS  /tmp/ccp3ezWO.s 			page 5


 205:drivers/inv_mpu_dmp_motion_driver.c **** #define D_PEDSTD_BP_A4          (768 + 0x40)
 206:drivers/inv_mpu_dmp_motion_driver.c **** #define D_PEDSTD_BP_A3          (768 + 0x44)
 207:drivers/inv_mpu_dmp_motion_driver.c **** #define D_PEDSTD_BP_A2          (768 + 0x48)
 208:drivers/inv_mpu_dmp_motion_driver.c **** #define D_PEDSTD_BP_A1          (768 + 0x4C)
 209:drivers/inv_mpu_dmp_motion_driver.c **** #define D_PEDSTD_INT_THRSH      (768 + 0x68)
 210:drivers/inv_mpu_dmp_motion_driver.c **** #define D_PEDSTD_CLIP           (768 + 0x6C)
 211:drivers/inv_mpu_dmp_motion_driver.c **** #define D_PEDSTD_SB             (768 + 0x28)
 212:drivers/inv_mpu_dmp_motion_driver.c **** #define D_PEDSTD_SB_TIME        (768 + 0x2C)
 213:drivers/inv_mpu_dmp_motion_driver.c **** #define D_PEDSTD_PEAKTHRSH      (768 + 0x98)
 214:drivers/inv_mpu_dmp_motion_driver.c **** #define D_PEDSTD_TIML           (768 + 0x2A)
 215:drivers/inv_mpu_dmp_motion_driver.c **** #define D_PEDSTD_TIMH           (768 + 0x2E)
 216:drivers/inv_mpu_dmp_motion_driver.c **** #define D_PEDSTD_PEAK           (768 + 0X94)
 217:drivers/inv_mpu_dmp_motion_driver.c **** #define D_PEDSTD_STEPCTR        (768 + 0x60)
 218:drivers/inv_mpu_dmp_motion_driver.c **** #define D_PEDSTD_TIMECTR        (964)
 219:drivers/inv_mpu_dmp_motion_driver.c **** #define D_PEDSTD_DECI           (768 + 0xA0)
 220:drivers/inv_mpu_dmp_motion_driver.c **** 
 221:drivers/inv_mpu_dmp_motion_driver.c **** #define D_HOST_NO_MOT           (976)
 222:drivers/inv_mpu_dmp_motion_driver.c **** #define D_ACCEL_BIAS            (660)
 223:drivers/inv_mpu_dmp_motion_driver.c **** 
 224:drivers/inv_mpu_dmp_motion_driver.c **** #define D_ORIENT_GAP            (76)
 225:drivers/inv_mpu_dmp_motion_driver.c **** 
 226:drivers/inv_mpu_dmp_motion_driver.c **** #define D_TILT0_H               (48)
 227:drivers/inv_mpu_dmp_motion_driver.c **** #define D_TILT0_L               (50)
 228:drivers/inv_mpu_dmp_motion_driver.c **** #define D_TILT1_H               (52)
 229:drivers/inv_mpu_dmp_motion_driver.c **** #define D_TILT1_L               (54)
 230:drivers/inv_mpu_dmp_motion_driver.c **** #define D_TILT2_H               (56)
 231:drivers/inv_mpu_dmp_motion_driver.c **** #define D_TILT2_L               (58)
 232:drivers/inv_mpu_dmp_motion_driver.c **** #define D_TILT3_H               (60)
 233:drivers/inv_mpu_dmp_motion_driver.c **** #define D_TILT3_L               (62)
 234:drivers/inv_mpu_dmp_motion_driver.c **** 
 235:drivers/inv_mpu_dmp_motion_driver.c **** #define DMP_CODE_SIZE           (3062)
 236:drivers/inv_mpu_dmp_motion_driver.c **** 
 237:drivers/inv_mpu_dmp_motion_driver.c **** static const unsigned char dmp_memory[DMP_CODE_SIZE] = {
 238:drivers/inv_mpu_dmp_motion_driver.c ****     /* bank # 0 */
 239:drivers/inv_mpu_dmp_motion_driver.c ****     0x00, 0x00, 0x70, 0x00, 0x00, 0x00, 0x00, 0x24, 0x00, 0x00, 0x00, 0x02, 0x00, 0x03, 0x00, 0x00,
 240:drivers/inv_mpu_dmp_motion_driver.c ****     0x00, 0x65, 0x00, 0x54, 0xff, 0xef, 0x00, 0x00, 0xfa, 0x80, 0x00, 0x0b, 0x12, 0x82, 0x00, 0x01,
 241:drivers/inv_mpu_dmp_motion_driver.c ****     0x03, 0x0c, 0x30, 0xc3, 0x0e, 0x8c, 0x8c, 0xe9, 0x14, 0xd5, 0x40, 0x02, 0x13, 0x71, 0x0f, 0x8e,
 242:drivers/inv_mpu_dmp_motion_driver.c ****     0x38, 0x83, 0xf8, 0x83, 0x30, 0x00, 0xf8, 0x83, 0x25, 0x8e, 0xf8, 0x83, 0x30, 0x00, 0xf8, 0x83,
 243:drivers/inv_mpu_dmp_motion_driver.c ****     0xff, 0xff, 0xff, 0xff, 0x0f, 0xfe, 0xa9, 0xd6, 0x24, 0x00, 0x04, 0x00, 0x1a, 0x82, 0x79, 0xa1,
 244:drivers/inv_mpu_dmp_motion_driver.c ****     0x00, 0x00, 0x00, 0x3c, 0xff, 0xff, 0x00, 0x00, 0x00, 0x10, 0x00, 0x00, 0x38, 0x83, 0x6f, 0xa2,
 245:drivers/inv_mpu_dmp_motion_driver.c ****     0x00, 0x3e, 0x03, 0x30, 0x40, 0x00, 0x00, 0x00, 0x02, 0xca, 0xe3, 0x09, 0x3e, 0x80, 0x00, 0x00,
 246:drivers/inv_mpu_dmp_motion_driver.c ****     0x20, 0x00, 0x00, 0x00, 0x00, 0x00, 0x00, 0x00, 0x40, 0x00, 0x00, 0x00, 0x60, 0x00, 0x00, 0x00,
 247:drivers/inv_mpu_dmp_motion_driver.c ****     0x00, 0x0c, 0x00, 0x00, 0x00, 0x0c, 0x18, 0x6e, 0x00, 0x00, 0x06, 0x92, 0x0a, 0x16, 0xc0, 0xdf,
 248:drivers/inv_mpu_dmp_motion_driver.c ****     0xff, 0xff, 0x02, 0x56, 0xfd, 0x8c, 0xd3, 0x77, 0xff, 0xe1, 0xc4, 0x96, 0xe0, 0xc5, 0xbe, 0xaa,
 249:drivers/inv_mpu_dmp_motion_driver.c ****     0x00, 0x00, 0x00, 0x00, 0xff, 0xff, 0x0b, 0x2b, 0x00, 0x00, 0x16, 0x57, 0x00, 0x00, 0x03, 0x59,
 250:drivers/inv_mpu_dmp_motion_driver.c ****     0x40, 0x00, 0x00, 0x00, 0x00, 0x00, 0x1d, 0xfa, 0x00, 0x02, 0x6c, 0x1d, 0x00, 0x00, 0x00, 0x00,
 251:drivers/inv_mpu_dmp_motion_driver.c ****     0x3f, 0xff, 0xdf, 0xeb, 0x00, 0x3e, 0xb3, 0xb6, 0x00, 0x0d, 0x22, 0x78, 0x00, 0x00, 0x2f, 0x3c,
 252:drivers/inv_mpu_dmp_motion_driver.c ****     0x00, 0x00, 0x00, 0x00, 0x00, 0x19, 0x42, 0xb5, 0x00, 0x00, 0x39, 0xa2, 0x00, 0x00, 0xb3, 0x65,
 253:drivers/inv_mpu_dmp_motion_driver.c ****     0xd9, 0x0e, 0x9f, 0xc9, 0x1d, 0xcf, 0x4c, 0x34, 0x30, 0x00, 0x00, 0x00, 0x50, 0x00, 0x00, 0x00,
 254:drivers/inv_mpu_dmp_motion_driver.c ****     0x3b, 0xb6, 0x7a, 0xe8, 0x00, 0x64, 0x00, 0x00, 0x00, 0xc8, 0x00, 0x00, 0x00, 0x00, 0x00, 0x00,
 255:drivers/inv_mpu_dmp_motion_driver.c ****     /* bank # 1 */
 256:drivers/inv_mpu_dmp_motion_driver.c ****     0x10, 0x00, 0x00, 0x00, 0x10, 0x00, 0xfa, 0x92, 0x10, 0x00, 0x22, 0x5e, 0x00, 0x0d, 0x22, 0x9f,
 257:drivers/inv_mpu_dmp_motion_driver.c ****     0x00, 0x01, 0x00, 0x00, 0x00, 0x32, 0x00, 0x00, 0xff, 0x46, 0x00, 0x00, 0x63, 0xd4, 0x00, 0x00,
 258:drivers/inv_mpu_dmp_motion_driver.c ****     0x10, 0x00, 0x00, 0x00, 0x04, 0xd6, 0x00, 0x00, 0x04, 0xcc, 0x00, 0x00, 0x04, 0xcc, 0x00, 0x00,
 259:drivers/inv_mpu_dmp_motion_driver.c ****     0x00, 0x00, 0x10, 0x72, 0x00, 0x00, 0x00, 0x40, 0x00, 0x00, 0x00, 0x00, 0x00, 0x00, 0x00, 0x00,
 260:drivers/inv_mpu_dmp_motion_driver.c ****     0x00, 0x06, 0x00, 0x02, 0x00, 0x05, 0x00, 0x07, 0x00, 0x00, 0x00, 0x00, 0x00, 0x64, 0x00, 0x00,
 261:drivers/inv_mpu_dmp_motion_driver.c ****     0x00, 0x00, 0x00, 0x00, 0x00, 0x00, 0x00, 0x05, 0x00, 0x05, 0x00, 0x64, 0x00, 0x20, 0x00, 0x00,
ARM GAS  /tmp/ccp3ezWO.s 			page 6


 262:drivers/inv_mpu_dmp_motion_driver.c ****     0x00, 0x00, 0x00, 0x00, 0x00, 0x00, 0x00, 0x00, 0x00, 0x00, 0x40, 0x00, 0x00, 0x00, 0x03, 0x00,
 263:drivers/inv_mpu_dmp_motion_driver.c ****     0x00, 0x00, 0x00, 0x32, 0xf8, 0x98, 0x00, 0x00, 0xff, 0x65, 0x00, 0x00, 0x83, 0x0f, 0x00, 0x00,
 264:drivers/inv_mpu_dmp_motion_driver.c ****     0xff, 0x9b, 0xfc, 0x00, 0x00, 0x00, 0x00, 0x00, 0x00, 0x00, 0x00, 0x00, 0x00, 0x00, 0x00, 0x00,
 265:drivers/inv_mpu_dmp_motion_driver.c ****     0x00, 0x00, 0x00, 0x00, 0x00, 0x00, 0x00, 0x00, 0x00, 0x00, 0x00, 0x00, 0x00, 0x00, 0x00, 0x00,
 266:drivers/inv_mpu_dmp_motion_driver.c ****     0x00, 0x00, 0x00, 0x00, 0x00, 0x00, 0x00, 0x00, 0x00, 0x00, 0x00, 0x00, 0x00, 0x00, 0x10, 0x00,
 267:drivers/inv_mpu_dmp_motion_driver.c ****     0x40, 0x00, 0x00, 0x00, 0x00, 0x00, 0x00, 0x06, 0x00, 0x00, 0xb2, 0x6a, 0x00, 0x02, 0x00, 0x00,
 268:drivers/inv_mpu_dmp_motion_driver.c ****     0x00, 0x01, 0xfb, 0x83, 0x00, 0x68, 0x00, 0x00, 0x00, 0xd9, 0xfc, 0x00, 0x7c, 0xf1, 0xff, 0x83,
 269:drivers/inv_mpu_dmp_motion_driver.c ****     0x00, 0x00, 0x00, 0x00, 0x00, 0x65, 0x00, 0x00, 0x00, 0x64, 0x03, 0xe8, 0x00, 0x64, 0x00, 0x28,
 270:drivers/inv_mpu_dmp_motion_driver.c ****     0x00, 0x00, 0x00, 0x25, 0x00, 0x00, 0x00, 0x00, 0x16, 0xa0, 0x00, 0x00, 0x00, 0x00, 0x10, 0x00,
 271:drivers/inv_mpu_dmp_motion_driver.c ****     0x00, 0x00, 0x10, 0x00, 0x00, 0x2f, 0x00, 0x00, 0x00, 0x00, 0x01, 0xf4, 0x00, 0x00, 0x10, 0x00,
 272:drivers/inv_mpu_dmp_motion_driver.c ****     /* bank # 2 */
 273:drivers/inv_mpu_dmp_motion_driver.c ****     0x00, 0x28, 0x00, 0x00, 0xff, 0xff, 0x45, 0x81, 0xff, 0xff, 0xfa, 0x72, 0x00, 0x00, 0x00, 0x00,
 274:drivers/inv_mpu_dmp_motion_driver.c ****     0x00, 0x00, 0x00, 0x00, 0x00, 0x44, 0x00, 0x05, 0x00, 0x05, 0xba, 0xc6, 0x00, 0x47, 0x78, 0xa2,
 275:drivers/inv_mpu_dmp_motion_driver.c ****     0x00, 0x00, 0x00, 0x01, 0x00, 0x00, 0x00, 0x00, 0x00, 0x00, 0x06, 0x00, 0x00, 0x00, 0x00, 0x14,
 276:drivers/inv_mpu_dmp_motion_driver.c ****     0x00, 0x00, 0x25, 0x4d, 0x00, 0x2f, 0x70, 0x6d, 0x00, 0x00, 0x05, 0xae, 0x00, 0x0c, 0x02, 0xd0,
 277:drivers/inv_mpu_dmp_motion_driver.c ****     0x00, 0x00, 0x00, 0x00, 0x00, 0x00, 0x00, 0x00, 0x00, 0x00, 0x00, 0x00, 0x00, 0x00, 0x00, 0x00,
 278:drivers/inv_mpu_dmp_motion_driver.c ****     0x00, 0x1b, 0x00, 0x00, 0x00, 0x00, 0x00, 0x00, 0x00, 0x00, 0x00, 0x00, 0x00, 0x00, 0x00, 0x00,
 279:drivers/inv_mpu_dmp_motion_driver.c ****     0x00, 0x64, 0x00, 0x00, 0x00, 0x08, 0x00, 0x00, 0x00, 0x00, 0x00, 0x00, 0x00, 0x00, 0x00, 0x00,
 280:drivers/inv_mpu_dmp_motion_driver.c ****     0x00, 0x00, 0x00, 0x00, 0x00, 0x00, 0x00, 0x00, 0x00, 0x00, 0x00, 0x00, 0x00, 0x00, 0x00, 0x00,
 281:drivers/inv_mpu_dmp_motion_driver.c ****     0x00, 0x00, 0x00, 0x00, 0x00, 0x00, 0x00, 0x00, 0x00, 0x00, 0x00, 0x00, 0x00, 0x00, 0x00, 0x00,
 282:drivers/inv_mpu_dmp_motion_driver.c ****     0x00, 0x00, 0x00, 0x00, 0x00, 0x00, 0x00, 0x00, 0x00, 0x00, 0x00, 0x00, 0x00, 0x00, 0x00, 0x00,
 283:drivers/inv_mpu_dmp_motion_driver.c ****     0x00, 0x00, 0x00, 0x00, 0x00, 0x00, 0x00, 0x00, 0x00, 0x00, 0x00, 0x00, 0x00, 0x00, 0x00, 0x00,
 284:drivers/inv_mpu_dmp_motion_driver.c ****     0x00, 0x00, 0x00, 0x00, 0x00, 0x00, 0x00, 0x00, 0x00, 0x00, 0x00, 0x00, 0x00, 0x00, 0x00, 0x00,
 285:drivers/inv_mpu_dmp_motion_driver.c ****     0x00, 0x1b, 0x00, 0x00, 0x00, 0x00, 0x00, 0x00, 0x00, 0x00, 0x00, 0x00, 0x00, 0x0e, 0x00, 0x0e,
 286:drivers/inv_mpu_dmp_motion_driver.c ****     0x00, 0x00, 0x0a, 0xc7, 0x00, 0x04, 0x00, 0x00, 0x00, 0x00, 0x00, 0x32, 0xff, 0xff, 0xff, 0x9c,
 287:drivers/inv_mpu_dmp_motion_driver.c ****     0x00, 0x00, 0x0b, 0x2b, 0x00, 0x00, 0x00, 0x02, 0x00, 0x00, 0x00, 0x01, 0x00, 0x00, 0x00, 0x64,
 288:drivers/inv_mpu_dmp_motion_driver.c ****     0xff, 0xe5, 0x00, 0x00, 0x00, 0x00, 0x00, 0x00, 0x00, 0x00, 0x00, 0x00, 0x00, 0x00, 0x00, 0x00,
 289:drivers/inv_mpu_dmp_motion_driver.c ****     /* bank # 3 */
 290:drivers/inv_mpu_dmp_motion_driver.c ****     0x00, 0x00, 0x00, 0x01, 0x00, 0x00, 0x00, 0x00, 0x00, 0x01, 0x00, 0x00, 0x00, 0x00, 0x00, 0x00,
 291:drivers/inv_mpu_dmp_motion_driver.c ****     0x00, 0x01, 0x80, 0x00, 0x00, 0x01, 0x80, 0x00, 0x00, 0x01, 0x80, 0x00, 0x00, 0x24, 0x26, 0xd3,
 292:drivers/inv_mpu_dmp_motion_driver.c ****     0x00, 0x00, 0x00, 0x00, 0x00, 0x00, 0x00, 0x00, 0x00, 0x06, 0x00, 0x10, 0x00, 0x96, 0x00, 0x3c,
 293:drivers/inv_mpu_dmp_motion_driver.c ****     0x00, 0x00, 0x00, 0x00, 0x00, 0x00, 0x00, 0x00, 0x00, 0x00, 0x00, 0x00, 0x00, 0x00, 0x00, 0x00,
 294:drivers/inv_mpu_dmp_motion_driver.c ****     0x0c, 0x0a, 0x4e, 0x68, 0xcd, 0xcf, 0x77, 0x09, 0x50, 0x16, 0x67, 0x59, 0xc6, 0x19, 0xce, 0x82,
 295:drivers/inv_mpu_dmp_motion_driver.c ****     0x00, 0x00, 0x00, 0x00, 0x00, 0x00, 0x00, 0x00, 0x00, 0x00, 0x00, 0x00, 0x00, 0x00, 0x00, 0x00,
 296:drivers/inv_mpu_dmp_motion_driver.c ****     0x00, 0x00, 0x00, 0x00, 0x00, 0x00, 0x00, 0x00, 0x17, 0xd7, 0x84, 0x00, 0x03, 0x00, 0x00, 0x00,
 297:drivers/inv_mpu_dmp_motion_driver.c ****     0x00, 0x00, 0x00, 0x00, 0x00, 0x00, 0x00, 0x00, 0xc7, 0x93, 0x8f, 0x9d, 0x1e, 0x1b, 0x1c, 0x19,
 298:drivers/inv_mpu_dmp_motion_driver.c ****     0x00, 0x00, 0x00, 0x00, 0x00, 0x00, 0x00, 0x00, 0x00, 0x00, 0x00, 0x00, 0x00, 0x00, 0x00, 0x00,
 299:drivers/inv_mpu_dmp_motion_driver.c ****     0x00, 0x00, 0x00, 0x00, 0x00, 0x00, 0x00, 0x00, 0x02, 0x03, 0x18, 0x85, 0x00, 0x00, 0x40, 0x00,
 300:drivers/inv_mpu_dmp_motion_driver.c ****     0x00, 0x00, 0x00, 0x03, 0x00, 0x00, 0x00, 0x03, 0x00, 0x00, 0x00, 0x00, 0x00, 0x00, 0x00, 0x00,
 301:drivers/inv_mpu_dmp_motion_driver.c ****     0x40, 0x00, 0x00, 0x00, 0x00, 0x00, 0x00, 0x00, 0x00, 0x00, 0x00, 0x00, 0x00, 0x00, 0x00, 0x00,
 302:drivers/inv_mpu_dmp_motion_driver.c ****     0x00, 0x00, 0x00, 0x00, 0x00, 0x00, 0x00, 0x00, 0x00, 0x00, 0x00, 0x00, 0x00, 0x00, 0x00, 0x00,
 303:drivers/inv_mpu_dmp_motion_driver.c ****     0x00, 0x00, 0x00, 0x00, 0x00, 0x00, 0x00, 0x00, 0x00, 0x00, 0x00, 0x00, 0x00, 0x00, 0x00, 0x00,
 304:drivers/inv_mpu_dmp_motion_driver.c ****     0x00, 0x00, 0x00, 0x00, 0x67, 0x7d, 0xdf, 0x7e, 0x72, 0x90, 0x2e, 0x55, 0x4c, 0xf6, 0xe6, 0x88,
 305:drivers/inv_mpu_dmp_motion_driver.c ****     0x00, 0x00, 0x00, 0x00, 0x00, 0x00, 0x00, 0x00, 0x00, 0x00, 0x00, 0x00, 0x00, 0x00, 0x00, 0x00,
 306:drivers/inv_mpu_dmp_motion_driver.c **** 
 307:drivers/inv_mpu_dmp_motion_driver.c ****     /* bank # 4 */
 308:drivers/inv_mpu_dmp_motion_driver.c ****     0xd8, 0xdc, 0xb4, 0xb8, 0xb0, 0xd8, 0xb9, 0xab, 0xf3, 0xf8, 0xfa, 0xb3, 0xb7, 0xbb, 0x8e, 0x9e,
 309:drivers/inv_mpu_dmp_motion_driver.c ****     0xae, 0xf1, 0x32, 0xf5, 0x1b, 0xf1, 0xb4, 0xb8, 0xb0, 0x80, 0x97, 0xf1, 0xa9, 0xdf, 0xdf, 0xdf,
 310:drivers/inv_mpu_dmp_motion_driver.c ****     0xaa, 0xdf, 0xdf, 0xdf, 0xf2, 0xaa, 0xc5, 0xcd, 0xc7, 0xa9, 0x0c, 0xc9, 0x2c, 0x97, 0xf1, 0xa9,
 311:drivers/inv_mpu_dmp_motion_driver.c ****     0x89, 0x26, 0x46, 0x66, 0xb2, 0x89, 0x99, 0xa9, 0x2d, 0x55, 0x7d, 0xb0, 0xb0, 0x8a, 0xa8, 0x96,
 312:drivers/inv_mpu_dmp_motion_driver.c ****     0x36, 0x56, 0x76, 0xf1, 0xba, 0xa3, 0xb4, 0xb2, 0x80, 0xc0, 0xb8, 0xa8, 0x97, 0x11, 0xb2, 0x83,
 313:drivers/inv_mpu_dmp_motion_driver.c ****     0x98, 0xba, 0xa3, 0xf0, 0x24, 0x08, 0x44, 0x10, 0x64, 0x18, 0xb2, 0xb9, 0xb4, 0x98, 0x83, 0xf1,
 314:drivers/inv_mpu_dmp_motion_driver.c ****     0xa3, 0x29, 0x55, 0x7d, 0xba, 0xb5, 0xb1, 0xa3, 0x83, 0x93, 0xf0, 0x00, 0x28, 0x50, 0xf5, 0xb2,
 315:drivers/inv_mpu_dmp_motion_driver.c ****     0xb6, 0xaa, 0x83, 0x93, 0x28, 0x54, 0x7c, 0xf1, 0xb9, 0xa3, 0x82, 0x93, 0x61, 0xba, 0xa2, 0xda,
 316:drivers/inv_mpu_dmp_motion_driver.c ****     0xde, 0xdf, 0xdb, 0x81, 0x9a, 0xb9, 0xae, 0xf5, 0x60, 0x68, 0x70, 0xf1, 0xda, 0xba, 0xa2, 0xdf,
 317:drivers/inv_mpu_dmp_motion_driver.c ****     0xd9, 0xba, 0xa2, 0xfa, 0xb9, 0xa3, 0x82, 0x92, 0xdb, 0x31, 0xba, 0xa2, 0xd9, 0xba, 0xa2, 0xf8,
 318:drivers/inv_mpu_dmp_motion_driver.c ****     0xdf, 0x85, 0xa4, 0xd0, 0xc1, 0xbb, 0xad, 0x83, 0xc2, 0xc5, 0xc7, 0xb8, 0xa2, 0xdf, 0xdf, 0xdf,
ARM GAS  /tmp/ccp3ezWO.s 			page 7


 319:drivers/inv_mpu_dmp_motion_driver.c ****     0xba, 0xa0, 0xdf, 0xdf, 0xdf, 0xd8, 0xd8, 0xf1, 0xb8, 0xaa, 0xb3, 0x8d, 0xb4, 0x98, 0x0d, 0x35,
 320:drivers/inv_mpu_dmp_motion_driver.c ****     0x5d, 0xb2, 0xb6, 0xba, 0xaf, 0x8c, 0x96, 0x19, 0x8f, 0x9f, 0xa7, 0x0e, 0x16, 0x1e, 0xb4, 0x9a,
 321:drivers/inv_mpu_dmp_motion_driver.c ****     0xb8, 0xaa, 0x87, 0x2c, 0x54, 0x7c, 0xba, 0xa4, 0xb0, 0x8a, 0xb6, 0x91, 0x32, 0x56, 0x76, 0xb2,
 322:drivers/inv_mpu_dmp_motion_driver.c ****     0x84, 0x94, 0xa4, 0xc8, 0x08, 0xcd, 0xd8, 0xb8, 0xb4, 0xb0, 0xf1, 0x99, 0x82, 0xa8, 0x2d, 0x55,
 323:drivers/inv_mpu_dmp_motion_driver.c ****     0x7d, 0x98, 0xa8, 0x0e, 0x16, 0x1e, 0xa2, 0x2c, 0x54, 0x7c, 0x92, 0xa4, 0xf0, 0x2c, 0x50, 0x78,
 324:drivers/inv_mpu_dmp_motion_driver.c ****     /* bank # 5 */
 325:drivers/inv_mpu_dmp_motion_driver.c ****     0xf1, 0x84, 0xa8, 0x98, 0xc4, 0xcd, 0xfc, 0xd8, 0x0d, 0xdb, 0xa8, 0xfc, 0x2d, 0xf3, 0xd9, 0xba,
 326:drivers/inv_mpu_dmp_motion_driver.c ****     0xa6, 0xf8, 0xda, 0xba, 0xa6, 0xde, 0xd8, 0xba, 0xb2, 0xb6, 0x86, 0x96, 0xa6, 0xd0, 0xf3, 0xc8,
 327:drivers/inv_mpu_dmp_motion_driver.c ****     0x41, 0xda, 0xa6, 0xc8, 0xf8, 0xd8, 0xb0, 0xb4, 0xb8, 0x82, 0xa8, 0x92, 0xf5, 0x2c, 0x54, 0x88,
 328:drivers/inv_mpu_dmp_motion_driver.c ****     0x98, 0xf1, 0x35, 0xd9, 0xf4, 0x18, 0xd8, 0xf1, 0xa2, 0xd0, 0xf8, 0xf9, 0xa8, 0x84, 0xd9, 0xc7,
 329:drivers/inv_mpu_dmp_motion_driver.c ****     0xdf, 0xf8, 0xf8, 0x83, 0xc5, 0xda, 0xdf, 0x69, 0xdf, 0x83, 0xc1, 0xd8, 0xf4, 0x01, 0x14, 0xf1,
 330:drivers/inv_mpu_dmp_motion_driver.c ****     0xa8, 0x82, 0x4e, 0xa8, 0x84, 0xf3, 0x11, 0xd1, 0x82, 0xf5, 0xd9, 0x92, 0x28, 0x97, 0x88, 0xf1,
 331:drivers/inv_mpu_dmp_motion_driver.c ****     0x09, 0xf4, 0x1c, 0x1c, 0xd8, 0x84, 0xa8, 0xf3, 0xc0, 0xf9, 0xd1, 0xd9, 0x97, 0x82, 0xf1, 0x29,
 332:drivers/inv_mpu_dmp_motion_driver.c ****     0xf4, 0x0d, 0xd8, 0xf3, 0xf9, 0xf9, 0xd1, 0xd9, 0x82, 0xf4, 0xc2, 0x03, 0xd8, 0xde, 0xdf, 0x1a,
 333:drivers/inv_mpu_dmp_motion_driver.c ****     0xd8, 0xf1, 0xa2, 0xfa, 0xf9, 0xa8, 0x84, 0x98, 0xd9, 0xc7, 0xdf, 0xf8, 0xf8, 0xf8, 0x83, 0xc7,
 334:drivers/inv_mpu_dmp_motion_driver.c ****     0xda, 0xdf, 0x69, 0xdf, 0xf8, 0x83, 0xc3, 0xd8, 0xf4, 0x01, 0x14, 0xf1, 0x98, 0xa8, 0x82, 0x2e,
 335:drivers/inv_mpu_dmp_motion_driver.c ****     0xa8, 0x84, 0xf3, 0x11, 0xd1, 0x82, 0xf5, 0xd9, 0x92, 0x50, 0x97, 0x88, 0xf1, 0x09, 0xf4, 0x1c,
 336:drivers/inv_mpu_dmp_motion_driver.c ****     0xd8, 0x84, 0xa8, 0xf3, 0xc0, 0xf8, 0xf9, 0xd1, 0xd9, 0x97, 0x82, 0xf1, 0x49, 0xf4, 0x0d, 0xd8,
 337:drivers/inv_mpu_dmp_motion_driver.c ****     0xf3, 0xf9, 0xf9, 0xd1, 0xd9, 0x82, 0xf4, 0xc4, 0x03, 0xd8, 0xde, 0xdf, 0xd8, 0xf1, 0xad, 0x88,
 338:drivers/inv_mpu_dmp_motion_driver.c ****     0x98, 0xcc, 0xa8, 0x09, 0xf9, 0xd9, 0x82, 0x92, 0xa8, 0xf5, 0x7c, 0xf1, 0x88, 0x3a, 0xcf, 0x94,
 339:drivers/inv_mpu_dmp_motion_driver.c ****     0x4a, 0x6e, 0x98, 0xdb, 0x69, 0x31, 0xda, 0xad, 0xf2, 0xde, 0xf9, 0xd8, 0x87, 0x95, 0xa8, 0xf2,
 340:drivers/inv_mpu_dmp_motion_driver.c ****     0x21, 0xd1, 0xda, 0xa5, 0xf9, 0xf4, 0x17, 0xd9, 0xf1, 0xae, 0x8e, 0xd0, 0xc0, 0xc3, 0xae, 0x82,
 341:drivers/inv_mpu_dmp_motion_driver.c ****     /* bank # 6 */
 342:drivers/inv_mpu_dmp_motion_driver.c ****     0xc6, 0x84, 0xc3, 0xa8, 0x85, 0x95, 0xc8, 0xa5, 0x88, 0xf2, 0xc0, 0xf1, 0xf4, 0x01, 0x0e, 0xf1,
 343:drivers/inv_mpu_dmp_motion_driver.c ****     0x8e, 0x9e, 0xa8, 0xc6, 0x3e, 0x56, 0xf5, 0x54, 0xf1, 0x88, 0x72, 0xf4, 0x01, 0x15, 0xf1, 0x98,
 344:drivers/inv_mpu_dmp_motion_driver.c ****     0x45, 0x85, 0x6e, 0xf5, 0x8e, 0x9e, 0x04, 0x88, 0xf1, 0x42, 0x98, 0x5a, 0x8e, 0x9e, 0x06, 0x88,
 345:drivers/inv_mpu_dmp_motion_driver.c ****     0x69, 0xf4, 0x01, 0x1c, 0xf1, 0x98, 0x1e, 0x11, 0x08, 0xd0, 0xf5, 0x04, 0xf1, 0x1e, 0x97, 0x02,
 346:drivers/inv_mpu_dmp_motion_driver.c ****     0x02, 0x98, 0x36, 0x25, 0xdb, 0xf9, 0xd9, 0x85, 0xa5, 0xf3, 0xc1, 0xda, 0x85, 0xa5, 0xf3, 0xdf,
 347:drivers/inv_mpu_dmp_motion_driver.c ****     0xd8, 0x85, 0x95, 0xa8, 0xf3, 0x09, 0xda, 0xa5, 0xfa, 0xd8, 0x82, 0x92, 0xa8, 0xf5, 0x78, 0xf1,
 348:drivers/inv_mpu_dmp_motion_driver.c ****     0x88, 0x1a, 0x84, 0x9f, 0x26, 0x88, 0x98, 0x21, 0xda, 0xf4, 0x1d, 0xf3, 0xd8, 0x87, 0x9f, 0x39,
 349:drivers/inv_mpu_dmp_motion_driver.c ****     0xd1, 0xaf, 0xd9, 0xdf, 0xdf, 0xfb, 0xf9, 0xf4, 0x0c, 0xf3, 0xd8, 0xfa, 0xd0, 0xf8, 0xda, 0xf9,
 350:drivers/inv_mpu_dmp_motion_driver.c ****     0xf9, 0xd0, 0xdf, 0xd9, 0xf9, 0xd8, 0xf4, 0x0b, 0xd8, 0xf3, 0x87, 0x9f, 0x39, 0xd1, 0xaf, 0xd9,
 351:drivers/inv_mpu_dmp_motion_driver.c ****     0xdf, 0xdf, 0xf4, 0x1d, 0xf3, 0xd8, 0xfa, 0xfc, 0xa8, 0x69, 0xf9, 0xf9, 0xaf, 0xd0, 0xda, 0xde,
 352:drivers/inv_mpu_dmp_motion_driver.c ****     0xfa, 0xd9, 0xf8, 0x8f, 0x9f, 0xa8, 0xf1, 0xcc, 0xf3, 0x98, 0xdb, 0x45, 0xd9, 0xaf, 0xdf, 0xd0,
 353:drivers/inv_mpu_dmp_motion_driver.c ****     0xf8, 0xd8, 0xf1, 0x8f, 0x9f, 0xa8, 0xca, 0xf3, 0x88, 0x09, 0xda, 0xaf, 0x8f, 0xcb, 0xf8, 0xd8,
 354:drivers/inv_mpu_dmp_motion_driver.c ****     0xf2, 0xad, 0x97, 0x8d, 0x0c, 0xd9, 0xa5, 0xdf, 0xf9, 0xba, 0xa6, 0xf3, 0xfa, 0xf4, 0x12, 0xf2,
 355:drivers/inv_mpu_dmp_motion_driver.c ****     0xd8, 0x95, 0x0d, 0xd1, 0xd9, 0xba, 0xa6, 0xf3, 0xfa, 0xda, 0xa5, 0xf2, 0xc1, 0xba, 0xa6, 0xf3,
 356:drivers/inv_mpu_dmp_motion_driver.c ****     0xdf, 0xd8, 0xf1, 0xba, 0xb2, 0xb6, 0x86, 0x96, 0xa6, 0xd0, 0xca, 0xf3, 0x49, 0xda, 0xa6, 0xcb,
 357:drivers/inv_mpu_dmp_motion_driver.c ****     0xf8, 0xd8, 0xb0, 0xb4, 0xb8, 0xd8, 0xad, 0x84, 0xf2, 0xc0, 0xdf, 0xf1, 0x8f, 0xcb, 0xc3, 0xa8,
 358:drivers/inv_mpu_dmp_motion_driver.c ****     /* bank # 7 */
 359:drivers/inv_mpu_dmp_motion_driver.c ****     0xb2, 0xb6, 0x86, 0x96, 0xc8, 0xc1, 0xcb, 0xc3, 0xf3, 0xb0, 0xb4, 0x88, 0x98, 0xa8, 0x21, 0xdb,
 360:drivers/inv_mpu_dmp_motion_driver.c ****     0x71, 0x8d, 0x9d, 0x71, 0x85, 0x95, 0x21, 0xd9, 0xad, 0xf2, 0xfa, 0xd8, 0x85, 0x97, 0xa8, 0x28,
 361:drivers/inv_mpu_dmp_motion_driver.c ****     0xd9, 0xf4, 0x08, 0xd8, 0xf2, 0x8d, 0x29, 0xda, 0xf4, 0x05, 0xd9, 0xf2, 0x85, 0xa4, 0xc2, 0xf2,
 362:drivers/inv_mpu_dmp_motion_driver.c ****     0xd8, 0xa8, 0x8d, 0x94, 0x01, 0xd1, 0xd9, 0xf4, 0x11, 0xf2, 0xd8, 0x87, 0x21, 0xd8, 0xf4, 0x0a,
 363:drivers/inv_mpu_dmp_motion_driver.c ****     0xd8, 0xf2, 0x84, 0x98, 0xa8, 0xc8, 0x01, 0xd1, 0xd9, 0xf4, 0x11, 0xd8, 0xf3, 0xa4, 0xc8, 0xbb,
 364:drivers/inv_mpu_dmp_motion_driver.c ****     0xaf, 0xd0, 0xf2, 0xde, 0xf8, 0xf8, 0xf8, 0xf8, 0xf8, 0xf8, 0xf8, 0xf8, 0xd8, 0xf1, 0xb8, 0xf6,
 365:drivers/inv_mpu_dmp_motion_driver.c ****     0xb5, 0xb9, 0xb0, 0x8a, 0x95, 0xa3, 0xde, 0x3c, 0xa3, 0xd9, 0xf8, 0xd8, 0x5c, 0xa3, 0xd9, 0xf8,
 366:drivers/inv_mpu_dmp_motion_driver.c ****     0xd8, 0x7c, 0xa3, 0xd9, 0xf8, 0xd8, 0xf8, 0xf9, 0xd1, 0xa5, 0xd9, 0xdf, 0xda, 0xfa, 0xd8, 0xb1,
 367:drivers/inv_mpu_dmp_motion_driver.c ****     0x85, 0x30, 0xf7, 0xd9, 0xde, 0xd8, 0xf8, 0x30, 0xad, 0xda, 0xde, 0xd8, 0xf2, 0xb4, 0x8c, 0x99,
 368:drivers/inv_mpu_dmp_motion_driver.c ****     0xa3, 0x2d, 0x55, 0x7d, 0xa0, 0x83, 0xdf, 0xdf, 0xdf, 0xb5, 0x91, 0xa0, 0xf6, 0x29, 0xd9, 0xfb,
 369:drivers/inv_mpu_dmp_motion_driver.c ****     0xd8, 0xa0, 0xfc, 0x29, 0xd9, 0xfa, 0xd8, 0xa0, 0xd0, 0x51, 0xd9, 0xf8, 0xd8, 0xfc, 0x51, 0xd9,
 370:drivers/inv_mpu_dmp_motion_driver.c ****     0xf9, 0xd8, 0x79, 0xd9, 0xfb, 0xd8, 0xa0, 0xd0, 0xfc, 0x79, 0xd9, 0xfa, 0xd8, 0xa1, 0xf9, 0xf9,
 371:drivers/inv_mpu_dmp_motion_driver.c ****     0xf9, 0xf9, 0xf9, 0xa0, 0xda, 0xdf, 0xdf, 0xdf, 0xd8, 0xa1, 0xf8, 0xf8, 0xf8, 0xf8, 0xf8, 0xac,
 372:drivers/inv_mpu_dmp_motion_driver.c ****     0xde, 0xf8, 0xad, 0xde, 0x83, 0x93, 0xac, 0x2c, 0x54, 0x7c, 0xf1, 0xa8, 0xdf, 0xdf, 0xdf, 0xf6,
 373:drivers/inv_mpu_dmp_motion_driver.c ****     0x9d, 0x2c, 0xda, 0xa0, 0xdf, 0xd9, 0xfa, 0xdb, 0x2d, 0xf8, 0xd8, 0xa8, 0x50, 0xda, 0xa0, 0xd0,
 374:drivers/inv_mpu_dmp_motion_driver.c ****     0xde, 0xd9, 0xd0, 0xf8, 0xf8, 0xf8, 0xdb, 0x55, 0xf8, 0xd8, 0xa8, 0x78, 0xda, 0xa0, 0xd0, 0xdf,
 375:drivers/inv_mpu_dmp_motion_driver.c ****     /* bank # 8 */
ARM GAS  /tmp/ccp3ezWO.s 			page 8


 376:drivers/inv_mpu_dmp_motion_driver.c ****     0xd9, 0xd0, 0xfa, 0xf8, 0xf8, 0xf8, 0xf8, 0xdb, 0x7d, 0xf8, 0xd8, 0x9c, 0xa8, 0x8c, 0xf5, 0x30,
 377:drivers/inv_mpu_dmp_motion_driver.c ****     0xdb, 0x38, 0xd9, 0xd0, 0xde, 0xdf, 0xa0, 0xd0, 0xde, 0xdf, 0xd8, 0xa8, 0x48, 0xdb, 0x58, 0xd9,
 378:drivers/inv_mpu_dmp_motion_driver.c ****     0xdf, 0xd0, 0xde, 0xa0, 0xdf, 0xd0, 0xde, 0xd8, 0xa8, 0x68, 0xdb, 0x70, 0xd9, 0xdf, 0xdf, 0xa0,
 379:drivers/inv_mpu_dmp_motion_driver.c ****     0xdf, 0xdf, 0xd8, 0xf1, 0xa8, 0x88, 0x90, 0x2c, 0x54, 0x7c, 0x98, 0xa8, 0xd0, 0x5c, 0x38, 0xd1,
 380:drivers/inv_mpu_dmp_motion_driver.c ****     0xda, 0xf2, 0xae, 0x8c, 0xdf, 0xf9, 0xd8, 0xb0, 0x87, 0xa8, 0xc1, 0xc1, 0xb1, 0x88, 0xa8, 0xc6,
 381:drivers/inv_mpu_dmp_motion_driver.c ****     0xf9, 0xf9, 0xda, 0x36, 0xd8, 0xa8, 0xf9, 0xda, 0x36, 0xd8, 0xa8, 0xf9, 0xda, 0x36, 0xd8, 0xa8,
 382:drivers/inv_mpu_dmp_motion_driver.c ****     0xf9, 0xda, 0x36, 0xd8, 0xa8, 0xf9, 0xda, 0x36, 0xd8, 0xf7, 0x8d, 0x9d, 0xad, 0xf8, 0x18, 0xda,
 383:drivers/inv_mpu_dmp_motion_driver.c ****     0xf2, 0xae, 0xdf, 0xd8, 0xf7, 0xad, 0xfa, 0x30, 0xd9, 0xa4, 0xde, 0xf9, 0xd8, 0xf2, 0xae, 0xde,
 384:drivers/inv_mpu_dmp_motion_driver.c ****     0xfa, 0xf9, 0x83, 0xa7, 0xd9, 0xc3, 0xc5, 0xc7, 0xf1, 0x88, 0x9b, 0xa7, 0x7a, 0xad, 0xf7, 0xde,
 385:drivers/inv_mpu_dmp_motion_driver.c ****     0xdf, 0xa4, 0xf8, 0x84, 0x94, 0x08, 0xa7, 0x97, 0xf3, 0x00, 0xae, 0xf2, 0x98, 0x19, 0xa4, 0x88,
 386:drivers/inv_mpu_dmp_motion_driver.c ****     0xc6, 0xa3, 0x94, 0x88, 0xf6, 0x32, 0xdf, 0xf2, 0x83, 0x93, 0xdb, 0x09, 0xd9, 0xf2, 0xaa, 0xdf,
 387:drivers/inv_mpu_dmp_motion_driver.c ****     0xd8, 0xd8, 0xae, 0xf8, 0xf9, 0xd1, 0xda, 0xf3, 0xa4, 0xde, 0xa7, 0xf1, 0x88, 0x9b, 0x7a, 0xd8,
 388:drivers/inv_mpu_dmp_motion_driver.c ****     0xf3, 0x84, 0x94, 0xae, 0x19, 0xf9, 0xda, 0xaa, 0xf1, 0xdf, 0xd8, 0xa8, 0x81, 0xc0, 0xc3, 0xc5,
 389:drivers/inv_mpu_dmp_motion_driver.c ****     0xc7, 0xa3, 0x92, 0x83, 0xf6, 0x28, 0xad, 0xde, 0xd9, 0xf8, 0xd8, 0xa3, 0x50, 0xad, 0xd9, 0xf8,
 390:drivers/inv_mpu_dmp_motion_driver.c ****     0xd8, 0xa3, 0x78, 0xad, 0xd9, 0xf8, 0xd8, 0xf8, 0xf9, 0xd1, 0xa1, 0xda, 0xde, 0xc3, 0xc5, 0xc7,
 391:drivers/inv_mpu_dmp_motion_driver.c ****     0xd8, 0xa1, 0x81, 0x94, 0xf8, 0x18, 0xf2, 0xb0, 0x89, 0xac, 0xc3, 0xc5, 0xc7, 0xf1, 0xd8, 0xb8,
 392:drivers/inv_mpu_dmp_motion_driver.c ****     /* bank # 9 */
 393:drivers/inv_mpu_dmp_motion_driver.c ****     0xb4, 0xb0, 0x97, 0x86, 0xa8, 0x31, 0x9b, 0x06, 0x99, 0x07, 0xab, 0x97, 0x28, 0x88, 0x9b, 0xf0,
 394:drivers/inv_mpu_dmp_motion_driver.c ****     0x0c, 0x20, 0x14, 0x40, 0xb0, 0xb4, 0xb8, 0xf0, 0xa8, 0x8a, 0x9a, 0x28, 0x50, 0x78, 0xb7, 0x9b,
 395:drivers/inv_mpu_dmp_motion_driver.c ****     0xa8, 0x29, 0x51, 0x79, 0x24, 0x70, 0x59, 0x44, 0x69, 0x38, 0x64, 0x48, 0x31, 0xf1, 0xbb, 0xab,
 396:drivers/inv_mpu_dmp_motion_driver.c ****     0x88, 0x00, 0x2c, 0x54, 0x7c, 0xf0, 0xb3, 0x8b, 0xb8, 0xa8, 0x04, 0x28, 0x50, 0x78, 0xf1, 0xb0,
 397:drivers/inv_mpu_dmp_motion_driver.c ****     0x88, 0xb4, 0x97, 0x26, 0xa8, 0x59, 0x98, 0xbb, 0xab, 0xb3, 0x8b, 0x02, 0x26, 0x46, 0x66, 0xb0,
 398:drivers/inv_mpu_dmp_motion_driver.c ****     0xb8, 0xf0, 0x8a, 0x9c, 0xa8, 0x29, 0x51, 0x79, 0x8b, 0x29, 0x51, 0x79, 0x8a, 0x24, 0x70, 0x59,
 399:drivers/inv_mpu_dmp_motion_driver.c ****     0x8b, 0x20, 0x58, 0x71, 0x8a, 0x44, 0x69, 0x38, 0x8b, 0x39, 0x40, 0x68, 0x8a, 0x64, 0x48, 0x31,
 400:drivers/inv_mpu_dmp_motion_driver.c ****     0x8b, 0x30, 0x49, 0x60, 0x88, 0xf1, 0xac, 0x00, 0x2c, 0x54, 0x7c, 0xf0, 0x8c, 0xa8, 0x04, 0x28,
 401:drivers/inv_mpu_dmp_motion_driver.c ****     0x50, 0x78, 0xf1, 0x88, 0x97, 0x26, 0xa8, 0x59, 0x98, 0xac, 0x8c, 0x02, 0x26, 0x46, 0x66, 0xf0,
 402:drivers/inv_mpu_dmp_motion_driver.c ****     0x89, 0x9c, 0xa8, 0x29, 0x51, 0x79, 0x24, 0x70, 0x59, 0x44, 0x69, 0x38, 0x64, 0x48, 0x31, 0xa9,
 403:drivers/inv_mpu_dmp_motion_driver.c ****     0x88, 0x09, 0x20, 0x59, 0x70, 0xab, 0x11, 0x38, 0x40, 0x69, 0xa8, 0x19, 0x31, 0x48, 0x60, 0x8c,
 404:drivers/inv_mpu_dmp_motion_driver.c ****     0xa8, 0x3c, 0x41, 0x5c, 0x20, 0x7c, 0x00, 0xf1, 0x87, 0x98, 0x19, 0x86, 0xa8, 0x6e, 0x76, 0x7e,
 405:drivers/inv_mpu_dmp_motion_driver.c ****     0xa9, 0x99, 0x88, 0x2d, 0x55, 0x7d, 0xd8, 0xb1, 0xb5, 0xb9, 0xa3, 0xdf, 0xdf, 0xdf, 0xae, 0xd0,
 406:drivers/inv_mpu_dmp_motion_driver.c ****     0xdf, 0xaa, 0xd0, 0xde, 0xf2, 0xab, 0xf8, 0xf9, 0xd9, 0xb0, 0x87, 0xc4, 0xaa, 0xf1, 0xdf, 0xdf,
 407:drivers/inv_mpu_dmp_motion_driver.c ****     0xbb, 0xaf, 0xdf, 0xdf, 0xb9, 0xd8, 0xb1, 0xf1, 0xa3, 0x97, 0x8e, 0x60, 0xdf, 0xb0, 0x84, 0xf2,
 408:drivers/inv_mpu_dmp_motion_driver.c ****     0xc8, 0xf8, 0xf9, 0xd9, 0xde, 0xd8, 0x93, 0x85, 0xf1, 0x4a, 0xb1, 0x83, 0xa3, 0x08, 0xb5, 0x83,
 409:drivers/inv_mpu_dmp_motion_driver.c ****     /* bank # 10 */
 410:drivers/inv_mpu_dmp_motion_driver.c ****     0x9a, 0x08, 0x10, 0xb7, 0x9f, 0x10, 0xd8, 0xf1, 0xb0, 0xba, 0xae, 0xb0, 0x8a, 0xc2, 0xb2, 0xb6,
 411:drivers/inv_mpu_dmp_motion_driver.c ****     0x8e, 0x9e, 0xf1, 0xfb, 0xd9, 0xf4, 0x1d, 0xd8, 0xf9, 0xd9, 0x0c, 0xf1, 0xd8, 0xf8, 0xf8, 0xad,
 412:drivers/inv_mpu_dmp_motion_driver.c ****     0x61, 0xd9, 0xae, 0xfb, 0xd8, 0xf4, 0x0c, 0xf1, 0xd8, 0xf8, 0xf8, 0xad, 0x19, 0xd9, 0xae, 0xfb,
 413:drivers/inv_mpu_dmp_motion_driver.c ****     0xdf, 0xd8, 0xf4, 0x16, 0xf1, 0xd8, 0xf8, 0xad, 0x8d, 0x61, 0xd9, 0xf4, 0xf4, 0xac, 0xf5, 0x9c,
 414:drivers/inv_mpu_dmp_motion_driver.c ****     0x9c, 0x8d, 0xdf, 0x2b, 0xba, 0xb6, 0xae, 0xfa, 0xf8, 0xf4, 0x0b, 0xd8, 0xf1, 0xae, 0xd0, 0xf8,
 415:drivers/inv_mpu_dmp_motion_driver.c ****     0xad, 0x51, 0xda, 0xae, 0xfa, 0xf8, 0xf1, 0xd8, 0xb9, 0xb1, 0xb6, 0xa3, 0x83, 0x9c, 0x08, 0xb9,
 416:drivers/inv_mpu_dmp_motion_driver.c ****     0xb1, 0x83, 0x9a, 0xb5, 0xaa, 0xc0, 0xfd, 0x30, 0x83, 0xb7, 0x9f, 0x10, 0xb5, 0x8b, 0x93, 0xf2,
 417:drivers/inv_mpu_dmp_motion_driver.c ****     0x02, 0x02, 0xd1, 0xab, 0xda, 0xde, 0xd8, 0xf1, 0xb0, 0x80, 0xba, 0xab, 0xc0, 0xc3, 0xb2, 0x84,
 418:drivers/inv_mpu_dmp_motion_driver.c ****     0xc1, 0xc3, 0xd8, 0xb1, 0xb9, 0xf3, 0x8b, 0xa3, 0x91, 0xb6, 0x09, 0xb4, 0xd9, 0xab, 0xde, 0xb0,
 419:drivers/inv_mpu_dmp_motion_driver.c ****     0x87, 0x9c, 0xb9, 0xa3, 0xdd, 0xf1, 0xb3, 0x8b, 0x8b, 0x8b, 0x8b, 0x8b, 0xb0, 0x87, 0xa3, 0xa3,
 420:drivers/inv_mpu_dmp_motion_driver.c ****     0xa3, 0xa3, 0xb2, 0x8b, 0xb6, 0x9b, 0xf2, 0xa3, 0xa3, 0xa3, 0xa3, 0xa3, 0xa3, 0xa3, 0xa3, 0xa3,
 421:drivers/inv_mpu_dmp_motion_driver.c ****     0xa3, 0xf1, 0xb0, 0x87, 0xb5, 0x9a, 0xa3, 0xf3, 0x9b, 0xa3, 0xa3, 0xdc, 0xba, 0xac, 0xdf, 0xb9,
 422:drivers/inv_mpu_dmp_motion_driver.c ****     0xa3, 0xa3, 0xa3, 0xa3, 0xa3, 0xa3, 0xa3, 0xa3, 0xa3, 0xa3, 0xa3, 0xa3, 0xa3, 0xa3, 0xa3, 0xa3,
 423:drivers/inv_mpu_dmp_motion_driver.c ****     0xd8, 0xd8, 0xd8, 0xbb, 0xb3, 0xb7, 0xf1, 0xaa, 0xf9, 0xda, 0xff, 0xd9, 0x80, 0x9a, 0xaa, 0x28,
 424:drivers/inv_mpu_dmp_motion_driver.c ****     0xb4, 0x80, 0x98, 0xa7, 0x20, 0xb7, 0x97, 0x87, 0xa8, 0x66, 0x88, 0xf0, 0x79, 0x51, 0xf1, 0x90,
 425:drivers/inv_mpu_dmp_motion_driver.c ****     0x2c, 0x87, 0x0c, 0xa7, 0x81, 0x97, 0x62, 0x93, 0xf0, 0x71, 0x71, 0x60, 0x85, 0x94, 0x01, 0x29,
 426:drivers/inv_mpu_dmp_motion_driver.c ****     /* bank # 11 */
 427:drivers/inv_mpu_dmp_motion_driver.c ****     0x51, 0x79, 0x90, 0xa5, 0xf1, 0x28, 0x4c, 0x6c, 0x87, 0x0c, 0x95, 0x18, 0x85, 0x78, 0xa3, 0x83,
 428:drivers/inv_mpu_dmp_motion_driver.c ****     0x90, 0x28, 0x4c, 0x6c, 0x88, 0x6c, 0xd8, 0xf3, 0xa2, 0x82, 0x00, 0xf2, 0x10, 0xa8, 0x92, 0x19,
 429:drivers/inv_mpu_dmp_motion_driver.c ****     0x80, 0xa2, 0xf2, 0xd9, 0x26, 0xd8, 0xf1, 0x88, 0xa8, 0x4d, 0xd9, 0x48, 0xd8, 0x96, 0xa8, 0x39,
 430:drivers/inv_mpu_dmp_motion_driver.c ****     0x80, 0xd9, 0x3c, 0xd8, 0x95, 0x80, 0xa8, 0x39, 0xa6, 0x86, 0x98, 0xd9, 0x2c, 0xda, 0x87, 0xa7,
 431:drivers/inv_mpu_dmp_motion_driver.c ****     0x2c, 0xd8, 0xa8, 0x89, 0x95, 0x19, 0xa9, 0x80, 0xd9, 0x38, 0xd8, 0xa8, 0x89, 0x39, 0xa9, 0x80,
 432:drivers/inv_mpu_dmp_motion_driver.c ****     0xda, 0x3c, 0xd8, 0xa8, 0x2e, 0xa8, 0x39, 0x90, 0xd9, 0x0c, 0xd8, 0xa8, 0x95, 0x31, 0x98, 0xd9,
ARM GAS  /tmp/ccp3ezWO.s 			page 9


 433:drivers/inv_mpu_dmp_motion_driver.c ****     0x0c, 0xd8, 0xa8, 0x09, 0xd9, 0xff, 0xd8, 0x01, 0xda, 0xff, 0xd8, 0x95, 0x39, 0xa9, 0xda, 0x26,
 434:drivers/inv_mpu_dmp_motion_driver.c ****     0xff, 0xd8, 0x90, 0xa8, 0x0d, 0x89, 0x99, 0xa8, 0x10, 0x80, 0x98, 0x21, 0xda, 0x2e, 0xd8, 0x89,
 435:drivers/inv_mpu_dmp_motion_driver.c ****     0x99, 0xa8, 0x31, 0x80, 0xda, 0x2e, 0xd8, 0xa8, 0x86, 0x96, 0x31, 0x80, 0xda, 0x2e, 0xd8, 0xa8,
 436:drivers/inv_mpu_dmp_motion_driver.c ****     0x87, 0x31, 0x80, 0xda, 0x2e, 0xd8, 0xa8, 0x82, 0x92, 0xf3, 0x41, 0x80, 0xf1, 0xd9, 0x2e, 0xd8,
 437:drivers/inv_mpu_dmp_motion_driver.c ****     0xa8, 0x82, 0xf3, 0x19, 0x80, 0xf1, 0xd9, 0x2e, 0xd8, 0x82, 0xac, 0xf3, 0xc0, 0xa2, 0x80, 0x22,
 438:drivers/inv_mpu_dmp_motion_driver.c ****     0xf1, 0xa6, 0x2e, 0xa7, 0x2e, 0xa9, 0x22, 0x98, 0xa8, 0x29, 0xda, 0xac, 0xde, 0xff, 0xd8, 0xa2,
 439:drivers/inv_mpu_dmp_motion_driver.c ****     0xf2, 0x2a, 0xf1, 0xa9, 0x2e, 0x82, 0x92, 0xa8, 0xf2, 0x31, 0x80, 0xa6, 0x96, 0xf1, 0xd9, 0x00,
 440:drivers/inv_mpu_dmp_motion_driver.c ****     0xac, 0x8c, 0x9c, 0x0c, 0x30, 0xac, 0xde, 0xd0, 0xde, 0xff, 0xd8, 0x8c, 0x9c, 0xac, 0xd0, 0x10,
 441:drivers/inv_mpu_dmp_motion_driver.c ****     0xac, 0xde, 0x80, 0x92, 0xa2, 0xf2, 0x4c, 0x82, 0xa8, 0xf1, 0xca, 0xf2, 0x35, 0xf1, 0x96, 0x88,
 442:drivers/inv_mpu_dmp_motion_driver.c ****     0xa6, 0xd9, 0x00, 0xd8, 0xf1, 0xff
 443:drivers/inv_mpu_dmp_motion_driver.c **** };
 444:drivers/inv_mpu_dmp_motion_driver.c **** 
 445:drivers/inv_mpu_dmp_motion_driver.c **** static const unsigned short sStartAddress = 0x0400;
 446:drivers/inv_mpu_dmp_motion_driver.c **** 
 447:drivers/inv_mpu_dmp_motion_driver.c **** /* END OF SECTION COPIED FROM dmpDefaultMPU6050.c */
 448:drivers/inv_mpu_dmp_motion_driver.c **** 
 449:drivers/inv_mpu_dmp_motion_driver.c **** #define INT_SRC_TAP             (0x01)
 450:drivers/inv_mpu_dmp_motion_driver.c **** #define INT_SRC_ANDROID_ORIENT  (0x08)
 451:drivers/inv_mpu_dmp_motion_driver.c **** 
 452:drivers/inv_mpu_dmp_motion_driver.c **** #define DMP_FEATURE_SEND_ANY_GYRO   (DMP_FEATURE_SEND_RAW_GYRO | \
 453:drivers/inv_mpu_dmp_motion_driver.c ****                                      DMP_FEATURE_SEND_CAL_GYRO)
 454:drivers/inv_mpu_dmp_motion_driver.c **** 
 455:drivers/inv_mpu_dmp_motion_driver.c **** #define MAX_PACKET_LENGTH   (32)
 456:drivers/inv_mpu_dmp_motion_driver.c **** 
 457:drivers/inv_mpu_dmp_motion_driver.c **** #define DMP_SAMPLE_RATE     (200)
 458:drivers/inv_mpu_dmp_motion_driver.c **** #define GYRO_SF             (46850825LL * 200 / DMP_SAMPLE_RATE)
 459:drivers/inv_mpu_dmp_motion_driver.c **** 
 460:drivers/inv_mpu_dmp_motion_driver.c **** #define FIFO_CORRUPTION_CHECK
 461:drivers/inv_mpu_dmp_motion_driver.c **** #ifdef FIFO_CORRUPTION_CHECK
 462:drivers/inv_mpu_dmp_motion_driver.c **** #define QUAT_ERROR_THRESH       (1L<<24)
 463:drivers/inv_mpu_dmp_motion_driver.c **** #define QUAT_MAG_SQ_NORMALIZED  (1L<<28)
 464:drivers/inv_mpu_dmp_motion_driver.c **** #define QUAT_MAG_SQ_MIN         (QUAT_MAG_SQ_NORMALIZED - QUAT_ERROR_THRESH)
 465:drivers/inv_mpu_dmp_motion_driver.c **** #define QUAT_MAG_SQ_MAX         (QUAT_MAG_SQ_NORMALIZED + QUAT_ERROR_THRESH)
 466:drivers/inv_mpu_dmp_motion_driver.c **** #endif
 467:drivers/inv_mpu_dmp_motion_driver.c **** 
 468:drivers/inv_mpu_dmp_motion_driver.c **** struct dmp_s {
 469:drivers/inv_mpu_dmp_motion_driver.c ****     void (*tap_cb)(unsigned char count, unsigned char direction);
 470:drivers/inv_mpu_dmp_motion_driver.c ****     void (*android_orient_cb)(unsigned char orientation);
 471:drivers/inv_mpu_dmp_motion_driver.c ****     unsigned short orient;
 472:drivers/inv_mpu_dmp_motion_driver.c ****     unsigned short feature_mask;
 473:drivers/inv_mpu_dmp_motion_driver.c ****     unsigned short fifo_rate;
 474:drivers/inv_mpu_dmp_motion_driver.c ****     unsigned char packet_length;
 475:drivers/inv_mpu_dmp_motion_driver.c **** };
 476:drivers/inv_mpu_dmp_motion_driver.c **** 
 477:drivers/inv_mpu_dmp_motion_driver.c **** //static struct dmp_s dmp = {
 478:drivers/inv_mpu_dmp_motion_driver.c **** //    .tap_cb = NULL,
 479:drivers/inv_mpu_dmp_motion_driver.c **** //    .android_orient_cb = NULL,
 480:drivers/inv_mpu_dmp_motion_driver.c **** //    .orient = 0,
 481:drivers/inv_mpu_dmp_motion_driver.c **** //    .feature_mask = 0,
 482:drivers/inv_mpu_dmp_motion_driver.c **** //    .fifo_rate = 0,
 483:drivers/inv_mpu_dmp_motion_driver.c **** //    .packet_length = 0
 484:drivers/inv_mpu_dmp_motion_driver.c **** //};
 485:drivers/inv_mpu_dmp_motion_driver.c **** static struct dmp_s dmp={
 486:drivers/inv_mpu_dmp_motion_driver.c ****   0,
 487:drivers/inv_mpu_dmp_motion_driver.c ****   0,
 488:drivers/inv_mpu_dmp_motion_driver.c ****   0,
 489:drivers/inv_mpu_dmp_motion_driver.c ****   0,
ARM GAS  /tmp/ccp3ezWO.s 			page 10


 490:drivers/inv_mpu_dmp_motion_driver.c ****   0,
 491:drivers/inv_mpu_dmp_motion_driver.c ****   0
 492:drivers/inv_mpu_dmp_motion_driver.c **** };
 493:drivers/inv_mpu_dmp_motion_driver.c **** /**
 494:drivers/inv_mpu_dmp_motion_driver.c ****  *  @brief  Load the DMP with this image.
 495:drivers/inv_mpu_dmp_motion_driver.c ****  *  @return 0 if successful.
 496:drivers/inv_mpu_dmp_motion_driver.c ****  */
 497:drivers/inv_mpu_dmp_motion_driver.c **** int dmp_load_motion_driver_firmware(void)
 498:drivers/inv_mpu_dmp_motion_driver.c **** {
  25              		.loc 1 498 0
  26              		.cfi_startproc
  27              		@ args = 0, pretend = 0, frame = 0
  28              		@ frame_needed = 0, uses_anonymous_args = 0
  29 0000 08B5     		push	{r3, lr}
  30              		.cfi_def_cfa_offset 8
  31              		.cfi_offset 3, -8
  32              		.cfi_offset 14, -4
 499:drivers/inv_mpu_dmp_motion_driver.c ****     return mpu_load_firmware(DMP_CODE_SIZE, dmp_memory, sStartAddress,
  33              		.loc 1 499 0
  34 0002 C823     		movs	r3, #200
  35 0004 4FF48062 		mov	r2, #1024
  36 0008 0249     		ldr	r1, .L3
  37 000a 40F6F630 		movw	r0, #3062
  38 000e FFF7FEFF 		bl	mpu_load_firmware
  39              	.LVL0:
 500:drivers/inv_mpu_dmp_motion_driver.c ****         DMP_SAMPLE_RATE);
 501:drivers/inv_mpu_dmp_motion_driver.c **** }
  40              		.loc 1 501 0
  41 0012 08BD     		pop	{r3, pc}
  42              	.L4:
  43              		.align	2
  44              	.L3:
  45 0014 00000000 		.word	.LANCHOR0
  46              		.cfi_endproc
  47              	.LFE64:
  48              		.size	dmp_load_motion_driver_firmware, .-dmp_load_motion_driver_firmware
  49              		.align	1
  50              		.global	dmp_set_orientation
  51              		.syntax unified
  52              		.thumb
  53              		.thumb_func
  54              		.fpu softvfp
  55              		.type	dmp_set_orientation, %function
  56              	dmp_set_orientation:
  57              	.LFB65:
 502:drivers/inv_mpu_dmp_motion_driver.c **** 
 503:drivers/inv_mpu_dmp_motion_driver.c **** /**
 504:drivers/inv_mpu_dmp_motion_driver.c ****  *  @brief      Push gyro and accel orientation to the DMP.
 505:drivers/inv_mpu_dmp_motion_driver.c ****  *  The orientation is represented here as the output of
 506:drivers/inv_mpu_dmp_motion_driver.c ****  *  @e inv_orientation_matrix_to_scalar.
 507:drivers/inv_mpu_dmp_motion_driver.c ****  *  @param[in]  orient  Gyro and accel orientation in body frame.
 508:drivers/inv_mpu_dmp_motion_driver.c ****  *  @return     0 if successful.
 509:drivers/inv_mpu_dmp_motion_driver.c ****  */
 510:drivers/inv_mpu_dmp_motion_driver.c **** int dmp_set_orientation(unsigned short orient)
 511:drivers/inv_mpu_dmp_motion_driver.c **** {
  58              		.loc 1 511 0
  59              		.cfi_startproc
ARM GAS  /tmp/ccp3ezWO.s 			page 11


  60              		@ args = 0, pretend = 0, frame = 16
  61              		@ frame_needed = 0, uses_anonymous_args = 0
  62              	.LVL1:
  63 0018 10B5     		push	{r4, lr}
  64              		.cfi_def_cfa_offset 8
  65              		.cfi_offset 4, -8
  66              		.cfi_offset 14, -4
  67 001a 84B0     		sub	sp, sp, #16
  68              		.cfi_def_cfa_offset 24
  69 001c 0446     		mov	r4, r0
 512:drivers/inv_mpu_dmp_motion_driver.c ****     unsigned char gyro_regs[3], accel_regs[3];
 513:drivers/inv_mpu_dmp_motion_driver.c ****     const unsigned char gyro_axes[3] = {DINA4C, DINACD, DINA6C};
  70              		.loc 1 513 0
  71 001e 4C23     		movs	r3, #76
  72 0020 8DF80430 		strb	r3, [sp, #4]
  73 0024 CD23     		movs	r3, #205
  74 0026 8DF80530 		strb	r3, [sp, #5]
  75 002a 6C23     		movs	r3, #108
  76 002c 8DF80630 		strb	r3, [sp, #6]
 514:drivers/inv_mpu_dmp_motion_driver.c ****     const unsigned char accel_axes[3] = {DINA0C, DINAC9, DINA2C};
  77              		.loc 1 514 0
  78 0030 0C23     		movs	r3, #12
  79 0032 8DF80030 		strb	r3, [sp]
  80 0036 C923     		movs	r3, #201
  81 0038 8DF80130 		strb	r3, [sp, #1]
  82 003c 2C23     		movs	r3, #44
  83 003e 8DF80230 		strb	r3, [sp, #2]
  84              	.LVL2:
 515:drivers/inv_mpu_dmp_motion_driver.c ****     const unsigned char gyro_sign[3] = {DINA36, DINA56, DINA76};
 516:drivers/inv_mpu_dmp_motion_driver.c ****     const unsigned char accel_sign[3] = {DINA26, DINA46, DINA66};
 517:drivers/inv_mpu_dmp_motion_driver.c **** 
 518:drivers/inv_mpu_dmp_motion_driver.c ****     gyro_regs[0] = gyro_axes[orient & 3];
  85              		.loc 1 518 0
  86 0042 00F00301 		and	r1, r0, #3
  87 0046 04AB     		add	r3, sp, #16
  88 0048 1944     		add	r1, r1, r3
  89 004a 11F80C3C 		ldrb	r3, [r1, #-12]	@ zero_extendqisi2
  90 004e 8DF80C30 		strb	r3, [sp, #12]
 519:drivers/inv_mpu_dmp_motion_driver.c ****     gyro_regs[1] = gyro_axes[(orient >> 3) & 3];
  91              		.loc 1 519 0
  92 0052 C0F3C102 		ubfx	r2, r0, #3, #2
  93 0056 04AB     		add	r3, sp, #16
  94 0058 1A44     		add	r2, r2, r3
  95 005a 12F80C3C 		ldrb	r3, [r2, #-12]	@ zero_extendqisi2
  96 005e 8DF80D30 		strb	r3, [sp, #13]
 520:drivers/inv_mpu_dmp_motion_driver.c ****     gyro_regs[2] = gyro_axes[(orient >> 6) & 3];
  97              		.loc 1 520 0
  98 0062 C0F38113 		ubfx	r3, r0, #6, #2
  99 0066 04A8     		add	r0, sp, #16
 100              	.LVL3:
 101 0068 0344     		add	r3, r3, r0
 102 006a 13F80C0C 		ldrb	r0, [r3, #-12]	@ zero_extendqisi2
 103 006e 8DF80E00 		strb	r0, [sp, #14]
 521:drivers/inv_mpu_dmp_motion_driver.c ****     accel_regs[0] = accel_axes[orient & 3];
 104              		.loc 1 521 0
 105 0072 11F8101C 		ldrb	r1, [r1, #-16]	@ zero_extendqisi2
 106 0076 8DF80810 		strb	r1, [sp, #8]
ARM GAS  /tmp/ccp3ezWO.s 			page 12


 522:drivers/inv_mpu_dmp_motion_driver.c ****     accel_regs[1] = accel_axes[(orient >> 3) & 3];
 107              		.loc 1 522 0
 108 007a 12F8102C 		ldrb	r2, [r2, #-16]	@ zero_extendqisi2
 109 007e 8DF80920 		strb	r2, [sp, #9]
 523:drivers/inv_mpu_dmp_motion_driver.c ****     accel_regs[2] = accel_axes[(orient >> 6) & 3];
 110              		.loc 1 523 0
 111 0082 13F8103C 		ldrb	r3, [r3, #-16]	@ zero_extendqisi2
 112 0086 8DF80A30 		strb	r3, [sp, #10]
 524:drivers/inv_mpu_dmp_motion_driver.c **** 
 525:drivers/inv_mpu_dmp_motion_driver.c ****     /* Chip-to-body, axes only. */
 526:drivers/inv_mpu_dmp_motion_driver.c ****     if (mpu_write_mem(FCFG_1, 3, gyro_regs))
 113              		.loc 1 526 0
 114 008a 03AA     		add	r2, sp, #12
 115 008c 0321     		movs	r1, #3
 116 008e 40F22640 		movw	r0, #1062
 117 0092 FFF7FEFF 		bl	mpu_write_mem
 118              	.LVL4:
 119 0096 0028     		cmp	r0, #0
 120 0098 48D1     		bne	.L10
 527:drivers/inv_mpu_dmp_motion_driver.c ****         return -1;
 528:drivers/inv_mpu_dmp_motion_driver.c ****     if (mpu_write_mem(FCFG_2, 3, accel_regs))
 121              		.loc 1 528 0
 122 009a 02AA     		add	r2, sp, #8
 123 009c 0321     		movs	r1, #3
 124 009e 40F22A40 		movw	r0, #1066
 125 00a2 FFF7FEFF 		bl	mpu_write_mem
 126              	.LVL5:
 127 00a6 0028     		cmp	r0, #0
 128 00a8 43D1     		bne	.L11
 529:drivers/inv_mpu_dmp_motion_driver.c ****         return -1;
 530:drivers/inv_mpu_dmp_motion_driver.c **** 
 531:drivers/inv_mpu_dmp_motion_driver.c ****     memcpy(gyro_regs, gyro_sign, 3);
 129              		.loc 1 531 0
 130 00aa 3623     		movs	r3, #54
 131 00ac 8DF80C30 		strb	r3, [sp, #12]
 132 00b0 5623     		movs	r3, #86
 133 00b2 8DF80D30 		strb	r3, [sp, #13]
 134 00b6 7623     		movs	r3, #118
 135 00b8 8DF80E30 		strb	r3, [sp, #14]
 532:drivers/inv_mpu_dmp_motion_driver.c ****     memcpy(accel_regs, accel_sign, 3);
 136              		.loc 1 532 0
 137 00bc 2623     		movs	r3, #38
 138 00be 8DF80830 		strb	r3, [sp, #8]
 139 00c2 4623     		movs	r3, #70
 140 00c4 8DF80930 		strb	r3, [sp, #9]
 141 00c8 6623     		movs	r3, #102
 142 00ca 8DF80A30 		strb	r3, [sp, #10]
 533:drivers/inv_mpu_dmp_motion_driver.c ****     if (orient & 4) {
 143              		.loc 1 533 0
 144 00ce 14F0040F 		tst	r4, #4
 145 00d2 05D0     		beq	.L7
 534:drivers/inv_mpu_dmp_motion_driver.c ****         gyro_regs[0] |= 1;
 146              		.loc 1 534 0
 147 00d4 3723     		movs	r3, #55
 148 00d6 8DF80C30 		strb	r3, [sp, #12]
 535:drivers/inv_mpu_dmp_motion_driver.c ****         accel_regs[0] |= 1;
 149              		.loc 1 535 0
ARM GAS  /tmp/ccp3ezWO.s 			page 13


 150 00da 2723     		movs	r3, #39
 151 00dc 8DF80830 		strb	r3, [sp, #8]
 152              	.L7:
 536:drivers/inv_mpu_dmp_motion_driver.c ****     }
 537:drivers/inv_mpu_dmp_motion_driver.c ****     if (orient & 0x20) {
 153              		.loc 1 537 0
 154 00e0 14F0200F 		tst	r4, #32
 155 00e4 05D0     		beq	.L8
 538:drivers/inv_mpu_dmp_motion_driver.c ****         gyro_regs[1] |= 1;
 156              		.loc 1 538 0
 157 00e6 5723     		movs	r3, #87
 158 00e8 8DF80D30 		strb	r3, [sp, #13]
 539:drivers/inv_mpu_dmp_motion_driver.c ****         accel_regs[1] |= 1;
 159              		.loc 1 539 0
 160 00ec 4723     		movs	r3, #71
 161 00ee 8DF80930 		strb	r3, [sp, #9]
 162              	.L8:
 540:drivers/inv_mpu_dmp_motion_driver.c ****     }
 541:drivers/inv_mpu_dmp_motion_driver.c ****     if (orient & 0x100) {
 163              		.loc 1 541 0
 164 00f2 14F4807F 		tst	r4, #256
 165 00f6 05D0     		beq	.L9
 542:drivers/inv_mpu_dmp_motion_driver.c ****         gyro_regs[2] |= 1;
 166              		.loc 1 542 0
 167 00f8 7723     		movs	r3, #119
 168 00fa 8DF80E30 		strb	r3, [sp, #14]
 543:drivers/inv_mpu_dmp_motion_driver.c ****         accel_regs[2] |= 1;
 169              		.loc 1 543 0
 170 00fe 6723     		movs	r3, #103
 171 0100 8DF80A30 		strb	r3, [sp, #10]
 172              	.L9:
 544:drivers/inv_mpu_dmp_motion_driver.c ****     }
 545:drivers/inv_mpu_dmp_motion_driver.c **** 
 546:drivers/inv_mpu_dmp_motion_driver.c ****     /* Chip-to-body, sign only. */
 547:drivers/inv_mpu_dmp_motion_driver.c ****     if (mpu_write_mem(FCFG_3, 3, gyro_regs))
 173              		.loc 1 547 0
 174 0104 03AA     		add	r2, sp, #12
 175 0106 0321     		movs	r1, #3
 176 0108 4FF48860 		mov	r0, #1088
 177 010c FFF7FEFF 		bl	mpu_write_mem
 178              	.LVL6:
 179 0110 90B9     		cbnz	r0, .L12
 548:drivers/inv_mpu_dmp_motion_driver.c ****         return -1;
 549:drivers/inv_mpu_dmp_motion_driver.c ****     if (mpu_write_mem(FCFG_7, 3, accel_regs))
 180              		.loc 1 549 0
 181 0112 02AA     		add	r2, sp, #8
 182 0114 0321     		movs	r1, #3
 183 0116 40F23140 		movw	r0, #1073
 184 011a FFF7FEFF 		bl	mpu_write_mem
 185              	.LVL7:
 186 011e 0346     		mov	r3, r0
 187 0120 68B9     		cbnz	r0, .L13
 550:drivers/inv_mpu_dmp_motion_driver.c ****         return -1;
 551:drivers/inv_mpu_dmp_motion_driver.c ****     dmp.orient = orient;
 188              		.loc 1 551 0
 189 0122 084A     		ldr	r2, .L15
 190 0124 1481     		strh	r4, [r2, #8]	@ movhi
ARM GAS  /tmp/ccp3ezWO.s 			page 14


 191              	.LVL8:
 192              	.L5:
 552:drivers/inv_mpu_dmp_motion_driver.c ****     return 0;
 553:drivers/inv_mpu_dmp_motion_driver.c **** }
 193              		.loc 1 553 0
 194 0126 1846     		mov	r0, r3
 195 0128 04B0     		add	sp, sp, #16
 196              		.cfi_remember_state
 197              		.cfi_def_cfa_offset 8
 198              		@ sp needed
 199 012a 10BD     		pop	{r4, pc}
 200              	.LVL9:
 201              	.L10:
 202              		.cfi_restore_state
 527:drivers/inv_mpu_dmp_motion_driver.c ****     if (mpu_write_mem(FCFG_2, 3, accel_regs))
 203              		.loc 1 527 0
 204 012c 4FF0FF33 		mov	r3, #-1
 205 0130 F9E7     		b	.L5
 206              	.L11:
 529:drivers/inv_mpu_dmp_motion_driver.c **** 
 207              		.loc 1 529 0
 208 0132 4FF0FF33 		mov	r3, #-1
 209 0136 F6E7     		b	.L5
 210              	.L12:
 548:drivers/inv_mpu_dmp_motion_driver.c ****     if (mpu_write_mem(FCFG_7, 3, accel_regs))
 211              		.loc 1 548 0
 212 0138 4FF0FF33 		mov	r3, #-1
 213 013c F3E7     		b	.L5
 214              	.L13:
 550:drivers/inv_mpu_dmp_motion_driver.c ****     dmp.orient = orient;
 215              		.loc 1 550 0
 216 013e 4FF0FF33 		mov	r3, #-1
 217              	.LVL10:
 218 0142 F0E7     		b	.L5
 219              	.L16:
 220              		.align	2
 221              	.L15:
 222 0144 00000000 		.word	.LANCHOR1
 223              		.cfi_endproc
 224              	.LFE65:
 225              		.size	dmp_set_orientation, .-dmp_set_orientation
 226              		.align	1
 227              		.global	dmp_set_gyro_bias
 228              		.syntax unified
 229              		.thumb
 230              		.thumb_func
 231              		.fpu softvfp
 232              		.type	dmp_set_gyro_bias, %function
 233              	dmp_set_gyro_bias:
 234              	.LFB66:
 554:drivers/inv_mpu_dmp_motion_driver.c **** 
 555:drivers/inv_mpu_dmp_motion_driver.c **** /**
 556:drivers/inv_mpu_dmp_motion_driver.c ****  *  @brief      Push gyro biases to the DMP.
 557:drivers/inv_mpu_dmp_motion_driver.c ****  *  Because the gyro integration is handled in the DMP, any gyro biases
 558:drivers/inv_mpu_dmp_motion_driver.c ****  *  calculated by the MPL should be pushed down to DMP memory to remove
 559:drivers/inv_mpu_dmp_motion_driver.c ****  *  3-axis quaternion drift.
 560:drivers/inv_mpu_dmp_motion_driver.c ****  *  \n NOTE: If the DMP-based gyro calibration is enabled, the DMP will
ARM GAS  /tmp/ccp3ezWO.s 			page 15


 561:drivers/inv_mpu_dmp_motion_driver.c ****  *  overwrite the biases written to this location once a new one is computed.
 562:drivers/inv_mpu_dmp_motion_driver.c ****  *  @param[in]  bias    Gyro biases in q16.
 563:drivers/inv_mpu_dmp_motion_driver.c ****  *  @return     0 if successful.
 564:drivers/inv_mpu_dmp_motion_driver.c ****  */
 565:drivers/inv_mpu_dmp_motion_driver.c **** int dmp_set_gyro_bias(long *bias)
 566:drivers/inv_mpu_dmp_motion_driver.c **** {
 235              		.loc 1 566 0
 236              		.cfi_startproc
 237              		@ args = 0, pretend = 0, frame = 8
 238              		@ frame_needed = 0, uses_anonymous_args = 0
 239              	.LVL11:
 240 0148 F0B5     		push	{r4, r5, r6, r7, lr}
 241              		.cfi_def_cfa_offset 20
 242              		.cfi_offset 4, -20
 243              		.cfi_offset 5, -16
 244              		.cfi_offset 6, -12
 245              		.cfi_offset 7, -8
 246              		.cfi_offset 14, -4
 247 014a 83B0     		sub	sp, sp, #12
 248              		.cfi_def_cfa_offset 32
 567:drivers/inv_mpu_dmp_motion_driver.c ****     long gyro_bias_body[3];
 568:drivers/inv_mpu_dmp_motion_driver.c ****     unsigned char regs[4];
 569:drivers/inv_mpu_dmp_motion_driver.c **** 
 570:drivers/inv_mpu_dmp_motion_driver.c ****     gyro_bias_body[0] = bias[dmp.orient & 3];
 249              		.loc 1 570 0
 250 014c 374B     		ldr	r3, .L25
 251 014e 1C89     		ldrh	r4, [r3, #8]
 252 0150 04F00303 		and	r3, r4, #3
 253 0154 50F82310 		ldr	r1, [r0, r3, lsl #2]
 254              	.LVL12:
 571:drivers/inv_mpu_dmp_motion_driver.c ****     if (dmp.orient & 4)
 255              		.loc 1 571 0
 256 0158 14F0040F 		tst	r4, #4
 572:drivers/inv_mpu_dmp_motion_driver.c ****         gyro_bias_body[0] *= -1;
 257              		.loc 1 572 0
 258 015c 18BF     		it	ne
 259 015e 4942     		rsbne	r1, r1, #0
 260              	.LVL13:
 573:drivers/inv_mpu_dmp_motion_driver.c ****     gyro_bias_body[1] = bias[(dmp.orient >> 3) & 3];
 261              		.loc 1 573 0
 262 0160 C4F3C103 		ubfx	r3, r4, #3, #2
 263 0164 50F82330 		ldr	r3, [r0, r3, lsl #2]
 264              	.LVL14:
 574:drivers/inv_mpu_dmp_motion_driver.c ****     if (dmp.orient & 0x20)
 265              		.loc 1 574 0
 266 0168 14F0200F 		tst	r4, #32
 575:drivers/inv_mpu_dmp_motion_driver.c ****         gyro_bias_body[1] *= -1;
 267              		.loc 1 575 0
 268 016c 18BF     		it	ne
 269 016e 5B42     		rsbne	r3, r3, #0
 270              	.LVL15:
 576:drivers/inv_mpu_dmp_motion_driver.c ****     gyro_bias_body[2] = bias[(dmp.orient >> 6) & 3];
 271              		.loc 1 576 0
 272 0170 C4F38112 		ubfx	r2, r4, #6, #2
 273 0174 50F82220 		ldr	r2, [r0, r2, lsl #2]
 274              	.LVL16:
 577:drivers/inv_mpu_dmp_motion_driver.c ****     if (dmp.orient & 0x100)
ARM GAS  /tmp/ccp3ezWO.s 			page 16


 275              		.loc 1 577 0
 276 0178 14F4807F 		tst	r4, #256
 578:drivers/inv_mpu_dmp_motion_driver.c ****         gyro_bias_body[2] *= -1;
 277              		.loc 1 578 0
 278 017c 18BF     		it	ne
 279 017e 5242     		rsbne	r2, r2, #0
 280              	.LVL17:
 579:drivers/inv_mpu_dmp_motion_driver.c **** 
 580:drivers/inv_mpu_dmp_motion_driver.c **** #ifdef EMPL_NO_64BIT
 581:drivers/inv_mpu_dmp_motion_driver.c ****     gyro_bias_body[0] = (long)(((float)gyro_bias_body[0] * GYRO_SF) / 1073741824.f);
 582:drivers/inv_mpu_dmp_motion_driver.c ****     gyro_bias_body[1] = (long)(((float)gyro_bias_body[1] * GYRO_SF) / 1073741824.f);
 583:drivers/inv_mpu_dmp_motion_driver.c ****     gyro_bias_body[2] = (long)(((float)gyro_bias_body[2] * GYRO_SF) / 1073741824.f);
 584:drivers/inv_mpu_dmp_motion_driver.c **** #else
 585:drivers/inv_mpu_dmp_motion_driver.c ****     gyro_bias_body[0] = (long)(((long long)gyro_bias_body[0] * GYRO_SF) >> 30);
 281              		.loc 1 585 0
 282 0180 CF17     		asrs	r7, r1, #31
 283 0182 2B4D     		ldr	r5, .L25+4
 284 0184 A1FB0501 		umull	r0, r1, r1, r5
 285              	.LVL18:
 286 0188 05FB0711 		mla	r1, r5, r7, r1
 287              	.LVL19:
 288 018c 840F     		lsrs	r4, r0, #30
 289              	.LVL20:
 290 018e 44EA8104 		orr	r4, r4, r1, lsl #2
 291              	.LVL21:
 586:drivers/inv_mpu_dmp_motion_driver.c ****     gyro_bias_body[1] = (long)(((long long)gyro_bias_body[1] * GYRO_SF) >> 30);
 292              		.loc 1 586 0
 293 0192 DF17     		asrs	r7, r3, #31
 294 0194 A3FB0501 		umull	r0, r1, r3, r5
 295 0198 05FB0711 		mla	r1, r5, r7, r1
 296 019c 860F     		lsrs	r6, r0, #30
 297 019e 46EA8106 		orr	r6, r6, r1, lsl #2
 298              	.LVL22:
 587:drivers/inv_mpu_dmp_motion_driver.c ****     gyro_bias_body[2] = (long)(((long long)gyro_bias_body[2] * GYRO_SF) >> 30);
 299              		.loc 1 587 0
 300 01a2 D117     		asrs	r1, r2, #31
 301 01a4 A2FB0523 		umull	r2, r3, r2, r5
 302              	.LVL23:
 303 01a8 05FB0133 		mla	r3, r5, r1, r3
 304 01ac 970F     		lsrs	r7, r2, #30
 305 01ae 47EA8307 		orr	r7, r7, r3, lsl #2
 306              	.LVL24:
 588:drivers/inv_mpu_dmp_motion_driver.c **** #endif
 589:drivers/inv_mpu_dmp_motion_driver.c **** 
 590:drivers/inv_mpu_dmp_motion_driver.c ****     regs[0] = (unsigned char)((gyro_bias_body[0] >> 24) & 0xFF);
 307              		.loc 1 590 0
 308 01b2 2316     		asrs	r3, r4, #24
 309 01b4 8DF80430 		strb	r3, [sp, #4]
 591:drivers/inv_mpu_dmp_motion_driver.c ****     regs[1] = (unsigned char)((gyro_bias_body[0] >> 16) & 0xFF);
 310              		.loc 1 591 0
 311 01b8 2314     		asrs	r3, r4, #16
 312 01ba 8DF80530 		strb	r3, [sp, #5]
 592:drivers/inv_mpu_dmp_motion_driver.c ****     regs[2] = (unsigned char)((gyro_bias_body[0] >> 8) & 0xFF);
 313              		.loc 1 592 0
 314 01be 2312     		asrs	r3, r4, #8
 315 01c0 8DF80630 		strb	r3, [sp, #6]
 593:drivers/inv_mpu_dmp_motion_driver.c ****     regs[3] = (unsigned char)(gyro_bias_body[0] & 0xFF);
ARM GAS  /tmp/ccp3ezWO.s 			page 17


 316              		.loc 1 593 0
 317 01c4 8DF80740 		strb	r4, [sp, #7]
 594:drivers/inv_mpu_dmp_motion_driver.c ****     if (mpu_write_mem(D_EXT_GYRO_BIAS_X, 4, regs))
 318              		.loc 1 594 0
 319 01c8 01AA     		add	r2, sp, #4
 320 01ca 0421     		movs	r1, #4
 321 01cc 4FF47470 		mov	r0, #976
 322 01d0 FFF7FEFF 		bl	mpu_write_mem
 323              	.LVL25:
 324 01d4 20BB     		cbnz	r0, .L22
 595:drivers/inv_mpu_dmp_motion_driver.c ****         return -1;
 596:drivers/inv_mpu_dmp_motion_driver.c **** 
 597:drivers/inv_mpu_dmp_motion_driver.c ****     regs[0] = (unsigned char)((gyro_bias_body[1] >> 24) & 0xFF);
 325              		.loc 1 597 0
 326 01d6 3316     		asrs	r3, r6, #24
 327 01d8 8DF80430 		strb	r3, [sp, #4]
 598:drivers/inv_mpu_dmp_motion_driver.c ****     regs[1] = (unsigned char)((gyro_bias_body[1] >> 16) & 0xFF);
 328              		.loc 1 598 0
 329 01dc 3314     		asrs	r3, r6, #16
 330 01de 8DF80530 		strb	r3, [sp, #5]
 599:drivers/inv_mpu_dmp_motion_driver.c ****     regs[2] = (unsigned char)((gyro_bias_body[1] >> 8) & 0xFF);
 331              		.loc 1 599 0
 332 01e2 3312     		asrs	r3, r6, #8
 333 01e4 8DF80630 		strb	r3, [sp, #6]
 600:drivers/inv_mpu_dmp_motion_driver.c ****     regs[3] = (unsigned char)(gyro_bias_body[1] & 0xFF);
 334              		.loc 1 600 0
 335 01e8 8DF80760 		strb	r6, [sp, #7]
 601:drivers/inv_mpu_dmp_motion_driver.c ****     if (mpu_write_mem(D_EXT_GYRO_BIAS_Y, 4, regs))
 336              		.loc 1 601 0
 337 01ec 01AA     		add	r2, sp, #4
 338 01ee 0421     		movs	r1, #4
 339 01f0 4FF47570 		mov	r0, #980
 340 01f4 FFF7FEFF 		bl	mpu_write_mem
 341              	.LVL26:
 342 01f8 A8B9     		cbnz	r0, .L23
 602:drivers/inv_mpu_dmp_motion_driver.c ****         return -1;
 603:drivers/inv_mpu_dmp_motion_driver.c **** 
 604:drivers/inv_mpu_dmp_motion_driver.c ****     regs[0] = (unsigned char)((gyro_bias_body[2] >> 24) & 0xFF);
 343              		.loc 1 604 0
 344 01fa 3B16     		asrs	r3, r7, #24
 345 01fc 8DF80430 		strb	r3, [sp, #4]
 605:drivers/inv_mpu_dmp_motion_driver.c ****     regs[1] = (unsigned char)((gyro_bias_body[2] >> 16) & 0xFF);
 346              		.loc 1 605 0
 347 0200 3B14     		asrs	r3, r7, #16
 348 0202 8DF80530 		strb	r3, [sp, #5]
 606:drivers/inv_mpu_dmp_motion_driver.c ****     regs[2] = (unsigned char)((gyro_bias_body[2] >> 8) & 0xFF);
 349              		.loc 1 606 0
 350 0206 3D12     		asrs	r5, r7, #8
 351 0208 8DF80650 		strb	r5, [sp, #6]
 607:drivers/inv_mpu_dmp_motion_driver.c ****     regs[3] = (unsigned char)(gyro_bias_body[2] & 0xFF);
 352              		.loc 1 607 0
 353 020c 8DF80770 		strb	r7, [sp, #7]
 608:drivers/inv_mpu_dmp_motion_driver.c ****     return mpu_write_mem(D_EXT_GYRO_BIAS_Z, 4, regs);
 354              		.loc 1 608 0
 355 0210 01AA     		add	r2, sp, #4
 356 0212 0421     		movs	r1, #4
 357 0214 4FF47670 		mov	r0, #984
ARM GAS  /tmp/ccp3ezWO.s 			page 18


 358 0218 FFF7FEFF 		bl	mpu_write_mem
 359              	.LVL27:
 360              	.L17:
 609:drivers/inv_mpu_dmp_motion_driver.c **** }
 361              		.loc 1 609 0
 362 021c 03B0     		add	sp, sp, #12
 363              		.cfi_remember_state
 364              		.cfi_def_cfa_offset 20
 365              		@ sp needed
 366 021e F0BD     		pop	{r4, r5, r6, r7, pc}
 367              	.LVL28:
 368              	.L22:
 369              		.cfi_restore_state
 595:drivers/inv_mpu_dmp_motion_driver.c **** 
 370              		.loc 1 595 0
 371 0220 4FF0FF30 		mov	r0, #-1
 372 0224 FAE7     		b	.L17
 373              	.L23:
 602:drivers/inv_mpu_dmp_motion_driver.c **** 
 374              		.loc 1 602 0
 375 0226 4FF0FF30 		mov	r0, #-1
 376 022a F7E7     		b	.L17
 377              	.L26:
 378              		.align	2
 379              	.L25:
 380 022c 00000000 		.word	.LANCHOR1
 381 0230 09E3CA02 		.word	46850825
 382              		.cfi_endproc
 383              	.LFE66:
 384              		.size	dmp_set_gyro_bias, .-dmp_set_gyro_bias
 385              		.align	1
 386              		.global	dmp_set_accel_bias
 387              		.syntax unified
 388              		.thumb
 389              		.thumb_func
 390              		.fpu softvfp
 391              		.type	dmp_set_accel_bias, %function
 392              	dmp_set_accel_bias:
 393              	.LFB67:
 610:drivers/inv_mpu_dmp_motion_driver.c **** 
 611:drivers/inv_mpu_dmp_motion_driver.c **** /**
 612:drivers/inv_mpu_dmp_motion_driver.c ****  *  @brief      Push accel biases to the DMP.
 613:drivers/inv_mpu_dmp_motion_driver.c ****  *  These biases will be removed from the DMP 6-axis quaternion.
 614:drivers/inv_mpu_dmp_motion_driver.c ****  *  @param[in]  bias    Accel biases in q16.
 615:drivers/inv_mpu_dmp_motion_driver.c ****  *  @return     0 if successful.
 616:drivers/inv_mpu_dmp_motion_driver.c ****  */
 617:drivers/inv_mpu_dmp_motion_driver.c **** int dmp_set_accel_bias(long *bias)
 618:drivers/inv_mpu_dmp_motion_driver.c **** {
 394              		.loc 1 618 0
 395              		.cfi_startproc
 396              		@ args = 0, pretend = 0, frame = 16
 397              		@ frame_needed = 0, uses_anonymous_args = 0
 398              	.LVL29:
 399 0234 2DE97043 		push	{r4, r5, r6, r8, r9, lr}
 400              		.cfi_def_cfa_offset 24
 401              		.cfi_offset 4, -24
 402              		.cfi_offset 5, -20
ARM GAS  /tmp/ccp3ezWO.s 			page 19


 403              		.cfi_offset 6, -16
 404              		.cfi_offset 8, -12
 405              		.cfi_offset 9, -8
 406              		.cfi_offset 14, -4
 407 0238 84B0     		sub	sp, sp, #16
 408              		.cfi_def_cfa_offset 40
 409 023a 0546     		mov	r5, r0
 619:drivers/inv_mpu_dmp_motion_driver.c ****     long accel_bias_body[3];
 620:drivers/inv_mpu_dmp_motion_driver.c ****     unsigned char regs[12];
 621:drivers/inv_mpu_dmp_motion_driver.c ****     long long accel_sf;
 622:drivers/inv_mpu_dmp_motion_driver.c ****     unsigned short accel_sens;
 623:drivers/inv_mpu_dmp_motion_driver.c **** 
 624:drivers/inv_mpu_dmp_motion_driver.c ****     mpu_get_accel_sens(&accel_sens);
 410              		.loc 1 624 0
 411 023c 0DF10200 		add	r0, sp, #2
 412              	.LVL30:
 413 0240 FFF7FEFF 		bl	mpu_get_accel_sens
 414              	.LVL31:
 625:drivers/inv_mpu_dmp_motion_driver.c ****     accel_sf = (long long)accel_sens << 15;
 415              		.loc 1 625 0
 416 0244 BDF80220 		ldrh	r2, [sp, #2]
 417 0248 560C     		lsrs	r6, r2, #17
 418 024a D303     		lsls	r3, r2, #15
 419              	.LVL32:
 626:drivers/inv_mpu_dmp_motion_driver.c ****     //__no_operation();
 627:drivers/inv_mpu_dmp_motion_driver.c **** 
 628:drivers/inv_mpu_dmp_motion_driver.c ****     accel_bias_body[0] = bias[dmp.orient & 3];
 420              		.loc 1 628 0
 421 024c 334A     		ldr	r2, .L32
 422 024e 1189     		ldrh	r1, [r2, #8]
 423 0250 01F00302 		and	r2, r1, #3
 424 0254 55F82240 		ldr	r4, [r5, r2, lsl #2]
 425              	.LVL33:
 629:drivers/inv_mpu_dmp_motion_driver.c ****     if (dmp.orient & 4)
 426              		.loc 1 629 0
 427 0258 11F0040F 		tst	r1, #4
 630:drivers/inv_mpu_dmp_motion_driver.c ****         accel_bias_body[0] *= -1;
 428              		.loc 1 630 0
 429 025c 18BF     		it	ne
 430 025e 6442     		rsbne	r4, r4, #0
 431              	.LVL34:
 631:drivers/inv_mpu_dmp_motion_driver.c ****     accel_bias_body[1] = bias[(dmp.orient >> 3) & 3];
 432              		.loc 1 631 0
 433 0260 C1F3C102 		ubfx	r2, r1, #3, #2
 434 0264 55F82200 		ldr	r0, [r5, r2, lsl #2]
 435              	.LVL35:
 632:drivers/inv_mpu_dmp_motion_driver.c ****     if (dmp.orient & 0x20)
 436              		.loc 1 632 0
 437 0268 11F0200F 		tst	r1, #32
 633:drivers/inv_mpu_dmp_motion_driver.c ****         accel_bias_body[1] *= -1;
 438              		.loc 1 633 0
 439 026c 18BF     		it	ne
 440 026e 4042     		rsbne	r0, r0, #0
 441              	.LVL36:
 634:drivers/inv_mpu_dmp_motion_driver.c ****     accel_bias_body[2] = bias[(dmp.orient >> 6) & 3];
 442              		.loc 1 634 0
 443 0270 C1F38112 		ubfx	r2, r1, #6, #2
ARM GAS  /tmp/ccp3ezWO.s 			page 20


 444 0274 55F82220 		ldr	r2, [r5, r2, lsl #2]
 445              	.LVL37:
 635:drivers/inv_mpu_dmp_motion_driver.c ****     if (dmp.orient & 0x100)
 446              		.loc 1 635 0
 447 0278 11F4807F 		tst	r1, #256
 636:drivers/inv_mpu_dmp_motion_driver.c ****         accel_bias_body[2] *= -1;
 448              		.loc 1 636 0
 449 027c 18BF     		it	ne
 450 027e 5242     		rsbne	r2, r2, #0
 451              	.LVL38:
 637:drivers/inv_mpu_dmp_motion_driver.c **** 
 638:drivers/inv_mpu_dmp_motion_driver.c **** #ifdef EMPL_NO_64BIT
 639:drivers/inv_mpu_dmp_motion_driver.c ****     accel_bias_body[0] = (long)(((float)accel_bias_body[0] * accel_sf) / 1073741824.f);
 640:drivers/inv_mpu_dmp_motion_driver.c ****     accel_bias_body[1] = (long)(((float)accel_bias_body[1] * accel_sf) / 1073741824.f);
 641:drivers/inv_mpu_dmp_motion_driver.c ****     accel_bias_body[2] = (long)(((float)accel_bias_body[2] * accel_sf) / 1073741824.f);
 642:drivers/inv_mpu_dmp_motion_driver.c **** #else
 643:drivers/inv_mpu_dmp_motion_driver.c ****     accel_bias_body[0] = (long)(((long long)accel_bias_body[0] * accel_sf) >> 30);
 452              		.loc 1 643 0
 453 0280 4FEAE479 		asr	r9, r4, #31
 454 0284 04FB06F1 		mul	r1, r4, r6
 455 0288 03FB0911 		mla	r1, r3, r9, r1
 456 028c A4FB0345 		umull	r4, r5, r4, r3
 457              	.LVL39:
 458 0290 0D44     		add	r5, r5, r1
 459              	.LVL40:
 460 0292 A40F     		lsrs	r4, r4, #30
 461 0294 44EA8504 		orr	r4, r4, r5, lsl #2
 462              	.LVL41:
 644:drivers/inv_mpu_dmp_motion_driver.c ****     accel_bias_body[1] = (long)(((long long)accel_bias_body[1] * accel_sf) >> 30);
 463              		.loc 1 644 0
 464 0298 4FEAE079 		asr	r9, r0, #31
 465 029c 00FB06F5 		mul	r5, r0, r6
 466 02a0 03FB0955 		mla	r5, r3, r9, r5
 467 02a4 A0FB0301 		umull	r0, r1, r0, r3
 468              	.LVL42:
 469 02a8 2944     		add	r1, r1, r5
 470 02aa 800F     		lsrs	r0, r0, #30
 471 02ac 40EA8100 		orr	r0, r0, r1, lsl #2
 472              	.LVL43:
 645:drivers/inv_mpu_dmp_motion_driver.c ****     accel_bias_body[2] = (long)(((long long)accel_bias_body[2] * accel_sf) >> 30);
 473              		.loc 1 645 0
 474 02b0 4FEAE279 		asr	r9, r2, #31
 475 02b4 02FB06F6 		mul	r6, r2, r6
 476              	.LVL44:
 477 02b8 03FB0966 		mla	r6, r3, r9, r6
 478 02bc A2FB0323 		umull	r2, r3, r2, r3
 479              	.LVL45:
 480 02c0 3344     		add	r3, r3, r6
 481              	.LVL46:
 482 02c2 920F     		lsrs	r2, r2, #30
 483 02c4 42EA8302 		orr	r2, r2, r3, lsl #2
 484              	.LVL47:
 646:drivers/inv_mpu_dmp_motion_driver.c **** #endif
 647:drivers/inv_mpu_dmp_motion_driver.c **** 
 648:drivers/inv_mpu_dmp_motion_driver.c ****     regs[0] = (unsigned char)((accel_bias_body[0] >> 24) & 0xFF);
 485              		.loc 1 648 0
 486 02c8 2316     		asrs	r3, r4, #24
ARM GAS  /tmp/ccp3ezWO.s 			page 21


 487 02ca 8DF80430 		strb	r3, [sp, #4]
 649:drivers/inv_mpu_dmp_motion_driver.c ****     regs[1] = (unsigned char)((accel_bias_body[0] >> 16) & 0xFF);
 488              		.loc 1 649 0
 489 02ce 2314     		asrs	r3, r4, #16
 490 02d0 8DF80530 		strb	r3, [sp, #5]
 650:drivers/inv_mpu_dmp_motion_driver.c ****     regs[2] = (unsigned char)((accel_bias_body[0] >> 8) & 0xFF);
 491              		.loc 1 650 0
 492 02d4 2312     		asrs	r3, r4, #8
 493 02d6 8DF80630 		strb	r3, [sp, #6]
 651:drivers/inv_mpu_dmp_motion_driver.c ****     regs[3] = (unsigned char)(accel_bias_body[0] & 0xFF);
 494              		.loc 1 651 0
 495 02da 8DF80740 		strb	r4, [sp, #7]
 652:drivers/inv_mpu_dmp_motion_driver.c ****     regs[4] = (unsigned char)((accel_bias_body[1] >> 24) & 0xFF);
 496              		.loc 1 652 0
 497 02de 0316     		asrs	r3, r0, #24
 498 02e0 8DF80830 		strb	r3, [sp, #8]
 653:drivers/inv_mpu_dmp_motion_driver.c ****     regs[5] = (unsigned char)((accel_bias_body[1] >> 16) & 0xFF);
 499              		.loc 1 653 0
 500 02e4 0314     		asrs	r3, r0, #16
 501 02e6 8DF80930 		strb	r3, [sp, #9]
 654:drivers/inv_mpu_dmp_motion_driver.c ****     regs[6] = (unsigned char)((accel_bias_body[1] >> 8) & 0xFF);
 502              		.loc 1 654 0
 503 02ea 0312     		asrs	r3, r0, #8
 504 02ec 8DF80A30 		strb	r3, [sp, #10]
 655:drivers/inv_mpu_dmp_motion_driver.c ****     regs[7] = (unsigned char)(accel_bias_body[1] & 0xFF);
 505              		.loc 1 655 0
 506 02f0 8DF80B00 		strb	r0, [sp, #11]
 656:drivers/inv_mpu_dmp_motion_driver.c ****     regs[8] = (unsigned char)((accel_bias_body[2] >> 24) & 0xFF);
 507              		.loc 1 656 0
 508 02f4 1316     		asrs	r3, r2, #24
 509 02f6 8DF80C30 		strb	r3, [sp, #12]
 657:drivers/inv_mpu_dmp_motion_driver.c ****     regs[9] = (unsigned char)((accel_bias_body[2] >> 16) & 0xFF);
 510              		.loc 1 657 0
 511 02fa 1314     		asrs	r3, r2, #16
 512 02fc 8DF80D30 		strb	r3, [sp, #13]
 658:drivers/inv_mpu_dmp_motion_driver.c ****     regs[10] = (unsigned char)((accel_bias_body[2] >> 8) & 0xFF);
 513              		.loc 1 658 0
 514 0300 1312     		asrs	r3, r2, #8
 515 0302 8DF80E30 		strb	r3, [sp, #14]
 659:drivers/inv_mpu_dmp_motion_driver.c ****     regs[11] = (unsigned char)(accel_bias_body[2] & 0xFF);
 516              		.loc 1 659 0
 517 0306 8DF80F20 		strb	r2, [sp, #15]
 660:drivers/inv_mpu_dmp_motion_driver.c ****     return mpu_write_mem(D_ACCEL_BIAS, 12, regs);
 518              		.loc 1 660 0
 519 030a 01AA     		add	r2, sp, #4
 520              	.LVL48:
 521 030c 0C21     		movs	r1, #12
 522 030e 4FF42570 		mov	r0, #660
 523              	.LVL49:
 524 0312 FFF7FEFF 		bl	mpu_write_mem
 525              	.LVL50:
 661:drivers/inv_mpu_dmp_motion_driver.c **** }
 526              		.loc 1 661 0
 527 0316 04B0     		add	sp, sp, #16
 528              		.cfi_def_cfa_offset 24
 529              		@ sp needed
 530 0318 BDE87083 		pop	{r4, r5, r6, r8, r9, pc}
ARM GAS  /tmp/ccp3ezWO.s 			page 22


 531              	.LVL51:
 532              	.L33:
 533              		.align	2
 534              	.L32:
 535 031c 00000000 		.word	.LANCHOR1
 536              		.cfi_endproc
 537              	.LFE67:
 538              		.size	dmp_set_accel_bias, .-dmp_set_accel_bias
 539              		.align	1
 540              		.global	dmp_set_fifo_rate
 541              		.syntax unified
 542              		.thumb
 543              		.thumb_func
 544              		.fpu softvfp
 545              		.type	dmp_set_fifo_rate, %function
 546              	dmp_set_fifo_rate:
 547              	.LFB68:
 662:drivers/inv_mpu_dmp_motion_driver.c **** 
 663:drivers/inv_mpu_dmp_motion_driver.c **** /**
 664:drivers/inv_mpu_dmp_motion_driver.c ****  *  @brief      Set DMP output rate.
 665:drivers/inv_mpu_dmp_motion_driver.c ****  *  Only used when DMP is on.
 666:drivers/inv_mpu_dmp_motion_driver.c ****  *  @param[in]  rate    Desired fifo rate (Hz).
 667:drivers/inv_mpu_dmp_motion_driver.c ****  *  @return     0 if successful.
 668:drivers/inv_mpu_dmp_motion_driver.c ****  */
 669:drivers/inv_mpu_dmp_motion_driver.c **** int dmp_set_fifo_rate(unsigned short rate)
 670:drivers/inv_mpu_dmp_motion_driver.c **** {
 548              		.loc 1 670 0
 549              		.cfi_startproc
 550              		@ args = 0, pretend = 0, frame = 24
 551              		@ frame_needed = 0, uses_anonymous_args = 0
 552              	.LVL52:
 553 0320 10B5     		push	{r4, lr}
 554              		.cfi_def_cfa_offset 8
 555              		.cfi_offset 4, -8
 556              		.cfi_offset 14, -4
 557 0322 86B0     		sub	sp, sp, #24
 558              		.cfi_def_cfa_offset 32
 559 0324 0446     		mov	r4, r0
 671:drivers/inv_mpu_dmp_motion_driver.c ****     const unsigned char regs_end[12] = {DINAFE, DINAF2, DINAAB,
 560              		.loc 1 671 0
 561 0326 03AB     		add	r3, sp, #12
 562 0328 164A     		ldr	r2, .L40
 563 032a 1068     		ldr	r0, [r2]	@ unaligned
 564              	.LVL53:
 565 032c 5168     		ldr	r1, [r2, #4]	@ unaligned
 566 032e 9268     		ldr	r2, [r2, #8]	@ unaligned
 567 0330 07C3     		stmia	r3!, {r0, r1, r2}
 672:drivers/inv_mpu_dmp_motion_driver.c ****         0xc4, DINAAA, DINAF1, DINADF, DINADF, 0xBB, 0xAF, DINADF, DINADF};
 673:drivers/inv_mpu_dmp_motion_driver.c ****     unsigned short div;
 674:drivers/inv_mpu_dmp_motion_driver.c ****     unsigned char tmp[8];
 675:drivers/inv_mpu_dmp_motion_driver.c **** 
 676:drivers/inv_mpu_dmp_motion_driver.c ****     if (rate > DMP_SAMPLE_RATE)
 568              		.loc 1 676 0
 569 0332 C82C     		cmp	r4, #200
 570 0334 1DD8     		bhi	.L36
 677:drivers/inv_mpu_dmp_motion_driver.c ****         return -1;
 678:drivers/inv_mpu_dmp_motion_driver.c ****     div = DMP_SAMPLE_RATE / rate - 1;
ARM GAS  /tmp/ccp3ezWO.s 			page 23


 571              		.loc 1 678 0
 572 0336 C823     		movs	r3, #200
 573 0338 93FBF4F3 		sdiv	r3, r3, r4
 574 033c 013B     		subs	r3, r3, #1
 575 033e 9BB2     		uxth	r3, r3
 576              	.LVL54:
 679:drivers/inv_mpu_dmp_motion_driver.c ****     tmp[0] = (unsigned char)((div >> 8) & 0xFF);
 577              		.loc 1 679 0
 578 0340 1A0A     		lsrs	r2, r3, #8
 579 0342 8DF80420 		strb	r2, [sp, #4]
 680:drivers/inv_mpu_dmp_motion_driver.c ****     tmp[1] = (unsigned char)(div & 0xFF);
 580              		.loc 1 680 0
 581 0346 8DF80530 		strb	r3, [sp, #5]
 681:drivers/inv_mpu_dmp_motion_driver.c ****     if (mpu_write_mem(D_0_22, 2, tmp))
 582              		.loc 1 681 0
 583 034a 01AA     		add	r2, sp, #4
 584 034c 0221     		movs	r1, #2
 585 034e 40F21620 		movw	r0, #534
 586 0352 FFF7FEFF 		bl	mpu_write_mem
 587              	.LVL55:
 588 0356 78B9     		cbnz	r0, .L37
 682:drivers/inv_mpu_dmp_motion_driver.c ****         return -1;
 683:drivers/inv_mpu_dmp_motion_driver.c ****     if (mpu_write_mem(CFG_6, 12, (unsigned char*)regs_end))
 589              		.loc 1 683 0
 590 0358 03AA     		add	r2, sp, #12
 591 035a 0C21     		movs	r1, #12
 592 035c 40F6C120 		movw	r0, #2753
 593 0360 FFF7FEFF 		bl	mpu_write_mem
 594              	.LVL56:
 595 0364 0346     		mov	r3, r0
 596 0366 50B9     		cbnz	r0, .L38
 684:drivers/inv_mpu_dmp_motion_driver.c ****         return -1;
 685:drivers/inv_mpu_dmp_motion_driver.c **** 
 686:drivers/inv_mpu_dmp_motion_driver.c ****     dmp.fifo_rate = rate;
 597              		.loc 1 686 0
 598 0368 074A     		ldr	r2, .L40+4
 599 036a 9481     		strh	r4, [r2, #12]	@ movhi
 600              	.LVL57:
 601              	.L34:
 687:drivers/inv_mpu_dmp_motion_driver.c ****     return 0;
 688:drivers/inv_mpu_dmp_motion_driver.c **** }
 602              		.loc 1 688 0
 603 036c 1846     		mov	r0, r3
 604 036e 06B0     		add	sp, sp, #24
 605              		.cfi_remember_state
 606              		.cfi_def_cfa_offset 8
 607              		@ sp needed
 608 0370 10BD     		pop	{r4, pc}
 609              	.L36:
 610              		.cfi_restore_state
 677:drivers/inv_mpu_dmp_motion_driver.c ****     div = DMP_SAMPLE_RATE / rate - 1;
 611              		.loc 1 677 0
 612 0372 4FF0FF33 		mov	r3, #-1
 613 0376 F9E7     		b	.L34
 614              	.LVL58:
 615              	.L37:
 682:drivers/inv_mpu_dmp_motion_driver.c ****     if (mpu_write_mem(CFG_6, 12, (unsigned char*)regs_end))
ARM GAS  /tmp/ccp3ezWO.s 			page 24


 616              		.loc 1 682 0
 617 0378 4FF0FF33 		mov	r3, #-1
 618 037c F6E7     		b	.L34
 619              	.L38:
 684:drivers/inv_mpu_dmp_motion_driver.c **** 
 620              		.loc 1 684 0
 621 037e 4FF0FF33 		mov	r3, #-1
 622 0382 F3E7     		b	.L34
 623              	.L41:
 624              		.align	2
 625              	.L40:
 626 0384 F80B0000 		.word	.LANCHOR0+3064
 627 0388 00000000 		.word	.LANCHOR1
 628              		.cfi_endproc
 629              	.LFE68:
 630              		.size	dmp_set_fifo_rate, .-dmp_set_fifo_rate
 631              		.align	1
 632              		.global	dmp_get_fifo_rate
 633              		.syntax unified
 634              		.thumb
 635              		.thumb_func
 636              		.fpu softvfp
 637              		.type	dmp_get_fifo_rate, %function
 638              	dmp_get_fifo_rate:
 639              	.LFB69:
 689:drivers/inv_mpu_dmp_motion_driver.c **** 
 690:drivers/inv_mpu_dmp_motion_driver.c **** /**
 691:drivers/inv_mpu_dmp_motion_driver.c ****  *  @brief      Get DMP output rate.
 692:drivers/inv_mpu_dmp_motion_driver.c ****  *  @param[out] rate    Current fifo rate (Hz).
 693:drivers/inv_mpu_dmp_motion_driver.c ****  *  @return     0 if successful.
 694:drivers/inv_mpu_dmp_motion_driver.c ****  */
 695:drivers/inv_mpu_dmp_motion_driver.c **** int dmp_get_fifo_rate(unsigned short *rate)
 696:drivers/inv_mpu_dmp_motion_driver.c **** {
 640              		.loc 1 696 0
 641              		.cfi_startproc
 642              		@ args = 0, pretend = 0, frame = 0
 643              		@ frame_needed = 0, uses_anonymous_args = 0
 644              		@ link register save eliminated.
 645              	.LVL59:
 697:drivers/inv_mpu_dmp_motion_driver.c ****     rate[0] = dmp.fifo_rate;
 646              		.loc 1 697 0
 647 038c 024B     		ldr	r3, .L43
 648 038e 9B89     		ldrh	r3, [r3, #12]
 649 0390 0380     		strh	r3, [r0]	@ movhi
 698:drivers/inv_mpu_dmp_motion_driver.c ****     return 0;
 699:drivers/inv_mpu_dmp_motion_driver.c **** }
 650              		.loc 1 699 0
 651 0392 0020     		movs	r0, #0
 652              	.LVL60:
 653 0394 7047     		bx	lr
 654              	.L44:
 655 0396 00BF     		.align	2
 656              	.L43:
 657 0398 00000000 		.word	.LANCHOR1
 658              		.cfi_endproc
 659              	.LFE69:
 660              		.size	dmp_get_fifo_rate, .-dmp_get_fifo_rate
ARM GAS  /tmp/ccp3ezWO.s 			page 25


 661              		.global	__aeabi_ui2f
 662              		.global	__aeabi_fdiv
 663              		.global	__aeabi_fmul
 664              		.global	__aeabi_f2uiz
 665              		.align	1
 666              		.global	dmp_set_tap_thresh
 667              		.syntax unified
 668              		.thumb
 669              		.thumb_func
 670              		.fpu softvfp
 671              		.type	dmp_set_tap_thresh, %function
 672              	dmp_set_tap_thresh:
 673              	.LFB70:
 700:drivers/inv_mpu_dmp_motion_driver.c **** 
 701:drivers/inv_mpu_dmp_motion_driver.c **** /**
 702:drivers/inv_mpu_dmp_motion_driver.c ****  *  @brief      Set tap threshold for a specific axis.
 703:drivers/inv_mpu_dmp_motion_driver.c ****  *  @param[in]  axis    1, 2, and 4 for XYZ accel, respectively.
 704:drivers/inv_mpu_dmp_motion_driver.c ****  *  @param[in]  thresh  Tap threshold, in mg/ms.
 705:drivers/inv_mpu_dmp_motion_driver.c ****  *  @return     0 if successful.
 706:drivers/inv_mpu_dmp_motion_driver.c ****  */
 707:drivers/inv_mpu_dmp_motion_driver.c **** int dmp_set_tap_thresh(unsigned char axis, unsigned short thresh)
 708:drivers/inv_mpu_dmp_motion_driver.c **** {
 674              		.loc 1 708 0
 675              		.cfi_startproc
 676              		@ args = 0, pretend = 0, frame = 8
 677              		@ frame_needed = 0, uses_anonymous_args = 0
 678              	.LVL61:
 709:drivers/inv_mpu_dmp_motion_driver.c ****     unsigned char tmp[4], accel_fsr;
 710:drivers/inv_mpu_dmp_motion_driver.c ****     float scaled_thresh;
 711:drivers/inv_mpu_dmp_motion_driver.c ****     unsigned short dmp_thresh, dmp_thresh_2;
 712:drivers/inv_mpu_dmp_motion_driver.c ****     if (!(axis & TAP_XYZ) || thresh > 1600)
 679              		.loc 1 712 0
 680 039c 10F0070F 		tst	r0, #7
 681 03a0 00F0B180 		beq	.L55
 682              		.loc 1 712 0 is_stmt 0 discriminator 1
 683 03a4 B1F5C86F 		cmp	r1, #1600
 684 03a8 00F2B080 		bhi	.L56
 708:drivers/inv_mpu_dmp_motion_driver.c ****     unsigned char tmp[4], accel_fsr;
 685              		.loc 1 708 0 is_stmt 1
 686 03ac 70B5     		push	{r4, r5, r6, lr}
 687              		.cfi_def_cfa_offset 16
 688              		.cfi_offset 4, -16
 689              		.cfi_offset 5, -12
 690              		.cfi_offset 6, -8
 691              		.cfi_offset 14, -4
 692 03ae 82B0     		sub	sp, sp, #8
 693              		.cfi_def_cfa_offset 24
 694 03b0 0446     		mov	r4, r0
 713:drivers/inv_mpu_dmp_motion_driver.c ****         return -1;
 714:drivers/inv_mpu_dmp_motion_driver.c **** 
 715:drivers/inv_mpu_dmp_motion_driver.c ****     scaled_thresh = (float)thresh / DMP_SAMPLE_RATE;
 695              		.loc 1 715 0
 696 03b2 0846     		mov	r0, r1
 697              	.LVL62:
 698 03b4 FFF7FEFF 		bl	__aeabi_ui2f
 699              	.LVL63:
 700 03b8 5C49     		ldr	r1, .L71
ARM GAS  /tmp/ccp3ezWO.s 			page 26


 701 03ba FFF7FEFF 		bl	__aeabi_fdiv
 702              	.LVL64:
 703 03be 0546     		mov	r5, r0
 704              	.LVL65:
 716:drivers/inv_mpu_dmp_motion_driver.c **** 
 717:drivers/inv_mpu_dmp_motion_driver.c ****     mpu_get_accel_fsr(&accel_fsr);
 705              		.loc 1 717 0
 706 03c0 0DF10300 		add	r0, sp, #3
 707              	.LVL66:
 708 03c4 FFF7FEFF 		bl	mpu_get_accel_fsr
 709              	.LVL67:
 718:drivers/inv_mpu_dmp_motion_driver.c ****     switch (accel_fsr) {
 710              		.loc 1 718 0
 711 03c8 9DF80330 		ldrb	r3, [sp, #3]	@ zero_extendqisi2
 712 03cc 023B     		subs	r3, r3, #2
 713 03ce 0E2B     		cmp	r3, #14
 714 03d0 00F29F80 		bhi	.L57
 715 03d4 DFE803F0 		tbb	[pc, r3]
 716              	.L48:
 717 03d8 08       		.byte	(.L47-.L48)/2
 718 03d9 9D       		.byte	(.L57-.L48)/2
 719 03da 2D       		.byte	(.L49-.L48)/2
 720 03db 9D       		.byte	(.L57-.L48)/2
 721 03dc 9D       		.byte	(.L57-.L48)/2
 722 03dd 9D       		.byte	(.L57-.L48)/2
 723 03de 3D       		.byte	(.L50-.L48)/2
 724 03df 9D       		.byte	(.L57-.L48)/2
 725 03e0 9D       		.byte	(.L57-.L48)/2
 726 03e1 9D       		.byte	(.L57-.L48)/2
 727 03e2 9D       		.byte	(.L57-.L48)/2
 728 03e3 9D       		.byte	(.L57-.L48)/2
 729 03e4 9D       		.byte	(.L57-.L48)/2
 730 03e5 9D       		.byte	(.L57-.L48)/2
 731 03e6 4D       		.byte	(.L51-.L48)/2
 732 03e7 00       		.p2align 1
 733              	.L47:
 719:drivers/inv_mpu_dmp_motion_driver.c ****     case 2:
 720:drivers/inv_mpu_dmp_motion_driver.c ****         dmp_thresh = (unsigned short)(scaled_thresh * 16384);
 734              		.loc 1 720 0
 735 03e8 4FF08D41 		mov	r1, #1182793728
 736 03ec 2846     		mov	r0, r5
 737 03ee FFF7FEFF 		bl	__aeabi_fmul
 738              	.LVL68:
 739 03f2 FFF7FEFF 		bl	__aeabi_f2uiz
 740              	.LVL69:
 741 03f6 86B2     		uxth	r6, r0
 742              	.LVL70:
 721:drivers/inv_mpu_dmp_motion_driver.c ****         /* dmp_thresh * 0.75 */
 722:drivers/inv_mpu_dmp_motion_driver.c ****         dmp_thresh_2 = (unsigned short)(scaled_thresh * 12288);
 743              		.loc 1 722 0
 744 03f8 4D49     		ldr	r1, .L71+4
 745 03fa 2846     		mov	r0, r5
 746 03fc FFF7FEFF 		bl	__aeabi_fmul
 747              	.LVL71:
 748 0400 FFF7FEFF 		bl	__aeabi_f2uiz
 749              	.LVL72:
 750 0404 80B2     		uxth	r0, r0
ARM GAS  /tmp/ccp3ezWO.s 			page 27


 751              	.LVL73:
 752              	.L52:
 723:drivers/inv_mpu_dmp_motion_driver.c ****         break;
 724:drivers/inv_mpu_dmp_motion_driver.c ****     case 4:
 725:drivers/inv_mpu_dmp_motion_driver.c ****         dmp_thresh = (unsigned short)(scaled_thresh * 8192);
 726:drivers/inv_mpu_dmp_motion_driver.c ****         /* dmp_thresh * 0.75 */
 727:drivers/inv_mpu_dmp_motion_driver.c ****         dmp_thresh_2 = (unsigned short)(scaled_thresh * 6144);
 728:drivers/inv_mpu_dmp_motion_driver.c ****         break;
 729:drivers/inv_mpu_dmp_motion_driver.c ****     case 8:
 730:drivers/inv_mpu_dmp_motion_driver.c ****         dmp_thresh = (unsigned short)(scaled_thresh * 4096);
 731:drivers/inv_mpu_dmp_motion_driver.c ****         /* dmp_thresh * 0.75 */
 732:drivers/inv_mpu_dmp_motion_driver.c ****         dmp_thresh_2 = (unsigned short)(scaled_thresh * 3072);
 733:drivers/inv_mpu_dmp_motion_driver.c ****         break;
 734:drivers/inv_mpu_dmp_motion_driver.c ****     case 16:
 735:drivers/inv_mpu_dmp_motion_driver.c ****         dmp_thresh = (unsigned short)(scaled_thresh * 2048);
 736:drivers/inv_mpu_dmp_motion_driver.c ****         /* dmp_thresh * 0.75 */
 737:drivers/inv_mpu_dmp_motion_driver.c ****         dmp_thresh_2 = (unsigned short)(scaled_thresh * 1536);
 738:drivers/inv_mpu_dmp_motion_driver.c ****         break;
 739:drivers/inv_mpu_dmp_motion_driver.c ****     default:
 740:drivers/inv_mpu_dmp_motion_driver.c ****         return -1;
 741:drivers/inv_mpu_dmp_motion_driver.c ****     }
 742:drivers/inv_mpu_dmp_motion_driver.c ****     tmp[0] = (unsigned char)(dmp_thresh >> 8);
 753              		.loc 1 742 0
 754 0406 330A     		lsrs	r3, r6, #8
 755 0408 8DF80430 		strb	r3, [sp, #4]
 743:drivers/inv_mpu_dmp_motion_driver.c ****     tmp[1] = (unsigned char)(dmp_thresh & 0xFF);
 756              		.loc 1 743 0
 757 040c 8DF80560 		strb	r6, [sp, #5]
 744:drivers/inv_mpu_dmp_motion_driver.c ****     tmp[2] = (unsigned char)(dmp_thresh_2 >> 8);
 758              		.loc 1 744 0
 759 0410 030A     		lsrs	r3, r0, #8
 760 0412 8DF80630 		strb	r3, [sp, #6]
 745:drivers/inv_mpu_dmp_motion_driver.c ****     tmp[3] = (unsigned char)(dmp_thresh_2 & 0xFF);
 761              		.loc 1 745 0
 762 0416 8DF80700 		strb	r0, [sp, #7]
 746:drivers/inv_mpu_dmp_motion_driver.c **** 
 747:drivers/inv_mpu_dmp_motion_driver.c ****     if (axis & TAP_X) {
 763              		.loc 1 747 0
 764 041a 14F0010F 		tst	r4, #1
 765 041e 38D1     		bne	.L68
 766              	.LVL74:
 767              	.L53:
 748:drivers/inv_mpu_dmp_motion_driver.c ****         if (mpu_write_mem(DMP_TAP_THX, 2, tmp))
 749:drivers/inv_mpu_dmp_motion_driver.c ****             return -1;
 750:drivers/inv_mpu_dmp_motion_driver.c ****         if (mpu_write_mem(D_1_36, 2, tmp+2))
 751:drivers/inv_mpu_dmp_motion_driver.c ****             return -1;
 752:drivers/inv_mpu_dmp_motion_driver.c ****     }
 753:drivers/inv_mpu_dmp_motion_driver.c ****     if (axis & TAP_Y) {
 768              		.loc 1 753 0
 769 0420 14F0020F 		tst	r4, #2
 770 0424 49D1     		bne	.L69
 771              	.L54:
 754:drivers/inv_mpu_dmp_motion_driver.c ****         if (mpu_write_mem(DMP_TAP_THY, 2, tmp))
 755:drivers/inv_mpu_dmp_motion_driver.c ****             return -1;
 756:drivers/inv_mpu_dmp_motion_driver.c ****         if (mpu_write_mem(D_1_40, 2, tmp+2))
 757:drivers/inv_mpu_dmp_motion_driver.c ****             return -1;
 758:drivers/inv_mpu_dmp_motion_driver.c ****     }
ARM GAS  /tmp/ccp3ezWO.s 			page 28


 759:drivers/inv_mpu_dmp_motion_driver.c ****     if (axis & TAP_Z) {
 772              		.loc 1 759 0
 773 0426 14F0040F 		tst	r4, #4
 774 042a 59D1     		bne	.L70
 760:drivers/inv_mpu_dmp_motion_driver.c ****         if (mpu_write_mem(DMP_TAP_THZ, 2, tmp))
 761:drivers/inv_mpu_dmp_motion_driver.c ****             return -1;
 762:drivers/inv_mpu_dmp_motion_driver.c ****         if (mpu_write_mem(D_1_44, 2, tmp+2))
 763:drivers/inv_mpu_dmp_motion_driver.c ****             return -1;
 764:drivers/inv_mpu_dmp_motion_driver.c ****     }
 765:drivers/inv_mpu_dmp_motion_driver.c ****     return 0;
 775              		.loc 1 765 0
 776 042c 0020     		movs	r0, #0
 777              	.LVL75:
 778              	.L45:
 766:drivers/inv_mpu_dmp_motion_driver.c **** }
 779              		.loc 1 766 0
 780 042e 02B0     		add	sp, sp, #8
 781              		.cfi_remember_state
 782              		.cfi_def_cfa_offset 16
 783              		@ sp needed
 784 0430 70BD     		pop	{r4, r5, r6, pc}
 785              	.LVL76:
 786              	.L49:
 787              		.cfi_restore_state
 725:drivers/inv_mpu_dmp_motion_driver.c ****         /* dmp_thresh * 0.75 */
 788              		.loc 1 725 0
 789 0432 4FF08C41 		mov	r1, #1174405120
 790 0436 2846     		mov	r0, r5
 791 0438 FFF7FEFF 		bl	__aeabi_fmul
 792              	.LVL77:
 793 043c FFF7FEFF 		bl	__aeabi_f2uiz
 794              	.LVL78:
 795 0440 86B2     		uxth	r6, r0
 796              	.LVL79:
 727:drivers/inv_mpu_dmp_motion_driver.c ****         break;
 797              		.loc 1 727 0
 798 0442 3C49     		ldr	r1, .L71+8
 799 0444 2846     		mov	r0, r5
 800 0446 FFF7FEFF 		bl	__aeabi_fmul
 801              	.LVL80:
 802 044a FFF7FEFF 		bl	__aeabi_f2uiz
 803              	.LVL81:
 804 044e 80B2     		uxth	r0, r0
 805              	.LVL82:
 728:drivers/inv_mpu_dmp_motion_driver.c ****     case 8:
 806              		.loc 1 728 0
 807 0450 D9E7     		b	.L52
 808              	.LVL83:
 809              	.L50:
 730:drivers/inv_mpu_dmp_motion_driver.c ****         /* dmp_thresh * 0.75 */
 810              		.loc 1 730 0
 811 0452 4FF08B41 		mov	r1, #1166016512
 812 0456 2846     		mov	r0, r5
 813 0458 FFF7FEFF 		bl	__aeabi_fmul
 814              	.LVL84:
 815 045c FFF7FEFF 		bl	__aeabi_f2uiz
 816              	.LVL85:
ARM GAS  /tmp/ccp3ezWO.s 			page 29


 817 0460 86B2     		uxth	r6, r0
 818              	.LVL86:
 732:drivers/inv_mpu_dmp_motion_driver.c ****         break;
 819              		.loc 1 732 0
 820 0462 3549     		ldr	r1, .L71+12
 821 0464 2846     		mov	r0, r5
 822 0466 FFF7FEFF 		bl	__aeabi_fmul
 823              	.LVL87:
 824 046a FFF7FEFF 		bl	__aeabi_f2uiz
 825              	.LVL88:
 826 046e 80B2     		uxth	r0, r0
 827              	.LVL89:
 733:drivers/inv_mpu_dmp_motion_driver.c ****     case 16:
 828              		.loc 1 733 0
 829 0470 C9E7     		b	.L52
 830              	.LVL90:
 831              	.L51:
 735:drivers/inv_mpu_dmp_motion_driver.c ****         /* dmp_thresh * 0.75 */
 832              		.loc 1 735 0
 833 0472 4FF08A41 		mov	r1, #1157627904
 834 0476 2846     		mov	r0, r5
 835 0478 FFF7FEFF 		bl	__aeabi_fmul
 836              	.LVL91:
 837 047c FFF7FEFF 		bl	__aeabi_f2uiz
 838              	.LVL92:
 839 0480 86B2     		uxth	r6, r0
 840              	.LVL93:
 737:drivers/inv_mpu_dmp_motion_driver.c ****         break;
 841              		.loc 1 737 0
 842 0482 2E49     		ldr	r1, .L71+16
 843 0484 2846     		mov	r0, r5
 844 0486 FFF7FEFF 		bl	__aeabi_fmul
 845              	.LVL94:
 846 048a FFF7FEFF 		bl	__aeabi_f2uiz
 847              	.LVL95:
 848 048e 80B2     		uxth	r0, r0
 849              	.LVL96:
 738:drivers/inv_mpu_dmp_motion_driver.c ****     default:
 850              		.loc 1 738 0
 851 0490 B9E7     		b	.L52
 852              	.L68:
 748:drivers/inv_mpu_dmp_motion_driver.c ****             return -1;
 853              		.loc 1 748 0
 854 0492 01AA     		add	r2, sp, #4
 855 0494 0221     		movs	r1, #2
 856 0496 4FF4EA70 		mov	r0, #468
 857              	.LVL97:
 858 049a FFF7FEFF 		bl	mpu_write_mem
 859              	.LVL98:
 860 049e 0028     		cmp	r0, #0
 861 04a0 3AD1     		bne	.L58
 750:drivers/inv_mpu_dmp_motion_driver.c ****             return -1;
 862              		.loc 1 750 0
 863 04a2 0DF10602 		add	r2, sp, #6
 864 04a6 0221     		movs	r1, #2
 865 04a8 4FF49270 		mov	r0, #292
 866 04ac FFF7FEFF 		bl	mpu_write_mem
ARM GAS  /tmp/ccp3ezWO.s 			page 30


 867              	.LVL99:
 868 04b0 0028     		cmp	r0, #0
 869 04b2 B5D0     		beq	.L53
 751:drivers/inv_mpu_dmp_motion_driver.c ****     }
 870              		.loc 1 751 0
 871 04b4 4FF0FF30 		mov	r0, #-1
 872 04b8 B9E7     		b	.L45
 873              	.L69:
 754:drivers/inv_mpu_dmp_motion_driver.c ****             return -1;
 874              		.loc 1 754 0
 875 04ba 01AA     		add	r2, sp, #4
 876 04bc 0221     		movs	r1, #2
 877 04be 4FF4EC70 		mov	r0, #472
 878 04c2 FFF7FEFF 		bl	mpu_write_mem
 879              	.LVL100:
 880 04c6 50BB     		cbnz	r0, .L60
 756:drivers/inv_mpu_dmp_motion_driver.c ****             return -1;
 881              		.loc 1 756 0
 882 04c8 0DF10602 		add	r2, sp, #6
 883 04cc 0221     		movs	r1, #2
 884 04ce 4FF49470 		mov	r0, #296
 885 04d2 FFF7FEFF 		bl	mpu_write_mem
 886              	.LVL101:
 887 04d6 0028     		cmp	r0, #0
 888 04d8 A5D0     		beq	.L54
 757:drivers/inv_mpu_dmp_motion_driver.c ****     }
 889              		.loc 1 757 0
 890 04da 4FF0FF30 		mov	r0, #-1
 891 04de A6E7     		b	.L45
 892              	.L70:
 760:drivers/inv_mpu_dmp_motion_driver.c ****             return -1;
 893              		.loc 1 760 0
 894 04e0 01AA     		add	r2, sp, #4
 895 04e2 0221     		movs	r1, #2
 896 04e4 4FF4EE70 		mov	r0, #476
 897 04e8 FFF7FEFF 		bl	mpu_write_mem
 898              	.LVL102:
 899 04ec D0B9     		cbnz	r0, .L63
 762:drivers/inv_mpu_dmp_motion_driver.c ****             return -1;
 900              		.loc 1 762 0
 901 04ee 0DF10602 		add	r2, sp, #6
 902 04f2 0221     		movs	r1, #2
 903 04f4 4FF49670 		mov	r0, #300
 904 04f8 FFF7FEFF 		bl	mpu_write_mem
 905              	.LVL103:
 906 04fc 0030     		adds	r0, r0, #0
 907 04fe 18BF     		it	ne
 908 0500 0120     		movne	r0, #1
 909 0502 4042     		negs	r0, r0
 910 0504 93E7     		b	.L45
 911              	.LVL104:
 912              	.L55:
 913              		.cfi_def_cfa_offset 0
 914              		.cfi_restore 4
 915              		.cfi_restore 5
 916              		.cfi_restore 6
 917              		.cfi_restore 14
ARM GAS  /tmp/ccp3ezWO.s 			page 31


 713:drivers/inv_mpu_dmp_motion_driver.c **** 
 918              		.loc 1 713 0
 919 0506 4FF0FF30 		mov	r0, #-1
 920              	.LVL105:
 921 050a 7047     		bx	lr
 922              	.LVL106:
 923              	.L56:
 924 050c 4FF0FF30 		mov	r0, #-1
 925              	.LVL107:
 926 0510 7047     		bx	lr
 927              	.LVL108:
 928              	.L57:
 929              		.cfi_def_cfa_offset 24
 930              		.cfi_offset 4, -16
 931              		.cfi_offset 5, -12
 932              		.cfi_offset 6, -8
 933              		.cfi_offset 14, -4
 740:drivers/inv_mpu_dmp_motion_driver.c ****     }
 934              		.loc 1 740 0
 935 0512 4FF0FF30 		mov	r0, #-1
 936 0516 8AE7     		b	.L45
 937              	.LVL109:
 938              	.L58:
 749:drivers/inv_mpu_dmp_motion_driver.c ****         if (mpu_write_mem(D_1_36, 2, tmp+2))
 939              		.loc 1 749 0
 940 0518 4FF0FF30 		mov	r0, #-1
 941 051c 87E7     		b	.L45
 942              	.L60:
 755:drivers/inv_mpu_dmp_motion_driver.c ****         if (mpu_write_mem(D_1_40, 2, tmp+2))
 943              		.loc 1 755 0
 944 051e 4FF0FF30 		mov	r0, #-1
 945 0522 84E7     		b	.L45
 946              	.L63:
 761:drivers/inv_mpu_dmp_motion_driver.c ****         if (mpu_write_mem(D_1_44, 2, tmp+2))
 947              		.loc 1 761 0
 948 0524 4FF0FF30 		mov	r0, #-1
 949 0528 81E7     		b	.L45
 950              	.L72:
 951 052a 00BF     		.align	2
 952              	.L71:
 953 052c 00004843 		.word	1128792064
 954 0530 00004046 		.word	1178599424
 955 0534 0000C045 		.word	1170210816
 956 0538 00004045 		.word	1161822208
 957 053c 0000C044 		.word	1153433600
 958              		.cfi_endproc
 959              	.LFE70:
 960              		.size	dmp_set_tap_thresh, .-dmp_set_tap_thresh
 961              		.align	1
 962              		.global	dmp_set_tap_axes
 963              		.syntax unified
 964              		.thumb
 965              		.thumb_func
 966              		.fpu softvfp
 967              		.type	dmp_set_tap_axes, %function
 968              	dmp_set_tap_axes:
 969              	.LFB71:
ARM GAS  /tmp/ccp3ezWO.s 			page 32


 767:drivers/inv_mpu_dmp_motion_driver.c **** 
 768:drivers/inv_mpu_dmp_motion_driver.c **** /**
 769:drivers/inv_mpu_dmp_motion_driver.c ****  *  @brief      Set which axes will register a tap.
 770:drivers/inv_mpu_dmp_motion_driver.c ****  *  @param[in]  axis    1, 2, and 4 for XYZ, respectively.
 771:drivers/inv_mpu_dmp_motion_driver.c ****  *  @return     0 if successful.
 772:drivers/inv_mpu_dmp_motion_driver.c ****  */
 773:drivers/inv_mpu_dmp_motion_driver.c **** int dmp_set_tap_axes(unsigned char axis)
 774:drivers/inv_mpu_dmp_motion_driver.c **** {
 970              		.loc 1 774 0
 971              		.cfi_startproc
 972              		@ args = 0, pretend = 0, frame = 8
 973              		@ frame_needed = 0, uses_anonymous_args = 0
 974              	.LVL110:
 975 0540 00B5     		push	{lr}
 976              		.cfi_def_cfa_offset 4
 977              		.cfi_offset 14, -4
 978 0542 83B0     		sub	sp, sp, #12
 979              		.cfi_def_cfa_offset 16
 775:drivers/inv_mpu_dmp_motion_driver.c ****     unsigned char tmp = 0;
 776:drivers/inv_mpu_dmp_motion_driver.c **** 
 777:drivers/inv_mpu_dmp_motion_driver.c ****     if (axis & TAP_X)
 980              		.loc 1 777 0
 981 0544 10F0010F 		tst	r0, #1
 775:drivers/inv_mpu_dmp_motion_driver.c ****     unsigned char tmp = 0;
 982              		.loc 1 775 0
 983 0548 0CBF     		ite	eq
 984 054a 0023     		moveq	r3, #0
 778:drivers/inv_mpu_dmp_motion_driver.c ****         tmp |= 0x30;
 985              		.loc 1 778 0
 986 054c 3023     		movne	r3, #48
 987 054e 8DF80730 		strb	r3, [sp, #7]
 779:drivers/inv_mpu_dmp_motion_driver.c ****     if (axis & TAP_Y)
 988              		.loc 1 779 0
 989 0552 10F0020F 		tst	r0, #2
 990 0556 05D0     		beq	.L76
 780:drivers/inv_mpu_dmp_motion_driver.c ****         tmp |= 0x0C;
 991              		.loc 1 780 0
 992 0558 9DF80730 		ldrb	r3, [sp, #7]	@ zero_extendqisi2
 993 055c 43F00C03 		orr	r3, r3, #12
 994 0560 8DF80730 		strb	r3, [sp, #7]
 995              	.L76:
 781:drivers/inv_mpu_dmp_motion_driver.c ****     if (axis & TAP_Z)
 996              		.loc 1 781 0
 997 0564 10F0040F 		tst	r0, #4
 998 0568 05D0     		beq	.L77
 782:drivers/inv_mpu_dmp_motion_driver.c ****         tmp |= 0x03;
 999              		.loc 1 782 0
 1000 056a 9DF80730 		ldrb	r3, [sp, #7]	@ zero_extendqisi2
 1001 056e 43F00303 		orr	r3, r3, #3
 1002 0572 8DF80730 		strb	r3, [sp, #7]
 1003              	.L77:
 783:drivers/inv_mpu_dmp_motion_driver.c ****     return mpu_write_mem(D_1_72, 1, &tmp);
 1004              		.loc 1 783 0
 1005 0576 0DF10702 		add	r2, sp, #7
 1006 057a 0121     		movs	r1, #1
 1007 057c 4FF4A470 		mov	r0, #328
 1008              	.LVL111:
ARM GAS  /tmp/ccp3ezWO.s 			page 33


 1009 0580 FFF7FEFF 		bl	mpu_write_mem
 1010              	.LVL112:
 784:drivers/inv_mpu_dmp_motion_driver.c **** }
 1011              		.loc 1 784 0
 1012 0584 03B0     		add	sp, sp, #12
 1013              		.cfi_def_cfa_offset 4
 1014              		@ sp needed
 1015 0586 5DF804FB 		ldr	pc, [sp], #4
 1016              		.cfi_endproc
 1017              	.LFE71:
 1018              		.size	dmp_set_tap_axes, .-dmp_set_tap_axes
 1019              		.align	1
 1020              		.global	dmp_set_tap_count
 1021              		.syntax unified
 1022              		.thumb
 1023              		.thumb_func
 1024              		.fpu softvfp
 1025              		.type	dmp_set_tap_count, %function
 1026              	dmp_set_tap_count:
 1027              	.LFB72:
 785:drivers/inv_mpu_dmp_motion_driver.c **** 
 786:drivers/inv_mpu_dmp_motion_driver.c **** /**
 787:drivers/inv_mpu_dmp_motion_driver.c ****  *  @brief      Set minimum number of taps needed for an interrupt.
 788:drivers/inv_mpu_dmp_motion_driver.c ****  *  @param[in]  min_taps    Minimum consecutive taps (1-4).
 789:drivers/inv_mpu_dmp_motion_driver.c ****  *  @return     0 if successful.
 790:drivers/inv_mpu_dmp_motion_driver.c ****  */
 791:drivers/inv_mpu_dmp_motion_driver.c **** int dmp_set_tap_count(unsigned char min_taps)
 792:drivers/inv_mpu_dmp_motion_driver.c **** {
 1028              		.loc 1 792 0
 1029              		.cfi_startproc
 1030              		@ args = 0, pretend = 0, frame = 8
 1031              		@ frame_needed = 0, uses_anonymous_args = 0
 1032              	.LVL113:
 1033 058a 00B5     		push	{lr}
 1034              		.cfi_def_cfa_offset 4
 1035              		.cfi_offset 14, -4
 1036 058c 83B0     		sub	sp, sp, #12
 1037              		.cfi_def_cfa_offset 16
 793:drivers/inv_mpu_dmp_motion_driver.c ****     unsigned char tmp;
 794:drivers/inv_mpu_dmp_motion_driver.c **** 
 795:drivers/inv_mpu_dmp_motion_driver.c ****     if (min_taps < 1)
 1038              		.loc 1 795 0
 1039 058e 80B1     		cbz	r0, .L81
 1040 0590 0346     		mov	r3, r0
 1041 0592 0428     		cmp	r0, #4
 1042 0594 28BF     		it	cs
 1043 0596 0423     		movcs	r3, #4
 1044 0598 1846     		mov	r0, r3
 1045              	.LVL114:
 1046              	.L80:
 796:drivers/inv_mpu_dmp_motion_driver.c ****         min_taps = 1;
 797:drivers/inv_mpu_dmp_motion_driver.c ****     else if (min_taps > 4)
 798:drivers/inv_mpu_dmp_motion_driver.c ****         min_taps = 4;
 799:drivers/inv_mpu_dmp_motion_driver.c **** 
 800:drivers/inv_mpu_dmp_motion_driver.c ****     tmp = min_taps - 1;
 1047              		.loc 1 800 0
 1048 059a 0138     		subs	r0, r0, #1
ARM GAS  /tmp/ccp3ezWO.s 			page 34


 1049              	.LVL115:
 1050 059c 02AA     		add	r2, sp, #8
 1051 059e 02F8010D 		strb	r0, [r2, #-1]!
 801:drivers/inv_mpu_dmp_motion_driver.c ****     return mpu_write_mem(D_1_79, 1, &tmp);
 1052              		.loc 1 801 0
 1053 05a2 0121     		movs	r1, #1
 1054 05a4 40F24F10 		movw	r0, #335
 1055 05a8 FFF7FEFF 		bl	mpu_write_mem
 1056              	.LVL116:
 802:drivers/inv_mpu_dmp_motion_driver.c **** }
 1057              		.loc 1 802 0
 1058 05ac 03B0     		add	sp, sp, #12
 1059              		.cfi_remember_state
 1060              		.cfi_def_cfa_offset 4
 1061              		@ sp needed
 1062 05ae 5DF804FB 		ldr	pc, [sp], #4
 1063              	.LVL117:
 1064              	.L81:
 1065              		.cfi_restore_state
 796:drivers/inv_mpu_dmp_motion_driver.c ****         min_taps = 1;
 1066              		.loc 1 796 0
 1067 05b2 0120     		movs	r0, #1
 1068              	.LVL118:
 1069 05b4 F1E7     		b	.L80
 1070              		.cfi_endproc
 1071              	.LFE72:
 1072              		.size	dmp_set_tap_count, .-dmp_set_tap_count
 1073              		.align	1
 1074              		.global	dmp_set_tap_time
 1075              		.syntax unified
 1076              		.thumb
 1077              		.thumb_func
 1078              		.fpu softvfp
 1079              		.type	dmp_set_tap_time, %function
 1080              	dmp_set_tap_time:
 1081              	.LFB73:
 803:drivers/inv_mpu_dmp_motion_driver.c **** 
 804:drivers/inv_mpu_dmp_motion_driver.c **** /**
 805:drivers/inv_mpu_dmp_motion_driver.c ****  *  @brief      Set length between valid taps.
 806:drivers/inv_mpu_dmp_motion_driver.c ****  *  @param[in]  time    Milliseconds between taps.
 807:drivers/inv_mpu_dmp_motion_driver.c ****  *  @return     0 if successful.
 808:drivers/inv_mpu_dmp_motion_driver.c ****  */
 809:drivers/inv_mpu_dmp_motion_driver.c **** int dmp_set_tap_time(unsigned short time)
 810:drivers/inv_mpu_dmp_motion_driver.c **** {
 1082              		.loc 1 810 0
 1083              		.cfi_startproc
 1084              		@ args = 0, pretend = 0, frame = 8
 1085              		@ frame_needed = 0, uses_anonymous_args = 0
 1086              	.LVL119:
 1087 05b6 00B5     		push	{lr}
 1088              		.cfi_def_cfa_offset 4
 1089              		.cfi_offset 14, -4
 1090 05b8 83B0     		sub	sp, sp, #12
 1091              		.cfi_def_cfa_offset 16
 811:drivers/inv_mpu_dmp_motion_driver.c ****     unsigned short dmp_time;
 812:drivers/inv_mpu_dmp_motion_driver.c ****     unsigned char tmp[2];
 813:drivers/inv_mpu_dmp_motion_driver.c **** 
ARM GAS  /tmp/ccp3ezWO.s 			page 35


 814:drivers/inv_mpu_dmp_motion_driver.c ****     dmp_time = time / (1000 / DMP_SAMPLE_RATE);
 1092              		.loc 1 814 0
 1093 05ba 094B     		ldr	r3, .L85
 1094 05bc A3FB0030 		umull	r3, r0, r3, r0
 1095              	.LVL120:
 1096 05c0 8008     		lsrs	r0, r0, #2
 1097              	.LVL121:
 815:drivers/inv_mpu_dmp_motion_driver.c ****     tmp[0] = (unsigned char)(dmp_time >> 8);
 1098              		.loc 1 815 0
 1099 05c2 030A     		lsrs	r3, r0, #8
 1100 05c4 8DF80430 		strb	r3, [sp, #4]
 816:drivers/inv_mpu_dmp_motion_driver.c ****     tmp[1] = (unsigned char)(dmp_time & 0xFF);
 1101              		.loc 1 816 0
 1102 05c8 8DF80500 		strb	r0, [sp, #5]
 817:drivers/inv_mpu_dmp_motion_driver.c ****     return mpu_write_mem(DMP_TAPW_MIN, 2, tmp);
 1103              		.loc 1 817 0
 1104 05cc 01AA     		add	r2, sp, #4
 1105 05ce 0221     		movs	r1, #2
 1106 05d0 4FF4EF70 		mov	r0, #478
 1107              	.LVL122:
 1108 05d4 FFF7FEFF 		bl	mpu_write_mem
 1109              	.LVL123:
 818:drivers/inv_mpu_dmp_motion_driver.c **** }
 1110              		.loc 1 818 0
 1111 05d8 03B0     		add	sp, sp, #12
 1112              		.cfi_def_cfa_offset 4
 1113              		@ sp needed
 1114 05da 5DF804FB 		ldr	pc, [sp], #4
 1115              	.L86:
 1116 05de 00BF     		.align	2
 1117              	.L85:
 1118 05e0 CDCCCCCC 		.word	-858993459
 1119              		.cfi_endproc
 1120              	.LFE73:
 1121              		.size	dmp_set_tap_time, .-dmp_set_tap_time
 1122              		.align	1
 1123              		.global	dmp_set_tap_time_multi
 1124              		.syntax unified
 1125              		.thumb
 1126              		.thumb_func
 1127              		.fpu softvfp
 1128              		.type	dmp_set_tap_time_multi, %function
 1129              	dmp_set_tap_time_multi:
 1130              	.LFB74:
 819:drivers/inv_mpu_dmp_motion_driver.c **** 
 820:drivers/inv_mpu_dmp_motion_driver.c **** /**
 821:drivers/inv_mpu_dmp_motion_driver.c ****  *  @brief      Set max time between taps to register as a multi-tap.
 822:drivers/inv_mpu_dmp_motion_driver.c ****  *  @param[in]  time    Max milliseconds between taps.
 823:drivers/inv_mpu_dmp_motion_driver.c ****  *  @return     0 if successful.
 824:drivers/inv_mpu_dmp_motion_driver.c ****  */
 825:drivers/inv_mpu_dmp_motion_driver.c **** int dmp_set_tap_time_multi(unsigned short time)
 826:drivers/inv_mpu_dmp_motion_driver.c **** {
 1131              		.loc 1 826 0
 1132              		.cfi_startproc
 1133              		@ args = 0, pretend = 0, frame = 8
 1134              		@ frame_needed = 0, uses_anonymous_args = 0
 1135              	.LVL124:
ARM GAS  /tmp/ccp3ezWO.s 			page 36


 1136 05e4 00B5     		push	{lr}
 1137              		.cfi_def_cfa_offset 4
 1138              		.cfi_offset 14, -4
 1139 05e6 83B0     		sub	sp, sp, #12
 1140              		.cfi_def_cfa_offset 16
 827:drivers/inv_mpu_dmp_motion_driver.c ****     unsigned short dmp_time;
 828:drivers/inv_mpu_dmp_motion_driver.c ****     unsigned char tmp[2];
 829:drivers/inv_mpu_dmp_motion_driver.c **** 
 830:drivers/inv_mpu_dmp_motion_driver.c ****     dmp_time = time / (1000 / DMP_SAMPLE_RATE);
 1141              		.loc 1 830 0
 1142 05e8 084B     		ldr	r3, .L89
 1143 05ea A3FB0030 		umull	r3, r0, r3, r0
 1144              	.LVL125:
 1145 05ee 8008     		lsrs	r0, r0, #2
 1146              	.LVL126:
 831:drivers/inv_mpu_dmp_motion_driver.c ****     tmp[0] = (unsigned char)(dmp_time >> 8);
 1147              		.loc 1 831 0
 1148 05f0 030A     		lsrs	r3, r0, #8
 1149 05f2 8DF80430 		strb	r3, [sp, #4]
 832:drivers/inv_mpu_dmp_motion_driver.c ****     tmp[1] = (unsigned char)(dmp_time & 0xFF);
 1150              		.loc 1 832 0
 1151 05f6 8DF80500 		strb	r0, [sp, #5]
 833:drivers/inv_mpu_dmp_motion_driver.c ****     return mpu_write_mem(D_1_218, 2, tmp);
 1152              		.loc 1 833 0
 1153 05fa 01AA     		add	r2, sp, #4
 1154 05fc 0221     		movs	r1, #2
 1155 05fe 4FF4ED70 		mov	r0, #474
 1156              	.LVL127:
 1157 0602 FFF7FEFF 		bl	mpu_write_mem
 1158              	.LVL128:
 834:drivers/inv_mpu_dmp_motion_driver.c **** }
 1159              		.loc 1 834 0
 1160 0606 03B0     		add	sp, sp, #12
 1161              		.cfi_def_cfa_offset 4
 1162              		@ sp needed
 1163 0608 5DF804FB 		ldr	pc, [sp], #4
 1164              	.L90:
 1165              		.align	2
 1166              	.L89:
 1167 060c CDCCCCCC 		.word	-858993459
 1168              		.cfi_endproc
 1169              	.LFE74:
 1170              		.size	dmp_set_tap_time_multi, .-dmp_set_tap_time_multi
 1171              		.align	1
 1172              		.global	dmp_set_shake_reject_thresh
 1173              		.syntax unified
 1174              		.thumb
 1175              		.thumb_func
 1176              		.fpu softvfp
 1177              		.type	dmp_set_shake_reject_thresh, %function
 1178              	dmp_set_shake_reject_thresh:
 1179              	.LFB75:
 835:drivers/inv_mpu_dmp_motion_driver.c **** 
 836:drivers/inv_mpu_dmp_motion_driver.c **** /**
 837:drivers/inv_mpu_dmp_motion_driver.c ****  *  @brief      Set shake rejection threshold.
 838:drivers/inv_mpu_dmp_motion_driver.c ****  *  If the DMP detects a gyro sample larger than @e thresh, taps are rejected.
 839:drivers/inv_mpu_dmp_motion_driver.c ****  *  @param[in]  sf      Gyro scale factor.
ARM GAS  /tmp/ccp3ezWO.s 			page 37


 840:drivers/inv_mpu_dmp_motion_driver.c ****  *  @param[in]  thresh  Gyro threshold in dps.
 841:drivers/inv_mpu_dmp_motion_driver.c ****  *  @return     0 if successful.
 842:drivers/inv_mpu_dmp_motion_driver.c ****  */
 843:drivers/inv_mpu_dmp_motion_driver.c **** int dmp_set_shake_reject_thresh(long sf, unsigned short thresh)
 844:drivers/inv_mpu_dmp_motion_driver.c **** {
 1180              		.loc 1 844 0
 1181              		.cfi_startproc
 1182              		@ args = 0, pretend = 0, frame = 8
 1183              		@ frame_needed = 0, uses_anonymous_args = 0
 1184              	.LVL129:
 1185 0610 00B5     		push	{lr}
 1186              		.cfi_def_cfa_offset 4
 1187              		.cfi_offset 14, -4
 1188 0612 83B0     		sub	sp, sp, #12
 1189              		.cfi_def_cfa_offset 16
 845:drivers/inv_mpu_dmp_motion_driver.c ****     unsigned char tmp[4];
 846:drivers/inv_mpu_dmp_motion_driver.c ****     long thresh_scaled = sf / 1000 * thresh;
 1190              		.loc 1 846 0
 1191 0614 0D4B     		ldr	r3, .L93
 1192 0616 83FB0023 		smull	r2, r3, r3, r0
 1193 061a C017     		asrs	r0, r0, #31
 1194              	.LVL130:
 1195 061c C0EBA310 		rsb	r0, r0, r3, asr #6
 1196 0620 01FB00F1 		mul	r1, r1, r0
 1197              	.LVL131:
 847:drivers/inv_mpu_dmp_motion_driver.c ****     tmp[0] = (unsigned char)(((long)thresh_scaled >> 24) & 0xFF);
 1198              		.loc 1 847 0
 1199 0624 0B16     		asrs	r3, r1, #24
 1200 0626 8DF80430 		strb	r3, [sp, #4]
 848:drivers/inv_mpu_dmp_motion_driver.c ****     tmp[1] = (unsigned char)(((long)thresh_scaled >> 16) & 0xFF);
 1201              		.loc 1 848 0
 1202 062a 0B14     		asrs	r3, r1, #16
 1203 062c 8DF80530 		strb	r3, [sp, #5]
 849:drivers/inv_mpu_dmp_motion_driver.c ****     tmp[2] = (unsigned char)(((long)thresh_scaled >> 8) & 0xFF);
 1204              		.loc 1 849 0
 1205 0630 0B12     		asrs	r3, r1, #8
 1206 0632 8DF80630 		strb	r3, [sp, #6]
 850:drivers/inv_mpu_dmp_motion_driver.c ****     tmp[3] = (unsigned char)((long)thresh_scaled & 0xFF);
 1207              		.loc 1 850 0
 1208 0636 8DF80710 		strb	r1, [sp, #7]
 851:drivers/inv_mpu_dmp_motion_driver.c ****     return mpu_write_mem(D_1_92, 4, tmp);
 1209              		.loc 1 851 0
 1210 063a 01AA     		add	r2, sp, #4
 1211 063c 0421     		movs	r1, #4
 1212              	.LVL132:
 1213 063e 4FF4AE70 		mov	r0, #348
 1214 0642 FFF7FEFF 		bl	mpu_write_mem
 1215              	.LVL133:
 852:drivers/inv_mpu_dmp_motion_driver.c **** }
 1216              		.loc 1 852 0
 1217 0646 03B0     		add	sp, sp, #12
 1218              		.cfi_def_cfa_offset 4
 1219              		@ sp needed
 1220 0648 5DF804FB 		ldr	pc, [sp], #4
 1221              	.L94:
 1222              		.align	2
 1223              	.L93:
ARM GAS  /tmp/ccp3ezWO.s 			page 38


 1224 064c D34D6210 		.word	274877907
 1225              		.cfi_endproc
 1226              	.LFE75:
 1227              		.size	dmp_set_shake_reject_thresh, .-dmp_set_shake_reject_thresh
 1228              		.align	1
 1229              		.global	dmp_set_shake_reject_time
 1230              		.syntax unified
 1231              		.thumb
 1232              		.thumb_func
 1233              		.fpu softvfp
 1234              		.type	dmp_set_shake_reject_time, %function
 1235              	dmp_set_shake_reject_time:
 1236              	.LFB76:
 853:drivers/inv_mpu_dmp_motion_driver.c **** 
 854:drivers/inv_mpu_dmp_motion_driver.c **** /**
 855:drivers/inv_mpu_dmp_motion_driver.c ****  *  @brief      Set shake rejection time.
 856:drivers/inv_mpu_dmp_motion_driver.c ****  *  Sets the length of time that the gyro must be outside of the threshold set
 857:drivers/inv_mpu_dmp_motion_driver.c ****  *  by @e gyro_set_shake_reject_thresh before taps are rejected. A mandatory
 858:drivers/inv_mpu_dmp_motion_driver.c ****  *  60 ms is added to this parameter.
 859:drivers/inv_mpu_dmp_motion_driver.c ****  *  @param[in]  time    Time in milliseconds.
 860:drivers/inv_mpu_dmp_motion_driver.c ****  *  @return     0 if successful.
 861:drivers/inv_mpu_dmp_motion_driver.c ****  */
 862:drivers/inv_mpu_dmp_motion_driver.c **** int dmp_set_shake_reject_time(unsigned short time)
 863:drivers/inv_mpu_dmp_motion_driver.c **** {
 1237              		.loc 1 863 0
 1238              		.cfi_startproc
 1239              		@ args = 0, pretend = 0, frame = 8
 1240              		@ frame_needed = 0, uses_anonymous_args = 0
 1241              	.LVL134:
 1242 0650 00B5     		push	{lr}
 1243              		.cfi_def_cfa_offset 4
 1244              		.cfi_offset 14, -4
 1245 0652 83B0     		sub	sp, sp, #12
 1246              		.cfi_def_cfa_offset 16
 864:drivers/inv_mpu_dmp_motion_driver.c ****     unsigned char tmp[2];
 865:drivers/inv_mpu_dmp_motion_driver.c **** 
 866:drivers/inv_mpu_dmp_motion_driver.c ****     time /= (1000 / DMP_SAMPLE_RATE);
 1247              		.loc 1 866 0
 1248 0654 084B     		ldr	r3, .L97
 1249 0656 A3FB0030 		umull	r3, r0, r3, r0
 1250              	.LVL135:
 1251 065a 8008     		lsrs	r0, r0, #2
 1252              	.LVL136:
 867:drivers/inv_mpu_dmp_motion_driver.c ****     tmp[0] = time >> 8;
 1253              		.loc 1 867 0
 1254 065c 030A     		lsrs	r3, r0, #8
 1255 065e 8DF80430 		strb	r3, [sp, #4]
 868:drivers/inv_mpu_dmp_motion_driver.c ****     tmp[1] = time & 0xFF;
 1256              		.loc 1 868 0
 1257 0662 8DF80500 		strb	r0, [sp, #5]
 869:drivers/inv_mpu_dmp_motion_driver.c ****     return mpu_write_mem(D_1_90,2,tmp);
 1258              		.loc 1 869 0
 1259 0666 01AA     		add	r2, sp, #4
 1260 0668 0221     		movs	r1, #2
 1261 066a 4FF4AD70 		mov	r0, #346
 1262              	.LVL137:
 1263 066e FFF7FEFF 		bl	mpu_write_mem
ARM GAS  /tmp/ccp3ezWO.s 			page 39


 1264              	.LVL138:
 870:drivers/inv_mpu_dmp_motion_driver.c **** }
 1265              		.loc 1 870 0
 1266 0672 03B0     		add	sp, sp, #12
 1267              		.cfi_def_cfa_offset 4
 1268              		@ sp needed
 1269 0674 5DF804FB 		ldr	pc, [sp], #4
 1270              	.L98:
 1271              		.align	2
 1272              	.L97:
 1273 0678 CDCCCCCC 		.word	-858993459
 1274              		.cfi_endproc
 1275              	.LFE76:
 1276              		.size	dmp_set_shake_reject_time, .-dmp_set_shake_reject_time
 1277              		.align	1
 1278              		.global	dmp_set_shake_reject_timeout
 1279              		.syntax unified
 1280              		.thumb
 1281              		.thumb_func
 1282              		.fpu softvfp
 1283              		.type	dmp_set_shake_reject_timeout, %function
 1284              	dmp_set_shake_reject_timeout:
 1285              	.LFB77:
 871:drivers/inv_mpu_dmp_motion_driver.c **** 
 872:drivers/inv_mpu_dmp_motion_driver.c **** /**
 873:drivers/inv_mpu_dmp_motion_driver.c ****  *  @brief      Set shake rejection timeout.
 874:drivers/inv_mpu_dmp_motion_driver.c ****  *  Sets the length of time after a shake rejection that the gyro must stay
 875:drivers/inv_mpu_dmp_motion_driver.c ****  *  inside of the threshold before taps can be detected again. A mandatory
 876:drivers/inv_mpu_dmp_motion_driver.c ****  *  60 ms is added to this parameter.
 877:drivers/inv_mpu_dmp_motion_driver.c ****  *  @param[in]  time    Time in milliseconds.
 878:drivers/inv_mpu_dmp_motion_driver.c ****  *  @return     0 if successful.
 879:drivers/inv_mpu_dmp_motion_driver.c ****  */
 880:drivers/inv_mpu_dmp_motion_driver.c **** int dmp_set_shake_reject_timeout(unsigned short time)
 881:drivers/inv_mpu_dmp_motion_driver.c **** {
 1286              		.loc 1 881 0
 1287              		.cfi_startproc
 1288              		@ args = 0, pretend = 0, frame = 8
 1289              		@ frame_needed = 0, uses_anonymous_args = 0
 1290              	.LVL139:
 1291 067c 00B5     		push	{lr}
 1292              		.cfi_def_cfa_offset 4
 1293              		.cfi_offset 14, -4
 1294 067e 83B0     		sub	sp, sp, #12
 1295              		.cfi_def_cfa_offset 16
 882:drivers/inv_mpu_dmp_motion_driver.c ****     unsigned char tmp[2];
 883:drivers/inv_mpu_dmp_motion_driver.c **** 
 884:drivers/inv_mpu_dmp_motion_driver.c ****     time /= (1000 / DMP_SAMPLE_RATE);
 1296              		.loc 1 884 0
 1297 0680 084B     		ldr	r3, .L101
 1298 0682 A3FB0030 		umull	r3, r0, r3, r0
 1299              	.LVL140:
 1300 0686 8008     		lsrs	r0, r0, #2
 1301              	.LVL141:
 885:drivers/inv_mpu_dmp_motion_driver.c ****     tmp[0] = time >> 8;
 1302              		.loc 1 885 0
 1303 0688 030A     		lsrs	r3, r0, #8
 1304 068a 8DF80430 		strb	r3, [sp, #4]
ARM GAS  /tmp/ccp3ezWO.s 			page 40


 886:drivers/inv_mpu_dmp_motion_driver.c ****     tmp[1] = time & 0xFF;
 1305              		.loc 1 886 0
 1306 068e 8DF80500 		strb	r0, [sp, #5]
 887:drivers/inv_mpu_dmp_motion_driver.c ****     return mpu_write_mem(D_1_88,2,tmp);
 1307              		.loc 1 887 0
 1308 0692 01AA     		add	r2, sp, #4
 1309 0694 0221     		movs	r1, #2
 1310 0696 4FF4AC70 		mov	r0, #344
 1311              	.LVL142:
 1312 069a FFF7FEFF 		bl	mpu_write_mem
 1313              	.LVL143:
 888:drivers/inv_mpu_dmp_motion_driver.c **** }
 1314              		.loc 1 888 0
 1315 069e 03B0     		add	sp, sp, #12
 1316              		.cfi_def_cfa_offset 4
 1317              		@ sp needed
 1318 06a0 5DF804FB 		ldr	pc, [sp], #4
 1319              	.L102:
 1320              		.align	2
 1321              	.L101:
 1322 06a4 CDCCCCCC 		.word	-858993459
 1323              		.cfi_endproc
 1324              	.LFE77:
 1325              		.size	dmp_set_shake_reject_timeout, .-dmp_set_shake_reject_timeout
 1326              		.align	1
 1327              		.global	dmp_get_pedometer_step_count
 1328              		.syntax unified
 1329              		.thumb
 1330              		.thumb_func
 1331              		.fpu softvfp
 1332              		.type	dmp_get_pedometer_step_count, %function
 1333              	dmp_get_pedometer_step_count:
 1334              	.LFB78:
 889:drivers/inv_mpu_dmp_motion_driver.c **** 
 890:drivers/inv_mpu_dmp_motion_driver.c **** /**
 891:drivers/inv_mpu_dmp_motion_driver.c ****  *  @brief      Get current step count.
 892:drivers/inv_mpu_dmp_motion_driver.c ****  *  @param[out] count   Number of steps detected.
 893:drivers/inv_mpu_dmp_motion_driver.c ****  *  @return     0 if successful.
 894:drivers/inv_mpu_dmp_motion_driver.c ****  */
 895:drivers/inv_mpu_dmp_motion_driver.c **** int dmp_get_pedometer_step_count(unsigned long *count)
 896:drivers/inv_mpu_dmp_motion_driver.c **** {
 1335              		.loc 1 896 0
 1336              		.cfi_startproc
 1337              		@ args = 0, pretend = 0, frame = 8
 1338              		@ frame_needed = 0, uses_anonymous_args = 0
 1339              	.LVL144:
 897:drivers/inv_mpu_dmp_motion_driver.c ****     unsigned char tmp[4];
 898:drivers/inv_mpu_dmp_motion_driver.c ****     if (!count)
 1340              		.loc 1 898 0
 1341 06a8 E0B1     		cbz	r0, .L105
 896:drivers/inv_mpu_dmp_motion_driver.c ****     unsigned char tmp[4];
 1342              		.loc 1 896 0
 1343 06aa 10B5     		push	{r4, lr}
 1344              		.cfi_def_cfa_offset 8
 1345              		.cfi_offset 4, -8
 1346              		.cfi_offset 14, -4
 1347 06ac 82B0     		sub	sp, sp, #8
ARM GAS  /tmp/ccp3ezWO.s 			page 41


 1348              		.cfi_def_cfa_offset 16
 1349 06ae 0446     		mov	r4, r0
 899:drivers/inv_mpu_dmp_motion_driver.c ****         return -1;
 900:drivers/inv_mpu_dmp_motion_driver.c **** 
 901:drivers/inv_mpu_dmp_motion_driver.c ****     if (mpu_read_mem(D_PEDSTD_STEPCTR, 4, tmp))
 1350              		.loc 1 901 0
 1351 06b0 01AA     		add	r2, sp, #4
 1352 06b2 0421     		movs	r1, #4
 1353 06b4 4FF45870 		mov	r0, #864
 1354              	.LVL145:
 1355 06b8 FFF7FEFF 		bl	mpu_read_mem
 1356              	.LVL146:
 1357 06bc 0246     		mov	r2, r0
 1358 06be A8B9     		cbnz	r0, .L106
 902:drivers/inv_mpu_dmp_motion_driver.c ****         return -1;
 903:drivers/inv_mpu_dmp_motion_driver.c **** 
 904:drivers/inv_mpu_dmp_motion_driver.c ****     count[0] = ((unsigned long)tmp[0] << 24) | ((unsigned long)tmp[1] << 16) |
 1359              		.loc 1 904 0
 1360 06c0 9DF80410 		ldrb	r1, [sp, #4]	@ zero_extendqisi2
 1361 06c4 9DF80530 		ldrb	r3, [sp, #5]	@ zero_extendqisi2
 1362 06c8 1B04     		lsls	r3, r3, #16
 1363 06ca 43EA0163 		orr	r3, r3, r1, lsl #24
 905:drivers/inv_mpu_dmp_motion_driver.c ****         ((unsigned long)tmp[2] << 8) | tmp[3];
 1364              		.loc 1 905 0
 1365 06ce 9DF80710 		ldrb	r1, [sp, #7]	@ zero_extendqisi2
 1366 06d2 0B43     		orrs	r3, r3, r1
 1367 06d4 9DF80610 		ldrb	r1, [sp, #6]	@ zero_extendqisi2
 1368 06d8 43EA0123 		orr	r3, r3, r1, lsl #8
 904:drivers/inv_mpu_dmp_motion_driver.c ****         ((unsigned long)tmp[2] << 8) | tmp[3];
 1369              		.loc 1 904 0
 1370 06dc 2360     		str	r3, [r4]
 1371              	.L103:
 906:drivers/inv_mpu_dmp_motion_driver.c ****     return 0;
 907:drivers/inv_mpu_dmp_motion_driver.c **** }
 1372              		.loc 1 907 0
 1373 06de 1046     		mov	r0, r2
 1374 06e0 02B0     		add	sp, sp, #8
 1375              		.cfi_def_cfa_offset 8
 1376              		@ sp needed
 1377 06e2 10BD     		pop	{r4, pc}
 1378              	.LVL147:
 1379              	.L105:
 1380              		.cfi_def_cfa_offset 0
 1381              		.cfi_restore 4
 1382              		.cfi_restore 14
 899:drivers/inv_mpu_dmp_motion_driver.c **** 
 1383              		.loc 1 899 0
 1384 06e4 4FF0FF32 		mov	r2, #-1
 1385              		.loc 1 907 0
 1386 06e8 1046     		mov	r0, r2
 1387              	.LVL148:
 1388 06ea 7047     		bx	lr
 1389              	.LVL149:
 1390              	.L106:
 1391              		.cfi_def_cfa_offset 16
 1392              		.cfi_offset 4, -8
 1393              		.cfi_offset 14, -4
ARM GAS  /tmp/ccp3ezWO.s 			page 42


 902:drivers/inv_mpu_dmp_motion_driver.c **** 
 1394              		.loc 1 902 0
 1395 06ec 4FF0FF32 		mov	r2, #-1
 1396 06f0 F5E7     		b	.L103
 1397              		.cfi_endproc
 1398              	.LFE78:
 1399              		.size	dmp_get_pedometer_step_count, .-dmp_get_pedometer_step_count
 1400              		.align	1
 1401              		.global	dmp_set_pedometer_step_count
 1402              		.syntax unified
 1403              		.thumb
 1404              		.thumb_func
 1405              		.fpu softvfp
 1406              		.type	dmp_set_pedometer_step_count, %function
 1407              	dmp_set_pedometer_step_count:
 1408              	.LFB79:
 908:drivers/inv_mpu_dmp_motion_driver.c **** 
 909:drivers/inv_mpu_dmp_motion_driver.c **** /**
 910:drivers/inv_mpu_dmp_motion_driver.c ****  *  @brief      Overwrite current step count.
 911:drivers/inv_mpu_dmp_motion_driver.c ****  *  WARNING: This function writes to DMP memory and could potentially encounter
 912:drivers/inv_mpu_dmp_motion_driver.c ****  *  a race condition if called while the pedometer is enabled.
 913:drivers/inv_mpu_dmp_motion_driver.c ****  *  @param[in]  count   New step count.
 914:drivers/inv_mpu_dmp_motion_driver.c ****  *  @return     0 if successful.
 915:drivers/inv_mpu_dmp_motion_driver.c ****  */
 916:drivers/inv_mpu_dmp_motion_driver.c **** int dmp_set_pedometer_step_count(unsigned long count)
 917:drivers/inv_mpu_dmp_motion_driver.c **** {
 1409              		.loc 1 917 0
 1410              		.cfi_startproc
 1411              		@ args = 0, pretend = 0, frame = 8
 1412              		@ frame_needed = 0, uses_anonymous_args = 0
 1413              	.LVL150:
 1414 06f2 00B5     		push	{lr}
 1415              		.cfi_def_cfa_offset 4
 1416              		.cfi_offset 14, -4
 1417 06f4 83B0     		sub	sp, sp, #12
 1418              		.cfi_def_cfa_offset 16
 918:drivers/inv_mpu_dmp_motion_driver.c ****     unsigned char tmp[4];
 919:drivers/inv_mpu_dmp_motion_driver.c **** 
 920:drivers/inv_mpu_dmp_motion_driver.c ****     tmp[0] = (unsigned char)((count >> 24) & 0xFF);
 1419              		.loc 1 920 0
 1420 06f6 030E     		lsrs	r3, r0, #24
 1421 06f8 8DF80430 		strb	r3, [sp, #4]
 921:drivers/inv_mpu_dmp_motion_driver.c ****     tmp[1] = (unsigned char)((count >> 16) & 0xFF);
 1422              		.loc 1 921 0
 1423 06fc 030C     		lsrs	r3, r0, #16
 1424 06fe 8DF80530 		strb	r3, [sp, #5]
 922:drivers/inv_mpu_dmp_motion_driver.c ****     tmp[2] = (unsigned char)((count >> 8) & 0xFF);
 1425              		.loc 1 922 0
 1426 0702 030A     		lsrs	r3, r0, #8
 1427 0704 8DF80630 		strb	r3, [sp, #6]
 923:drivers/inv_mpu_dmp_motion_driver.c ****     tmp[3] = (unsigned char)(count & 0xFF);
 1428              		.loc 1 923 0
 1429 0708 8DF80700 		strb	r0, [sp, #7]
 924:drivers/inv_mpu_dmp_motion_driver.c ****     return mpu_write_mem(D_PEDSTD_STEPCTR, 4, tmp);
 1430              		.loc 1 924 0
 1431 070c 01AA     		add	r2, sp, #4
 1432 070e 0421     		movs	r1, #4
ARM GAS  /tmp/ccp3ezWO.s 			page 43


 1433 0710 4FF45870 		mov	r0, #864
 1434              	.LVL151:
 1435 0714 FFF7FEFF 		bl	mpu_write_mem
 1436              	.LVL152:
 925:drivers/inv_mpu_dmp_motion_driver.c **** }
 1437              		.loc 1 925 0
 1438 0718 03B0     		add	sp, sp, #12
 1439              		.cfi_def_cfa_offset 4
 1440              		@ sp needed
 1441 071a 5DF804FB 		ldr	pc, [sp], #4
 1442              		.cfi_endproc
 1443              	.LFE79:
 1444              		.size	dmp_set_pedometer_step_count, .-dmp_set_pedometer_step_count
 1445              		.align	1
 1446              		.global	dmp_get_pedometer_walk_time
 1447              		.syntax unified
 1448              		.thumb
 1449              		.thumb_func
 1450              		.fpu softvfp
 1451              		.type	dmp_get_pedometer_walk_time, %function
 1452              	dmp_get_pedometer_walk_time:
 1453              	.LFB80:
 926:drivers/inv_mpu_dmp_motion_driver.c **** 
 927:drivers/inv_mpu_dmp_motion_driver.c **** /**
 928:drivers/inv_mpu_dmp_motion_driver.c ****  *  @brief      Get duration of walking time.
 929:drivers/inv_mpu_dmp_motion_driver.c ****  *  @param[in]  time    Walk time in milliseconds.
 930:drivers/inv_mpu_dmp_motion_driver.c ****  *  @return     0 if successful.
 931:drivers/inv_mpu_dmp_motion_driver.c ****  */
 932:drivers/inv_mpu_dmp_motion_driver.c **** int dmp_get_pedometer_walk_time(unsigned long *time)
 933:drivers/inv_mpu_dmp_motion_driver.c **** {
 1454              		.loc 1 933 0
 1455              		.cfi_startproc
 1456              		@ args = 0, pretend = 0, frame = 8
 1457              		@ frame_needed = 0, uses_anonymous_args = 0
 1458              	.LVL153:
 934:drivers/inv_mpu_dmp_motion_driver.c ****     unsigned char tmp[4];
 935:drivers/inv_mpu_dmp_motion_driver.c ****     if (!time)
 1459              		.loc 1 935 0
 1460 071e F8B1     		cbz	r0, .L115
 933:drivers/inv_mpu_dmp_motion_driver.c ****     unsigned char tmp[4];
 1461              		.loc 1 933 0
 1462 0720 10B5     		push	{r4, lr}
 1463              		.cfi_def_cfa_offset 8
 1464              		.cfi_offset 4, -8
 1465              		.cfi_offset 14, -4
 1466 0722 82B0     		sub	sp, sp, #8
 1467              		.cfi_def_cfa_offset 16
 1468 0724 0446     		mov	r4, r0
 936:drivers/inv_mpu_dmp_motion_driver.c ****         return -1;
 937:drivers/inv_mpu_dmp_motion_driver.c **** 
 938:drivers/inv_mpu_dmp_motion_driver.c ****     if (mpu_read_mem(D_PEDSTD_TIMECTR, 4, tmp))
 1469              		.loc 1 938 0
 1470 0726 01AA     		add	r2, sp, #4
 1471 0728 0421     		movs	r1, #4
 1472 072a 4FF47170 		mov	r0, #964
 1473              	.LVL154:
 1474 072e FFF7FEFF 		bl	mpu_read_mem
ARM GAS  /tmp/ccp3ezWO.s 			page 44


 1475              	.LVL155:
 1476 0732 0246     		mov	r2, r0
 1477 0734 C0B9     		cbnz	r0, .L116
 939:drivers/inv_mpu_dmp_motion_driver.c ****         return -1;
 940:drivers/inv_mpu_dmp_motion_driver.c **** 
 941:drivers/inv_mpu_dmp_motion_driver.c ****     time[0] = (((unsigned long)tmp[0] << 24) | ((unsigned long)tmp[1] << 16) |
 1478              		.loc 1 941 0
 1479 0736 9DF80410 		ldrb	r1, [sp, #4]	@ zero_extendqisi2
 1480 073a 9DF80530 		ldrb	r3, [sp, #5]	@ zero_extendqisi2
 1481 073e 1B04     		lsls	r3, r3, #16
 1482 0740 43EA0163 		orr	r3, r3, r1, lsl #24
 942:drivers/inv_mpu_dmp_motion_driver.c ****         ((unsigned long)tmp[2] << 8) | tmp[3]) * 20;
 1483              		.loc 1 942 0
 1484 0744 9DF80710 		ldrb	r1, [sp, #7]	@ zero_extendqisi2
 1485 0748 0B43     		orrs	r3, r3, r1
 1486 074a 9DF80610 		ldrb	r1, [sp, #6]	@ zero_extendqisi2
 1487 074e 43EA0123 		orr	r3, r3, r1, lsl #8
 1488 0752 03EB8303 		add	r3, r3, r3, lsl #2
 1489 0756 9B00     		lsls	r3, r3, #2
 941:drivers/inv_mpu_dmp_motion_driver.c ****         ((unsigned long)tmp[2] << 8) | tmp[3]) * 20;
 1490              		.loc 1 941 0
 1491 0758 2360     		str	r3, [r4]
 1492              	.L113:
 943:drivers/inv_mpu_dmp_motion_driver.c ****     return 0;
 944:drivers/inv_mpu_dmp_motion_driver.c **** }
 1493              		.loc 1 944 0
 1494 075a 1046     		mov	r0, r2
 1495 075c 02B0     		add	sp, sp, #8
 1496              		.cfi_def_cfa_offset 8
 1497              		@ sp needed
 1498 075e 10BD     		pop	{r4, pc}
 1499              	.LVL156:
 1500              	.L115:
 1501              		.cfi_def_cfa_offset 0
 1502              		.cfi_restore 4
 1503              		.cfi_restore 14
 936:drivers/inv_mpu_dmp_motion_driver.c **** 
 1504              		.loc 1 936 0
 1505 0760 4FF0FF32 		mov	r2, #-1
 1506              		.loc 1 944 0
 1507 0764 1046     		mov	r0, r2
 1508              	.LVL157:
 1509 0766 7047     		bx	lr
 1510              	.LVL158:
 1511              	.L116:
 1512              		.cfi_def_cfa_offset 16
 1513              		.cfi_offset 4, -8
 1514              		.cfi_offset 14, -4
 939:drivers/inv_mpu_dmp_motion_driver.c **** 
 1515              		.loc 1 939 0
 1516 0768 4FF0FF32 		mov	r2, #-1
 1517 076c F5E7     		b	.L113
 1518              		.cfi_endproc
 1519              	.LFE80:
 1520              		.size	dmp_get_pedometer_walk_time, .-dmp_get_pedometer_walk_time
 1521              		.align	1
 1522              		.global	dmp_set_pedometer_walk_time
ARM GAS  /tmp/ccp3ezWO.s 			page 45


 1523              		.syntax unified
 1524              		.thumb
 1525              		.thumb_func
 1526              		.fpu softvfp
 1527              		.type	dmp_set_pedometer_walk_time, %function
 1528              	dmp_set_pedometer_walk_time:
 1529              	.LFB81:
 945:drivers/inv_mpu_dmp_motion_driver.c **** 
 946:drivers/inv_mpu_dmp_motion_driver.c **** /**
 947:drivers/inv_mpu_dmp_motion_driver.c ****  *  @brief      Overwrite current walk time.
 948:drivers/inv_mpu_dmp_motion_driver.c ****  *  WARNING: This function writes to DMP memory and could potentially encounter
 949:drivers/inv_mpu_dmp_motion_driver.c ****  *  a race condition if called while the pedometer is enabled.
 950:drivers/inv_mpu_dmp_motion_driver.c ****  *  @param[in]  time    New walk time in milliseconds.
 951:drivers/inv_mpu_dmp_motion_driver.c ****  */
 952:drivers/inv_mpu_dmp_motion_driver.c **** int dmp_set_pedometer_walk_time(unsigned long time)
 953:drivers/inv_mpu_dmp_motion_driver.c **** {
 1530              		.loc 1 953 0
 1531              		.cfi_startproc
 1532              		@ args = 0, pretend = 0, frame = 8
 1533              		@ frame_needed = 0, uses_anonymous_args = 0
 1534              	.LVL159:
 1535 076e 00B5     		push	{lr}
 1536              		.cfi_def_cfa_offset 4
 1537              		.cfi_offset 14, -4
 1538 0770 83B0     		sub	sp, sp, #12
 1539              		.cfi_def_cfa_offset 16
 954:drivers/inv_mpu_dmp_motion_driver.c ****     unsigned char tmp[4];
 955:drivers/inv_mpu_dmp_motion_driver.c **** 
 956:drivers/inv_mpu_dmp_motion_driver.c ****     time /= 20;
 1540              		.loc 1 956 0
 1541 0772 0C4B     		ldr	r3, .L123
 1542 0774 A3FB0030 		umull	r3, r0, r3, r0
 1543              	.LVL160:
 1544 0778 0309     		lsrs	r3, r0, #4
 1545              	.LVL161:
 957:drivers/inv_mpu_dmp_motion_driver.c **** 
 958:drivers/inv_mpu_dmp_motion_driver.c ****     tmp[0] = (unsigned char)((time >> 24) & 0xFF);
 1546              		.loc 1 958 0
 1547 077a 020F     		lsrs	r2, r0, #28
 1548 077c 8DF80420 		strb	r2, [sp, #4]
 959:drivers/inv_mpu_dmp_motion_driver.c ****     tmp[1] = (unsigned char)((time >> 16) & 0xFF);
 1549              		.loc 1 959 0
 1550 0780 020D     		lsrs	r2, r0, #20
 1551 0782 8DF80520 		strb	r2, [sp, #5]
 960:drivers/inv_mpu_dmp_motion_driver.c ****     tmp[2] = (unsigned char)((time >> 8) & 0xFF);
 1552              		.loc 1 960 0
 1553 0786 000B     		lsrs	r0, r0, #12
 1554 0788 8DF80600 		strb	r0, [sp, #6]
 961:drivers/inv_mpu_dmp_motion_driver.c ****     tmp[3] = (unsigned char)(time & 0xFF);
 1555              		.loc 1 961 0
 1556 078c 8DF80730 		strb	r3, [sp, #7]
 962:drivers/inv_mpu_dmp_motion_driver.c ****     return mpu_write_mem(D_PEDSTD_TIMECTR, 4, tmp);
 1557              		.loc 1 962 0
 1558 0790 01AA     		add	r2, sp, #4
 1559 0792 0421     		movs	r1, #4
 1560 0794 4FF47170 		mov	r0, #964
 1561 0798 FFF7FEFF 		bl	mpu_write_mem
ARM GAS  /tmp/ccp3ezWO.s 			page 46


 1562              	.LVL162:
 963:drivers/inv_mpu_dmp_motion_driver.c **** }
 1563              		.loc 1 963 0
 1564 079c 03B0     		add	sp, sp, #12
 1565              		.cfi_def_cfa_offset 4
 1566              		@ sp needed
 1567 079e 5DF804FB 		ldr	pc, [sp], #4
 1568              	.L124:
 1569 07a2 00BF     		.align	2
 1570              	.L123:
 1571 07a4 CDCCCCCC 		.word	-858993459
 1572              		.cfi_endproc
 1573              	.LFE81:
 1574              		.size	dmp_set_pedometer_walk_time, .-dmp_set_pedometer_walk_time
 1575              		.align	1
 1576              		.global	dmp_get_enabled_features
 1577              		.syntax unified
 1578              		.thumb
 1579              		.thumb_func
 1580              		.fpu softvfp
 1581              		.type	dmp_get_enabled_features, %function
 1582              	dmp_get_enabled_features:
 1583              	.LFB83:
 964:drivers/inv_mpu_dmp_motion_driver.c **** 
 965:drivers/inv_mpu_dmp_motion_driver.c **** /**
 966:drivers/inv_mpu_dmp_motion_driver.c ****  *  @brief      Enable DMP features.
 967:drivers/inv_mpu_dmp_motion_driver.c ****  *  The following \#define's are used in the input mask:
 968:drivers/inv_mpu_dmp_motion_driver.c ****  *  \n DMP_FEATURE_TAP
 969:drivers/inv_mpu_dmp_motion_driver.c ****  *  \n DMP_FEATURE_ANDROID_ORIENT
 970:drivers/inv_mpu_dmp_motion_driver.c ****  *  \n DMP_FEATURE_LP_QUAT
 971:drivers/inv_mpu_dmp_motion_driver.c ****  *  \n DMP_FEATURE_6X_LP_QUAT
 972:drivers/inv_mpu_dmp_motion_driver.c ****  *  \n DMP_FEATURE_GYRO_CAL
 973:drivers/inv_mpu_dmp_motion_driver.c ****  *  \n DMP_FEATURE_SEND_RAW_ACCEL
 974:drivers/inv_mpu_dmp_motion_driver.c ****  *  \n DMP_FEATURE_SEND_RAW_GYRO
 975:drivers/inv_mpu_dmp_motion_driver.c ****  *  \n NOTE: DMP_FEATURE_LP_QUAT and DMP_FEATURE_6X_LP_QUAT are mutually
 976:drivers/inv_mpu_dmp_motion_driver.c ****  *  exclusive.
 977:drivers/inv_mpu_dmp_motion_driver.c ****  *  \n NOTE: DMP_FEATURE_SEND_RAW_GYRO and DMP_FEATURE_SEND_CAL_GYRO are also
 978:drivers/inv_mpu_dmp_motion_driver.c ****  *  mutually exclusive.
 979:drivers/inv_mpu_dmp_motion_driver.c ****  *  @param[in]  mask    Mask of features to enable.
 980:drivers/inv_mpu_dmp_motion_driver.c ****  *  @return     0 if successful.
 981:drivers/inv_mpu_dmp_motion_driver.c ****  */
 982:drivers/inv_mpu_dmp_motion_driver.c **** int dmp_enable_feature(unsigned short mask)
 983:drivers/inv_mpu_dmp_motion_driver.c **** {
 984:drivers/inv_mpu_dmp_motion_driver.c ****     unsigned char tmp[10];
 985:drivers/inv_mpu_dmp_motion_driver.c **** 
 986:drivers/inv_mpu_dmp_motion_driver.c ****     /* TODO: All of these settings can probably be integrated into the default
 987:drivers/inv_mpu_dmp_motion_driver.c ****      * DMP image.
 988:drivers/inv_mpu_dmp_motion_driver.c ****      */
 989:drivers/inv_mpu_dmp_motion_driver.c ****     /* Set integration scale factor. */
 990:drivers/inv_mpu_dmp_motion_driver.c ****     tmp[0] = (unsigned char)((GYRO_SF >> 24) & 0xFF);
 991:drivers/inv_mpu_dmp_motion_driver.c ****     tmp[1] = (unsigned char)((GYRO_SF >> 16) & 0xFF);
 992:drivers/inv_mpu_dmp_motion_driver.c ****     tmp[2] = (unsigned char)((GYRO_SF >> 8) & 0xFF);
 993:drivers/inv_mpu_dmp_motion_driver.c ****     tmp[3] = (unsigned char)(GYRO_SF & 0xFF);
 994:drivers/inv_mpu_dmp_motion_driver.c ****     mpu_write_mem(D_0_104, 4, tmp);
 995:drivers/inv_mpu_dmp_motion_driver.c **** 
 996:drivers/inv_mpu_dmp_motion_driver.c ****     /* Send sensor data to the FIFO. */
 997:drivers/inv_mpu_dmp_motion_driver.c ****     tmp[0] = 0xA3;
ARM GAS  /tmp/ccp3ezWO.s 			page 47


 998:drivers/inv_mpu_dmp_motion_driver.c ****     if (mask & DMP_FEATURE_SEND_RAW_ACCEL) {
 999:drivers/inv_mpu_dmp_motion_driver.c ****         tmp[1] = 0xC0;
1000:drivers/inv_mpu_dmp_motion_driver.c ****         tmp[2] = 0xC8;
1001:drivers/inv_mpu_dmp_motion_driver.c ****         tmp[3] = 0xC2;
1002:drivers/inv_mpu_dmp_motion_driver.c ****     } else {
1003:drivers/inv_mpu_dmp_motion_driver.c ****         tmp[1] = 0xA3;
1004:drivers/inv_mpu_dmp_motion_driver.c ****         tmp[2] = 0xA3;
1005:drivers/inv_mpu_dmp_motion_driver.c ****         tmp[3] = 0xA3;
1006:drivers/inv_mpu_dmp_motion_driver.c ****     }
1007:drivers/inv_mpu_dmp_motion_driver.c ****     if (mask & DMP_FEATURE_SEND_ANY_GYRO) {
1008:drivers/inv_mpu_dmp_motion_driver.c ****         tmp[4] = 0xC4;
1009:drivers/inv_mpu_dmp_motion_driver.c ****         tmp[5] = 0xCC;
1010:drivers/inv_mpu_dmp_motion_driver.c ****         tmp[6] = 0xC6;
1011:drivers/inv_mpu_dmp_motion_driver.c ****     } else {
1012:drivers/inv_mpu_dmp_motion_driver.c ****         tmp[4] = 0xA3;
1013:drivers/inv_mpu_dmp_motion_driver.c ****         tmp[5] = 0xA3;
1014:drivers/inv_mpu_dmp_motion_driver.c ****         tmp[6] = 0xA3;
1015:drivers/inv_mpu_dmp_motion_driver.c ****     }
1016:drivers/inv_mpu_dmp_motion_driver.c ****     tmp[7] = 0xA3;
1017:drivers/inv_mpu_dmp_motion_driver.c ****     tmp[8] = 0xA3;
1018:drivers/inv_mpu_dmp_motion_driver.c ****     tmp[9] = 0xA3;
1019:drivers/inv_mpu_dmp_motion_driver.c ****     mpu_write_mem(CFG_15,10,tmp);
1020:drivers/inv_mpu_dmp_motion_driver.c **** 
1021:drivers/inv_mpu_dmp_motion_driver.c ****     /* Send gesture data to the FIFO. */
1022:drivers/inv_mpu_dmp_motion_driver.c ****     if (mask & (DMP_FEATURE_TAP | DMP_FEATURE_ANDROID_ORIENT))
1023:drivers/inv_mpu_dmp_motion_driver.c ****         tmp[0] = DINA20;
1024:drivers/inv_mpu_dmp_motion_driver.c ****     else
1025:drivers/inv_mpu_dmp_motion_driver.c ****         tmp[0] = 0xD8;
1026:drivers/inv_mpu_dmp_motion_driver.c ****     mpu_write_mem(CFG_27,1,tmp);
1027:drivers/inv_mpu_dmp_motion_driver.c **** 
1028:drivers/inv_mpu_dmp_motion_driver.c ****     if (mask & DMP_FEATURE_GYRO_CAL)
1029:drivers/inv_mpu_dmp_motion_driver.c ****         dmp_enable_gyro_cal(1);
1030:drivers/inv_mpu_dmp_motion_driver.c ****     else
1031:drivers/inv_mpu_dmp_motion_driver.c ****         dmp_enable_gyro_cal(0);
1032:drivers/inv_mpu_dmp_motion_driver.c **** 
1033:drivers/inv_mpu_dmp_motion_driver.c ****     if (mask & DMP_FEATURE_SEND_ANY_GYRO) {
1034:drivers/inv_mpu_dmp_motion_driver.c ****         if (mask & DMP_FEATURE_SEND_CAL_GYRO) {
1035:drivers/inv_mpu_dmp_motion_driver.c ****             tmp[0] = 0xB2;
1036:drivers/inv_mpu_dmp_motion_driver.c ****             tmp[1] = 0x8B;
1037:drivers/inv_mpu_dmp_motion_driver.c ****             tmp[2] = 0xB6;
1038:drivers/inv_mpu_dmp_motion_driver.c ****             tmp[3] = 0x9B;
1039:drivers/inv_mpu_dmp_motion_driver.c ****         } else {
1040:drivers/inv_mpu_dmp_motion_driver.c ****             tmp[0] = DINAC0;
1041:drivers/inv_mpu_dmp_motion_driver.c ****             tmp[1] = DINA80;
1042:drivers/inv_mpu_dmp_motion_driver.c ****             tmp[2] = DINAC2;
1043:drivers/inv_mpu_dmp_motion_driver.c ****             tmp[3] = DINA90;
1044:drivers/inv_mpu_dmp_motion_driver.c ****         }
1045:drivers/inv_mpu_dmp_motion_driver.c ****         mpu_write_mem(CFG_GYRO_RAW_DATA, 4, tmp);
1046:drivers/inv_mpu_dmp_motion_driver.c ****     }
1047:drivers/inv_mpu_dmp_motion_driver.c **** 
1048:drivers/inv_mpu_dmp_motion_driver.c ****     if (mask & DMP_FEATURE_TAP) {
1049:drivers/inv_mpu_dmp_motion_driver.c ****         /* Enable tap. */
1050:drivers/inv_mpu_dmp_motion_driver.c ****         tmp[0] = 0xF8;
1051:drivers/inv_mpu_dmp_motion_driver.c ****         mpu_write_mem(CFG_20, 1, tmp);
1052:drivers/inv_mpu_dmp_motion_driver.c ****         dmp_set_tap_thresh(TAP_XYZ, 250);
1053:drivers/inv_mpu_dmp_motion_driver.c ****         dmp_set_tap_axes(TAP_XYZ);
1054:drivers/inv_mpu_dmp_motion_driver.c ****         dmp_set_tap_count(1);
ARM GAS  /tmp/ccp3ezWO.s 			page 48


1055:drivers/inv_mpu_dmp_motion_driver.c ****         dmp_set_tap_time(100);
1056:drivers/inv_mpu_dmp_motion_driver.c ****         dmp_set_tap_time_multi(500);
1057:drivers/inv_mpu_dmp_motion_driver.c **** 
1058:drivers/inv_mpu_dmp_motion_driver.c ****         dmp_set_shake_reject_thresh(GYRO_SF, 200);
1059:drivers/inv_mpu_dmp_motion_driver.c ****         dmp_set_shake_reject_time(40);
1060:drivers/inv_mpu_dmp_motion_driver.c ****         dmp_set_shake_reject_timeout(10);
1061:drivers/inv_mpu_dmp_motion_driver.c ****     } else {
1062:drivers/inv_mpu_dmp_motion_driver.c ****         tmp[0] = 0xD8;
1063:drivers/inv_mpu_dmp_motion_driver.c ****         mpu_write_mem(CFG_20, 1, tmp);
1064:drivers/inv_mpu_dmp_motion_driver.c ****     }
1065:drivers/inv_mpu_dmp_motion_driver.c **** 
1066:drivers/inv_mpu_dmp_motion_driver.c ****     if (mask & DMP_FEATURE_ANDROID_ORIENT) {
1067:drivers/inv_mpu_dmp_motion_driver.c ****         tmp[0] = 0xD9;
1068:drivers/inv_mpu_dmp_motion_driver.c ****     } else
1069:drivers/inv_mpu_dmp_motion_driver.c ****         tmp[0] = 0xD8;
1070:drivers/inv_mpu_dmp_motion_driver.c ****     mpu_write_mem(CFG_ANDROID_ORIENT_INT, 1, tmp);
1071:drivers/inv_mpu_dmp_motion_driver.c **** 
1072:drivers/inv_mpu_dmp_motion_driver.c ****     if (mask & DMP_FEATURE_LP_QUAT)
1073:drivers/inv_mpu_dmp_motion_driver.c ****         dmp_enable_lp_quat(1);
1074:drivers/inv_mpu_dmp_motion_driver.c ****     else
1075:drivers/inv_mpu_dmp_motion_driver.c ****         dmp_enable_lp_quat(0);
1076:drivers/inv_mpu_dmp_motion_driver.c **** 
1077:drivers/inv_mpu_dmp_motion_driver.c ****     if (mask & DMP_FEATURE_6X_LP_QUAT)
1078:drivers/inv_mpu_dmp_motion_driver.c ****         dmp_enable_6x_lp_quat(1);
1079:drivers/inv_mpu_dmp_motion_driver.c ****     else
1080:drivers/inv_mpu_dmp_motion_driver.c ****         dmp_enable_6x_lp_quat(0);
1081:drivers/inv_mpu_dmp_motion_driver.c **** 
1082:drivers/inv_mpu_dmp_motion_driver.c ****     /* Pedometer is always enabled. */
1083:drivers/inv_mpu_dmp_motion_driver.c ****     dmp.feature_mask = mask | DMP_FEATURE_PEDOMETER;
1084:drivers/inv_mpu_dmp_motion_driver.c ****     mpu_reset_fifo();
1085:drivers/inv_mpu_dmp_motion_driver.c **** 
1086:drivers/inv_mpu_dmp_motion_driver.c ****     dmp.packet_length = 0;
1087:drivers/inv_mpu_dmp_motion_driver.c ****     if (mask & DMP_FEATURE_SEND_RAW_ACCEL)
1088:drivers/inv_mpu_dmp_motion_driver.c ****         dmp.packet_length += 6;
1089:drivers/inv_mpu_dmp_motion_driver.c ****     if (mask & DMP_FEATURE_SEND_ANY_GYRO)
1090:drivers/inv_mpu_dmp_motion_driver.c ****         dmp.packet_length += 6;
1091:drivers/inv_mpu_dmp_motion_driver.c ****     if (mask & (DMP_FEATURE_LP_QUAT | DMP_FEATURE_6X_LP_QUAT))
1092:drivers/inv_mpu_dmp_motion_driver.c ****         dmp.packet_length += 16;
1093:drivers/inv_mpu_dmp_motion_driver.c ****     if (mask & (DMP_FEATURE_TAP | DMP_FEATURE_ANDROID_ORIENT))
1094:drivers/inv_mpu_dmp_motion_driver.c ****         dmp.packet_length += 4;
1095:drivers/inv_mpu_dmp_motion_driver.c **** 
1096:drivers/inv_mpu_dmp_motion_driver.c ****     return 0;
1097:drivers/inv_mpu_dmp_motion_driver.c **** }
1098:drivers/inv_mpu_dmp_motion_driver.c **** 
1099:drivers/inv_mpu_dmp_motion_driver.c **** /**
1100:drivers/inv_mpu_dmp_motion_driver.c ****  *  @brief      Get list of currently enabled DMP features.
1101:drivers/inv_mpu_dmp_motion_driver.c ****  *  @param[out] Mask of enabled features.
1102:drivers/inv_mpu_dmp_motion_driver.c ****  *  @return     0 if successful.
1103:drivers/inv_mpu_dmp_motion_driver.c ****  */
1104:drivers/inv_mpu_dmp_motion_driver.c **** int dmp_get_enabled_features(unsigned short *mask)
1105:drivers/inv_mpu_dmp_motion_driver.c **** {
 1584              		.loc 1 1105 0
 1585              		.cfi_startproc
 1586              		@ args = 0, pretend = 0, frame = 0
 1587              		@ frame_needed = 0, uses_anonymous_args = 0
 1588              		@ link register save eliminated.
 1589              	.LVL163:
ARM GAS  /tmp/ccp3ezWO.s 			page 49


1106:drivers/inv_mpu_dmp_motion_driver.c ****     mask[0] = dmp.feature_mask;
 1590              		.loc 1 1106 0
 1591 07a8 024B     		ldr	r3, .L126
 1592 07aa 5B89     		ldrh	r3, [r3, #10]
 1593 07ac 0380     		strh	r3, [r0]	@ movhi
1107:drivers/inv_mpu_dmp_motion_driver.c ****     return 0;
1108:drivers/inv_mpu_dmp_motion_driver.c **** }
 1594              		.loc 1 1108 0
 1595 07ae 0020     		movs	r0, #0
 1596              	.LVL164:
 1597 07b0 7047     		bx	lr
 1598              	.L127:
 1599 07b2 00BF     		.align	2
 1600              	.L126:
 1601 07b4 00000000 		.word	.LANCHOR1
 1602              		.cfi_endproc
 1603              	.LFE83:
 1604              		.size	dmp_get_enabled_features, .-dmp_get_enabled_features
 1605              		.align	1
 1606              		.global	dmp_enable_gyro_cal
 1607              		.syntax unified
 1608              		.thumb
 1609              		.thumb_func
 1610              		.fpu softvfp
 1611              		.type	dmp_enable_gyro_cal, %function
 1612              	dmp_enable_gyro_cal:
 1613              	.LFB84:
1109:drivers/inv_mpu_dmp_motion_driver.c **** 
1110:drivers/inv_mpu_dmp_motion_driver.c **** /**
1111:drivers/inv_mpu_dmp_motion_driver.c ****  *  @brief      Calibrate the gyro data in the DMP.
1112:drivers/inv_mpu_dmp_motion_driver.c ****  *  After eight seconds of no motion, the DMP will compute gyro biases and
1113:drivers/inv_mpu_dmp_motion_driver.c ****  *  subtract them from the quaternion output. If @e dmp_enable_feature is
1114:drivers/inv_mpu_dmp_motion_driver.c ****  *  called with @e DMP_FEATURE_SEND_CAL_GYRO, the biases will also be
1115:drivers/inv_mpu_dmp_motion_driver.c ****  *  subtracted from the gyro output.
1116:drivers/inv_mpu_dmp_motion_driver.c ****  *  @param[in]  enable  1 to enable gyro calibration.
1117:drivers/inv_mpu_dmp_motion_driver.c ****  *  @return     0 if successful.
1118:drivers/inv_mpu_dmp_motion_driver.c ****  */
1119:drivers/inv_mpu_dmp_motion_driver.c **** int dmp_enable_gyro_cal(unsigned char enable)
1120:drivers/inv_mpu_dmp_motion_driver.c **** {
 1614              		.loc 1 1120 0
 1615              		.cfi_startproc
 1616              		@ args = 0, pretend = 0, frame = 16
 1617              		@ frame_needed = 0, uses_anonymous_args = 0
 1618              	.LVL165:
 1619 07b8 00B5     		push	{lr}
 1620              		.cfi_def_cfa_offset 4
 1621              		.cfi_offset 14, -4
 1622 07ba 85B0     		sub	sp, sp, #20
 1623              		.cfi_def_cfa_offset 24
1121:drivers/inv_mpu_dmp_motion_driver.c ****     if (enable) {
 1624              		.loc 1 1121 0
 1625 07bc 78B9     		cbnz	r0, .L132
 1626              	.LBB2:
1122:drivers/inv_mpu_dmp_motion_driver.c ****         unsigned char regs[9] = {0xb8, 0xaa, 0xb3, 0x8d, 0xb4, 0x98, 0x0d, 0x35, 0x5d};
1123:drivers/inv_mpu_dmp_motion_driver.c ****         return mpu_write_mem(CFG_MOTION_BIAS, 9, regs);
1124:drivers/inv_mpu_dmp_motion_driver.c ****     } else {
1125:drivers/inv_mpu_dmp_motion_driver.c ****         unsigned char regs[9] = {0xb8, 0xaa, 0xaa, 0xaa, 0xb0, 0x88, 0xc3, 0xc5, 0xc7};
ARM GAS  /tmp/ccp3ezWO.s 			page 50


 1627              		.loc 1 1125 0
 1628 07be 01AB     		add	r3, sp, #4
 1629 07c0 0E4A     		ldr	r2, .L133
 1630 07c2 1068     		ldr	r0, [r2]	@ unaligned
 1631              	.LVL166:
 1632 07c4 5168     		ldr	r1, [r2, #4]	@ unaligned
 1633 07c6 03C3     		stmia	r3!, {r0, r1}
 1634 07c8 127A     		ldrb	r2, [r2, #8]	@ zero_extendqisi2
 1635 07ca 1A70     		strb	r2, [r3]
1126:drivers/inv_mpu_dmp_motion_driver.c ****         return mpu_write_mem(CFG_MOTION_BIAS, 9, regs);
 1636              		.loc 1 1126 0
 1637 07cc 01AA     		add	r2, sp, #4
 1638 07ce 0921     		movs	r1, #9
 1639 07d0 4FF49760 		mov	r0, #1208
 1640 07d4 FFF7FEFF 		bl	mpu_write_mem
 1641              	.LVL167:
 1642              	.L128:
 1643              	.LBE2:
1127:drivers/inv_mpu_dmp_motion_driver.c ****     }
1128:drivers/inv_mpu_dmp_motion_driver.c **** }
 1644              		.loc 1 1128 0
 1645 07d8 05B0     		add	sp, sp, #20
 1646              		.cfi_remember_state
 1647              		.cfi_def_cfa_offset 4
 1648              		@ sp needed
 1649 07da 5DF804FB 		ldr	pc, [sp], #4
 1650              	.LVL168:
 1651              	.L132:
 1652              		.cfi_restore_state
 1653              	.LBB3:
1122:drivers/inv_mpu_dmp_motion_driver.c ****         return mpu_write_mem(CFG_MOTION_BIAS, 9, regs);
 1654              		.loc 1 1122 0
 1655 07de 01AB     		add	r3, sp, #4
 1656 07e0 074A     		ldr	r2, .L133+4
 1657 07e2 1068     		ldr	r0, [r2]	@ unaligned
 1658              	.LVL169:
 1659 07e4 5168     		ldr	r1, [r2, #4]	@ unaligned
 1660 07e6 03C3     		stmia	r3!, {r0, r1}
 1661 07e8 127A     		ldrb	r2, [r2, #8]	@ zero_extendqisi2
 1662 07ea 1A70     		strb	r2, [r3]
1123:drivers/inv_mpu_dmp_motion_driver.c ****     } else {
 1663              		.loc 1 1123 0
 1664 07ec 01AA     		add	r2, sp, #4
 1665 07ee 0921     		movs	r1, #9
 1666 07f0 4FF49760 		mov	r0, #1208
 1667 07f4 FFF7FEFF 		bl	mpu_write_mem
 1668              	.LVL170:
 1669 07f8 EEE7     		b	.L128
 1670              	.L134:
 1671 07fa 00BF     		.align	2
 1672              	.L133:
 1673 07fc 100C0000 		.word	.LANCHOR0+3088
 1674 0800 040C0000 		.word	.LANCHOR0+3076
 1675              	.LBE3:
 1676              		.cfi_endproc
 1677              	.LFE84:
 1678              		.size	dmp_enable_gyro_cal, .-dmp_enable_gyro_cal
ARM GAS  /tmp/ccp3ezWO.s 			page 51


 1679              		.align	1
 1680              		.global	dmp_enable_lp_quat
 1681              		.syntax unified
 1682              		.thumb
 1683              		.thumb_func
 1684              		.fpu softvfp
 1685              		.type	dmp_enable_lp_quat, %function
 1686              	dmp_enable_lp_quat:
 1687              	.LFB85:
1129:drivers/inv_mpu_dmp_motion_driver.c **** 
1130:drivers/inv_mpu_dmp_motion_driver.c **** /**
1131:drivers/inv_mpu_dmp_motion_driver.c ****  *  @brief      Generate 3-axis quaternions from the DMP.
1132:drivers/inv_mpu_dmp_motion_driver.c ****  *  In this driver, the 3-axis and 6-axis DMP quaternion features are mutually
1133:drivers/inv_mpu_dmp_motion_driver.c ****  *  exclusive.
1134:drivers/inv_mpu_dmp_motion_driver.c ****  *  @param[in]  enable  1 to enable 3-axis quaternion.
1135:drivers/inv_mpu_dmp_motion_driver.c ****  *  @return     0 if successful.
1136:drivers/inv_mpu_dmp_motion_driver.c ****  */
1137:drivers/inv_mpu_dmp_motion_driver.c **** int dmp_enable_lp_quat(unsigned char enable)
1138:drivers/inv_mpu_dmp_motion_driver.c **** {
 1688              		.loc 1 1138 0
 1689              		.cfi_startproc
 1690              		@ args = 0, pretend = 0, frame = 8
 1691              		@ frame_needed = 0, uses_anonymous_args = 0
 1692              	.LVL171:
 1693 0804 00B5     		push	{lr}
 1694              		.cfi_def_cfa_offset 4
 1695              		.cfi_offset 14, -4
 1696 0806 83B0     		sub	sp, sp, #12
 1697              		.cfi_def_cfa_offset 16
1139:drivers/inv_mpu_dmp_motion_driver.c ****     unsigned char regs[4];
1140:drivers/inv_mpu_dmp_motion_driver.c ****     if (enable) {
 1698              		.loc 1 1140 0
 1699 0808 B0B1     		cbz	r0, .L136
1141:drivers/inv_mpu_dmp_motion_driver.c ****         regs[0] = DINBC0;
 1700              		.loc 1 1141 0
 1701 080a C023     		movs	r3, #192
 1702 080c 8DF80430 		strb	r3, [sp, #4]
1142:drivers/inv_mpu_dmp_motion_driver.c ****         regs[1] = DINBC2;
 1703              		.loc 1 1142 0
 1704 0810 C223     		movs	r3, #194
 1705 0812 8DF80530 		strb	r3, [sp, #5]
1143:drivers/inv_mpu_dmp_motion_driver.c ****         regs[2] = DINBC4;
 1706              		.loc 1 1143 0
 1707 0816 C423     		movs	r3, #196
 1708 0818 8DF80630 		strb	r3, [sp, #6]
1144:drivers/inv_mpu_dmp_motion_driver.c ****         regs[3] = DINBC6;
 1709              		.loc 1 1144 0
 1710 081c C623     		movs	r3, #198
 1711 081e 8DF80730 		strb	r3, [sp, #7]
 1712              	.L137:
1145:drivers/inv_mpu_dmp_motion_driver.c ****     }
1146:drivers/inv_mpu_dmp_motion_driver.c ****     else
1147:drivers/inv_mpu_dmp_motion_driver.c ****         memset(regs, 0x8B, 4);
1148:drivers/inv_mpu_dmp_motion_driver.c **** 
1149:drivers/inv_mpu_dmp_motion_driver.c ****     mpu_write_mem(CFG_LP_QUAT, 4, regs);
 1713              		.loc 1 1149 0
 1714 0822 01AA     		add	r2, sp, #4
ARM GAS  /tmp/ccp3ezWO.s 			page 52


 1715 0824 0421     		movs	r1, #4
 1716 0826 40F69820 		movw	r0, #2712
 1717              	.LVL172:
 1718 082a FFF7FEFF 		bl	mpu_write_mem
 1719              	.LVL173:
1150:drivers/inv_mpu_dmp_motion_driver.c **** 
1151:drivers/inv_mpu_dmp_motion_driver.c ****     return mpu_reset_fifo();
 1720              		.loc 1 1151 0
 1721 082e FFF7FEFF 		bl	mpu_reset_fifo
 1722              	.LVL174:
1152:drivers/inv_mpu_dmp_motion_driver.c **** }
 1723              		.loc 1 1152 0
 1724 0832 03B0     		add	sp, sp, #12
 1725              		.cfi_remember_state
 1726              		.cfi_def_cfa_offset 4
 1727              		@ sp needed
 1728 0834 5DF804FB 		ldr	pc, [sp], #4
 1729              	.LVL175:
 1730              	.L136:
 1731              		.cfi_restore_state
1147:drivers/inv_mpu_dmp_motion_driver.c **** 
 1732              		.loc 1 1147 0
 1733 0838 4FF08B33 		mov	r3, #-1953789045
 1734 083c 0193     		str	r3, [sp, #4]
 1735 083e F0E7     		b	.L137
 1736              		.cfi_endproc
 1737              	.LFE85:
 1738              		.size	dmp_enable_lp_quat, .-dmp_enable_lp_quat
 1739              		.align	1
 1740              		.global	dmp_enable_6x_lp_quat
 1741              		.syntax unified
 1742              		.thumb
 1743              		.thumb_func
 1744              		.fpu softvfp
 1745              		.type	dmp_enable_6x_lp_quat, %function
 1746              	dmp_enable_6x_lp_quat:
 1747              	.LFB86:
1153:drivers/inv_mpu_dmp_motion_driver.c **** 
1154:drivers/inv_mpu_dmp_motion_driver.c **** /**
1155:drivers/inv_mpu_dmp_motion_driver.c ****  *  @brief       Generate 6-axis quaternions from the DMP.
1156:drivers/inv_mpu_dmp_motion_driver.c ****  *  In this driver, the 3-axis and 6-axis DMP quaternion features are mutually
1157:drivers/inv_mpu_dmp_motion_driver.c ****  *  exclusive.
1158:drivers/inv_mpu_dmp_motion_driver.c ****  *  @param[in]   enable  1 to enable 6-axis quaternion.
1159:drivers/inv_mpu_dmp_motion_driver.c ****  *  @return      0 if successful.
1160:drivers/inv_mpu_dmp_motion_driver.c ****  */
1161:drivers/inv_mpu_dmp_motion_driver.c **** int dmp_enable_6x_lp_quat(unsigned char enable)
1162:drivers/inv_mpu_dmp_motion_driver.c **** {
 1748              		.loc 1 1162 0
 1749              		.cfi_startproc
 1750              		@ args = 0, pretend = 0, frame = 8
 1751              		@ frame_needed = 0, uses_anonymous_args = 0
 1752              	.LVL176:
 1753 0840 00B5     		push	{lr}
 1754              		.cfi_def_cfa_offset 4
 1755              		.cfi_offset 14, -4
 1756 0842 83B0     		sub	sp, sp, #12
 1757              		.cfi_def_cfa_offset 16
ARM GAS  /tmp/ccp3ezWO.s 			page 53


1163:drivers/inv_mpu_dmp_motion_driver.c ****     unsigned char regs[4];
1164:drivers/inv_mpu_dmp_motion_driver.c ****     if (enable) {
 1758              		.loc 1 1164 0
 1759 0844 B0B1     		cbz	r0, .L140
1165:drivers/inv_mpu_dmp_motion_driver.c ****         regs[0] = DINA20;
 1760              		.loc 1 1165 0
 1761 0846 2023     		movs	r3, #32
 1762 0848 8DF80430 		strb	r3, [sp, #4]
1166:drivers/inv_mpu_dmp_motion_driver.c ****         regs[1] = DINA28;
 1763              		.loc 1 1166 0
 1764 084c 2823     		movs	r3, #40
 1765 084e 8DF80530 		strb	r3, [sp, #5]
1167:drivers/inv_mpu_dmp_motion_driver.c ****         regs[2] = DINA30;
 1766              		.loc 1 1167 0
 1767 0852 3023     		movs	r3, #48
 1768 0854 8DF80630 		strb	r3, [sp, #6]
1168:drivers/inv_mpu_dmp_motion_driver.c ****         regs[3] = DINA38;
 1769              		.loc 1 1168 0
 1770 0858 3823     		movs	r3, #56
 1771 085a 8DF80730 		strb	r3, [sp, #7]
 1772              	.L141:
1169:drivers/inv_mpu_dmp_motion_driver.c ****     } else
1170:drivers/inv_mpu_dmp_motion_driver.c ****         memset(regs, 0xA3, 4);
1171:drivers/inv_mpu_dmp_motion_driver.c **** 
1172:drivers/inv_mpu_dmp_motion_driver.c ****     mpu_write_mem(CFG_8, 4, regs);
 1773              		.loc 1 1172 0
 1774 085e 01AA     		add	r2, sp, #4
 1775 0860 0421     		movs	r1, #4
 1776 0862 40F69E20 		movw	r0, #2718
 1777              	.LVL177:
 1778 0866 FFF7FEFF 		bl	mpu_write_mem
 1779              	.LVL178:
1173:drivers/inv_mpu_dmp_motion_driver.c **** 
1174:drivers/inv_mpu_dmp_motion_driver.c ****     return mpu_reset_fifo();
 1780              		.loc 1 1174 0
 1781 086a FFF7FEFF 		bl	mpu_reset_fifo
 1782              	.LVL179:
1175:drivers/inv_mpu_dmp_motion_driver.c **** }
 1783              		.loc 1 1175 0
 1784 086e 03B0     		add	sp, sp, #12
 1785              		.cfi_remember_state
 1786              		.cfi_def_cfa_offset 4
 1787              		@ sp needed
 1788 0870 5DF804FB 		ldr	pc, [sp], #4
 1789              	.LVL180:
 1790              	.L140:
 1791              		.cfi_restore_state
1170:drivers/inv_mpu_dmp_motion_driver.c **** 
 1792              		.loc 1 1170 0
 1793 0874 4FF0A333 		mov	r3, #-1549556829
 1794 0878 0193     		str	r3, [sp, #4]
 1795 087a F0E7     		b	.L141
 1796              		.cfi_endproc
 1797              	.LFE86:
 1798              		.size	dmp_enable_6x_lp_quat, .-dmp_enable_6x_lp_quat
 1799              		.align	1
 1800              		.global	dmp_enable_feature
ARM GAS  /tmp/ccp3ezWO.s 			page 54


 1801              		.syntax unified
 1802              		.thumb
 1803              		.thumb_func
 1804              		.fpu softvfp
 1805              		.type	dmp_enable_feature, %function
 1806              	dmp_enable_feature:
 1807              	.LFB82:
 983:drivers/inv_mpu_dmp_motion_driver.c ****     unsigned char tmp[10];
 1808              		.loc 1 983 0
 1809              		.cfi_startproc
 1810              		@ args = 0, pretend = 0, frame = 16
 1811              		@ frame_needed = 0, uses_anonymous_args = 0
 1812              	.LVL181:
 1813 087c F0B5     		push	{r4, r5, r6, r7, lr}
 1814              		.cfi_def_cfa_offset 20
 1815              		.cfi_offset 4, -20
 1816              		.cfi_offset 5, -16
 1817              		.cfi_offset 6, -12
 1818              		.cfi_offset 7, -8
 1819              		.cfi_offset 14, -4
 1820 087e 85B0     		sub	sp, sp, #20
 1821              		.cfi_def_cfa_offset 40
 1822 0880 0446     		mov	r4, r0
 990:drivers/inv_mpu_dmp_motion_driver.c ****     tmp[1] = (unsigned char)((GYRO_SF >> 16) & 0xFF);
 1823              		.loc 1 990 0
 1824 0882 0223     		movs	r3, #2
 1825 0884 8DF80430 		strb	r3, [sp, #4]
 991:drivers/inv_mpu_dmp_motion_driver.c ****     tmp[2] = (unsigned char)((GYRO_SF >> 8) & 0xFF);
 1826              		.loc 1 991 0
 1827 0888 CA23     		movs	r3, #202
 1828 088a 8DF80530 		strb	r3, [sp, #5]
 992:drivers/inv_mpu_dmp_motion_driver.c ****     tmp[3] = (unsigned char)(GYRO_SF & 0xFF);
 1829              		.loc 1 992 0
 1830 088e E323     		movs	r3, #227
 1831 0890 8DF80630 		strb	r3, [sp, #6]
 993:drivers/inv_mpu_dmp_motion_driver.c ****     mpu_write_mem(D_0_104, 4, tmp);
 1832              		.loc 1 993 0
 1833 0894 0923     		movs	r3, #9
 1834 0896 8DF80730 		strb	r3, [sp, #7]
 994:drivers/inv_mpu_dmp_motion_driver.c **** 
 1835              		.loc 1 994 0
 1836 089a 01AA     		add	r2, sp, #4
 1837 089c 0421     		movs	r1, #4
 1838 089e 6820     		movs	r0, #104
 1839              	.LVL182:
 1840 08a0 FFF7FEFF 		bl	mpu_write_mem
 1841              	.LVL183:
 997:drivers/inv_mpu_dmp_motion_driver.c ****     if (mask & DMP_FEATURE_SEND_RAW_ACCEL) {
 1842              		.loc 1 997 0
 1843 08a4 A323     		movs	r3, #163
 1844 08a6 8DF80430 		strb	r3, [sp, #4]
 998:drivers/inv_mpu_dmp_motion_driver.c ****         tmp[1] = 0xC0;
 1845              		.loc 1 998 0
 1846 08aa 14F04007 		ands	r7, r4, #64
 1847 08ae 00F0AF80 		beq	.L144
 999:drivers/inv_mpu_dmp_motion_driver.c ****         tmp[2] = 0xC8;
 1848              		.loc 1 999 0
ARM GAS  /tmp/ccp3ezWO.s 			page 55


 1849 08b2 C023     		movs	r3, #192
 1850 08b4 8DF80530 		strb	r3, [sp, #5]
1000:drivers/inv_mpu_dmp_motion_driver.c ****         tmp[3] = 0xC2;
 1851              		.loc 1 1000 0
 1852 08b8 C823     		movs	r3, #200
 1853 08ba 8DF80630 		strb	r3, [sp, #6]
1001:drivers/inv_mpu_dmp_motion_driver.c ****     } else {
 1854              		.loc 1 1001 0
 1855 08be C223     		movs	r3, #194
 1856 08c0 8DF80730 		strb	r3, [sp, #7]
 1857              	.L145:
1007:drivers/inv_mpu_dmp_motion_driver.c ****         tmp[4] = 0xC4;
 1858              		.loc 1 1007 0
 1859 08c4 14F4C075 		ands	r5, r4, #384
 1860 08c8 00F0AA80 		beq	.L146
1008:drivers/inv_mpu_dmp_motion_driver.c ****         tmp[5] = 0xCC;
 1861              		.loc 1 1008 0
 1862 08cc C423     		movs	r3, #196
 1863 08ce 8DF80830 		strb	r3, [sp, #8]
1009:drivers/inv_mpu_dmp_motion_driver.c ****         tmp[6] = 0xC6;
 1864              		.loc 1 1009 0
 1865 08d2 CC23     		movs	r3, #204
 1866 08d4 8DF80930 		strb	r3, [sp, #9]
1010:drivers/inv_mpu_dmp_motion_driver.c ****     } else {
 1867              		.loc 1 1010 0
 1868 08d8 C623     		movs	r3, #198
 1869 08da 8DF80A30 		strb	r3, [sp, #10]
 1870              	.L147:
1016:drivers/inv_mpu_dmp_motion_driver.c ****     tmp[8] = 0xA3;
 1871              		.loc 1 1016 0
 1872 08de A323     		movs	r3, #163
 1873 08e0 8DF80B30 		strb	r3, [sp, #11]
1017:drivers/inv_mpu_dmp_motion_driver.c ****     tmp[9] = 0xA3;
 1874              		.loc 1 1017 0
 1875 08e4 8DF80C30 		strb	r3, [sp, #12]
1018:drivers/inv_mpu_dmp_motion_driver.c ****     mpu_write_mem(CFG_15,10,tmp);
 1876              		.loc 1 1018 0
 1877 08e8 8DF80D30 		strb	r3, [sp, #13]
1019:drivers/inv_mpu_dmp_motion_driver.c **** 
 1878              		.loc 1 1019 0
 1879 08ec 01AA     		add	r2, sp, #4
 1880 08ee 0A21     		movs	r1, #10
 1881 08f0 40F6A720 		movw	r0, #2727
 1882 08f4 FFF7FEFF 		bl	mpu_write_mem
 1883              	.LVL184:
1022:drivers/inv_mpu_dmp_motion_driver.c ****         tmp[0] = DINA20;
 1884              		.loc 1 1022 0
 1885 08f8 14F00306 		ands	r6, r4, #3
1023:drivers/inv_mpu_dmp_motion_driver.c ****     else
 1886              		.loc 1 1023 0
 1887 08fc 14BF     		ite	ne
 1888 08fe 2023     		movne	r3, #32
1025:drivers/inv_mpu_dmp_motion_driver.c ****     mpu_write_mem(CFG_27,1,tmp);
 1889              		.loc 1 1025 0
 1890 0900 D823     		moveq	r3, #216
 1891 0902 8DF80430 		strb	r3, [sp, #4]
1026:drivers/inv_mpu_dmp_motion_driver.c **** 
ARM GAS  /tmp/ccp3ezWO.s 			page 56


 1892              		.loc 1 1026 0
 1893 0906 01AA     		add	r2, sp, #4
 1894 0908 0121     		movs	r1, #1
 1895 090a 40F6B620 		movw	r0, #2742
 1896 090e FFF7FEFF 		bl	mpu_write_mem
 1897              	.LVL185:
1028:drivers/inv_mpu_dmp_motion_driver.c ****         dmp_enable_gyro_cal(1);
 1898              		.loc 1 1028 0
 1899 0912 14F0200F 		tst	r4, #32
1029:drivers/inv_mpu_dmp_motion_driver.c ****     else
 1900              		.loc 1 1029 0
 1901 0916 14BF     		ite	ne
 1902 0918 0120     		movne	r0, #1
1031:drivers/inv_mpu_dmp_motion_driver.c **** 
 1903              		.loc 1 1031 0
 1904 091a 0020     		moveq	r0, #0
 1905 091c FFF7FEFF 		bl	dmp_enable_gyro_cal
 1906              	.LVL186:
1033:drivers/inv_mpu_dmp_motion_driver.c ****         if (mask & DMP_FEATURE_SEND_CAL_GYRO) {
 1907              		.loc 1 1033 0
 1908 0920 ADB1     		cbz	r5, .L152
1034:drivers/inv_mpu_dmp_motion_driver.c ****             tmp[0] = 0xB2;
 1909              		.loc 1 1034 0
 1910 0922 14F4807F 		tst	r4, #256
 1911 0926 00F08380 		beq	.L153
1035:drivers/inv_mpu_dmp_motion_driver.c ****             tmp[1] = 0x8B;
 1912              		.loc 1 1035 0
 1913 092a B223     		movs	r3, #178
 1914 092c 8DF80430 		strb	r3, [sp, #4]
1036:drivers/inv_mpu_dmp_motion_driver.c ****             tmp[2] = 0xB6;
 1915              		.loc 1 1036 0
 1916 0930 8B23     		movs	r3, #139
 1917 0932 8DF80530 		strb	r3, [sp, #5]
1037:drivers/inv_mpu_dmp_motion_driver.c ****             tmp[3] = 0x9B;
 1918              		.loc 1 1037 0
 1919 0936 B623     		movs	r3, #182
 1920 0938 8DF80630 		strb	r3, [sp, #6]
1038:drivers/inv_mpu_dmp_motion_driver.c ****         } else {
 1921              		.loc 1 1038 0
 1922 093c 9B23     		movs	r3, #155
 1923 093e 8DF80730 		strb	r3, [sp, #7]
 1924              	.L154:
1045:drivers/inv_mpu_dmp_motion_driver.c ****     }
 1925              		.loc 1 1045 0
 1926 0942 01AA     		add	r2, sp, #4
 1927 0944 0421     		movs	r1, #4
 1928 0946 40F6A220 		movw	r0, #2722
 1929 094a FFF7FEFF 		bl	mpu_write_mem
 1930              	.LVL187:
 1931              	.L152:
1048:drivers/inv_mpu_dmp_motion_driver.c ****         /* Enable tap. */
 1932              		.loc 1 1048 0
 1933 094e 14F0010F 		tst	r4, #1
 1934 0952 7AD0     		beq	.L155
1050:drivers/inv_mpu_dmp_motion_driver.c ****         mpu_write_mem(CFG_20, 1, tmp);
 1935              		.loc 1 1050 0
 1936 0954 04AA     		add	r2, sp, #16
ARM GAS  /tmp/ccp3ezWO.s 			page 57


 1937 0956 F823     		movs	r3, #248
 1938 0958 02F80C3D 		strb	r3, [r2, #-12]!
1051:drivers/inv_mpu_dmp_motion_driver.c ****         dmp_set_tap_thresh(TAP_XYZ, 250);
 1939              		.loc 1 1051 0
 1940 095c 0121     		movs	r1, #1
 1941 095e 4FF40B60 		mov	r0, #2224
 1942 0962 FFF7FEFF 		bl	mpu_write_mem
 1943              	.LVL188:
1052:drivers/inv_mpu_dmp_motion_driver.c ****         dmp_set_tap_axes(TAP_XYZ);
 1944              		.loc 1 1052 0
 1945 0966 FA21     		movs	r1, #250
 1946 0968 0720     		movs	r0, #7
 1947 096a FFF7FEFF 		bl	dmp_set_tap_thresh
 1948              	.LVL189:
1053:drivers/inv_mpu_dmp_motion_driver.c ****         dmp_set_tap_count(1);
 1949              		.loc 1 1053 0
 1950 096e 0720     		movs	r0, #7
 1951 0970 FFF7FEFF 		bl	dmp_set_tap_axes
 1952              	.LVL190:
1054:drivers/inv_mpu_dmp_motion_driver.c ****         dmp_set_tap_time(100);
 1953              		.loc 1 1054 0
 1954 0974 0120     		movs	r0, #1
 1955 0976 FFF7FEFF 		bl	dmp_set_tap_count
 1956              	.LVL191:
1055:drivers/inv_mpu_dmp_motion_driver.c ****         dmp_set_tap_time_multi(500);
 1957              		.loc 1 1055 0
 1958 097a 6420     		movs	r0, #100
 1959 097c FFF7FEFF 		bl	dmp_set_tap_time
 1960              	.LVL192:
1056:drivers/inv_mpu_dmp_motion_driver.c **** 
 1961              		.loc 1 1056 0
 1962 0980 4FF4FA70 		mov	r0, #500
 1963 0984 FFF7FEFF 		bl	dmp_set_tap_time_multi
 1964              	.LVL193:
1058:drivers/inv_mpu_dmp_motion_driver.c ****         dmp_set_shake_reject_time(40);
 1965              		.loc 1 1058 0
 1966 0988 C821     		movs	r1, #200
 1967 098a 3748     		ldr	r0, .L169
 1968 098c FFF7FEFF 		bl	dmp_set_shake_reject_thresh
 1969              	.LVL194:
1059:drivers/inv_mpu_dmp_motion_driver.c ****         dmp_set_shake_reject_timeout(10);
 1970              		.loc 1 1059 0
 1971 0990 2820     		movs	r0, #40
 1972 0992 FFF7FEFF 		bl	dmp_set_shake_reject_time
 1973              	.LVL195:
1060:drivers/inv_mpu_dmp_motion_driver.c ****     } else {
 1974              		.loc 1 1060 0
 1975 0996 0A20     		movs	r0, #10
 1976 0998 FFF7FEFF 		bl	dmp_set_shake_reject_timeout
 1977              	.LVL196:
 1978              	.L156:
1066:drivers/inv_mpu_dmp_motion_driver.c ****         tmp[0] = 0xD9;
 1979              		.loc 1 1066 0
 1980 099c 14F0020F 		tst	r4, #2
1067:drivers/inv_mpu_dmp_motion_driver.c ****     } else
 1981              		.loc 1 1067 0
 1982 09a0 14BF     		ite	ne
ARM GAS  /tmp/ccp3ezWO.s 			page 58


 1983 09a2 D923     		movne	r3, #217
1069:drivers/inv_mpu_dmp_motion_driver.c ****     mpu_write_mem(CFG_ANDROID_ORIENT_INT, 1, tmp);
 1984              		.loc 1 1069 0
 1985 09a4 D823     		moveq	r3, #216
 1986 09a6 8DF80430 		strb	r3, [sp, #4]
1070:drivers/inv_mpu_dmp_motion_driver.c **** 
 1987              		.loc 1 1070 0
 1988 09aa 01AA     		add	r2, sp, #4
 1989 09ac 0121     		movs	r1, #1
 1990 09ae 40F23D70 		movw	r0, #1853
 1991 09b2 FFF7FEFF 		bl	mpu_write_mem
 1992              	.LVL197:
1072:drivers/inv_mpu_dmp_motion_driver.c ****         dmp_enable_lp_quat(1);
 1993              		.loc 1 1072 0
 1994 09b6 14F0040F 		tst	r4, #4
1073:drivers/inv_mpu_dmp_motion_driver.c ****     else
 1995              		.loc 1 1073 0
 1996 09ba 14BF     		ite	ne
 1997 09bc 0120     		movne	r0, #1
1075:drivers/inv_mpu_dmp_motion_driver.c **** 
 1998              		.loc 1 1075 0
 1999 09be 0020     		moveq	r0, #0
 2000 09c0 FFF7FEFF 		bl	dmp_enable_lp_quat
 2001              	.LVL198:
1077:drivers/inv_mpu_dmp_motion_driver.c ****         dmp_enable_6x_lp_quat(1);
 2002              		.loc 1 1077 0
 2003 09c4 14F0100F 		tst	r4, #16
1078:drivers/inv_mpu_dmp_motion_driver.c ****     else
 2004              		.loc 1 1078 0
 2005 09c8 14BF     		ite	ne
 2006 09ca 0120     		movne	r0, #1
1080:drivers/inv_mpu_dmp_motion_driver.c **** 
 2007              		.loc 1 1080 0
 2008 09cc 0020     		moveq	r0, #0
 2009 09ce FFF7FEFF 		bl	dmp_enable_6x_lp_quat
 2010              	.LVL199:
1083:drivers/inv_mpu_dmp_motion_driver.c ****     mpu_reset_fifo();
 2011              		.loc 1 1083 0
 2012 09d2 44F00803 		orr	r3, r4, #8
 2013 09d6 254A     		ldr	r2, .L169+4
 2014 09d8 5381     		strh	r3, [r2, #10]	@ movhi
1084:drivers/inv_mpu_dmp_motion_driver.c **** 
 2015              		.loc 1 1084 0
 2016 09da FFF7FEFF 		bl	mpu_reset_fifo
 2017              	.LVL200:
1087:drivers/inv_mpu_dmp_motion_driver.c ****         dmp.packet_length += 6;
 2018              		.loc 1 1087 0
 2019 09de 002F     		cmp	r7, #0
 2020 09e0 3DD1     		bne	.L163
1086:drivers/inv_mpu_dmp_motion_driver.c ****     if (mask & DMP_FEATURE_SEND_RAW_ACCEL)
 2021              		.loc 1 1086 0
 2022 09e2 0022     		movs	r2, #0
 2023 09e4 214B     		ldr	r3, .L169+4
 2024 09e6 9A73     		strb	r2, [r3, #14]
 2025              	.L164:
1089:drivers/inv_mpu_dmp_motion_driver.c ****         dmp.packet_length += 6;
 2026              		.loc 1 1089 0
ARM GAS  /tmp/ccp3ezWO.s 			page 59


 2027 09e8 1DB1     		cbz	r5, .L165
1090:drivers/inv_mpu_dmp_motion_driver.c ****     if (mask & (DMP_FEATURE_LP_QUAT | DMP_FEATURE_6X_LP_QUAT))
 2028              		.loc 1 1090 0
 2029 09ea 204A     		ldr	r2, .L169+4
 2030 09ec 937B     		ldrb	r3, [r2, #14]	@ zero_extendqisi2
 2031 09ee 0633     		adds	r3, r3, #6
 2032 09f0 9373     		strb	r3, [r2, #14]
 2033              	.L165:
1091:drivers/inv_mpu_dmp_motion_driver.c ****         dmp.packet_length += 16;
 2034              		.loc 1 1091 0
 2035 09f2 14F0140F 		tst	r4, #20
 2036 09f6 03D0     		beq	.L166
1092:drivers/inv_mpu_dmp_motion_driver.c ****     if (mask & (DMP_FEATURE_TAP | DMP_FEATURE_ANDROID_ORIENT))
 2037              		.loc 1 1092 0
 2038 09f8 1C4A     		ldr	r2, .L169+4
 2039 09fa 937B     		ldrb	r3, [r2, #14]	@ zero_extendqisi2
 2040 09fc 1033     		adds	r3, r3, #16
 2041 09fe 9373     		strb	r3, [r2, #14]
 2042              	.L166:
1093:drivers/inv_mpu_dmp_motion_driver.c ****         dmp.packet_length += 4;
 2043              		.loc 1 1093 0
 2044 0a00 1EB1     		cbz	r6, .L167
1094:drivers/inv_mpu_dmp_motion_driver.c **** 
 2045              		.loc 1 1094 0
 2046 0a02 1A4A     		ldr	r2, .L169+4
 2047 0a04 937B     		ldrb	r3, [r2, #14]	@ zero_extendqisi2
 2048 0a06 0433     		adds	r3, r3, #4
 2049 0a08 9373     		strb	r3, [r2, #14]
 2050              	.L167:
1097:drivers/inv_mpu_dmp_motion_driver.c **** 
 2051              		.loc 1 1097 0
 2052 0a0a 0020     		movs	r0, #0
 2053 0a0c 05B0     		add	sp, sp, #20
 2054              		.cfi_remember_state
 2055              		.cfi_def_cfa_offset 20
 2056              		@ sp needed
 2057 0a0e F0BD     		pop	{r4, r5, r6, r7, pc}
 2058              	.L144:
 2059              		.cfi_restore_state
1003:drivers/inv_mpu_dmp_motion_driver.c ****         tmp[2] = 0xA3;
 2060              		.loc 1 1003 0
 2061 0a10 A323     		movs	r3, #163
 2062 0a12 8DF80530 		strb	r3, [sp, #5]
1004:drivers/inv_mpu_dmp_motion_driver.c ****         tmp[3] = 0xA3;
 2063              		.loc 1 1004 0
 2064 0a16 8DF80630 		strb	r3, [sp, #6]
1005:drivers/inv_mpu_dmp_motion_driver.c ****     }
 2065              		.loc 1 1005 0
 2066 0a1a 8DF80730 		strb	r3, [sp, #7]
 2067 0a1e 51E7     		b	.L145
 2068              	.L146:
1012:drivers/inv_mpu_dmp_motion_driver.c ****         tmp[5] = 0xA3;
 2069              		.loc 1 1012 0
 2070 0a20 A323     		movs	r3, #163
 2071 0a22 8DF80830 		strb	r3, [sp, #8]
1013:drivers/inv_mpu_dmp_motion_driver.c ****         tmp[6] = 0xA3;
 2072              		.loc 1 1013 0
ARM GAS  /tmp/ccp3ezWO.s 			page 60


 2073 0a26 8DF80930 		strb	r3, [sp, #9]
1014:drivers/inv_mpu_dmp_motion_driver.c ****     }
 2074              		.loc 1 1014 0
 2075 0a2a 8DF80A30 		strb	r3, [sp, #10]
 2076 0a2e 56E7     		b	.L147
 2077              	.L153:
1040:drivers/inv_mpu_dmp_motion_driver.c ****             tmp[1] = DINA80;
 2078              		.loc 1 1040 0
 2079 0a30 B023     		movs	r3, #176
 2080 0a32 8DF80430 		strb	r3, [sp, #4]
1041:drivers/inv_mpu_dmp_motion_driver.c ****             tmp[2] = DINAC2;
 2081              		.loc 1 1041 0
 2082 0a36 8023     		movs	r3, #128
 2083 0a38 8DF80530 		strb	r3, [sp, #5]
1042:drivers/inv_mpu_dmp_motion_driver.c ****             tmp[3] = DINA90;
 2084              		.loc 1 1042 0
 2085 0a3c B423     		movs	r3, #180
 2086 0a3e 8DF80630 		strb	r3, [sp, #6]
1043:drivers/inv_mpu_dmp_motion_driver.c ****         }
 2087              		.loc 1 1043 0
 2088 0a42 9023     		movs	r3, #144
 2089 0a44 8DF80730 		strb	r3, [sp, #7]
 2090 0a48 7BE7     		b	.L154
 2091              	.L155:
1062:drivers/inv_mpu_dmp_motion_driver.c ****         mpu_write_mem(CFG_20, 1, tmp);
 2092              		.loc 1 1062 0
 2093 0a4a 04AA     		add	r2, sp, #16
 2094 0a4c D823     		movs	r3, #216
 2095 0a4e 02F80C3D 		strb	r3, [r2, #-12]!
1063:drivers/inv_mpu_dmp_motion_driver.c ****     }
 2096              		.loc 1 1063 0
 2097 0a52 0121     		movs	r1, #1
 2098 0a54 4FF40B60 		mov	r0, #2224
 2099 0a58 FFF7FEFF 		bl	mpu_write_mem
 2100              	.LVL201:
 2101 0a5c 9EE7     		b	.L156
 2102              	.L163:
1088:drivers/inv_mpu_dmp_motion_driver.c ****     if (mask & DMP_FEATURE_SEND_ANY_GYRO)
 2103              		.loc 1 1088 0
 2104 0a5e 0622     		movs	r2, #6
 2105 0a60 024B     		ldr	r3, .L169+4
 2106 0a62 9A73     		strb	r2, [r3, #14]
 2107 0a64 C0E7     		b	.L164
 2108              	.L170:
 2109 0a66 00BF     		.align	2
 2110              	.L169:
 2111 0a68 09E3CA02 		.word	46850825
 2112 0a6c 00000000 		.word	.LANCHOR1
 2113              		.cfi_endproc
 2114              	.LFE82:
 2115              		.size	dmp_enable_feature, .-dmp_enable_feature
 2116              		.align	1
 2117              		.global	dmp_set_interrupt_mode
 2118              		.syntax unified
 2119              		.thumb
 2120              		.thumb_func
 2121              		.fpu softvfp
ARM GAS  /tmp/ccp3ezWO.s 			page 61


 2122              		.type	dmp_set_interrupt_mode, %function
 2123              	dmp_set_interrupt_mode:
 2124              	.LFB88:
1176:drivers/inv_mpu_dmp_motion_driver.c **** 
1177:drivers/inv_mpu_dmp_motion_driver.c **** /**
1178:drivers/inv_mpu_dmp_motion_driver.c ****  *  @brief      Decode the four-byte gesture data and execute any callbacks.
1179:drivers/inv_mpu_dmp_motion_driver.c ****  *  @param[in]  gesture Gesture data from DMP packet.
1180:drivers/inv_mpu_dmp_motion_driver.c ****  *  @return     0 if successful.
1181:drivers/inv_mpu_dmp_motion_driver.c ****  */
1182:drivers/inv_mpu_dmp_motion_driver.c **** static int decode_gesture(unsigned char *gesture)
1183:drivers/inv_mpu_dmp_motion_driver.c **** {
1184:drivers/inv_mpu_dmp_motion_driver.c ****     unsigned char tap, android_orient;
1185:drivers/inv_mpu_dmp_motion_driver.c **** 
1186:drivers/inv_mpu_dmp_motion_driver.c ****     android_orient = gesture[3] & 0xC0;
1187:drivers/inv_mpu_dmp_motion_driver.c ****     tap = 0x3F & gesture[3];
1188:drivers/inv_mpu_dmp_motion_driver.c **** 
1189:drivers/inv_mpu_dmp_motion_driver.c ****     if (gesture[1] & INT_SRC_TAP) {
1190:drivers/inv_mpu_dmp_motion_driver.c ****         unsigned char direction, count;
1191:drivers/inv_mpu_dmp_motion_driver.c ****         direction = tap >> 3;
1192:drivers/inv_mpu_dmp_motion_driver.c ****         count = (tap % 8) + 1;
1193:drivers/inv_mpu_dmp_motion_driver.c ****         if (dmp.tap_cb)
1194:drivers/inv_mpu_dmp_motion_driver.c ****             dmp.tap_cb(direction, count);
1195:drivers/inv_mpu_dmp_motion_driver.c ****     }
1196:drivers/inv_mpu_dmp_motion_driver.c **** 
1197:drivers/inv_mpu_dmp_motion_driver.c ****     if (gesture[1] & INT_SRC_ANDROID_ORIENT) {
1198:drivers/inv_mpu_dmp_motion_driver.c ****         if (dmp.android_orient_cb)
1199:drivers/inv_mpu_dmp_motion_driver.c ****             dmp.android_orient_cb(android_orient >> 6);
1200:drivers/inv_mpu_dmp_motion_driver.c ****     }
1201:drivers/inv_mpu_dmp_motion_driver.c **** 
1202:drivers/inv_mpu_dmp_motion_driver.c ****     return 0;
1203:drivers/inv_mpu_dmp_motion_driver.c **** }
1204:drivers/inv_mpu_dmp_motion_driver.c **** 
1205:drivers/inv_mpu_dmp_motion_driver.c **** /**
1206:drivers/inv_mpu_dmp_motion_driver.c ****  *  @brief      Specify when a DMP interrupt should occur.
1207:drivers/inv_mpu_dmp_motion_driver.c ****  *  A DMP interrupt can be configured to trigger on either of the two
1208:drivers/inv_mpu_dmp_motion_driver.c ****  *  conditions below:
1209:drivers/inv_mpu_dmp_motion_driver.c ****  *  \n a. One FIFO period has elapsed (set by @e mpu_set_sample_rate).
1210:drivers/inv_mpu_dmp_motion_driver.c ****  *  \n b. A tap event has been detected.
1211:drivers/inv_mpu_dmp_motion_driver.c ****  *  @param[in]  mode    DMP_INT_GESTURE or DMP_INT_CONTINUOUS.
1212:drivers/inv_mpu_dmp_motion_driver.c ****  *  @return     0 if successful.
1213:drivers/inv_mpu_dmp_motion_driver.c ****  */
1214:drivers/inv_mpu_dmp_motion_driver.c **** int dmp_set_interrupt_mode(unsigned char mode)
1215:drivers/inv_mpu_dmp_motion_driver.c **** {
 2125              		.loc 1 1215 0
 2126              		.cfi_startproc
 2127              		@ args = 0, pretend = 0, frame = 24
 2128              		@ frame_needed = 0, uses_anonymous_args = 0
 2129              	.LVL202:
 2130 0a70 30B5     		push	{r4, r5, lr}
 2131              		.cfi_def_cfa_offset 12
 2132              		.cfi_offset 4, -12
 2133              		.cfi_offset 5, -8
 2134              		.cfi_offset 14, -4
 2135 0a72 87B0     		sub	sp, sp, #28
 2136              		.cfi_def_cfa_offset 40
 2137 0a74 0546     		mov	r5, r0
1216:drivers/inv_mpu_dmp_motion_driver.c ****     const unsigned char regs_continuous[11] =
ARM GAS  /tmp/ccp3ezWO.s 			page 62


 2138              		.loc 1 1216 0
 2139 0a76 184B     		ldr	r3, .L178
 2140 0a78 03AA     		add	r2, sp, #12
 2141 0a7a D3F81C0C 		ldr	r0, [r3, #3100]	@ unaligned
 2142              	.LVL203:
 2143 0a7e D3F8201C 		ldr	r1, [r3, #3104]	@ unaligned
 2144 0a82 03C2     		stmia	r2!, {r0, r1}
 2145 0a84 B3F8240C 		ldrh	r0, [r3, #3108]	@ unaligned
 2146 0a88 93F8261C 		ldrb	r1, [r3, #3110]	@ zero_extendqisi2
 2147 0a8c 1080     		strh	r0, [r2]	@ unaligned
 2148 0a8e 9170     		strb	r1, [r2, #2]
1217:drivers/inv_mpu_dmp_motion_driver.c ****         {0xd8, 0xb1, 0xb9, 0xf3, 0x8b, 0xa3, 0x91, 0xb6, 0x09, 0xb4, 0xd9};
1218:drivers/inv_mpu_dmp_motion_driver.c ****     const unsigned char regs_gesture[11] =
 2149              		.loc 1 1218 0
 2150 0a90 6A46     		mov	r2, sp
 2151 0a92 D3F8280C 		ldr	r0, [r3, #3112]	@ unaligned
 2152 0a96 D3F82C1C 		ldr	r1, [r3, #3116]	@ unaligned
 2153 0a9a 03C2     		stmia	r2!, {r0, r1}
 2154 0a9c B3F8301C 		ldrh	r1, [r3, #3120]	@ unaligned
 2155 0aa0 03F62843 		addw	r3, r3, #3112
 2156 0aa4 9B7A     		ldrb	r3, [r3, #10]	@ zero_extendqisi2
 2157 0aa6 1180     		strh	r1, [r2]	@ unaligned
 2158 0aa8 9370     		strb	r3, [r2, #2]
1219:drivers/inv_mpu_dmp_motion_driver.c ****         {0xda, 0xb1, 0xb9, 0xf3, 0x8b, 0xa3, 0x91, 0xb6, 0xda, 0xb4, 0xda};
1220:drivers/inv_mpu_dmp_motion_driver.c **** 
1221:drivers/inv_mpu_dmp_motion_driver.c ****     switch (mode) {
 2159              		.loc 1 1221 0
 2160 0aaa 012D     		cmp	r5, #1
 2161 0aac 09D0     		beq	.L173
 2162 0aae 022D     		cmp	r5, #2
 2163 0ab0 0ED1     		bne	.L176
1222:drivers/inv_mpu_dmp_motion_driver.c ****     case DMP_INT_CONTINUOUS:
1223:drivers/inv_mpu_dmp_motion_driver.c ****         return mpu_write_mem(CFG_FIFO_ON_EVENT, 11,
 2164              		.loc 1 1223 0
 2165 0ab2 03AA     		add	r2, sp, #12
 2166 0ab4 0B21     		movs	r1, #11
 2167 0ab6 40F68220 		movw	r0, #2690
 2168 0aba FFF7FEFF 		bl	mpu_write_mem
 2169              	.LVL204:
 2170              	.L171:
1224:drivers/inv_mpu_dmp_motion_driver.c ****             (unsigned char*)regs_continuous);
1225:drivers/inv_mpu_dmp_motion_driver.c ****     case DMP_INT_GESTURE:
1226:drivers/inv_mpu_dmp_motion_driver.c ****         return mpu_write_mem(CFG_FIFO_ON_EVENT, 11,
1227:drivers/inv_mpu_dmp_motion_driver.c ****             (unsigned char*)regs_gesture);
1228:drivers/inv_mpu_dmp_motion_driver.c ****     default:
1229:drivers/inv_mpu_dmp_motion_driver.c ****         return -1;
1230:drivers/inv_mpu_dmp_motion_driver.c ****     }
1231:drivers/inv_mpu_dmp_motion_driver.c **** }
 2171              		.loc 1 1231 0
 2172 0abe 07B0     		add	sp, sp, #28
 2173              		.cfi_remember_state
 2174              		.cfi_def_cfa_offset 12
 2175              		@ sp needed
 2176 0ac0 30BD     		pop	{r4, r5, pc}
 2177              	.L173:
 2178              		.cfi_restore_state
1226:drivers/inv_mpu_dmp_motion_driver.c ****             (unsigned char*)regs_gesture);
ARM GAS  /tmp/ccp3ezWO.s 			page 63


 2179              		.loc 1 1226 0
 2180 0ac2 6A46     		mov	r2, sp
 2181 0ac4 0B21     		movs	r1, #11
 2182 0ac6 40F68220 		movw	r0, #2690
 2183 0aca FFF7FEFF 		bl	mpu_write_mem
 2184              	.LVL205:
 2185 0ace F6E7     		b	.L171
 2186              	.L176:
1229:drivers/inv_mpu_dmp_motion_driver.c ****     }
 2187              		.loc 1 1229 0
 2188 0ad0 4FF0FF30 		mov	r0, #-1
 2189 0ad4 F3E7     		b	.L171
 2190              	.L179:
 2191 0ad6 00BF     		.align	2
 2192              	.L178:
 2193 0ad8 00000000 		.word	.LANCHOR0
 2194              		.cfi_endproc
 2195              	.LFE88:
 2196              		.size	dmp_set_interrupt_mode, .-dmp_set_interrupt_mode
 2197              		.align	1
 2198              		.global	dmp_read_fifo
 2199              		.syntax unified
 2200              		.thumb
 2201              		.thumb_func
 2202              		.fpu softvfp
 2203              		.type	dmp_read_fifo, %function
 2204              	dmp_read_fifo:
 2205              	.LFB89:
1232:drivers/inv_mpu_dmp_motion_driver.c **** 
1233:drivers/inv_mpu_dmp_motion_driver.c **** /**
1234:drivers/inv_mpu_dmp_motion_driver.c ****  *  @brief      Get one packet from the FIFO.
1235:drivers/inv_mpu_dmp_motion_driver.c ****  *  If @e sensors does not contain a particular sensor, disregard the data
1236:drivers/inv_mpu_dmp_motion_driver.c ****  *  returned to that pointer.
1237:drivers/inv_mpu_dmp_motion_driver.c ****  *  \n @e sensors can contain a combination of the following flags:
1238:drivers/inv_mpu_dmp_motion_driver.c ****  *  \n INV_X_GYRO, INV_Y_GYRO, INV_Z_GYRO
1239:drivers/inv_mpu_dmp_motion_driver.c ****  *  \n INV_XYZ_GYRO
1240:drivers/inv_mpu_dmp_motion_driver.c ****  *  \n INV_XYZ_ACCEL
1241:drivers/inv_mpu_dmp_motion_driver.c ****  *  \n INV_WXYZ_QUAT
1242:drivers/inv_mpu_dmp_motion_driver.c ****  *  \n If the FIFO has no new data, @e sensors will be zero.
1243:drivers/inv_mpu_dmp_motion_driver.c ****  *  \n If the FIFO is disabled, @e sensors will be zero and this function will
1244:drivers/inv_mpu_dmp_motion_driver.c ****  *  return a non-zero error code.
1245:drivers/inv_mpu_dmp_motion_driver.c ****  *  @param[out] gyro        Gyro data in hardware units.
1246:drivers/inv_mpu_dmp_motion_driver.c ****  *  @param[out] accel       Accel data in hardware units.
1247:drivers/inv_mpu_dmp_motion_driver.c ****  *  @param[out] quat        3-axis quaternion data in hardware units.
1248:drivers/inv_mpu_dmp_motion_driver.c ****  *  @param[out] timestamp   Timestamp in milliseconds.
1249:drivers/inv_mpu_dmp_motion_driver.c ****  *  @param[out] sensors     Mask of sensors read from FIFO.
1250:drivers/inv_mpu_dmp_motion_driver.c ****  *  @param[out] more        Number of remaining packets.
1251:drivers/inv_mpu_dmp_motion_driver.c ****  *  @return     0 if successful.
1252:drivers/inv_mpu_dmp_motion_driver.c ****  */
1253:drivers/inv_mpu_dmp_motion_driver.c **** int dmp_read_fifo(short *gyro, short *accel, long *quat,
1254:drivers/inv_mpu_dmp_motion_driver.c ****     unsigned long *timestamp, short *sensors, unsigned char *more)
1255:drivers/inv_mpu_dmp_motion_driver.c **** {
 2206              		.loc 1 1255 0
 2207              		.cfi_startproc
 2208              		@ args = 8, pretend = 0, frame = 32
 2209              		@ frame_needed = 0, uses_anonymous_args = 0
 2210              	.LVL206:
ARM GAS  /tmp/ccp3ezWO.s 			page 64


 2211 0adc 2DE9F043 		push	{r4, r5, r6, r7, r8, r9, lr}
 2212              		.cfi_def_cfa_offset 28
 2213              		.cfi_offset 4, -28
 2214              		.cfi_offset 5, -24
 2215              		.cfi_offset 6, -20
 2216              		.cfi_offset 7, -16
 2217              		.cfi_offset 8, -12
 2218              		.cfi_offset 9, -8
 2219              		.cfi_offset 14, -4
 2220 0ae0 89B0     		sub	sp, sp, #36
 2221              		.cfi_def_cfa_offset 64
 2222 0ae2 0546     		mov	r5, r0
 2223 0ae4 0E46     		mov	r6, r1
 2224 0ae6 9146     		mov	r9, r2
 2225 0ae8 9846     		mov	r8, r3
 2226 0aea 109C     		ldr	r4, [sp, #64]
 2227              	.LVL207:
1256:drivers/inv_mpu_dmp_motion_driver.c ****     unsigned char fifo_data[MAX_PACKET_LENGTH];
1257:drivers/inv_mpu_dmp_motion_driver.c ****     unsigned char ii = 0;
1258:drivers/inv_mpu_dmp_motion_driver.c ****     sensors[0] = 0;
 2228              		.loc 1 1258 0
 2229 0aec 0023     		movs	r3, #0
 2230              	.LVL208:
 2231 0aee 2380     		strh	r3, [r4]	@ movhi
1259:drivers/inv_mpu_dmp_motion_driver.c **** 
1260:drivers/inv_mpu_dmp_motion_driver.c ****     /* Get a packet. */
1261:drivers/inv_mpu_dmp_motion_driver.c ****     if (mpu_read_fifo_stream(dmp.packet_length, fifo_data, more))
 2232              		.loc 1 1261 0
 2233 0af0 119A     		ldr	r2, [sp, #68]
 2234              	.LVL209:
 2235 0af2 6946     		mov	r1, sp
 2236              	.LVL210:
 2237 0af4 6B4B     		ldr	r3, .L193
 2238 0af6 987B     		ldrb	r0, [r3, #14]	@ zero_extendqisi2
 2239              	.LVL211:
 2240 0af8 FFF7FEFF 		bl	mpu_read_fifo_stream
 2241              	.LVL212:
 2242 0afc 0028     		cmp	r0, #0
 2243 0afe 40F0CE80 		bne	.L188
 2244 0b02 0746     		mov	r7, r0
1262:drivers/inv_mpu_dmp_motion_driver.c ****         return -1;
1263:drivers/inv_mpu_dmp_motion_driver.c **** 
1264:drivers/inv_mpu_dmp_motion_driver.c ****     /* Parse DMP packet. */
1265:drivers/inv_mpu_dmp_motion_driver.c ****     if (dmp.feature_mask & (DMP_FEATURE_LP_QUAT | DMP_FEATURE_6X_LP_QUAT)) {
 2245              		.loc 1 1265 0
 2246 0b04 674B     		ldr	r3, .L193
 2247 0b06 5A89     		ldrh	r2, [r3, #10]
 2248 0b08 12F0140F 		tst	r2, #20
 2249 0b0c 61D0     		beq	.L189
 2250              	.LBB8:
1266:drivers/inv_mpu_dmp_motion_driver.c **** #ifdef FIFO_CORRUPTION_CHECK
1267:drivers/inv_mpu_dmp_motion_driver.c ****         long quat_q14[4], quat_mag_sq;
1268:drivers/inv_mpu_dmp_motion_driver.c **** #endif
1269:drivers/inv_mpu_dmp_motion_driver.c ****         quat[0] = ((long)fifo_data[0] << 24) | ((long)fifo_data[1] << 16) |
 2251              		.loc 1 1269 0
 2252 0b0e 9DF80030 		ldrb	r3, [sp]	@ zero_extendqisi2
 2253 0b12 9DF80100 		ldrb	r0, [sp, #1]	@ zero_extendqisi2
ARM GAS  /tmp/ccp3ezWO.s 			page 65


 2254 0b16 0004     		lsls	r0, r0, #16
 2255 0b18 40EA0360 		orr	r0, r0, r3, lsl #24
1270:drivers/inv_mpu_dmp_motion_driver.c ****             ((long)fifo_data[2] << 8) | fifo_data[3];
 2256              		.loc 1 1270 0
 2257 0b1c 9DF80330 		ldrb	r3, [sp, #3]	@ zero_extendqisi2
 2258 0b20 1843     		orrs	r0, r0, r3
 2259 0b22 9DF80230 		ldrb	r3, [sp, #2]	@ zero_extendqisi2
 2260 0b26 40EA0320 		orr	r0, r0, r3, lsl #8
1269:drivers/inv_mpu_dmp_motion_driver.c ****             ((long)fifo_data[2] << 8) | fifo_data[3];
 2261              		.loc 1 1269 0
 2262 0b2a C9F80000 		str	r0, [r9]
1271:drivers/inv_mpu_dmp_motion_driver.c ****         quat[1] = ((long)fifo_data[4] << 24) | ((long)fifo_data[5] << 16) |
 2263              		.loc 1 1271 0
 2264 0b2e 9DF80430 		ldrb	r3, [sp, #4]	@ zero_extendqisi2
 2265 0b32 9DF805E0 		ldrb	lr, [sp, #5]	@ zero_extendqisi2
 2266 0b36 4FEA0E4E 		lsl	lr, lr, #16
 2267 0b3a 4EEA036E 		orr	lr, lr, r3, lsl #24
1272:drivers/inv_mpu_dmp_motion_driver.c ****             ((long)fifo_data[6] << 8) | fifo_data[7];
 2268              		.loc 1 1272 0
 2269 0b3e 9DF80730 		ldrb	r3, [sp, #7]	@ zero_extendqisi2
 2270 0b42 4EEA030E 		orr	lr, lr, r3
 2271 0b46 9DF80630 		ldrb	r3, [sp, #6]	@ zero_extendqisi2
 2272 0b4a 4EEA032E 		orr	lr, lr, r3, lsl #8
1271:drivers/inv_mpu_dmp_motion_driver.c ****         quat[1] = ((long)fifo_data[4] << 24) | ((long)fifo_data[5] << 16) |
 2273              		.loc 1 1271 0
 2274 0b4e C9F804E0 		str	lr, [r9, #4]
1273:drivers/inv_mpu_dmp_motion_driver.c ****         quat[2] = ((long)fifo_data[8] << 24) | ((long)fifo_data[9] << 16) |
 2275              		.loc 1 1273 0
 2276 0b52 9DF80830 		ldrb	r3, [sp, #8]	@ zero_extendqisi2
 2277 0b56 9DF80910 		ldrb	r1, [sp, #9]	@ zero_extendqisi2
 2278 0b5a 0904     		lsls	r1, r1, #16
 2279 0b5c 41EA0361 		orr	r1, r1, r3, lsl #24
1274:drivers/inv_mpu_dmp_motion_driver.c ****             ((long)fifo_data[10] << 8) | fifo_data[11];
 2280              		.loc 1 1274 0
 2281 0b60 9DF80B30 		ldrb	r3, [sp, #11]	@ zero_extendqisi2
 2282 0b64 1943     		orrs	r1, r1, r3
 2283 0b66 9DF80A30 		ldrb	r3, [sp, #10]	@ zero_extendqisi2
 2284 0b6a 41EA0321 		orr	r1, r1, r3, lsl #8
1273:drivers/inv_mpu_dmp_motion_driver.c ****         quat[2] = ((long)fifo_data[8] << 24) | ((long)fifo_data[9] << 16) |
 2285              		.loc 1 1273 0
 2286 0b6e C9F80810 		str	r1, [r9, #8]
1275:drivers/inv_mpu_dmp_motion_driver.c ****         quat[3] = ((long)fifo_data[12] << 24) | ((long)fifo_data[13] << 16) |
 2287              		.loc 1 1275 0
 2288 0b72 9DF80CC0 		ldrb	ip, [sp, #12]	@ zero_extendqisi2
 2289 0b76 9DF80D30 		ldrb	r3, [sp, #13]	@ zero_extendqisi2
 2290 0b7a 1B04     		lsls	r3, r3, #16
 2291 0b7c 43EA0C63 		orr	r3, r3, ip, lsl #24
1276:drivers/inv_mpu_dmp_motion_driver.c ****             ((long)fifo_data[14] << 8) | fifo_data[15];
 2292              		.loc 1 1276 0
 2293 0b80 9DF80FC0 		ldrb	ip, [sp, #15]	@ zero_extendqisi2
 2294 0b84 43EA0C03 		orr	r3, r3, ip
 2295 0b88 9DF80EC0 		ldrb	ip, [sp, #14]	@ zero_extendqisi2
 2296 0b8c 43EA0C23 		orr	r3, r3, ip, lsl #8
1275:drivers/inv_mpu_dmp_motion_driver.c ****         quat[3] = ((long)fifo_data[12] << 24) | ((long)fifo_data[13] << 16) |
 2297              		.loc 1 1275 0
 2298 0b90 C9F80C30 		str	r3, [r9, #12]
 2299              	.LVL213:
ARM GAS  /tmp/ccp3ezWO.s 			page 66


1277:drivers/inv_mpu_dmp_motion_driver.c ****         ii += 16;
1278:drivers/inv_mpu_dmp_motion_driver.c **** #ifdef FIFO_CORRUPTION_CHECK
1279:drivers/inv_mpu_dmp_motion_driver.c ****         /* We can detect a corrupted FIFO by monitoring the quaternion data and
1280:drivers/inv_mpu_dmp_motion_driver.c ****          * ensuring that the magnitude is always normalized to one. This
1281:drivers/inv_mpu_dmp_motion_driver.c ****          * shouldn't happen in normal operation, but if an I2C error occurs,
1282:drivers/inv_mpu_dmp_motion_driver.c ****          * the FIFO reads might become misaligned.
1283:drivers/inv_mpu_dmp_motion_driver.c ****          *
1284:drivers/inv_mpu_dmp_motion_driver.c ****          * Let's start by scaling down the quaternion data to avoid long long
1285:drivers/inv_mpu_dmp_motion_driver.c ****          * math.
1286:drivers/inv_mpu_dmp_motion_driver.c ****          */
1287:drivers/inv_mpu_dmp_motion_driver.c ****         quat_q14[0] = quat[0] >> 16;
 2300              		.loc 1 1287 0
 2301 0b94 0014     		asrs	r0, r0, #16
 2302              	.LVL214:
1288:drivers/inv_mpu_dmp_motion_driver.c ****         quat_q14[1] = quat[1] >> 16;
 2303              		.loc 1 1288 0
 2304 0b96 4FEA2E4E 		asr	lr, lr, #16
 2305              	.LVL215:
1289:drivers/inv_mpu_dmp_motion_driver.c ****         quat_q14[2] = quat[2] >> 16;
 2306              		.loc 1 1289 0
 2307 0b9a 0914     		asrs	r1, r1, #16
 2308              	.LVL216:
1290:drivers/inv_mpu_dmp_motion_driver.c ****         quat_q14[3] = quat[3] >> 16;
 2309              		.loc 1 1290 0
 2310 0b9c 1B14     		asrs	r3, r3, #16
 2311              	.LVL217:
1291:drivers/inv_mpu_dmp_motion_driver.c ****         quat_mag_sq = quat_q14[0] * quat_q14[0] + quat_q14[1] * quat_q14[1] +
 2312              		.loc 1 1291 0
 2313 0b9e 0EFB0EFE 		mul	lr, lr, lr
 2314              	.LVL218:
 2315 0ba2 00FB00E0 		mla	r0, r0, r0, lr
 2316              	.LVL219:
 2317 0ba6 01FB0101 		mla	r1, r1, r1, r0
 2318              	.LVL220:
 2319 0baa 03FB0313 		mla	r3, r3, r3, r1
 2320              	.LVL221:
1292:drivers/inv_mpu_dmp_motion_driver.c ****             quat_q14[2] * quat_q14[2] + quat_q14[3] * quat_q14[3];
1293:drivers/inv_mpu_dmp_motion_driver.c ****         if ((quat_mag_sq < QUAT_MAG_SQ_MIN) ||
 2321              		.loc 1 1293 0
 2322 0bae 03F17143 		add	r3, r3, #-251658240
 2323 0bb2 B3F1007F 		cmp	r3, #33554432
 2324 0bb6 05D8     		bhi	.L191
1294:drivers/inv_mpu_dmp_motion_driver.c ****             (quat_mag_sq > QUAT_MAG_SQ_MAX)) {
1295:drivers/inv_mpu_dmp_motion_driver.c ****             /* Quaternion is outside of the acceptable threshold. */
1296:drivers/inv_mpu_dmp_motion_driver.c ****             mpu_reset_fifo();
1297:drivers/inv_mpu_dmp_motion_driver.c ****             sensors[0] = 0;
1298:drivers/inv_mpu_dmp_motion_driver.c ****             return -1;
1299:drivers/inv_mpu_dmp_motion_driver.c ****         }
1300:drivers/inv_mpu_dmp_motion_driver.c ****         sensors[0] |= INV_WXYZ_QUAT;
 2325              		.loc 1 1300 0
 2326 0bb8 2388     		ldrh	r3, [r4]
 2327 0bba 43F48073 		orr	r3, r3, #256
 2328 0bbe 2380     		strh	r3, [r4]	@ movhi
 2329              	.LVL222:
1277:drivers/inv_mpu_dmp_motion_driver.c **** #ifdef FIFO_CORRUPTION_CHECK
 2330              		.loc 1 1277 0
 2331 0bc0 1023     		movs	r3, #16
ARM GAS  /tmp/ccp3ezWO.s 			page 67


 2332 0bc2 07E0     		b	.L182
 2333              	.LVL223:
 2334              	.L191:
1296:drivers/inv_mpu_dmp_motion_driver.c ****             sensors[0] = 0;
 2335              		.loc 1 1296 0
 2336 0bc4 FFF7FEFF 		bl	mpu_reset_fifo
 2337              	.LVL224:
1297:drivers/inv_mpu_dmp_motion_driver.c ****             return -1;
 2338              		.loc 1 1297 0
 2339 0bc8 0023     		movs	r3, #0
 2340 0bca 2380     		strh	r3, [r4]	@ movhi
1298:drivers/inv_mpu_dmp_motion_driver.c ****         }
 2341              		.loc 1 1298 0
 2342 0bcc 4FF0FF37 		mov	r7, #-1
 2343 0bd0 46E0     		b	.L180
 2344              	.LVL225:
 2345              	.L189:
 2346              	.LBE8:
1257:drivers/inv_mpu_dmp_motion_driver.c ****     sensors[0] = 0;
 2347              		.loc 1 1257 0
 2348 0bd2 0023     		movs	r3, #0
 2349              	.LVL226:
 2350              	.L182:
1301:drivers/inv_mpu_dmp_motion_driver.c **** #endif
1302:drivers/inv_mpu_dmp_motion_driver.c ****     }
1303:drivers/inv_mpu_dmp_motion_driver.c **** 
1304:drivers/inv_mpu_dmp_motion_driver.c ****     if (dmp.feature_mask & DMP_FEATURE_SEND_RAW_ACCEL) {
 2351              		.loc 1 1304 0
 2352 0bd4 12F0400F 		tst	r2, #64
 2353 0bd8 1CD0     		beq	.L184
1305:drivers/inv_mpu_dmp_motion_driver.c ****         accel[0] = ((short)fifo_data[ii+0] << 8) | fifo_data[ii+1];
 2354              		.loc 1 1305 0
 2355 0bda 08A9     		add	r1, sp, #32
 2356 0bdc 1944     		add	r1, r1, r3
 2357 0bde 11F820EC 		ldrb	lr, [r1, #-32]	@ zero_extendqisi2
 2358 0be2 11F81F0C 		ldrb	r0, [r1, #-31]	@ zero_extendqisi2
 2359 0be6 40EA0E20 		orr	r0, r0, lr, lsl #8
 2360 0bea 3080     		strh	r0, [r6]	@ movhi
1306:drivers/inv_mpu_dmp_motion_driver.c ****         accel[1] = ((short)fifo_data[ii+2] << 8) | fifo_data[ii+3];
 2361              		.loc 1 1306 0
 2362 0bec 11F81EEC 		ldrb	lr, [r1, #-30]	@ zero_extendqisi2
 2363 0bf0 11F81D0C 		ldrb	r0, [r1, #-29]	@ zero_extendqisi2
 2364 0bf4 40EA0E20 		orr	r0, r0, lr, lsl #8
 2365 0bf8 7080     		strh	r0, [r6, #2]	@ movhi
1307:drivers/inv_mpu_dmp_motion_driver.c ****         accel[2] = ((short)fifo_data[ii+4] << 8) | fifo_data[ii+5];
 2366              		.loc 1 1307 0
 2367 0bfa 11F81C0C 		ldrb	r0, [r1, #-28]	@ zero_extendqisi2
 2368 0bfe 11F81B1C 		ldrb	r1, [r1, #-27]	@ zero_extendqisi2
 2369 0c02 41EA0021 		orr	r1, r1, r0, lsl #8
 2370 0c06 B180     		strh	r1, [r6, #4]	@ movhi
1308:drivers/inv_mpu_dmp_motion_driver.c ****         ii += 6;
 2371              		.loc 1 1308 0
 2372 0c08 0633     		adds	r3, r3, #6
 2373              	.LVL227:
 2374 0c0a DBB2     		uxtb	r3, r3
 2375              	.LVL228:
1309:drivers/inv_mpu_dmp_motion_driver.c ****         sensors[0] |= INV_XYZ_ACCEL;
ARM GAS  /tmp/ccp3ezWO.s 			page 68


 2376              		.loc 1 1309 0
 2377 0c0c 2188     		ldrh	r1, [r4]
 2378 0c0e 41F00801 		orr	r1, r1, #8
 2379 0c12 2180     		strh	r1, [r4]	@ movhi
 2380              	.L184:
1310:drivers/inv_mpu_dmp_motion_driver.c ****     }
1311:drivers/inv_mpu_dmp_motion_driver.c **** 
1312:drivers/inv_mpu_dmp_motion_driver.c ****     if (dmp.feature_mask & DMP_FEATURE_SEND_ANY_GYRO) {
 2381              		.loc 1 1312 0
 2382 0c14 12F4C07F 		tst	r2, #384
 2383 0c18 1CD0     		beq	.L185
1313:drivers/inv_mpu_dmp_motion_driver.c ****         gyro[0] = ((short)fifo_data[ii+0] << 8) | fifo_data[ii+1];
 2384              		.loc 1 1313 0
 2385 0c1a 08A9     		add	r1, sp, #32
 2386 0c1c 1944     		add	r1, r1, r3
 2387 0c1e 11F8206C 		ldrb	r6, [r1, #-32]	@ zero_extendqisi2
 2388              	.LVL229:
 2389 0c22 11F81F0C 		ldrb	r0, [r1, #-31]	@ zero_extendqisi2
 2390 0c26 40EA0620 		orr	r0, r0, r6, lsl #8
 2391 0c2a 2880     		strh	r0, [r5]	@ movhi
1314:drivers/inv_mpu_dmp_motion_driver.c ****         gyro[1] = ((short)fifo_data[ii+2] << 8) | fifo_data[ii+3];
 2392              		.loc 1 1314 0
 2393 0c2c 11F81E6C 		ldrb	r6, [r1, #-30]	@ zero_extendqisi2
 2394 0c30 11F81D0C 		ldrb	r0, [r1, #-29]	@ zero_extendqisi2
 2395 0c34 40EA0620 		orr	r0, r0, r6, lsl #8
 2396 0c38 6880     		strh	r0, [r5, #2]	@ movhi
1315:drivers/inv_mpu_dmp_motion_driver.c ****         gyro[2] = ((short)fifo_data[ii+4] << 8) | fifo_data[ii+5];
 2397              		.loc 1 1315 0
 2398 0c3a 11F81C0C 		ldrb	r0, [r1, #-28]	@ zero_extendqisi2
 2399 0c3e 11F81B1C 		ldrb	r1, [r1, #-27]	@ zero_extendqisi2
 2400 0c42 41EA0021 		orr	r1, r1, r0, lsl #8
 2401 0c46 A980     		strh	r1, [r5, #4]	@ movhi
1316:drivers/inv_mpu_dmp_motion_driver.c ****         ii += 6;
 2402              		.loc 1 1316 0
 2403 0c48 0633     		adds	r3, r3, #6
 2404              	.LVL230:
 2405 0c4a DBB2     		uxtb	r3, r3
 2406              	.LVL231:
1317:drivers/inv_mpu_dmp_motion_driver.c ****         sensors[0] |= INV_XYZ_GYRO;
 2407              		.loc 1 1317 0
 2408 0c4c 2188     		ldrh	r1, [r4]
 2409 0c4e 41F07001 		orr	r1, r1, #112
 2410 0c52 2180     		strh	r1, [r4]	@ movhi
 2411              	.L185:
1318:drivers/inv_mpu_dmp_motion_driver.c ****     }
1319:drivers/inv_mpu_dmp_motion_driver.c **** 
1320:drivers/inv_mpu_dmp_motion_driver.c ****     /* Gesture data is at the end of the DMP packet. Parse it and call
1321:drivers/inv_mpu_dmp_motion_driver.c ****      * the gesture callbacks (if registered).
1322:drivers/inv_mpu_dmp_motion_driver.c ****      */
1323:drivers/inv_mpu_dmp_motion_driver.c ****     if (dmp.feature_mask & (DMP_FEATURE_TAP | DMP_FEATURE_ANDROID_ORIENT))
 2412              		.loc 1 1323 0
 2413 0c54 12F0030F 		tst	r2, #3
 2414 0c58 06D1     		bne	.L192
 2415              	.LVL232:
 2416              	.L186:
1324:drivers/inv_mpu_dmp_motion_driver.c ****         decode_gesture(fifo_data + ii);
1325:drivers/inv_mpu_dmp_motion_driver.c **** 
ARM GAS  /tmp/ccp3ezWO.s 			page 69


1326:drivers/inv_mpu_dmp_motion_driver.c ****     myget_ms(timestamp);
 2417              		.loc 1 1326 0
 2418 0c5a 4046     		mov	r0, r8
 2419 0c5c FFF7FEFF 		bl	myget_ms
 2420              	.LVL233:
 2421              	.L180:
1327:drivers/inv_mpu_dmp_motion_driver.c ****     return 0;
1328:drivers/inv_mpu_dmp_motion_driver.c **** }
 2422              		.loc 1 1328 0
 2423 0c60 3846     		mov	r0, r7
 2424 0c62 09B0     		add	sp, sp, #36
 2425              		.cfi_remember_state
 2426              		.cfi_def_cfa_offset 28
 2427              		@ sp needed
 2428 0c64 BDE8F083 		pop	{r4, r5, r6, r7, r8, r9, pc}
 2429              	.LVL234:
 2430              	.L192:
 2431              		.cfi_restore_state
1324:drivers/inv_mpu_dmp_motion_driver.c ****         decode_gesture(fifo_data + ii);
 2432              		.loc 1 1324 0
 2433 0c68 0DEB0304 		add	r4, sp, r3
 2434              	.LVL235:
 2435              	.LBB9:
 2436              	.LBB10:
1186:drivers/inv_mpu_dmp_motion_driver.c ****     tap = 0x3F & gesture[3];
 2437              		.loc 1 1186 0
 2438 0c6c E578     		ldrb	r5, [r4, #3]	@ zero_extendqisi2
 2439              	.LVL236:
1189:drivers/inv_mpu_dmp_motion_driver.c ****         unsigned char direction, count;
 2440              		.loc 1 1189 0
 2441 0c6e 6378     		ldrb	r3, [r4, #1]	@ zero_extendqisi2
 2442              	.LVL237:
 2443 0c70 13F0010F 		tst	r3, #1
 2444 0c74 08D0     		beq	.L187
 2445              	.LVL238:
 2446              	.LBB11:
1193:drivers/inv_mpu_dmp_motion_driver.c ****             dmp.tap_cb(direction, count);
 2447              		.loc 1 1193 0
 2448 0c76 0B4B     		ldr	r3, .L193
 2449 0c78 1B68     		ldr	r3, [r3]
 2450 0c7a 2BB1     		cbz	r3, .L187
1192:drivers/inv_mpu_dmp_motion_driver.c ****         if (dmp.tap_cb)
 2451              		.loc 1 1192 0
 2452 0c7c 05F00701 		and	r1, r5, #7
1194:drivers/inv_mpu_dmp_motion_driver.c ****     }
 2453              		.loc 1 1194 0
 2454 0c80 0131     		adds	r1, r1, #1
 2455 0c82 C5F3C200 		ubfx	r0, r5, #3, #3
 2456 0c86 9847     		blx	r3
 2457              	.LVL239:
 2458              	.L187:
 2459              	.LBE11:
1197:drivers/inv_mpu_dmp_motion_driver.c ****         if (dmp.android_orient_cb)
 2460              		.loc 1 1197 0
 2461 0c88 6378     		ldrb	r3, [r4, #1]	@ zero_extendqisi2
 2462 0c8a 13F0080F 		tst	r3, #8
 2463 0c8e E4D0     		beq	.L186
ARM GAS  /tmp/ccp3ezWO.s 			page 70


1198:drivers/inv_mpu_dmp_motion_driver.c ****             dmp.android_orient_cb(android_orient >> 6);
 2464              		.loc 1 1198 0
 2465 0c90 044B     		ldr	r3, .L193
 2466 0c92 5B68     		ldr	r3, [r3, #4]
 2467 0c94 002B     		cmp	r3, #0
 2468 0c96 E0D0     		beq	.L186
1199:drivers/inv_mpu_dmp_motion_driver.c ****     }
 2469              		.loc 1 1199 0
 2470 0c98 A809     		lsrs	r0, r5, #6
 2471 0c9a 9847     		blx	r3
 2472              	.LVL240:
 2473 0c9c DDE7     		b	.L186
 2474              	.LVL241:
 2475              	.L188:
 2476              	.LBE10:
 2477              	.LBE9:
1262:drivers/inv_mpu_dmp_motion_driver.c **** 
 2478              		.loc 1 1262 0
 2479 0c9e 4FF0FF37 		mov	r7, #-1
 2480 0ca2 DDE7     		b	.L180
 2481              	.L194:
 2482              		.align	2
 2483              	.L193:
 2484 0ca4 00000000 		.word	.LANCHOR1
 2485              		.cfi_endproc
 2486              	.LFE89:
 2487              		.size	dmp_read_fifo, .-dmp_read_fifo
 2488              		.align	1
 2489              		.global	dmp_register_tap_cb
 2490              		.syntax unified
 2491              		.thumb
 2492              		.thumb_func
 2493              		.fpu softvfp
 2494              		.type	dmp_register_tap_cb, %function
 2495              	dmp_register_tap_cb:
 2496              	.LFB90:
1329:drivers/inv_mpu_dmp_motion_driver.c **** 
1330:drivers/inv_mpu_dmp_motion_driver.c **** /**
1331:drivers/inv_mpu_dmp_motion_driver.c ****  *  @brief      Register a function to be executed on a tap event.
1332:drivers/inv_mpu_dmp_motion_driver.c ****  *  The tap direction is represented by one of the following:
1333:drivers/inv_mpu_dmp_motion_driver.c ****  *  \n TAP_X_UP
1334:drivers/inv_mpu_dmp_motion_driver.c ****  *  \n TAP_X_DOWN
1335:drivers/inv_mpu_dmp_motion_driver.c ****  *  \n TAP_Y_UP
1336:drivers/inv_mpu_dmp_motion_driver.c ****  *  \n TAP_Y_DOWN
1337:drivers/inv_mpu_dmp_motion_driver.c ****  *  \n TAP_Z_UP
1338:drivers/inv_mpu_dmp_motion_driver.c ****  *  \n TAP_Z_DOWN
1339:drivers/inv_mpu_dmp_motion_driver.c ****  *  @param[in]  func    Callback function.
1340:drivers/inv_mpu_dmp_motion_driver.c ****  *  @return     0 if successful.
1341:drivers/inv_mpu_dmp_motion_driver.c ****  */
1342:drivers/inv_mpu_dmp_motion_driver.c **** int dmp_register_tap_cb(void (*func)(unsigned char, unsigned char))
1343:drivers/inv_mpu_dmp_motion_driver.c **** {
 2497              		.loc 1 1343 0
 2498              		.cfi_startproc
 2499              		@ args = 0, pretend = 0, frame = 0
 2500              		@ frame_needed = 0, uses_anonymous_args = 0
 2501              		@ link register save eliminated.
 2502              	.LVL242:
ARM GAS  /tmp/ccp3ezWO.s 			page 71


1344:drivers/inv_mpu_dmp_motion_driver.c ****     dmp.tap_cb = func;
 2503              		.loc 1 1344 0
 2504 0ca8 014B     		ldr	r3, .L196
 2505 0caa 1860     		str	r0, [r3]
1345:drivers/inv_mpu_dmp_motion_driver.c ****     return 0;
1346:drivers/inv_mpu_dmp_motion_driver.c **** }
 2506              		.loc 1 1346 0
 2507 0cac 0020     		movs	r0, #0
 2508              	.LVL243:
 2509 0cae 7047     		bx	lr
 2510              	.L197:
 2511              		.align	2
 2512              	.L196:
 2513 0cb0 00000000 		.word	.LANCHOR1
 2514              		.cfi_endproc
 2515              	.LFE90:
 2516              		.size	dmp_register_tap_cb, .-dmp_register_tap_cb
 2517              		.align	1
 2518              		.global	dmp_register_android_orient_cb
 2519              		.syntax unified
 2520              		.thumb
 2521              		.thumb_func
 2522              		.fpu softvfp
 2523              		.type	dmp_register_android_orient_cb, %function
 2524              	dmp_register_android_orient_cb:
 2525              	.LFB91:
1347:drivers/inv_mpu_dmp_motion_driver.c **** 
1348:drivers/inv_mpu_dmp_motion_driver.c **** /**
1349:drivers/inv_mpu_dmp_motion_driver.c ****  *  @brief      Register a function to be executed on a android orientation event.
1350:drivers/inv_mpu_dmp_motion_driver.c ****  *  @param[in]  func    Callback function.
1351:drivers/inv_mpu_dmp_motion_driver.c ****  *  @return     0 if successful.
1352:drivers/inv_mpu_dmp_motion_driver.c ****  */
1353:drivers/inv_mpu_dmp_motion_driver.c **** int dmp_register_android_orient_cb(void (*func)(unsigned char))
1354:drivers/inv_mpu_dmp_motion_driver.c **** {
 2526              		.loc 1 1354 0
 2527              		.cfi_startproc
 2528              		@ args = 0, pretend = 0, frame = 0
 2529              		@ frame_needed = 0, uses_anonymous_args = 0
 2530              		@ link register save eliminated.
 2531              	.LVL244:
1355:drivers/inv_mpu_dmp_motion_driver.c ****     dmp.android_orient_cb = func;
 2532              		.loc 1 1355 0
 2533 0cb4 014B     		ldr	r3, .L199
 2534 0cb6 5860     		str	r0, [r3, #4]
1356:drivers/inv_mpu_dmp_motion_driver.c ****     return 0;
1357:drivers/inv_mpu_dmp_motion_driver.c **** }
 2535              		.loc 1 1357 0
 2536 0cb8 0020     		movs	r0, #0
 2537              	.LVL245:
 2538 0cba 7047     		bx	lr
 2539              	.L200:
 2540              		.align	2
 2541              	.L199:
 2542 0cbc 00000000 		.word	.LANCHOR1
 2543              		.cfi_endproc
 2544              	.LFE91:
 2545              		.size	dmp_register_android_orient_cb, .-dmp_register_android_orient_cb
ARM GAS  /tmp/ccp3ezWO.s 			page 72


 2546              		.section	.rodata
 2547              		.align	2
 2548              		.set	.LANCHOR0,. + 0
 2549              		.type	dmp_memory, %object
 2550              		.size	dmp_memory, 3062
 2551              	dmp_memory:
 2552 0000 00       		.byte	0
 2553 0001 00       		.byte	0
 2554 0002 70       		.byte	112
 2555 0003 00       		.byte	0
 2556 0004 00       		.byte	0
 2557 0005 00       		.byte	0
 2558 0006 00       		.byte	0
 2559 0007 24       		.byte	36
 2560 0008 00       		.byte	0
 2561 0009 00       		.byte	0
 2562 000a 00       		.byte	0
 2563 000b 02       		.byte	2
 2564 000c 00       		.byte	0
 2565 000d 03       		.byte	3
 2566 000e 00       		.byte	0
 2567 000f 00       		.byte	0
 2568 0010 00       		.byte	0
 2569 0011 65       		.byte	101
 2570 0012 00       		.byte	0
 2571 0013 54       		.byte	84
 2572 0014 FF       		.byte	-1
 2573 0015 EF       		.byte	-17
 2574 0016 00       		.byte	0
 2575 0017 00       		.byte	0
 2576 0018 FA       		.byte	-6
 2577 0019 80       		.byte	-128
 2578 001a 00       		.byte	0
 2579 001b 0B       		.byte	11
 2580 001c 12       		.byte	18
 2581 001d 82       		.byte	-126
 2582 001e 00       		.byte	0
 2583 001f 01       		.byte	1
 2584 0020 03       		.byte	3
 2585 0021 0C       		.byte	12
 2586 0022 30       		.byte	48
 2587 0023 C3       		.byte	-61
 2588 0024 0E       		.byte	14
 2589 0025 8C       		.byte	-116
 2590 0026 8C       		.byte	-116
 2591 0027 E9       		.byte	-23
 2592 0028 14       		.byte	20
 2593 0029 D5       		.byte	-43
 2594 002a 40       		.byte	64
 2595 002b 02       		.byte	2
 2596 002c 13       		.byte	19
 2597 002d 71       		.byte	113
 2598 002e 0F       		.byte	15
 2599 002f 8E       		.byte	-114
 2600 0030 38       		.byte	56
 2601 0031 83       		.byte	-125
 2602 0032 F8       		.byte	-8
ARM GAS  /tmp/ccp3ezWO.s 			page 73


 2603 0033 83       		.byte	-125
 2604 0034 30       		.byte	48
 2605 0035 00       		.byte	0
 2606 0036 F8       		.byte	-8
 2607 0037 83       		.byte	-125
 2608 0038 25       		.byte	37
 2609 0039 8E       		.byte	-114
 2610 003a F8       		.byte	-8
 2611 003b 83       		.byte	-125
 2612 003c 30       		.byte	48
 2613 003d 00       		.byte	0
 2614 003e F8       		.byte	-8
 2615 003f 83       		.byte	-125
 2616 0040 FF       		.byte	-1
 2617 0041 FF       		.byte	-1
 2618 0042 FF       		.byte	-1
 2619 0043 FF       		.byte	-1
 2620 0044 0F       		.byte	15
 2621 0045 FE       		.byte	-2
 2622 0046 A9       		.byte	-87
 2623 0047 D6       		.byte	-42
 2624 0048 24       		.byte	36
 2625 0049 00       		.byte	0
 2626 004a 04       		.byte	4
 2627 004b 00       		.byte	0
 2628 004c 1A       		.byte	26
 2629 004d 82       		.byte	-126
 2630 004e 79       		.byte	121
 2631 004f A1       		.byte	-95
 2632 0050 00       		.byte	0
 2633 0051 00       		.byte	0
 2634 0052 00       		.byte	0
 2635 0053 3C       		.byte	60
 2636 0054 FF       		.byte	-1
 2637 0055 FF       		.byte	-1
 2638 0056 00       		.byte	0
 2639 0057 00       		.byte	0
 2640 0058 00       		.byte	0
 2641 0059 10       		.byte	16
 2642 005a 00       		.byte	0
 2643 005b 00       		.byte	0
 2644 005c 38       		.byte	56
 2645 005d 83       		.byte	-125
 2646 005e 6F       		.byte	111
 2647 005f A2       		.byte	-94
 2648 0060 00       		.byte	0
 2649 0061 3E       		.byte	62
 2650 0062 03       		.byte	3
 2651 0063 30       		.byte	48
 2652 0064 40       		.byte	64
 2653 0065 00       		.byte	0
 2654 0066 00       		.byte	0
 2655 0067 00       		.byte	0
 2656 0068 02       		.byte	2
 2657 0069 CA       		.byte	-54
 2658 006a E3       		.byte	-29
 2659 006b 09       		.byte	9
ARM GAS  /tmp/ccp3ezWO.s 			page 74


 2660 006c 3E       		.byte	62
 2661 006d 80       		.byte	-128
 2662 006e 00       		.byte	0
 2663 006f 00       		.byte	0
 2664 0070 20       		.byte	32
 2665 0071 00       		.byte	0
 2666 0072 00       		.byte	0
 2667 0073 00       		.byte	0
 2668 0074 00       		.byte	0
 2669 0075 00       		.byte	0
 2670 0076 00       		.byte	0
 2671 0077 00       		.byte	0
 2672 0078 40       		.byte	64
 2673 0079 00       		.byte	0
 2674 007a 00       		.byte	0
 2675 007b 00       		.byte	0
 2676 007c 60       		.byte	96
 2677 007d 00       		.byte	0
 2678 007e 00       		.byte	0
 2679 007f 00       		.byte	0
 2680 0080 00       		.byte	0
 2681 0081 0C       		.byte	12
 2682 0082 00       		.byte	0
 2683 0083 00       		.byte	0
 2684 0084 00       		.byte	0
 2685 0085 0C       		.byte	12
 2686 0086 18       		.byte	24
 2687 0087 6E       		.byte	110
 2688 0088 00       		.byte	0
 2689 0089 00       		.byte	0
 2690 008a 06       		.byte	6
 2691 008b 92       		.byte	-110
 2692 008c 0A       		.byte	10
 2693 008d 16       		.byte	22
 2694 008e C0       		.byte	-64
 2695 008f DF       		.byte	-33
 2696 0090 FF       		.byte	-1
 2697 0091 FF       		.byte	-1
 2698 0092 02       		.byte	2
 2699 0093 56       		.byte	86
 2700 0094 FD       		.byte	-3
 2701 0095 8C       		.byte	-116
 2702 0096 D3       		.byte	-45
 2703 0097 77       		.byte	119
 2704 0098 FF       		.byte	-1
 2705 0099 E1       		.byte	-31
 2706 009a C4       		.byte	-60
 2707 009b 96       		.byte	-106
 2708 009c E0       		.byte	-32
 2709 009d C5       		.byte	-59
 2710 009e BE       		.byte	-66
 2711 009f AA       		.byte	-86
 2712 00a0 00       		.byte	0
 2713 00a1 00       		.byte	0
 2714 00a2 00       		.byte	0
 2715 00a3 00       		.byte	0
 2716 00a4 FF       		.byte	-1
ARM GAS  /tmp/ccp3ezWO.s 			page 75


 2717 00a5 FF       		.byte	-1
 2718 00a6 0B       		.byte	11
 2719 00a7 2B       		.byte	43
 2720 00a8 00       		.byte	0
 2721 00a9 00       		.byte	0
 2722 00aa 16       		.byte	22
 2723 00ab 57       		.byte	87
 2724 00ac 00       		.byte	0
 2725 00ad 00       		.byte	0
 2726 00ae 03       		.byte	3
 2727 00af 59       		.byte	89
 2728 00b0 40       		.byte	64
 2729 00b1 00       		.byte	0
 2730 00b2 00       		.byte	0
 2731 00b3 00       		.byte	0
 2732 00b4 00       		.byte	0
 2733 00b5 00       		.byte	0
 2734 00b6 1D       		.byte	29
 2735 00b7 FA       		.byte	-6
 2736 00b8 00       		.byte	0
 2737 00b9 02       		.byte	2
 2738 00ba 6C       		.byte	108
 2739 00bb 1D       		.byte	29
 2740 00bc 00       		.byte	0
 2741 00bd 00       		.byte	0
 2742 00be 00       		.byte	0
 2743 00bf 00       		.byte	0
 2744 00c0 3F       		.byte	63
 2745 00c1 FF       		.byte	-1
 2746 00c2 DF       		.byte	-33
 2747 00c3 EB       		.byte	-21
 2748 00c4 00       		.byte	0
 2749 00c5 3E       		.byte	62
 2750 00c6 B3       		.byte	-77
 2751 00c7 B6       		.byte	-74
 2752 00c8 00       		.byte	0
 2753 00c9 0D       		.byte	13
 2754 00ca 22       		.byte	34
 2755 00cb 78       		.byte	120
 2756 00cc 00       		.byte	0
 2757 00cd 00       		.byte	0
 2758 00ce 2F       		.byte	47
 2759 00cf 3C       		.byte	60
 2760 00d0 00       		.byte	0
 2761 00d1 00       		.byte	0
 2762 00d2 00       		.byte	0
 2763 00d3 00       		.byte	0
 2764 00d4 00       		.byte	0
 2765 00d5 19       		.byte	25
 2766 00d6 42       		.byte	66
 2767 00d7 B5       		.byte	-75
 2768 00d8 00       		.byte	0
 2769 00d9 00       		.byte	0
 2770 00da 39       		.byte	57
 2771 00db A2       		.byte	-94
 2772 00dc 00       		.byte	0
 2773 00dd 00       		.byte	0
ARM GAS  /tmp/ccp3ezWO.s 			page 76


 2774 00de B3       		.byte	-77
 2775 00df 65       		.byte	101
 2776 00e0 D9       		.byte	-39
 2777 00e1 0E       		.byte	14
 2778 00e2 9F       		.byte	-97
 2779 00e3 C9       		.byte	-55
 2780 00e4 1D       		.byte	29
 2781 00e5 CF       		.byte	-49
 2782 00e6 4C       		.byte	76
 2783 00e7 34       		.byte	52
 2784 00e8 30       		.byte	48
 2785 00e9 00       		.byte	0
 2786 00ea 00       		.byte	0
 2787 00eb 00       		.byte	0
 2788 00ec 50       		.byte	80
 2789 00ed 00       		.byte	0
 2790 00ee 00       		.byte	0
 2791 00ef 00       		.byte	0
 2792 00f0 3B       		.byte	59
 2793 00f1 B6       		.byte	-74
 2794 00f2 7A       		.byte	122
 2795 00f3 E8       		.byte	-24
 2796 00f4 00       		.byte	0
 2797 00f5 64       		.byte	100
 2798 00f6 00       		.byte	0
 2799 00f7 00       		.byte	0
 2800 00f8 00       		.byte	0
 2801 00f9 C8       		.byte	-56
 2802 00fa 00       		.byte	0
 2803 00fb 00       		.byte	0
 2804 00fc 00       		.byte	0
 2805 00fd 00       		.byte	0
 2806 00fe 00       		.byte	0
 2807 00ff 00       		.byte	0
 2808 0100 10       		.byte	16
 2809 0101 00       		.byte	0
 2810 0102 00       		.byte	0
 2811 0103 00       		.byte	0
 2812 0104 10       		.byte	16
 2813 0105 00       		.byte	0
 2814 0106 FA       		.byte	-6
 2815 0107 92       		.byte	-110
 2816 0108 10       		.byte	16
 2817 0109 00       		.byte	0
 2818 010a 22       		.byte	34
 2819 010b 5E       		.byte	94
 2820 010c 00       		.byte	0
 2821 010d 0D       		.byte	13
 2822 010e 22       		.byte	34
 2823 010f 9F       		.byte	-97
 2824 0110 00       		.byte	0
 2825 0111 01       		.byte	1
 2826 0112 00       		.byte	0
 2827 0113 00       		.byte	0
 2828 0114 00       		.byte	0
 2829 0115 32       		.byte	50
 2830 0116 00       		.byte	0
ARM GAS  /tmp/ccp3ezWO.s 			page 77


 2831 0117 00       		.byte	0
 2832 0118 FF       		.byte	-1
 2833 0119 46       		.byte	70
 2834 011a 00       		.byte	0
 2835 011b 00       		.byte	0
 2836 011c 63       		.byte	99
 2837 011d D4       		.byte	-44
 2838 011e 00       		.byte	0
 2839 011f 00       		.byte	0
 2840 0120 10       		.byte	16
 2841 0121 00       		.byte	0
 2842 0122 00       		.byte	0
 2843 0123 00       		.byte	0
 2844 0124 04       		.byte	4
 2845 0125 D6       		.byte	-42
 2846 0126 00       		.byte	0
 2847 0127 00       		.byte	0
 2848 0128 04       		.byte	4
 2849 0129 CC       		.byte	-52
 2850 012a 00       		.byte	0
 2851 012b 00       		.byte	0
 2852 012c 04       		.byte	4
 2853 012d CC       		.byte	-52
 2854 012e 00       		.byte	0
 2855 012f 00       		.byte	0
 2856 0130 00       		.byte	0
 2857 0131 00       		.byte	0
 2858 0132 10       		.byte	16
 2859 0133 72       		.byte	114
 2860 0134 00       		.byte	0
 2861 0135 00       		.byte	0
 2862 0136 00       		.byte	0
 2863 0137 40       		.byte	64
 2864 0138 00       		.byte	0
 2865 0139 00       		.byte	0
 2866 013a 00       		.byte	0
 2867 013b 00       		.byte	0
 2868 013c 00       		.byte	0
 2869 013d 00       		.byte	0
 2870 013e 00       		.byte	0
 2871 013f 00       		.byte	0
 2872 0140 00       		.byte	0
 2873 0141 06       		.byte	6
 2874 0142 00       		.byte	0
 2875 0143 02       		.byte	2
 2876 0144 00       		.byte	0
 2877 0145 05       		.byte	5
 2878 0146 00       		.byte	0
 2879 0147 07       		.byte	7
 2880 0148 00       		.byte	0
 2881 0149 00       		.byte	0
 2882 014a 00       		.byte	0
 2883 014b 00       		.byte	0
 2884 014c 00       		.byte	0
 2885 014d 64       		.byte	100
 2886 014e 00       		.byte	0
 2887 014f 00       		.byte	0
ARM GAS  /tmp/ccp3ezWO.s 			page 78


 2888 0150 00       		.byte	0
 2889 0151 00       		.byte	0
 2890 0152 00       		.byte	0
 2891 0153 00       		.byte	0
 2892 0154 00       		.byte	0
 2893 0155 00       		.byte	0
 2894 0156 00       		.byte	0
 2895 0157 05       		.byte	5
 2896 0158 00       		.byte	0
 2897 0159 05       		.byte	5
 2898 015a 00       		.byte	0
 2899 015b 64       		.byte	100
 2900 015c 00       		.byte	0
 2901 015d 20       		.byte	32
 2902 015e 00       		.byte	0
 2903 015f 00       		.byte	0
 2904 0160 00       		.byte	0
 2905 0161 00       		.byte	0
 2906 0162 00       		.byte	0
 2907 0163 00       		.byte	0
 2908 0164 00       		.byte	0
 2909 0165 00       		.byte	0
 2910 0166 00       		.byte	0
 2911 0167 00       		.byte	0
 2912 0168 00       		.byte	0
 2913 0169 00       		.byte	0
 2914 016a 40       		.byte	64
 2915 016b 00       		.byte	0
 2916 016c 00       		.byte	0
 2917 016d 00       		.byte	0
 2918 016e 03       		.byte	3
 2919 016f 00       		.byte	0
 2920 0170 00       		.byte	0
 2921 0171 00       		.byte	0
 2922 0172 00       		.byte	0
 2923 0173 32       		.byte	50
 2924 0174 F8       		.byte	-8
 2925 0175 98       		.byte	-104
 2926 0176 00       		.byte	0
 2927 0177 00       		.byte	0
 2928 0178 FF       		.byte	-1
 2929 0179 65       		.byte	101
 2930 017a 00       		.byte	0
 2931 017b 00       		.byte	0
 2932 017c 83       		.byte	-125
 2933 017d 0F       		.byte	15
 2934 017e 00       		.byte	0
 2935 017f 00       		.byte	0
 2936 0180 FF       		.byte	-1
 2937 0181 9B       		.byte	-101
 2938 0182 FC       		.byte	-4
 2939 0183 00       		.byte	0
 2940 0184 00       		.byte	0
 2941 0185 00       		.byte	0
 2942 0186 00       		.byte	0
 2943 0187 00       		.byte	0
 2944 0188 00       		.byte	0
ARM GAS  /tmp/ccp3ezWO.s 			page 79


 2945 0189 00       		.byte	0
 2946 018a 00       		.byte	0
 2947 018b 00       		.byte	0
 2948 018c 00       		.byte	0
 2949 018d 00       		.byte	0
 2950 018e 00       		.byte	0
 2951 018f 00       		.byte	0
 2952 0190 00       		.byte	0
 2953 0191 00       		.byte	0
 2954 0192 00       		.byte	0
 2955 0193 00       		.byte	0
 2956 0194 00       		.byte	0
 2957 0195 00       		.byte	0
 2958 0196 00       		.byte	0
 2959 0197 00       		.byte	0
 2960 0198 00       		.byte	0
 2961 0199 00       		.byte	0
 2962 019a 00       		.byte	0
 2963 019b 00       		.byte	0
 2964 019c 00       		.byte	0
 2965 019d 00       		.byte	0
 2966 019e 00       		.byte	0
 2967 019f 00       		.byte	0
 2968 01a0 00       		.byte	0
 2969 01a1 00       		.byte	0
 2970 01a2 00       		.byte	0
 2971 01a3 00       		.byte	0
 2972 01a4 00       		.byte	0
 2973 01a5 00       		.byte	0
 2974 01a6 00       		.byte	0
 2975 01a7 00       		.byte	0
 2976 01a8 00       		.byte	0
 2977 01a9 00       		.byte	0
 2978 01aa 00       		.byte	0
 2979 01ab 00       		.byte	0
 2980 01ac 00       		.byte	0
 2981 01ad 00       		.byte	0
 2982 01ae 10       		.byte	16
 2983 01af 00       		.byte	0
 2984 01b0 40       		.byte	64
 2985 01b1 00       		.byte	0
 2986 01b2 00       		.byte	0
 2987 01b3 00       		.byte	0
 2988 01b4 00       		.byte	0
 2989 01b5 00       		.byte	0
 2990 01b6 00       		.byte	0
 2991 01b7 06       		.byte	6
 2992 01b8 00       		.byte	0
 2993 01b9 00       		.byte	0
 2994 01ba B2       		.byte	-78
 2995 01bb 6A       		.byte	106
 2996 01bc 00       		.byte	0
 2997 01bd 02       		.byte	2
 2998 01be 00       		.byte	0
 2999 01bf 00       		.byte	0
 3000 01c0 00       		.byte	0
 3001 01c1 01       		.byte	1
ARM GAS  /tmp/ccp3ezWO.s 			page 80


 3002 01c2 FB       		.byte	-5
 3003 01c3 83       		.byte	-125
 3004 01c4 00       		.byte	0
 3005 01c5 68       		.byte	104
 3006 01c6 00       		.byte	0
 3007 01c7 00       		.byte	0
 3008 01c8 00       		.byte	0
 3009 01c9 D9       		.byte	-39
 3010 01ca FC       		.byte	-4
 3011 01cb 00       		.byte	0
 3012 01cc 7C       		.byte	124
 3013 01cd F1       		.byte	-15
 3014 01ce FF       		.byte	-1
 3015 01cf 83       		.byte	-125
 3016 01d0 00       		.byte	0
 3017 01d1 00       		.byte	0
 3018 01d2 00       		.byte	0
 3019 01d3 00       		.byte	0
 3020 01d4 00       		.byte	0
 3021 01d5 65       		.byte	101
 3022 01d6 00       		.byte	0
 3023 01d7 00       		.byte	0
 3024 01d8 00       		.byte	0
 3025 01d9 64       		.byte	100
 3026 01da 03       		.byte	3
 3027 01db E8       		.byte	-24
 3028 01dc 00       		.byte	0
 3029 01dd 64       		.byte	100
 3030 01de 00       		.byte	0
 3031 01df 28       		.byte	40
 3032 01e0 00       		.byte	0
 3033 01e1 00       		.byte	0
 3034 01e2 00       		.byte	0
 3035 01e3 25       		.byte	37
 3036 01e4 00       		.byte	0
 3037 01e5 00       		.byte	0
 3038 01e6 00       		.byte	0
 3039 01e7 00       		.byte	0
 3040 01e8 16       		.byte	22
 3041 01e9 A0       		.byte	-96
 3042 01ea 00       		.byte	0
 3043 01eb 00       		.byte	0
 3044 01ec 00       		.byte	0
 3045 01ed 00       		.byte	0
 3046 01ee 10       		.byte	16
 3047 01ef 00       		.byte	0
 3048 01f0 00       		.byte	0
 3049 01f1 00       		.byte	0
 3050 01f2 10       		.byte	16
 3051 01f3 00       		.byte	0
 3052 01f4 00       		.byte	0
 3053 01f5 2F       		.byte	47
 3054 01f6 00       		.byte	0
 3055 01f7 00       		.byte	0
 3056 01f8 00       		.byte	0
 3057 01f9 00       		.byte	0
 3058 01fa 01       		.byte	1
ARM GAS  /tmp/ccp3ezWO.s 			page 81


 3059 01fb F4       		.byte	-12
 3060 01fc 00       		.byte	0
 3061 01fd 00       		.byte	0
 3062 01fe 10       		.byte	16
 3063 01ff 00       		.byte	0
 3064 0200 00       		.byte	0
 3065 0201 28       		.byte	40
 3066 0202 00       		.byte	0
 3067 0203 00       		.byte	0
 3068 0204 FF       		.byte	-1
 3069 0205 FF       		.byte	-1
 3070 0206 45       		.byte	69
 3071 0207 81       		.byte	-127
 3072 0208 FF       		.byte	-1
 3073 0209 FF       		.byte	-1
 3074 020a FA       		.byte	-6
 3075 020b 72       		.byte	114
 3076 020c 00       		.byte	0
 3077 020d 00       		.byte	0
 3078 020e 00       		.byte	0
 3079 020f 00       		.byte	0
 3080 0210 00       		.byte	0
 3081 0211 00       		.byte	0
 3082 0212 00       		.byte	0
 3083 0213 00       		.byte	0
 3084 0214 00       		.byte	0
 3085 0215 44       		.byte	68
 3086 0216 00       		.byte	0
 3087 0217 05       		.byte	5
 3088 0218 00       		.byte	0
 3089 0219 05       		.byte	5
 3090 021a BA       		.byte	-70
 3091 021b C6       		.byte	-58
 3092 021c 00       		.byte	0
 3093 021d 47       		.byte	71
 3094 021e 78       		.byte	120
 3095 021f A2       		.byte	-94
 3096 0220 00       		.byte	0
 3097 0221 00       		.byte	0
 3098 0222 00       		.byte	0
 3099 0223 01       		.byte	1
 3100 0224 00       		.byte	0
 3101 0225 00       		.byte	0
 3102 0226 00       		.byte	0
 3103 0227 00       		.byte	0
 3104 0228 00       		.byte	0
 3105 0229 00       		.byte	0
 3106 022a 06       		.byte	6
 3107 022b 00       		.byte	0
 3108 022c 00       		.byte	0
 3109 022d 00       		.byte	0
 3110 022e 00       		.byte	0
 3111 022f 14       		.byte	20
 3112 0230 00       		.byte	0
 3113 0231 00       		.byte	0
 3114 0232 25       		.byte	37
 3115 0233 4D       		.byte	77
ARM GAS  /tmp/ccp3ezWO.s 			page 82


 3116 0234 00       		.byte	0
 3117 0235 2F       		.byte	47
 3118 0236 70       		.byte	112
 3119 0237 6D       		.byte	109
 3120 0238 00       		.byte	0
 3121 0239 00       		.byte	0
 3122 023a 05       		.byte	5
 3123 023b AE       		.byte	-82
 3124 023c 00       		.byte	0
 3125 023d 0C       		.byte	12
 3126 023e 02       		.byte	2
 3127 023f D0       		.byte	-48
 3128 0240 00       		.byte	0
 3129 0241 00       		.byte	0
 3130 0242 00       		.byte	0
 3131 0243 00       		.byte	0
 3132 0244 00       		.byte	0
 3133 0245 00       		.byte	0
 3134 0246 00       		.byte	0
 3135 0247 00       		.byte	0
 3136 0248 00       		.byte	0
 3137 0249 00       		.byte	0
 3138 024a 00       		.byte	0
 3139 024b 00       		.byte	0
 3140 024c 00       		.byte	0
 3141 024d 00       		.byte	0
 3142 024e 00       		.byte	0
 3143 024f 00       		.byte	0
 3144 0250 00       		.byte	0
 3145 0251 1B       		.byte	27
 3146 0252 00       		.byte	0
 3147 0253 00       		.byte	0
 3148 0254 00       		.byte	0
 3149 0255 00       		.byte	0
 3150 0256 00       		.byte	0
 3151 0257 00       		.byte	0
 3152 0258 00       		.byte	0
 3153 0259 00       		.byte	0
 3154 025a 00       		.byte	0
 3155 025b 00       		.byte	0
 3156 025c 00       		.byte	0
 3157 025d 00       		.byte	0
 3158 025e 00       		.byte	0
 3159 025f 00       		.byte	0
 3160 0260 00       		.byte	0
 3161 0261 64       		.byte	100
 3162 0262 00       		.byte	0
 3163 0263 00       		.byte	0
 3164 0264 00       		.byte	0
 3165 0265 08       		.byte	8
 3166 0266 00       		.byte	0
 3167 0267 00       		.byte	0
 3168 0268 00       		.byte	0
 3169 0269 00       		.byte	0
 3170 026a 00       		.byte	0
 3171 026b 00       		.byte	0
 3172 026c 00       		.byte	0
ARM GAS  /tmp/ccp3ezWO.s 			page 83


 3173 026d 00       		.byte	0
 3174 026e 00       		.byte	0
 3175 026f 00       		.byte	0
 3176 0270 00       		.byte	0
 3177 0271 00       		.byte	0
 3178 0272 00       		.byte	0
 3179 0273 00       		.byte	0
 3180 0274 00       		.byte	0
 3181 0275 00       		.byte	0
 3182 0276 00       		.byte	0
 3183 0277 00       		.byte	0
 3184 0278 00       		.byte	0
 3185 0279 00       		.byte	0
 3186 027a 00       		.byte	0
 3187 027b 00       		.byte	0
 3188 027c 00       		.byte	0
 3189 027d 00       		.byte	0
 3190 027e 00       		.byte	0
 3191 027f 00       		.byte	0
 3192 0280 00       		.byte	0
 3193 0281 00       		.byte	0
 3194 0282 00       		.byte	0
 3195 0283 00       		.byte	0
 3196 0284 00       		.byte	0
 3197 0285 00       		.byte	0
 3198 0286 00       		.byte	0
 3199 0287 00       		.byte	0
 3200 0288 00       		.byte	0
 3201 0289 00       		.byte	0
 3202 028a 00       		.byte	0
 3203 028b 00       		.byte	0
 3204 028c 00       		.byte	0
 3205 028d 00       		.byte	0
 3206 028e 00       		.byte	0
 3207 028f 00       		.byte	0
 3208 0290 00       		.byte	0
 3209 0291 00       		.byte	0
 3210 0292 00       		.byte	0
 3211 0293 00       		.byte	0
 3212 0294 00       		.byte	0
 3213 0295 00       		.byte	0
 3214 0296 00       		.byte	0
 3215 0297 00       		.byte	0
 3216 0298 00       		.byte	0
 3217 0299 00       		.byte	0
 3218 029a 00       		.byte	0
 3219 029b 00       		.byte	0
 3220 029c 00       		.byte	0
 3221 029d 00       		.byte	0
 3222 029e 00       		.byte	0
 3223 029f 00       		.byte	0
 3224 02a0 00       		.byte	0
 3225 02a1 00       		.byte	0
 3226 02a2 00       		.byte	0
 3227 02a3 00       		.byte	0
 3228 02a4 00       		.byte	0
 3229 02a5 00       		.byte	0
ARM GAS  /tmp/ccp3ezWO.s 			page 84


 3230 02a6 00       		.byte	0
 3231 02a7 00       		.byte	0
 3232 02a8 00       		.byte	0
 3233 02a9 00       		.byte	0
 3234 02aa 00       		.byte	0
 3235 02ab 00       		.byte	0
 3236 02ac 00       		.byte	0
 3237 02ad 00       		.byte	0
 3238 02ae 00       		.byte	0
 3239 02af 00       		.byte	0
 3240 02b0 00       		.byte	0
 3241 02b1 00       		.byte	0
 3242 02b2 00       		.byte	0
 3243 02b3 00       		.byte	0
 3244 02b4 00       		.byte	0
 3245 02b5 00       		.byte	0
 3246 02b6 00       		.byte	0
 3247 02b7 00       		.byte	0
 3248 02b8 00       		.byte	0
 3249 02b9 00       		.byte	0
 3250 02ba 00       		.byte	0
 3251 02bb 00       		.byte	0
 3252 02bc 00       		.byte	0
 3253 02bd 00       		.byte	0
 3254 02be 00       		.byte	0
 3255 02bf 00       		.byte	0
 3256 02c0 00       		.byte	0
 3257 02c1 1B       		.byte	27
 3258 02c2 00       		.byte	0
 3259 02c3 00       		.byte	0
 3260 02c4 00       		.byte	0
 3261 02c5 00       		.byte	0
 3262 02c6 00       		.byte	0
 3263 02c7 00       		.byte	0
 3264 02c8 00       		.byte	0
 3265 02c9 00       		.byte	0
 3266 02ca 00       		.byte	0
 3267 02cb 00       		.byte	0
 3268 02cc 00       		.byte	0
 3269 02cd 0E       		.byte	14
 3270 02ce 00       		.byte	0
 3271 02cf 0E       		.byte	14
 3272 02d0 00       		.byte	0
 3273 02d1 00       		.byte	0
 3274 02d2 0A       		.byte	10
 3275 02d3 C7       		.byte	-57
 3276 02d4 00       		.byte	0
 3277 02d5 04       		.byte	4
 3278 02d6 00       		.byte	0
 3279 02d7 00       		.byte	0
 3280 02d8 00       		.byte	0
 3281 02d9 00       		.byte	0
 3282 02da 00       		.byte	0
 3283 02db 32       		.byte	50
 3284 02dc FF       		.byte	-1
 3285 02dd FF       		.byte	-1
 3286 02de FF       		.byte	-1
ARM GAS  /tmp/ccp3ezWO.s 			page 85


 3287 02df 9C       		.byte	-100
 3288 02e0 00       		.byte	0
 3289 02e1 00       		.byte	0
 3290 02e2 0B       		.byte	11
 3291 02e3 2B       		.byte	43
 3292 02e4 00       		.byte	0
 3293 02e5 00       		.byte	0
 3294 02e6 00       		.byte	0
 3295 02e7 02       		.byte	2
 3296 02e8 00       		.byte	0
 3297 02e9 00       		.byte	0
 3298 02ea 00       		.byte	0
 3299 02eb 01       		.byte	1
 3300 02ec 00       		.byte	0
 3301 02ed 00       		.byte	0
 3302 02ee 00       		.byte	0
 3303 02ef 64       		.byte	100
 3304 02f0 FF       		.byte	-1
 3305 02f1 E5       		.byte	-27
 3306 02f2 00       		.byte	0
 3307 02f3 00       		.byte	0
 3308 02f4 00       		.byte	0
 3309 02f5 00       		.byte	0
 3310 02f6 00       		.byte	0
 3311 02f7 00       		.byte	0
 3312 02f8 00       		.byte	0
 3313 02f9 00       		.byte	0
 3314 02fa 00       		.byte	0
 3315 02fb 00       		.byte	0
 3316 02fc 00       		.byte	0
 3317 02fd 00       		.byte	0
 3318 02fe 00       		.byte	0
 3319 02ff 00       		.byte	0
 3320 0300 00       		.byte	0
 3321 0301 00       		.byte	0
 3322 0302 00       		.byte	0
 3323 0303 01       		.byte	1
 3324 0304 00       		.byte	0
 3325 0305 00       		.byte	0
 3326 0306 00       		.byte	0
 3327 0307 00       		.byte	0
 3328 0308 00       		.byte	0
 3329 0309 01       		.byte	1
 3330 030a 00       		.byte	0
 3331 030b 00       		.byte	0
 3332 030c 00       		.byte	0
 3333 030d 00       		.byte	0
 3334 030e 00       		.byte	0
 3335 030f 00       		.byte	0
 3336 0310 00       		.byte	0
 3337 0311 01       		.byte	1
 3338 0312 80       		.byte	-128
 3339 0313 00       		.byte	0
 3340 0314 00       		.byte	0
 3341 0315 01       		.byte	1
 3342 0316 80       		.byte	-128
 3343 0317 00       		.byte	0
ARM GAS  /tmp/ccp3ezWO.s 			page 86


 3344 0318 00       		.byte	0
 3345 0319 01       		.byte	1
 3346 031a 80       		.byte	-128
 3347 031b 00       		.byte	0
 3348 031c 00       		.byte	0
 3349 031d 24       		.byte	36
 3350 031e 26       		.byte	38
 3351 031f D3       		.byte	-45
 3352 0320 00       		.byte	0
 3353 0321 00       		.byte	0
 3354 0322 00       		.byte	0
 3355 0323 00       		.byte	0
 3356 0324 00       		.byte	0
 3357 0325 00       		.byte	0
 3358 0326 00       		.byte	0
 3359 0327 00       		.byte	0
 3360 0328 00       		.byte	0
 3361 0329 06       		.byte	6
 3362 032a 00       		.byte	0
 3363 032b 10       		.byte	16
 3364 032c 00       		.byte	0
 3365 032d 96       		.byte	-106
 3366 032e 00       		.byte	0
 3367 032f 3C       		.byte	60
 3368 0330 00       		.byte	0
 3369 0331 00       		.byte	0
 3370 0332 00       		.byte	0
 3371 0333 00       		.byte	0
 3372 0334 00       		.byte	0
 3373 0335 00       		.byte	0
 3374 0336 00       		.byte	0
 3375 0337 00       		.byte	0
 3376 0338 00       		.byte	0
 3377 0339 00       		.byte	0
 3378 033a 00       		.byte	0
 3379 033b 00       		.byte	0
 3380 033c 00       		.byte	0
 3381 033d 00       		.byte	0
 3382 033e 00       		.byte	0
 3383 033f 00       		.byte	0
 3384 0340 0C       		.byte	12
 3385 0341 0A       		.byte	10
 3386 0342 4E       		.byte	78
 3387 0343 68       		.byte	104
 3388 0344 CD       		.byte	-51
 3389 0345 CF       		.byte	-49
 3390 0346 77       		.byte	119
 3391 0347 09       		.byte	9
 3392 0348 50       		.byte	80
 3393 0349 16       		.byte	22
 3394 034a 67       		.byte	103
 3395 034b 59       		.byte	89
 3396 034c C6       		.byte	-58
 3397 034d 19       		.byte	25
 3398 034e CE       		.byte	-50
 3399 034f 82       		.byte	-126
 3400 0350 00       		.byte	0
ARM GAS  /tmp/ccp3ezWO.s 			page 87


 3401 0351 00       		.byte	0
 3402 0352 00       		.byte	0
 3403 0353 00       		.byte	0
 3404 0354 00       		.byte	0
 3405 0355 00       		.byte	0
 3406 0356 00       		.byte	0
 3407 0357 00       		.byte	0
 3408 0358 00       		.byte	0
 3409 0359 00       		.byte	0
 3410 035a 00       		.byte	0
 3411 035b 00       		.byte	0
 3412 035c 00       		.byte	0
 3413 035d 00       		.byte	0
 3414 035e 00       		.byte	0
 3415 035f 00       		.byte	0
 3416 0360 00       		.byte	0
 3417 0361 00       		.byte	0
 3418 0362 00       		.byte	0
 3419 0363 00       		.byte	0
 3420 0364 00       		.byte	0
 3421 0365 00       		.byte	0
 3422 0366 00       		.byte	0
 3423 0367 00       		.byte	0
 3424 0368 17       		.byte	23
 3425 0369 D7       		.byte	-41
 3426 036a 84       		.byte	-124
 3427 036b 00       		.byte	0
 3428 036c 03       		.byte	3
 3429 036d 00       		.byte	0
 3430 036e 00       		.byte	0
 3431 036f 00       		.byte	0
 3432 0370 00       		.byte	0
 3433 0371 00       		.byte	0
 3434 0372 00       		.byte	0
 3435 0373 00       		.byte	0
 3436 0374 00       		.byte	0
 3437 0375 00       		.byte	0
 3438 0376 00       		.byte	0
 3439 0377 00       		.byte	0
 3440 0378 C7       		.byte	-57
 3441 0379 93       		.byte	-109
 3442 037a 8F       		.byte	-113
 3443 037b 9D       		.byte	-99
 3444 037c 1E       		.byte	30
 3445 037d 1B       		.byte	27
 3446 037e 1C       		.byte	28
 3447 037f 19       		.byte	25
 3448 0380 00       		.byte	0
 3449 0381 00       		.byte	0
 3450 0382 00       		.byte	0
 3451 0383 00       		.byte	0
 3452 0384 00       		.byte	0
 3453 0385 00       		.byte	0
 3454 0386 00       		.byte	0
 3455 0387 00       		.byte	0
 3456 0388 00       		.byte	0
 3457 0389 00       		.byte	0
ARM GAS  /tmp/ccp3ezWO.s 			page 88


 3458 038a 00       		.byte	0
 3459 038b 00       		.byte	0
 3460 038c 00       		.byte	0
 3461 038d 00       		.byte	0
 3462 038e 00       		.byte	0
 3463 038f 00       		.byte	0
 3464 0390 00       		.byte	0
 3465 0391 00       		.byte	0
 3466 0392 00       		.byte	0
 3467 0393 00       		.byte	0
 3468 0394 00       		.byte	0
 3469 0395 00       		.byte	0
 3470 0396 00       		.byte	0
 3471 0397 00       		.byte	0
 3472 0398 02       		.byte	2
 3473 0399 03       		.byte	3
 3474 039a 18       		.byte	24
 3475 039b 85       		.byte	-123
 3476 039c 00       		.byte	0
 3477 039d 00       		.byte	0
 3478 039e 40       		.byte	64
 3479 039f 00       		.byte	0
 3480 03a0 00       		.byte	0
 3481 03a1 00       		.byte	0
 3482 03a2 00       		.byte	0
 3483 03a3 03       		.byte	3
 3484 03a4 00       		.byte	0
 3485 03a5 00       		.byte	0
 3486 03a6 00       		.byte	0
 3487 03a7 03       		.byte	3
 3488 03a8 00       		.byte	0
 3489 03a9 00       		.byte	0
 3490 03aa 00       		.byte	0
 3491 03ab 00       		.byte	0
 3492 03ac 00       		.byte	0
 3493 03ad 00       		.byte	0
 3494 03ae 00       		.byte	0
 3495 03af 00       		.byte	0
 3496 03b0 40       		.byte	64
 3497 03b1 00       		.byte	0
 3498 03b2 00       		.byte	0
 3499 03b3 00       		.byte	0
 3500 03b4 00       		.byte	0
 3501 03b5 00       		.byte	0
 3502 03b6 00       		.byte	0
 3503 03b7 00       		.byte	0
 3504 03b8 00       		.byte	0
 3505 03b9 00       		.byte	0
 3506 03ba 00       		.byte	0
 3507 03bb 00       		.byte	0
 3508 03bc 00       		.byte	0
 3509 03bd 00       		.byte	0
 3510 03be 00       		.byte	0
 3511 03bf 00       		.byte	0
 3512 03c0 00       		.byte	0
 3513 03c1 00       		.byte	0
 3514 03c2 00       		.byte	0
ARM GAS  /tmp/ccp3ezWO.s 			page 89


 3515 03c3 00       		.byte	0
 3516 03c4 00       		.byte	0
 3517 03c5 00       		.byte	0
 3518 03c6 00       		.byte	0
 3519 03c7 00       		.byte	0
 3520 03c8 00       		.byte	0
 3521 03c9 00       		.byte	0
 3522 03ca 00       		.byte	0
 3523 03cb 00       		.byte	0
 3524 03cc 00       		.byte	0
 3525 03cd 00       		.byte	0
 3526 03ce 00       		.byte	0
 3527 03cf 00       		.byte	0
 3528 03d0 00       		.byte	0
 3529 03d1 00       		.byte	0
 3530 03d2 00       		.byte	0
 3531 03d3 00       		.byte	0
 3532 03d4 00       		.byte	0
 3533 03d5 00       		.byte	0
 3534 03d6 00       		.byte	0
 3535 03d7 00       		.byte	0
 3536 03d8 00       		.byte	0
 3537 03d9 00       		.byte	0
 3538 03da 00       		.byte	0
 3539 03db 00       		.byte	0
 3540 03dc 00       		.byte	0
 3541 03dd 00       		.byte	0
 3542 03de 00       		.byte	0
 3543 03df 00       		.byte	0
 3544 03e0 00       		.byte	0
 3545 03e1 00       		.byte	0
 3546 03e2 00       		.byte	0
 3547 03e3 00       		.byte	0
 3548 03e4 67       		.byte	103
 3549 03e5 7D       		.byte	125
 3550 03e6 DF       		.byte	-33
 3551 03e7 7E       		.byte	126
 3552 03e8 72       		.byte	114
 3553 03e9 90       		.byte	-112
 3554 03ea 2E       		.byte	46
 3555 03eb 55       		.byte	85
 3556 03ec 4C       		.byte	76
 3557 03ed F6       		.byte	-10
 3558 03ee E6       		.byte	-26
 3559 03ef 88       		.byte	-120
 3560 03f0 00       		.byte	0
 3561 03f1 00       		.byte	0
 3562 03f2 00       		.byte	0
 3563 03f3 00       		.byte	0
 3564 03f4 00       		.byte	0
 3565 03f5 00       		.byte	0
 3566 03f6 00       		.byte	0
 3567 03f7 00       		.byte	0
 3568 03f8 00       		.byte	0
 3569 03f9 00       		.byte	0
 3570 03fa 00       		.byte	0
 3571 03fb 00       		.byte	0
ARM GAS  /tmp/ccp3ezWO.s 			page 90


 3572 03fc 00       		.byte	0
 3573 03fd 00       		.byte	0
 3574 03fe 00       		.byte	0
 3575 03ff 00       		.byte	0
 3576 0400 D8       		.byte	-40
 3577 0401 DC       		.byte	-36
 3578 0402 B4       		.byte	-76
 3579 0403 B8       		.byte	-72
 3580 0404 B0       		.byte	-80
 3581 0405 D8       		.byte	-40
 3582 0406 B9       		.byte	-71
 3583 0407 AB       		.byte	-85
 3584 0408 F3       		.byte	-13
 3585 0409 F8       		.byte	-8
 3586 040a FA       		.byte	-6
 3587 040b B3       		.byte	-77
 3588 040c B7       		.byte	-73
 3589 040d BB       		.byte	-69
 3590 040e 8E       		.byte	-114
 3591 040f 9E       		.byte	-98
 3592 0410 AE       		.byte	-82
 3593 0411 F1       		.byte	-15
 3594 0412 32       		.byte	50
 3595 0413 F5       		.byte	-11
 3596 0414 1B       		.byte	27
 3597 0415 F1       		.byte	-15
 3598 0416 B4       		.byte	-76
 3599 0417 B8       		.byte	-72
 3600 0418 B0       		.byte	-80
 3601 0419 80       		.byte	-128
 3602 041a 97       		.byte	-105
 3603 041b F1       		.byte	-15
 3604 041c A9       		.byte	-87
 3605 041d DF       		.byte	-33
 3606 041e DF       		.byte	-33
 3607 041f DF       		.byte	-33
 3608 0420 AA       		.byte	-86
 3609 0421 DF       		.byte	-33
 3610 0422 DF       		.byte	-33
 3611 0423 DF       		.byte	-33
 3612 0424 F2       		.byte	-14
 3613 0425 AA       		.byte	-86
 3614 0426 C5       		.byte	-59
 3615 0427 CD       		.byte	-51
 3616 0428 C7       		.byte	-57
 3617 0429 A9       		.byte	-87
 3618 042a 0C       		.byte	12
 3619 042b C9       		.byte	-55
 3620 042c 2C       		.byte	44
 3621 042d 97       		.byte	-105
 3622 042e F1       		.byte	-15
 3623 042f A9       		.byte	-87
 3624 0430 89       		.byte	-119
 3625 0431 26       		.byte	38
 3626 0432 46       		.byte	70
 3627 0433 66       		.byte	102
 3628 0434 B2       		.byte	-78
ARM GAS  /tmp/ccp3ezWO.s 			page 91


 3629 0435 89       		.byte	-119
 3630 0436 99       		.byte	-103
 3631 0437 A9       		.byte	-87
 3632 0438 2D       		.byte	45
 3633 0439 55       		.byte	85
 3634 043a 7D       		.byte	125
 3635 043b B0       		.byte	-80
 3636 043c B0       		.byte	-80
 3637 043d 8A       		.byte	-118
 3638 043e A8       		.byte	-88
 3639 043f 96       		.byte	-106
 3640 0440 36       		.byte	54
 3641 0441 56       		.byte	86
 3642 0442 76       		.byte	118
 3643 0443 F1       		.byte	-15
 3644 0444 BA       		.byte	-70
 3645 0445 A3       		.byte	-93
 3646 0446 B4       		.byte	-76
 3647 0447 B2       		.byte	-78
 3648 0448 80       		.byte	-128
 3649 0449 C0       		.byte	-64
 3650 044a B8       		.byte	-72
 3651 044b A8       		.byte	-88
 3652 044c 97       		.byte	-105
 3653 044d 11       		.byte	17
 3654 044e B2       		.byte	-78
 3655 044f 83       		.byte	-125
 3656 0450 98       		.byte	-104
 3657 0451 BA       		.byte	-70
 3658 0452 A3       		.byte	-93
 3659 0453 F0       		.byte	-16
 3660 0454 24       		.byte	36
 3661 0455 08       		.byte	8
 3662 0456 44       		.byte	68
 3663 0457 10       		.byte	16
 3664 0458 64       		.byte	100
 3665 0459 18       		.byte	24
 3666 045a B2       		.byte	-78
 3667 045b B9       		.byte	-71
 3668 045c B4       		.byte	-76
 3669 045d 98       		.byte	-104
 3670 045e 83       		.byte	-125
 3671 045f F1       		.byte	-15
 3672 0460 A3       		.byte	-93
 3673 0461 29       		.byte	41
 3674 0462 55       		.byte	85
 3675 0463 7D       		.byte	125
 3676 0464 BA       		.byte	-70
 3677 0465 B5       		.byte	-75
 3678 0466 B1       		.byte	-79
 3679 0467 A3       		.byte	-93
 3680 0468 83       		.byte	-125
 3681 0469 93       		.byte	-109
 3682 046a F0       		.byte	-16
 3683 046b 00       		.byte	0
 3684 046c 28       		.byte	40
 3685 046d 50       		.byte	80
ARM GAS  /tmp/ccp3ezWO.s 			page 92


 3686 046e F5       		.byte	-11
 3687 046f B2       		.byte	-78
 3688 0470 B6       		.byte	-74
 3689 0471 AA       		.byte	-86
 3690 0472 83       		.byte	-125
 3691 0473 93       		.byte	-109
 3692 0474 28       		.byte	40
 3693 0475 54       		.byte	84
 3694 0476 7C       		.byte	124
 3695 0477 F1       		.byte	-15
 3696 0478 B9       		.byte	-71
 3697 0479 A3       		.byte	-93
 3698 047a 82       		.byte	-126
 3699 047b 93       		.byte	-109
 3700 047c 61       		.byte	97
 3701 047d BA       		.byte	-70
 3702 047e A2       		.byte	-94
 3703 047f DA       		.byte	-38
 3704 0480 DE       		.byte	-34
 3705 0481 DF       		.byte	-33
 3706 0482 DB       		.byte	-37
 3707 0483 81       		.byte	-127
 3708 0484 9A       		.byte	-102
 3709 0485 B9       		.byte	-71
 3710 0486 AE       		.byte	-82
 3711 0487 F5       		.byte	-11
 3712 0488 60       		.byte	96
 3713 0489 68       		.byte	104
 3714 048a 70       		.byte	112
 3715 048b F1       		.byte	-15
 3716 048c DA       		.byte	-38
 3717 048d BA       		.byte	-70
 3718 048e A2       		.byte	-94
 3719 048f DF       		.byte	-33
 3720 0490 D9       		.byte	-39
 3721 0491 BA       		.byte	-70
 3722 0492 A2       		.byte	-94
 3723 0493 FA       		.byte	-6
 3724 0494 B9       		.byte	-71
 3725 0495 A3       		.byte	-93
 3726 0496 82       		.byte	-126
 3727 0497 92       		.byte	-110
 3728 0498 DB       		.byte	-37
 3729 0499 31       		.byte	49
 3730 049a BA       		.byte	-70
 3731 049b A2       		.byte	-94
 3732 049c D9       		.byte	-39
 3733 049d BA       		.byte	-70
 3734 049e A2       		.byte	-94
 3735 049f F8       		.byte	-8
 3736 04a0 DF       		.byte	-33
 3737 04a1 85       		.byte	-123
 3738 04a2 A4       		.byte	-92
 3739 04a3 D0       		.byte	-48
 3740 04a4 C1       		.byte	-63
 3741 04a5 BB       		.byte	-69
 3742 04a6 AD       		.byte	-83
ARM GAS  /tmp/ccp3ezWO.s 			page 93


 3743 04a7 83       		.byte	-125
 3744 04a8 C2       		.byte	-62
 3745 04a9 C5       		.byte	-59
 3746 04aa C7       		.byte	-57
 3747 04ab B8       		.byte	-72
 3748 04ac A2       		.byte	-94
 3749 04ad DF       		.byte	-33
 3750 04ae DF       		.byte	-33
 3751 04af DF       		.byte	-33
 3752 04b0 BA       		.byte	-70
 3753 04b1 A0       		.byte	-96
 3754 04b2 DF       		.byte	-33
 3755 04b3 DF       		.byte	-33
 3756 04b4 DF       		.byte	-33
 3757 04b5 D8       		.byte	-40
 3758 04b6 D8       		.byte	-40
 3759 04b7 F1       		.byte	-15
 3760 04b8 B8       		.byte	-72
 3761 04b9 AA       		.byte	-86
 3762 04ba B3       		.byte	-77
 3763 04bb 8D       		.byte	-115
 3764 04bc B4       		.byte	-76
 3765 04bd 98       		.byte	-104
 3766 04be 0D       		.byte	13
 3767 04bf 35       		.byte	53
 3768 04c0 5D       		.byte	93
 3769 04c1 B2       		.byte	-78
 3770 04c2 B6       		.byte	-74
 3771 04c3 BA       		.byte	-70
 3772 04c4 AF       		.byte	-81
 3773 04c5 8C       		.byte	-116
 3774 04c6 96       		.byte	-106
 3775 04c7 19       		.byte	25
 3776 04c8 8F       		.byte	-113
 3777 04c9 9F       		.byte	-97
 3778 04ca A7       		.byte	-89
 3779 04cb 0E       		.byte	14
 3780 04cc 16       		.byte	22
 3781 04cd 1E       		.byte	30
 3782 04ce B4       		.byte	-76
 3783 04cf 9A       		.byte	-102
 3784 04d0 B8       		.byte	-72
 3785 04d1 AA       		.byte	-86
 3786 04d2 87       		.byte	-121
 3787 04d3 2C       		.byte	44
 3788 04d4 54       		.byte	84
 3789 04d5 7C       		.byte	124
 3790 04d6 BA       		.byte	-70
 3791 04d7 A4       		.byte	-92
 3792 04d8 B0       		.byte	-80
 3793 04d9 8A       		.byte	-118
 3794 04da B6       		.byte	-74
 3795 04db 91       		.byte	-111
 3796 04dc 32       		.byte	50
 3797 04dd 56       		.byte	86
 3798 04de 76       		.byte	118
 3799 04df B2       		.byte	-78
ARM GAS  /tmp/ccp3ezWO.s 			page 94


 3800 04e0 84       		.byte	-124
 3801 04e1 94       		.byte	-108
 3802 04e2 A4       		.byte	-92
 3803 04e3 C8       		.byte	-56
 3804 04e4 08       		.byte	8
 3805 04e5 CD       		.byte	-51
 3806 04e6 D8       		.byte	-40
 3807 04e7 B8       		.byte	-72
 3808 04e8 B4       		.byte	-76
 3809 04e9 B0       		.byte	-80
 3810 04ea F1       		.byte	-15
 3811 04eb 99       		.byte	-103
 3812 04ec 82       		.byte	-126
 3813 04ed A8       		.byte	-88
 3814 04ee 2D       		.byte	45
 3815 04ef 55       		.byte	85
 3816 04f0 7D       		.byte	125
 3817 04f1 98       		.byte	-104
 3818 04f2 A8       		.byte	-88
 3819 04f3 0E       		.byte	14
 3820 04f4 16       		.byte	22
 3821 04f5 1E       		.byte	30
 3822 04f6 A2       		.byte	-94
 3823 04f7 2C       		.byte	44
 3824 04f8 54       		.byte	84
 3825 04f9 7C       		.byte	124
 3826 04fa 92       		.byte	-110
 3827 04fb A4       		.byte	-92
 3828 04fc F0       		.byte	-16
 3829 04fd 2C       		.byte	44
 3830 04fe 50       		.byte	80
 3831 04ff 78       		.byte	120
 3832 0500 F1       		.byte	-15
 3833 0501 84       		.byte	-124
 3834 0502 A8       		.byte	-88
 3835 0503 98       		.byte	-104
 3836 0504 C4       		.byte	-60
 3837 0505 CD       		.byte	-51
 3838 0506 FC       		.byte	-4
 3839 0507 D8       		.byte	-40
 3840 0508 0D       		.byte	13
 3841 0509 DB       		.byte	-37
 3842 050a A8       		.byte	-88
 3843 050b FC       		.byte	-4
 3844 050c 2D       		.byte	45
 3845 050d F3       		.byte	-13
 3846 050e D9       		.byte	-39
 3847 050f BA       		.byte	-70
 3848 0510 A6       		.byte	-90
 3849 0511 F8       		.byte	-8
 3850 0512 DA       		.byte	-38
 3851 0513 BA       		.byte	-70
 3852 0514 A6       		.byte	-90
 3853 0515 DE       		.byte	-34
 3854 0516 D8       		.byte	-40
 3855 0517 BA       		.byte	-70
 3856 0518 B2       		.byte	-78
ARM GAS  /tmp/ccp3ezWO.s 			page 95


 3857 0519 B6       		.byte	-74
 3858 051a 86       		.byte	-122
 3859 051b 96       		.byte	-106
 3860 051c A6       		.byte	-90
 3861 051d D0       		.byte	-48
 3862 051e F3       		.byte	-13
 3863 051f C8       		.byte	-56
 3864 0520 41       		.byte	65
 3865 0521 DA       		.byte	-38
 3866 0522 A6       		.byte	-90
 3867 0523 C8       		.byte	-56
 3868 0524 F8       		.byte	-8
 3869 0525 D8       		.byte	-40
 3870 0526 B0       		.byte	-80
 3871 0527 B4       		.byte	-76
 3872 0528 B8       		.byte	-72
 3873 0529 82       		.byte	-126
 3874 052a A8       		.byte	-88
 3875 052b 92       		.byte	-110
 3876 052c F5       		.byte	-11
 3877 052d 2C       		.byte	44
 3878 052e 54       		.byte	84
 3879 052f 88       		.byte	-120
 3880 0530 98       		.byte	-104
 3881 0531 F1       		.byte	-15
 3882 0532 35       		.byte	53
 3883 0533 D9       		.byte	-39
 3884 0534 F4       		.byte	-12
 3885 0535 18       		.byte	24
 3886 0536 D8       		.byte	-40
 3887 0537 F1       		.byte	-15
 3888 0538 A2       		.byte	-94
 3889 0539 D0       		.byte	-48
 3890 053a F8       		.byte	-8
 3891 053b F9       		.byte	-7
 3892 053c A8       		.byte	-88
 3893 053d 84       		.byte	-124
 3894 053e D9       		.byte	-39
 3895 053f C7       		.byte	-57
 3896 0540 DF       		.byte	-33
 3897 0541 F8       		.byte	-8
 3898 0542 F8       		.byte	-8
 3899 0543 83       		.byte	-125
 3900 0544 C5       		.byte	-59
 3901 0545 DA       		.byte	-38
 3902 0546 DF       		.byte	-33
 3903 0547 69       		.byte	105
 3904 0548 DF       		.byte	-33
 3905 0549 83       		.byte	-125
 3906 054a C1       		.byte	-63
 3907 054b D8       		.byte	-40
 3908 054c F4       		.byte	-12
 3909 054d 01       		.byte	1
 3910 054e 14       		.byte	20
 3911 054f F1       		.byte	-15
 3912 0550 A8       		.byte	-88
 3913 0551 82       		.byte	-126
ARM GAS  /tmp/ccp3ezWO.s 			page 96


 3914 0552 4E       		.byte	78
 3915 0553 A8       		.byte	-88
 3916 0554 84       		.byte	-124
 3917 0555 F3       		.byte	-13
 3918 0556 11       		.byte	17
 3919 0557 D1       		.byte	-47
 3920 0558 82       		.byte	-126
 3921 0559 F5       		.byte	-11
 3922 055a D9       		.byte	-39
 3923 055b 92       		.byte	-110
 3924 055c 28       		.byte	40
 3925 055d 97       		.byte	-105
 3926 055e 88       		.byte	-120
 3927 055f F1       		.byte	-15
 3928 0560 09       		.byte	9
 3929 0561 F4       		.byte	-12
 3930 0562 1C       		.byte	28
 3931 0563 1C       		.byte	28
 3932 0564 D8       		.byte	-40
 3933 0565 84       		.byte	-124
 3934 0566 A8       		.byte	-88
 3935 0567 F3       		.byte	-13
 3936 0568 C0       		.byte	-64
 3937 0569 F9       		.byte	-7
 3938 056a D1       		.byte	-47
 3939 056b D9       		.byte	-39
 3940 056c 97       		.byte	-105
 3941 056d 82       		.byte	-126
 3942 056e F1       		.byte	-15
 3943 056f 29       		.byte	41
 3944 0570 F4       		.byte	-12
 3945 0571 0D       		.byte	13
 3946 0572 D8       		.byte	-40
 3947 0573 F3       		.byte	-13
 3948 0574 F9       		.byte	-7
 3949 0575 F9       		.byte	-7
 3950 0576 D1       		.byte	-47
 3951 0577 D9       		.byte	-39
 3952 0578 82       		.byte	-126
 3953 0579 F4       		.byte	-12
 3954 057a C2       		.byte	-62
 3955 057b 03       		.byte	3
 3956 057c D8       		.byte	-40
 3957 057d DE       		.byte	-34
 3958 057e DF       		.byte	-33
 3959 057f 1A       		.byte	26
 3960 0580 D8       		.byte	-40
 3961 0581 F1       		.byte	-15
 3962 0582 A2       		.byte	-94
 3963 0583 FA       		.byte	-6
 3964 0584 F9       		.byte	-7
 3965 0585 A8       		.byte	-88
 3966 0586 84       		.byte	-124
 3967 0587 98       		.byte	-104
 3968 0588 D9       		.byte	-39
 3969 0589 C7       		.byte	-57
 3970 058a DF       		.byte	-33
ARM GAS  /tmp/ccp3ezWO.s 			page 97


 3971 058b F8       		.byte	-8
 3972 058c F8       		.byte	-8
 3973 058d F8       		.byte	-8
 3974 058e 83       		.byte	-125
 3975 058f C7       		.byte	-57
 3976 0590 DA       		.byte	-38
 3977 0591 DF       		.byte	-33
 3978 0592 69       		.byte	105
 3979 0593 DF       		.byte	-33
 3980 0594 F8       		.byte	-8
 3981 0595 83       		.byte	-125
 3982 0596 C3       		.byte	-61
 3983 0597 D8       		.byte	-40
 3984 0598 F4       		.byte	-12
 3985 0599 01       		.byte	1
 3986 059a 14       		.byte	20
 3987 059b F1       		.byte	-15
 3988 059c 98       		.byte	-104
 3989 059d A8       		.byte	-88
 3990 059e 82       		.byte	-126
 3991 059f 2E       		.byte	46
 3992 05a0 A8       		.byte	-88
 3993 05a1 84       		.byte	-124
 3994 05a2 F3       		.byte	-13
 3995 05a3 11       		.byte	17
 3996 05a4 D1       		.byte	-47
 3997 05a5 82       		.byte	-126
 3998 05a6 F5       		.byte	-11
 3999 05a7 D9       		.byte	-39
 4000 05a8 92       		.byte	-110
 4001 05a9 50       		.byte	80
 4002 05aa 97       		.byte	-105
 4003 05ab 88       		.byte	-120
 4004 05ac F1       		.byte	-15
 4005 05ad 09       		.byte	9
 4006 05ae F4       		.byte	-12
 4007 05af 1C       		.byte	28
 4008 05b0 D8       		.byte	-40
 4009 05b1 84       		.byte	-124
 4010 05b2 A8       		.byte	-88
 4011 05b3 F3       		.byte	-13
 4012 05b4 C0       		.byte	-64
 4013 05b5 F8       		.byte	-8
 4014 05b6 F9       		.byte	-7
 4015 05b7 D1       		.byte	-47
 4016 05b8 D9       		.byte	-39
 4017 05b9 97       		.byte	-105
 4018 05ba 82       		.byte	-126
 4019 05bb F1       		.byte	-15
 4020 05bc 49       		.byte	73
 4021 05bd F4       		.byte	-12
 4022 05be 0D       		.byte	13
 4023 05bf D8       		.byte	-40
 4024 05c0 F3       		.byte	-13
 4025 05c1 F9       		.byte	-7
 4026 05c2 F9       		.byte	-7
 4027 05c3 D1       		.byte	-47
ARM GAS  /tmp/ccp3ezWO.s 			page 98


 4028 05c4 D9       		.byte	-39
 4029 05c5 82       		.byte	-126
 4030 05c6 F4       		.byte	-12
 4031 05c7 C4       		.byte	-60
 4032 05c8 03       		.byte	3
 4033 05c9 D8       		.byte	-40
 4034 05ca DE       		.byte	-34
 4035 05cb DF       		.byte	-33
 4036 05cc D8       		.byte	-40
 4037 05cd F1       		.byte	-15
 4038 05ce AD       		.byte	-83
 4039 05cf 88       		.byte	-120
 4040 05d0 98       		.byte	-104
 4041 05d1 CC       		.byte	-52
 4042 05d2 A8       		.byte	-88
 4043 05d3 09       		.byte	9
 4044 05d4 F9       		.byte	-7
 4045 05d5 D9       		.byte	-39
 4046 05d6 82       		.byte	-126
 4047 05d7 92       		.byte	-110
 4048 05d8 A8       		.byte	-88
 4049 05d9 F5       		.byte	-11
 4050 05da 7C       		.byte	124
 4051 05db F1       		.byte	-15
 4052 05dc 88       		.byte	-120
 4053 05dd 3A       		.byte	58
 4054 05de CF       		.byte	-49
 4055 05df 94       		.byte	-108
 4056 05e0 4A       		.byte	74
 4057 05e1 6E       		.byte	110
 4058 05e2 98       		.byte	-104
 4059 05e3 DB       		.byte	-37
 4060 05e4 69       		.byte	105
 4061 05e5 31       		.byte	49
 4062 05e6 DA       		.byte	-38
 4063 05e7 AD       		.byte	-83
 4064 05e8 F2       		.byte	-14
 4065 05e9 DE       		.byte	-34
 4066 05ea F9       		.byte	-7
 4067 05eb D8       		.byte	-40
 4068 05ec 87       		.byte	-121
 4069 05ed 95       		.byte	-107
 4070 05ee A8       		.byte	-88
 4071 05ef F2       		.byte	-14
 4072 05f0 21       		.byte	33
 4073 05f1 D1       		.byte	-47
 4074 05f2 DA       		.byte	-38
 4075 05f3 A5       		.byte	-91
 4076 05f4 F9       		.byte	-7
 4077 05f5 F4       		.byte	-12
 4078 05f6 17       		.byte	23
 4079 05f7 D9       		.byte	-39
 4080 05f8 F1       		.byte	-15
 4081 05f9 AE       		.byte	-82
 4082 05fa 8E       		.byte	-114
 4083 05fb D0       		.byte	-48
 4084 05fc C0       		.byte	-64
ARM GAS  /tmp/ccp3ezWO.s 			page 99


 4085 05fd C3       		.byte	-61
 4086 05fe AE       		.byte	-82
 4087 05ff 82       		.byte	-126
 4088 0600 C6       		.byte	-58
 4089 0601 84       		.byte	-124
 4090 0602 C3       		.byte	-61
 4091 0603 A8       		.byte	-88
 4092 0604 85       		.byte	-123
 4093 0605 95       		.byte	-107
 4094 0606 C8       		.byte	-56
 4095 0607 A5       		.byte	-91
 4096 0608 88       		.byte	-120
 4097 0609 F2       		.byte	-14
 4098 060a C0       		.byte	-64
 4099 060b F1       		.byte	-15
 4100 060c F4       		.byte	-12
 4101 060d 01       		.byte	1
 4102 060e 0E       		.byte	14
 4103 060f F1       		.byte	-15
 4104 0610 8E       		.byte	-114
 4105 0611 9E       		.byte	-98
 4106 0612 A8       		.byte	-88
 4107 0613 C6       		.byte	-58
 4108 0614 3E       		.byte	62
 4109 0615 56       		.byte	86
 4110 0616 F5       		.byte	-11
 4111 0617 54       		.byte	84
 4112 0618 F1       		.byte	-15
 4113 0619 88       		.byte	-120
 4114 061a 72       		.byte	114
 4115 061b F4       		.byte	-12
 4116 061c 01       		.byte	1
 4117 061d 15       		.byte	21
 4118 061e F1       		.byte	-15
 4119 061f 98       		.byte	-104
 4120 0620 45       		.byte	69
 4121 0621 85       		.byte	-123
 4122 0622 6E       		.byte	110
 4123 0623 F5       		.byte	-11
 4124 0624 8E       		.byte	-114
 4125 0625 9E       		.byte	-98
 4126 0626 04       		.byte	4
 4127 0627 88       		.byte	-120
 4128 0628 F1       		.byte	-15
 4129 0629 42       		.byte	66
 4130 062a 98       		.byte	-104
 4131 062b 5A       		.byte	90
 4132 062c 8E       		.byte	-114
 4133 062d 9E       		.byte	-98
 4134 062e 06       		.byte	6
 4135 062f 88       		.byte	-120
 4136 0630 69       		.byte	105
 4137 0631 F4       		.byte	-12
 4138 0632 01       		.byte	1
 4139 0633 1C       		.byte	28
 4140 0634 F1       		.byte	-15
 4141 0635 98       		.byte	-104
ARM GAS  /tmp/ccp3ezWO.s 			page 100


 4142 0636 1E       		.byte	30
 4143 0637 11       		.byte	17
 4144 0638 08       		.byte	8
 4145 0639 D0       		.byte	-48
 4146 063a F5       		.byte	-11
 4147 063b 04       		.byte	4
 4148 063c F1       		.byte	-15
 4149 063d 1E       		.byte	30
 4150 063e 97       		.byte	-105
 4151 063f 02       		.byte	2
 4152 0640 02       		.byte	2
 4153 0641 98       		.byte	-104
 4154 0642 36       		.byte	54
 4155 0643 25       		.byte	37
 4156 0644 DB       		.byte	-37
 4157 0645 F9       		.byte	-7
 4158 0646 D9       		.byte	-39
 4159 0647 85       		.byte	-123
 4160 0648 A5       		.byte	-91
 4161 0649 F3       		.byte	-13
 4162 064a C1       		.byte	-63
 4163 064b DA       		.byte	-38
 4164 064c 85       		.byte	-123
 4165 064d A5       		.byte	-91
 4166 064e F3       		.byte	-13
 4167 064f DF       		.byte	-33
 4168 0650 D8       		.byte	-40
 4169 0651 85       		.byte	-123
 4170 0652 95       		.byte	-107
 4171 0653 A8       		.byte	-88
 4172 0654 F3       		.byte	-13
 4173 0655 09       		.byte	9
 4174 0656 DA       		.byte	-38
 4175 0657 A5       		.byte	-91
 4176 0658 FA       		.byte	-6
 4177 0659 D8       		.byte	-40
 4178 065a 82       		.byte	-126
 4179 065b 92       		.byte	-110
 4180 065c A8       		.byte	-88
 4181 065d F5       		.byte	-11
 4182 065e 78       		.byte	120
 4183 065f F1       		.byte	-15
 4184 0660 88       		.byte	-120
 4185 0661 1A       		.byte	26
 4186 0662 84       		.byte	-124
 4187 0663 9F       		.byte	-97
 4188 0664 26       		.byte	38
 4189 0665 88       		.byte	-120
 4190 0666 98       		.byte	-104
 4191 0667 21       		.byte	33
 4192 0668 DA       		.byte	-38
 4193 0669 F4       		.byte	-12
 4194 066a 1D       		.byte	29
 4195 066b F3       		.byte	-13
 4196 066c D8       		.byte	-40
 4197 066d 87       		.byte	-121
 4198 066e 9F       		.byte	-97
ARM GAS  /tmp/ccp3ezWO.s 			page 101


 4199 066f 39       		.byte	57
 4200 0670 D1       		.byte	-47
 4201 0671 AF       		.byte	-81
 4202 0672 D9       		.byte	-39
 4203 0673 DF       		.byte	-33
 4204 0674 DF       		.byte	-33
 4205 0675 FB       		.byte	-5
 4206 0676 F9       		.byte	-7
 4207 0677 F4       		.byte	-12
 4208 0678 0C       		.byte	12
 4209 0679 F3       		.byte	-13
 4210 067a D8       		.byte	-40
 4211 067b FA       		.byte	-6
 4212 067c D0       		.byte	-48
 4213 067d F8       		.byte	-8
 4214 067e DA       		.byte	-38
 4215 067f F9       		.byte	-7
 4216 0680 F9       		.byte	-7
 4217 0681 D0       		.byte	-48
 4218 0682 DF       		.byte	-33
 4219 0683 D9       		.byte	-39
 4220 0684 F9       		.byte	-7
 4221 0685 D8       		.byte	-40
 4222 0686 F4       		.byte	-12
 4223 0687 0B       		.byte	11
 4224 0688 D8       		.byte	-40
 4225 0689 F3       		.byte	-13
 4226 068a 87       		.byte	-121
 4227 068b 9F       		.byte	-97
 4228 068c 39       		.byte	57
 4229 068d D1       		.byte	-47
 4230 068e AF       		.byte	-81
 4231 068f D9       		.byte	-39
 4232 0690 DF       		.byte	-33
 4233 0691 DF       		.byte	-33
 4234 0692 F4       		.byte	-12
 4235 0693 1D       		.byte	29
 4236 0694 F3       		.byte	-13
 4237 0695 D8       		.byte	-40
 4238 0696 FA       		.byte	-6
 4239 0697 FC       		.byte	-4
 4240 0698 A8       		.byte	-88
 4241 0699 69       		.byte	105
 4242 069a F9       		.byte	-7
 4243 069b F9       		.byte	-7
 4244 069c AF       		.byte	-81
 4245 069d D0       		.byte	-48
 4246 069e DA       		.byte	-38
 4247 069f DE       		.byte	-34
 4248 06a0 FA       		.byte	-6
 4249 06a1 D9       		.byte	-39
 4250 06a2 F8       		.byte	-8
 4251 06a3 8F       		.byte	-113
 4252 06a4 9F       		.byte	-97
 4253 06a5 A8       		.byte	-88
 4254 06a6 F1       		.byte	-15
 4255 06a7 CC       		.byte	-52
ARM GAS  /tmp/ccp3ezWO.s 			page 102


 4256 06a8 F3       		.byte	-13
 4257 06a9 98       		.byte	-104
 4258 06aa DB       		.byte	-37
 4259 06ab 45       		.byte	69
 4260 06ac D9       		.byte	-39
 4261 06ad AF       		.byte	-81
 4262 06ae DF       		.byte	-33
 4263 06af D0       		.byte	-48
 4264 06b0 F8       		.byte	-8
 4265 06b1 D8       		.byte	-40
 4266 06b2 F1       		.byte	-15
 4267 06b3 8F       		.byte	-113
 4268 06b4 9F       		.byte	-97
 4269 06b5 A8       		.byte	-88
 4270 06b6 CA       		.byte	-54
 4271 06b7 F3       		.byte	-13
 4272 06b8 88       		.byte	-120
 4273 06b9 09       		.byte	9
 4274 06ba DA       		.byte	-38
 4275 06bb AF       		.byte	-81
 4276 06bc 8F       		.byte	-113
 4277 06bd CB       		.byte	-53
 4278 06be F8       		.byte	-8
 4279 06bf D8       		.byte	-40
 4280 06c0 F2       		.byte	-14
 4281 06c1 AD       		.byte	-83
 4282 06c2 97       		.byte	-105
 4283 06c3 8D       		.byte	-115
 4284 06c4 0C       		.byte	12
 4285 06c5 D9       		.byte	-39
 4286 06c6 A5       		.byte	-91
 4287 06c7 DF       		.byte	-33
 4288 06c8 F9       		.byte	-7
 4289 06c9 BA       		.byte	-70
 4290 06ca A6       		.byte	-90
 4291 06cb F3       		.byte	-13
 4292 06cc FA       		.byte	-6
 4293 06cd F4       		.byte	-12
 4294 06ce 12       		.byte	18
 4295 06cf F2       		.byte	-14
 4296 06d0 D8       		.byte	-40
 4297 06d1 95       		.byte	-107
 4298 06d2 0D       		.byte	13
 4299 06d3 D1       		.byte	-47
 4300 06d4 D9       		.byte	-39
 4301 06d5 BA       		.byte	-70
 4302 06d6 A6       		.byte	-90
 4303 06d7 F3       		.byte	-13
 4304 06d8 FA       		.byte	-6
 4305 06d9 DA       		.byte	-38
 4306 06da A5       		.byte	-91
 4307 06db F2       		.byte	-14
 4308 06dc C1       		.byte	-63
 4309 06dd BA       		.byte	-70
 4310 06de A6       		.byte	-90
 4311 06df F3       		.byte	-13
 4312 06e0 DF       		.byte	-33
ARM GAS  /tmp/ccp3ezWO.s 			page 103


 4313 06e1 D8       		.byte	-40
 4314 06e2 F1       		.byte	-15
 4315 06e3 BA       		.byte	-70
 4316 06e4 B2       		.byte	-78
 4317 06e5 B6       		.byte	-74
 4318 06e6 86       		.byte	-122
 4319 06e7 96       		.byte	-106
 4320 06e8 A6       		.byte	-90
 4321 06e9 D0       		.byte	-48
 4322 06ea CA       		.byte	-54
 4323 06eb F3       		.byte	-13
 4324 06ec 49       		.byte	73
 4325 06ed DA       		.byte	-38
 4326 06ee A6       		.byte	-90
 4327 06ef CB       		.byte	-53
 4328 06f0 F8       		.byte	-8
 4329 06f1 D8       		.byte	-40
 4330 06f2 B0       		.byte	-80
 4331 06f3 B4       		.byte	-76
 4332 06f4 B8       		.byte	-72
 4333 06f5 D8       		.byte	-40
 4334 06f6 AD       		.byte	-83
 4335 06f7 84       		.byte	-124
 4336 06f8 F2       		.byte	-14
 4337 06f9 C0       		.byte	-64
 4338 06fa DF       		.byte	-33
 4339 06fb F1       		.byte	-15
 4340 06fc 8F       		.byte	-113
 4341 06fd CB       		.byte	-53
 4342 06fe C3       		.byte	-61
 4343 06ff A8       		.byte	-88
 4344 0700 B2       		.byte	-78
 4345 0701 B6       		.byte	-74
 4346 0702 86       		.byte	-122
 4347 0703 96       		.byte	-106
 4348 0704 C8       		.byte	-56
 4349 0705 C1       		.byte	-63
 4350 0706 CB       		.byte	-53
 4351 0707 C3       		.byte	-61
 4352 0708 F3       		.byte	-13
 4353 0709 B0       		.byte	-80
 4354 070a B4       		.byte	-76
 4355 070b 88       		.byte	-120
 4356 070c 98       		.byte	-104
 4357 070d A8       		.byte	-88
 4358 070e 21       		.byte	33
 4359 070f DB       		.byte	-37
 4360 0710 71       		.byte	113
 4361 0711 8D       		.byte	-115
 4362 0712 9D       		.byte	-99
 4363 0713 71       		.byte	113
 4364 0714 85       		.byte	-123
 4365 0715 95       		.byte	-107
 4366 0716 21       		.byte	33
 4367 0717 D9       		.byte	-39
 4368 0718 AD       		.byte	-83
 4369 0719 F2       		.byte	-14
ARM GAS  /tmp/ccp3ezWO.s 			page 104


 4370 071a FA       		.byte	-6
 4371 071b D8       		.byte	-40
 4372 071c 85       		.byte	-123
 4373 071d 97       		.byte	-105
 4374 071e A8       		.byte	-88
 4375 071f 28       		.byte	40
 4376 0720 D9       		.byte	-39
 4377 0721 F4       		.byte	-12
 4378 0722 08       		.byte	8
 4379 0723 D8       		.byte	-40
 4380 0724 F2       		.byte	-14
 4381 0725 8D       		.byte	-115
 4382 0726 29       		.byte	41
 4383 0727 DA       		.byte	-38
 4384 0728 F4       		.byte	-12
 4385 0729 05       		.byte	5
 4386 072a D9       		.byte	-39
 4387 072b F2       		.byte	-14
 4388 072c 85       		.byte	-123
 4389 072d A4       		.byte	-92
 4390 072e C2       		.byte	-62
 4391 072f F2       		.byte	-14
 4392 0730 D8       		.byte	-40
 4393 0731 A8       		.byte	-88
 4394 0732 8D       		.byte	-115
 4395 0733 94       		.byte	-108
 4396 0734 01       		.byte	1
 4397 0735 D1       		.byte	-47
 4398 0736 D9       		.byte	-39
 4399 0737 F4       		.byte	-12
 4400 0738 11       		.byte	17
 4401 0739 F2       		.byte	-14
 4402 073a D8       		.byte	-40
 4403 073b 87       		.byte	-121
 4404 073c 21       		.byte	33
 4405 073d D8       		.byte	-40
 4406 073e F4       		.byte	-12
 4407 073f 0A       		.byte	10
 4408 0740 D8       		.byte	-40
 4409 0741 F2       		.byte	-14
 4410 0742 84       		.byte	-124
 4411 0743 98       		.byte	-104
 4412 0744 A8       		.byte	-88
 4413 0745 C8       		.byte	-56
 4414 0746 01       		.byte	1
 4415 0747 D1       		.byte	-47
 4416 0748 D9       		.byte	-39
 4417 0749 F4       		.byte	-12
 4418 074a 11       		.byte	17
 4419 074b D8       		.byte	-40
 4420 074c F3       		.byte	-13
 4421 074d A4       		.byte	-92
 4422 074e C8       		.byte	-56
 4423 074f BB       		.byte	-69
 4424 0750 AF       		.byte	-81
 4425 0751 D0       		.byte	-48
 4426 0752 F2       		.byte	-14
ARM GAS  /tmp/ccp3ezWO.s 			page 105


 4427 0753 DE       		.byte	-34
 4428 0754 F8       		.byte	-8
 4429 0755 F8       		.byte	-8
 4430 0756 F8       		.byte	-8
 4431 0757 F8       		.byte	-8
 4432 0758 F8       		.byte	-8
 4433 0759 F8       		.byte	-8
 4434 075a F8       		.byte	-8
 4435 075b F8       		.byte	-8
 4436 075c D8       		.byte	-40
 4437 075d F1       		.byte	-15
 4438 075e B8       		.byte	-72
 4439 075f F6       		.byte	-10
 4440 0760 B5       		.byte	-75
 4441 0761 B9       		.byte	-71
 4442 0762 B0       		.byte	-80
 4443 0763 8A       		.byte	-118
 4444 0764 95       		.byte	-107
 4445 0765 A3       		.byte	-93
 4446 0766 DE       		.byte	-34
 4447 0767 3C       		.byte	60
 4448 0768 A3       		.byte	-93
 4449 0769 D9       		.byte	-39
 4450 076a F8       		.byte	-8
 4451 076b D8       		.byte	-40
 4452 076c 5C       		.byte	92
 4453 076d A3       		.byte	-93
 4454 076e D9       		.byte	-39
 4455 076f F8       		.byte	-8
 4456 0770 D8       		.byte	-40
 4457 0771 7C       		.byte	124
 4458 0772 A3       		.byte	-93
 4459 0773 D9       		.byte	-39
 4460 0774 F8       		.byte	-8
 4461 0775 D8       		.byte	-40
 4462 0776 F8       		.byte	-8
 4463 0777 F9       		.byte	-7
 4464 0778 D1       		.byte	-47
 4465 0779 A5       		.byte	-91
 4466 077a D9       		.byte	-39
 4467 077b DF       		.byte	-33
 4468 077c DA       		.byte	-38
 4469 077d FA       		.byte	-6
 4470 077e D8       		.byte	-40
 4471 077f B1       		.byte	-79
 4472 0780 85       		.byte	-123
 4473 0781 30       		.byte	48
 4474 0782 F7       		.byte	-9
 4475 0783 D9       		.byte	-39
 4476 0784 DE       		.byte	-34
 4477 0785 D8       		.byte	-40
 4478 0786 F8       		.byte	-8
 4479 0787 30       		.byte	48
 4480 0788 AD       		.byte	-83
 4481 0789 DA       		.byte	-38
 4482 078a DE       		.byte	-34
 4483 078b D8       		.byte	-40
ARM GAS  /tmp/ccp3ezWO.s 			page 106


 4484 078c F2       		.byte	-14
 4485 078d B4       		.byte	-76
 4486 078e 8C       		.byte	-116
 4487 078f 99       		.byte	-103
 4488 0790 A3       		.byte	-93
 4489 0791 2D       		.byte	45
 4490 0792 55       		.byte	85
 4491 0793 7D       		.byte	125
 4492 0794 A0       		.byte	-96
 4493 0795 83       		.byte	-125
 4494 0796 DF       		.byte	-33
 4495 0797 DF       		.byte	-33
 4496 0798 DF       		.byte	-33
 4497 0799 B5       		.byte	-75
 4498 079a 91       		.byte	-111
 4499 079b A0       		.byte	-96
 4500 079c F6       		.byte	-10
 4501 079d 29       		.byte	41
 4502 079e D9       		.byte	-39
 4503 079f FB       		.byte	-5
 4504 07a0 D8       		.byte	-40
 4505 07a1 A0       		.byte	-96
 4506 07a2 FC       		.byte	-4
 4507 07a3 29       		.byte	41
 4508 07a4 D9       		.byte	-39
 4509 07a5 FA       		.byte	-6
 4510 07a6 D8       		.byte	-40
 4511 07a7 A0       		.byte	-96
 4512 07a8 D0       		.byte	-48
 4513 07a9 51       		.byte	81
 4514 07aa D9       		.byte	-39
 4515 07ab F8       		.byte	-8
 4516 07ac D8       		.byte	-40
 4517 07ad FC       		.byte	-4
 4518 07ae 51       		.byte	81
 4519 07af D9       		.byte	-39
 4520 07b0 F9       		.byte	-7
 4521 07b1 D8       		.byte	-40
 4522 07b2 79       		.byte	121
 4523 07b3 D9       		.byte	-39
 4524 07b4 FB       		.byte	-5
 4525 07b5 D8       		.byte	-40
 4526 07b6 A0       		.byte	-96
 4527 07b7 D0       		.byte	-48
 4528 07b8 FC       		.byte	-4
 4529 07b9 79       		.byte	121
 4530 07ba D9       		.byte	-39
 4531 07bb FA       		.byte	-6
 4532 07bc D8       		.byte	-40
 4533 07bd A1       		.byte	-95
 4534 07be F9       		.byte	-7
 4535 07bf F9       		.byte	-7
 4536 07c0 F9       		.byte	-7
 4537 07c1 F9       		.byte	-7
 4538 07c2 F9       		.byte	-7
 4539 07c3 A0       		.byte	-96
 4540 07c4 DA       		.byte	-38
ARM GAS  /tmp/ccp3ezWO.s 			page 107


 4541 07c5 DF       		.byte	-33
 4542 07c6 DF       		.byte	-33
 4543 07c7 DF       		.byte	-33
 4544 07c8 D8       		.byte	-40
 4545 07c9 A1       		.byte	-95
 4546 07ca F8       		.byte	-8
 4547 07cb F8       		.byte	-8
 4548 07cc F8       		.byte	-8
 4549 07cd F8       		.byte	-8
 4550 07ce F8       		.byte	-8
 4551 07cf AC       		.byte	-84
 4552 07d0 DE       		.byte	-34
 4553 07d1 F8       		.byte	-8
 4554 07d2 AD       		.byte	-83
 4555 07d3 DE       		.byte	-34
 4556 07d4 83       		.byte	-125
 4557 07d5 93       		.byte	-109
 4558 07d6 AC       		.byte	-84
 4559 07d7 2C       		.byte	44
 4560 07d8 54       		.byte	84
 4561 07d9 7C       		.byte	124
 4562 07da F1       		.byte	-15
 4563 07db A8       		.byte	-88
 4564 07dc DF       		.byte	-33
 4565 07dd DF       		.byte	-33
 4566 07de DF       		.byte	-33
 4567 07df F6       		.byte	-10
 4568 07e0 9D       		.byte	-99
 4569 07e1 2C       		.byte	44
 4570 07e2 DA       		.byte	-38
 4571 07e3 A0       		.byte	-96
 4572 07e4 DF       		.byte	-33
 4573 07e5 D9       		.byte	-39
 4574 07e6 FA       		.byte	-6
 4575 07e7 DB       		.byte	-37
 4576 07e8 2D       		.byte	45
 4577 07e9 F8       		.byte	-8
 4578 07ea D8       		.byte	-40
 4579 07eb A8       		.byte	-88
 4580 07ec 50       		.byte	80
 4581 07ed DA       		.byte	-38
 4582 07ee A0       		.byte	-96
 4583 07ef D0       		.byte	-48
 4584 07f0 DE       		.byte	-34
 4585 07f1 D9       		.byte	-39
 4586 07f2 D0       		.byte	-48
 4587 07f3 F8       		.byte	-8
 4588 07f4 F8       		.byte	-8
 4589 07f5 F8       		.byte	-8
 4590 07f6 DB       		.byte	-37
 4591 07f7 55       		.byte	85
 4592 07f8 F8       		.byte	-8
 4593 07f9 D8       		.byte	-40
 4594 07fa A8       		.byte	-88
 4595 07fb 78       		.byte	120
 4596 07fc DA       		.byte	-38
 4597 07fd A0       		.byte	-96
ARM GAS  /tmp/ccp3ezWO.s 			page 108


 4598 07fe D0       		.byte	-48
 4599 07ff DF       		.byte	-33
 4600 0800 D9       		.byte	-39
 4601 0801 D0       		.byte	-48
 4602 0802 FA       		.byte	-6
 4603 0803 F8       		.byte	-8
 4604 0804 F8       		.byte	-8
 4605 0805 F8       		.byte	-8
 4606 0806 F8       		.byte	-8
 4607 0807 DB       		.byte	-37
 4608 0808 7D       		.byte	125
 4609 0809 F8       		.byte	-8
 4610 080a D8       		.byte	-40
 4611 080b 9C       		.byte	-100
 4612 080c A8       		.byte	-88
 4613 080d 8C       		.byte	-116
 4614 080e F5       		.byte	-11
 4615 080f 30       		.byte	48
 4616 0810 DB       		.byte	-37
 4617 0811 38       		.byte	56
 4618 0812 D9       		.byte	-39
 4619 0813 D0       		.byte	-48
 4620 0814 DE       		.byte	-34
 4621 0815 DF       		.byte	-33
 4622 0816 A0       		.byte	-96
 4623 0817 D0       		.byte	-48
 4624 0818 DE       		.byte	-34
 4625 0819 DF       		.byte	-33
 4626 081a D8       		.byte	-40
 4627 081b A8       		.byte	-88
 4628 081c 48       		.byte	72
 4629 081d DB       		.byte	-37
 4630 081e 58       		.byte	88
 4631 081f D9       		.byte	-39
 4632 0820 DF       		.byte	-33
 4633 0821 D0       		.byte	-48
 4634 0822 DE       		.byte	-34
 4635 0823 A0       		.byte	-96
 4636 0824 DF       		.byte	-33
 4637 0825 D0       		.byte	-48
 4638 0826 DE       		.byte	-34
 4639 0827 D8       		.byte	-40
 4640 0828 A8       		.byte	-88
 4641 0829 68       		.byte	104
 4642 082a DB       		.byte	-37
 4643 082b 70       		.byte	112
 4644 082c D9       		.byte	-39
 4645 082d DF       		.byte	-33
 4646 082e DF       		.byte	-33
 4647 082f A0       		.byte	-96
 4648 0830 DF       		.byte	-33
 4649 0831 DF       		.byte	-33
 4650 0832 D8       		.byte	-40
 4651 0833 F1       		.byte	-15
 4652 0834 A8       		.byte	-88
 4653 0835 88       		.byte	-120
 4654 0836 90       		.byte	-112
ARM GAS  /tmp/ccp3ezWO.s 			page 109


 4655 0837 2C       		.byte	44
 4656 0838 54       		.byte	84
 4657 0839 7C       		.byte	124
 4658 083a 98       		.byte	-104
 4659 083b A8       		.byte	-88
 4660 083c D0       		.byte	-48
 4661 083d 5C       		.byte	92
 4662 083e 38       		.byte	56
 4663 083f D1       		.byte	-47
 4664 0840 DA       		.byte	-38
 4665 0841 F2       		.byte	-14
 4666 0842 AE       		.byte	-82
 4667 0843 8C       		.byte	-116
 4668 0844 DF       		.byte	-33
 4669 0845 F9       		.byte	-7
 4670 0846 D8       		.byte	-40
 4671 0847 B0       		.byte	-80
 4672 0848 87       		.byte	-121
 4673 0849 A8       		.byte	-88
 4674 084a C1       		.byte	-63
 4675 084b C1       		.byte	-63
 4676 084c B1       		.byte	-79
 4677 084d 88       		.byte	-120
 4678 084e A8       		.byte	-88
 4679 084f C6       		.byte	-58
 4680 0850 F9       		.byte	-7
 4681 0851 F9       		.byte	-7
 4682 0852 DA       		.byte	-38
 4683 0853 36       		.byte	54
 4684 0854 D8       		.byte	-40
 4685 0855 A8       		.byte	-88
 4686 0856 F9       		.byte	-7
 4687 0857 DA       		.byte	-38
 4688 0858 36       		.byte	54
 4689 0859 D8       		.byte	-40
 4690 085a A8       		.byte	-88
 4691 085b F9       		.byte	-7
 4692 085c DA       		.byte	-38
 4693 085d 36       		.byte	54
 4694 085e D8       		.byte	-40
 4695 085f A8       		.byte	-88
 4696 0860 F9       		.byte	-7
 4697 0861 DA       		.byte	-38
 4698 0862 36       		.byte	54
 4699 0863 D8       		.byte	-40
 4700 0864 A8       		.byte	-88
 4701 0865 F9       		.byte	-7
 4702 0866 DA       		.byte	-38
 4703 0867 36       		.byte	54
 4704 0868 D8       		.byte	-40
 4705 0869 F7       		.byte	-9
 4706 086a 8D       		.byte	-115
 4707 086b 9D       		.byte	-99
 4708 086c AD       		.byte	-83
 4709 086d F8       		.byte	-8
 4710 086e 18       		.byte	24
 4711 086f DA       		.byte	-38
ARM GAS  /tmp/ccp3ezWO.s 			page 110


 4712 0870 F2       		.byte	-14
 4713 0871 AE       		.byte	-82
 4714 0872 DF       		.byte	-33
 4715 0873 D8       		.byte	-40
 4716 0874 F7       		.byte	-9
 4717 0875 AD       		.byte	-83
 4718 0876 FA       		.byte	-6
 4719 0877 30       		.byte	48
 4720 0878 D9       		.byte	-39
 4721 0879 A4       		.byte	-92
 4722 087a DE       		.byte	-34
 4723 087b F9       		.byte	-7
 4724 087c D8       		.byte	-40
 4725 087d F2       		.byte	-14
 4726 087e AE       		.byte	-82
 4727 087f DE       		.byte	-34
 4728 0880 FA       		.byte	-6
 4729 0881 F9       		.byte	-7
 4730 0882 83       		.byte	-125
 4731 0883 A7       		.byte	-89
 4732 0884 D9       		.byte	-39
 4733 0885 C3       		.byte	-61
 4734 0886 C5       		.byte	-59
 4735 0887 C7       		.byte	-57
 4736 0888 F1       		.byte	-15
 4737 0889 88       		.byte	-120
 4738 088a 9B       		.byte	-101
 4739 088b A7       		.byte	-89
 4740 088c 7A       		.byte	122
 4741 088d AD       		.byte	-83
 4742 088e F7       		.byte	-9
 4743 088f DE       		.byte	-34
 4744 0890 DF       		.byte	-33
 4745 0891 A4       		.byte	-92
 4746 0892 F8       		.byte	-8
 4747 0893 84       		.byte	-124
 4748 0894 94       		.byte	-108
 4749 0895 08       		.byte	8
 4750 0896 A7       		.byte	-89
 4751 0897 97       		.byte	-105
 4752 0898 F3       		.byte	-13
 4753 0899 00       		.byte	0
 4754 089a AE       		.byte	-82
 4755 089b F2       		.byte	-14
 4756 089c 98       		.byte	-104
 4757 089d 19       		.byte	25
 4758 089e A4       		.byte	-92
 4759 089f 88       		.byte	-120
 4760 08a0 C6       		.byte	-58
 4761 08a1 A3       		.byte	-93
 4762 08a2 94       		.byte	-108
 4763 08a3 88       		.byte	-120
 4764 08a4 F6       		.byte	-10
 4765 08a5 32       		.byte	50
 4766 08a6 DF       		.byte	-33
 4767 08a7 F2       		.byte	-14
 4768 08a8 83       		.byte	-125
ARM GAS  /tmp/ccp3ezWO.s 			page 111


 4769 08a9 93       		.byte	-109
 4770 08aa DB       		.byte	-37
 4771 08ab 09       		.byte	9
 4772 08ac D9       		.byte	-39
 4773 08ad F2       		.byte	-14
 4774 08ae AA       		.byte	-86
 4775 08af DF       		.byte	-33
 4776 08b0 D8       		.byte	-40
 4777 08b1 D8       		.byte	-40
 4778 08b2 AE       		.byte	-82
 4779 08b3 F8       		.byte	-8
 4780 08b4 F9       		.byte	-7
 4781 08b5 D1       		.byte	-47
 4782 08b6 DA       		.byte	-38
 4783 08b7 F3       		.byte	-13
 4784 08b8 A4       		.byte	-92
 4785 08b9 DE       		.byte	-34
 4786 08ba A7       		.byte	-89
 4787 08bb F1       		.byte	-15
 4788 08bc 88       		.byte	-120
 4789 08bd 9B       		.byte	-101
 4790 08be 7A       		.byte	122
 4791 08bf D8       		.byte	-40
 4792 08c0 F3       		.byte	-13
 4793 08c1 84       		.byte	-124
 4794 08c2 94       		.byte	-108
 4795 08c3 AE       		.byte	-82
 4796 08c4 19       		.byte	25
 4797 08c5 F9       		.byte	-7
 4798 08c6 DA       		.byte	-38
 4799 08c7 AA       		.byte	-86
 4800 08c8 F1       		.byte	-15
 4801 08c9 DF       		.byte	-33
 4802 08ca D8       		.byte	-40
 4803 08cb A8       		.byte	-88
 4804 08cc 81       		.byte	-127
 4805 08cd C0       		.byte	-64
 4806 08ce C3       		.byte	-61
 4807 08cf C5       		.byte	-59
 4808 08d0 C7       		.byte	-57
 4809 08d1 A3       		.byte	-93
 4810 08d2 92       		.byte	-110
 4811 08d3 83       		.byte	-125
 4812 08d4 F6       		.byte	-10
 4813 08d5 28       		.byte	40
 4814 08d6 AD       		.byte	-83
 4815 08d7 DE       		.byte	-34
 4816 08d8 D9       		.byte	-39
 4817 08d9 F8       		.byte	-8
 4818 08da D8       		.byte	-40
 4819 08db A3       		.byte	-93
 4820 08dc 50       		.byte	80
 4821 08dd AD       		.byte	-83
 4822 08de D9       		.byte	-39
 4823 08df F8       		.byte	-8
 4824 08e0 D8       		.byte	-40
 4825 08e1 A3       		.byte	-93
ARM GAS  /tmp/ccp3ezWO.s 			page 112


 4826 08e2 78       		.byte	120
 4827 08e3 AD       		.byte	-83
 4828 08e4 D9       		.byte	-39
 4829 08e5 F8       		.byte	-8
 4830 08e6 D8       		.byte	-40
 4831 08e7 F8       		.byte	-8
 4832 08e8 F9       		.byte	-7
 4833 08e9 D1       		.byte	-47
 4834 08ea A1       		.byte	-95
 4835 08eb DA       		.byte	-38
 4836 08ec DE       		.byte	-34
 4837 08ed C3       		.byte	-61
 4838 08ee C5       		.byte	-59
 4839 08ef C7       		.byte	-57
 4840 08f0 D8       		.byte	-40
 4841 08f1 A1       		.byte	-95
 4842 08f2 81       		.byte	-127
 4843 08f3 94       		.byte	-108
 4844 08f4 F8       		.byte	-8
 4845 08f5 18       		.byte	24
 4846 08f6 F2       		.byte	-14
 4847 08f7 B0       		.byte	-80
 4848 08f8 89       		.byte	-119
 4849 08f9 AC       		.byte	-84
 4850 08fa C3       		.byte	-61
 4851 08fb C5       		.byte	-59
 4852 08fc C7       		.byte	-57
 4853 08fd F1       		.byte	-15
 4854 08fe D8       		.byte	-40
 4855 08ff B8       		.byte	-72
 4856 0900 B4       		.byte	-76
 4857 0901 B0       		.byte	-80
 4858 0902 97       		.byte	-105
 4859 0903 86       		.byte	-122
 4860 0904 A8       		.byte	-88
 4861 0905 31       		.byte	49
 4862 0906 9B       		.byte	-101
 4863 0907 06       		.byte	6
 4864 0908 99       		.byte	-103
 4865 0909 07       		.byte	7
 4866 090a AB       		.byte	-85
 4867 090b 97       		.byte	-105
 4868 090c 28       		.byte	40
 4869 090d 88       		.byte	-120
 4870 090e 9B       		.byte	-101
 4871 090f F0       		.byte	-16
 4872 0910 0C       		.byte	12
 4873 0911 20       		.byte	32
 4874 0912 14       		.byte	20
 4875 0913 40       		.byte	64
 4876 0914 B0       		.byte	-80
 4877 0915 B4       		.byte	-76
 4878 0916 B8       		.byte	-72
 4879 0917 F0       		.byte	-16
 4880 0918 A8       		.byte	-88
 4881 0919 8A       		.byte	-118
 4882 091a 9A       		.byte	-102
ARM GAS  /tmp/ccp3ezWO.s 			page 113


 4883 091b 28       		.byte	40
 4884 091c 50       		.byte	80
 4885 091d 78       		.byte	120
 4886 091e B7       		.byte	-73
 4887 091f 9B       		.byte	-101
 4888 0920 A8       		.byte	-88
 4889 0921 29       		.byte	41
 4890 0922 51       		.byte	81
 4891 0923 79       		.byte	121
 4892 0924 24       		.byte	36
 4893 0925 70       		.byte	112
 4894 0926 59       		.byte	89
 4895 0927 44       		.byte	68
 4896 0928 69       		.byte	105
 4897 0929 38       		.byte	56
 4898 092a 64       		.byte	100
 4899 092b 48       		.byte	72
 4900 092c 31       		.byte	49
 4901 092d F1       		.byte	-15
 4902 092e BB       		.byte	-69
 4903 092f AB       		.byte	-85
 4904 0930 88       		.byte	-120
 4905 0931 00       		.byte	0
 4906 0932 2C       		.byte	44
 4907 0933 54       		.byte	84
 4908 0934 7C       		.byte	124
 4909 0935 F0       		.byte	-16
 4910 0936 B3       		.byte	-77
 4911 0937 8B       		.byte	-117
 4912 0938 B8       		.byte	-72
 4913 0939 A8       		.byte	-88
 4914 093a 04       		.byte	4
 4915 093b 28       		.byte	40
 4916 093c 50       		.byte	80
 4917 093d 78       		.byte	120
 4918 093e F1       		.byte	-15
 4919 093f B0       		.byte	-80
 4920 0940 88       		.byte	-120
 4921 0941 B4       		.byte	-76
 4922 0942 97       		.byte	-105
 4923 0943 26       		.byte	38
 4924 0944 A8       		.byte	-88
 4925 0945 59       		.byte	89
 4926 0946 98       		.byte	-104
 4927 0947 BB       		.byte	-69
 4928 0948 AB       		.byte	-85
 4929 0949 B3       		.byte	-77
 4930 094a 8B       		.byte	-117
 4931 094b 02       		.byte	2
 4932 094c 26       		.byte	38
 4933 094d 46       		.byte	70
 4934 094e 66       		.byte	102
 4935 094f B0       		.byte	-80
 4936 0950 B8       		.byte	-72
 4937 0951 F0       		.byte	-16
 4938 0952 8A       		.byte	-118
 4939 0953 9C       		.byte	-100
ARM GAS  /tmp/ccp3ezWO.s 			page 114


 4940 0954 A8       		.byte	-88
 4941 0955 29       		.byte	41
 4942 0956 51       		.byte	81
 4943 0957 79       		.byte	121
 4944 0958 8B       		.byte	-117
 4945 0959 29       		.byte	41
 4946 095a 51       		.byte	81
 4947 095b 79       		.byte	121
 4948 095c 8A       		.byte	-118
 4949 095d 24       		.byte	36
 4950 095e 70       		.byte	112
 4951 095f 59       		.byte	89
 4952 0960 8B       		.byte	-117
 4953 0961 20       		.byte	32
 4954 0962 58       		.byte	88
 4955 0963 71       		.byte	113
 4956 0964 8A       		.byte	-118
 4957 0965 44       		.byte	68
 4958 0966 69       		.byte	105
 4959 0967 38       		.byte	56
 4960 0968 8B       		.byte	-117
 4961 0969 39       		.byte	57
 4962 096a 40       		.byte	64
 4963 096b 68       		.byte	104
 4964 096c 8A       		.byte	-118
 4965 096d 64       		.byte	100
 4966 096e 48       		.byte	72
 4967 096f 31       		.byte	49
 4968 0970 8B       		.byte	-117
 4969 0971 30       		.byte	48
 4970 0972 49       		.byte	73
 4971 0973 60       		.byte	96
 4972 0974 88       		.byte	-120
 4973 0975 F1       		.byte	-15
 4974 0976 AC       		.byte	-84
 4975 0977 00       		.byte	0
 4976 0978 2C       		.byte	44
 4977 0979 54       		.byte	84
 4978 097a 7C       		.byte	124
 4979 097b F0       		.byte	-16
 4980 097c 8C       		.byte	-116
 4981 097d A8       		.byte	-88
 4982 097e 04       		.byte	4
 4983 097f 28       		.byte	40
 4984 0980 50       		.byte	80
 4985 0981 78       		.byte	120
 4986 0982 F1       		.byte	-15
 4987 0983 88       		.byte	-120
 4988 0984 97       		.byte	-105
 4989 0985 26       		.byte	38
 4990 0986 A8       		.byte	-88
 4991 0987 59       		.byte	89
 4992 0988 98       		.byte	-104
 4993 0989 AC       		.byte	-84
 4994 098a 8C       		.byte	-116
 4995 098b 02       		.byte	2
 4996 098c 26       		.byte	38
ARM GAS  /tmp/ccp3ezWO.s 			page 115


 4997 098d 46       		.byte	70
 4998 098e 66       		.byte	102
 4999 098f F0       		.byte	-16
 5000 0990 89       		.byte	-119
 5001 0991 9C       		.byte	-100
 5002 0992 A8       		.byte	-88
 5003 0993 29       		.byte	41
 5004 0994 51       		.byte	81
 5005 0995 79       		.byte	121
 5006 0996 24       		.byte	36
 5007 0997 70       		.byte	112
 5008 0998 59       		.byte	89
 5009 0999 44       		.byte	68
 5010 099a 69       		.byte	105
 5011 099b 38       		.byte	56
 5012 099c 64       		.byte	100
 5013 099d 48       		.byte	72
 5014 099e 31       		.byte	49
 5015 099f A9       		.byte	-87
 5016 09a0 88       		.byte	-120
 5017 09a1 09       		.byte	9
 5018 09a2 20       		.byte	32
 5019 09a3 59       		.byte	89
 5020 09a4 70       		.byte	112
 5021 09a5 AB       		.byte	-85
 5022 09a6 11       		.byte	17
 5023 09a7 38       		.byte	56
 5024 09a8 40       		.byte	64
 5025 09a9 69       		.byte	105
 5026 09aa A8       		.byte	-88
 5027 09ab 19       		.byte	25
 5028 09ac 31       		.byte	49
 5029 09ad 48       		.byte	72
 5030 09ae 60       		.byte	96
 5031 09af 8C       		.byte	-116
 5032 09b0 A8       		.byte	-88
 5033 09b1 3C       		.byte	60
 5034 09b2 41       		.byte	65
 5035 09b3 5C       		.byte	92
 5036 09b4 20       		.byte	32
 5037 09b5 7C       		.byte	124
 5038 09b6 00       		.byte	0
 5039 09b7 F1       		.byte	-15
 5040 09b8 87       		.byte	-121
 5041 09b9 98       		.byte	-104
 5042 09ba 19       		.byte	25
 5043 09bb 86       		.byte	-122
 5044 09bc A8       		.byte	-88
 5045 09bd 6E       		.byte	110
 5046 09be 76       		.byte	118
 5047 09bf 7E       		.byte	126
 5048 09c0 A9       		.byte	-87
 5049 09c1 99       		.byte	-103
 5050 09c2 88       		.byte	-120
 5051 09c3 2D       		.byte	45
 5052 09c4 55       		.byte	85
 5053 09c5 7D       		.byte	125
ARM GAS  /tmp/ccp3ezWO.s 			page 116


 5054 09c6 D8       		.byte	-40
 5055 09c7 B1       		.byte	-79
 5056 09c8 B5       		.byte	-75
 5057 09c9 B9       		.byte	-71
 5058 09ca A3       		.byte	-93
 5059 09cb DF       		.byte	-33
 5060 09cc DF       		.byte	-33
 5061 09cd DF       		.byte	-33
 5062 09ce AE       		.byte	-82
 5063 09cf D0       		.byte	-48
 5064 09d0 DF       		.byte	-33
 5065 09d1 AA       		.byte	-86
 5066 09d2 D0       		.byte	-48
 5067 09d3 DE       		.byte	-34
 5068 09d4 F2       		.byte	-14
 5069 09d5 AB       		.byte	-85
 5070 09d6 F8       		.byte	-8
 5071 09d7 F9       		.byte	-7
 5072 09d8 D9       		.byte	-39
 5073 09d9 B0       		.byte	-80
 5074 09da 87       		.byte	-121
 5075 09db C4       		.byte	-60
 5076 09dc AA       		.byte	-86
 5077 09dd F1       		.byte	-15
 5078 09de DF       		.byte	-33
 5079 09df DF       		.byte	-33
 5080 09e0 BB       		.byte	-69
 5081 09e1 AF       		.byte	-81
 5082 09e2 DF       		.byte	-33
 5083 09e3 DF       		.byte	-33
 5084 09e4 B9       		.byte	-71
 5085 09e5 D8       		.byte	-40
 5086 09e6 B1       		.byte	-79
 5087 09e7 F1       		.byte	-15
 5088 09e8 A3       		.byte	-93
 5089 09e9 97       		.byte	-105
 5090 09ea 8E       		.byte	-114
 5091 09eb 60       		.byte	96
 5092 09ec DF       		.byte	-33
 5093 09ed B0       		.byte	-80
 5094 09ee 84       		.byte	-124
 5095 09ef F2       		.byte	-14
 5096 09f0 C8       		.byte	-56
 5097 09f1 F8       		.byte	-8
 5098 09f2 F9       		.byte	-7
 5099 09f3 D9       		.byte	-39
 5100 09f4 DE       		.byte	-34
 5101 09f5 D8       		.byte	-40
 5102 09f6 93       		.byte	-109
 5103 09f7 85       		.byte	-123
 5104 09f8 F1       		.byte	-15
 5105 09f9 4A       		.byte	74
 5106 09fa B1       		.byte	-79
 5107 09fb 83       		.byte	-125
 5108 09fc A3       		.byte	-93
 5109 09fd 08       		.byte	8
 5110 09fe B5       		.byte	-75
ARM GAS  /tmp/ccp3ezWO.s 			page 117


 5111 09ff 83       		.byte	-125
 5112 0a00 9A       		.byte	-102
 5113 0a01 08       		.byte	8
 5114 0a02 10       		.byte	16
 5115 0a03 B7       		.byte	-73
 5116 0a04 9F       		.byte	-97
 5117 0a05 10       		.byte	16
 5118 0a06 D8       		.byte	-40
 5119 0a07 F1       		.byte	-15
 5120 0a08 B0       		.byte	-80
 5121 0a09 BA       		.byte	-70
 5122 0a0a AE       		.byte	-82
 5123 0a0b B0       		.byte	-80
 5124 0a0c 8A       		.byte	-118
 5125 0a0d C2       		.byte	-62
 5126 0a0e B2       		.byte	-78
 5127 0a0f B6       		.byte	-74
 5128 0a10 8E       		.byte	-114
 5129 0a11 9E       		.byte	-98
 5130 0a12 F1       		.byte	-15
 5131 0a13 FB       		.byte	-5
 5132 0a14 D9       		.byte	-39
 5133 0a15 F4       		.byte	-12
 5134 0a16 1D       		.byte	29
 5135 0a17 D8       		.byte	-40
 5136 0a18 F9       		.byte	-7
 5137 0a19 D9       		.byte	-39
 5138 0a1a 0C       		.byte	12
 5139 0a1b F1       		.byte	-15
 5140 0a1c D8       		.byte	-40
 5141 0a1d F8       		.byte	-8
 5142 0a1e F8       		.byte	-8
 5143 0a1f AD       		.byte	-83
 5144 0a20 61       		.byte	97
 5145 0a21 D9       		.byte	-39
 5146 0a22 AE       		.byte	-82
 5147 0a23 FB       		.byte	-5
 5148 0a24 D8       		.byte	-40
 5149 0a25 F4       		.byte	-12
 5150 0a26 0C       		.byte	12
 5151 0a27 F1       		.byte	-15
 5152 0a28 D8       		.byte	-40
 5153 0a29 F8       		.byte	-8
 5154 0a2a F8       		.byte	-8
 5155 0a2b AD       		.byte	-83
 5156 0a2c 19       		.byte	25
 5157 0a2d D9       		.byte	-39
 5158 0a2e AE       		.byte	-82
 5159 0a2f FB       		.byte	-5
 5160 0a30 DF       		.byte	-33
 5161 0a31 D8       		.byte	-40
 5162 0a32 F4       		.byte	-12
 5163 0a33 16       		.byte	22
 5164 0a34 F1       		.byte	-15
 5165 0a35 D8       		.byte	-40
 5166 0a36 F8       		.byte	-8
 5167 0a37 AD       		.byte	-83
ARM GAS  /tmp/ccp3ezWO.s 			page 118


 5168 0a38 8D       		.byte	-115
 5169 0a39 61       		.byte	97
 5170 0a3a D9       		.byte	-39
 5171 0a3b F4       		.byte	-12
 5172 0a3c F4       		.byte	-12
 5173 0a3d AC       		.byte	-84
 5174 0a3e F5       		.byte	-11
 5175 0a3f 9C       		.byte	-100
 5176 0a40 9C       		.byte	-100
 5177 0a41 8D       		.byte	-115
 5178 0a42 DF       		.byte	-33
 5179 0a43 2B       		.byte	43
 5180 0a44 BA       		.byte	-70
 5181 0a45 B6       		.byte	-74
 5182 0a46 AE       		.byte	-82
 5183 0a47 FA       		.byte	-6
 5184 0a48 F8       		.byte	-8
 5185 0a49 F4       		.byte	-12
 5186 0a4a 0B       		.byte	11
 5187 0a4b D8       		.byte	-40
 5188 0a4c F1       		.byte	-15
 5189 0a4d AE       		.byte	-82
 5190 0a4e D0       		.byte	-48
 5191 0a4f F8       		.byte	-8
 5192 0a50 AD       		.byte	-83
 5193 0a51 51       		.byte	81
 5194 0a52 DA       		.byte	-38
 5195 0a53 AE       		.byte	-82
 5196 0a54 FA       		.byte	-6
 5197 0a55 F8       		.byte	-8
 5198 0a56 F1       		.byte	-15
 5199 0a57 D8       		.byte	-40
 5200 0a58 B9       		.byte	-71
 5201 0a59 B1       		.byte	-79
 5202 0a5a B6       		.byte	-74
 5203 0a5b A3       		.byte	-93
 5204 0a5c 83       		.byte	-125
 5205 0a5d 9C       		.byte	-100
 5206 0a5e 08       		.byte	8
 5207 0a5f B9       		.byte	-71
 5208 0a60 B1       		.byte	-79
 5209 0a61 83       		.byte	-125
 5210 0a62 9A       		.byte	-102
 5211 0a63 B5       		.byte	-75
 5212 0a64 AA       		.byte	-86
 5213 0a65 C0       		.byte	-64
 5214 0a66 FD       		.byte	-3
 5215 0a67 30       		.byte	48
 5216 0a68 83       		.byte	-125
 5217 0a69 B7       		.byte	-73
 5218 0a6a 9F       		.byte	-97
 5219 0a6b 10       		.byte	16
 5220 0a6c B5       		.byte	-75
 5221 0a6d 8B       		.byte	-117
 5222 0a6e 93       		.byte	-109
 5223 0a6f F2       		.byte	-14
 5224 0a70 02       		.byte	2
ARM GAS  /tmp/ccp3ezWO.s 			page 119


 5225 0a71 02       		.byte	2
 5226 0a72 D1       		.byte	-47
 5227 0a73 AB       		.byte	-85
 5228 0a74 DA       		.byte	-38
 5229 0a75 DE       		.byte	-34
 5230 0a76 D8       		.byte	-40
 5231 0a77 F1       		.byte	-15
 5232 0a78 B0       		.byte	-80
 5233 0a79 80       		.byte	-128
 5234 0a7a BA       		.byte	-70
 5235 0a7b AB       		.byte	-85
 5236 0a7c C0       		.byte	-64
 5237 0a7d C3       		.byte	-61
 5238 0a7e B2       		.byte	-78
 5239 0a7f 84       		.byte	-124
 5240 0a80 C1       		.byte	-63
 5241 0a81 C3       		.byte	-61
 5242 0a82 D8       		.byte	-40
 5243 0a83 B1       		.byte	-79
 5244 0a84 B9       		.byte	-71
 5245 0a85 F3       		.byte	-13
 5246 0a86 8B       		.byte	-117
 5247 0a87 A3       		.byte	-93
 5248 0a88 91       		.byte	-111
 5249 0a89 B6       		.byte	-74
 5250 0a8a 09       		.byte	9
 5251 0a8b B4       		.byte	-76
 5252 0a8c D9       		.byte	-39
 5253 0a8d AB       		.byte	-85
 5254 0a8e DE       		.byte	-34
 5255 0a8f B0       		.byte	-80
 5256 0a90 87       		.byte	-121
 5257 0a91 9C       		.byte	-100
 5258 0a92 B9       		.byte	-71
 5259 0a93 A3       		.byte	-93
 5260 0a94 DD       		.byte	-35
 5261 0a95 F1       		.byte	-15
 5262 0a96 B3       		.byte	-77
 5263 0a97 8B       		.byte	-117
 5264 0a98 8B       		.byte	-117
 5265 0a99 8B       		.byte	-117
 5266 0a9a 8B       		.byte	-117
 5267 0a9b 8B       		.byte	-117
 5268 0a9c B0       		.byte	-80
 5269 0a9d 87       		.byte	-121
 5270 0a9e A3       		.byte	-93
 5271 0a9f A3       		.byte	-93
 5272 0aa0 A3       		.byte	-93
 5273 0aa1 A3       		.byte	-93
 5274 0aa2 B2       		.byte	-78
 5275 0aa3 8B       		.byte	-117
 5276 0aa4 B6       		.byte	-74
 5277 0aa5 9B       		.byte	-101
 5278 0aa6 F2       		.byte	-14
 5279 0aa7 A3       		.byte	-93
 5280 0aa8 A3       		.byte	-93
 5281 0aa9 A3       		.byte	-93
ARM GAS  /tmp/ccp3ezWO.s 			page 120


 5282 0aaa A3       		.byte	-93
 5283 0aab A3       		.byte	-93
 5284 0aac A3       		.byte	-93
 5285 0aad A3       		.byte	-93
 5286 0aae A3       		.byte	-93
 5287 0aaf A3       		.byte	-93
 5288 0ab0 A3       		.byte	-93
 5289 0ab1 F1       		.byte	-15
 5290 0ab2 B0       		.byte	-80
 5291 0ab3 87       		.byte	-121
 5292 0ab4 B5       		.byte	-75
 5293 0ab5 9A       		.byte	-102
 5294 0ab6 A3       		.byte	-93
 5295 0ab7 F3       		.byte	-13
 5296 0ab8 9B       		.byte	-101
 5297 0ab9 A3       		.byte	-93
 5298 0aba A3       		.byte	-93
 5299 0abb DC       		.byte	-36
 5300 0abc BA       		.byte	-70
 5301 0abd AC       		.byte	-84
 5302 0abe DF       		.byte	-33
 5303 0abf B9       		.byte	-71
 5304 0ac0 A3       		.byte	-93
 5305 0ac1 A3       		.byte	-93
 5306 0ac2 A3       		.byte	-93
 5307 0ac3 A3       		.byte	-93
 5308 0ac4 A3       		.byte	-93
 5309 0ac5 A3       		.byte	-93
 5310 0ac6 A3       		.byte	-93
 5311 0ac7 A3       		.byte	-93
 5312 0ac8 A3       		.byte	-93
 5313 0ac9 A3       		.byte	-93
 5314 0aca A3       		.byte	-93
 5315 0acb A3       		.byte	-93
 5316 0acc A3       		.byte	-93
 5317 0acd A3       		.byte	-93
 5318 0ace A3       		.byte	-93
 5319 0acf A3       		.byte	-93
 5320 0ad0 D8       		.byte	-40
 5321 0ad1 D8       		.byte	-40
 5322 0ad2 D8       		.byte	-40
 5323 0ad3 BB       		.byte	-69
 5324 0ad4 B3       		.byte	-77
 5325 0ad5 B7       		.byte	-73
 5326 0ad6 F1       		.byte	-15
 5327 0ad7 AA       		.byte	-86
 5328 0ad8 F9       		.byte	-7
 5329 0ad9 DA       		.byte	-38
 5330 0ada FF       		.byte	-1
 5331 0adb D9       		.byte	-39
 5332 0adc 80       		.byte	-128
 5333 0add 9A       		.byte	-102
 5334 0ade AA       		.byte	-86
 5335 0adf 28       		.byte	40
 5336 0ae0 B4       		.byte	-76
 5337 0ae1 80       		.byte	-128
 5338 0ae2 98       		.byte	-104
ARM GAS  /tmp/ccp3ezWO.s 			page 121


 5339 0ae3 A7       		.byte	-89
 5340 0ae4 20       		.byte	32
 5341 0ae5 B7       		.byte	-73
 5342 0ae6 97       		.byte	-105
 5343 0ae7 87       		.byte	-121
 5344 0ae8 A8       		.byte	-88
 5345 0ae9 66       		.byte	102
 5346 0aea 88       		.byte	-120
 5347 0aeb F0       		.byte	-16
 5348 0aec 79       		.byte	121
 5349 0aed 51       		.byte	81
 5350 0aee F1       		.byte	-15
 5351 0aef 90       		.byte	-112
 5352 0af0 2C       		.byte	44
 5353 0af1 87       		.byte	-121
 5354 0af2 0C       		.byte	12
 5355 0af3 A7       		.byte	-89
 5356 0af4 81       		.byte	-127
 5357 0af5 97       		.byte	-105
 5358 0af6 62       		.byte	98
 5359 0af7 93       		.byte	-109
 5360 0af8 F0       		.byte	-16
 5361 0af9 71       		.byte	113
 5362 0afa 71       		.byte	113
 5363 0afb 60       		.byte	96
 5364 0afc 85       		.byte	-123
 5365 0afd 94       		.byte	-108
 5366 0afe 01       		.byte	1
 5367 0aff 29       		.byte	41
 5368 0b00 51       		.byte	81
 5369 0b01 79       		.byte	121
 5370 0b02 90       		.byte	-112
 5371 0b03 A5       		.byte	-91
 5372 0b04 F1       		.byte	-15
 5373 0b05 28       		.byte	40
 5374 0b06 4C       		.byte	76
 5375 0b07 6C       		.byte	108
 5376 0b08 87       		.byte	-121
 5377 0b09 0C       		.byte	12
 5378 0b0a 95       		.byte	-107
 5379 0b0b 18       		.byte	24
 5380 0b0c 85       		.byte	-123
 5381 0b0d 78       		.byte	120
 5382 0b0e A3       		.byte	-93
 5383 0b0f 83       		.byte	-125
 5384 0b10 90       		.byte	-112
 5385 0b11 28       		.byte	40
 5386 0b12 4C       		.byte	76
 5387 0b13 6C       		.byte	108
 5388 0b14 88       		.byte	-120
 5389 0b15 6C       		.byte	108
 5390 0b16 D8       		.byte	-40
 5391 0b17 F3       		.byte	-13
 5392 0b18 A2       		.byte	-94
 5393 0b19 82       		.byte	-126
 5394 0b1a 00       		.byte	0
 5395 0b1b F2       		.byte	-14
ARM GAS  /tmp/ccp3ezWO.s 			page 122


 5396 0b1c 10       		.byte	16
 5397 0b1d A8       		.byte	-88
 5398 0b1e 92       		.byte	-110
 5399 0b1f 19       		.byte	25
 5400 0b20 80       		.byte	-128
 5401 0b21 A2       		.byte	-94
 5402 0b22 F2       		.byte	-14
 5403 0b23 D9       		.byte	-39
 5404 0b24 26       		.byte	38
 5405 0b25 D8       		.byte	-40
 5406 0b26 F1       		.byte	-15
 5407 0b27 88       		.byte	-120
 5408 0b28 A8       		.byte	-88
 5409 0b29 4D       		.byte	77
 5410 0b2a D9       		.byte	-39
 5411 0b2b 48       		.byte	72
 5412 0b2c D8       		.byte	-40
 5413 0b2d 96       		.byte	-106
 5414 0b2e A8       		.byte	-88
 5415 0b2f 39       		.byte	57
 5416 0b30 80       		.byte	-128
 5417 0b31 D9       		.byte	-39
 5418 0b32 3C       		.byte	60
 5419 0b33 D8       		.byte	-40
 5420 0b34 95       		.byte	-107
 5421 0b35 80       		.byte	-128
 5422 0b36 A8       		.byte	-88
 5423 0b37 39       		.byte	57
 5424 0b38 A6       		.byte	-90
 5425 0b39 86       		.byte	-122
 5426 0b3a 98       		.byte	-104
 5427 0b3b D9       		.byte	-39
 5428 0b3c 2C       		.byte	44
 5429 0b3d DA       		.byte	-38
 5430 0b3e 87       		.byte	-121
 5431 0b3f A7       		.byte	-89
 5432 0b40 2C       		.byte	44
 5433 0b41 D8       		.byte	-40
 5434 0b42 A8       		.byte	-88
 5435 0b43 89       		.byte	-119
 5436 0b44 95       		.byte	-107
 5437 0b45 19       		.byte	25
 5438 0b46 A9       		.byte	-87
 5439 0b47 80       		.byte	-128
 5440 0b48 D9       		.byte	-39
 5441 0b49 38       		.byte	56
 5442 0b4a D8       		.byte	-40
 5443 0b4b A8       		.byte	-88
 5444 0b4c 89       		.byte	-119
 5445 0b4d 39       		.byte	57
 5446 0b4e A9       		.byte	-87
 5447 0b4f 80       		.byte	-128
 5448 0b50 DA       		.byte	-38
 5449 0b51 3C       		.byte	60
 5450 0b52 D8       		.byte	-40
 5451 0b53 A8       		.byte	-88
 5452 0b54 2E       		.byte	46
ARM GAS  /tmp/ccp3ezWO.s 			page 123


 5453 0b55 A8       		.byte	-88
 5454 0b56 39       		.byte	57
 5455 0b57 90       		.byte	-112
 5456 0b58 D9       		.byte	-39
 5457 0b59 0C       		.byte	12
 5458 0b5a D8       		.byte	-40
 5459 0b5b A8       		.byte	-88
 5460 0b5c 95       		.byte	-107
 5461 0b5d 31       		.byte	49
 5462 0b5e 98       		.byte	-104
 5463 0b5f D9       		.byte	-39
 5464 0b60 0C       		.byte	12
 5465 0b61 D8       		.byte	-40
 5466 0b62 A8       		.byte	-88
 5467 0b63 09       		.byte	9
 5468 0b64 D9       		.byte	-39
 5469 0b65 FF       		.byte	-1
 5470 0b66 D8       		.byte	-40
 5471 0b67 01       		.byte	1
 5472 0b68 DA       		.byte	-38
 5473 0b69 FF       		.byte	-1
 5474 0b6a D8       		.byte	-40
 5475 0b6b 95       		.byte	-107
 5476 0b6c 39       		.byte	57
 5477 0b6d A9       		.byte	-87
 5478 0b6e DA       		.byte	-38
 5479 0b6f 26       		.byte	38
 5480 0b70 FF       		.byte	-1
 5481 0b71 D8       		.byte	-40
 5482 0b72 90       		.byte	-112
 5483 0b73 A8       		.byte	-88
 5484 0b74 0D       		.byte	13
 5485 0b75 89       		.byte	-119
 5486 0b76 99       		.byte	-103
 5487 0b77 A8       		.byte	-88
 5488 0b78 10       		.byte	16
 5489 0b79 80       		.byte	-128
 5490 0b7a 98       		.byte	-104
 5491 0b7b 21       		.byte	33
 5492 0b7c DA       		.byte	-38
 5493 0b7d 2E       		.byte	46
 5494 0b7e D8       		.byte	-40
 5495 0b7f 89       		.byte	-119
 5496 0b80 99       		.byte	-103
 5497 0b81 A8       		.byte	-88
 5498 0b82 31       		.byte	49
 5499 0b83 80       		.byte	-128
 5500 0b84 DA       		.byte	-38
 5501 0b85 2E       		.byte	46
 5502 0b86 D8       		.byte	-40
 5503 0b87 A8       		.byte	-88
 5504 0b88 86       		.byte	-122
 5505 0b89 96       		.byte	-106
 5506 0b8a 31       		.byte	49
 5507 0b8b 80       		.byte	-128
 5508 0b8c DA       		.byte	-38
 5509 0b8d 2E       		.byte	46
ARM GAS  /tmp/ccp3ezWO.s 			page 124


 5510 0b8e D8       		.byte	-40
 5511 0b8f A8       		.byte	-88
 5512 0b90 87       		.byte	-121
 5513 0b91 31       		.byte	49
 5514 0b92 80       		.byte	-128
 5515 0b93 DA       		.byte	-38
 5516 0b94 2E       		.byte	46
 5517 0b95 D8       		.byte	-40
 5518 0b96 A8       		.byte	-88
 5519 0b97 82       		.byte	-126
 5520 0b98 92       		.byte	-110
 5521 0b99 F3       		.byte	-13
 5522 0b9a 41       		.byte	65
 5523 0b9b 80       		.byte	-128
 5524 0b9c F1       		.byte	-15
 5525 0b9d D9       		.byte	-39
 5526 0b9e 2E       		.byte	46
 5527 0b9f D8       		.byte	-40
 5528 0ba0 A8       		.byte	-88
 5529 0ba1 82       		.byte	-126
 5530 0ba2 F3       		.byte	-13
 5531 0ba3 19       		.byte	25
 5532 0ba4 80       		.byte	-128
 5533 0ba5 F1       		.byte	-15
 5534 0ba6 D9       		.byte	-39
 5535 0ba7 2E       		.byte	46
 5536 0ba8 D8       		.byte	-40
 5537 0ba9 82       		.byte	-126
 5538 0baa AC       		.byte	-84
 5539 0bab F3       		.byte	-13
 5540 0bac C0       		.byte	-64
 5541 0bad A2       		.byte	-94
 5542 0bae 80       		.byte	-128
 5543 0baf 22       		.byte	34
 5544 0bb0 F1       		.byte	-15
 5545 0bb1 A6       		.byte	-90
 5546 0bb2 2E       		.byte	46
 5547 0bb3 A7       		.byte	-89
 5548 0bb4 2E       		.byte	46
 5549 0bb5 A9       		.byte	-87
 5550 0bb6 22       		.byte	34
 5551 0bb7 98       		.byte	-104
 5552 0bb8 A8       		.byte	-88
 5553 0bb9 29       		.byte	41
 5554 0bba DA       		.byte	-38
 5555 0bbb AC       		.byte	-84
 5556 0bbc DE       		.byte	-34
 5557 0bbd FF       		.byte	-1
 5558 0bbe D8       		.byte	-40
 5559 0bbf A2       		.byte	-94
 5560 0bc0 F2       		.byte	-14
 5561 0bc1 2A       		.byte	42
 5562 0bc2 F1       		.byte	-15
 5563 0bc3 A9       		.byte	-87
 5564 0bc4 2E       		.byte	46
 5565 0bc5 82       		.byte	-126
 5566 0bc6 92       		.byte	-110
ARM GAS  /tmp/ccp3ezWO.s 			page 125


 5567 0bc7 A8       		.byte	-88
 5568 0bc8 F2       		.byte	-14
 5569 0bc9 31       		.byte	49
 5570 0bca 80       		.byte	-128
 5571 0bcb A6       		.byte	-90
 5572 0bcc 96       		.byte	-106
 5573 0bcd F1       		.byte	-15
 5574 0bce D9       		.byte	-39
 5575 0bcf 00       		.byte	0
 5576 0bd0 AC       		.byte	-84
 5577 0bd1 8C       		.byte	-116
 5578 0bd2 9C       		.byte	-100
 5579 0bd3 0C       		.byte	12
 5580 0bd4 30       		.byte	48
 5581 0bd5 AC       		.byte	-84
 5582 0bd6 DE       		.byte	-34
 5583 0bd7 D0       		.byte	-48
 5584 0bd8 DE       		.byte	-34
 5585 0bd9 FF       		.byte	-1
 5586 0bda D8       		.byte	-40
 5587 0bdb 8C       		.byte	-116
 5588 0bdc 9C       		.byte	-100
 5589 0bdd AC       		.byte	-84
 5590 0bde D0       		.byte	-48
 5591 0bdf 10       		.byte	16
 5592 0be0 AC       		.byte	-84
 5593 0be1 DE       		.byte	-34
 5594 0be2 80       		.byte	-128
 5595 0be3 92       		.byte	-110
 5596 0be4 A2       		.byte	-94
 5597 0be5 F2       		.byte	-14
 5598 0be6 4C       		.byte	76
 5599 0be7 82       		.byte	-126
 5600 0be8 A8       		.byte	-88
 5601 0be9 F1       		.byte	-15
 5602 0bea CA       		.byte	-54
 5603 0beb F2       		.byte	-14
 5604 0bec 35       		.byte	53
 5605 0bed F1       		.byte	-15
 5606 0bee 96       		.byte	-106
 5607 0bef 88       		.byte	-120
 5608 0bf0 A6       		.byte	-90
 5609 0bf1 D9       		.byte	-39
 5610 0bf2 00       		.byte	0
 5611 0bf3 D8       		.byte	-40
 5612 0bf4 F1       		.byte	-15
 5613 0bf5 FF       		.byte	-1
 5614 0bf6 0000     		.space	2
 5615              	.LC4:
 5616 0bf8 FE       		.byte	-2
 5617 0bf9 F2       		.byte	-14
 5618 0bfa AB       		.byte	-85
 5619 0bfb C4       		.byte	-60
 5620 0bfc AA       		.byte	-86
 5621 0bfd F1       		.byte	-15
 5622 0bfe DF       		.byte	-33
 5623 0bff DF       		.byte	-33
ARM GAS  /tmp/ccp3ezWO.s 			page 126


 5624 0c00 BB       		.byte	-69
 5625 0c01 AF       		.byte	-81
 5626 0c02 DF       		.byte	-33
 5627 0c03 DF       		.byte	-33
 5628              	.LC5:
 5629 0c04 B8       		.byte	-72
 5630 0c05 AA       		.byte	-86
 5631 0c06 B3       		.byte	-77
 5632 0c07 8D       		.byte	-115
 5633 0c08 B4       		.byte	-76
 5634 0c09 98       		.byte	-104
 5635 0c0a 0D       		.byte	13
 5636 0c0b 35       		.byte	53
 5637 0c0c 5D       		.byte	93
 5638 0c0d 000000   		.space	3
 5639              	.LC6:
 5640 0c10 B8       		.byte	-72
 5641 0c11 AA       		.byte	-86
 5642 0c12 AA       		.byte	-86
 5643 0c13 AA       		.byte	-86
 5644 0c14 B0       		.byte	-80
 5645 0c15 88       		.byte	-120
 5646 0c16 C3       		.byte	-61
 5647 0c17 C5       		.byte	-59
 5648 0c18 C7       		.byte	-57
 5649 0c19 000000   		.space	3
 5650              	.LC7:
 5651 0c1c D8       		.byte	-40
 5652 0c1d B1       		.byte	-79
 5653 0c1e B9       		.byte	-71
 5654 0c1f F3       		.byte	-13
 5655 0c20 8B       		.byte	-117
 5656 0c21 A3       		.byte	-93
 5657 0c22 91       		.byte	-111
 5658 0c23 B6       		.byte	-74
 5659 0c24 09       		.byte	9
 5660 0c25 B4       		.byte	-76
 5661 0c26 D9       		.byte	-39
 5662 0c27 00       		.space	1
 5663              	.LC8:
 5664 0c28 DA       		.byte	-38
 5665 0c29 B1       		.byte	-79
 5666 0c2a B9       		.byte	-71
 5667 0c2b F3       		.byte	-13
 5668 0c2c 8B       		.byte	-117
 5669 0c2d A3       		.byte	-93
 5670 0c2e 91       		.byte	-111
 5671 0c2f B6       		.byte	-74
 5672 0c30 DA       		.byte	-38
 5673 0c31 B4       		.byte	-76
 5674 0c32 DA       		.byte	-38
 5675              		.bss
 5676              		.align	2
 5677              		.set	.LANCHOR1,. + 0
 5678              		.type	dmp, %object
 5679              		.size	dmp, 16
 5680              	dmp:
ARM GAS  /tmp/ccp3ezWO.s 			page 127


 5681 0000 00000000 		.space	16
 5681      00000000 
 5681      00000000 
 5681      00000000 
 5682              		.text
 5683              	.Letext0:
 5684              		.file 2 "/usr/arm-none-eabi/include/machine/_default_types.h"
 5685              		.file 3 "/usr/arm-none-eabi/include/sys/_stdint.h"
 5686              		.file 4 "/home/enbin/Documents/code/STM/stm32-quadrocopter/cmsis/core_cm3.h"
 5687              		.file 5 "/home/enbin/Documents/code/STM/stm32-quadrocopter/lib/inc/system_stm32f10x.h"
 5688              		.file 6 "/home/enbin/Documents/code/STM/stm32-quadrocopter/drivers/MPU6050.h"
 5689              		.file 7 "/usr/arm-none-eabi/include/sys/lock.h"
 5690              		.file 8 "/usr/arm-none-eabi/include/sys/_types.h"
 5691              		.file 9 "/usr/lib/gcc/arm-none-eabi/6.1.1/include/stddef.h"
 5692              		.file 10 "/usr/arm-none-eabi/include/sys/reent.h"
 5693              		.file 11 "/usr/arm-none-eabi/include/stdlib.h"
 5694              		.file 12 "/usr/arm-none-eabi/include/math.h"
 5695              		.file 13 "/usr/arm-none-eabi/include/sys/errno.h"
 5696              		.file 14 "/home/enbin/Documents/code/STM/stm32-quadrocopter/drivers/inv_mpu_dmp_motion_driver.h"
 5697              		.file 15 "/home/enbin/Documents/code/STM/stm32-quadrocopter/drivers/inv_mpu.h"
 5698              		.section	.debug_info,"",%progbits
 5699              	.Ldebug_info0:
 5700 0000 4E1A0000 		.4byte	0x1a4e
 5701 0004 0400     		.2byte	0x4
 5702 0006 00000000 		.4byte	.Ldebug_abbrev0
 5703 000a 04       		.byte	0x4
 5704 000b 01       		.uleb128 0x1
 5705 000c 00070000 		.4byte	.LASF228
 5706 0010 01       		.byte	0x1
 5707 0011 8B080000 		.4byte	.LASF229
 5708 0015 6A020000 		.4byte	.LASF230
 5709 0019 00000000 		.4byte	.Ltext0
 5710 001d C00C0000 		.4byte	.Letext0-.Ltext0
 5711 0021 00000000 		.4byte	.Ldebug_line0
 5712 0025 02       		.uleb128 0x2
 5713 0026 08       		.byte	0x8
 5714 0027 07       		.byte	0x7
 5715 0028 19010000 		.4byte	.LASF0
 5716 002c 02       		.uleb128 0x2
 5717 002d 04       		.byte	0x4
 5718 002e 07       		.byte	0x7
 5719 002f 65080000 		.4byte	.LASF1
 5720 0033 02       		.uleb128 0x2
 5721 0034 01       		.byte	0x1
 5722 0035 06       		.byte	0x6
 5723 0036 D5010000 		.4byte	.LASF2
 5724 003a 02       		.uleb128 0x2
 5725 003b 01       		.byte	0x1
 5726 003c 08       		.byte	0x8
 5727 003d 8B060000 		.4byte	.LASF3
 5728 0041 03       		.uleb128 0x3
 5729 0042 3A000000 		.4byte	0x3a
 5730 0046 02       		.uleb128 0x2
 5731 0047 02       		.byte	0x2
 5732 0048 05       		.byte	0x5
 5733 0049 12000000 		.4byte	.LASF4
 5734 004d 02       		.uleb128 0x2
ARM GAS  /tmp/ccp3ezWO.s 			page 128


 5735 004e 02       		.byte	0x2
 5736 004f 07       		.byte	0x7
 5737 0050 2B090000 		.4byte	.LASF5
 5738 0054 03       		.uleb128 0x3
 5739 0055 4D000000 		.4byte	0x4d
 5740 0059 04       		.uleb128 0x4
 5741 005a AF080000 		.4byte	.LASF7
 5742 005e 02       		.byte	0x2
 5743 005f 3F       		.byte	0x3f
 5744 0060 64000000 		.4byte	0x64
 5745 0064 02       		.uleb128 0x2
 5746 0065 04       		.byte	0x4
 5747 0066 05       		.byte	0x5
 5748 0067 53020000 		.4byte	.LASF6
 5749 006b 04       		.uleb128 0x4
 5750 006c 24030000 		.4byte	.LASF8
 5751 0070 02       		.byte	0x2
 5752 0071 41       		.byte	0x41
 5753 0072 76000000 		.4byte	0x76
 5754 0076 02       		.uleb128 0x2
 5755 0077 04       		.byte	0x4
 5756 0078 07       		.byte	0x7
 5757 0079 B3030000 		.4byte	.LASF9
 5758 007d 02       		.uleb128 0x2
 5759 007e 08       		.byte	0x8
 5760 007f 05       		.byte	0x5
 5761 0080 C8020000 		.4byte	.LASF10
 5762 0084 05       		.uleb128 0x5
 5763 0085 04       		.byte	0x4
 5764 0086 05       		.byte	0x5
 5765 0087 696E7400 		.ascii	"int\000"
 5766 008b 04       		.uleb128 0x4
 5767 008c 83060000 		.4byte	.LASF11
 5768 0090 03       		.byte	0x3
 5769 0091 2C       		.byte	0x2c
 5770 0092 59000000 		.4byte	0x59
 5771 0096 06       		.uleb128 0x6
 5772 0097 8B000000 		.4byte	0x8b
 5773 009b 04       		.uleb128 0x4
 5774 009c CB0A0000 		.4byte	.LASF12
 5775 00a0 03       		.byte	0x3
 5776 00a1 30       		.byte	0x30
 5777 00a2 6B000000 		.4byte	0x6b
 5778 00a6 02       		.uleb128 0x2
 5779 00a7 04       		.byte	0x4
 5780 00a8 07       		.byte	0x7
 5781 00a9 09050000 		.4byte	.LASF13
 5782 00ad 07       		.uleb128 0x7
 5783 00ae 58010000 		.4byte	.LASF14
 5784 00b2 04       		.byte	0x4
 5785 00b3 9606     		.2byte	0x696
 5786 00b5 96000000 		.4byte	0x96
 5787 00b9 08       		.uleb128 0x8
 5788 00ba 93030000 		.4byte	.LASF15
 5789 00be 05       		.byte	0x5
 5790 00bf 35       		.byte	0x35
 5791 00c0 9B000000 		.4byte	0x9b
ARM GAS  /tmp/ccp3ezWO.s 			page 129


 5792 00c4 09       		.uleb128 0x9
 5793 00c5 0A       		.uleb128 0xa
 5794 00c6 04       		.byte	0x4
 5795 00c7 C4000000 		.4byte	0xc4
 5796 00cb 0B       		.uleb128 0xb
 5797 00cc 46000000 		.4byte	0x46
 5798 00d0 DB000000 		.4byte	0xdb
 5799 00d4 0C       		.uleb128 0xc
 5800 00d5 A6000000 		.4byte	0xa6
 5801 00d9 02       		.byte	0x2
 5802 00da 00       		.byte	0
 5803 00db 07       		.uleb128 0x7
 5804 00dc 75010000 		.4byte	.LASF16
 5805 00e0 06       		.byte	0x6
 5806 00e1 6601     		.2byte	0x166
 5807 00e3 CB000000 		.4byte	0xcb
 5808 00e7 07       		.uleb128 0x7
 5809 00e8 83050000 		.4byte	.LASF17
 5810 00ec 06       		.byte	0x6
 5811 00ed 6601     		.2byte	0x166
 5812 00ef CB000000 		.4byte	0xcb
 5813 00f3 07       		.uleb128 0x7
 5814 00f4 F6010000 		.4byte	.LASF18
 5815 00f8 06       		.byte	0x6
 5816 00f9 6701     		.2byte	0x167
 5817 00fb 84000000 		.4byte	0x84
 5818 00ff 07       		.uleb128 0x7
 5819 0100 38050000 		.4byte	.LASF19
 5820 0104 06       		.byte	0x6
 5821 0105 6701     		.2byte	0x167
 5822 0107 84000000 		.4byte	0x84
 5823 010b 07       		.uleb128 0x7
 5824 010c 89050000 		.4byte	.LASF20
 5825 0110 06       		.byte	0x6
 5826 0111 6701     		.2byte	0x167
 5827 0113 84000000 		.4byte	0x84
 5828 0117 07       		.uleb128 0x7
 5829 0118 87090000 		.4byte	.LASF21
 5830 011c 06       		.byte	0x6
 5831 011d 6801     		.2byte	0x168
 5832 011f 23010000 		.4byte	0x123
 5833 0123 02       		.uleb128 0x2
 5834 0124 04       		.byte	0x4
 5835 0125 04       		.byte	0x4
 5836 0126 0B060000 		.4byte	.LASF22
 5837 012a 07       		.uleb128 0x7
 5838 012b 1B060000 		.4byte	.LASF23
 5839 012f 06       		.byte	0x6
 5840 0130 6901     		.2byte	0x169
 5841 0132 23010000 		.4byte	0x123
 5842 0136 07       		.uleb128 0x7
 5843 0137 D7080000 		.4byte	.LASF24
 5844 013b 06       		.byte	0x6
 5845 013c 6901     		.2byte	0x169
 5846 013e 23010000 		.4byte	0x123
 5847 0142 0D       		.uleb128 0xd
 5848 0143 59617700 		.ascii	"Yaw\000"
ARM GAS  /tmp/ccp3ezWO.s 			page 130


 5849 0147 06       		.byte	0x6
 5850 0148 6901     		.2byte	0x169
 5851 014a 23010000 		.4byte	0x123
 5852 014e 0E       		.uleb128 0xe
 5853 014f 04       		.byte	0x4
 5854 0150 04       		.uleb128 0x4
 5855 0151 26060000 		.4byte	.LASF25
 5856 0155 07       		.byte	0x7
 5857 0156 07       		.byte	0x7
 5858 0157 84000000 		.4byte	0x84
 5859 015b 04       		.uleb128 0x4
 5860 015c C7010000 		.4byte	.LASF26
 5861 0160 08       		.byte	0x8
 5862 0161 2C       		.byte	0x2c
 5863 0162 64000000 		.4byte	0x64
 5864 0166 04       		.uleb128 0x4
 5865 0167 1C000000 		.4byte	.LASF27
 5866 016b 08       		.byte	0x8
 5867 016c 72       		.byte	0x72
 5868 016d 64000000 		.4byte	0x64
 5869 0171 0F       		.uleb128 0xf
 5870 0172 E7050000 		.4byte	.LASF28
 5871 0176 09       		.byte	0x9
 5872 0177 6501     		.2byte	0x165
 5873 0179 2C000000 		.4byte	0x2c
 5874 017d 10       		.uleb128 0x10
 5875 017e 04       		.byte	0x4
 5876 017f 08       		.byte	0x8
 5877 0180 A6       		.byte	0xa6
 5878 0181 9C010000 		.4byte	0x19c
 5879 0185 11       		.uleb128 0x11
 5880 0186 84040000 		.4byte	.LASF29
 5881 018a 08       		.byte	0x8
 5882 018b A8       		.byte	0xa8
 5883 018c 71010000 		.4byte	0x171
 5884 0190 11       		.uleb128 0x11
 5885 0191 8C030000 		.4byte	.LASF30
 5886 0195 08       		.byte	0x8
 5887 0196 A9       		.byte	0xa9
 5888 0197 9C010000 		.4byte	0x19c
 5889 019b 00       		.byte	0
 5890 019c 0B       		.uleb128 0xb
 5891 019d 3A000000 		.4byte	0x3a
 5892 01a1 AC010000 		.4byte	0x1ac
 5893 01a5 0C       		.uleb128 0xc
 5894 01a6 A6000000 		.4byte	0xa6
 5895 01aa 03       		.byte	0x3
 5896 01ab 00       		.byte	0
 5897 01ac 12       		.uleb128 0x12
 5898 01ad 08       		.byte	0x8
 5899 01ae 08       		.byte	0x8
 5900 01af A3       		.byte	0xa3
 5901 01b0 CD010000 		.4byte	0x1cd
 5902 01b4 13       		.uleb128 0x13
 5903 01b5 EE070000 		.4byte	.LASF31
 5904 01b9 08       		.byte	0x8
 5905 01ba A5       		.byte	0xa5
ARM GAS  /tmp/ccp3ezWO.s 			page 131


 5906 01bb 84000000 		.4byte	0x84
 5907 01bf 00       		.byte	0
 5908 01c0 13       		.uleb128 0x13
 5909 01c1 F6070000 		.4byte	.LASF32
 5910 01c5 08       		.byte	0x8
 5911 01c6 AA       		.byte	0xaa
 5912 01c7 7D010000 		.4byte	0x17d
 5913 01cb 04       		.byte	0x4
 5914 01cc 00       		.byte	0
 5915 01cd 04       		.uleb128 0x4
 5916 01ce B5040000 		.4byte	.LASF33
 5917 01d2 08       		.byte	0x8
 5918 01d3 AB       		.byte	0xab
 5919 01d4 AC010000 		.4byte	0x1ac
 5920 01d8 04       		.uleb128 0x4
 5921 01d9 A8060000 		.4byte	.LASF34
 5922 01dd 08       		.byte	0x8
 5923 01de AF       		.byte	0xaf
 5924 01df 50010000 		.4byte	0x150
 5925 01e3 04       		.uleb128 0x4
 5926 01e4 43090000 		.4byte	.LASF35
 5927 01e8 0A       		.byte	0xa
 5928 01e9 16       		.byte	0x16
 5929 01ea 76000000 		.4byte	0x76
 5930 01ee 14       		.uleb128 0x14
 5931 01ef 4E030000 		.4byte	.LASF40
 5932 01f3 18       		.byte	0x18
 5933 01f4 0A       		.byte	0xa
 5934 01f5 2D       		.byte	0x2d
 5935 01f6 41020000 		.4byte	0x241
 5936 01fa 13       		.uleb128 0x13
 5937 01fb 5F030000 		.4byte	.LASF36
 5938 01ff 0A       		.byte	0xa
 5939 0200 2F       		.byte	0x2f
 5940 0201 41020000 		.4byte	0x241
 5941 0205 00       		.byte	0
 5942 0206 15       		.uleb128 0x15
 5943 0207 5F6B00   		.ascii	"_k\000"
 5944 020a 0A       		.byte	0xa
 5945 020b 30       		.byte	0x30
 5946 020c 84000000 		.4byte	0x84
 5947 0210 04       		.byte	0x4
 5948 0211 13       		.uleb128 0x13
 5949 0212 D9070000 		.4byte	.LASF37
 5950 0216 0A       		.byte	0xa
 5951 0217 30       		.byte	0x30
 5952 0218 84000000 		.4byte	0x84
 5953 021c 08       		.byte	0x8
 5954 021d 13       		.uleb128 0x13
 5955 021e 34030000 		.4byte	.LASF38
 5956 0222 0A       		.byte	0xa
 5957 0223 30       		.byte	0x30
 5958 0224 84000000 		.4byte	0x84
 5959 0228 0C       		.byte	0xc
 5960 0229 13       		.uleb128 0x13
 5961 022a F1090000 		.4byte	.LASF39
 5962 022e 0A       		.byte	0xa
ARM GAS  /tmp/ccp3ezWO.s 			page 132


 5963 022f 30       		.byte	0x30
 5964 0230 84000000 		.4byte	0x84
 5965 0234 10       		.byte	0x10
 5966 0235 15       		.uleb128 0x15
 5967 0236 5F7800   		.ascii	"_x\000"
 5968 0239 0A       		.byte	0xa
 5969 023a 31       		.byte	0x31
 5970 023b 47020000 		.4byte	0x247
 5971 023f 14       		.byte	0x14
 5972 0240 00       		.byte	0
 5973 0241 0A       		.uleb128 0xa
 5974 0242 04       		.byte	0x4
 5975 0243 EE010000 		.4byte	0x1ee
 5976 0247 0B       		.uleb128 0xb
 5977 0248 E3010000 		.4byte	0x1e3
 5978 024c 57020000 		.4byte	0x257
 5979 0250 0C       		.uleb128 0xc
 5980 0251 A6000000 		.4byte	0xa6
 5981 0255 00       		.byte	0
 5982 0256 00       		.byte	0
 5983 0257 14       		.uleb128 0x14
 5984 0258 87030000 		.4byte	.LASF41
 5985 025c 24       		.byte	0x24
 5986 025d 0A       		.byte	0xa
 5987 025e 35       		.byte	0x35
 5988 025f D0020000 		.4byte	0x2d0
 5989 0263 13       		.uleb128 0x13
 5990 0264 B4010000 		.4byte	.LASF42
 5991 0268 0A       		.byte	0xa
 5992 0269 37       		.byte	0x37
 5993 026a 84000000 		.4byte	0x84
 5994 026e 00       		.byte	0
 5995 026f 13       		.uleb128 0x13
 5996 0270 56030000 		.4byte	.LASF43
 5997 0274 0A       		.byte	0xa
 5998 0275 38       		.byte	0x38
 5999 0276 84000000 		.4byte	0x84
 6000 027a 04       		.byte	0x4
 6001 027b 13       		.uleb128 0x13
 6002 027c 06020000 		.4byte	.LASF44
 6003 0280 0A       		.byte	0xa
 6004 0281 39       		.byte	0x39
 6005 0282 84000000 		.4byte	0x84
 6006 0286 08       		.byte	0x8
 6007 0287 13       		.uleb128 0x13
 6008 0288 D40A0000 		.4byte	.LASF45
 6009 028c 0A       		.byte	0xa
 6010 028d 3A       		.byte	0x3a
 6011 028e 84000000 		.4byte	0x84
 6012 0292 0C       		.byte	0xc
 6013 0293 13       		.uleb128 0x13
 6014 0294 93050000 		.4byte	.LASF46
 6015 0298 0A       		.byte	0xa
 6016 0299 3B       		.byte	0x3b
 6017 029a 84000000 		.4byte	0x84
 6018 029e 10       		.byte	0x10
 6019 029f 13       		.uleb128 0x13
ARM GAS  /tmp/ccp3ezWO.s 			page 133


 6020 02a0 D8040000 		.4byte	.LASF47
 6021 02a4 0A       		.byte	0xa
 6022 02a5 3C       		.byte	0x3c
 6023 02a6 84000000 		.4byte	0x84
 6024 02aa 14       		.byte	0x14
 6025 02ab 13       		.uleb128 0x13
 6026 02ac 19080000 		.4byte	.LASF48
 6027 02b0 0A       		.byte	0xa
 6028 02b1 3D       		.byte	0x3d
 6029 02b2 84000000 		.4byte	0x84
 6030 02b6 18       		.byte	0x18
 6031 02b7 13       		.uleb128 0x13
 6032 02b8 B1060000 		.4byte	.LASF49
 6033 02bc 0A       		.byte	0xa
 6034 02bd 3E       		.byte	0x3e
 6035 02be 84000000 		.4byte	0x84
 6036 02c2 1C       		.byte	0x1c
 6037 02c3 13       		.uleb128 0x13
 6038 02c4 440A0000 		.4byte	.LASF50
 6039 02c8 0A       		.byte	0xa
 6040 02c9 3F       		.byte	0x3f
 6041 02ca 84000000 		.4byte	0x84
 6042 02ce 20       		.byte	0x20
 6043 02cf 00       		.byte	0
 6044 02d0 16       		.uleb128 0x16
 6045 02d1 15020000 		.4byte	.LASF51
 6046 02d5 0801     		.2byte	0x108
 6047 02d7 0A       		.byte	0xa
 6048 02d8 48       		.byte	0x48
 6049 02d9 10030000 		.4byte	0x310
 6050 02dd 13       		.uleb128 0x13
 6051 02de 6D000000 		.4byte	.LASF52
 6052 02e2 0A       		.byte	0xa
 6053 02e3 49       		.byte	0x49
 6054 02e4 10030000 		.4byte	0x310
 6055 02e8 00       		.byte	0
 6056 02e9 13       		.uleb128 0x13
 6057 02ea 00000000 		.4byte	.LASF53
 6058 02ee 0A       		.byte	0xa
 6059 02ef 4A       		.byte	0x4a
 6060 02f0 10030000 		.4byte	0x310
 6061 02f4 80       		.byte	0x80
 6062 02f5 17       		.uleb128 0x17
 6063 02f6 78080000 		.4byte	.LASF54
 6064 02fa 0A       		.byte	0xa
 6065 02fb 4C       		.byte	0x4c
 6066 02fc E3010000 		.4byte	0x1e3
 6067 0300 0001     		.2byte	0x100
 6068 0302 17       		.uleb128 0x17
 6069 0303 9C020000 		.4byte	.LASF55
 6070 0307 0A       		.byte	0xa
 6071 0308 4F       		.byte	0x4f
 6072 0309 E3010000 		.4byte	0x1e3
 6073 030d 0401     		.2byte	0x104
 6074 030f 00       		.byte	0
 6075 0310 0B       		.uleb128 0xb
 6076 0311 4E010000 		.4byte	0x14e
ARM GAS  /tmp/ccp3ezWO.s 			page 134


 6077 0315 20030000 		.4byte	0x320
 6078 0319 0C       		.uleb128 0xc
 6079 031a A6000000 		.4byte	0xa6
 6080 031e 1F       		.byte	0x1f
 6081 031f 00       		.byte	0
 6082 0320 16       		.uleb128 0x16
 6083 0321 9C050000 		.4byte	.LASF56
 6084 0325 9001     		.2byte	0x190
 6085 0327 0A       		.byte	0xa
 6086 0328 5B       		.byte	0x5b
 6087 0329 5E030000 		.4byte	0x35e
 6088 032d 13       		.uleb128 0x13
 6089 032e 5F030000 		.4byte	.LASF36
 6090 0332 0A       		.byte	0xa
 6091 0333 5C       		.byte	0x5c
 6092 0334 5E030000 		.4byte	0x35e
 6093 0338 00       		.byte	0
 6094 0339 13       		.uleb128 0x13
 6095 033a E7030000 		.4byte	.LASF57
 6096 033e 0A       		.byte	0xa
 6097 033f 5D       		.byte	0x5d
 6098 0340 84000000 		.4byte	0x84
 6099 0344 04       		.byte	0x4
 6100 0345 13       		.uleb128 0x13
 6101 0346 1F030000 		.4byte	.LASF58
 6102 034a 0A       		.byte	0xa
 6103 034b 5F       		.byte	0x5f
 6104 034c 64030000 		.4byte	0x364
 6105 0350 08       		.byte	0x8
 6106 0351 13       		.uleb128 0x13
 6107 0352 15020000 		.4byte	.LASF51
 6108 0356 0A       		.byte	0xa
 6109 0357 60       		.byte	0x60
 6110 0358 D0020000 		.4byte	0x2d0
 6111 035c 88       		.byte	0x88
 6112 035d 00       		.byte	0
 6113 035e 0A       		.uleb128 0xa
 6114 035f 04       		.byte	0x4
 6115 0360 20030000 		.4byte	0x320
 6116 0364 0B       		.uleb128 0xb
 6117 0365 C5000000 		.4byte	0xc5
 6118 0369 74030000 		.4byte	0x374
 6119 036d 0C       		.uleb128 0xc
 6120 036e A6000000 		.4byte	0xa6
 6121 0372 1F       		.byte	0x1f
 6122 0373 00       		.byte	0
 6123 0374 14       		.uleb128 0x14
 6124 0375 BB060000 		.4byte	.LASF59
 6125 0379 08       		.byte	0x8
 6126 037a 0A       		.byte	0xa
 6127 037b 73       		.byte	0x73
 6128 037c 99030000 		.4byte	0x399
 6129 0380 13       		.uleb128 0x13
 6130 0381 00020000 		.4byte	.LASF60
 6131 0385 0A       		.byte	0xa
 6132 0386 74       		.byte	0x74
 6133 0387 99030000 		.4byte	0x399
ARM GAS  /tmp/ccp3ezWO.s 			page 135


 6134 038b 00       		.byte	0
 6135 038c 13       		.uleb128 0x13
 6136 038d 5F080000 		.4byte	.LASF61
 6137 0391 0A       		.byte	0xa
 6138 0392 75       		.byte	0x75
 6139 0393 84000000 		.4byte	0x84
 6140 0397 04       		.byte	0x4
 6141 0398 00       		.byte	0
 6142 0399 0A       		.uleb128 0xa
 6143 039a 04       		.byte	0x4
 6144 039b 3A000000 		.4byte	0x3a
 6145 039f 14       		.uleb128 0x14
 6146 03a0 EE060000 		.4byte	.LASF62
 6147 03a4 68       		.byte	0x68
 6148 03a5 0A       		.byte	0xa
 6149 03a6 B3       		.byte	0xb3
 6150 03a7 C9040000 		.4byte	0x4c9
 6151 03ab 15       		.uleb128 0x15
 6152 03ac 5F7000   		.ascii	"_p\000"
 6153 03af 0A       		.byte	0xa
 6154 03b0 B4       		.byte	0xb4
 6155 03b1 99030000 		.4byte	0x399
 6156 03b5 00       		.byte	0
 6157 03b6 15       		.uleb128 0x15
 6158 03b7 5F7200   		.ascii	"_r\000"
 6159 03ba 0A       		.byte	0xa
 6160 03bb B5       		.byte	0xb5
 6161 03bc 84000000 		.4byte	0x84
 6162 03c0 04       		.byte	0x4
 6163 03c1 15       		.uleb128 0x15
 6164 03c2 5F7700   		.ascii	"_w\000"
 6165 03c5 0A       		.byte	0xa
 6166 03c6 B6       		.byte	0xb6
 6167 03c7 84000000 		.4byte	0x84
 6168 03cb 08       		.byte	0x8
 6169 03cc 13       		.uleb128 0x13
 6170 03cd 090A0000 		.4byte	.LASF63
 6171 03d1 0A       		.byte	0xa
 6172 03d2 B7       		.byte	0xb7
 6173 03d3 46000000 		.4byte	0x46
 6174 03d7 0C       		.byte	0xc
 6175 03d8 13       		.uleb128 0x13
 6176 03d9 C5030000 		.4byte	.LASF64
 6177 03dd 0A       		.byte	0xa
 6178 03de B8       		.byte	0xb8
 6179 03df 46000000 		.4byte	0x46
 6180 03e3 0E       		.byte	0xe
 6181 03e4 15       		.uleb128 0x15
 6182 03e5 5F626600 		.ascii	"_bf\000"
 6183 03e9 0A       		.byte	0xa
 6184 03ea B9       		.byte	0xb9
 6185 03eb 74030000 		.4byte	0x374
 6186 03ef 10       		.byte	0x10
 6187 03f0 13       		.uleb128 0x13
 6188 03f1 48010000 		.4byte	.LASF65
 6189 03f5 0A       		.byte	0xa
 6190 03f6 BA       		.byte	0xba
ARM GAS  /tmp/ccp3ezWO.s 			page 136


 6191 03f7 84000000 		.4byte	0x84
 6192 03fb 18       		.byte	0x18
 6193 03fc 13       		.uleb128 0x13
 6194 03fd 28020000 		.4byte	.LASF66
 6195 0401 0A       		.byte	0xa
 6196 0402 C1       		.byte	0xc1
 6197 0403 4E010000 		.4byte	0x14e
 6198 0407 1C       		.byte	0x1c
 6199 0408 13       		.uleb128 0x13
 6200 0409 72030000 		.4byte	.LASF67
 6201 040d 0A       		.byte	0xa
 6202 040e C3       		.byte	0xc3
 6203 040f 36060000 		.4byte	0x636
 6204 0413 20       		.byte	0x20
 6205 0414 13       		.uleb128 0x13
 6206 0415 D1040000 		.4byte	.LASF68
 6207 0419 0A       		.byte	0xa
 6208 041a C5       		.byte	0xc5
 6209 041b 65060000 		.4byte	0x665
 6210 041f 24       		.byte	0x24
 6211 0420 13       		.uleb128 0x13
 6212 0421 0C080000 		.4byte	.LASF69
 6213 0425 0A       		.byte	0xa
 6214 0426 C8       		.byte	0xc8
 6215 0427 89060000 		.4byte	0x689
 6216 042b 28       		.byte	0x28
 6217 042c 13       		.uleb128 0x13
 6218 042d CE010000 		.4byte	.LASF70
 6219 0431 0A       		.byte	0xa
 6220 0432 C9       		.byte	0xc9
 6221 0433 A3060000 		.4byte	0x6a3
 6222 0437 2C       		.byte	0x2c
 6223 0438 15       		.uleb128 0x15
 6224 0439 5F756200 		.ascii	"_ub\000"
 6225 043d 0A       		.byte	0xa
 6226 043e CC       		.byte	0xcc
 6227 043f 74030000 		.4byte	0x374
 6228 0443 30       		.byte	0x30
 6229 0444 15       		.uleb128 0x15
 6230 0445 5F757000 		.ascii	"_up\000"
 6231 0449 0A       		.byte	0xa
 6232 044a CD       		.byte	0xcd
 6233 044b 99030000 		.4byte	0x399
 6234 044f 38       		.byte	0x38
 6235 0450 15       		.uleb128 0x15
 6236 0451 5F757200 		.ascii	"_ur\000"
 6237 0455 0A       		.byte	0xa
 6238 0456 CE       		.byte	0xce
 6239 0457 84000000 		.4byte	0x84
 6240 045b 3C       		.byte	0x3c
 6241 045c 13       		.uleb128 0x13
 6242 045d F0010000 		.4byte	.LASF71
 6243 0461 0A       		.byte	0xa
 6244 0462 D1       		.byte	0xd1
 6245 0463 A9060000 		.4byte	0x6a9
 6246 0467 40       		.byte	0x40
 6247 0468 13       		.uleb128 0x13
ARM GAS  /tmp/ccp3ezWO.s 			page 137


 6248 0469 360A0000 		.4byte	.LASF72
 6249 046d 0A       		.byte	0xa
 6250 046e D2       		.byte	0xd2
 6251 046f B9060000 		.4byte	0x6b9
 6252 0473 43       		.byte	0x43
 6253 0474 15       		.uleb128 0x15
 6254 0475 5F6C6200 		.ascii	"_lb\000"
 6255 0479 0A       		.byte	0xa
 6256 047a D5       		.byte	0xd5
 6257 047b 74030000 		.4byte	0x374
 6258 047f 44       		.byte	0x44
 6259 0480 13       		.uleb128 0x13
 6260 0481 51080000 		.4byte	.LASF73
 6261 0485 0A       		.byte	0xa
 6262 0486 D8       		.byte	0xd8
 6263 0487 84000000 		.4byte	0x84
 6264 048b 4C       		.byte	0x4c
 6265 048c 13       		.uleb128 0x13
 6266 048d EE020000 		.4byte	.LASF74
 6267 0491 0A       		.byte	0xa
 6268 0492 D9       		.byte	0xd9
 6269 0493 5B010000 		.4byte	0x15b
 6270 0497 50       		.byte	0x50
 6271 0498 13       		.uleb128 0x13
 6272 0499 EC030000 		.4byte	.LASF75
 6273 049d 0A       		.byte	0xa
 6274 049e DC       		.byte	0xdc
 6275 049f E7040000 		.4byte	0x4e7
 6276 04a3 54       		.byte	0x54
 6277 04a4 13       		.uleb128 0x13
 6278 04a5 94040000 		.4byte	.LASF76
 6279 04a9 0A       		.byte	0xa
 6280 04aa E0       		.byte	0xe0
 6281 04ab D8010000 		.4byte	0x1d8
 6282 04af 58       		.byte	0x58
 6283 04b0 13       		.uleb128 0x13
 6284 04b1 A1000000 		.4byte	.LASF77
 6285 04b5 0A       		.byte	0xa
 6286 04b6 E2       		.byte	0xe2
 6287 04b7 CD010000 		.4byte	0x1cd
 6288 04bb 5C       		.byte	0x5c
 6289 04bc 13       		.uleb128 0x13
 6290 04bd C2060000 		.4byte	.LASF78
 6291 04c1 0A       		.byte	0xa
 6292 04c2 E3       		.byte	0xe3
 6293 04c3 84000000 		.4byte	0x84
 6294 04c7 64       		.byte	0x64
 6295 04c8 00       		.byte	0
 6296 04c9 18       		.uleb128 0x18
 6297 04ca 84000000 		.4byte	0x84
 6298 04ce E7040000 		.4byte	0x4e7
 6299 04d2 19       		.uleb128 0x19
 6300 04d3 E7040000 		.4byte	0x4e7
 6301 04d7 19       		.uleb128 0x19
 6302 04d8 4E010000 		.4byte	0x14e
 6303 04dc 19       		.uleb128 0x19
 6304 04dd 24060000 		.4byte	0x624
ARM GAS  /tmp/ccp3ezWO.s 			page 138


 6305 04e1 19       		.uleb128 0x19
 6306 04e2 84000000 		.4byte	0x84
 6307 04e6 00       		.byte	0
 6308 04e7 0A       		.uleb128 0xa
 6309 04e8 04       		.byte	0x4
 6310 04e9 F2040000 		.4byte	0x4f2
 6311 04ed 03       		.uleb128 0x3
 6312 04ee E7040000 		.4byte	0x4e7
 6313 04f2 1A       		.uleb128 0x1a
 6314 04f3 E1070000 		.4byte	.LASF79
 6315 04f7 2804     		.2byte	0x428
 6316 04f9 0A       		.byte	0xa
 6317 04fa 3802     		.2byte	0x238
 6318 04fc 24060000 		.4byte	0x624
 6319 0500 1B       		.uleb128 0x1b
 6320 0501 45080000 		.4byte	.LASF80
 6321 0505 0A       		.byte	0xa
 6322 0506 3A02     		.2byte	0x23a
 6323 0508 84000000 		.4byte	0x84
 6324 050c 00       		.byte	0
 6325 050d 1B       		.uleb128 0x1b
 6326 050e A4020000 		.4byte	.LASF81
 6327 0512 0A       		.byte	0xa
 6328 0513 3F02     		.2byte	0x23f
 6329 0515 10070000 		.4byte	0x710
 6330 0519 04       		.byte	0x4
 6331 051a 1B       		.uleb128 0x1b
 6332 051b A3030000 		.4byte	.LASF82
 6333 051f 0A       		.byte	0xa
 6334 0520 3F02     		.2byte	0x23f
 6335 0522 10070000 		.4byte	0x710
 6336 0526 08       		.byte	0x8
 6337 0527 1B       		.uleb128 0x1b
 6338 0528 46030000 		.4byte	.LASF83
 6339 052c 0A       		.byte	0xa
 6340 052d 3F02     		.2byte	0x23f
 6341 052f 10070000 		.4byte	0x710
 6342 0533 0C       		.byte	0xc
 6343 0534 1B       		.uleb128 0x1b
 6344 0535 CB030000 		.4byte	.LASF84
 6345 0539 0A       		.byte	0xa
 6346 053a 4102     		.2byte	0x241
 6347 053c 84000000 		.4byte	0x84
 6348 0540 10       		.byte	0x10
 6349 0541 1B       		.uleb128 0x1b
 6350 0542 96000000 		.4byte	.LASF85
 6351 0546 0A       		.byte	0xa
 6352 0547 4202     		.2byte	0x242
 6353 0549 F2080000 		.4byte	0x8f2
 6354 054d 14       		.byte	0x14
 6355 054e 1B       		.uleb128 0x1b
 6356 054f A7090000 		.4byte	.LASF86
 6357 0553 0A       		.byte	0xa
 6358 0554 4402     		.2byte	0x244
 6359 0556 84000000 		.4byte	0x84
 6360 055a 30       		.byte	0x30
 6361 055b 1B       		.uleb128 0x1b
ARM GAS  /tmp/ccp3ezWO.s 			page 139


 6362 055c 760A0000 		.4byte	.LASF87
 6363 0560 0A       		.byte	0xa
 6364 0561 4502     		.2byte	0x245
 6365 0563 5A060000 		.4byte	0x65a
 6366 0567 34       		.byte	0x34
 6367 0568 1B       		.uleb128 0x1b
 6368 0569 BB050000 		.4byte	.LASF88
 6369 056d 0A       		.byte	0xa
 6370 056e 4702     		.2byte	0x247
 6371 0570 84000000 		.4byte	0x84
 6372 0574 38       		.byte	0x38
 6373 0575 1B       		.uleb128 0x1b
 6374 0576 BC070000 		.4byte	.LASF89
 6375 057a 0A       		.byte	0xa
 6376 057b 4902     		.2byte	0x249
 6377 057d 0D090000 		.4byte	0x90d
 6378 0581 3C       		.byte	0x3c
 6379 0582 1B       		.uleb128 0x1b
 6380 0583 7C040000 		.4byte	.LASF90
 6381 0587 0A       		.byte	0xa
 6382 0588 4C02     		.2byte	0x24c
 6383 058a 41020000 		.4byte	0x241
 6384 058e 40       		.byte	0x40
 6385 058f 1B       		.uleb128 0x1b
 6386 0590 BE020000 		.4byte	.LASF91
 6387 0594 0A       		.byte	0xa
 6388 0595 4D02     		.2byte	0x24d
 6389 0597 84000000 		.4byte	0x84
 6390 059b 44       		.byte	0x44
 6391 059c 1B       		.uleb128 0x1b
 6392 059d 900A0000 		.4byte	.LASF92
 6393 05a1 0A       		.byte	0xa
 6394 05a2 4E02     		.2byte	0x24e
 6395 05a4 41020000 		.4byte	0x241
 6396 05a8 48       		.byte	0x48
 6397 05a9 1B       		.uleb128 0x1b
 6398 05aa 11060000 		.4byte	.LASF93
 6399 05ae 0A       		.byte	0xa
 6400 05af 4F02     		.2byte	0x24f
 6401 05b1 13090000 		.4byte	0x913
 6402 05b5 4C       		.byte	0x4c
 6403 05b6 1B       		.uleb128 0x1b
 6404 05b7 AB030000 		.4byte	.LASF94
 6405 05bb 0A       		.byte	0xa
 6406 05bc 5202     		.2byte	0x252
 6407 05be 84000000 		.4byte	0x84
 6408 05c2 50       		.byte	0x50
 6409 05c3 1B       		.uleb128 0x1b
 6410 05c4 E6020000 		.4byte	.LASF95
 6411 05c8 0A       		.byte	0xa
 6412 05c9 5302     		.2byte	0x253
 6413 05cb 24060000 		.4byte	0x624
 6414 05cf 54       		.byte	0x54
 6415 05d0 1B       		.uleb128 0x1b
 6416 05d1 8F040000 		.4byte	.LASF96
 6417 05d5 0A       		.byte	0xa
 6418 05d6 7602     		.2byte	0x276
ARM GAS  /tmp/ccp3ezWO.s 			page 140


 6419 05d8 D0080000 		.4byte	0x8d0
 6420 05dc 58       		.byte	0x58
 6421 05dd 1C       		.uleb128 0x1c
 6422 05de 9C050000 		.4byte	.LASF56
 6423 05e2 0A       		.byte	0xa
 6424 05e3 7A02     		.2byte	0x27a
 6425 05e5 5E030000 		.4byte	0x35e
 6426 05e9 4801     		.2byte	0x148
 6427 05eb 1C       		.uleb128 0x1c
 6428 05ec E2000000 		.4byte	.LASF97
 6429 05f0 0A       		.byte	0xa
 6430 05f1 7B02     		.2byte	0x27b
 6431 05f3 20030000 		.4byte	0x320
 6432 05f7 4C01     		.2byte	0x14c
 6433 05f9 1C       		.uleb128 0x1c
 6434 05fa 230A0000 		.4byte	.LASF98
 6435 05fe 0A       		.byte	0xa
 6436 05ff 7F02     		.2byte	0x27f
 6437 0601 24090000 		.4byte	0x924
 6438 0605 DC02     		.2byte	0x2dc
 6439 0607 1C       		.uleb128 0x1c
 6440 0608 30020000 		.4byte	.LASF99
 6441 060c 0A       		.byte	0xa
 6442 060d 8402     		.2byte	0x284
 6443 060f D5060000 		.4byte	0x6d5
 6444 0613 E002     		.2byte	0x2e0
 6445 0615 1C       		.uleb128 0x1c
 6446 0616 10020000 		.4byte	.LASF100
 6447 061a 0A       		.byte	0xa
 6448 061b 8502     		.2byte	0x285
 6449 061d 30090000 		.4byte	0x930
 6450 0621 EC02     		.2byte	0x2ec
 6451 0623 00       		.byte	0
 6452 0624 0A       		.uleb128 0xa
 6453 0625 04       		.byte	0x4
 6454 0626 2A060000 		.4byte	0x62a
 6455 062a 02       		.uleb128 0x2
 6456 062b 01       		.byte	0x1
 6457 062c 08       		.byte	0x8
 6458 062d 4C080000 		.4byte	.LASF101
 6459 0631 03       		.uleb128 0x3
 6460 0632 2A060000 		.4byte	0x62a
 6461 0636 0A       		.uleb128 0xa
 6462 0637 04       		.byte	0x4
 6463 0638 C9040000 		.4byte	0x4c9
 6464 063c 18       		.uleb128 0x18
 6465 063d 84000000 		.4byte	0x84
 6466 0641 5A060000 		.4byte	0x65a
 6467 0645 19       		.uleb128 0x19
 6468 0646 E7040000 		.4byte	0x4e7
 6469 064a 19       		.uleb128 0x19
 6470 064b 4E010000 		.4byte	0x14e
 6471 064f 19       		.uleb128 0x19
 6472 0650 5A060000 		.4byte	0x65a
 6473 0654 19       		.uleb128 0x19
 6474 0655 84000000 		.4byte	0x84
 6475 0659 00       		.byte	0
ARM GAS  /tmp/ccp3ezWO.s 			page 141


 6476 065a 0A       		.uleb128 0xa
 6477 065b 04       		.byte	0x4
 6478 065c 31060000 		.4byte	0x631
 6479 0660 03       		.uleb128 0x3
 6480 0661 5A060000 		.4byte	0x65a
 6481 0665 0A       		.uleb128 0xa
 6482 0666 04       		.byte	0x4
 6483 0667 3C060000 		.4byte	0x63c
 6484 066b 18       		.uleb128 0x18
 6485 066c 66010000 		.4byte	0x166
 6486 0670 89060000 		.4byte	0x689
 6487 0674 19       		.uleb128 0x19
 6488 0675 E7040000 		.4byte	0x4e7
 6489 0679 19       		.uleb128 0x19
 6490 067a 4E010000 		.4byte	0x14e
 6491 067e 19       		.uleb128 0x19
 6492 067f 66010000 		.4byte	0x166
 6493 0683 19       		.uleb128 0x19
 6494 0684 84000000 		.4byte	0x84
 6495 0688 00       		.byte	0
 6496 0689 0A       		.uleb128 0xa
 6497 068a 04       		.byte	0x4
 6498 068b 6B060000 		.4byte	0x66b
 6499 068f 18       		.uleb128 0x18
 6500 0690 84000000 		.4byte	0x84
 6501 0694 A3060000 		.4byte	0x6a3
 6502 0698 19       		.uleb128 0x19
 6503 0699 E7040000 		.4byte	0x4e7
 6504 069d 19       		.uleb128 0x19
 6505 069e 4E010000 		.4byte	0x14e
 6506 06a2 00       		.byte	0
 6507 06a3 0A       		.uleb128 0xa
 6508 06a4 04       		.byte	0x4
 6509 06a5 8F060000 		.4byte	0x68f
 6510 06a9 0B       		.uleb128 0xb
 6511 06aa 3A000000 		.4byte	0x3a
 6512 06ae B9060000 		.4byte	0x6b9
 6513 06b2 0C       		.uleb128 0xc
 6514 06b3 A6000000 		.4byte	0xa6
 6515 06b7 02       		.byte	0x2
 6516 06b8 00       		.byte	0
 6517 06b9 0B       		.uleb128 0xb
 6518 06ba 3A000000 		.4byte	0x3a
 6519 06be C9060000 		.4byte	0x6c9
 6520 06c2 0C       		.uleb128 0xc
 6521 06c3 A6000000 		.4byte	0xa6
 6522 06c7 00       		.byte	0
 6523 06c8 00       		.byte	0
 6524 06c9 0F       		.uleb128 0xf
 6525 06ca CA060000 		.4byte	.LASF102
 6526 06ce 0A       		.byte	0xa
 6527 06cf 1D01     		.2byte	0x11d
 6528 06d1 9F030000 		.4byte	0x39f
 6529 06d5 1D       		.uleb128 0x1d
 6530 06d6 F6090000 		.4byte	.LASF103
 6531 06da 0C       		.byte	0xc
 6532 06db 0A       		.byte	0xa
ARM GAS  /tmp/ccp3ezWO.s 			page 142


 6533 06dc 2101     		.2byte	0x121
 6534 06de 0A070000 		.4byte	0x70a
 6535 06e2 1B       		.uleb128 0x1b
 6536 06e3 5F030000 		.4byte	.LASF36
 6537 06e7 0A       		.byte	0xa
 6538 06e8 2301     		.2byte	0x123
 6539 06ea 0A070000 		.4byte	0x70a
 6540 06ee 00       		.byte	0
 6541 06ef 1B       		.uleb128 0x1b
 6542 06f0 51010000 		.4byte	.LASF104
 6543 06f4 0A       		.byte	0xa
 6544 06f5 2401     		.2byte	0x124
 6545 06f7 84000000 		.4byte	0x84
 6546 06fb 04       		.byte	0x4
 6547 06fc 1B       		.uleb128 0x1b
 6548 06fd 99060000 		.4byte	.LASF105
 6549 0701 0A       		.byte	0xa
 6550 0702 2501     		.2byte	0x125
 6551 0704 10070000 		.4byte	0x710
 6552 0708 08       		.byte	0x8
 6553 0709 00       		.byte	0
 6554 070a 0A       		.uleb128 0xa
 6555 070b 04       		.byte	0x4
 6556 070c D5060000 		.4byte	0x6d5
 6557 0710 0A       		.uleb128 0xa
 6558 0711 04       		.byte	0x4
 6559 0712 C9060000 		.4byte	0x6c9
 6560 0716 1D       		.uleb128 0x1d
 6561 0717 7F000000 		.4byte	.LASF106
 6562 071b 0E       		.byte	0xe
 6563 071c 0A       		.byte	0xa
 6564 071d 3D01     		.2byte	0x13d
 6565 071f 4B070000 		.4byte	0x74b
 6566 0723 1B       		.uleb128 0x1b
 6567 0724 E8070000 		.4byte	.LASF107
 6568 0728 0A       		.byte	0xa
 6569 0729 3E01     		.2byte	0x13e
 6570 072b 4B070000 		.4byte	0x74b
 6571 072f 00       		.byte	0
 6572 0730 1B       		.uleb128 0x1b
 6573 0731 9A040000 		.4byte	.LASF108
 6574 0735 0A       		.byte	0xa
 6575 0736 3F01     		.2byte	0x13f
 6576 0738 4B070000 		.4byte	0x74b
 6577 073c 06       		.byte	0x6
 6578 073d 1B       		.uleb128 0x1b
 6579 073e 3E090000 		.4byte	.LASF109
 6580 0742 0A       		.byte	0xa
 6581 0743 4001     		.2byte	0x140
 6582 0745 4D000000 		.4byte	0x4d
 6583 0749 0C       		.byte	0xc
 6584 074a 00       		.byte	0
 6585 074b 0B       		.uleb128 0xb
 6586 074c 4D000000 		.4byte	0x4d
 6587 0750 5B070000 		.4byte	0x75b
 6588 0754 0C       		.uleb128 0xc
 6589 0755 A6000000 		.4byte	0xa6
ARM GAS  /tmp/ccp3ezWO.s 			page 143


 6590 0759 02       		.byte	0x2
 6591 075a 00       		.byte	0
 6592 075b 1E       		.uleb128 0x1e
 6593 075c D0       		.byte	0xd0
 6594 075d 0A       		.byte	0xa
 6595 075e 5702     		.2byte	0x257
 6596 0760 5C080000 		.4byte	0x85c
 6597 0764 1B       		.uleb128 0x1b
 6598 0765 D0090000 		.4byte	.LASF110
 6599 0769 0A       		.byte	0xa
 6600 076a 5902     		.2byte	0x259
 6601 076c 2C000000 		.4byte	0x2c
 6602 0770 00       		.byte	0
 6603 0771 1B       		.uleb128 0x1b
 6604 0772 FD080000 		.4byte	.LASF111
 6605 0776 0A       		.byte	0xa
 6606 0777 5A02     		.2byte	0x25a
 6607 0779 24060000 		.4byte	0x624
 6608 077d 04       		.byte	0x4
 6609 077e 1B       		.uleb128 0x1b
 6610 077f 6F040000 		.4byte	.LASF112
 6611 0783 0A       		.byte	0xa
 6612 0784 5B02     		.2byte	0x25b
 6613 0786 5C080000 		.4byte	0x85c
 6614 078a 08       		.byte	0x8
 6615 078b 1B       		.uleb128 0x1b
 6616 078c 4F0A0000 		.4byte	.LASF113
 6617 0790 0A       		.byte	0xa
 6618 0791 5C02     		.2byte	0x25c
 6619 0793 57020000 		.4byte	0x257
 6620 0797 24       		.byte	0x24
 6621 0798 1B       		.uleb128 0x1b
 6622 0799 C6050000 		.4byte	.LASF114
 6623 079d 0A       		.byte	0xa
 6624 079e 5D02     		.2byte	0x25d
 6625 07a0 84000000 		.4byte	0x84
 6626 07a4 48       		.byte	0x48
 6627 07a5 1B       		.uleb128 0x1b
 6628 07a6 3B040000 		.4byte	.LASF115
 6629 07aa 0A       		.byte	0xa
 6630 07ab 5E02     		.2byte	0x25e
 6631 07ad 25000000 		.4byte	0x25
 6632 07b1 50       		.byte	0x50
 6633 07b2 1B       		.uleb128 0x1b
 6634 07b3 710A0000 		.4byte	.LASF116
 6635 07b7 0A       		.byte	0xa
 6636 07b8 5F02     		.2byte	0x25f
 6637 07ba 16070000 		.4byte	0x716
 6638 07be 58       		.byte	0x58
 6639 07bf 1B       		.uleb128 0x1b
 6640 07c0 AE050000 		.4byte	.LASF117
 6641 07c4 0A       		.byte	0xa
 6642 07c5 6002     		.2byte	0x260
 6643 07c7 CD010000 		.4byte	0x1cd
 6644 07cb 68       		.byte	0x68
 6645 07cc 1B       		.uleb128 0x1b
 6646 07cd CA000000 		.4byte	.LASF118
ARM GAS  /tmp/ccp3ezWO.s 			page 144


 6647 07d1 0A       		.byte	0xa
 6648 07d2 6102     		.2byte	0x261
 6649 07d4 CD010000 		.4byte	0x1cd
 6650 07d8 70       		.byte	0x70
 6651 07d9 1B       		.uleb128 0x1b
 6652 07da A6010000 		.4byte	.LASF119
 6653 07de 0A       		.byte	0xa
 6654 07df 6202     		.2byte	0x262
 6655 07e1 CD010000 		.4byte	0x1cd
 6656 07e5 78       		.byte	0x78
 6657 07e6 1B       		.uleb128 0x1b
 6658 07e7 190A0000 		.4byte	.LASF120
 6659 07eb 0A       		.byte	0xa
 6660 07ec 6302     		.2byte	0x263
 6661 07ee 6C080000 		.4byte	0x86c
 6662 07f2 80       		.byte	0x80
 6663 07f3 1B       		.uleb128 0x1b
 6664 07f4 63040000 		.4byte	.LASF121
 6665 07f8 0A       		.byte	0xa
 6666 07f9 6402     		.2byte	0x264
 6667 07fb 7C080000 		.4byte	0x87c
 6668 07ff 88       		.byte	0x88
 6669 0800 1B       		.uleb128 0x1b
 6670 0801 64090000 		.4byte	.LASF122
 6671 0805 0A       		.byte	0xa
 6672 0806 6502     		.2byte	0x265
 6673 0808 84000000 		.4byte	0x84
 6674 080c A0       		.byte	0xa0
 6675 080d 1B       		.uleb128 0x1b
 6676 080e 07030000 		.4byte	.LASF123
 6677 0812 0A       		.byte	0xa
 6678 0813 6602     		.2byte	0x266
 6679 0815 CD010000 		.4byte	0x1cd
 6680 0819 A4       		.byte	0xa4
 6681 081a 1B       		.uleb128 0x1b
 6682 081b 7A010000 		.4byte	.LASF124
 6683 081f 0A       		.byte	0xa
 6684 0820 6702     		.2byte	0x267
 6685 0822 CD010000 		.4byte	0x1cd
 6686 0826 AC       		.byte	0xac
 6687 0827 1B       		.uleb128 0x1b
 6688 0828 F6020000 		.4byte	.LASF125
 6689 082c 0A       		.byte	0xa
 6690 082d 6802     		.2byte	0x268
 6691 082f CD010000 		.4byte	0x1cd
 6692 0833 B4       		.byte	0xb4
 6693 0834 1B       		.uleb128 0x1b
 6694 0835 EB000000 		.4byte	.LASF126
 6695 0839 0A       		.byte	0xa
 6696 083a 6902     		.2byte	0x269
 6697 083c CD010000 		.4byte	0x1cd
 6698 0840 BC       		.byte	0xbc
 6699 0841 1B       		.uleb128 0x1b
 6700 0842 FA000000 		.4byte	.LASF127
 6701 0846 0A       		.byte	0xa
 6702 0847 6A02     		.2byte	0x26a
 6703 0849 CD010000 		.4byte	0x1cd
ARM GAS  /tmp/ccp3ezWO.s 			page 145


 6704 084d C4       		.byte	0xc4
 6705 084e 1B       		.uleb128 0x1b
 6706 084f 9F060000 		.4byte	.LASF128
 6707 0853 0A       		.byte	0xa
 6708 0854 6B02     		.2byte	0x26b
 6709 0856 84000000 		.4byte	0x84
 6710 085a CC       		.byte	0xcc
 6711 085b 00       		.byte	0
 6712 085c 0B       		.uleb128 0xb
 6713 085d 2A060000 		.4byte	0x62a
 6714 0861 6C080000 		.4byte	0x86c
 6715 0865 0C       		.uleb128 0xc
 6716 0866 A6000000 		.4byte	0xa6
 6717 086a 19       		.byte	0x19
 6718 086b 00       		.byte	0
 6719 086c 0B       		.uleb128 0xb
 6720 086d 2A060000 		.4byte	0x62a
 6721 0871 7C080000 		.4byte	0x87c
 6722 0875 0C       		.uleb128 0xc
 6723 0876 A6000000 		.4byte	0xa6
 6724 087a 07       		.byte	0x7
 6725 087b 00       		.byte	0
 6726 087c 0B       		.uleb128 0xb
 6727 087d 2A060000 		.4byte	0x62a
 6728 0881 8C080000 		.4byte	0x88c
 6729 0885 0C       		.uleb128 0xc
 6730 0886 A6000000 		.4byte	0xa6
 6731 088a 17       		.byte	0x17
 6732 088b 00       		.byte	0
 6733 088c 1E       		.uleb128 0x1e
 6734 088d F0       		.byte	0xf0
 6735 088e 0A       		.byte	0xa
 6736 088f 7002     		.2byte	0x270
 6737 0891 B0080000 		.4byte	0x8b0
 6738 0895 1B       		.uleb128 0x1b
 6739 0896 42050000 		.4byte	.LASF129
 6740 089a 0A       		.byte	0xa
 6741 089b 7302     		.2byte	0x273
 6742 089d B0080000 		.4byte	0x8b0
 6743 08a1 00       		.byte	0
 6744 08a2 1B       		.uleb128 0x1b
 6745 08a3 100A0000 		.4byte	.LASF130
 6746 08a7 0A       		.byte	0xa
 6747 08a8 7402     		.2byte	0x274
 6748 08aa C0080000 		.4byte	0x8c0
 6749 08ae 78       		.byte	0x78
 6750 08af 00       		.byte	0
 6751 08b0 0B       		.uleb128 0xb
 6752 08b1 99030000 		.4byte	0x399
 6753 08b5 C0080000 		.4byte	0x8c0
 6754 08b9 0C       		.uleb128 0xc
 6755 08ba A6000000 		.4byte	0xa6
 6756 08be 1D       		.byte	0x1d
 6757 08bf 00       		.byte	0
 6758 08c0 0B       		.uleb128 0xb
 6759 08c1 2C000000 		.4byte	0x2c
 6760 08c5 D0080000 		.4byte	0x8d0
ARM GAS  /tmp/ccp3ezWO.s 			page 146


 6761 08c9 0C       		.uleb128 0xc
 6762 08ca A6000000 		.4byte	0xa6
 6763 08ce 1D       		.byte	0x1d
 6764 08cf 00       		.byte	0
 6765 08d0 1F       		.uleb128 0x1f
 6766 08d1 F0       		.byte	0xf0
 6767 08d2 0A       		.byte	0xa
 6768 08d3 5502     		.2byte	0x255
 6769 08d5 F2080000 		.4byte	0x8f2
 6770 08d9 20       		.uleb128 0x20
 6771 08da E1070000 		.4byte	.LASF79
 6772 08de 0A       		.byte	0xa
 6773 08df 6C02     		.2byte	0x26c
 6774 08e1 5B070000 		.4byte	0x75b
 6775 08e5 20       		.uleb128 0x20
 6776 08e6 3C0A0000 		.4byte	.LASF131
 6777 08ea 0A       		.byte	0xa
 6778 08eb 7502     		.2byte	0x275
 6779 08ed 8C080000 		.4byte	0x88c
 6780 08f1 00       		.byte	0
 6781 08f2 0B       		.uleb128 0xb
 6782 08f3 2A060000 		.4byte	0x62a
 6783 08f7 02090000 		.4byte	0x902
 6784 08fb 0C       		.uleb128 0xc
 6785 08fc A6000000 		.4byte	0xa6
 6786 0900 18       		.byte	0x18
 6787 0901 00       		.byte	0
 6788 0902 21       		.uleb128 0x21
 6789 0903 0D090000 		.4byte	0x90d
 6790 0907 19       		.uleb128 0x19
 6791 0908 E7040000 		.4byte	0x4e7
 6792 090c 00       		.byte	0
 6793 090d 0A       		.uleb128 0xa
 6794 090e 04       		.byte	0x4
 6795 090f 02090000 		.4byte	0x902
 6796 0913 0A       		.uleb128 0xa
 6797 0914 04       		.byte	0x4
 6798 0915 41020000 		.4byte	0x241
 6799 0919 21       		.uleb128 0x21
 6800 091a 24090000 		.4byte	0x924
 6801 091e 19       		.uleb128 0x19
 6802 091f 84000000 		.4byte	0x84
 6803 0923 00       		.byte	0
 6804 0924 0A       		.uleb128 0xa
 6805 0925 04       		.byte	0x4
 6806 0926 2A090000 		.4byte	0x92a
 6807 092a 0A       		.uleb128 0xa
 6808 092b 04       		.byte	0x4
 6809 092c 19090000 		.4byte	0x919
 6810 0930 0B       		.uleb128 0xb
 6811 0931 C9060000 		.4byte	0x6c9
 6812 0935 40090000 		.4byte	0x940
 6813 0939 0C       		.uleb128 0xc
 6814 093a A6000000 		.4byte	0xa6
 6815 093e 02       		.byte	0x2
 6816 093f 00       		.byte	0
 6817 0940 07       		.uleb128 0x7
ARM GAS  /tmp/ccp3ezWO.s 			page 147


 6818 0941 3A030000 		.4byte	.LASF132
 6819 0945 0A       		.byte	0xa
 6820 0946 FD02     		.2byte	0x2fd
 6821 0948 E7040000 		.4byte	0x4e7
 6822 094c 07       		.uleb128 0x7
 6823 094d 94090000 		.4byte	.LASF133
 6824 0951 0A       		.byte	0xa
 6825 0952 FE02     		.2byte	0x2fe
 6826 0954 ED040000 		.4byte	0x4ed
 6827 0958 08       		.uleb128 0x8
 6828 0959 A4050000 		.4byte	.LASF134
 6829 095d 0B       		.byte	0xb
 6830 095e 5F       		.byte	0x5f
 6831 095f 24060000 		.4byte	0x624
 6832 0963 02       		.uleb128 0x2
 6833 0964 08       		.byte	0x8
 6834 0965 04       		.byte	0x4
 6835 0966 D6020000 		.4byte	.LASF135
 6836 096a 02       		.uleb128 0x2
 6837 096b 08       		.byte	0x8
 6838 096c 04       		.byte	0x4
 6839 096d 30080000 		.4byte	.LASF136
 6840 0971 22       		.uleb128 0x22
 6841 0972 76090000 		.4byte	.LASF231
 6842 0976 01       		.byte	0x1
 6843 0977 33000000 		.4byte	0x33
 6844 097b 0C       		.byte	0xc
 6845 097c 9902     		.2byte	0x299
 6846 097e 9B090000 		.4byte	0x99b
 6847 0982 23       		.uleb128 0x23
 6848 0983 B9090000 		.4byte	.LASF137
 6849 0987 7F       		.sleb128 -1
 6850 0988 24       		.uleb128 0x24
 6851 0989 AB020000 		.4byte	.LASF138
 6852 098d 00       		.byte	0
 6853 098e 24       		.uleb128 0x24
 6854 098f 87000000 		.4byte	.LASF139
 6855 0993 01       		.byte	0x1
 6856 0994 24       		.uleb128 0x24
 6857 0995 30010000 		.4byte	.LASF140
 6858 0999 02       		.byte	0x2
 6859 099a 00       		.byte	0
 6860 099b 07       		.uleb128 0x7
 6861 099c 65010000 		.4byte	.LASF141
 6862 09a0 0C       		.byte	0xc
 6863 09a1 A402     		.2byte	0x2a4
 6864 09a3 71090000 		.4byte	0x971
 6865 09a7 0B       		.uleb128 0xb
 6866 09a8 60060000 		.4byte	0x660
 6867 09ac B2090000 		.4byte	0x9b2
 6868 09b0 25       		.uleb128 0x25
 6869 09b1 00       		.byte	0
 6870 09b2 03       		.uleb128 0x3
 6871 09b3 A7090000 		.4byte	0x9a7
 6872 09b7 08       		.uleb128 0x8
 6873 09b8 34000000 		.4byte	.LASF142
 6874 09bc 0D       		.byte	0xd
ARM GAS  /tmp/ccp3ezWO.s 			page 148


 6875 09bd 14       		.byte	0x14
 6876 09be B2090000 		.4byte	0x9b2
 6877 09c2 08       		.uleb128 0x8
 6878 09c3 F6060000 		.4byte	.LASF143
 6879 09c7 0D       		.byte	0xd
 6880 09c8 15       		.byte	0x15
 6881 09c9 84000000 		.4byte	0x84
 6882 09cd 0B       		.uleb128 0xb
 6883 09ce 41000000 		.4byte	0x41
 6884 09d2 DE090000 		.4byte	0x9de
 6885 09d6 26       		.uleb128 0x26
 6886 09d7 A6000000 		.4byte	0xa6
 6887 09db F50B     		.2byte	0xbf5
 6888 09dd 00       		.byte	0
 6889 09de 03       		.uleb128 0x3
 6890 09df CD090000 		.4byte	0x9cd
 6891 09e3 27       		.uleb128 0x27
 6892 09e4 8F070000 		.4byte	.LASF144
 6893 09e8 01       		.byte	0x1
 6894 09e9 ED       		.byte	0xed
 6895 09ea DE090000 		.4byte	0x9de
 6896 09ee 05       		.uleb128 0x5
 6897 09ef 03       		.byte	0x3
 6898 09f0 00000000 		.4byte	dmp_memory
 6899 09f4 28       		.uleb128 0x28
 6900 09f5 23050000 		.4byte	.LASF145
 6901 09f9 01       		.byte	0x1
 6902 09fa BD01     		.2byte	0x1bd
 6903 09fc 54000000 		.4byte	0x54
 6904 0a00 0004     		.2byte	0x400
 6905 0a02 1D       		.uleb128 0x1d
 6906 0a03 72080000 		.4byte	.LASF146
 6907 0a07 10       		.byte	0x10
 6908 0a08 01       		.byte	0x1
 6909 0a09 D401     		.2byte	0x1d4
 6910 0a0b 5E0A0000 		.4byte	0xa5e
 6911 0a0f 1B       		.uleb128 0x1b
 6912 0a10 CA040000 		.4byte	.LASF147
 6913 0a14 01       		.byte	0x1
 6914 0a15 D501     		.2byte	0x1d5
 6915 0a17 6E0A0000 		.4byte	0xa6e
 6916 0a1b 00       		.byte	0
 6917 0a1c 1B       		.uleb128 0x1b
 6918 0a1d 050B0000 		.4byte	.LASF148
 6919 0a21 01       		.byte	0x1
 6920 0a22 D601     		.2byte	0x1d6
 6921 0a24 7F0A0000 		.4byte	0xa7f
 6922 0a28 04       		.byte	0x4
 6923 0a29 1B       		.uleb128 0x1b
 6924 0a2a 12080000 		.4byte	.LASF149
 6925 0a2e 01       		.byte	0x1
 6926 0a2f D701     		.2byte	0x1d7
 6927 0a31 4D000000 		.4byte	0x4d
 6928 0a35 08       		.byte	0x8
 6929 0a36 1B       		.uleb128 0x1b
 6930 0a37 FC090000 		.4byte	.LASF150
 6931 0a3b 01       		.byte	0x1
ARM GAS  /tmp/ccp3ezWO.s 			page 149


 6932 0a3c D801     		.2byte	0x1d8
 6933 0a3e 4D000000 		.4byte	0x4d
 6934 0a42 0A       		.byte	0xa
 6935 0a43 1B       		.uleb128 0x1b
 6936 0a44 C0040000 		.4byte	.LASF151
 6937 0a48 01       		.byte	0x1
 6938 0a49 D901     		.2byte	0x1d9
 6939 0a4b 4D000000 		.4byte	0x4d
 6940 0a4f 0C       		.byte	0xc
 6941 0a50 1B       		.uleb128 0x1b
 6942 0a51 B9080000 		.4byte	.LASF152
 6943 0a55 01       		.byte	0x1
 6944 0a56 DA01     		.2byte	0x1da
 6945 0a58 3A000000 		.4byte	0x3a
 6946 0a5c 0E       		.byte	0xe
 6947 0a5d 00       		.byte	0
 6948 0a5e 21       		.uleb128 0x21
 6949 0a5f 6E0A0000 		.4byte	0xa6e
 6950 0a63 19       		.uleb128 0x19
 6951 0a64 3A000000 		.4byte	0x3a
 6952 0a68 19       		.uleb128 0x19
 6953 0a69 3A000000 		.4byte	0x3a
 6954 0a6d 00       		.byte	0
 6955 0a6e 0A       		.uleb128 0xa
 6956 0a6f 04       		.byte	0x4
 6957 0a70 5E0A0000 		.4byte	0xa5e
 6958 0a74 21       		.uleb128 0x21
 6959 0a75 7F0A0000 		.4byte	0xa7f
 6960 0a79 19       		.uleb128 0x19
 6961 0a7a 3A000000 		.4byte	0x3a
 6962 0a7e 00       		.byte	0
 6963 0a7f 0A       		.uleb128 0xa
 6964 0a80 04       		.byte	0x4
 6965 0a81 740A0000 		.4byte	0xa74
 6966 0a85 29       		.uleb128 0x29
 6967 0a86 646D7000 		.ascii	"dmp\000"
 6968 0a8a 01       		.byte	0x1
 6969 0a8b E501     		.2byte	0x1e5
 6970 0a8d 020A0000 		.4byte	0xa02
 6971 0a91 05       		.uleb128 0x5
 6972 0a92 03       		.byte	0x3
 6973 0a93 00000000 		.4byte	dmp
 6974 0a97 2A       		.uleb128 0x2a
 6975 0a98 4E000000 		.4byte	.LASF153
 6976 0a9c 0E       		.byte	0xe
 6977 0a9d 46       		.byte	0x46
 6978 0a9e 84000000 		.4byte	0x84
 6979 0aa2 B40C0000 		.4byte	.LFB91
 6980 0aa6 0C000000 		.4byte	.LFE91-.LFB91
 6981 0aaa 01       		.uleb128 0x1
 6982 0aab 9C       		.byte	0x9c
 6983 0aac C10A0000 		.4byte	0xac1
 6984 0ab0 2B       		.uleb128 0x2b
 6985 0ab1 B9020000 		.4byte	.LASF155
 6986 0ab5 01       		.byte	0x1
 6987 0ab6 4905     		.2byte	0x549
 6988 0ab8 7F0A0000 		.4byte	0xa7f
ARM GAS  /tmp/ccp3ezWO.s 			page 150


 6989 0abc 00000000 		.4byte	.LLST52
 6990 0ac0 00       		.byte	0
 6991 0ac1 2A       		.uleb128 0x2a
 6992 0ac2 F5040000 		.4byte	.LASF154
 6993 0ac6 0E       		.byte	0xe
 6994 0ac7 3B       		.byte	0x3b
 6995 0ac8 84000000 		.4byte	0x84
 6996 0acc A80C0000 		.4byte	.LFB90
 6997 0ad0 0C000000 		.4byte	.LFE90-.LFB90
 6998 0ad4 01       		.uleb128 0x1
 6999 0ad5 9C       		.byte	0x9c
 7000 0ad6 EB0A0000 		.4byte	0xaeb
 7001 0ada 2B       		.uleb128 0x2b
 7002 0adb B9020000 		.4byte	.LASF155
 7003 0adf 01       		.byte	0x1
 7004 0ae0 3E05     		.2byte	0x53e
 7005 0ae2 6E0A0000 		.4byte	0xa6e
 7006 0ae6 22000000 		.4byte	.LLST51
 7007 0aea 00       		.byte	0
 7008 0aeb 2A       		.uleb128 0x2a
 7009 0aec 5C020000 		.4byte	.LASF156
 7010 0af0 0E       		.byte	0xe
 7011 0af1 58       		.byte	0x58
 7012 0af2 84000000 		.4byte	0x84
 7013 0af6 DC0A0000 		.4byte	.LFB89
 7014 0afa CC010000 		.4byte	.LFE89-.LFB89
 7015 0afe 01       		.uleb128 0x1
 7016 0aff 9C       		.byte	0x9c
 7017 0b00 680C0000 		.4byte	0xc68
 7018 0b04 2B       		.uleb128 0x2b
 7019 0b05 75010000 		.4byte	.LASF16
 7020 0b09 01       		.byte	0x1
 7021 0b0a E504     		.2byte	0x4e5
 7022 0b0c 680C0000 		.4byte	0xc68
 7023 0b10 44000000 		.4byte	.LLST37
 7024 0b14 2B       		.uleb128 0x2b
 7025 0b15 83050000 		.4byte	.LASF17
 7026 0b19 01       		.byte	0x1
 7027 0b1a E504     		.2byte	0x4e5
 7028 0b1c 680C0000 		.4byte	0xc68
 7029 0b20 94000000 		.4byte	.LLST38
 7030 0b24 2B       		.uleb128 0x2b
 7031 0b25 23020000 		.4byte	.LASF157
 7032 0b29 01       		.byte	0x1
 7033 0b2a E504     		.2byte	0x4e5
 7034 0b2c 6E0C0000 		.4byte	0xc6e
 7035 0b30 CB000000 		.4byte	.LLST39
 7036 0b34 2B       		.uleb128 0x2b
 7037 0b35 BD010000 		.4byte	.LASF158
 7038 0b39 01       		.byte	0x1
 7039 0b3a E604     		.2byte	0x4e6
 7040 0b3c 740C0000 		.4byte	0xc74
 7041 0b40 E9000000 		.4byte	.LLST40
 7042 0b44 2B       		.uleb128 0x2b
 7043 0b45 28080000 		.4byte	.LASF159
 7044 0b49 01       		.byte	0x1
 7045 0b4a E604     		.2byte	0x4e6
ARM GAS  /tmp/ccp3ezWO.s 			page 151


 7046 0b4c 680C0000 		.4byte	0xc68
 7047 0b50 07010000 		.4byte	.LLST41
 7048 0b54 2B       		.uleb128 0x2b
 7049 0b55 21060000 		.4byte	.LASF160
 7050 0b59 01       		.byte	0x1
 7051 0b5a E604     		.2byte	0x4e6
 7052 0b5c 99030000 		.4byte	0x399
 7053 0b60 27010000 		.4byte	.LLST42
 7054 0b64 2C       		.uleb128 0x2c
 7055 0b65 75000000 		.4byte	.LASF161
 7056 0b69 01       		.byte	0x1
 7057 0b6a E804     		.2byte	0x4e8
 7058 0b6c 7A0C0000 		.4byte	0xc7a
 7059 0b70 02       		.uleb128 0x2
 7060 0b71 91       		.byte	0x91
 7061 0b72 40       		.sleb128 -64
 7062 0b73 2D       		.uleb128 0x2d
 7063 0b74 696900   		.ascii	"ii\000"
 7064 0b77 01       		.byte	0x1
 7065 0b78 E904     		.2byte	0x4e9
 7066 0b7a 3A000000 		.4byte	0x3a
 7067 0b7e 47010000 		.4byte	.LLST43
 7068 0b82 2E       		.uleb128 0x2e
 7069 0b83 0E0B0000 		.4byte	.LBB8
 7070 0b87 C4000000 		.4byte	.LBE8-.LBB8
 7071 0b8b B90B0000 		.4byte	0xbb9
 7072 0b8f 2F       		.uleb128 0x2f
 7073 0b90 2D0A0000 		.4byte	.LASF162
 7074 0b94 01       		.byte	0x1
 7075 0b95 F304     		.2byte	0x4f3
 7076 0b97 8A0C0000 		.4byte	0xc8a
 7077 0b9b AB010000 		.4byte	.LLST44
 7078 0b9f 2F       		.uleb128 0x2f
 7079 0ba0 38060000 		.4byte	.LASF163
 7080 0ba4 01       		.byte	0x1
 7081 0ba5 F304     		.2byte	0x4f3
 7082 0ba7 64000000 		.4byte	0x64
 7083 0bab 60030000 		.4byte	.LLST45
 7084 0baf 30       		.uleb128 0x30
 7085 0bb0 C80B0000 		.4byte	.LVL224
 7086 0bb4 F9190000 		.4byte	0x19f9
 7087 0bb8 00       		.byte	0
 7088 0bb9 31       		.uleb128 0x31
 7089 0bba 330D0000 		.4byte	0xd33
 7090 0bbe 6C0C0000 		.4byte	.LBB9
 7091 0bc2 32000000 		.4byte	.LBE9-.LBB9
 7092 0bc6 01       		.byte	0x1
 7093 0bc7 2C05     		.2byte	0x52c
 7094 0bc9 3C0C0000 		.4byte	0xc3c
 7095 0bcd 32       		.uleb128 0x32
 7096 0bce 440D0000 		.4byte	0xd44
 7097 0bd2 C8050000 		.4byte	.LLST46
 7098 0bd6 33       		.uleb128 0x33
 7099 0bd7 6C0C0000 		.4byte	.LBB10
 7100 0bdb 32000000 		.4byte	.LBE10-.LBB10
 7101 0bdf 34       		.uleb128 0x34
 7102 0be0 500D0000 		.4byte	0xd50
ARM GAS  /tmp/ccp3ezWO.s 			page 152


 7103 0be4 DB050000 		.4byte	.LLST47
 7104 0be8 34       		.uleb128 0x34
 7105 0be9 5C0D0000 		.4byte	0xd5c
 7106 0bed F3050000 		.4byte	.LLST48
 7107 0bf1 2E       		.uleb128 0x2e
 7108 0bf2 760C0000 		.4byte	.LBB11
 7109 0bf6 12000000 		.4byte	.LBE11-.LBB11
 7110 0bfa 2C0C0000 		.4byte	0xc2c
 7111 0bfe 34       		.uleb128 0x34
 7112 0bff 690D0000 		.4byte	0xd69
 7113 0c03 0B060000 		.4byte	.LLST49
 7114 0c07 34       		.uleb128 0x34
 7115 0c08 750D0000 		.4byte	0xd75
 7116 0c0c 24060000 		.4byte	.LLST50
 7117 0c10 35       		.uleb128 0x35
 7118 0c11 880C0000 		.4byte	.LVL239
 7119 0c15 36       		.uleb128 0x36
 7120 0c16 01       		.uleb128 0x1
 7121 0c17 50       		.byte	0x50
 7122 0c18 07       		.uleb128 0x7
 7123 0c19 75       		.byte	0x75
 7124 0c1a 00       		.sleb128 0
 7125 0c1b 09       		.byte	0x9
 7126 0c1c FE       		.byte	0xfe
 7127 0c1d 24       		.byte	0x24
 7128 0c1e 31       		.byte	0x31
 7129 0c1f 25       		.byte	0x25
 7130 0c20 36       		.uleb128 0x36
 7131 0c21 01       		.uleb128 0x1
 7132 0c22 51       		.byte	0x51
 7133 0c23 06       		.uleb128 0x6
 7134 0c24 75       		.byte	0x75
 7135 0c25 00       		.sleb128 0
 7136 0c26 37       		.byte	0x37
 7137 0c27 1A       		.byte	0x1a
 7138 0c28 23       		.byte	0x23
 7139 0c29 01       		.uleb128 0x1
 7140 0c2a 00       		.byte	0
 7141 0c2b 00       		.byte	0
 7142 0c2c 35       		.uleb128 0x35
 7143 0c2d 9C0C0000 		.4byte	.LVL240
 7144 0c31 36       		.uleb128 0x36
 7145 0c32 01       		.uleb128 0x1
 7146 0c33 50       		.byte	0x50
 7147 0c34 04       		.uleb128 0x4
 7148 0c35 75       		.byte	0x75
 7149 0c36 00       		.sleb128 0
 7150 0c37 36       		.byte	0x36
 7151 0c38 25       		.byte	0x25
 7152 0c39 00       		.byte	0
 7153 0c3a 00       		.byte	0
 7154 0c3b 00       		.byte	0
 7155 0c3c 37       		.uleb128 0x37
 7156 0c3d FC0A0000 		.4byte	.LVL212
 7157 0c41 041A0000 		.4byte	0x1a04
 7158 0c45 570C0000 		.4byte	0xc57
 7159 0c49 36       		.uleb128 0x36
ARM GAS  /tmp/ccp3ezWO.s 			page 153


 7160 0c4a 01       		.uleb128 0x1
 7161 0c4b 51       		.byte	0x51
 7162 0c4c 02       		.uleb128 0x2
 7163 0c4d 7D       		.byte	0x7d
 7164 0c4e 00       		.sleb128 0
 7165 0c4f 36       		.uleb128 0x36
 7166 0c50 01       		.uleb128 0x1
 7167 0c51 52       		.byte	0x52
 7168 0c52 03       		.uleb128 0x3
 7169 0c53 91       		.byte	0x91
 7170 0c54 04       		.sleb128 4
 7171 0c55 06       		.byte	0x6
 7172 0c56 00       		.byte	0
 7173 0c57 38       		.uleb128 0x38
 7174 0c58 600C0000 		.4byte	.LVL233
 7175 0c5c 0F1A0000 		.4byte	0x1a0f
 7176 0c60 36       		.uleb128 0x36
 7177 0c61 01       		.uleb128 0x1
 7178 0c62 50       		.byte	0x50
 7179 0c63 02       		.uleb128 0x2
 7180 0c64 78       		.byte	0x78
 7181 0c65 00       		.sleb128 0
 7182 0c66 00       		.byte	0
 7183 0c67 00       		.byte	0
 7184 0c68 0A       		.uleb128 0xa
 7185 0c69 04       		.byte	0x4
 7186 0c6a 46000000 		.4byte	0x46
 7187 0c6e 0A       		.uleb128 0xa
 7188 0c6f 04       		.byte	0x4
 7189 0c70 64000000 		.4byte	0x64
 7190 0c74 0A       		.uleb128 0xa
 7191 0c75 04       		.byte	0x4
 7192 0c76 76000000 		.4byte	0x76
 7193 0c7a 0B       		.uleb128 0xb
 7194 0c7b 3A000000 		.4byte	0x3a
 7195 0c7f 8A0C0000 		.4byte	0xc8a
 7196 0c83 0C       		.uleb128 0xc
 7197 0c84 A6000000 		.4byte	0xa6
 7198 0c88 1F       		.byte	0x1f
 7199 0c89 00       		.byte	0
 7200 0c8a 0B       		.uleb128 0xb
 7201 0c8b 64000000 		.4byte	0x64
 7202 0c8f 9A0C0000 		.4byte	0xc9a
 7203 0c93 0C       		.uleb128 0xc
 7204 0c94 A6000000 		.4byte	0xa6
 7205 0c98 03       		.byte	0x3
 7206 0c99 00       		.byte	0
 7207 0c9a 2A       		.uleb128 0x2a
 7208 0c9b B40A0000 		.4byte	.LASF164
 7209 0c9f 0E       		.byte	0xe
 7210 0ca0 35       		.byte	0x35
 7211 0ca1 84000000 		.4byte	0x84
 7212 0ca5 700A0000 		.4byte	.LFB88
 7213 0ca9 6C000000 		.4byte	.LFE88-.LFB88
 7214 0cad 01       		.uleb128 0x1
 7215 0cae 9C       		.byte	0x9c
 7216 0caf 1E0D0000 		.4byte	0xd1e
ARM GAS  /tmp/ccp3ezWO.s 			page 154


 7217 0cb3 2B       		.uleb128 0x2b
 7218 0cb4 5A080000 		.4byte	.LASF165
 7219 0cb8 01       		.byte	0x1
 7220 0cb9 BE04     		.2byte	0x4be
 7221 0cbb 3A000000 		.4byte	0x3a
 7222 0cbf 3D060000 		.4byte	.LLST36
 7223 0cc3 2C       		.uleb128 0x2c
 7224 0cc4 9A070000 		.4byte	.LASF166
 7225 0cc8 01       		.byte	0x1
 7226 0cc9 C004     		.2byte	0x4c0
 7227 0ccb 2E0D0000 		.4byte	0xd2e
 7228 0ccf 02       		.uleb128 0x2
 7229 0cd0 91       		.byte	0x91
 7230 0cd1 64       		.sleb128 -28
 7231 0cd2 2C       		.uleb128 0x2c
 7232 0cd3 F2030000 		.4byte	.LASF167
 7233 0cd7 01       		.byte	0x1
 7234 0cd8 C204     		.2byte	0x4c2
 7235 0cda 2E0D0000 		.4byte	0xd2e
 7236 0cde 02       		.uleb128 0x2
 7237 0cdf 91       		.byte	0x91
 7238 0ce0 58       		.sleb128 -40
 7239 0ce1 37       		.uleb128 0x37
 7240 0ce2 BE0A0000 		.4byte	.LVL204
 7241 0ce6 1A1A0000 		.4byte	0x1a1a
 7242 0cea 010D0000 		.4byte	0xd01
 7243 0cee 36       		.uleb128 0x36
 7244 0cef 01       		.uleb128 0x1
 7245 0cf0 50       		.byte	0x50
 7246 0cf1 03       		.uleb128 0x3
 7247 0cf2 0A       		.byte	0xa
 7248 0cf3 820A     		.2byte	0xa82
 7249 0cf5 36       		.uleb128 0x36
 7250 0cf6 01       		.uleb128 0x1
 7251 0cf7 51       		.byte	0x51
 7252 0cf8 01       		.uleb128 0x1
 7253 0cf9 3B       		.byte	0x3b
 7254 0cfa 36       		.uleb128 0x36
 7255 0cfb 01       		.uleb128 0x1
 7256 0cfc 52       		.byte	0x52
 7257 0cfd 02       		.uleb128 0x2
 7258 0cfe 91       		.byte	0x91
 7259 0cff 64       		.sleb128 -28
 7260 0d00 00       		.byte	0
 7261 0d01 38       		.uleb128 0x38
 7262 0d02 CE0A0000 		.4byte	.LVL205
 7263 0d06 1A1A0000 		.4byte	0x1a1a
 7264 0d0a 36       		.uleb128 0x36
 7265 0d0b 01       		.uleb128 0x1
 7266 0d0c 50       		.byte	0x50
 7267 0d0d 03       		.uleb128 0x3
 7268 0d0e 0A       		.byte	0xa
 7269 0d0f 820A     		.2byte	0xa82
 7270 0d11 36       		.uleb128 0x36
 7271 0d12 01       		.uleb128 0x1
 7272 0d13 51       		.byte	0x51
 7273 0d14 01       		.uleb128 0x1
ARM GAS  /tmp/ccp3ezWO.s 			page 155


 7274 0d15 3B       		.byte	0x3b
 7275 0d16 36       		.uleb128 0x36
 7276 0d17 01       		.uleb128 0x1
 7277 0d18 52       		.byte	0x52
 7278 0d19 02       		.uleb128 0x2
 7279 0d1a 7D       		.byte	0x7d
 7280 0d1b 00       		.sleb128 0
 7281 0d1c 00       		.byte	0
 7282 0d1d 00       		.byte	0
 7283 0d1e 0B       		.uleb128 0xb
 7284 0d1f 41000000 		.4byte	0x41
 7285 0d23 2E0D0000 		.4byte	0xd2e
 7286 0d27 0C       		.uleb128 0xc
 7287 0d28 A6000000 		.4byte	0xa6
 7288 0d2c 0A       		.byte	0xa
 7289 0d2d 00       		.byte	0
 7290 0d2e 03       		.uleb128 0x3
 7291 0d2f 1E0D0000 		.4byte	0xd1e
 7292 0d33 39       		.uleb128 0x39
 7293 0d34 DC080000 		.4byte	.LASF232
 7294 0d38 01       		.byte	0x1
 7295 0d39 9E04     		.2byte	0x49e
 7296 0d3b 84000000 		.4byte	0x84
 7297 0d3f 01       		.byte	0x1
 7298 0d40 830D0000 		.4byte	0xd83
 7299 0d44 3A       		.uleb128 0x3a
 7300 0d45 38020000 		.4byte	.LASF233
 7301 0d49 01       		.byte	0x1
 7302 0d4a 9E04     		.2byte	0x49e
 7303 0d4c 99030000 		.4byte	0x399
 7304 0d50 3B       		.uleb128 0x3b
 7305 0d51 74617000 		.ascii	"tap\000"
 7306 0d55 01       		.byte	0x1
 7307 0d56 A004     		.2byte	0x4a0
 7308 0d58 3A000000 		.4byte	0x3a
 7309 0d5c 3C       		.uleb128 0x3c
 7310 0d5d 74050000 		.4byte	.LASF168
 7311 0d61 01       		.byte	0x1
 7312 0d62 A004     		.2byte	0x4a0
 7313 0d64 3A000000 		.4byte	0x3a
 7314 0d68 3D       		.uleb128 0x3d
 7315 0d69 3C       		.uleb128 0x3c
 7316 0d6a D8000000 		.4byte	.LASF169
 7317 0d6e 01       		.byte	0x1
 7318 0d6f A604     		.2byte	0x4a6
 7319 0d71 3A000000 		.4byte	0x3a
 7320 0d75 3C       		.uleb128 0x3c
 7321 0d76 0C000000 		.4byte	.LASF170
 7322 0d7a 01       		.byte	0x1
 7323 0d7b A604     		.2byte	0x4a6
 7324 0d7d 3A000000 		.4byte	0x3a
 7325 0d81 00       		.byte	0
 7326 0d82 00       		.byte	0
 7327 0d83 2A       		.uleb128 0x2a
 7328 0d84 15090000 		.4byte	.LASF171
 7329 0d88 0E       		.byte	0xe
 7330 0d89 4A       		.byte	0x4a
ARM GAS  /tmp/ccp3ezWO.s 			page 156


 7331 0d8a 84000000 		.4byte	0x84
 7332 0d8e 40080000 		.4byte	.LFB86
 7333 0d92 3C000000 		.4byte	.LFE86-.LFB86
 7334 0d96 01       		.uleb128 0x1
 7335 0d97 9C       		.byte	0x9c
 7336 0d98 E50D0000 		.4byte	0xde5
 7337 0d9c 2B       		.uleb128 0x2b
 7338 0d9d 31050000 		.4byte	.LASF172
 7339 0da1 01       		.byte	0x1
 7340 0da2 8904     		.2byte	0x489
 7341 0da4 3A000000 		.4byte	0x3a
 7342 0da8 5E060000 		.4byte	.LLST34
 7343 0dac 2C       		.uleb128 0x2c
 7344 0dad 23080000 		.4byte	.LASF173
 7345 0db1 01       		.byte	0x1
 7346 0db2 8B04     		.2byte	0x48b
 7347 0db4 9C010000 		.4byte	0x19c
 7348 0db8 02       		.uleb128 0x2
 7349 0db9 91       		.byte	0x91
 7350 0dba 74       		.sleb128 -12
 7351 0dbb 37       		.uleb128 0x37
 7352 0dbc 6A080000 		.4byte	.LVL178
 7353 0dc0 1A1A0000 		.4byte	0x1a1a
 7354 0dc4 DB0D0000 		.4byte	0xddb
 7355 0dc8 36       		.uleb128 0x36
 7356 0dc9 01       		.uleb128 0x1
 7357 0dca 50       		.byte	0x50
 7358 0dcb 03       		.uleb128 0x3
 7359 0dcc 0A       		.byte	0xa
 7360 0dcd 9E0A     		.2byte	0xa9e
 7361 0dcf 36       		.uleb128 0x36
 7362 0dd0 01       		.uleb128 0x1
 7363 0dd1 51       		.byte	0x51
 7364 0dd2 01       		.uleb128 0x1
 7365 0dd3 34       		.byte	0x34
 7366 0dd4 36       		.uleb128 0x36
 7367 0dd5 01       		.uleb128 0x1
 7368 0dd6 52       		.byte	0x52
 7369 0dd7 02       		.uleb128 0x2
 7370 0dd8 91       		.byte	0x91
 7371 0dd9 74       		.sleb128 -12
 7372 0dda 00       		.byte	0
 7373 0ddb 30       		.uleb128 0x30
 7374 0ddc 6E080000 		.4byte	.LVL179
 7375 0de0 F9190000 		.4byte	0x19f9
 7376 0de4 00       		.byte	0
 7377 0de5 2A       		.uleb128 0x2a
 7378 0de6 56060000 		.4byte	.LASF174
 7379 0dea 0E       		.byte	0xe
 7380 0deb 49       		.byte	0x49
 7381 0dec 84000000 		.4byte	0x84
 7382 0df0 04080000 		.4byte	.LFB85
 7383 0df4 3C000000 		.4byte	.LFE85-.LFB85
 7384 0df8 01       		.uleb128 0x1
 7385 0df9 9C       		.byte	0x9c
 7386 0dfa 470E0000 		.4byte	0xe47
 7387 0dfe 2B       		.uleb128 0x2b
ARM GAS  /tmp/ccp3ezWO.s 			page 157


 7388 0dff 31050000 		.4byte	.LASF172
 7389 0e03 01       		.byte	0x1
 7390 0e04 7104     		.2byte	0x471
 7391 0e06 3A000000 		.4byte	0x3a
 7392 0e0a 8A060000 		.4byte	.LLST33
 7393 0e0e 2C       		.uleb128 0x2c
 7394 0e0f 23080000 		.4byte	.LASF173
 7395 0e13 01       		.byte	0x1
 7396 0e14 7304     		.2byte	0x473
 7397 0e16 9C010000 		.4byte	0x19c
 7398 0e1a 02       		.uleb128 0x2
 7399 0e1b 91       		.byte	0x91
 7400 0e1c 74       		.sleb128 -12
 7401 0e1d 37       		.uleb128 0x37
 7402 0e1e 2E080000 		.4byte	.LVL173
 7403 0e22 1A1A0000 		.4byte	0x1a1a
 7404 0e26 3D0E0000 		.4byte	0xe3d
 7405 0e2a 36       		.uleb128 0x36
 7406 0e2b 01       		.uleb128 0x1
 7407 0e2c 50       		.byte	0x50
 7408 0e2d 03       		.uleb128 0x3
 7409 0e2e 0A       		.byte	0xa
 7410 0e2f 980A     		.2byte	0xa98
 7411 0e31 36       		.uleb128 0x36
 7412 0e32 01       		.uleb128 0x1
 7413 0e33 51       		.byte	0x51
 7414 0e34 01       		.uleb128 0x1
 7415 0e35 34       		.byte	0x34
 7416 0e36 36       		.uleb128 0x36
 7417 0e37 01       		.uleb128 0x1
 7418 0e38 52       		.byte	0x52
 7419 0e39 02       		.uleb128 0x2
 7420 0e3a 91       		.byte	0x91
 7421 0e3b 74       		.sleb128 -12
 7422 0e3c 00       		.byte	0
 7423 0e3d 30       		.uleb128 0x30
 7424 0e3e 32080000 		.4byte	.LVL174
 7425 0e42 F9190000 		.4byte	0x19f9
 7426 0e46 00       		.byte	0
 7427 0e47 2A       		.uleb128 0x2a
 7428 0e48 950A0000 		.4byte	.LASF175
 7429 0e4c 0E       		.byte	0xe
 7430 0e4d 53       		.byte	0x53
 7431 0e4e 84000000 		.4byte	0x84
 7432 0e52 B8070000 		.4byte	.LFB84
 7433 0e56 4C000000 		.4byte	.LFE84-.LFB84
 7434 0e5a 01       		.uleb128 0x1
 7435 0e5b 9C       		.byte	0x9c
 7436 0e5c DF0E0000 		.4byte	0xedf
 7437 0e60 2B       		.uleb128 0x2b
 7438 0e61 31050000 		.4byte	.LASF172
 7439 0e65 01       		.byte	0x1
 7440 0e66 5F04     		.2byte	0x45f
 7441 0e68 3A000000 		.4byte	0x3a
 7442 0e6c B6060000 		.4byte	.LLST32
 7443 0e70 2E       		.uleb128 0x2e
 7444 0e71 DE070000 		.4byte	.LBB3
ARM GAS  /tmp/ccp3ezWO.s 			page 158


 7445 0e75 26000000 		.4byte	.LBE3-.LBB3
 7446 0e79 A90E0000 		.4byte	0xea9
 7447 0e7d 2C       		.uleb128 0x2c
 7448 0e7e 23080000 		.4byte	.LASF173
 7449 0e82 01       		.byte	0x1
 7450 0e83 6204     		.2byte	0x462
 7451 0e85 DF0E0000 		.4byte	0xedf
 7452 0e89 02       		.uleb128 0x2
 7453 0e8a 91       		.byte	0x91
 7454 0e8b 6C       		.sleb128 -20
 7455 0e8c 38       		.uleb128 0x38
 7456 0e8d F8070000 		.4byte	.LVL170
 7457 0e91 1A1A0000 		.4byte	0x1a1a
 7458 0e95 36       		.uleb128 0x36
 7459 0e96 01       		.uleb128 0x1
 7460 0e97 50       		.byte	0x50
 7461 0e98 03       		.uleb128 0x3
 7462 0e99 0A       		.byte	0xa
 7463 0e9a B804     		.2byte	0x4b8
 7464 0e9c 36       		.uleb128 0x36
 7465 0e9d 01       		.uleb128 0x1
 7466 0e9e 51       		.byte	0x51
 7467 0e9f 01       		.uleb128 0x1
 7468 0ea0 39       		.byte	0x39
 7469 0ea1 36       		.uleb128 0x36
 7470 0ea2 01       		.uleb128 0x1
 7471 0ea3 52       		.byte	0x52
 7472 0ea4 02       		.uleb128 0x2
 7473 0ea5 91       		.byte	0x91
 7474 0ea6 6C       		.sleb128 -20
 7475 0ea7 00       		.byte	0
 7476 0ea8 00       		.byte	0
 7477 0ea9 33       		.uleb128 0x33
 7478 0eaa BE070000 		.4byte	.LBB2
 7479 0eae 1A000000 		.4byte	.LBE2-.LBB2
 7480 0eb2 2C       		.uleb128 0x2c
 7481 0eb3 23080000 		.4byte	.LASF173
 7482 0eb7 01       		.byte	0x1
 7483 0eb8 6504     		.2byte	0x465
 7484 0eba DF0E0000 		.4byte	0xedf
 7485 0ebe 02       		.uleb128 0x2
 7486 0ebf 91       		.byte	0x91
 7487 0ec0 6C       		.sleb128 -20
 7488 0ec1 38       		.uleb128 0x38
 7489 0ec2 D8070000 		.4byte	.LVL167
 7490 0ec6 1A1A0000 		.4byte	0x1a1a
 7491 0eca 36       		.uleb128 0x36
 7492 0ecb 01       		.uleb128 0x1
 7493 0ecc 50       		.byte	0x50
 7494 0ecd 03       		.uleb128 0x3
 7495 0ece 0A       		.byte	0xa
 7496 0ecf B804     		.2byte	0x4b8
 7497 0ed1 36       		.uleb128 0x36
 7498 0ed2 01       		.uleb128 0x1
 7499 0ed3 51       		.byte	0x51
 7500 0ed4 01       		.uleb128 0x1
 7501 0ed5 39       		.byte	0x39
ARM GAS  /tmp/ccp3ezWO.s 			page 159


 7502 0ed6 36       		.uleb128 0x36
 7503 0ed7 01       		.uleb128 0x1
 7504 0ed8 52       		.byte	0x52
 7505 0ed9 02       		.uleb128 0x2
 7506 0eda 91       		.byte	0x91
 7507 0edb 6C       		.sleb128 -20
 7508 0edc 00       		.byte	0
 7509 0edd 00       		.byte	0
 7510 0ede 00       		.byte	0
 7511 0edf 0B       		.uleb128 0xb
 7512 0ee0 3A000000 		.4byte	0x3a
 7513 0ee4 EF0E0000 		.4byte	0xeef
 7514 0ee8 0C       		.uleb128 0xc
 7515 0ee9 A6000000 		.4byte	0xa6
 7516 0eed 08       		.byte	0x8
 7517 0eee 00       		.byte	0
 7518 0eef 2A       		.uleb128 0x2a
 7519 0ef0 4B090000 		.4byte	.LASF176
 7520 0ef4 0E       		.byte	0xe
 7521 0ef5 34       		.byte	0x34
 7522 0ef6 84000000 		.4byte	0x84
 7523 0efa A8070000 		.4byte	.LFB83
 7524 0efe 10000000 		.4byte	.LFE83-.LFB83
 7525 0f02 01       		.uleb128 0x1
 7526 0f03 9C       		.byte	0x9c
 7527 0f04 190F0000 		.4byte	0xf19
 7528 0f08 2B       		.uleb128 0x2b
 7529 0f09 2F030000 		.4byte	.LASF177
 7530 0f0d 01       		.byte	0x1
 7531 0f0e 5004     		.2byte	0x450
 7532 0f10 190F0000 		.4byte	0xf19
 7533 0f14 F0060000 		.4byte	.LLST31
 7534 0f18 00       		.byte	0
 7535 0f19 0A       		.uleb128 0xa
 7536 0f1a 04       		.byte	0x4
 7537 0f1b 4D000000 		.4byte	0x4d
 7538 0f1f 2A       		.uleb128 0x2a
 7539 0f20 5E0A0000 		.4byte	.LASF178
 7540 0f24 0E       		.byte	0xe
 7541 0f25 33       		.byte	0x33
 7542 0f26 84000000 		.4byte	0x84
 7543 0f2a 7C080000 		.4byte	.LFB82
 7544 0f2e F4010000 		.4byte	.LFE82-.LFB82
 7545 0f32 01       		.uleb128 0x1
 7546 0f33 9C       		.byte	0x9c
 7547 0f34 03110000 		.4byte	0x1103
 7548 0f38 2B       		.uleb128 0x2b
 7549 0f39 2F030000 		.4byte	.LASF177
 7550 0f3d 01       		.byte	0x1
 7551 0f3e D603     		.2byte	0x3d6
 7552 0f40 4D000000 		.4byte	0x4d
 7553 0f44 11070000 		.4byte	.LLST35
 7554 0f48 29       		.uleb128 0x29
 7555 0f49 746D7000 		.ascii	"tmp\000"
 7556 0f4d 01       		.byte	0x1
 7557 0f4e D803     		.2byte	0x3d8
 7558 0f50 03110000 		.4byte	0x1103
ARM GAS  /tmp/ccp3ezWO.s 			page 160


 7559 0f54 02       		.uleb128 0x2
 7560 0f55 91       		.byte	0x91
 7561 0f56 5C       		.sleb128 -36
 7562 0f57 37       		.uleb128 0x37
 7563 0f58 A4080000 		.4byte	.LVL183
 7564 0f5c 1A1A0000 		.4byte	0x1a1a
 7565 0f60 760F0000 		.4byte	0xf76
 7566 0f64 36       		.uleb128 0x36
 7567 0f65 01       		.uleb128 0x1
 7568 0f66 50       		.byte	0x50
 7569 0f67 02       		.uleb128 0x2
 7570 0f68 08       		.byte	0x8
 7571 0f69 68       		.byte	0x68
 7572 0f6a 36       		.uleb128 0x36
 7573 0f6b 01       		.uleb128 0x1
 7574 0f6c 51       		.byte	0x51
 7575 0f6d 01       		.uleb128 0x1
 7576 0f6e 34       		.byte	0x34
 7577 0f6f 36       		.uleb128 0x36
 7578 0f70 01       		.uleb128 0x1
 7579 0f71 52       		.byte	0x52
 7580 0f72 02       		.uleb128 0x2
 7581 0f73 91       		.byte	0x91
 7582 0f74 5C       		.sleb128 -36
 7583 0f75 00       		.byte	0
 7584 0f76 37       		.uleb128 0x37
 7585 0f77 F8080000 		.4byte	.LVL184
 7586 0f7b 1A1A0000 		.4byte	0x1a1a
 7587 0f7f 960F0000 		.4byte	0xf96
 7588 0f83 36       		.uleb128 0x36
 7589 0f84 01       		.uleb128 0x1
 7590 0f85 50       		.byte	0x50
 7591 0f86 03       		.uleb128 0x3
 7592 0f87 0A       		.byte	0xa
 7593 0f88 A70A     		.2byte	0xaa7
 7594 0f8a 36       		.uleb128 0x36
 7595 0f8b 01       		.uleb128 0x1
 7596 0f8c 51       		.byte	0x51
 7597 0f8d 01       		.uleb128 0x1
 7598 0f8e 3A       		.byte	0x3a
 7599 0f8f 36       		.uleb128 0x36
 7600 0f90 01       		.uleb128 0x1
 7601 0f91 52       		.byte	0x52
 7602 0f92 02       		.uleb128 0x2
 7603 0f93 91       		.byte	0x91
 7604 0f94 5C       		.sleb128 -36
 7605 0f95 00       		.byte	0
 7606 0f96 37       		.uleb128 0x37
 7607 0f97 12090000 		.4byte	.LVL185
 7608 0f9b 1A1A0000 		.4byte	0x1a1a
 7609 0f9f B60F0000 		.4byte	0xfb6
 7610 0fa3 36       		.uleb128 0x36
 7611 0fa4 01       		.uleb128 0x1
 7612 0fa5 50       		.byte	0x50
 7613 0fa6 03       		.uleb128 0x3
 7614 0fa7 0A       		.byte	0xa
 7615 0fa8 B60A     		.2byte	0xab6
ARM GAS  /tmp/ccp3ezWO.s 			page 161


 7616 0faa 36       		.uleb128 0x36
 7617 0fab 01       		.uleb128 0x1
 7618 0fac 51       		.byte	0x51
 7619 0fad 01       		.uleb128 0x1
 7620 0fae 31       		.byte	0x31
 7621 0faf 36       		.uleb128 0x36
 7622 0fb0 01       		.uleb128 0x1
 7623 0fb1 52       		.byte	0x52
 7624 0fb2 02       		.uleb128 0x2
 7625 0fb3 91       		.byte	0x91
 7626 0fb4 5C       		.sleb128 -36
 7627 0fb5 00       		.byte	0
 7628 0fb6 30       		.uleb128 0x30
 7629 0fb7 20090000 		.4byte	.LVL186
 7630 0fbb 470E0000 		.4byte	0xe47
 7631 0fbf 37       		.uleb128 0x37
 7632 0fc0 4E090000 		.4byte	.LVL187
 7633 0fc4 1A1A0000 		.4byte	0x1a1a
 7634 0fc8 DF0F0000 		.4byte	0xfdf
 7635 0fcc 36       		.uleb128 0x36
 7636 0fcd 01       		.uleb128 0x1
 7637 0fce 50       		.byte	0x50
 7638 0fcf 03       		.uleb128 0x3
 7639 0fd0 0A       		.byte	0xa
 7640 0fd1 A20A     		.2byte	0xaa2
 7641 0fd3 36       		.uleb128 0x36
 7642 0fd4 01       		.uleb128 0x1
 7643 0fd5 51       		.byte	0x51
 7644 0fd6 01       		.uleb128 0x1
 7645 0fd7 34       		.byte	0x34
 7646 0fd8 36       		.uleb128 0x36
 7647 0fd9 01       		.uleb128 0x1
 7648 0fda 52       		.byte	0x52
 7649 0fdb 02       		.uleb128 0x2
 7650 0fdc 91       		.byte	0x91
 7651 0fdd 5C       		.sleb128 -36
 7652 0fde 00       		.byte	0
 7653 0fdf 37       		.uleb128 0x37
 7654 0fe0 66090000 		.4byte	.LVL188
 7655 0fe4 1A1A0000 		.4byte	0x1a1a
 7656 0fe8 FF0F0000 		.4byte	0xfff
 7657 0fec 36       		.uleb128 0x36
 7658 0fed 01       		.uleb128 0x1
 7659 0fee 50       		.byte	0x50
 7660 0fef 03       		.uleb128 0x3
 7661 0ff0 0A       		.byte	0xa
 7662 0ff1 B008     		.2byte	0x8b0
 7663 0ff3 36       		.uleb128 0x36
 7664 0ff4 01       		.uleb128 0x1
 7665 0ff5 51       		.byte	0x51
 7666 0ff6 01       		.uleb128 0x1
 7667 0ff7 31       		.byte	0x31
 7668 0ff8 36       		.uleb128 0x36
 7669 0ff9 01       		.uleb128 0x1
 7670 0ffa 52       		.byte	0x52
 7671 0ffb 02       		.uleb128 0x2
 7672 0ffc 91       		.byte	0x91
ARM GAS  /tmp/ccp3ezWO.s 			page 162


 7673 0ffd 5C       		.sleb128 -36
 7674 0ffe 00       		.byte	0
 7675 0fff 37       		.uleb128 0x37
 7676 1000 6E090000 		.4byte	.LVL189
 7677 1004 09150000 		.4byte	0x1509
 7678 1008 18100000 		.4byte	0x1018
 7679 100c 36       		.uleb128 0x36
 7680 100d 01       		.uleb128 0x1
 7681 100e 50       		.byte	0x50
 7682 100f 01       		.uleb128 0x1
 7683 1010 37       		.byte	0x37
 7684 1011 36       		.uleb128 0x36
 7685 1012 01       		.uleb128 0x1
 7686 1013 51       		.byte	0x51
 7687 1014 02       		.uleb128 0x2
 7688 1015 08       		.byte	0x8
 7689 1016 FA       		.byte	0xfa
 7690 1017 00       		.byte	0
 7691 1018 37       		.uleb128 0x37
 7692 1019 74090000 		.4byte	.LVL190
 7693 101d B4140000 		.4byte	0x14b4
 7694 1021 2B100000 		.4byte	0x102b
 7695 1025 36       		.uleb128 0x36
 7696 1026 01       		.uleb128 0x1
 7697 1027 50       		.byte	0x50
 7698 1028 01       		.uleb128 0x1
 7699 1029 37       		.byte	0x37
 7700 102a 00       		.byte	0
 7701 102b 37       		.uleb128 0x37
 7702 102c 7A090000 		.4byte	.LVL191
 7703 1030 5F140000 		.4byte	0x145f
 7704 1034 3E100000 		.4byte	0x103e
 7705 1038 36       		.uleb128 0x36
 7706 1039 01       		.uleb128 0x1
 7707 103a 50       		.byte	0x50
 7708 103b 01       		.uleb128 0x1
 7709 103c 31       		.byte	0x31
 7710 103d 00       		.byte	0
 7711 103e 37       		.uleb128 0x37
 7712 103f 80090000 		.4byte	.LVL192
 7713 1043 FA130000 		.4byte	0x13fa
 7714 1047 52100000 		.4byte	0x1052
 7715 104b 36       		.uleb128 0x36
 7716 104c 01       		.uleb128 0x1
 7717 104d 50       		.byte	0x50
 7718 104e 02       		.uleb128 0x2
 7719 104f 08       		.byte	0x8
 7720 1050 64       		.byte	0x64
 7721 1051 00       		.byte	0
 7722 1052 37       		.uleb128 0x37
 7723 1053 88090000 		.4byte	.LVL193
 7724 1057 95130000 		.4byte	0x1395
 7725 105b 67100000 		.4byte	0x1067
 7726 105f 36       		.uleb128 0x36
 7727 1060 01       		.uleb128 0x1
 7728 1061 50       		.byte	0x50
 7729 1062 03       		.uleb128 0x3
ARM GAS  /tmp/ccp3ezWO.s 			page 163


 7730 1063 0A       		.byte	0xa
 7731 1064 F401     		.2byte	0x1f4
 7732 1066 00       		.byte	0
 7733 1067 37       		.uleb128 0x37
 7734 1068 90090000 		.4byte	.LVL194
 7735 106c 21130000 		.4byte	0x1321
 7736 1070 84100000 		.4byte	0x1084
 7737 1074 36       		.uleb128 0x36
 7738 1075 01       		.uleb128 0x1
 7739 1076 50       		.byte	0x50
 7740 1077 05       		.uleb128 0x5
 7741 1078 0C       		.byte	0xc
 7742 1079 09E3CA02 		.4byte	0x2cae309
 7743 107d 36       		.uleb128 0x36
 7744 107e 01       		.uleb128 0x1
 7745 107f 51       		.byte	0x51
 7746 1080 02       		.uleb128 0x2
 7747 1081 08       		.byte	0x8
 7748 1082 C8       		.byte	0xc8
 7749 1083 00       		.byte	0
 7750 1084 37       		.uleb128 0x37
 7751 1085 96090000 		.4byte	.LVL195
 7752 1089 CC120000 		.4byte	0x12cc
 7753 108d 98100000 		.4byte	0x1098
 7754 1091 36       		.uleb128 0x36
 7755 1092 01       		.uleb128 0x1
 7756 1093 50       		.byte	0x50
 7757 1094 02       		.uleb128 0x2
 7758 1095 08       		.byte	0x8
 7759 1096 28       		.byte	0x28
 7760 1097 00       		.byte	0
 7761 1098 37       		.uleb128 0x37
 7762 1099 9C090000 		.4byte	.LVL196
 7763 109d 67120000 		.4byte	0x1267
 7764 10a1 AB100000 		.4byte	0x10ab
 7765 10a5 36       		.uleb128 0x36
 7766 10a6 01       		.uleb128 0x1
 7767 10a7 50       		.byte	0x50
 7768 10a8 01       		.uleb128 0x1
 7769 10a9 3A       		.byte	0x3a
 7770 10aa 00       		.byte	0
 7771 10ab 37       		.uleb128 0x37
 7772 10ac B6090000 		.4byte	.LVL197
 7773 10b0 1A1A0000 		.4byte	0x1a1a
 7774 10b4 CB100000 		.4byte	0x10cb
 7775 10b8 36       		.uleb128 0x36
 7776 10b9 01       		.uleb128 0x1
 7777 10ba 50       		.byte	0x50
 7778 10bb 03       		.uleb128 0x3
 7779 10bc 0A       		.byte	0xa
 7780 10bd 3D07     		.2byte	0x73d
 7781 10bf 36       		.uleb128 0x36
 7782 10c0 01       		.uleb128 0x1
 7783 10c1 51       		.byte	0x51
 7784 10c2 01       		.uleb128 0x1
 7785 10c3 31       		.byte	0x31
 7786 10c4 36       		.uleb128 0x36
ARM GAS  /tmp/ccp3ezWO.s 			page 164


 7787 10c5 01       		.uleb128 0x1
 7788 10c6 52       		.byte	0x52
 7789 10c7 02       		.uleb128 0x2
 7790 10c8 91       		.byte	0x91
 7791 10c9 5C       		.sleb128 -36
 7792 10ca 00       		.byte	0
 7793 10cb 30       		.uleb128 0x30
 7794 10cc C4090000 		.4byte	.LVL198
 7795 10d0 E50D0000 		.4byte	0xde5
 7796 10d4 30       		.uleb128 0x30
 7797 10d5 D2090000 		.4byte	.LVL199
 7798 10d9 830D0000 		.4byte	0xd83
 7799 10dd 30       		.uleb128 0x30
 7800 10de DE090000 		.4byte	.LVL200
 7801 10e2 F9190000 		.4byte	0x19f9
 7802 10e6 38       		.uleb128 0x38
 7803 10e7 5C0A0000 		.4byte	.LVL201
 7804 10eb 1A1A0000 		.4byte	0x1a1a
 7805 10ef 36       		.uleb128 0x36
 7806 10f0 01       		.uleb128 0x1
 7807 10f1 50       		.byte	0x50
 7808 10f2 03       		.uleb128 0x3
 7809 10f3 0A       		.byte	0xa
 7810 10f4 B008     		.2byte	0x8b0
 7811 10f6 36       		.uleb128 0x36
 7812 10f7 01       		.uleb128 0x1
 7813 10f8 51       		.byte	0x51
 7814 10f9 01       		.uleb128 0x1
 7815 10fa 31       		.byte	0x31
 7816 10fb 36       		.uleb128 0x36
 7817 10fc 01       		.uleb128 0x1
 7818 10fd 52       		.byte	0x52
 7819 10fe 02       		.uleb128 0x2
 7820 10ff 91       		.byte	0x91
 7821 1100 5C       		.sleb128 -36
 7822 1101 00       		.byte	0
 7823 1102 00       		.byte	0
 7824 1103 0B       		.uleb128 0xb
 7825 1104 3A000000 		.4byte	0x3a
 7826 1108 13110000 		.4byte	0x1113
 7827 110c 0C       		.uleb128 0xc
 7828 110d A6000000 		.4byte	0xa6
 7829 1111 09       		.byte	0x9
 7830 1112 00       		.byte	0
 7831 1113 2A       		.uleb128 0x2a
 7832 1114 DE0A0000 		.4byte	.LASF179
 7833 1118 0E       		.byte	0xe
 7834 1119 50       		.byte	0x50
 7835 111a 84000000 		.4byte	0x84
 7836 111e 6E070000 		.4byte	.LFB81
 7837 1122 3A000000 		.4byte	.LFE81-.LFB81
 7838 1126 01       		.uleb128 0x1
 7839 1127 9C       		.byte	0x9c
 7840 1128 68110000 		.4byte	0x1168
 7841 112c 2B       		.uleb128 0x2b
 7842 112d 71090000 		.4byte	.LASF180
 7843 1131 01       		.byte	0x1
ARM GAS  /tmp/ccp3ezWO.s 			page 165


 7844 1132 B803     		.2byte	0x3b8
 7845 1134 76000000 		.4byte	0x76
 7846 1138 32070000 		.4byte	.LLST30
 7847 113c 29       		.uleb128 0x29
 7848 113d 746D7000 		.ascii	"tmp\000"
 7849 1141 01       		.byte	0x1
 7850 1142 BA03     		.2byte	0x3ba
 7851 1144 9C010000 		.4byte	0x19c
 7852 1148 02       		.uleb128 0x2
 7853 1149 91       		.byte	0x91
 7854 114a 74       		.sleb128 -12
 7855 114b 38       		.uleb128 0x38
 7856 114c 9C070000 		.4byte	.LVL162
 7857 1150 1A1A0000 		.4byte	0x1a1a
 7858 1154 36       		.uleb128 0x36
 7859 1155 01       		.uleb128 0x1
 7860 1156 50       		.byte	0x50
 7861 1157 03       		.uleb128 0x3
 7862 1158 0A       		.byte	0xa
 7863 1159 C403     		.2byte	0x3c4
 7864 115b 36       		.uleb128 0x36
 7865 115c 01       		.uleb128 0x1
 7866 115d 51       		.byte	0x51
 7867 115e 01       		.uleb128 0x1
 7868 115f 34       		.byte	0x34
 7869 1160 36       		.uleb128 0x36
 7870 1161 01       		.uleb128 0x1
 7871 1162 52       		.byte	0x52
 7872 1163 02       		.uleb128 0x2
 7873 1164 91       		.byte	0x91
 7874 1165 74       		.sleb128 -12
 7875 1166 00       		.byte	0
 7876 1167 00       		.byte	0
 7877 1168 2A       		.uleb128 0x2a
 7878 1169 73070000 		.4byte	.LASF181
 7879 116d 0E       		.byte	0xe
 7880 116e 4F       		.byte	0x4f
 7881 116f 84000000 		.4byte	0x84
 7882 1173 1E070000 		.4byte	.LFB80
 7883 1177 50000000 		.4byte	.LFE80-.LFB80
 7884 117b 01       		.uleb128 0x1
 7885 117c 9C       		.byte	0x9c
 7886 117d BD110000 		.4byte	0x11bd
 7887 1181 2B       		.uleb128 0x2b
 7888 1182 71090000 		.4byte	.LASF180
 7889 1186 01       		.byte	0x1
 7890 1187 A403     		.2byte	0x3a4
 7891 1189 740C0000 		.4byte	0xc74
 7892 118d 87070000 		.4byte	.LLST29
 7893 1191 29       		.uleb128 0x29
 7894 1192 746D7000 		.ascii	"tmp\000"
 7895 1196 01       		.byte	0x1
 7896 1197 A603     		.2byte	0x3a6
 7897 1199 9C010000 		.4byte	0x19c
 7898 119d 02       		.uleb128 0x2
 7899 119e 91       		.byte	0x91
 7900 119f 74       		.sleb128 -12
ARM GAS  /tmp/ccp3ezWO.s 			page 166


 7901 11a0 38       		.uleb128 0x38
 7902 11a1 32070000 		.4byte	.LVL155
 7903 11a5 251A0000 		.4byte	0x1a25
 7904 11a9 36       		.uleb128 0x36
 7905 11aa 01       		.uleb128 0x1
 7906 11ab 50       		.byte	0x50
 7907 11ac 03       		.uleb128 0x3
 7908 11ad 0A       		.byte	0xa
 7909 11ae C403     		.2byte	0x3c4
 7910 11b0 36       		.uleb128 0x36
 7911 11b1 01       		.uleb128 0x1
 7912 11b2 51       		.byte	0x51
 7913 11b3 01       		.uleb128 0x1
 7914 11b4 34       		.byte	0x34
 7915 11b5 36       		.uleb128 0x36
 7916 11b6 01       		.uleb128 0x1
 7917 11b7 52       		.byte	0x52
 7918 11b8 02       		.uleb128 0x2
 7919 11b9 91       		.byte	0x91
 7920 11ba 74       		.sleb128 -12
 7921 11bb 00       		.byte	0
 7922 11bc 00       		.byte	0
 7923 11bd 2A       		.uleb128 0x2a
 7924 11be D1060000 		.4byte	.LASF182
 7925 11c2 0E       		.byte	0xe
 7926 11c3 4E       		.byte	0x4e
 7927 11c4 84000000 		.4byte	0x84
 7928 11c8 F2060000 		.4byte	.LFB79
 7929 11cc 2C000000 		.4byte	.LFE79-.LFB79
 7930 11d0 01       		.uleb128 0x1
 7931 11d1 9C       		.byte	0x9c
 7932 11d2 12120000 		.4byte	0x1212
 7933 11d6 2B       		.uleb128 0x2b
 7934 11d7 0C000000 		.4byte	.LASF170
 7935 11db 01       		.byte	0x1
 7936 11dc 9403     		.2byte	0x394
 7937 11de 76000000 		.4byte	0x76
 7938 11e2 C9070000 		.4byte	.LLST28
 7939 11e6 29       		.uleb128 0x29
 7940 11e7 746D7000 		.ascii	"tmp\000"
 7941 11eb 01       		.byte	0x1
 7942 11ec 9603     		.2byte	0x396
 7943 11ee 9C010000 		.4byte	0x19c
 7944 11f2 02       		.uleb128 0x2
 7945 11f3 91       		.byte	0x91
 7946 11f4 74       		.sleb128 -12
 7947 11f5 38       		.uleb128 0x38
 7948 11f6 18070000 		.4byte	.LVL152
 7949 11fa 1A1A0000 		.4byte	0x1a1a
 7950 11fe 36       		.uleb128 0x36
 7951 11ff 01       		.uleb128 0x1
 7952 1200 50       		.byte	0x50
 7953 1201 03       		.uleb128 0x3
 7954 1202 0A       		.byte	0xa
 7955 1203 6003     		.2byte	0x360
 7956 1205 36       		.uleb128 0x36
 7957 1206 01       		.uleb128 0x1
ARM GAS  /tmp/ccp3ezWO.s 			page 167


 7958 1207 51       		.byte	0x51
 7959 1208 01       		.uleb128 0x1
 7960 1209 34       		.byte	0x34
 7961 120a 36       		.uleb128 0x36
 7962 120b 01       		.uleb128 0x1
 7963 120c 52       		.byte	0x52
 7964 120d 02       		.uleb128 0x2
 7965 120e 91       		.byte	0x91
 7966 120f 74       		.sleb128 -12
 7967 1210 00       		.byte	0
 7968 1211 00       		.byte	0
 7969 1212 2A       		.uleb128 0x2a
 7970 1213 EE050000 		.4byte	.LASF183
 7971 1217 0E       		.byte	0xe
 7972 1218 4D       		.byte	0x4d
 7973 1219 84000000 		.4byte	0x84
 7974 121d A8060000 		.4byte	.LFB78
 7975 1221 4A000000 		.4byte	.LFE78-.LFB78
 7976 1225 01       		.uleb128 0x1
 7977 1226 9C       		.byte	0x9c
 7978 1227 67120000 		.4byte	0x1267
 7979 122b 2B       		.uleb128 0x2b
 7980 122c 0C000000 		.4byte	.LASF170
 7981 1230 01       		.byte	0x1
 7982 1231 7F03     		.2byte	0x37f
 7983 1233 740C0000 		.4byte	0xc74
 7984 1237 EA070000 		.4byte	.LLST27
 7985 123b 29       		.uleb128 0x29
 7986 123c 746D7000 		.ascii	"tmp\000"
 7987 1240 01       		.byte	0x1
 7988 1241 8103     		.2byte	0x381
 7989 1243 9C010000 		.4byte	0x19c
 7990 1247 02       		.uleb128 0x2
 7991 1248 91       		.byte	0x91
 7992 1249 74       		.sleb128 -12
 7993 124a 38       		.uleb128 0x38
 7994 124b BC060000 		.4byte	.LVL146
 7995 124f 251A0000 		.4byte	0x1a25
 7996 1253 36       		.uleb128 0x36
 7997 1254 01       		.uleb128 0x1
 7998 1255 50       		.byte	0x50
 7999 1256 03       		.uleb128 0x3
 8000 1257 0A       		.byte	0xa
 8001 1258 6003     		.2byte	0x360
 8002 125a 36       		.uleb128 0x36
 8003 125b 01       		.uleb128 0x1
 8004 125c 51       		.byte	0x51
 8005 125d 01       		.uleb128 0x1
 8006 125e 34       		.byte	0x34
 8007 125f 36       		.uleb128 0x36
 8008 1260 01       		.uleb128 0x1
 8009 1261 52       		.byte	0x52
 8010 1262 02       		.uleb128 0x2
 8011 1263 91       		.byte	0x91
 8012 1264 74       		.sleb128 -12
 8013 1265 00       		.byte	0
 8014 1266 00       		.byte	0
ARM GAS  /tmp/ccp3ezWO.s 			page 168


 8015 1267 2A       		.uleb128 0x2a
 8016 1268 89010000 		.4byte	.LASF184
 8017 126c 0E       		.byte	0xe
 8018 126d 43       		.byte	0x43
 8019 126e 84000000 		.4byte	0x84
 8020 1272 7C060000 		.4byte	.LFB77
 8021 1276 2C000000 		.4byte	.LFE77-.LFB77
 8022 127a 01       		.uleb128 0x1
 8023 127b 9C       		.byte	0x9c
 8024 127c BC120000 		.4byte	0x12bc
 8025 1280 2B       		.uleb128 0x2b
 8026 1281 71090000 		.4byte	.LASF180
 8027 1285 01       		.byte	0x1
 8028 1286 7003     		.2byte	0x370
 8029 1288 4D000000 		.4byte	0x4d
 8030 128c 2C080000 		.4byte	.LLST26
 8031 1290 29       		.uleb128 0x29
 8032 1291 746D7000 		.ascii	"tmp\000"
 8033 1295 01       		.byte	0x1
 8034 1296 7203     		.2byte	0x372
 8035 1298 BC120000 		.4byte	0x12bc
 8036 129c 02       		.uleb128 0x2
 8037 129d 91       		.byte	0x91
 8038 129e 74       		.sleb128 -12
 8039 129f 38       		.uleb128 0x38
 8040 12a0 9E060000 		.4byte	.LVL143
 8041 12a4 1A1A0000 		.4byte	0x1a1a
 8042 12a8 36       		.uleb128 0x36
 8043 12a9 01       		.uleb128 0x1
 8044 12aa 50       		.byte	0x50
 8045 12ab 03       		.uleb128 0x3
 8046 12ac 0A       		.byte	0xa
 8047 12ad 5801     		.2byte	0x158
 8048 12af 36       		.uleb128 0x36
 8049 12b0 01       		.uleb128 0x1
 8050 12b1 51       		.byte	0x51
 8051 12b2 01       		.uleb128 0x1
 8052 12b3 32       		.byte	0x32
 8053 12b4 36       		.uleb128 0x36
 8054 12b5 01       		.uleb128 0x1
 8055 12b6 52       		.byte	0x52
 8056 12b7 02       		.uleb128 0x2
 8057 12b8 91       		.byte	0x91
 8058 12b9 74       		.sleb128 -12
 8059 12ba 00       		.byte	0
 8060 12bb 00       		.byte	0
 8061 12bc 0B       		.uleb128 0xb
 8062 12bd 3A000000 		.4byte	0x3a
 8063 12c1 CC120000 		.4byte	0x12cc
 8064 12c5 0C       		.uleb128 0xc
 8065 12c6 A6000000 		.4byte	0xa6
 8066 12ca 01       		.byte	0x1
 8067 12cb 00       		.byte	0
 8068 12cc 2A       		.uleb128 0x2a
 8069 12cd 49050000 		.4byte	.LASF185
 8070 12d1 0E       		.byte	0xe
 8071 12d2 42       		.byte	0x42
ARM GAS  /tmp/ccp3ezWO.s 			page 169


 8072 12d3 84000000 		.4byte	0x84
 8073 12d7 50060000 		.4byte	.LFB76
 8074 12db 2C000000 		.4byte	.LFE76-.LFB76
 8075 12df 01       		.uleb128 0x1
 8076 12e0 9C       		.byte	0x9c
 8077 12e1 21130000 		.4byte	0x1321
 8078 12e5 2B       		.uleb128 0x2b
 8079 12e6 71090000 		.4byte	.LASF180
 8080 12ea 01       		.byte	0x1
 8081 12eb 5E03     		.2byte	0x35e
 8082 12ed 4D000000 		.4byte	0x4d
 8083 12f1 58080000 		.4byte	.LLST25
 8084 12f5 29       		.uleb128 0x29
 8085 12f6 746D7000 		.ascii	"tmp\000"
 8086 12fa 01       		.byte	0x1
 8087 12fb 6003     		.2byte	0x360
 8088 12fd BC120000 		.4byte	0x12bc
 8089 1301 02       		.uleb128 0x2
 8090 1302 91       		.byte	0x91
 8091 1303 74       		.sleb128 -12
 8092 1304 38       		.uleb128 0x38
 8093 1305 72060000 		.4byte	.LVL138
 8094 1309 1A1A0000 		.4byte	0x1a1a
 8095 130d 36       		.uleb128 0x36
 8096 130e 01       		.uleb128 0x1
 8097 130f 50       		.byte	0x50
 8098 1310 03       		.uleb128 0x3
 8099 1311 0A       		.byte	0xa
 8100 1312 5A01     		.2byte	0x15a
 8101 1314 36       		.uleb128 0x36
 8102 1315 01       		.uleb128 0x1
 8103 1316 51       		.byte	0x51
 8104 1317 01       		.uleb128 0x1
 8105 1318 32       		.byte	0x32
 8106 1319 36       		.uleb128 0x36
 8107 131a 01       		.uleb128 0x1
 8108 131b 52       		.byte	0x52
 8109 131c 02       		.uleb128 0x2
 8110 131d 91       		.byte	0x91
 8111 131e 74       		.sleb128 -12
 8112 131f 00       		.byte	0
 8113 1320 00       		.byte	0
 8114 1321 2A       		.uleb128 0x2a
 8115 1322 11040000 		.4byte	.LASF186
 8116 1326 0E       		.byte	0xe
 8117 1327 41       		.byte	0x41
 8118 1328 84000000 		.4byte	0x84
 8119 132c 10060000 		.4byte	.LFB75
 8120 1330 40000000 		.4byte	.LFE75-.LFB75
 8121 1334 01       		.uleb128 0x1
 8122 1335 9C       		.byte	0x9c
 8123 1336 95130000 		.4byte	0x1395
 8124 133a 3E       		.uleb128 0x3e
 8125 133b 736600   		.ascii	"sf\000"
 8126 133e 01       		.byte	0x1
 8127 133f 4B03     		.2byte	0x34b
 8128 1341 64000000 		.4byte	0x64
ARM GAS  /tmp/ccp3ezWO.s 			page 170


 8129 1345 84080000 		.4byte	.LLST22
 8130 1349 2B       		.uleb128 0x2b
 8131 134a 2D000000 		.4byte	.LASF187
 8132 134e 01       		.byte	0x1
 8133 134f 4B03     		.2byte	0x34b
 8134 1351 4D000000 		.4byte	0x4d
 8135 1355 A5080000 		.4byte	.LLST23
 8136 1359 29       		.uleb128 0x29
 8137 135a 746D7000 		.ascii	"tmp\000"
 8138 135e 01       		.byte	0x1
 8139 135f 4D03     		.2byte	0x34d
 8140 1361 9C010000 		.4byte	0x19c
 8141 1365 02       		.uleb128 0x2
 8142 1366 91       		.byte	0x91
 8143 1367 74       		.sleb128 -12
 8144 1368 2F       		.uleb128 0x2f
 8145 1369 FE070000 		.4byte	.LASF188
 8146 136d 01       		.byte	0x1
 8147 136e 4E03     		.2byte	0x34e
 8148 1370 64000000 		.4byte	0x64
 8149 1374 C6080000 		.4byte	.LLST24
 8150 1378 38       		.uleb128 0x38
 8151 1379 46060000 		.4byte	.LVL133
 8152 137d 1A1A0000 		.4byte	0x1a1a
 8153 1381 36       		.uleb128 0x36
 8154 1382 01       		.uleb128 0x1
 8155 1383 50       		.byte	0x50
 8156 1384 03       		.uleb128 0x3
 8157 1385 0A       		.byte	0xa
 8158 1386 5C01     		.2byte	0x15c
 8159 1388 36       		.uleb128 0x36
 8160 1389 01       		.uleb128 0x1
 8161 138a 51       		.byte	0x51
 8162 138b 01       		.uleb128 0x1
 8163 138c 34       		.byte	0x34
 8164 138d 36       		.uleb128 0x36
 8165 138e 01       		.uleb128 0x1
 8166 138f 52       		.byte	0x52
 8167 1390 02       		.uleb128 0x2
 8168 1391 91       		.byte	0x91
 8169 1392 74       		.sleb128 -12
 8170 1393 00       		.byte	0
 8171 1394 00       		.byte	0
 8172 1395 2A       		.uleb128 0x2a
 8173 1396 D0030000 		.4byte	.LASF189
 8174 139a 0E       		.byte	0xe
 8175 139b 40       		.byte	0x40
 8176 139c 84000000 		.4byte	0x84
 8177 13a0 E4050000 		.4byte	.LFB74
 8178 13a4 2C000000 		.4byte	.LFE74-.LFB74
 8179 13a8 01       		.uleb128 0x1
 8180 13a9 9C       		.byte	0x9c
 8181 13aa FA130000 		.4byte	0x13fa
 8182 13ae 2B       		.uleb128 0x2b
 8183 13af 71090000 		.4byte	.LASF180
 8184 13b3 01       		.byte	0x1
 8185 13b4 3903     		.2byte	0x339
ARM GAS  /tmp/ccp3ezWO.s 			page 171


 8186 13b6 4D000000 		.4byte	0x4d
 8187 13ba D9080000 		.4byte	.LLST20
 8188 13be 2F       		.uleb128 0x2f
 8189 13bf 3F010000 		.4byte	.LASF190
 8190 13c3 01       		.byte	0x1
 8191 13c4 3B03     		.2byte	0x33b
 8192 13c6 4D000000 		.4byte	0x4d
 8193 13ca FA080000 		.4byte	.LLST21
 8194 13ce 29       		.uleb128 0x29
 8195 13cf 746D7000 		.ascii	"tmp\000"
 8196 13d3 01       		.byte	0x1
 8197 13d4 3C03     		.2byte	0x33c
 8198 13d6 BC120000 		.4byte	0x12bc
 8199 13da 02       		.uleb128 0x2
 8200 13db 91       		.byte	0x91
 8201 13dc 74       		.sleb128 -12
 8202 13dd 38       		.uleb128 0x38
 8203 13de 06060000 		.4byte	.LVL128
 8204 13e2 1A1A0000 		.4byte	0x1a1a
 8205 13e6 36       		.uleb128 0x36
 8206 13e7 01       		.uleb128 0x1
 8207 13e8 50       		.byte	0x50
 8208 13e9 03       		.uleb128 0x3
 8209 13ea 0A       		.byte	0xa
 8210 13eb DA01     		.2byte	0x1da
 8211 13ed 36       		.uleb128 0x36
 8212 13ee 01       		.uleb128 0x1
 8213 13ef 51       		.byte	0x51
 8214 13f0 01       		.uleb128 0x1
 8215 13f1 32       		.byte	0x32
 8216 13f2 36       		.uleb128 0x36
 8217 13f3 01       		.uleb128 0x1
 8218 13f4 52       		.byte	0x52
 8219 13f5 02       		.uleb128 0x2
 8220 13f6 91       		.byte	0x91
 8221 13f7 74       		.sleb128 -12
 8222 13f8 00       		.byte	0
 8223 13f9 00       		.byte	0
 8224 13fa 2A       		.uleb128 0x2a
 8225 13fb 12050000 		.4byte	.LASF191
 8226 13ff 0E       		.byte	0xe
 8227 1400 3F       		.byte	0x3f
 8228 1401 84000000 		.4byte	0x84
 8229 1405 B6050000 		.4byte	.LFB73
 8230 1409 2E000000 		.4byte	.LFE73-.LFB73
 8231 140d 01       		.uleb128 0x1
 8232 140e 9C       		.byte	0x9c
 8233 140f 5F140000 		.4byte	0x145f
 8234 1413 2B       		.uleb128 0x2b
 8235 1414 71090000 		.4byte	.LASF180
 8236 1418 01       		.byte	0x1
 8237 1419 2903     		.2byte	0x329
 8238 141b 4D000000 		.4byte	0x4d
 8239 141f 0D090000 		.4byte	.LLST18
 8240 1423 2F       		.uleb128 0x2f
 8241 1424 3F010000 		.4byte	.LASF190
 8242 1428 01       		.byte	0x1
ARM GAS  /tmp/ccp3ezWO.s 			page 172


 8243 1429 2B03     		.2byte	0x32b
 8244 142b 4D000000 		.4byte	0x4d
 8245 142f 2E090000 		.4byte	.LLST19
 8246 1433 29       		.uleb128 0x29
 8247 1434 746D7000 		.ascii	"tmp\000"
 8248 1438 01       		.byte	0x1
 8249 1439 2C03     		.2byte	0x32c
 8250 143b BC120000 		.4byte	0x12bc
 8251 143f 02       		.uleb128 0x2
 8252 1440 91       		.byte	0x91
 8253 1441 74       		.sleb128 -12
 8254 1442 38       		.uleb128 0x38
 8255 1443 D8050000 		.4byte	.LVL123
 8256 1447 1A1A0000 		.4byte	0x1a1a
 8257 144b 36       		.uleb128 0x36
 8258 144c 01       		.uleb128 0x1
 8259 144d 50       		.byte	0x50
 8260 144e 03       		.uleb128 0x3
 8261 144f 0A       		.byte	0xa
 8262 1450 DE01     		.2byte	0x1de
 8263 1452 36       		.uleb128 0x36
 8264 1453 01       		.uleb128 0x1
 8265 1454 51       		.byte	0x51
 8266 1455 01       		.uleb128 0x1
 8267 1456 32       		.byte	0x32
 8268 1457 36       		.uleb128 0x36
 8269 1458 01       		.uleb128 0x1
 8270 1459 52       		.byte	0x52
 8271 145a 02       		.uleb128 0x2
 8272 145b 91       		.byte	0x91
 8273 145c 74       		.sleb128 -12
 8274 145d 00       		.byte	0
 8275 145e 00       		.byte	0
 8276 145f 2A       		.uleb128 0x2a
 8277 1460 44060000 		.4byte	.LASF192
 8278 1464 0E       		.byte	0xe
 8279 1465 3E       		.byte	0x3e
 8280 1466 84000000 		.4byte	0x84
 8281 146a 8A050000 		.4byte	.LFB72
 8282 146e 2C000000 		.4byte	.LFE72-.LFB72
 8283 1472 01       		.uleb128 0x1
 8284 1473 9C       		.byte	0x9c
 8285 1474 B4140000 		.4byte	0x14b4
 8286 1478 2B       		.uleb128 0x2b
 8287 1479 DD020000 		.4byte	.LASF193
 8288 147d 01       		.byte	0x1
 8289 147e 1703     		.2byte	0x317
 8290 1480 3A000000 		.4byte	0x3a
 8291 1484 41090000 		.4byte	.LLST17
 8292 1488 29       		.uleb128 0x29
 8293 1489 746D7000 		.ascii	"tmp\000"
 8294 148d 01       		.byte	0x1
 8295 148e 1903     		.2byte	0x319
 8296 1490 3A000000 		.4byte	0x3a
 8297 1494 02       		.uleb128 0x2
 8298 1495 91       		.byte	0x91
 8299 1496 77       		.sleb128 -9
ARM GAS  /tmp/ccp3ezWO.s 			page 173


 8300 1497 38       		.uleb128 0x38
 8301 1498 AC050000 		.4byte	.LVL116
 8302 149c 1A1A0000 		.4byte	0x1a1a
 8303 14a0 36       		.uleb128 0x36
 8304 14a1 01       		.uleb128 0x1
 8305 14a2 50       		.byte	0x50
 8306 14a3 03       		.uleb128 0x3
 8307 14a4 0A       		.byte	0xa
 8308 14a5 4F01     		.2byte	0x14f
 8309 14a7 36       		.uleb128 0x36
 8310 14a8 01       		.uleb128 0x1
 8311 14a9 51       		.byte	0x51
 8312 14aa 01       		.uleb128 0x1
 8313 14ab 31       		.byte	0x31
 8314 14ac 36       		.uleb128 0x36
 8315 14ad 01       		.uleb128 0x1
 8316 14ae 52       		.byte	0x52
 8317 14af 02       		.uleb128 0x2
 8318 14b0 91       		.byte	0x91
 8319 14b1 77       		.sleb128 -9
 8320 14b2 00       		.byte	0
 8321 14b3 00       		.byte	0
 8322 14b4 2A       		.uleb128 0x2a
 8323 14b5 63050000 		.4byte	.LASF194
 8324 14b9 0E       		.byte	0xe
 8325 14ba 3D       		.byte	0x3d
 8326 14bb 84000000 		.4byte	0x84
 8327 14bf 40050000 		.4byte	.LFB71
 8328 14c3 4A000000 		.4byte	.LFE71-.LFB71
 8329 14c7 01       		.uleb128 0x1
 8330 14c8 9C       		.byte	0x9c
 8331 14c9 09150000 		.4byte	0x1509
 8332 14cd 2B       		.uleb128 0x2b
 8333 14ce 8A040000 		.4byte	.LASF195
 8334 14d2 01       		.byte	0x1
 8335 14d3 0503     		.2byte	0x305
 8336 14d5 3A000000 		.4byte	0x3a
 8337 14d9 78090000 		.4byte	.LLST16
 8338 14dd 29       		.uleb128 0x29
 8339 14de 746D7000 		.ascii	"tmp\000"
 8340 14e2 01       		.byte	0x1
 8341 14e3 0703     		.2byte	0x307
 8342 14e5 3A000000 		.4byte	0x3a
 8343 14e9 02       		.uleb128 0x2
 8344 14ea 91       		.byte	0x91
 8345 14eb 77       		.sleb128 -9
 8346 14ec 38       		.uleb128 0x38
 8347 14ed 84050000 		.4byte	.LVL112
 8348 14f1 1A1A0000 		.4byte	0x1a1a
 8349 14f5 36       		.uleb128 0x36
 8350 14f6 01       		.uleb128 0x1
 8351 14f7 50       		.byte	0x50
 8352 14f8 03       		.uleb128 0x3
 8353 14f9 0A       		.byte	0xa
 8354 14fa 4801     		.2byte	0x148
 8355 14fc 36       		.uleb128 0x36
 8356 14fd 01       		.uleb128 0x1
ARM GAS  /tmp/ccp3ezWO.s 			page 174


 8357 14fe 51       		.byte	0x51
 8358 14ff 01       		.uleb128 0x1
 8359 1500 31       		.byte	0x31
 8360 1501 36       		.uleb128 0x36
 8361 1502 01       		.uleb128 0x1
 8362 1503 52       		.byte	0x52
 8363 1504 02       		.uleb128 0x2
 8364 1505 91       		.byte	0x91
 8365 1506 77       		.sleb128 -9
 8366 1507 00       		.byte	0
 8367 1508 00       		.byte	0
 8368 1509 3F       		.uleb128 0x3f
 8369 150a E2040000 		.4byte	.LASF196
 8370 150e 0E       		.byte	0xe
 8371 150f 3C       		.byte	0x3c
 8372 1510 84000000 		.4byte	0x84
 8373 1514 9C030000 		.4byte	.LFB70
 8374 1518 A4010000 		.4byte	.LFE70-.LFB70
 8375 151c 01       		.uleb128 0x1
 8376 151d 9C       		.byte	0x9c
 8377 151e 61160000 		.4byte	0x1661
 8378 1522 2B       		.uleb128 0x2b
 8379 1523 8A040000 		.4byte	.LASF195
 8380 1527 01       		.byte	0x1
 8381 1528 C302     		.2byte	0x2c3
 8382 152a 3A000000 		.4byte	0x3a
 8383 152e 99090000 		.4byte	.LLST11
 8384 1532 2B       		.uleb128 0x2b
 8385 1533 2D000000 		.4byte	.LASF187
 8386 1537 01       		.byte	0x1
 8387 1538 C302     		.2byte	0x2c3
 8388 153a 4D000000 		.4byte	0x4d
 8389 153e EC090000 		.4byte	.LLST12
 8390 1542 29       		.uleb128 0x29
 8391 1543 746D7000 		.ascii	"tmp\000"
 8392 1547 01       		.byte	0x1
 8393 1548 C502     		.2byte	0x2c5
 8394 154a 9C010000 		.4byte	0x19c
 8395 154e 02       		.uleb128 0x2
 8396 154f 91       		.byte	0x91
 8397 1550 6C       		.sleb128 -20
 8398 1551 2C       		.uleb128 0x2c
 8399 1552 E1010000 		.4byte	.LASF197
 8400 1556 01       		.byte	0x1
 8401 1557 C502     		.2byte	0x2c5
 8402 1559 3A000000 		.4byte	0x3a
 8403 155d 02       		.uleb128 0x2
 8404 155e 91       		.byte	0x91
 8405 155f 6B       		.sleb128 -21
 8406 1560 2F       		.uleb128 0x2f
 8407 1561 0B010000 		.4byte	.LASF198
 8408 1565 01       		.byte	0x1
 8409 1566 C602     		.2byte	0x2c6
 8410 1568 23010000 		.4byte	0x123
 8411 156c 260A0000 		.4byte	.LLST13
 8412 1570 2F       		.uleb128 0x2f
 8413 1571 58040000 		.4byte	.LASF199
ARM GAS  /tmp/ccp3ezWO.s 			page 175


 8414 1575 01       		.byte	0x1
 8415 1576 C702     		.2byte	0x2c7
 8416 1578 4D000000 		.4byte	0x4d
 8417 157c 4F0A0000 		.4byte	.LLST14
 8418 1580 2F       		.uleb128 0x2f
 8419 1581 41000000 		.4byte	.LASF200
 8420 1585 01       		.byte	0x1
 8421 1586 C702     		.2byte	0x2c7
 8422 1588 4D000000 		.4byte	0x4d
 8423 158c 8E0A0000 		.4byte	.LLST15
 8424 1590 37       		.uleb128 0x37
 8425 1591 C8030000 		.4byte	.LVL67
 8426 1595 301A0000 		.4byte	0x1a30
 8427 1599 A4150000 		.4byte	0x15a4
 8428 159d 36       		.uleb128 0x36
 8429 159e 01       		.uleb128 0x1
 8430 159f 50       		.byte	0x50
 8431 15a0 02       		.uleb128 0x2
 8432 15a1 91       		.byte	0x91
 8433 15a2 6B       		.sleb128 -21
 8434 15a3 00       		.byte	0
 8435 15a4 37       		.uleb128 0x37
 8436 15a5 9E040000 		.4byte	.LVL98
 8437 15a9 1A1A0000 		.4byte	0x1a1a
 8438 15ad C4150000 		.4byte	0x15c4
 8439 15b1 36       		.uleb128 0x36
 8440 15b2 01       		.uleb128 0x1
 8441 15b3 50       		.byte	0x50
 8442 15b4 03       		.uleb128 0x3
 8443 15b5 0A       		.byte	0xa
 8444 15b6 D401     		.2byte	0x1d4
 8445 15b8 36       		.uleb128 0x36
 8446 15b9 01       		.uleb128 0x1
 8447 15ba 51       		.byte	0x51
 8448 15bb 01       		.uleb128 0x1
 8449 15bc 32       		.byte	0x32
 8450 15bd 36       		.uleb128 0x36
 8451 15be 01       		.uleb128 0x1
 8452 15bf 52       		.byte	0x52
 8453 15c0 02       		.uleb128 0x2
 8454 15c1 91       		.byte	0x91
 8455 15c2 6C       		.sleb128 -20
 8456 15c3 00       		.byte	0
 8457 15c4 37       		.uleb128 0x37
 8458 15c5 B0040000 		.4byte	.LVL99
 8459 15c9 1A1A0000 		.4byte	0x1a1a
 8460 15cd E4150000 		.4byte	0x15e4
 8461 15d1 36       		.uleb128 0x36
 8462 15d2 01       		.uleb128 0x1
 8463 15d3 50       		.byte	0x50
 8464 15d4 03       		.uleb128 0x3
 8465 15d5 0A       		.byte	0xa
 8466 15d6 2401     		.2byte	0x124
 8467 15d8 36       		.uleb128 0x36
 8468 15d9 01       		.uleb128 0x1
 8469 15da 51       		.byte	0x51
 8470 15db 01       		.uleb128 0x1
ARM GAS  /tmp/ccp3ezWO.s 			page 176


 8471 15dc 32       		.byte	0x32
 8472 15dd 36       		.uleb128 0x36
 8473 15de 01       		.uleb128 0x1
 8474 15df 52       		.byte	0x52
 8475 15e0 02       		.uleb128 0x2
 8476 15e1 91       		.byte	0x91
 8477 15e2 6E       		.sleb128 -18
 8478 15e3 00       		.byte	0
 8479 15e4 37       		.uleb128 0x37
 8480 15e5 C6040000 		.4byte	.LVL100
 8481 15e9 1A1A0000 		.4byte	0x1a1a
 8482 15ed 04160000 		.4byte	0x1604
 8483 15f1 36       		.uleb128 0x36
 8484 15f2 01       		.uleb128 0x1
 8485 15f3 50       		.byte	0x50
 8486 15f4 03       		.uleb128 0x3
 8487 15f5 0A       		.byte	0xa
 8488 15f6 D801     		.2byte	0x1d8
 8489 15f8 36       		.uleb128 0x36
 8490 15f9 01       		.uleb128 0x1
 8491 15fa 51       		.byte	0x51
 8492 15fb 01       		.uleb128 0x1
 8493 15fc 32       		.byte	0x32
 8494 15fd 36       		.uleb128 0x36
 8495 15fe 01       		.uleb128 0x1
 8496 15ff 52       		.byte	0x52
 8497 1600 02       		.uleb128 0x2
 8498 1601 91       		.byte	0x91
 8499 1602 6C       		.sleb128 -20
 8500 1603 00       		.byte	0
 8501 1604 37       		.uleb128 0x37
 8502 1605 D6040000 		.4byte	.LVL101
 8503 1609 1A1A0000 		.4byte	0x1a1a
 8504 160d 24160000 		.4byte	0x1624
 8505 1611 36       		.uleb128 0x36
 8506 1612 01       		.uleb128 0x1
 8507 1613 50       		.byte	0x50
 8508 1614 03       		.uleb128 0x3
 8509 1615 0A       		.byte	0xa
 8510 1616 2801     		.2byte	0x128
 8511 1618 36       		.uleb128 0x36
 8512 1619 01       		.uleb128 0x1
 8513 161a 51       		.byte	0x51
 8514 161b 01       		.uleb128 0x1
 8515 161c 32       		.byte	0x32
 8516 161d 36       		.uleb128 0x36
 8517 161e 01       		.uleb128 0x1
 8518 161f 52       		.byte	0x52
 8519 1620 02       		.uleb128 0x2
 8520 1621 91       		.byte	0x91
 8521 1622 6E       		.sleb128 -18
 8522 1623 00       		.byte	0
 8523 1624 37       		.uleb128 0x37
 8524 1625 EC040000 		.4byte	.LVL102
 8525 1629 1A1A0000 		.4byte	0x1a1a
 8526 162d 44160000 		.4byte	0x1644
 8527 1631 36       		.uleb128 0x36
ARM GAS  /tmp/ccp3ezWO.s 			page 177


 8528 1632 01       		.uleb128 0x1
 8529 1633 50       		.byte	0x50
 8530 1634 03       		.uleb128 0x3
 8531 1635 0A       		.byte	0xa
 8532 1636 DC01     		.2byte	0x1dc
 8533 1638 36       		.uleb128 0x36
 8534 1639 01       		.uleb128 0x1
 8535 163a 51       		.byte	0x51
 8536 163b 01       		.uleb128 0x1
 8537 163c 32       		.byte	0x32
 8538 163d 36       		.uleb128 0x36
 8539 163e 01       		.uleb128 0x1
 8540 163f 52       		.byte	0x52
 8541 1640 02       		.uleb128 0x2
 8542 1641 91       		.byte	0x91
 8543 1642 6C       		.sleb128 -20
 8544 1643 00       		.byte	0
 8545 1644 38       		.uleb128 0x38
 8546 1645 FC040000 		.4byte	.LVL103
 8547 1649 1A1A0000 		.4byte	0x1a1a
 8548 164d 36       		.uleb128 0x36
 8549 164e 01       		.uleb128 0x1
 8550 164f 50       		.byte	0x50
 8551 1650 03       		.uleb128 0x3
 8552 1651 0A       		.byte	0xa
 8553 1652 2C01     		.2byte	0x12c
 8554 1654 36       		.uleb128 0x36
 8555 1655 01       		.uleb128 0x1
 8556 1656 51       		.byte	0x51
 8557 1657 01       		.uleb128 0x1
 8558 1658 32       		.byte	0x32
 8559 1659 36       		.uleb128 0x36
 8560 165a 01       		.uleb128 0x1
 8561 165b 52       		.byte	0x52
 8562 165c 02       		.uleb128 0x2
 8563 165d 91       		.byte	0x91
 8564 165e 6E       		.sleb128 -18
 8565 165f 00       		.byte	0
 8566 1660 00       		.byte	0
 8567 1661 2A       		.uleb128 0x2a
 8568 1662 46040000 		.4byte	.LASF201
 8569 1666 0E       		.byte	0xe
 8570 1667 32       		.byte	0x32
 8571 1668 84000000 		.4byte	0x84
 8572 166c 8C030000 		.4byte	.LFB69
 8573 1670 10000000 		.4byte	.LFE69-.LFB69
 8574 1674 01       		.uleb128 0x1
 8575 1675 9C       		.byte	0x9c
 8576 1676 8B160000 		.4byte	0x168b
 8577 167a 2B       		.uleb128 0x2b
 8578 167b EB010000 		.4byte	.LASF202
 8579 167f 01       		.byte	0x1
 8580 1680 B702     		.2byte	0x2b7
 8581 1682 190F0000 		.4byte	0xf19
 8582 1686 C20A0000 		.4byte	.LLST10
 8583 168a 00       		.byte	0
 8584 168b 2A       		.uleb128 0x2a
ARM GAS  /tmp/ccp3ezWO.s 			page 178


 8585 168c D5050000 		.4byte	.LASF203
 8586 1690 0E       		.byte	0xe
 8587 1691 31       		.byte	0x31
 8588 1692 84000000 		.4byte	0x84
 8589 1696 20030000 		.4byte	.LFB68
 8590 169a 6C000000 		.4byte	.LFE68-.LFB68
 8591 169e 01       		.uleb128 0x1
 8592 169f 9C       		.byte	0x9c
 8593 16a0 1F170000 		.4byte	0x171f
 8594 16a4 2B       		.uleb128 0x2b
 8595 16a5 EB010000 		.4byte	.LASF202
 8596 16a9 01       		.byte	0x1
 8597 16aa 9D02     		.2byte	0x29d
 8598 16ac 4D000000 		.4byte	0x4d
 8599 16b0 E30A0000 		.4byte	.LLST8
 8600 16b4 2C       		.uleb128 0x2c
 8601 16b5 C7090000 		.4byte	.LASF204
 8602 16b9 01       		.byte	0x1
 8603 16ba 9F02     		.2byte	0x29f
 8604 16bc 2F170000 		.4byte	0x172f
 8605 16c0 02       		.uleb128 0x2
 8606 16c1 91       		.byte	0x91
 8607 16c2 6C       		.sleb128 -20
 8608 16c3 2D       		.uleb128 0x2d
 8609 16c4 64697600 		.ascii	"div\000"
 8610 16c8 01       		.byte	0x1
 8611 16c9 A102     		.2byte	0x2a1
 8612 16cb 4D000000 		.4byte	0x4d
 8613 16cf 040B0000 		.4byte	.LLST9
 8614 16d3 29       		.uleb128 0x29
 8615 16d4 746D7000 		.ascii	"tmp\000"
 8616 16d8 01       		.byte	0x1
 8617 16d9 A202     		.2byte	0x2a2
 8618 16db 34170000 		.4byte	0x1734
 8619 16df 02       		.uleb128 0x2
 8620 16e0 91       		.byte	0x91
 8621 16e1 64       		.sleb128 -28
 8622 16e2 37       		.uleb128 0x37
 8623 16e3 56030000 		.4byte	.LVL55
 8624 16e7 1A1A0000 		.4byte	0x1a1a
 8625 16eb 02170000 		.4byte	0x1702
 8626 16ef 36       		.uleb128 0x36
 8627 16f0 01       		.uleb128 0x1
 8628 16f1 50       		.byte	0x50
 8629 16f2 03       		.uleb128 0x3
 8630 16f3 0A       		.byte	0xa
 8631 16f4 1602     		.2byte	0x216
 8632 16f6 36       		.uleb128 0x36
 8633 16f7 01       		.uleb128 0x1
 8634 16f8 51       		.byte	0x51
 8635 16f9 01       		.uleb128 0x1
 8636 16fa 32       		.byte	0x32
 8637 16fb 36       		.uleb128 0x36
 8638 16fc 01       		.uleb128 0x1
 8639 16fd 52       		.byte	0x52
 8640 16fe 02       		.uleb128 0x2
 8641 16ff 91       		.byte	0x91
ARM GAS  /tmp/ccp3ezWO.s 			page 179


 8642 1700 64       		.sleb128 -28
 8643 1701 00       		.byte	0
 8644 1702 38       		.uleb128 0x38
 8645 1703 64030000 		.4byte	.LVL56
 8646 1707 1A1A0000 		.4byte	0x1a1a
 8647 170b 36       		.uleb128 0x36
 8648 170c 01       		.uleb128 0x1
 8649 170d 50       		.byte	0x50
 8650 170e 03       		.uleb128 0x3
 8651 170f 0A       		.byte	0xa
 8652 1710 C10A     		.2byte	0xac1
 8653 1712 36       		.uleb128 0x36
 8654 1713 01       		.uleb128 0x1
 8655 1714 51       		.byte	0x51
 8656 1715 01       		.uleb128 0x1
 8657 1716 3C       		.byte	0x3c
 8658 1717 36       		.uleb128 0x36
 8659 1718 01       		.uleb128 0x1
 8660 1719 52       		.byte	0x52
 8661 171a 02       		.uleb128 0x2
 8662 171b 91       		.byte	0x91
 8663 171c 6C       		.sleb128 -20
 8664 171d 00       		.byte	0
 8665 171e 00       		.byte	0
 8666 171f 0B       		.uleb128 0xb
 8667 1720 41000000 		.4byte	0x41
 8668 1724 2F170000 		.4byte	0x172f
 8669 1728 0C       		.uleb128 0xc
 8670 1729 A6000000 		.4byte	0xa6
 8671 172d 0B       		.byte	0xb
 8672 172e 00       		.byte	0
 8673 172f 03       		.uleb128 0x3
 8674 1730 1F170000 		.4byte	0x171f
 8675 1734 0B       		.uleb128 0xb
 8676 1735 3A000000 		.4byte	0x3a
 8677 1739 44170000 		.4byte	0x1744
 8678 173d 0C       		.uleb128 0xc
 8679 173e A6000000 		.4byte	0xa6
 8680 1742 07       		.byte	0x7
 8681 1743 00       		.byte	0
 8682 1744 2A       		.uleb128 0x2a
 8683 1745 40020000 		.4byte	.LASF205
 8684 1749 0E       		.byte	0xe
 8685 174a 38       		.byte	0x38
 8686 174b 84000000 		.4byte	0x84
 8687 174f 34020000 		.4byte	.LFB67
 8688 1753 EC000000 		.4byte	.LFE67-.LFB67
 8689 1757 01       		.uleb128 0x1
 8690 1758 9C       		.byte	0x9c
 8691 1759 DC170000 		.4byte	0x17dc
 8692 175d 2B       		.uleb128 0x2b
 8693 175e 6E070000 		.4byte	.LASF206
 8694 1762 01       		.byte	0x1
 8695 1763 6902     		.2byte	0x269
 8696 1765 6E0C0000 		.4byte	0xc6e
 8697 1769 3B0B0000 		.4byte	.LLST5
 8698 176d 2F       		.uleb128 0x2f
ARM GAS  /tmp/ccp3ezWO.s 			page 180


 8699 176e C7080000 		.4byte	.LASF207
 8700 1772 01       		.byte	0x1
 8701 1773 6B02     		.2byte	0x26b
 8702 1775 DC170000 		.4byte	0x17dc
 8703 1779 670B0000 		.4byte	.LLST6
 8704 177d 2C       		.uleb128 0x2c
 8705 177e 23080000 		.4byte	.LASF173
 8706 1782 01       		.byte	0x1
 8707 1783 6C02     		.2byte	0x26c
 8708 1785 EC170000 		.4byte	0x17ec
 8709 1789 02       		.uleb128 0x2
 8710 178a 91       		.byte	0x91
 8711 178b 5C       		.sleb128 -36
 8712 178c 2F       		.uleb128 0x2f
 8713 178d 24000000 		.4byte	.LASF208
 8714 1791 01       		.byte	0x1
 8715 1792 6D02     		.2byte	0x26d
 8716 1794 7D000000 		.4byte	0x7d
 8717 1798 3E0D0000 		.4byte	.LLST7
 8718 179c 2C       		.uleb128 0x2c
 8719 179d 69060000 		.4byte	.LASF209
 8720 17a1 01       		.byte	0x1
 8721 17a2 6E02     		.2byte	0x26e
 8722 17a4 4D000000 		.4byte	0x4d
 8723 17a8 02       		.uleb128 0x2
 8724 17a9 91       		.byte	0x91
 8725 17aa 5A       		.sleb128 -38
 8726 17ab 37       		.uleb128 0x37
 8727 17ac 44020000 		.4byte	.LVL31
 8728 17b0 3B1A0000 		.4byte	0x1a3b
 8729 17b4 BF170000 		.4byte	0x17bf
 8730 17b8 36       		.uleb128 0x36
 8731 17b9 01       		.uleb128 0x1
 8732 17ba 50       		.byte	0x50
 8733 17bb 02       		.uleb128 0x2
 8734 17bc 91       		.byte	0x91
 8735 17bd 5A       		.sleb128 -38
 8736 17be 00       		.byte	0
 8737 17bf 38       		.uleb128 0x38
 8738 17c0 16030000 		.4byte	.LVL50
 8739 17c4 1A1A0000 		.4byte	0x1a1a
 8740 17c8 36       		.uleb128 0x36
 8741 17c9 01       		.uleb128 0x1
 8742 17ca 50       		.byte	0x50
 8743 17cb 03       		.uleb128 0x3
 8744 17cc 0A       		.byte	0xa
 8745 17cd 9402     		.2byte	0x294
 8746 17cf 36       		.uleb128 0x36
 8747 17d0 01       		.uleb128 0x1
 8748 17d1 51       		.byte	0x51
 8749 17d2 01       		.uleb128 0x1
 8750 17d3 3C       		.byte	0x3c
 8751 17d4 36       		.uleb128 0x36
 8752 17d5 01       		.uleb128 0x1
 8753 17d6 52       		.byte	0x52
 8754 17d7 02       		.uleb128 0x2
 8755 17d8 91       		.byte	0x91
ARM GAS  /tmp/ccp3ezWO.s 			page 181


 8756 17d9 5C       		.sleb128 -36
 8757 17da 00       		.byte	0
 8758 17db 00       		.byte	0
 8759 17dc 0B       		.uleb128 0xb
 8760 17dd 64000000 		.4byte	0x64
 8761 17e1 EC170000 		.4byte	0x17ec
 8762 17e5 0C       		.uleb128 0xc
 8763 17e6 A6000000 		.4byte	0xa6
 8764 17ea 02       		.byte	0x2
 8765 17eb 00       		.byte	0
 8766 17ec 0B       		.uleb128 0xb
 8767 17ed 3A000000 		.4byte	0x3a
 8768 17f1 FC170000 		.4byte	0x17fc
 8769 17f5 0C       		.uleb128 0xc
 8770 17f6 A6000000 		.4byte	0xa6
 8771 17fa 0B       		.byte	0xb
 8772 17fb 00       		.byte	0
 8773 17fc 2A       		.uleb128 0x2a
 8774 17fd EB080000 		.4byte	.LASF210
 8775 1801 0E       		.byte	0xe
 8776 1802 37       		.byte	0x37
 8777 1803 84000000 		.4byte	0x84
 8778 1807 48010000 		.4byte	.LFB66
 8779 180b EC000000 		.4byte	.LFE66-.LFB66
 8780 180f 01       		.uleb128 0x1
 8781 1810 9C       		.byte	0x9c
 8782 1811 A1180000 		.4byte	0x18a1
 8783 1815 2B       		.uleb128 0x2b
 8784 1816 6E070000 		.4byte	.LASF206
 8785 181a 01       		.byte	0x1
 8786 181b 3502     		.2byte	0x235
 8787 181d 6E0C0000 		.4byte	0xc6e
 8788 1821 560D0000 		.4byte	.LLST3
 8789 1825 2F       		.uleb128 0x2f
 8790 1826 78030000 		.4byte	.LASF211
 8791 182a 01       		.byte	0x1
 8792 182b 3702     		.2byte	0x237
 8793 182d DC170000 		.4byte	0x17dc
 8794 1831 770D0000 		.4byte	.LLST4
 8795 1835 2C       		.uleb128 0x2c
 8796 1836 23080000 		.4byte	.LASF173
 8797 183a 01       		.byte	0x1
 8798 183b 3802     		.2byte	0x238
 8799 183d 9C010000 		.4byte	0x19c
 8800 1841 02       		.uleb128 0x2
 8801 1842 91       		.byte	0x91
 8802 1843 64       		.sleb128 -28
 8803 1844 37       		.uleb128 0x37
 8804 1845 D4010000 		.4byte	.LVL25
 8805 1849 1A1A0000 		.4byte	0x1a1a
 8806 184d 64180000 		.4byte	0x1864
 8807 1851 36       		.uleb128 0x36
 8808 1852 01       		.uleb128 0x1
 8809 1853 50       		.byte	0x50
 8810 1854 03       		.uleb128 0x3
 8811 1855 0A       		.byte	0xa
 8812 1856 D003     		.2byte	0x3d0
ARM GAS  /tmp/ccp3ezWO.s 			page 182


 8813 1858 36       		.uleb128 0x36
 8814 1859 01       		.uleb128 0x1
 8815 185a 51       		.byte	0x51
 8816 185b 01       		.uleb128 0x1
 8817 185c 34       		.byte	0x34
 8818 185d 36       		.uleb128 0x36
 8819 185e 01       		.uleb128 0x1
 8820 185f 52       		.byte	0x52
 8821 1860 02       		.uleb128 0x2
 8822 1861 91       		.byte	0x91
 8823 1862 64       		.sleb128 -28
 8824 1863 00       		.byte	0
 8825 1864 37       		.uleb128 0x37
 8826 1865 F8010000 		.4byte	.LVL26
 8827 1869 1A1A0000 		.4byte	0x1a1a
 8828 186d 84180000 		.4byte	0x1884
 8829 1871 36       		.uleb128 0x36
 8830 1872 01       		.uleb128 0x1
 8831 1873 50       		.byte	0x50
 8832 1874 03       		.uleb128 0x3
 8833 1875 0A       		.byte	0xa
 8834 1876 D403     		.2byte	0x3d4
 8835 1878 36       		.uleb128 0x36
 8836 1879 01       		.uleb128 0x1
 8837 187a 51       		.byte	0x51
 8838 187b 01       		.uleb128 0x1
 8839 187c 34       		.byte	0x34
 8840 187d 36       		.uleb128 0x36
 8841 187e 01       		.uleb128 0x1
 8842 187f 52       		.byte	0x52
 8843 1880 02       		.uleb128 0x2
 8844 1881 91       		.byte	0x91
 8845 1882 64       		.sleb128 -28
 8846 1883 00       		.byte	0
 8847 1884 38       		.uleb128 0x38
 8848 1885 1C020000 		.4byte	.LVL27
 8849 1889 1A1A0000 		.4byte	0x1a1a
 8850 188d 36       		.uleb128 0x36
 8851 188e 01       		.uleb128 0x1
 8852 188f 50       		.byte	0x50
 8853 1890 03       		.uleb128 0x3
 8854 1891 0A       		.byte	0xa
 8855 1892 D803     		.2byte	0x3d8
 8856 1894 36       		.uleb128 0x36
 8857 1895 01       		.uleb128 0x1
 8858 1896 51       		.byte	0x51
 8859 1897 01       		.uleb128 0x1
 8860 1898 34       		.byte	0x34
 8861 1899 36       		.uleb128 0x36
 8862 189a 01       		.uleb128 0x1
 8863 189b 52       		.byte	0x52
 8864 189c 02       		.uleb128 0x2
 8865 189d 91       		.byte	0x91
 8866 189e 64       		.sleb128 -28
 8867 189f 00       		.byte	0
 8868 18a0 00       		.byte	0
 8869 18a1 2A       		.uleb128 0x2a
ARM GAS  /tmp/ccp3ezWO.s 			page 183


 8870 18a2 DD090000 		.4byte	.LASF212
 8871 18a6 0E       		.byte	0xe
 8872 18a7 36       		.byte	0x36
 8873 18a8 84000000 		.4byte	0x84
 8874 18ac 18000000 		.4byte	.LFB65
 8875 18b0 30010000 		.4byte	.LFE65-.LFB65
 8876 18b4 01       		.uleb128 0x1
 8877 18b5 9C       		.byte	0x9c
 8878 18b6 A3190000 		.4byte	0x19a3
 8879 18ba 2B       		.uleb128 0x2b
 8880 18bb 12080000 		.4byte	.LASF149
 8881 18bf 01       		.byte	0x1
 8882 18c0 FE01     		.2byte	0x1fe
 8883 18c2 4D000000 		.4byte	0x4d
 8884 18c6 CE0E0000 		.4byte	.LLST0
 8885 18ca 2C       		.uleb128 0x2c
 8886 18cb 81080000 		.4byte	.LASF213
 8887 18cf 01       		.byte	0x1
 8888 18d0 0002     		.2byte	0x200
 8889 18d2 A9060000 		.4byte	0x6a9
 8890 18d6 02       		.uleb128 0x2
 8891 18d7 91       		.byte	0x91
 8892 18d8 74       		.sleb128 -12
 8893 18d9 2C       		.uleb128 0x2c
 8894 18da 0A090000 		.4byte	.LASF214
 8895 18de 01       		.byte	0x1
 8896 18df 0002     		.2byte	0x200
 8897 18e1 A9060000 		.4byte	0x6a9
 8898 18e5 02       		.uleb128 0x2
 8899 18e6 91       		.byte	0x91
 8900 18e7 70       		.sleb128 -16
 8901 18e8 2C       		.uleb128 0x2c
 8902 18e9 860A0000 		.4byte	.LASF215
 8903 18ed 01       		.byte	0x1
 8904 18ee 0102     		.2byte	0x201
 8905 18f0 B3190000 		.4byte	0x19b3
 8906 18f4 02       		.uleb128 0x2
 8907 18f5 91       		.byte	0x91
 8908 18f6 6C       		.sleb128 -20
 8909 18f7 2C       		.uleb128 0x2c
 8910 18f8 FA0A0000 		.4byte	.LASF216
 8911 18fc 01       		.byte	0x1
 8912 18fd 0202     		.2byte	0x202
 8913 18ff B3190000 		.4byte	0x19b3
 8914 1903 02       		.uleb128 0x2
 8915 1904 91       		.byte	0x91
 8916 1905 68       		.sleb128 -24
 8917 1906 2F       		.uleb128 0x2f
 8918 1907 15030000 		.4byte	.LASF217
 8919 190b 01       		.byte	0x1
 8920 190c 0302     		.2byte	0x203
 8921 190e B3190000 		.4byte	0x19b3
 8922 1912 EF0E0000 		.4byte	.LLST1
 8923 1916 2F       		.uleb128 0x2f
 8924 1917 A90A0000 		.4byte	.LASF218
 8925 191b 01       		.byte	0x1
 8926 191c 0402     		.2byte	0x204
ARM GAS  /tmp/ccp3ezWO.s 			page 184


 8927 191e B3190000 		.4byte	0x19b3
 8928 1922 290F0000 		.4byte	.LLST2
 8929 1926 37       		.uleb128 0x37
 8930 1927 96000000 		.4byte	.LVL4
 8931 192b 1A1A0000 		.4byte	0x1a1a
 8932 192f 46190000 		.4byte	0x1946
 8933 1933 36       		.uleb128 0x36
 8934 1934 01       		.uleb128 0x1
 8935 1935 50       		.byte	0x50
 8936 1936 03       		.uleb128 0x3
 8937 1937 0A       		.byte	0xa
 8938 1938 2604     		.2byte	0x426
 8939 193a 36       		.uleb128 0x36
 8940 193b 01       		.uleb128 0x1
 8941 193c 51       		.byte	0x51
 8942 193d 01       		.uleb128 0x1
 8943 193e 33       		.byte	0x33
 8944 193f 36       		.uleb128 0x36
 8945 1940 01       		.uleb128 0x1
 8946 1941 52       		.byte	0x52
 8947 1942 02       		.uleb128 0x2
 8948 1943 91       		.byte	0x91
 8949 1944 74       		.sleb128 -12
 8950 1945 00       		.byte	0
 8951 1946 37       		.uleb128 0x37
 8952 1947 A6000000 		.4byte	.LVL5
 8953 194b 1A1A0000 		.4byte	0x1a1a
 8954 194f 66190000 		.4byte	0x1966
 8955 1953 36       		.uleb128 0x36
 8956 1954 01       		.uleb128 0x1
 8957 1955 50       		.byte	0x50
 8958 1956 03       		.uleb128 0x3
 8959 1957 0A       		.byte	0xa
 8960 1958 2A04     		.2byte	0x42a
 8961 195a 36       		.uleb128 0x36
 8962 195b 01       		.uleb128 0x1
 8963 195c 51       		.byte	0x51
 8964 195d 01       		.uleb128 0x1
 8965 195e 33       		.byte	0x33
 8966 195f 36       		.uleb128 0x36
 8967 1960 01       		.uleb128 0x1
 8968 1961 52       		.byte	0x52
 8969 1962 02       		.uleb128 0x2
 8970 1963 91       		.byte	0x91
 8971 1964 70       		.sleb128 -16
 8972 1965 00       		.byte	0
 8973 1966 37       		.uleb128 0x37
 8974 1967 10010000 		.4byte	.LVL6
 8975 196b 1A1A0000 		.4byte	0x1a1a
 8976 196f 86190000 		.4byte	0x1986
 8977 1973 36       		.uleb128 0x36
 8978 1974 01       		.uleb128 0x1
 8979 1975 50       		.byte	0x50
 8980 1976 03       		.uleb128 0x3
 8981 1977 0A       		.byte	0xa
 8982 1978 4004     		.2byte	0x440
 8983 197a 36       		.uleb128 0x36
ARM GAS  /tmp/ccp3ezWO.s 			page 185


 8984 197b 01       		.uleb128 0x1
 8985 197c 51       		.byte	0x51
 8986 197d 01       		.uleb128 0x1
 8987 197e 33       		.byte	0x33
 8988 197f 36       		.uleb128 0x36
 8989 1980 01       		.uleb128 0x1
 8990 1981 52       		.byte	0x52
 8991 1982 02       		.uleb128 0x2
 8992 1983 91       		.byte	0x91
 8993 1984 74       		.sleb128 -12
 8994 1985 00       		.byte	0
 8995 1986 38       		.uleb128 0x38
 8996 1987 1E010000 		.4byte	.LVL7
 8997 198b 1A1A0000 		.4byte	0x1a1a
 8998 198f 36       		.uleb128 0x36
 8999 1990 01       		.uleb128 0x1
 9000 1991 50       		.byte	0x50
 9001 1992 03       		.uleb128 0x3
 9002 1993 0A       		.byte	0xa
 9003 1994 3104     		.2byte	0x431
 9004 1996 36       		.uleb128 0x36
 9005 1997 01       		.uleb128 0x1
 9006 1998 51       		.byte	0x51
 9007 1999 01       		.uleb128 0x1
 9008 199a 33       		.byte	0x33
 9009 199b 36       		.uleb128 0x36
 9010 199c 01       		.uleb128 0x1
 9011 199d 52       		.byte	0x52
 9012 199e 02       		.uleb128 0x2
 9013 199f 91       		.byte	0x91
 9014 19a0 70       		.sleb128 -16
 9015 19a1 00       		.byte	0
 9016 19a2 00       		.byte	0
 9017 19a3 0B       		.uleb128 0xb
 9018 19a4 41000000 		.4byte	0x41
 9019 19a8 B3190000 		.4byte	0x19b3
 9020 19ac 0C       		.uleb128 0xc
 9021 19ad A6000000 		.4byte	0xa6
 9022 19b1 02       		.byte	0x2
 9023 19b2 00       		.byte	0
 9024 19b3 03       		.uleb128 0x3
 9025 19b4 A3190000 		.4byte	0x19a3
 9026 19b8 2A       		.uleb128 0x2a
 9027 19b9 AA000000 		.4byte	.LASF219
 9028 19bd 0E       		.byte	0xe
 9029 19be 30       		.byte	0x30
 9030 19bf 84000000 		.4byte	0x84
 9031 19c3 00000000 		.4byte	.LFB64
 9032 19c7 18000000 		.4byte	.LFE64-.LFB64
 9033 19cb 01       		.uleb128 0x1
 9034 19cc 9C       		.byte	0x9c
 9035 19cd F9190000 		.4byte	0x19f9
 9036 19d1 38       		.uleb128 0x38
 9037 19d2 12000000 		.4byte	.LVL0
 9038 19d6 461A0000 		.4byte	0x1a46
 9039 19da 36       		.uleb128 0x36
 9040 19db 01       		.uleb128 0x1
ARM GAS  /tmp/ccp3ezWO.s 			page 186


 9041 19dc 50       		.byte	0x50
 9042 19dd 03       		.uleb128 0x3
 9043 19de 0A       		.byte	0xa
 9044 19df F60B     		.2byte	0xbf6
 9045 19e1 36       		.uleb128 0x36
 9046 19e2 01       		.uleb128 0x1
 9047 19e3 51       		.byte	0x51
 9048 19e4 05       		.uleb128 0x5
 9049 19e5 03       		.byte	0x3
 9050 19e6 00000000 		.4byte	.LANCHOR0
 9051 19ea 36       		.uleb128 0x36
 9052 19eb 01       		.uleb128 0x1
 9053 19ec 52       		.byte	0x52
 9054 19ed 03       		.uleb128 0x3
 9055 19ee 0A       		.byte	0xa
 9056 19ef 0004     		.2byte	0x400
 9057 19f1 36       		.uleb128 0x36
 9058 19f2 01       		.uleb128 0x1
 9059 19f3 53       		.byte	0x53
 9060 19f4 02       		.uleb128 0x2
 9061 19f5 08       		.byte	0x8
 9062 19f6 C8       		.byte	0xc8
 9063 19f7 00       		.byte	0
 9064 19f8 00       		.byte	0
 9065 19f9 40       		.uleb128 0x40
 9066 19fa 74060000 		.4byte	.LASF220
 9067 19fe 74060000 		.4byte	.LASF220
 9068 1a02 0F       		.byte	0xf
 9069 1a03 6B       		.byte	0x6b
 9070 1a04 40       		.uleb128 0x40
 9071 1a05 A0040000 		.4byte	.LASF221
 9072 1a09 A0040000 		.4byte	.LASF221
 9073 1a0d 0F       		.byte	0xf
 9074 1a0e 69       		.byte	0x69
 9075 1a0f 40       		.uleb128 0x40
 9076 1a10 3C080000 		.4byte	.LASF222
 9077 1a14 3C080000 		.4byte	.LASF222
 9078 1a18 0F       		.byte	0xf
 9079 1a19 78       		.byte	0x78
 9080 1a1a 40       		.uleb128 0x40
 9081 1a1b 2D040000 		.4byte	.LASF223
 9082 1a1f 2D040000 		.4byte	.LASF223
 9083 1a23 0F       		.byte	0xf
 9084 1a24 6D       		.byte	0x6d
 9085 1a25 40       		.uleb128 0x40
 9086 1a26 65030000 		.4byte	.LASF224
 9087 1a2a 65030000 		.4byte	.LASF224
 9088 1a2e 0F       		.byte	0xf
 9089 1a2f 6F       		.byte	0x6f
 9090 1a30 40       		.uleb128 0x40
 9091 1a31 FF030000 		.4byte	.LASF225
 9092 1a35 FF030000 		.4byte	.LASF225
 9093 1a39 0F       		.byte	0xf
 9094 1a3a 4B       		.byte	0x4b
 9095 1a3b 40       		.uleb128 0x40
 9096 1a3c C6070000 		.4byte	.LASF226
 9097 1a40 C6070000 		.4byte	.LASF226
ARM GAS  /tmp/ccp3ezWO.s 			page 187


 9098 1a44 0F       		.byte	0xf
 9099 1a45 51       		.byte	0x51
 9100 1a46 40       		.uleb128 0x40
 9101 1a47 AA070000 		.4byte	.LASF227
 9102 1a4b AA070000 		.4byte	.LASF227
 9103 1a4f 0F       		.byte	0xf
 9104 1a50 71       		.byte	0x71
 9105 1a51 00       		.byte	0
 9106              		.section	.debug_abbrev,"",%progbits
 9107              	.Ldebug_abbrev0:
 9108 0000 01       		.uleb128 0x1
 9109 0001 11       		.uleb128 0x11
 9110 0002 01       		.byte	0x1
 9111 0003 25       		.uleb128 0x25
 9112 0004 0E       		.uleb128 0xe
 9113 0005 13       		.uleb128 0x13
 9114 0006 0B       		.uleb128 0xb
 9115 0007 03       		.uleb128 0x3
 9116 0008 0E       		.uleb128 0xe
 9117 0009 1B       		.uleb128 0x1b
 9118 000a 0E       		.uleb128 0xe
 9119 000b 11       		.uleb128 0x11
 9120 000c 01       		.uleb128 0x1
 9121 000d 12       		.uleb128 0x12
 9122 000e 06       		.uleb128 0x6
 9123 000f 10       		.uleb128 0x10
 9124 0010 17       		.uleb128 0x17
 9125 0011 00       		.byte	0
 9126 0012 00       		.byte	0
 9127 0013 02       		.uleb128 0x2
 9128 0014 24       		.uleb128 0x24
 9129 0015 00       		.byte	0
 9130 0016 0B       		.uleb128 0xb
 9131 0017 0B       		.uleb128 0xb
 9132 0018 3E       		.uleb128 0x3e
 9133 0019 0B       		.uleb128 0xb
 9134 001a 03       		.uleb128 0x3
 9135 001b 0E       		.uleb128 0xe
 9136 001c 00       		.byte	0
 9137 001d 00       		.byte	0
 9138 001e 03       		.uleb128 0x3
 9139 001f 26       		.uleb128 0x26
 9140 0020 00       		.byte	0
 9141 0021 49       		.uleb128 0x49
 9142 0022 13       		.uleb128 0x13
 9143 0023 00       		.byte	0
 9144 0024 00       		.byte	0
 9145 0025 04       		.uleb128 0x4
 9146 0026 16       		.uleb128 0x16
 9147 0027 00       		.byte	0
 9148 0028 03       		.uleb128 0x3
 9149 0029 0E       		.uleb128 0xe
 9150 002a 3A       		.uleb128 0x3a
 9151 002b 0B       		.uleb128 0xb
 9152 002c 3B       		.uleb128 0x3b
 9153 002d 0B       		.uleb128 0xb
 9154 002e 49       		.uleb128 0x49
ARM GAS  /tmp/ccp3ezWO.s 			page 188


 9155 002f 13       		.uleb128 0x13
 9156 0030 00       		.byte	0
 9157 0031 00       		.byte	0
 9158 0032 05       		.uleb128 0x5
 9159 0033 24       		.uleb128 0x24
 9160 0034 00       		.byte	0
 9161 0035 0B       		.uleb128 0xb
 9162 0036 0B       		.uleb128 0xb
 9163 0037 3E       		.uleb128 0x3e
 9164 0038 0B       		.uleb128 0xb
 9165 0039 03       		.uleb128 0x3
 9166 003a 08       		.uleb128 0x8
 9167 003b 00       		.byte	0
 9168 003c 00       		.byte	0
 9169 003d 06       		.uleb128 0x6
 9170 003e 35       		.uleb128 0x35
 9171 003f 00       		.byte	0
 9172 0040 49       		.uleb128 0x49
 9173 0041 13       		.uleb128 0x13
 9174 0042 00       		.byte	0
 9175 0043 00       		.byte	0
 9176 0044 07       		.uleb128 0x7
 9177 0045 34       		.uleb128 0x34
 9178 0046 00       		.byte	0
 9179 0047 03       		.uleb128 0x3
 9180 0048 0E       		.uleb128 0xe
 9181 0049 3A       		.uleb128 0x3a
 9182 004a 0B       		.uleb128 0xb
 9183 004b 3B       		.uleb128 0x3b
 9184 004c 05       		.uleb128 0x5
 9185 004d 49       		.uleb128 0x49
 9186 004e 13       		.uleb128 0x13
 9187 004f 3F       		.uleb128 0x3f
 9188 0050 19       		.uleb128 0x19
 9189 0051 3C       		.uleb128 0x3c
 9190 0052 19       		.uleb128 0x19
 9191 0053 00       		.byte	0
 9192 0054 00       		.byte	0
 9193 0055 08       		.uleb128 0x8
 9194 0056 34       		.uleb128 0x34
 9195 0057 00       		.byte	0
 9196 0058 03       		.uleb128 0x3
 9197 0059 0E       		.uleb128 0xe
 9198 005a 3A       		.uleb128 0x3a
 9199 005b 0B       		.uleb128 0xb
 9200 005c 3B       		.uleb128 0x3b
 9201 005d 0B       		.uleb128 0xb
 9202 005e 49       		.uleb128 0x49
 9203 005f 13       		.uleb128 0x13
 9204 0060 3F       		.uleb128 0x3f
 9205 0061 19       		.uleb128 0x19
 9206 0062 3C       		.uleb128 0x3c
 9207 0063 19       		.uleb128 0x19
 9208 0064 00       		.byte	0
 9209 0065 00       		.byte	0
 9210 0066 09       		.uleb128 0x9
 9211 0067 15       		.uleb128 0x15
ARM GAS  /tmp/ccp3ezWO.s 			page 189


 9212 0068 00       		.byte	0
 9213 0069 27       		.uleb128 0x27
 9214 006a 19       		.uleb128 0x19
 9215 006b 00       		.byte	0
 9216 006c 00       		.byte	0
 9217 006d 0A       		.uleb128 0xa
 9218 006e 0F       		.uleb128 0xf
 9219 006f 00       		.byte	0
 9220 0070 0B       		.uleb128 0xb
 9221 0071 0B       		.uleb128 0xb
 9222 0072 49       		.uleb128 0x49
 9223 0073 13       		.uleb128 0x13
 9224 0074 00       		.byte	0
 9225 0075 00       		.byte	0
 9226 0076 0B       		.uleb128 0xb
 9227 0077 01       		.uleb128 0x1
 9228 0078 01       		.byte	0x1
 9229 0079 49       		.uleb128 0x49
 9230 007a 13       		.uleb128 0x13
 9231 007b 01       		.uleb128 0x1
 9232 007c 13       		.uleb128 0x13
 9233 007d 00       		.byte	0
 9234 007e 00       		.byte	0
 9235 007f 0C       		.uleb128 0xc
 9236 0080 21       		.uleb128 0x21
 9237 0081 00       		.byte	0
 9238 0082 49       		.uleb128 0x49
 9239 0083 13       		.uleb128 0x13
 9240 0084 2F       		.uleb128 0x2f
 9241 0085 0B       		.uleb128 0xb
 9242 0086 00       		.byte	0
 9243 0087 00       		.byte	0
 9244 0088 0D       		.uleb128 0xd
 9245 0089 34       		.uleb128 0x34
 9246 008a 00       		.byte	0
 9247 008b 03       		.uleb128 0x3
 9248 008c 08       		.uleb128 0x8
 9249 008d 3A       		.uleb128 0x3a
 9250 008e 0B       		.uleb128 0xb
 9251 008f 3B       		.uleb128 0x3b
 9252 0090 05       		.uleb128 0x5
 9253 0091 49       		.uleb128 0x49
 9254 0092 13       		.uleb128 0x13
 9255 0093 3F       		.uleb128 0x3f
 9256 0094 19       		.uleb128 0x19
 9257 0095 3C       		.uleb128 0x3c
 9258 0096 19       		.uleb128 0x19
 9259 0097 00       		.byte	0
 9260 0098 00       		.byte	0
 9261 0099 0E       		.uleb128 0xe
 9262 009a 0F       		.uleb128 0xf
 9263 009b 00       		.byte	0
 9264 009c 0B       		.uleb128 0xb
 9265 009d 0B       		.uleb128 0xb
 9266 009e 00       		.byte	0
 9267 009f 00       		.byte	0
 9268 00a0 0F       		.uleb128 0xf
ARM GAS  /tmp/ccp3ezWO.s 			page 190


 9269 00a1 16       		.uleb128 0x16
 9270 00a2 00       		.byte	0
 9271 00a3 03       		.uleb128 0x3
 9272 00a4 0E       		.uleb128 0xe
 9273 00a5 3A       		.uleb128 0x3a
 9274 00a6 0B       		.uleb128 0xb
 9275 00a7 3B       		.uleb128 0x3b
 9276 00a8 05       		.uleb128 0x5
 9277 00a9 49       		.uleb128 0x49
 9278 00aa 13       		.uleb128 0x13
 9279 00ab 00       		.byte	0
 9280 00ac 00       		.byte	0
 9281 00ad 10       		.uleb128 0x10
 9282 00ae 17       		.uleb128 0x17
 9283 00af 01       		.byte	0x1
 9284 00b0 0B       		.uleb128 0xb
 9285 00b1 0B       		.uleb128 0xb
 9286 00b2 3A       		.uleb128 0x3a
 9287 00b3 0B       		.uleb128 0xb
 9288 00b4 3B       		.uleb128 0x3b
 9289 00b5 0B       		.uleb128 0xb
 9290 00b6 01       		.uleb128 0x1
 9291 00b7 13       		.uleb128 0x13
 9292 00b8 00       		.byte	0
 9293 00b9 00       		.byte	0
 9294 00ba 11       		.uleb128 0x11
 9295 00bb 0D       		.uleb128 0xd
 9296 00bc 00       		.byte	0
 9297 00bd 03       		.uleb128 0x3
 9298 00be 0E       		.uleb128 0xe
 9299 00bf 3A       		.uleb128 0x3a
 9300 00c0 0B       		.uleb128 0xb
 9301 00c1 3B       		.uleb128 0x3b
 9302 00c2 0B       		.uleb128 0xb
 9303 00c3 49       		.uleb128 0x49
 9304 00c4 13       		.uleb128 0x13
 9305 00c5 00       		.byte	0
 9306 00c6 00       		.byte	0
 9307 00c7 12       		.uleb128 0x12
 9308 00c8 13       		.uleb128 0x13
 9309 00c9 01       		.byte	0x1
 9310 00ca 0B       		.uleb128 0xb
 9311 00cb 0B       		.uleb128 0xb
 9312 00cc 3A       		.uleb128 0x3a
 9313 00cd 0B       		.uleb128 0xb
 9314 00ce 3B       		.uleb128 0x3b
 9315 00cf 0B       		.uleb128 0xb
 9316 00d0 01       		.uleb128 0x1
 9317 00d1 13       		.uleb128 0x13
 9318 00d2 00       		.byte	0
 9319 00d3 00       		.byte	0
 9320 00d4 13       		.uleb128 0x13
 9321 00d5 0D       		.uleb128 0xd
 9322 00d6 00       		.byte	0
 9323 00d7 03       		.uleb128 0x3
 9324 00d8 0E       		.uleb128 0xe
 9325 00d9 3A       		.uleb128 0x3a
ARM GAS  /tmp/ccp3ezWO.s 			page 191


 9326 00da 0B       		.uleb128 0xb
 9327 00db 3B       		.uleb128 0x3b
 9328 00dc 0B       		.uleb128 0xb
 9329 00dd 49       		.uleb128 0x49
 9330 00de 13       		.uleb128 0x13
 9331 00df 38       		.uleb128 0x38
 9332 00e0 0B       		.uleb128 0xb
 9333 00e1 00       		.byte	0
 9334 00e2 00       		.byte	0
 9335 00e3 14       		.uleb128 0x14
 9336 00e4 13       		.uleb128 0x13
 9337 00e5 01       		.byte	0x1
 9338 00e6 03       		.uleb128 0x3
 9339 00e7 0E       		.uleb128 0xe
 9340 00e8 0B       		.uleb128 0xb
 9341 00e9 0B       		.uleb128 0xb
 9342 00ea 3A       		.uleb128 0x3a
 9343 00eb 0B       		.uleb128 0xb
 9344 00ec 3B       		.uleb128 0x3b
 9345 00ed 0B       		.uleb128 0xb
 9346 00ee 01       		.uleb128 0x1
 9347 00ef 13       		.uleb128 0x13
 9348 00f0 00       		.byte	0
 9349 00f1 00       		.byte	0
 9350 00f2 15       		.uleb128 0x15
 9351 00f3 0D       		.uleb128 0xd
 9352 00f4 00       		.byte	0
 9353 00f5 03       		.uleb128 0x3
 9354 00f6 08       		.uleb128 0x8
 9355 00f7 3A       		.uleb128 0x3a
 9356 00f8 0B       		.uleb128 0xb
 9357 00f9 3B       		.uleb128 0x3b
 9358 00fa 0B       		.uleb128 0xb
 9359 00fb 49       		.uleb128 0x49
 9360 00fc 13       		.uleb128 0x13
 9361 00fd 38       		.uleb128 0x38
 9362 00fe 0B       		.uleb128 0xb
 9363 00ff 00       		.byte	0
 9364 0100 00       		.byte	0
 9365 0101 16       		.uleb128 0x16
 9366 0102 13       		.uleb128 0x13
 9367 0103 01       		.byte	0x1
 9368 0104 03       		.uleb128 0x3
 9369 0105 0E       		.uleb128 0xe
 9370 0106 0B       		.uleb128 0xb
 9371 0107 05       		.uleb128 0x5
 9372 0108 3A       		.uleb128 0x3a
 9373 0109 0B       		.uleb128 0xb
 9374 010a 3B       		.uleb128 0x3b
 9375 010b 0B       		.uleb128 0xb
 9376 010c 01       		.uleb128 0x1
 9377 010d 13       		.uleb128 0x13
 9378 010e 00       		.byte	0
 9379 010f 00       		.byte	0
 9380 0110 17       		.uleb128 0x17
 9381 0111 0D       		.uleb128 0xd
 9382 0112 00       		.byte	0
ARM GAS  /tmp/ccp3ezWO.s 			page 192


 9383 0113 03       		.uleb128 0x3
 9384 0114 0E       		.uleb128 0xe
 9385 0115 3A       		.uleb128 0x3a
 9386 0116 0B       		.uleb128 0xb
 9387 0117 3B       		.uleb128 0x3b
 9388 0118 0B       		.uleb128 0xb
 9389 0119 49       		.uleb128 0x49
 9390 011a 13       		.uleb128 0x13
 9391 011b 38       		.uleb128 0x38
 9392 011c 05       		.uleb128 0x5
 9393 011d 00       		.byte	0
 9394 011e 00       		.byte	0
 9395 011f 18       		.uleb128 0x18
 9396 0120 15       		.uleb128 0x15
 9397 0121 01       		.byte	0x1
 9398 0122 27       		.uleb128 0x27
 9399 0123 19       		.uleb128 0x19
 9400 0124 49       		.uleb128 0x49
 9401 0125 13       		.uleb128 0x13
 9402 0126 01       		.uleb128 0x1
 9403 0127 13       		.uleb128 0x13
 9404 0128 00       		.byte	0
 9405 0129 00       		.byte	0
 9406 012a 19       		.uleb128 0x19
 9407 012b 05       		.uleb128 0x5
 9408 012c 00       		.byte	0
 9409 012d 49       		.uleb128 0x49
 9410 012e 13       		.uleb128 0x13
 9411 012f 00       		.byte	0
 9412 0130 00       		.byte	0
 9413 0131 1A       		.uleb128 0x1a
 9414 0132 13       		.uleb128 0x13
 9415 0133 01       		.byte	0x1
 9416 0134 03       		.uleb128 0x3
 9417 0135 0E       		.uleb128 0xe
 9418 0136 0B       		.uleb128 0xb
 9419 0137 05       		.uleb128 0x5
 9420 0138 3A       		.uleb128 0x3a
 9421 0139 0B       		.uleb128 0xb
 9422 013a 3B       		.uleb128 0x3b
 9423 013b 05       		.uleb128 0x5
 9424 013c 01       		.uleb128 0x1
 9425 013d 13       		.uleb128 0x13
 9426 013e 00       		.byte	0
 9427 013f 00       		.byte	0
 9428 0140 1B       		.uleb128 0x1b
 9429 0141 0D       		.uleb128 0xd
 9430 0142 00       		.byte	0
 9431 0143 03       		.uleb128 0x3
 9432 0144 0E       		.uleb128 0xe
 9433 0145 3A       		.uleb128 0x3a
 9434 0146 0B       		.uleb128 0xb
 9435 0147 3B       		.uleb128 0x3b
 9436 0148 05       		.uleb128 0x5
 9437 0149 49       		.uleb128 0x49
 9438 014a 13       		.uleb128 0x13
 9439 014b 38       		.uleb128 0x38
ARM GAS  /tmp/ccp3ezWO.s 			page 193


 9440 014c 0B       		.uleb128 0xb
 9441 014d 00       		.byte	0
 9442 014e 00       		.byte	0
 9443 014f 1C       		.uleb128 0x1c
 9444 0150 0D       		.uleb128 0xd
 9445 0151 00       		.byte	0
 9446 0152 03       		.uleb128 0x3
 9447 0153 0E       		.uleb128 0xe
 9448 0154 3A       		.uleb128 0x3a
 9449 0155 0B       		.uleb128 0xb
 9450 0156 3B       		.uleb128 0x3b
 9451 0157 05       		.uleb128 0x5
 9452 0158 49       		.uleb128 0x49
 9453 0159 13       		.uleb128 0x13
 9454 015a 38       		.uleb128 0x38
 9455 015b 05       		.uleb128 0x5
 9456 015c 00       		.byte	0
 9457 015d 00       		.byte	0
 9458 015e 1D       		.uleb128 0x1d
 9459 015f 13       		.uleb128 0x13
 9460 0160 01       		.byte	0x1
 9461 0161 03       		.uleb128 0x3
 9462 0162 0E       		.uleb128 0xe
 9463 0163 0B       		.uleb128 0xb
 9464 0164 0B       		.uleb128 0xb
 9465 0165 3A       		.uleb128 0x3a
 9466 0166 0B       		.uleb128 0xb
 9467 0167 3B       		.uleb128 0x3b
 9468 0168 05       		.uleb128 0x5
 9469 0169 01       		.uleb128 0x1
 9470 016a 13       		.uleb128 0x13
 9471 016b 00       		.byte	0
 9472 016c 00       		.byte	0
 9473 016d 1E       		.uleb128 0x1e
 9474 016e 13       		.uleb128 0x13
 9475 016f 01       		.byte	0x1
 9476 0170 0B       		.uleb128 0xb
 9477 0171 0B       		.uleb128 0xb
 9478 0172 3A       		.uleb128 0x3a
 9479 0173 0B       		.uleb128 0xb
 9480 0174 3B       		.uleb128 0x3b
 9481 0175 05       		.uleb128 0x5
 9482 0176 01       		.uleb128 0x1
 9483 0177 13       		.uleb128 0x13
 9484 0178 00       		.byte	0
 9485 0179 00       		.byte	0
 9486 017a 1F       		.uleb128 0x1f
 9487 017b 17       		.uleb128 0x17
 9488 017c 01       		.byte	0x1
 9489 017d 0B       		.uleb128 0xb
 9490 017e 0B       		.uleb128 0xb
 9491 017f 3A       		.uleb128 0x3a
 9492 0180 0B       		.uleb128 0xb
 9493 0181 3B       		.uleb128 0x3b
 9494 0182 05       		.uleb128 0x5
 9495 0183 01       		.uleb128 0x1
 9496 0184 13       		.uleb128 0x13
ARM GAS  /tmp/ccp3ezWO.s 			page 194


 9497 0185 00       		.byte	0
 9498 0186 00       		.byte	0
 9499 0187 20       		.uleb128 0x20
 9500 0188 0D       		.uleb128 0xd
 9501 0189 00       		.byte	0
 9502 018a 03       		.uleb128 0x3
 9503 018b 0E       		.uleb128 0xe
 9504 018c 3A       		.uleb128 0x3a
 9505 018d 0B       		.uleb128 0xb
 9506 018e 3B       		.uleb128 0x3b
 9507 018f 05       		.uleb128 0x5
 9508 0190 49       		.uleb128 0x49
 9509 0191 13       		.uleb128 0x13
 9510 0192 00       		.byte	0
 9511 0193 00       		.byte	0
 9512 0194 21       		.uleb128 0x21
 9513 0195 15       		.uleb128 0x15
 9514 0196 01       		.byte	0x1
 9515 0197 27       		.uleb128 0x27
 9516 0198 19       		.uleb128 0x19
 9517 0199 01       		.uleb128 0x1
 9518 019a 13       		.uleb128 0x13
 9519 019b 00       		.byte	0
 9520 019c 00       		.byte	0
 9521 019d 22       		.uleb128 0x22
 9522 019e 04       		.uleb128 0x4
 9523 019f 01       		.byte	0x1
 9524 01a0 03       		.uleb128 0x3
 9525 01a1 0E       		.uleb128 0xe
 9526 01a2 0B       		.uleb128 0xb
 9527 01a3 0B       		.uleb128 0xb
 9528 01a4 49       		.uleb128 0x49
 9529 01a5 13       		.uleb128 0x13
 9530 01a6 3A       		.uleb128 0x3a
 9531 01a7 0B       		.uleb128 0xb
 9532 01a8 3B       		.uleb128 0x3b
 9533 01a9 05       		.uleb128 0x5
 9534 01aa 01       		.uleb128 0x1
 9535 01ab 13       		.uleb128 0x13
 9536 01ac 00       		.byte	0
 9537 01ad 00       		.byte	0
 9538 01ae 23       		.uleb128 0x23
 9539 01af 28       		.uleb128 0x28
 9540 01b0 00       		.byte	0
 9541 01b1 03       		.uleb128 0x3
 9542 01b2 0E       		.uleb128 0xe
 9543 01b3 1C       		.uleb128 0x1c
 9544 01b4 0D       		.uleb128 0xd
 9545 01b5 00       		.byte	0
 9546 01b6 00       		.byte	0
 9547 01b7 24       		.uleb128 0x24
 9548 01b8 28       		.uleb128 0x28
 9549 01b9 00       		.byte	0
 9550 01ba 03       		.uleb128 0x3
 9551 01bb 0E       		.uleb128 0xe
 9552 01bc 1C       		.uleb128 0x1c
 9553 01bd 0B       		.uleb128 0xb
ARM GAS  /tmp/ccp3ezWO.s 			page 195


 9554 01be 00       		.byte	0
 9555 01bf 00       		.byte	0
 9556 01c0 25       		.uleb128 0x25
 9557 01c1 21       		.uleb128 0x21
 9558 01c2 00       		.byte	0
 9559 01c3 00       		.byte	0
 9560 01c4 00       		.byte	0
 9561 01c5 26       		.uleb128 0x26
 9562 01c6 21       		.uleb128 0x21
 9563 01c7 00       		.byte	0
 9564 01c8 49       		.uleb128 0x49
 9565 01c9 13       		.uleb128 0x13
 9566 01ca 2F       		.uleb128 0x2f
 9567 01cb 05       		.uleb128 0x5
 9568 01cc 00       		.byte	0
 9569 01cd 00       		.byte	0
 9570 01ce 27       		.uleb128 0x27
 9571 01cf 34       		.uleb128 0x34
 9572 01d0 00       		.byte	0
 9573 01d1 03       		.uleb128 0x3
 9574 01d2 0E       		.uleb128 0xe
 9575 01d3 3A       		.uleb128 0x3a
 9576 01d4 0B       		.uleb128 0xb
 9577 01d5 3B       		.uleb128 0x3b
 9578 01d6 0B       		.uleb128 0xb
 9579 01d7 49       		.uleb128 0x49
 9580 01d8 13       		.uleb128 0x13
 9581 01d9 02       		.uleb128 0x2
 9582 01da 18       		.uleb128 0x18
 9583 01db 00       		.byte	0
 9584 01dc 00       		.byte	0
 9585 01dd 28       		.uleb128 0x28
 9586 01de 34       		.uleb128 0x34
 9587 01df 00       		.byte	0
 9588 01e0 03       		.uleb128 0x3
 9589 01e1 0E       		.uleb128 0xe
 9590 01e2 3A       		.uleb128 0x3a
 9591 01e3 0B       		.uleb128 0xb
 9592 01e4 3B       		.uleb128 0x3b
 9593 01e5 05       		.uleb128 0x5
 9594 01e6 49       		.uleb128 0x49
 9595 01e7 13       		.uleb128 0x13
 9596 01e8 1C       		.uleb128 0x1c
 9597 01e9 05       		.uleb128 0x5
 9598 01ea 00       		.byte	0
 9599 01eb 00       		.byte	0
 9600 01ec 29       		.uleb128 0x29
 9601 01ed 34       		.uleb128 0x34
 9602 01ee 00       		.byte	0
 9603 01ef 03       		.uleb128 0x3
 9604 01f0 08       		.uleb128 0x8
 9605 01f1 3A       		.uleb128 0x3a
 9606 01f2 0B       		.uleb128 0xb
 9607 01f3 3B       		.uleb128 0x3b
 9608 01f4 05       		.uleb128 0x5
 9609 01f5 49       		.uleb128 0x49
 9610 01f6 13       		.uleb128 0x13
ARM GAS  /tmp/ccp3ezWO.s 			page 196


 9611 01f7 02       		.uleb128 0x2
 9612 01f8 18       		.uleb128 0x18
 9613 01f9 00       		.byte	0
 9614 01fa 00       		.byte	0
 9615 01fb 2A       		.uleb128 0x2a
 9616 01fc 2E       		.uleb128 0x2e
 9617 01fd 01       		.byte	0x1
 9618 01fe 3F       		.uleb128 0x3f
 9619 01ff 19       		.uleb128 0x19
 9620 0200 03       		.uleb128 0x3
 9621 0201 0E       		.uleb128 0xe
 9622 0202 3A       		.uleb128 0x3a
 9623 0203 0B       		.uleb128 0xb
 9624 0204 3B       		.uleb128 0x3b
 9625 0205 0B       		.uleb128 0xb
 9626 0206 27       		.uleb128 0x27
 9627 0207 19       		.uleb128 0x19
 9628 0208 49       		.uleb128 0x49
 9629 0209 13       		.uleb128 0x13
 9630 020a 11       		.uleb128 0x11
 9631 020b 01       		.uleb128 0x1
 9632 020c 12       		.uleb128 0x12
 9633 020d 06       		.uleb128 0x6
 9634 020e 40       		.uleb128 0x40
 9635 020f 18       		.uleb128 0x18
 9636 0210 9742     		.uleb128 0x2117
 9637 0212 19       		.uleb128 0x19
 9638 0213 01       		.uleb128 0x1
 9639 0214 13       		.uleb128 0x13
 9640 0215 00       		.byte	0
 9641 0216 00       		.byte	0
 9642 0217 2B       		.uleb128 0x2b
 9643 0218 05       		.uleb128 0x5
 9644 0219 00       		.byte	0
 9645 021a 03       		.uleb128 0x3
 9646 021b 0E       		.uleb128 0xe
 9647 021c 3A       		.uleb128 0x3a
 9648 021d 0B       		.uleb128 0xb
 9649 021e 3B       		.uleb128 0x3b
 9650 021f 05       		.uleb128 0x5
 9651 0220 49       		.uleb128 0x49
 9652 0221 13       		.uleb128 0x13
 9653 0222 02       		.uleb128 0x2
 9654 0223 17       		.uleb128 0x17
 9655 0224 00       		.byte	0
 9656 0225 00       		.byte	0
 9657 0226 2C       		.uleb128 0x2c
 9658 0227 34       		.uleb128 0x34
 9659 0228 00       		.byte	0
 9660 0229 03       		.uleb128 0x3
 9661 022a 0E       		.uleb128 0xe
 9662 022b 3A       		.uleb128 0x3a
 9663 022c 0B       		.uleb128 0xb
 9664 022d 3B       		.uleb128 0x3b
 9665 022e 05       		.uleb128 0x5
 9666 022f 49       		.uleb128 0x49
 9667 0230 13       		.uleb128 0x13
ARM GAS  /tmp/ccp3ezWO.s 			page 197


 9668 0231 02       		.uleb128 0x2
 9669 0232 18       		.uleb128 0x18
 9670 0233 00       		.byte	0
 9671 0234 00       		.byte	0
 9672 0235 2D       		.uleb128 0x2d
 9673 0236 34       		.uleb128 0x34
 9674 0237 00       		.byte	0
 9675 0238 03       		.uleb128 0x3
 9676 0239 08       		.uleb128 0x8
 9677 023a 3A       		.uleb128 0x3a
 9678 023b 0B       		.uleb128 0xb
 9679 023c 3B       		.uleb128 0x3b
 9680 023d 05       		.uleb128 0x5
 9681 023e 49       		.uleb128 0x49
 9682 023f 13       		.uleb128 0x13
 9683 0240 02       		.uleb128 0x2
 9684 0241 17       		.uleb128 0x17
 9685 0242 00       		.byte	0
 9686 0243 00       		.byte	0
 9687 0244 2E       		.uleb128 0x2e
 9688 0245 0B       		.uleb128 0xb
 9689 0246 01       		.byte	0x1
 9690 0247 11       		.uleb128 0x11
 9691 0248 01       		.uleb128 0x1
 9692 0249 12       		.uleb128 0x12
 9693 024a 06       		.uleb128 0x6
 9694 024b 01       		.uleb128 0x1
 9695 024c 13       		.uleb128 0x13
 9696 024d 00       		.byte	0
 9697 024e 00       		.byte	0
 9698 024f 2F       		.uleb128 0x2f
 9699 0250 34       		.uleb128 0x34
 9700 0251 00       		.byte	0
 9701 0252 03       		.uleb128 0x3
 9702 0253 0E       		.uleb128 0xe
 9703 0254 3A       		.uleb128 0x3a
 9704 0255 0B       		.uleb128 0xb
 9705 0256 3B       		.uleb128 0x3b
 9706 0257 05       		.uleb128 0x5
 9707 0258 49       		.uleb128 0x49
 9708 0259 13       		.uleb128 0x13
 9709 025a 02       		.uleb128 0x2
 9710 025b 17       		.uleb128 0x17
 9711 025c 00       		.byte	0
 9712 025d 00       		.byte	0
 9713 025e 30       		.uleb128 0x30
 9714 025f 898201   		.uleb128 0x4109
 9715 0262 00       		.byte	0
 9716 0263 11       		.uleb128 0x11
 9717 0264 01       		.uleb128 0x1
 9718 0265 31       		.uleb128 0x31
 9719 0266 13       		.uleb128 0x13
 9720 0267 00       		.byte	0
 9721 0268 00       		.byte	0
 9722 0269 31       		.uleb128 0x31
 9723 026a 1D       		.uleb128 0x1d
 9724 026b 01       		.byte	0x1
ARM GAS  /tmp/ccp3ezWO.s 			page 198


 9725 026c 31       		.uleb128 0x31
 9726 026d 13       		.uleb128 0x13
 9727 026e 11       		.uleb128 0x11
 9728 026f 01       		.uleb128 0x1
 9729 0270 12       		.uleb128 0x12
 9730 0271 06       		.uleb128 0x6
 9731 0272 58       		.uleb128 0x58
 9732 0273 0B       		.uleb128 0xb
 9733 0274 59       		.uleb128 0x59
 9734 0275 05       		.uleb128 0x5
 9735 0276 01       		.uleb128 0x1
 9736 0277 13       		.uleb128 0x13
 9737 0278 00       		.byte	0
 9738 0279 00       		.byte	0
 9739 027a 32       		.uleb128 0x32
 9740 027b 05       		.uleb128 0x5
 9741 027c 00       		.byte	0
 9742 027d 31       		.uleb128 0x31
 9743 027e 13       		.uleb128 0x13
 9744 027f 02       		.uleb128 0x2
 9745 0280 17       		.uleb128 0x17
 9746 0281 00       		.byte	0
 9747 0282 00       		.byte	0
 9748 0283 33       		.uleb128 0x33
 9749 0284 0B       		.uleb128 0xb
 9750 0285 01       		.byte	0x1
 9751 0286 11       		.uleb128 0x11
 9752 0287 01       		.uleb128 0x1
 9753 0288 12       		.uleb128 0x12
 9754 0289 06       		.uleb128 0x6
 9755 028a 00       		.byte	0
 9756 028b 00       		.byte	0
 9757 028c 34       		.uleb128 0x34
 9758 028d 34       		.uleb128 0x34
 9759 028e 00       		.byte	0
 9760 028f 31       		.uleb128 0x31
 9761 0290 13       		.uleb128 0x13
 9762 0291 02       		.uleb128 0x2
 9763 0292 17       		.uleb128 0x17
 9764 0293 00       		.byte	0
 9765 0294 00       		.byte	0
 9766 0295 35       		.uleb128 0x35
 9767 0296 898201   		.uleb128 0x4109
 9768 0299 01       		.byte	0x1
 9769 029a 11       		.uleb128 0x11
 9770 029b 01       		.uleb128 0x1
 9771 029c 00       		.byte	0
 9772 029d 00       		.byte	0
 9773 029e 36       		.uleb128 0x36
 9774 029f 8A8201   		.uleb128 0x410a
 9775 02a2 00       		.byte	0
 9776 02a3 02       		.uleb128 0x2
 9777 02a4 18       		.uleb128 0x18
 9778 02a5 9142     		.uleb128 0x2111
 9779 02a7 18       		.uleb128 0x18
 9780 02a8 00       		.byte	0
 9781 02a9 00       		.byte	0
ARM GAS  /tmp/ccp3ezWO.s 			page 199


 9782 02aa 37       		.uleb128 0x37
 9783 02ab 898201   		.uleb128 0x4109
 9784 02ae 01       		.byte	0x1
 9785 02af 11       		.uleb128 0x11
 9786 02b0 01       		.uleb128 0x1
 9787 02b1 31       		.uleb128 0x31
 9788 02b2 13       		.uleb128 0x13
 9789 02b3 01       		.uleb128 0x1
 9790 02b4 13       		.uleb128 0x13
 9791 02b5 00       		.byte	0
 9792 02b6 00       		.byte	0
 9793 02b7 38       		.uleb128 0x38
 9794 02b8 898201   		.uleb128 0x4109
 9795 02bb 01       		.byte	0x1
 9796 02bc 11       		.uleb128 0x11
 9797 02bd 01       		.uleb128 0x1
 9798 02be 31       		.uleb128 0x31
 9799 02bf 13       		.uleb128 0x13
 9800 02c0 00       		.byte	0
 9801 02c1 00       		.byte	0
 9802 02c2 39       		.uleb128 0x39
 9803 02c3 2E       		.uleb128 0x2e
 9804 02c4 01       		.byte	0x1
 9805 02c5 03       		.uleb128 0x3
 9806 02c6 0E       		.uleb128 0xe
 9807 02c7 3A       		.uleb128 0x3a
 9808 02c8 0B       		.uleb128 0xb
 9809 02c9 3B       		.uleb128 0x3b
 9810 02ca 05       		.uleb128 0x5
 9811 02cb 27       		.uleb128 0x27
 9812 02cc 19       		.uleb128 0x19
 9813 02cd 49       		.uleb128 0x49
 9814 02ce 13       		.uleb128 0x13
 9815 02cf 20       		.uleb128 0x20
 9816 02d0 0B       		.uleb128 0xb
 9817 02d1 01       		.uleb128 0x1
 9818 02d2 13       		.uleb128 0x13
 9819 02d3 00       		.byte	0
 9820 02d4 00       		.byte	0
 9821 02d5 3A       		.uleb128 0x3a
 9822 02d6 05       		.uleb128 0x5
 9823 02d7 00       		.byte	0
 9824 02d8 03       		.uleb128 0x3
 9825 02d9 0E       		.uleb128 0xe
 9826 02da 3A       		.uleb128 0x3a
 9827 02db 0B       		.uleb128 0xb
 9828 02dc 3B       		.uleb128 0x3b
 9829 02dd 05       		.uleb128 0x5
 9830 02de 49       		.uleb128 0x49
 9831 02df 13       		.uleb128 0x13
 9832 02e0 00       		.byte	0
 9833 02e1 00       		.byte	0
 9834 02e2 3B       		.uleb128 0x3b
 9835 02e3 34       		.uleb128 0x34
 9836 02e4 00       		.byte	0
 9837 02e5 03       		.uleb128 0x3
 9838 02e6 08       		.uleb128 0x8
ARM GAS  /tmp/ccp3ezWO.s 			page 200


 9839 02e7 3A       		.uleb128 0x3a
 9840 02e8 0B       		.uleb128 0xb
 9841 02e9 3B       		.uleb128 0x3b
 9842 02ea 05       		.uleb128 0x5
 9843 02eb 49       		.uleb128 0x49
 9844 02ec 13       		.uleb128 0x13
 9845 02ed 00       		.byte	0
 9846 02ee 00       		.byte	0
 9847 02ef 3C       		.uleb128 0x3c
 9848 02f0 34       		.uleb128 0x34
 9849 02f1 00       		.byte	0
 9850 02f2 03       		.uleb128 0x3
 9851 02f3 0E       		.uleb128 0xe
 9852 02f4 3A       		.uleb128 0x3a
 9853 02f5 0B       		.uleb128 0xb
 9854 02f6 3B       		.uleb128 0x3b
 9855 02f7 05       		.uleb128 0x5
 9856 02f8 49       		.uleb128 0x49
 9857 02f9 13       		.uleb128 0x13
 9858 02fa 00       		.byte	0
 9859 02fb 00       		.byte	0
 9860 02fc 3D       		.uleb128 0x3d
 9861 02fd 0B       		.uleb128 0xb
 9862 02fe 01       		.byte	0x1
 9863 02ff 00       		.byte	0
 9864 0300 00       		.byte	0
 9865 0301 3E       		.uleb128 0x3e
 9866 0302 05       		.uleb128 0x5
 9867 0303 00       		.byte	0
 9868 0304 03       		.uleb128 0x3
 9869 0305 08       		.uleb128 0x8
 9870 0306 3A       		.uleb128 0x3a
 9871 0307 0B       		.uleb128 0xb
 9872 0308 3B       		.uleb128 0x3b
 9873 0309 05       		.uleb128 0x5
 9874 030a 49       		.uleb128 0x49
 9875 030b 13       		.uleb128 0x13
 9876 030c 02       		.uleb128 0x2
 9877 030d 17       		.uleb128 0x17
 9878 030e 00       		.byte	0
 9879 030f 00       		.byte	0
 9880 0310 3F       		.uleb128 0x3f
 9881 0311 2E       		.uleb128 0x2e
 9882 0312 01       		.byte	0x1
 9883 0313 3F       		.uleb128 0x3f
 9884 0314 19       		.uleb128 0x19
 9885 0315 03       		.uleb128 0x3
 9886 0316 0E       		.uleb128 0xe
 9887 0317 3A       		.uleb128 0x3a
 9888 0318 0B       		.uleb128 0xb
 9889 0319 3B       		.uleb128 0x3b
 9890 031a 0B       		.uleb128 0xb
 9891 031b 27       		.uleb128 0x27
 9892 031c 19       		.uleb128 0x19
 9893 031d 49       		.uleb128 0x49
 9894 031e 13       		.uleb128 0x13
 9895 031f 11       		.uleb128 0x11
ARM GAS  /tmp/ccp3ezWO.s 			page 201


 9896 0320 01       		.uleb128 0x1
 9897 0321 12       		.uleb128 0x12
 9898 0322 06       		.uleb128 0x6
 9899 0323 40       		.uleb128 0x40
 9900 0324 18       		.uleb128 0x18
 9901 0325 9642     		.uleb128 0x2116
 9902 0327 19       		.uleb128 0x19
 9903 0328 01       		.uleb128 0x1
 9904 0329 13       		.uleb128 0x13
 9905 032a 00       		.byte	0
 9906 032b 00       		.byte	0
 9907 032c 40       		.uleb128 0x40
 9908 032d 2E       		.uleb128 0x2e
 9909 032e 00       		.byte	0
 9910 032f 3F       		.uleb128 0x3f
 9911 0330 19       		.uleb128 0x19
 9912 0331 3C       		.uleb128 0x3c
 9913 0332 19       		.uleb128 0x19
 9914 0333 6E       		.uleb128 0x6e
 9915 0334 0E       		.uleb128 0xe
 9916 0335 03       		.uleb128 0x3
 9917 0336 0E       		.uleb128 0xe
 9918 0337 3A       		.uleb128 0x3a
 9919 0338 0B       		.uleb128 0xb
 9920 0339 3B       		.uleb128 0x3b
 9921 033a 0B       		.uleb128 0xb
 9922 033b 00       		.byte	0
 9923 033c 00       		.byte	0
 9924 033d 00       		.byte	0
 9925              		.section	.debug_loc,"",%progbits
 9926              	.Ldebug_loc0:
 9927              	.LLST52:
 9928 0000 B40C0000 		.4byte	.LVL244-.Ltext0
 9929 0004 BA0C0000 		.4byte	.LVL245-.Ltext0
 9930 0008 0100     		.2byte	0x1
 9931 000a 50       		.byte	0x50
 9932 000b BA0C0000 		.4byte	.LVL245-.Ltext0
 9933 000f C00C0000 		.4byte	.LFE91-.Ltext0
 9934 0013 0500     		.2byte	0x5
 9935 0015 03       		.byte	0x3
 9936 0016 04000000 		.4byte	dmp+4
 9937 001a 00000000 		.4byte	0
 9938 001e 00000000 		.4byte	0
 9939              	.LLST51:
 9940 0022 A80C0000 		.4byte	.LVL242-.Ltext0
 9941 0026 AE0C0000 		.4byte	.LVL243-.Ltext0
 9942 002a 0100     		.2byte	0x1
 9943 002c 50       		.byte	0x50
 9944 002d AE0C0000 		.4byte	.LVL243-.Ltext0
 9945 0031 B40C0000 		.4byte	.LFE90-.Ltext0
 9946 0035 0500     		.2byte	0x5
 9947 0037 03       		.byte	0x3
 9948 0038 00000000 		.4byte	dmp
 9949 003c 00000000 		.4byte	0
 9950 0040 00000000 		.4byte	0
 9951              	.LLST37:
 9952 0044 DC0A0000 		.4byte	.LVL206-.Ltext0
ARM GAS  /tmp/ccp3ezWO.s 			page 202


 9953 0048 F80A0000 		.4byte	.LVL211-.Ltext0
 9954 004c 0100     		.2byte	0x1
 9955 004e 50       		.byte	0x50
 9956 004f F80A0000 		.4byte	.LVL211-.Ltext0
 9957 0053 5A0C0000 		.4byte	.LVL232-.Ltext0
 9958 0057 0100     		.2byte	0x1
 9959 0059 55       		.byte	0x55
 9960 005a 5A0C0000 		.4byte	.LVL232-.Ltext0
 9961 005e 680C0000 		.4byte	.LVL234-.Ltext0
 9962 0062 0400     		.2byte	0x4
 9963 0064 F3       		.byte	0xf3
 9964 0065 01       		.uleb128 0x1
 9965 0066 50       		.byte	0x50
 9966 0067 9F       		.byte	0x9f
 9967 0068 680C0000 		.4byte	.LVL234-.Ltext0
 9968 006c 6E0C0000 		.4byte	.LVL236-.Ltext0
 9969 0070 0100     		.2byte	0x1
 9970 0072 55       		.byte	0x55
 9971 0073 6E0C0000 		.4byte	.LVL236-.Ltext0
 9972 0077 9E0C0000 		.4byte	.LVL241-.Ltext0
 9973 007b 0400     		.2byte	0x4
 9974 007d F3       		.byte	0xf3
 9975 007e 01       		.uleb128 0x1
 9976 007f 50       		.byte	0x50
 9977 0080 9F       		.byte	0x9f
 9978 0081 9E0C0000 		.4byte	.LVL241-.Ltext0
 9979 0085 A80C0000 		.4byte	.LFE89-.Ltext0
 9980 0089 0100     		.2byte	0x1
 9981 008b 55       		.byte	0x55
 9982 008c 00000000 		.4byte	0
 9983 0090 00000000 		.4byte	0
 9984              	.LLST38:
 9985 0094 DC0A0000 		.4byte	.LVL206-.Ltext0
 9986 0098 F40A0000 		.4byte	.LVL210-.Ltext0
 9987 009c 0100     		.2byte	0x1
 9988 009e 51       		.byte	0x51
 9989 009f F40A0000 		.4byte	.LVL210-.Ltext0
 9990 00a3 220C0000 		.4byte	.LVL229-.Ltext0
 9991 00a7 0100     		.2byte	0x1
 9992 00a9 56       		.byte	0x56
 9993 00aa 220C0000 		.4byte	.LVL229-.Ltext0
 9994 00ae 9E0C0000 		.4byte	.LVL241-.Ltext0
 9995 00b2 0400     		.2byte	0x4
 9996 00b4 F3       		.byte	0xf3
 9997 00b5 01       		.uleb128 0x1
 9998 00b6 51       		.byte	0x51
 9999 00b7 9F       		.byte	0x9f
 10000 00b8 9E0C0000 		.4byte	.LVL241-.Ltext0
 10001 00bc A80C0000 		.4byte	.LFE89-.Ltext0
 10002 00c0 0100     		.2byte	0x1
 10003 00c2 56       		.byte	0x56
 10004 00c3 00000000 		.4byte	0
 10005 00c7 00000000 		.4byte	0
 10006              	.LLST39:
 10007 00cb DC0A0000 		.4byte	.LVL206-.Ltext0
 10008 00cf F20A0000 		.4byte	.LVL209-.Ltext0
 10009 00d3 0100     		.2byte	0x1
ARM GAS  /tmp/ccp3ezWO.s 			page 203


 10010 00d5 52       		.byte	0x52
 10011 00d6 F20A0000 		.4byte	.LVL209-.Ltext0
 10012 00da A80C0000 		.4byte	.LFE89-.Ltext0
 10013 00de 0100     		.2byte	0x1
 10014 00e0 59       		.byte	0x59
 10015 00e1 00000000 		.4byte	0
 10016 00e5 00000000 		.4byte	0
 10017              	.LLST40:
 10018 00e9 DC0A0000 		.4byte	.LVL206-.Ltext0
 10019 00ed EE0A0000 		.4byte	.LVL208-.Ltext0
 10020 00f1 0100     		.2byte	0x1
 10021 00f3 53       		.byte	0x53
 10022 00f4 EE0A0000 		.4byte	.LVL208-.Ltext0
 10023 00f8 A80C0000 		.4byte	.LFE89-.Ltext0
 10024 00fc 0100     		.2byte	0x1
 10025 00fe 58       		.byte	0x58
 10026 00ff 00000000 		.4byte	0
 10027 0103 00000000 		.4byte	0
 10028              	.LLST41:
 10029 0107 DC0A0000 		.4byte	.LVL206-.Ltext0
 10030 010b 680C0000 		.4byte	.LVL234-.Ltext0
 10031 010f 0200     		.2byte	0x2
 10032 0111 91       		.byte	0x91
 10033 0112 00       		.sleb128 0
 10034 0113 680C0000 		.4byte	.LVL234-.Ltext0
 10035 0117 A80C0000 		.4byte	.LFE89-.Ltext0
 10036 011b 0200     		.2byte	0x2
 10037 011d 91       		.byte	0x91
 10038 011e 00       		.sleb128 0
 10039 011f 00000000 		.4byte	0
 10040 0123 00000000 		.4byte	0
 10041              	.LLST42:
 10042 0127 DC0A0000 		.4byte	.LVL206-.Ltext0
 10043 012b 680C0000 		.4byte	.LVL234-.Ltext0
 10044 012f 0200     		.2byte	0x2
 10045 0131 91       		.byte	0x91
 10046 0132 04       		.sleb128 4
 10047 0133 680C0000 		.4byte	.LVL234-.Ltext0
 10048 0137 A80C0000 		.4byte	.LFE89-.Ltext0
 10049 013b 0200     		.2byte	0x2
 10050 013d 91       		.byte	0x91
 10051 013e 04       		.sleb128 4
 10052 013f 00000000 		.4byte	0
 10053 0143 00000000 		.4byte	0
 10054              	.LLST43:
 10055 0147 EC0A0000 		.4byte	.LVL207-.Ltext0
 10056 014b 940B0000 		.4byte	.LVL213-.Ltext0
 10057 014f 0200     		.2byte	0x2
 10058 0151 30       		.byte	0x30
 10059 0152 9F       		.byte	0x9f
 10060 0153 940B0000 		.4byte	.LVL213-.Ltext0
 10061 0157 D20B0000 		.4byte	.LVL225-.Ltext0
 10062 015b 0200     		.2byte	0x2
 10063 015d 40       		.byte	0x40
 10064 015e 9F       		.byte	0x9f
 10065 015f D20B0000 		.4byte	.LVL225-.Ltext0
 10066 0163 D40B0000 		.4byte	.LVL226-.Ltext0
ARM GAS  /tmp/ccp3ezWO.s 			page 204


 10067 0167 0200     		.2byte	0x2
 10068 0169 30       		.byte	0x30
 10069 016a 9F       		.byte	0x9f
 10070 016b D40B0000 		.4byte	.LVL226-.Ltext0
 10071 016f 0A0C0000 		.4byte	.LVL227-.Ltext0
 10072 0173 0100     		.2byte	0x1
 10073 0175 53       		.byte	0x53
 10074 0176 0C0C0000 		.4byte	.LVL228-.Ltext0
 10075 017a 4A0C0000 		.4byte	.LVL230-.Ltext0
 10076 017e 0100     		.2byte	0x1
 10077 0180 53       		.byte	0x53
 10078 0181 4C0C0000 		.4byte	.LVL231-.Ltext0
 10079 0185 5A0C0000 		.4byte	.LVL232-.Ltext0
 10080 0189 0100     		.2byte	0x1
 10081 018b 53       		.byte	0x53
 10082 018c 680C0000 		.4byte	.LVL234-.Ltext0
 10083 0190 700C0000 		.4byte	.LVL237-.Ltext0
 10084 0194 0100     		.2byte	0x1
 10085 0196 53       		.byte	0x53
 10086 0197 9E0C0000 		.4byte	.LVL241-.Ltext0
 10087 019b A80C0000 		.4byte	.LFE89-.Ltext0
 10088 019f 0200     		.2byte	0x2
 10089 01a1 30       		.byte	0x30
 10090 01a2 9F       		.byte	0x9f
 10091 01a3 00000000 		.4byte	0
 10092 01a7 00000000 		.4byte	0
 10093              	.LLST44:
 10094 01ab 960B0000 		.4byte	.LVL214-.Ltext0
 10095 01af 9A0B0000 		.4byte	.LVL215-.Ltext0
 10096 01b3 0500     		.2byte	0x5
 10097 01b5 50       		.byte	0x50
 10098 01b6 93       		.byte	0x93
 10099 01b7 04       		.uleb128 0x4
 10100 01b8 93       		.byte	0x93
 10101 01b9 0C       		.uleb128 0xc
 10102 01ba 9A0B0000 		.4byte	.LVL215-.Ltext0
 10103 01be 9C0B0000 		.4byte	.LVL216-.Ltext0
 10104 01c2 0800     		.2byte	0x8
 10105 01c4 50       		.byte	0x50
 10106 01c5 93       		.byte	0x93
 10107 01c6 04       		.uleb128 0x4
 10108 01c7 5E       		.byte	0x5e
 10109 01c8 93       		.byte	0x93
 10110 01c9 04       		.uleb128 0x4
 10111 01ca 93       		.byte	0x93
 10112 01cb 08       		.uleb128 0x8
 10113 01cc 9C0B0000 		.4byte	.LVL216-.Ltext0
 10114 01d0 9E0B0000 		.4byte	.LVL217-.Ltext0
 10115 01d4 0B00     		.2byte	0xb
 10116 01d6 50       		.byte	0x50
 10117 01d7 93       		.byte	0x93
 10118 01d8 04       		.uleb128 0x4
 10119 01d9 5E       		.byte	0x5e
 10120 01da 93       		.byte	0x93
 10121 01db 04       		.uleb128 0x4
 10122 01dc 51       		.byte	0x51
 10123 01dd 93       		.byte	0x93
ARM GAS  /tmp/ccp3ezWO.s 			page 205


 10124 01de 04       		.uleb128 0x4
 10125 01df 93       		.byte	0x93
 10126 01e0 04       		.uleb128 0x4
 10127 01e1 9E0B0000 		.4byte	.LVL217-.Ltext0
 10128 01e5 A20B0000 		.4byte	.LVL218-.Ltext0
 10129 01e9 0C00     		.2byte	0xc
 10130 01eb 50       		.byte	0x50
 10131 01ec 93       		.byte	0x93
 10132 01ed 04       		.uleb128 0x4
 10133 01ee 5E       		.byte	0x5e
 10134 01ef 93       		.byte	0x93
 10135 01f0 04       		.uleb128 0x4
 10136 01f1 51       		.byte	0x51
 10137 01f2 93       		.byte	0x93
 10138 01f3 04       		.uleb128 0x4
 10139 01f4 53       		.byte	0x53
 10140 01f5 93       		.byte	0x93
 10141 01f6 04       		.uleb128 0x4
 10142 01f7 A20B0000 		.4byte	.LVL218-.Ltext0
 10143 01fb A60B0000 		.4byte	.LVL219-.Ltext0
 10144 01ff 1100     		.2byte	0x11
 10145 0201 50       		.byte	0x50
 10146 0202 93       		.byte	0x93
 10147 0203 04       		.uleb128 0x4
 10148 0204 79       		.byte	0x79
 10149 0205 04       		.sleb128 4
 10150 0206 06       		.byte	0x6
 10151 0207 40       		.byte	0x40
 10152 0208 26       		.byte	0x26
 10153 0209 9F       		.byte	0x9f
 10154 020a 93       		.byte	0x93
 10155 020b 04       		.uleb128 0x4
 10156 020c 51       		.byte	0x51
 10157 020d 93       		.byte	0x93
 10158 020e 04       		.uleb128 0x4
 10159 020f 53       		.byte	0x53
 10160 0210 93       		.byte	0x93
 10161 0211 04       		.uleb128 0x4
 10162 0212 A60B0000 		.4byte	.LVL219-.Ltext0
 10163 0216 AA0B0000 		.4byte	.LVL220-.Ltext0
 10164 021a 1600     		.2byte	0x16
 10165 021c 79       		.byte	0x79
 10166 021d 00       		.sleb128 0
 10167 021e 06       		.byte	0x6
 10168 021f 40       		.byte	0x40
 10169 0220 26       		.byte	0x26
 10170 0221 9F       		.byte	0x9f
 10171 0222 93       		.byte	0x93
 10172 0223 04       		.uleb128 0x4
 10173 0224 79       		.byte	0x79
 10174 0225 04       		.sleb128 4
 10175 0226 06       		.byte	0x6
 10176 0227 40       		.byte	0x40
 10177 0228 26       		.byte	0x26
 10178 0229 9F       		.byte	0x9f
 10179 022a 93       		.byte	0x93
 10180 022b 04       		.uleb128 0x4
ARM GAS  /tmp/ccp3ezWO.s 			page 206


 10181 022c 51       		.byte	0x51
 10182 022d 93       		.byte	0x93
 10183 022e 04       		.uleb128 0x4
 10184 022f 53       		.byte	0x53
 10185 0230 93       		.byte	0x93
 10186 0231 04       		.uleb128 0x4
 10187 0232 AA0B0000 		.4byte	.LVL220-.Ltext0
 10188 0236 AE0B0000 		.4byte	.LVL221-.Ltext0
 10189 023a 1B00     		.2byte	0x1b
 10190 023c 79       		.byte	0x79
 10191 023d 00       		.sleb128 0
 10192 023e 06       		.byte	0x6
 10193 023f 40       		.byte	0x40
 10194 0240 26       		.byte	0x26
 10195 0241 9F       		.byte	0x9f
 10196 0242 93       		.byte	0x93
 10197 0243 04       		.uleb128 0x4
 10198 0244 79       		.byte	0x79
 10199 0245 04       		.sleb128 4
 10200 0246 06       		.byte	0x6
 10201 0247 40       		.byte	0x40
 10202 0248 26       		.byte	0x26
 10203 0249 9F       		.byte	0x9f
 10204 024a 93       		.byte	0x93
 10205 024b 04       		.uleb128 0x4
 10206 024c 79       		.byte	0x79
 10207 024d 08       		.sleb128 8
 10208 024e 06       		.byte	0x6
 10209 024f 40       		.byte	0x40
 10210 0250 26       		.byte	0x26
 10211 0251 9F       		.byte	0x9f
 10212 0252 93       		.byte	0x93
 10213 0253 04       		.uleb128 0x4
 10214 0254 53       		.byte	0x53
 10215 0255 93       		.byte	0x93
 10216 0256 04       		.uleb128 0x4
 10217 0257 AE0B0000 		.4byte	.LVL221-.Ltext0
 10218 025b C00B0000 		.4byte	.LVL222-.Ltext0
 10219 025f 2000     		.2byte	0x20
 10220 0261 79       		.byte	0x79
 10221 0262 00       		.sleb128 0
 10222 0263 06       		.byte	0x6
 10223 0264 40       		.byte	0x40
 10224 0265 26       		.byte	0x26
 10225 0266 9F       		.byte	0x9f
 10226 0267 93       		.byte	0x93
 10227 0268 04       		.uleb128 0x4
 10228 0269 79       		.byte	0x79
 10229 026a 04       		.sleb128 4
 10230 026b 06       		.byte	0x6
 10231 026c 40       		.byte	0x40
 10232 026d 26       		.byte	0x26
 10233 026e 9F       		.byte	0x9f
 10234 026f 93       		.byte	0x93
 10235 0270 04       		.uleb128 0x4
 10236 0271 79       		.byte	0x79
 10237 0272 08       		.sleb128 8
ARM GAS  /tmp/ccp3ezWO.s 			page 207


 10238 0273 06       		.byte	0x6
 10239 0274 40       		.byte	0x40
 10240 0275 26       		.byte	0x26
 10241 0276 9F       		.byte	0x9f
 10242 0277 93       		.byte	0x93
 10243 0278 04       		.uleb128 0x4
 10244 0279 79       		.byte	0x79
 10245 027a 0C       		.sleb128 12
 10246 027b 06       		.byte	0x6
 10247 027c 40       		.byte	0x40
 10248 027d 26       		.byte	0x26
 10249 027e 9F       		.byte	0x9f
 10250 027f 93       		.byte	0x93
 10251 0280 04       		.uleb128 0x4
 10252 0281 C00B0000 		.4byte	.LVL222-.Ltext0
 10253 0285 C40B0000 		.4byte	.LVL223-.Ltext0
 10254 0289 A300     		.2byte	0xa3
 10255 028b 7D       		.byte	0x7d
 10256 028c 00       		.sleb128 0
 10257 028d 94       		.byte	0x94
 10258 028e 01       		.byte	0x1
 10259 028f 08       		.byte	0x8
 10260 0290 FF       		.byte	0xff
 10261 0291 1A       		.byte	0x1a
 10262 0292 48       		.byte	0x48
 10263 0293 24       		.byte	0x24
 10264 0294 91       		.byte	0x91
 10265 0295 41       		.sleb128 -63
 10266 0296 94       		.byte	0x94
 10267 0297 01       		.byte	0x1
 10268 0298 08       		.byte	0x8
 10269 0299 FF       		.byte	0xff
 10270 029a 1A       		.byte	0x1a
 10271 029b 40       		.byte	0x40
 10272 029c 24       		.byte	0x24
 10273 029d 21       		.byte	0x21
 10274 029e 91       		.byte	0x91
 10275 029f 42       		.sleb128 -62
 10276 02a0 94       		.byte	0x94
 10277 02a1 01       		.byte	0x1
 10278 02a2 08       		.byte	0x8
 10279 02a3 FF       		.byte	0xff
 10280 02a4 1A       		.byte	0x1a
 10281 02a5 38       		.byte	0x38
 10282 02a6 24       		.byte	0x24
 10283 02a7 21       		.byte	0x21
 10284 02a8 91       		.byte	0x91
 10285 02a9 43       		.sleb128 -61
 10286 02aa 94       		.byte	0x94
 10287 02ab 01       		.byte	0x1
 10288 02ac 08       		.byte	0x8
 10289 02ad FF       		.byte	0xff
 10290 02ae 1A       		.byte	0x1a
 10291 02af 21       		.byte	0x21
 10292 02b0 40       		.byte	0x40
 10293 02b1 26       		.byte	0x26
 10294 02b2 9F       		.byte	0x9f
ARM GAS  /tmp/ccp3ezWO.s 			page 208


 10295 02b3 93       		.byte	0x93
 10296 02b4 04       		.uleb128 0x4
 10297 02b5 91       		.byte	0x91
 10298 02b6 44       		.sleb128 -60
 10299 02b7 94       		.byte	0x94
 10300 02b8 01       		.byte	0x1
 10301 02b9 08       		.byte	0x8
 10302 02ba FF       		.byte	0xff
 10303 02bb 1A       		.byte	0x1a
 10304 02bc 48       		.byte	0x48
 10305 02bd 24       		.byte	0x24
 10306 02be 91       		.byte	0x91
 10307 02bf 45       		.sleb128 -59
 10308 02c0 94       		.byte	0x94
 10309 02c1 01       		.byte	0x1
 10310 02c2 08       		.byte	0x8
 10311 02c3 FF       		.byte	0xff
 10312 02c4 1A       		.byte	0x1a
 10313 02c5 40       		.byte	0x40
 10314 02c6 24       		.byte	0x24
 10315 02c7 21       		.byte	0x21
 10316 02c8 91       		.byte	0x91
 10317 02c9 46       		.sleb128 -58
 10318 02ca 94       		.byte	0x94
 10319 02cb 01       		.byte	0x1
 10320 02cc 08       		.byte	0x8
 10321 02cd FF       		.byte	0xff
 10322 02ce 1A       		.byte	0x1a
 10323 02cf 38       		.byte	0x38
 10324 02d0 24       		.byte	0x24
 10325 02d1 21       		.byte	0x21
 10326 02d2 91       		.byte	0x91
 10327 02d3 47       		.sleb128 -57
 10328 02d4 94       		.byte	0x94
 10329 02d5 01       		.byte	0x1
 10330 02d6 08       		.byte	0x8
 10331 02d7 FF       		.byte	0xff
 10332 02d8 1A       		.byte	0x1a
 10333 02d9 21       		.byte	0x21
 10334 02da 40       		.byte	0x40
 10335 02db 26       		.byte	0x26
 10336 02dc 9F       		.byte	0x9f
 10337 02dd 93       		.byte	0x93
 10338 02de 04       		.uleb128 0x4
 10339 02df 91       		.byte	0x91
 10340 02e0 48       		.sleb128 -56
 10341 02e1 94       		.byte	0x94
 10342 02e2 01       		.byte	0x1
 10343 02e3 08       		.byte	0x8
 10344 02e4 FF       		.byte	0xff
 10345 02e5 1A       		.byte	0x1a
 10346 02e6 48       		.byte	0x48
 10347 02e7 24       		.byte	0x24
 10348 02e8 91       		.byte	0x91
 10349 02e9 49       		.sleb128 -55
 10350 02ea 94       		.byte	0x94
 10351 02eb 01       		.byte	0x1
ARM GAS  /tmp/ccp3ezWO.s 			page 209


 10352 02ec 08       		.byte	0x8
 10353 02ed FF       		.byte	0xff
 10354 02ee 1A       		.byte	0x1a
 10355 02ef 40       		.byte	0x40
 10356 02f0 24       		.byte	0x24
 10357 02f1 21       		.byte	0x21
 10358 02f2 91       		.byte	0x91
 10359 02f3 4A       		.sleb128 -54
 10360 02f4 94       		.byte	0x94
 10361 02f5 01       		.byte	0x1
 10362 02f6 08       		.byte	0x8
 10363 02f7 FF       		.byte	0xff
 10364 02f8 1A       		.byte	0x1a
 10365 02f9 38       		.byte	0x38
 10366 02fa 24       		.byte	0x24
 10367 02fb 21       		.byte	0x21
 10368 02fc 91       		.byte	0x91
 10369 02fd 4B       		.sleb128 -53
 10370 02fe 94       		.byte	0x94
 10371 02ff 01       		.byte	0x1
 10372 0300 08       		.byte	0x8
 10373 0301 FF       		.byte	0xff
 10374 0302 1A       		.byte	0x1a
 10375 0303 21       		.byte	0x21
 10376 0304 40       		.byte	0x40
 10377 0305 26       		.byte	0x26
 10378 0306 9F       		.byte	0x9f
 10379 0307 93       		.byte	0x93
 10380 0308 04       		.uleb128 0x4
 10381 0309 91       		.byte	0x91
 10382 030a 4C       		.sleb128 -52
 10383 030b 94       		.byte	0x94
 10384 030c 01       		.byte	0x1
 10385 030d 08       		.byte	0x8
 10386 030e FF       		.byte	0xff
 10387 030f 1A       		.byte	0x1a
 10388 0310 48       		.byte	0x48
 10389 0311 24       		.byte	0x24
 10390 0312 91       		.byte	0x91
 10391 0313 4D       		.sleb128 -51
 10392 0314 94       		.byte	0x94
 10393 0315 01       		.byte	0x1
 10394 0316 08       		.byte	0x8
 10395 0317 FF       		.byte	0xff
 10396 0318 1A       		.byte	0x1a
 10397 0319 40       		.byte	0x40
 10398 031a 24       		.byte	0x24
 10399 031b 21       		.byte	0x21
 10400 031c 7C       		.byte	0x7c
 10401 031d 00       		.sleb128 0
 10402 031e 38       		.byte	0x38
 10403 031f 24       		.byte	0x24
 10404 0320 21       		.byte	0x21
 10405 0321 91       		.byte	0x91
 10406 0322 4F       		.sleb128 -49
 10407 0323 94       		.byte	0x94
 10408 0324 01       		.byte	0x1
ARM GAS  /tmp/ccp3ezWO.s 			page 210


 10409 0325 08       		.byte	0x8
 10410 0326 FF       		.byte	0xff
 10411 0327 1A       		.byte	0x1a
 10412 0328 21       		.byte	0x21
 10413 0329 40       		.byte	0x40
 10414 032a 26       		.byte	0x26
 10415 032b 9F       		.byte	0x9f
 10416 032c 93       		.byte	0x93
 10417 032d 04       		.uleb128 0x4
 10418 032e C40B0000 		.4byte	.LVL223-.Ltext0
 10419 0332 C70B0000 		.4byte	.LVL224-1-.Ltext0
 10420 0336 2000     		.2byte	0x20
 10421 0338 79       		.byte	0x79
 10422 0339 00       		.sleb128 0
 10423 033a 06       		.byte	0x6
 10424 033b 40       		.byte	0x40
 10425 033c 26       		.byte	0x26
 10426 033d 9F       		.byte	0x9f
 10427 033e 93       		.byte	0x93
 10428 033f 04       		.uleb128 0x4
 10429 0340 79       		.byte	0x79
 10430 0341 04       		.sleb128 4
 10431 0342 06       		.byte	0x6
 10432 0343 40       		.byte	0x40
 10433 0344 26       		.byte	0x26
 10434 0345 9F       		.byte	0x9f
 10435 0346 93       		.byte	0x93
 10436 0347 04       		.uleb128 0x4
 10437 0348 79       		.byte	0x79
 10438 0349 08       		.sleb128 8
 10439 034a 06       		.byte	0x6
 10440 034b 40       		.byte	0x40
 10441 034c 26       		.byte	0x26
 10442 034d 9F       		.byte	0x9f
 10443 034e 93       		.byte	0x93
 10444 034f 04       		.uleb128 0x4
 10445 0350 79       		.byte	0x79
 10446 0351 0C       		.sleb128 12
 10447 0352 06       		.byte	0x6
 10448 0353 40       		.byte	0x40
 10449 0354 26       		.byte	0x26
 10450 0355 9F       		.byte	0x9f
 10451 0356 93       		.byte	0x93
 10452 0357 04       		.uleb128 0x4
 10453 0358 00000000 		.4byte	0
 10454 035c 00000000 		.4byte	0
 10455              	.LLST45:
 10456 0360 9E0B0000 		.4byte	.LVL217-.Ltext0
 10457 0364 A20B0000 		.4byte	.LVL218-.Ltext0
 10458 0368 1800     		.2byte	0x18
 10459 036a 70       		.byte	0x70
 10460 036b 00       		.sleb128 0
 10461 036c 70       		.byte	0x70
 10462 036d 00       		.sleb128 0
 10463 036e 1E       		.byte	0x1e
 10464 036f 71       		.byte	0x71
 10465 0370 00       		.sleb128 0
ARM GAS  /tmp/ccp3ezWO.s 			page 211


 10466 0371 71       		.byte	0x71
 10467 0372 00       		.sleb128 0
 10468 0373 1E       		.byte	0x1e
 10469 0374 22       		.byte	0x22
 10470 0375 73       		.byte	0x73
 10471 0376 00       		.sleb128 0
 10472 0377 73       		.byte	0x73
 10473 0378 00       		.sleb128 0
 10474 0379 1E       		.byte	0x1e
 10475 037a 22       		.byte	0x22
 10476 037b 7E       		.byte	0x7e
 10477 037c 00       		.sleb128 0
 10478 037d 7E       		.byte	0x7e
 10479 037e 00       		.sleb128 0
 10480 037f 1E       		.byte	0x1e
 10481 0380 22       		.byte	0x22
 10482 0381 9F       		.byte	0x9f
 10483 0382 A20B0000 		.4byte	.LVL218-.Ltext0
 10484 0386 A60B0000 		.4byte	.LVL219-.Ltext0
 10485 038a 1E00     		.2byte	0x1e
 10486 038c 70       		.byte	0x70
 10487 038d 00       		.sleb128 0
 10488 038e 70       		.byte	0x70
 10489 038f 00       		.sleb128 0
 10490 0390 1E       		.byte	0x1e
 10491 0391 71       		.byte	0x71
 10492 0392 00       		.sleb128 0
 10493 0393 71       		.byte	0x71
 10494 0394 00       		.sleb128 0
 10495 0395 1E       		.byte	0x1e
 10496 0396 22       		.byte	0x22
 10497 0397 73       		.byte	0x73
 10498 0398 00       		.sleb128 0
 10499 0399 73       		.byte	0x73
 10500 039a 00       		.sleb128 0
 10501 039b 1E       		.byte	0x1e
 10502 039c 22       		.byte	0x22
 10503 039d 79       		.byte	0x79
 10504 039e 04       		.sleb128 4
 10505 039f 06       		.byte	0x6
 10506 03a0 40       		.byte	0x40
 10507 03a1 26       		.byte	0x26
 10508 03a2 79       		.byte	0x79
 10509 03a3 04       		.sleb128 4
 10510 03a4 06       		.byte	0x6
 10511 03a5 40       		.byte	0x40
 10512 03a6 26       		.byte	0x26
 10513 03a7 1E       		.byte	0x1e
 10514 03a8 22       		.byte	0x22
 10515 03a9 9F       		.byte	0x9f
 10516 03aa A60B0000 		.4byte	.LVL219-.Ltext0
 10517 03ae AA0B0000 		.4byte	.LVL220-.Ltext0
 10518 03b2 2400     		.2byte	0x24
 10519 03b4 79       		.byte	0x79
 10520 03b5 00       		.sleb128 0
 10521 03b6 06       		.byte	0x6
 10522 03b7 40       		.byte	0x40
ARM GAS  /tmp/ccp3ezWO.s 			page 212


 10523 03b8 26       		.byte	0x26
 10524 03b9 79       		.byte	0x79
 10525 03ba 00       		.sleb128 0
 10526 03bb 06       		.byte	0x6
 10527 03bc 40       		.byte	0x40
 10528 03bd 26       		.byte	0x26
 10529 03be 1E       		.byte	0x1e
 10530 03bf 71       		.byte	0x71
 10531 03c0 00       		.sleb128 0
 10532 03c1 71       		.byte	0x71
 10533 03c2 00       		.sleb128 0
 10534 03c3 1E       		.byte	0x1e
 10535 03c4 22       		.byte	0x22
 10536 03c5 73       		.byte	0x73
 10537 03c6 00       		.sleb128 0
 10538 03c7 73       		.byte	0x73
 10539 03c8 00       		.sleb128 0
 10540 03c9 1E       		.byte	0x1e
 10541 03ca 22       		.byte	0x22
 10542 03cb 79       		.byte	0x79
 10543 03cc 04       		.sleb128 4
 10544 03cd 06       		.byte	0x6
 10545 03ce 40       		.byte	0x40
 10546 03cf 26       		.byte	0x26
 10547 03d0 79       		.byte	0x79
 10548 03d1 04       		.sleb128 4
 10549 03d2 06       		.byte	0x6
 10550 03d3 40       		.byte	0x40
 10551 03d4 26       		.byte	0x26
 10552 03d5 1E       		.byte	0x1e
 10553 03d6 22       		.byte	0x22
 10554 03d7 9F       		.byte	0x9f
 10555 03d8 AA0B0000 		.4byte	.LVL220-.Ltext0
 10556 03dc AE0B0000 		.4byte	.LVL221-.Ltext0
 10557 03e0 2A00     		.2byte	0x2a
 10558 03e2 79       		.byte	0x79
 10559 03e3 00       		.sleb128 0
 10560 03e4 06       		.byte	0x6
 10561 03e5 40       		.byte	0x40
 10562 03e6 26       		.byte	0x26
 10563 03e7 79       		.byte	0x79
 10564 03e8 00       		.sleb128 0
 10565 03e9 06       		.byte	0x6
 10566 03ea 40       		.byte	0x40
 10567 03eb 26       		.byte	0x26
 10568 03ec 1E       		.byte	0x1e
 10569 03ed 79       		.byte	0x79
 10570 03ee 08       		.sleb128 8
 10571 03ef 06       		.byte	0x6
 10572 03f0 40       		.byte	0x40
 10573 03f1 26       		.byte	0x26
 10574 03f2 79       		.byte	0x79
 10575 03f3 08       		.sleb128 8
 10576 03f4 06       		.byte	0x6
 10577 03f5 40       		.byte	0x40
 10578 03f6 26       		.byte	0x26
 10579 03f7 1E       		.byte	0x1e
ARM GAS  /tmp/ccp3ezWO.s 			page 213


 10580 03f8 22       		.byte	0x22
 10581 03f9 73       		.byte	0x73
 10582 03fa 00       		.sleb128 0
 10583 03fb 73       		.byte	0x73
 10584 03fc 00       		.sleb128 0
 10585 03fd 1E       		.byte	0x1e
 10586 03fe 22       		.byte	0x22
 10587 03ff 79       		.byte	0x79
 10588 0400 04       		.sleb128 4
 10589 0401 06       		.byte	0x6
 10590 0402 40       		.byte	0x40
 10591 0403 26       		.byte	0x26
 10592 0404 79       		.byte	0x79
 10593 0405 04       		.sleb128 4
 10594 0406 06       		.byte	0x6
 10595 0407 40       		.byte	0x40
 10596 0408 26       		.byte	0x26
 10597 0409 1E       		.byte	0x1e
 10598 040a 22       		.byte	0x22
 10599 040b 9F       		.byte	0x9f
 10600 040c AE0B0000 		.4byte	.LVL221-.Ltext0
 10601 0410 C00B0000 		.4byte	.LVL222-.Ltext0
 10602 0414 3000     		.2byte	0x30
 10603 0416 79       		.byte	0x79
 10604 0417 00       		.sleb128 0
 10605 0418 06       		.byte	0x6
 10606 0419 40       		.byte	0x40
 10607 041a 26       		.byte	0x26
 10608 041b 79       		.byte	0x79
 10609 041c 00       		.sleb128 0
 10610 041d 06       		.byte	0x6
 10611 041e 40       		.byte	0x40
 10612 041f 26       		.byte	0x26
 10613 0420 1E       		.byte	0x1e
 10614 0421 79       		.byte	0x79
 10615 0422 08       		.sleb128 8
 10616 0423 06       		.byte	0x6
 10617 0424 40       		.byte	0x40
 10618 0425 26       		.byte	0x26
 10619 0426 79       		.byte	0x79
 10620 0427 08       		.sleb128 8
 10621 0428 06       		.byte	0x6
 10622 0429 40       		.byte	0x40
 10623 042a 26       		.byte	0x26
 10624 042b 1E       		.byte	0x1e
 10625 042c 22       		.byte	0x22
 10626 042d 79       		.byte	0x79
 10627 042e 0C       		.sleb128 12
 10628 042f 06       		.byte	0x6
 10629 0430 40       		.byte	0x40
 10630 0431 26       		.byte	0x26
 10631 0432 79       		.byte	0x79
 10632 0433 0C       		.sleb128 12
 10633 0434 06       		.byte	0x6
 10634 0435 40       		.byte	0x40
 10635 0436 26       		.byte	0x26
 10636 0437 1E       		.byte	0x1e
ARM GAS  /tmp/ccp3ezWO.s 			page 214


 10637 0438 22       		.byte	0x22
 10638 0439 79       		.byte	0x79
 10639 043a 04       		.sleb128 4
 10640 043b 06       		.byte	0x6
 10641 043c 40       		.byte	0x40
 10642 043d 26       		.byte	0x26
 10643 043e 79       		.byte	0x79
 10644 043f 04       		.sleb128 4
 10645 0440 06       		.byte	0x6
 10646 0441 40       		.byte	0x40
 10647 0442 26       		.byte	0x26
 10648 0443 1E       		.byte	0x1e
 10649 0444 22       		.byte	0x22
 10650 0445 9F       		.byte	0x9f
 10651 0446 C00B0000 		.4byte	.LVL222-.Ltext0
 10652 044a C40B0000 		.4byte	.LVL223-.Ltext0
 10653 044e 3601     		.2byte	0x136
 10654 0450 7D       		.byte	0x7d
 10655 0451 00       		.sleb128 0
 10656 0452 94       		.byte	0x94
 10657 0453 01       		.byte	0x1
 10658 0454 08       		.byte	0x8
 10659 0455 FF       		.byte	0xff
 10660 0456 1A       		.byte	0x1a
 10661 0457 48       		.byte	0x48
 10662 0458 24       		.byte	0x24
 10663 0459 91       		.byte	0x91
 10664 045a 41       		.sleb128 -63
 10665 045b 94       		.byte	0x94
 10666 045c 01       		.byte	0x1
 10667 045d 08       		.byte	0x8
 10668 045e FF       		.byte	0xff
 10669 045f 1A       		.byte	0x1a
 10670 0460 40       		.byte	0x40
 10671 0461 24       		.byte	0x24
 10672 0462 21       		.byte	0x21
 10673 0463 91       		.byte	0x91
 10674 0464 42       		.sleb128 -62
 10675 0465 94       		.byte	0x94
 10676 0466 01       		.byte	0x1
 10677 0467 08       		.byte	0x8
 10678 0468 FF       		.byte	0xff
 10679 0469 1A       		.byte	0x1a
 10680 046a 38       		.byte	0x38
 10681 046b 24       		.byte	0x24
 10682 046c 21       		.byte	0x21
 10683 046d 91       		.byte	0x91
 10684 046e 43       		.sleb128 -61
 10685 046f 94       		.byte	0x94
 10686 0470 01       		.byte	0x1
 10687 0471 08       		.byte	0x8
 10688 0472 FF       		.byte	0xff
 10689 0473 1A       		.byte	0x1a
 10690 0474 21       		.byte	0x21
 10691 0475 40       		.byte	0x40
 10692 0476 26       		.byte	0x26
 10693 0477 7D       		.byte	0x7d
ARM GAS  /tmp/ccp3ezWO.s 			page 215


 10694 0478 00       		.sleb128 0
 10695 0479 94       		.byte	0x94
 10696 047a 01       		.byte	0x1
 10697 047b 08       		.byte	0x8
 10698 047c FF       		.byte	0xff
 10699 047d 1A       		.byte	0x1a
 10700 047e 48       		.byte	0x48
 10701 047f 24       		.byte	0x24
 10702 0480 91       		.byte	0x91
 10703 0481 41       		.sleb128 -63
 10704 0482 94       		.byte	0x94
 10705 0483 01       		.byte	0x1
 10706 0484 08       		.byte	0x8
 10707 0485 FF       		.byte	0xff
 10708 0486 1A       		.byte	0x1a
 10709 0487 40       		.byte	0x40
 10710 0488 24       		.byte	0x24
 10711 0489 21       		.byte	0x21
 10712 048a 91       		.byte	0x91
 10713 048b 42       		.sleb128 -62
 10714 048c 94       		.byte	0x94
 10715 048d 01       		.byte	0x1
 10716 048e 08       		.byte	0x8
 10717 048f FF       		.byte	0xff
 10718 0490 1A       		.byte	0x1a
 10719 0491 38       		.byte	0x38
 10720 0492 24       		.byte	0x24
 10721 0493 21       		.byte	0x21
 10722 0494 91       		.byte	0x91
 10723 0495 43       		.sleb128 -61
 10724 0496 94       		.byte	0x94
 10725 0497 01       		.byte	0x1
 10726 0498 08       		.byte	0x8
 10727 0499 FF       		.byte	0xff
 10728 049a 1A       		.byte	0x1a
 10729 049b 21       		.byte	0x21
 10730 049c 40       		.byte	0x40
 10731 049d 26       		.byte	0x26
 10732 049e 1E       		.byte	0x1e
 10733 049f 91       		.byte	0x91
 10734 04a0 48       		.sleb128 -56
 10735 04a1 94       		.byte	0x94
 10736 04a2 01       		.byte	0x1
 10737 04a3 08       		.byte	0x8
 10738 04a4 FF       		.byte	0xff
 10739 04a5 1A       		.byte	0x1a
 10740 04a6 48       		.byte	0x48
 10741 04a7 24       		.byte	0x24
 10742 04a8 91       		.byte	0x91
 10743 04a9 49       		.sleb128 -55
 10744 04aa 94       		.byte	0x94
 10745 04ab 01       		.byte	0x1
 10746 04ac 08       		.byte	0x8
 10747 04ad FF       		.byte	0xff
 10748 04ae 1A       		.byte	0x1a
 10749 04af 40       		.byte	0x40
 10750 04b0 24       		.byte	0x24
ARM GAS  /tmp/ccp3ezWO.s 			page 216


 10751 04b1 21       		.byte	0x21
 10752 04b2 91       		.byte	0x91
 10753 04b3 4A       		.sleb128 -54
 10754 04b4 94       		.byte	0x94
 10755 04b5 01       		.byte	0x1
 10756 04b6 08       		.byte	0x8
 10757 04b7 FF       		.byte	0xff
 10758 04b8 1A       		.byte	0x1a
 10759 04b9 38       		.byte	0x38
 10760 04ba 24       		.byte	0x24
 10761 04bb 21       		.byte	0x21
 10762 04bc 91       		.byte	0x91
 10763 04bd 4B       		.sleb128 -53
 10764 04be 94       		.byte	0x94
 10765 04bf 01       		.byte	0x1
 10766 04c0 08       		.byte	0x8
 10767 04c1 FF       		.byte	0xff
 10768 04c2 1A       		.byte	0x1a
 10769 04c3 21       		.byte	0x21
 10770 04c4 40       		.byte	0x40
 10771 04c5 26       		.byte	0x26
 10772 04c6 91       		.byte	0x91
 10773 04c7 48       		.sleb128 -56
 10774 04c8 94       		.byte	0x94
 10775 04c9 01       		.byte	0x1
 10776 04ca 08       		.byte	0x8
 10777 04cb FF       		.byte	0xff
 10778 04cc 1A       		.byte	0x1a
 10779 04cd 48       		.byte	0x48
 10780 04ce 24       		.byte	0x24
 10781 04cf 91       		.byte	0x91
 10782 04d0 49       		.sleb128 -55
 10783 04d1 94       		.byte	0x94
 10784 04d2 01       		.byte	0x1
 10785 04d3 08       		.byte	0x8
 10786 04d4 FF       		.byte	0xff
 10787 04d5 1A       		.byte	0x1a
 10788 04d6 40       		.byte	0x40
 10789 04d7 24       		.byte	0x24
 10790 04d8 21       		.byte	0x21
 10791 04d9 91       		.byte	0x91
 10792 04da 4A       		.sleb128 -54
 10793 04db 94       		.byte	0x94
 10794 04dc 01       		.byte	0x1
 10795 04dd 08       		.byte	0x8
 10796 04de FF       		.byte	0xff
 10797 04df 1A       		.byte	0x1a
 10798 04e0 38       		.byte	0x38
 10799 04e1 24       		.byte	0x24
 10800 04e2 21       		.byte	0x21
 10801 04e3 91       		.byte	0x91
 10802 04e4 4B       		.sleb128 -53
 10803 04e5 94       		.byte	0x94
 10804 04e6 01       		.byte	0x1
 10805 04e7 08       		.byte	0x8
 10806 04e8 FF       		.byte	0xff
 10807 04e9 1A       		.byte	0x1a
ARM GAS  /tmp/ccp3ezWO.s 			page 217


 10808 04ea 21       		.byte	0x21
 10809 04eb 40       		.byte	0x40
 10810 04ec 26       		.byte	0x26
 10811 04ed 1E       		.byte	0x1e
 10812 04ee 22       		.byte	0x22
 10813 04ef 91       		.byte	0x91
 10814 04f0 4C       		.sleb128 -52
 10815 04f1 94       		.byte	0x94
 10816 04f2 01       		.byte	0x1
 10817 04f3 08       		.byte	0x8
 10818 04f4 FF       		.byte	0xff
 10819 04f5 1A       		.byte	0x1a
 10820 04f6 48       		.byte	0x48
 10821 04f7 24       		.byte	0x24
 10822 04f8 91       		.byte	0x91
 10823 04f9 4D       		.sleb128 -51
 10824 04fa 94       		.byte	0x94
 10825 04fb 01       		.byte	0x1
 10826 04fc 08       		.byte	0x8
 10827 04fd FF       		.byte	0xff
 10828 04fe 1A       		.byte	0x1a
 10829 04ff 40       		.byte	0x40
 10830 0500 24       		.byte	0x24
 10831 0501 21       		.byte	0x21
 10832 0502 7C       		.byte	0x7c
 10833 0503 00       		.sleb128 0
 10834 0504 38       		.byte	0x38
 10835 0505 24       		.byte	0x24
 10836 0506 21       		.byte	0x21
 10837 0507 91       		.byte	0x91
 10838 0508 4F       		.sleb128 -49
 10839 0509 94       		.byte	0x94
 10840 050a 01       		.byte	0x1
 10841 050b 08       		.byte	0x8
 10842 050c FF       		.byte	0xff
 10843 050d 1A       		.byte	0x1a
 10844 050e 21       		.byte	0x21
 10845 050f 40       		.byte	0x40
 10846 0510 26       		.byte	0x26
 10847 0511 91       		.byte	0x91
 10848 0512 4C       		.sleb128 -52
 10849 0513 94       		.byte	0x94
 10850 0514 01       		.byte	0x1
 10851 0515 08       		.byte	0x8
 10852 0516 FF       		.byte	0xff
 10853 0517 1A       		.byte	0x1a
 10854 0518 48       		.byte	0x48
 10855 0519 24       		.byte	0x24
 10856 051a 91       		.byte	0x91
 10857 051b 4D       		.sleb128 -51
 10858 051c 94       		.byte	0x94
 10859 051d 01       		.byte	0x1
 10860 051e 08       		.byte	0x8
 10861 051f FF       		.byte	0xff
 10862 0520 1A       		.byte	0x1a
 10863 0521 40       		.byte	0x40
 10864 0522 24       		.byte	0x24
ARM GAS  /tmp/ccp3ezWO.s 			page 218


 10865 0523 21       		.byte	0x21
 10866 0524 7C       		.byte	0x7c
 10867 0525 00       		.sleb128 0
 10868 0526 38       		.byte	0x38
 10869 0527 24       		.byte	0x24
 10870 0528 21       		.byte	0x21
 10871 0529 91       		.byte	0x91
 10872 052a 4F       		.sleb128 -49
 10873 052b 94       		.byte	0x94
 10874 052c 01       		.byte	0x1
 10875 052d 08       		.byte	0x8
 10876 052e FF       		.byte	0xff
 10877 052f 1A       		.byte	0x1a
 10878 0530 21       		.byte	0x21
 10879 0531 40       		.byte	0x40
 10880 0532 26       		.byte	0x26
 10881 0533 1E       		.byte	0x1e
 10882 0534 22       		.byte	0x22
 10883 0535 91       		.byte	0x91
 10884 0536 44       		.sleb128 -60
 10885 0537 94       		.byte	0x94
 10886 0538 01       		.byte	0x1
 10887 0539 08       		.byte	0x8
 10888 053a FF       		.byte	0xff
 10889 053b 1A       		.byte	0x1a
 10890 053c 48       		.byte	0x48
 10891 053d 24       		.byte	0x24
 10892 053e 91       		.byte	0x91
 10893 053f 45       		.sleb128 -59
 10894 0540 94       		.byte	0x94
 10895 0541 01       		.byte	0x1
 10896 0542 08       		.byte	0x8
 10897 0543 FF       		.byte	0xff
 10898 0544 1A       		.byte	0x1a
 10899 0545 40       		.byte	0x40
 10900 0546 24       		.byte	0x24
 10901 0547 21       		.byte	0x21
 10902 0548 91       		.byte	0x91
 10903 0549 46       		.sleb128 -58
 10904 054a 94       		.byte	0x94
 10905 054b 01       		.byte	0x1
 10906 054c 08       		.byte	0x8
 10907 054d FF       		.byte	0xff
 10908 054e 1A       		.byte	0x1a
 10909 054f 38       		.byte	0x38
 10910 0550 24       		.byte	0x24
 10911 0551 21       		.byte	0x21
 10912 0552 91       		.byte	0x91
 10913 0553 47       		.sleb128 -57
 10914 0554 94       		.byte	0x94
 10915 0555 01       		.byte	0x1
 10916 0556 08       		.byte	0x8
 10917 0557 FF       		.byte	0xff
 10918 0558 1A       		.byte	0x1a
 10919 0559 21       		.byte	0x21
 10920 055a 40       		.byte	0x40
 10921 055b 26       		.byte	0x26
ARM GAS  /tmp/ccp3ezWO.s 			page 219


 10922 055c 91       		.byte	0x91
 10923 055d 44       		.sleb128 -60
 10924 055e 94       		.byte	0x94
 10925 055f 01       		.byte	0x1
 10926 0560 08       		.byte	0x8
 10927 0561 FF       		.byte	0xff
 10928 0562 1A       		.byte	0x1a
 10929 0563 48       		.byte	0x48
 10930 0564 24       		.byte	0x24
 10931 0565 91       		.byte	0x91
 10932 0566 45       		.sleb128 -59
 10933 0567 94       		.byte	0x94
 10934 0568 01       		.byte	0x1
 10935 0569 08       		.byte	0x8
 10936 056a FF       		.byte	0xff
 10937 056b 1A       		.byte	0x1a
 10938 056c 40       		.byte	0x40
 10939 056d 24       		.byte	0x24
 10940 056e 21       		.byte	0x21
 10941 056f 91       		.byte	0x91
 10942 0570 46       		.sleb128 -58
 10943 0571 94       		.byte	0x94
 10944 0572 01       		.byte	0x1
 10945 0573 08       		.byte	0x8
 10946 0574 FF       		.byte	0xff
 10947 0575 1A       		.byte	0x1a
 10948 0576 38       		.byte	0x38
 10949 0577 24       		.byte	0x24
 10950 0578 21       		.byte	0x21
 10951 0579 91       		.byte	0x91
 10952 057a 47       		.sleb128 -57
 10953 057b 94       		.byte	0x94
 10954 057c 01       		.byte	0x1
 10955 057d 08       		.byte	0x8
 10956 057e FF       		.byte	0xff
 10957 057f 1A       		.byte	0x1a
 10958 0580 21       		.byte	0x21
 10959 0581 40       		.byte	0x40
 10960 0582 26       		.byte	0x26
 10961 0583 1E       		.byte	0x1e
 10962 0584 22       		.byte	0x22
 10963 0585 9F       		.byte	0x9f
 10964 0586 C40B0000 		.4byte	.LVL223-.Ltext0
 10965 058a C70B0000 		.4byte	.LVL224-1-.Ltext0
 10966 058e 3000     		.2byte	0x30
 10967 0590 79       		.byte	0x79
 10968 0591 00       		.sleb128 0
 10969 0592 06       		.byte	0x6
 10970 0593 40       		.byte	0x40
 10971 0594 26       		.byte	0x26
 10972 0595 79       		.byte	0x79
 10973 0596 00       		.sleb128 0
 10974 0597 06       		.byte	0x6
 10975 0598 40       		.byte	0x40
 10976 0599 26       		.byte	0x26
 10977 059a 1E       		.byte	0x1e
 10978 059b 79       		.byte	0x79
ARM GAS  /tmp/ccp3ezWO.s 			page 220


 10979 059c 08       		.sleb128 8
 10980 059d 06       		.byte	0x6
 10981 059e 40       		.byte	0x40
 10982 059f 26       		.byte	0x26
 10983 05a0 79       		.byte	0x79
 10984 05a1 08       		.sleb128 8
 10985 05a2 06       		.byte	0x6
 10986 05a3 40       		.byte	0x40
 10987 05a4 26       		.byte	0x26
 10988 05a5 1E       		.byte	0x1e
 10989 05a6 22       		.byte	0x22
 10990 05a7 79       		.byte	0x79
 10991 05a8 0C       		.sleb128 12
 10992 05a9 06       		.byte	0x6
 10993 05aa 40       		.byte	0x40
 10994 05ab 26       		.byte	0x26
 10995 05ac 79       		.byte	0x79
 10996 05ad 0C       		.sleb128 12
 10997 05ae 06       		.byte	0x6
 10998 05af 40       		.byte	0x40
 10999 05b0 26       		.byte	0x26
 11000 05b1 1E       		.byte	0x1e
 11001 05b2 22       		.byte	0x22
 11002 05b3 79       		.byte	0x79
 11003 05b4 04       		.sleb128 4
 11004 05b5 06       		.byte	0x6
 11005 05b6 40       		.byte	0x40
 11006 05b7 26       		.byte	0x26
 11007 05b8 79       		.byte	0x79
 11008 05b9 04       		.sleb128 4
 11009 05ba 06       		.byte	0x6
 11010 05bb 40       		.byte	0x40
 11011 05bc 26       		.byte	0x26
 11012 05bd 1E       		.byte	0x1e
 11013 05be 22       		.byte	0x22
 11014 05bf 9F       		.byte	0x9f
 11015 05c0 00000000 		.4byte	0
 11016 05c4 00000000 		.4byte	0
 11017              	.LLST46:
 11018 05c8 6C0C0000 		.4byte	.LVL235-.Ltext0
 11019 05cc 9E0C0000 		.4byte	.LVL241-.Ltext0
 11020 05d0 0100     		.2byte	0x1
 11021 05d2 54       		.byte	0x54
 11022 05d3 00000000 		.4byte	0
 11023 05d7 00000000 		.4byte	0
 11024              	.LLST47:
 11025 05db 6E0C0000 		.4byte	.LVL236-.Ltext0
 11026 05df 9E0C0000 		.4byte	.LVL241-.Ltext0
 11027 05e3 0600     		.2byte	0x6
 11028 05e5 75       		.byte	0x75
 11029 05e6 00       		.sleb128 0
 11030 05e7 08       		.byte	0x8
 11031 05e8 3F       		.byte	0x3f
 11032 05e9 1A       		.byte	0x1a
 11033 05ea 9F       		.byte	0x9f
 11034 05eb 00000000 		.4byte	0
 11035 05ef 00000000 		.4byte	0
ARM GAS  /tmp/ccp3ezWO.s 			page 221


 11036              	.LLST48:
 11037 05f3 6E0C0000 		.4byte	.LVL236-.Ltext0
 11038 05f7 9E0C0000 		.4byte	.LVL241-.Ltext0
 11039 05fb 0600     		.2byte	0x6
 11040 05fd 75       		.byte	0x75
 11041 05fe 00       		.sleb128 0
 11042 05ff 09       		.byte	0x9
 11043 0600 C0       		.byte	0xc0
 11044 0601 1A       		.byte	0x1a
 11045 0602 9F       		.byte	0x9f
 11046 0603 00000000 		.4byte	0
 11047 0607 00000000 		.4byte	0
 11048              	.LLST49:
 11049 060b 760C0000 		.4byte	.LVL238-.Ltext0
 11050 060f 880C0000 		.4byte	.LVL239-.Ltext0
 11051 0613 0700     		.2byte	0x7
 11052 0615 75       		.byte	0x75
 11053 0616 00       		.sleb128 0
 11054 0617 33       		.byte	0x33
 11055 0618 25       		.byte	0x25
 11056 0619 37       		.byte	0x37
 11057 061a 1A       		.byte	0x1a
 11058 061b 9F       		.byte	0x9f
 11059 061c 00000000 		.4byte	0
 11060 0620 00000000 		.4byte	0
 11061              	.LLST50:
 11062 0624 760C0000 		.4byte	.LVL238-.Ltext0
 11063 0628 880C0000 		.4byte	.LVL239-.Ltext0
 11064 062c 0700     		.2byte	0x7
 11065 062e 75       		.byte	0x75
 11066 062f 00       		.sleb128 0
 11067 0630 37       		.byte	0x37
 11068 0631 1A       		.byte	0x1a
 11069 0632 23       		.byte	0x23
 11070 0633 01       		.uleb128 0x1
 11071 0634 9F       		.byte	0x9f
 11072 0635 00000000 		.4byte	0
 11073 0639 00000000 		.4byte	0
 11074              	.LLST36:
 11075 063d 700A0000 		.4byte	.LVL202-.Ltext0
 11076 0641 7E0A0000 		.4byte	.LVL203-.Ltext0
 11077 0645 0100     		.2byte	0x1
 11078 0647 50       		.byte	0x50
 11079 0648 7E0A0000 		.4byte	.LVL203-.Ltext0
 11080 064c DC0A0000 		.4byte	.LFE88-.Ltext0
 11081 0650 0400     		.2byte	0x4
 11082 0652 F3       		.byte	0xf3
 11083 0653 01       		.uleb128 0x1
 11084 0654 50       		.byte	0x50
 11085 0655 9F       		.byte	0x9f
 11086 0656 00000000 		.4byte	0
 11087 065a 00000000 		.4byte	0
 11088              	.LLST34:
 11089 065e 40080000 		.4byte	.LVL176-.Ltext0
 11090 0662 66080000 		.4byte	.LVL177-.Ltext0
 11091 0666 0100     		.2byte	0x1
 11092 0668 50       		.byte	0x50
ARM GAS  /tmp/ccp3ezWO.s 			page 222


 11093 0669 66080000 		.4byte	.LVL177-.Ltext0
 11094 066d 74080000 		.4byte	.LVL180-.Ltext0
 11095 0671 0400     		.2byte	0x4
 11096 0673 F3       		.byte	0xf3
 11097 0674 01       		.uleb128 0x1
 11098 0675 50       		.byte	0x50
 11099 0676 9F       		.byte	0x9f
 11100 0677 74080000 		.4byte	.LVL180-.Ltext0
 11101 067b 7C080000 		.4byte	.LFE86-.Ltext0
 11102 067f 0100     		.2byte	0x1
 11103 0681 50       		.byte	0x50
 11104 0682 00000000 		.4byte	0
 11105 0686 00000000 		.4byte	0
 11106              	.LLST33:
 11107 068a 04080000 		.4byte	.LVL171-.Ltext0
 11108 068e 2A080000 		.4byte	.LVL172-.Ltext0
 11109 0692 0100     		.2byte	0x1
 11110 0694 50       		.byte	0x50
 11111 0695 2A080000 		.4byte	.LVL172-.Ltext0
 11112 0699 38080000 		.4byte	.LVL175-.Ltext0
 11113 069d 0400     		.2byte	0x4
 11114 069f F3       		.byte	0xf3
 11115 06a0 01       		.uleb128 0x1
 11116 06a1 50       		.byte	0x50
 11117 06a2 9F       		.byte	0x9f
 11118 06a3 38080000 		.4byte	.LVL175-.Ltext0
 11119 06a7 40080000 		.4byte	.LFE85-.Ltext0
 11120 06ab 0100     		.2byte	0x1
 11121 06ad 50       		.byte	0x50
 11122 06ae 00000000 		.4byte	0
 11123 06b2 00000000 		.4byte	0
 11124              	.LLST32:
 11125 06b6 B8070000 		.4byte	.LVL165-.Ltext0
 11126 06ba C4070000 		.4byte	.LVL166-.Ltext0
 11127 06be 0100     		.2byte	0x1
 11128 06c0 50       		.byte	0x50
 11129 06c1 C4070000 		.4byte	.LVL166-.Ltext0
 11130 06c5 DE070000 		.4byte	.LVL168-.Ltext0
 11131 06c9 0400     		.2byte	0x4
 11132 06cb F3       		.byte	0xf3
 11133 06cc 01       		.uleb128 0x1
 11134 06cd 50       		.byte	0x50
 11135 06ce 9F       		.byte	0x9f
 11136 06cf DE070000 		.4byte	.LVL168-.Ltext0
 11137 06d3 E4070000 		.4byte	.LVL169-.Ltext0
 11138 06d7 0100     		.2byte	0x1
 11139 06d9 50       		.byte	0x50
 11140 06da E4070000 		.4byte	.LVL169-.Ltext0
 11141 06de 04080000 		.4byte	.LFE84-.Ltext0
 11142 06e2 0400     		.2byte	0x4
 11143 06e4 F3       		.byte	0xf3
 11144 06e5 01       		.uleb128 0x1
 11145 06e6 50       		.byte	0x50
 11146 06e7 9F       		.byte	0x9f
 11147 06e8 00000000 		.4byte	0
 11148 06ec 00000000 		.4byte	0
 11149              	.LLST31:
ARM GAS  /tmp/ccp3ezWO.s 			page 223


 11150 06f0 A8070000 		.4byte	.LVL163-.Ltext0
 11151 06f4 B0070000 		.4byte	.LVL164-.Ltext0
 11152 06f8 0100     		.2byte	0x1
 11153 06fa 50       		.byte	0x50
 11154 06fb B0070000 		.4byte	.LVL164-.Ltext0
 11155 06ff B8070000 		.4byte	.LFE83-.Ltext0
 11156 0703 0400     		.2byte	0x4
 11157 0705 F3       		.byte	0xf3
 11158 0706 01       		.uleb128 0x1
 11159 0707 50       		.byte	0x50
 11160 0708 9F       		.byte	0x9f
 11161 0709 00000000 		.4byte	0
 11162 070d 00000000 		.4byte	0
 11163              	.LLST35:
 11164 0711 7C080000 		.4byte	.LVL181-.Ltext0
 11165 0715 A0080000 		.4byte	.LVL182-.Ltext0
 11166 0719 0100     		.2byte	0x1
 11167 071b 50       		.byte	0x50
 11168 071c A0080000 		.4byte	.LVL182-.Ltext0
 11169 0720 700A0000 		.4byte	.LFE82-.Ltext0
 11170 0724 0400     		.2byte	0x4
 11171 0726 F3       		.byte	0xf3
 11172 0727 01       		.uleb128 0x1
 11173 0728 50       		.byte	0x50
 11174 0729 9F       		.byte	0x9f
 11175 072a 00000000 		.4byte	0
 11176 072e 00000000 		.4byte	0
 11177              	.LLST30:
 11178 0732 6E070000 		.4byte	.LVL159-.Ltext0
 11179 0736 78070000 		.4byte	.LVL160-.Ltext0
 11180 073a 0100     		.2byte	0x1
 11181 073c 50       		.byte	0x50
 11182 073d 78070000 		.4byte	.LVL160-.Ltext0
 11183 0741 7A070000 		.4byte	.LVL161-.Ltext0
 11184 0745 0400     		.2byte	0x4
 11185 0747 F3       		.byte	0xf3
 11186 0748 01       		.uleb128 0x1
 11187 0749 50       		.byte	0x50
 11188 074a 9F       		.byte	0x9f
 11189 074b 7A070000 		.4byte	.LVL161-.Ltext0
 11190 074f 9B070000 		.4byte	.LVL162-1-.Ltext0
 11191 0753 0100     		.2byte	0x1
 11192 0755 53       		.byte	0x53
 11193 0756 9B070000 		.4byte	.LVL162-1-.Ltext0
 11194 075a A8070000 		.4byte	.LFE81-.Ltext0
 11195 075e 1F00     		.2byte	0x1f
 11196 0760 F3       		.byte	0xf3
 11197 0761 01       		.uleb128 0x1
 11198 0762 50       		.byte	0x50
 11199 0763 F7       		.byte	0xf7
 11200 0764 2C       		.uleb128 0x2c
 11201 0765 F7       		.byte	0xf7
 11202 0766 25       		.uleb128 0x25
 11203 0767 F4       		.byte	0xf4
 11204 0768 25       		.uleb128 0x25
 11205 0769 08       		.byte	0x8
 11206 076a CDCCCCCC 		.8byte	0xcccccccd
ARM GAS  /tmp/ccp3ezWO.s 			page 224


 11206      00000000 
 11207 0772 1E       		.byte	0x1e
 11208 0773 08       		.byte	0x8
 11209 0774 20       		.byte	0x20
 11210 0775 F7       		.byte	0xf7
 11211 0776 25       		.uleb128 0x25
 11212 0777 25       		.byte	0x25
 11213 0778 F7       		.byte	0xf7
 11214 0779 2C       		.uleb128 0x2c
 11215 077a F7       		.byte	0xf7
 11216 077b 00       		.uleb128 0
 11217 077c 34       		.byte	0x34
 11218 077d 25       		.byte	0x25
 11219 077e 9F       		.byte	0x9f
 11220 077f 00000000 		.4byte	0
 11221 0783 00000000 		.4byte	0
 11222              	.LLST29:
 11223 0787 1E070000 		.4byte	.LVL153-.Ltext0
 11224 078b 2E070000 		.4byte	.LVL154-.Ltext0
 11225 078f 0100     		.2byte	0x1
 11226 0791 50       		.byte	0x50
 11227 0792 2E070000 		.4byte	.LVL154-.Ltext0
 11228 0796 60070000 		.4byte	.LVL156-.Ltext0
 11229 079a 0100     		.2byte	0x1
 11230 079c 54       		.byte	0x54
 11231 079d 60070000 		.4byte	.LVL156-.Ltext0
 11232 07a1 66070000 		.4byte	.LVL157-.Ltext0
 11233 07a5 0100     		.2byte	0x1
 11234 07a7 50       		.byte	0x50
 11235 07a8 66070000 		.4byte	.LVL157-.Ltext0
 11236 07ac 68070000 		.4byte	.LVL158-.Ltext0
 11237 07b0 0400     		.2byte	0x4
 11238 07b2 F3       		.byte	0xf3
 11239 07b3 01       		.uleb128 0x1
 11240 07b4 50       		.byte	0x50
 11241 07b5 9F       		.byte	0x9f
 11242 07b6 68070000 		.4byte	.LVL158-.Ltext0
 11243 07ba 6E070000 		.4byte	.LFE80-.Ltext0
 11244 07be 0100     		.2byte	0x1
 11245 07c0 54       		.byte	0x54
 11246 07c1 00000000 		.4byte	0
 11247 07c5 00000000 		.4byte	0
 11248              	.LLST28:
 11249 07c9 F2060000 		.4byte	.LVL150-.Ltext0
 11250 07cd 14070000 		.4byte	.LVL151-.Ltext0
 11251 07d1 0100     		.2byte	0x1
 11252 07d3 50       		.byte	0x50
 11253 07d4 14070000 		.4byte	.LVL151-.Ltext0
 11254 07d8 1E070000 		.4byte	.LFE79-.Ltext0
 11255 07dc 0400     		.2byte	0x4
 11256 07de F3       		.byte	0xf3
 11257 07df 01       		.uleb128 0x1
 11258 07e0 50       		.byte	0x50
 11259 07e1 9F       		.byte	0x9f
 11260 07e2 00000000 		.4byte	0
 11261 07e6 00000000 		.4byte	0
 11262              	.LLST27:
ARM GAS  /tmp/ccp3ezWO.s 			page 225


 11263 07ea A8060000 		.4byte	.LVL144-.Ltext0
 11264 07ee B8060000 		.4byte	.LVL145-.Ltext0
 11265 07f2 0100     		.2byte	0x1
 11266 07f4 50       		.byte	0x50
 11267 07f5 B8060000 		.4byte	.LVL145-.Ltext0
 11268 07f9 E4060000 		.4byte	.LVL147-.Ltext0
 11269 07fd 0100     		.2byte	0x1
 11270 07ff 54       		.byte	0x54
 11271 0800 E4060000 		.4byte	.LVL147-.Ltext0
 11272 0804 EA060000 		.4byte	.LVL148-.Ltext0
 11273 0808 0100     		.2byte	0x1
 11274 080a 50       		.byte	0x50
 11275 080b EA060000 		.4byte	.LVL148-.Ltext0
 11276 080f EC060000 		.4byte	.LVL149-.Ltext0
 11277 0813 0400     		.2byte	0x4
 11278 0815 F3       		.byte	0xf3
 11279 0816 01       		.uleb128 0x1
 11280 0817 50       		.byte	0x50
 11281 0818 9F       		.byte	0x9f
 11282 0819 EC060000 		.4byte	.LVL149-.Ltext0
 11283 081d F2060000 		.4byte	.LFE78-.Ltext0
 11284 0821 0100     		.2byte	0x1
 11285 0823 54       		.byte	0x54
 11286 0824 00000000 		.4byte	0
 11287 0828 00000000 		.4byte	0
 11288              	.LLST26:
 11289 082c 7C060000 		.4byte	.LVL139-.Ltext0
 11290 0830 86060000 		.4byte	.LVL140-.Ltext0
 11291 0834 0100     		.2byte	0x1
 11292 0836 50       		.byte	0x50
 11293 0837 86060000 		.4byte	.LVL140-.Ltext0
 11294 083b 88060000 		.4byte	.LVL141-.Ltext0
 11295 083f 0400     		.2byte	0x4
 11296 0841 F3       		.byte	0xf3
 11297 0842 01       		.uleb128 0x1
 11298 0843 50       		.byte	0x50
 11299 0844 9F       		.byte	0x9f
 11300 0845 88060000 		.4byte	.LVL141-.Ltext0
 11301 0849 9A060000 		.4byte	.LVL142-.Ltext0
 11302 084d 0100     		.2byte	0x1
 11303 084f 50       		.byte	0x50
 11304 0850 00000000 		.4byte	0
 11305 0854 00000000 		.4byte	0
 11306              	.LLST25:
 11307 0858 50060000 		.4byte	.LVL134-.Ltext0
 11308 085c 5A060000 		.4byte	.LVL135-.Ltext0
 11309 0860 0100     		.2byte	0x1
 11310 0862 50       		.byte	0x50
 11311 0863 5A060000 		.4byte	.LVL135-.Ltext0
 11312 0867 5C060000 		.4byte	.LVL136-.Ltext0
 11313 086b 0400     		.2byte	0x4
 11314 086d F3       		.byte	0xf3
 11315 086e 01       		.uleb128 0x1
 11316 086f 50       		.byte	0x50
 11317 0870 9F       		.byte	0x9f
 11318 0871 5C060000 		.4byte	.LVL136-.Ltext0
 11319 0875 6E060000 		.4byte	.LVL137-.Ltext0
ARM GAS  /tmp/ccp3ezWO.s 			page 226


 11320 0879 0100     		.2byte	0x1
 11321 087b 50       		.byte	0x50
 11322 087c 00000000 		.4byte	0
 11323 0880 00000000 		.4byte	0
 11324              	.LLST22:
 11325 0884 10060000 		.4byte	.LVL129-.Ltext0
 11326 0888 1C060000 		.4byte	.LVL130-.Ltext0
 11327 088c 0100     		.2byte	0x1
 11328 088e 50       		.byte	0x50
 11329 088f 1C060000 		.4byte	.LVL130-.Ltext0
 11330 0893 50060000 		.4byte	.LFE75-.Ltext0
 11331 0897 0400     		.2byte	0x4
 11332 0899 F3       		.byte	0xf3
 11333 089a 01       		.uleb128 0x1
 11334 089b 50       		.byte	0x50
 11335 089c 9F       		.byte	0x9f
 11336 089d 00000000 		.4byte	0
 11337 08a1 00000000 		.4byte	0
 11338              	.LLST23:
 11339 08a5 10060000 		.4byte	.LVL129-.Ltext0
 11340 08a9 24060000 		.4byte	.LVL131-.Ltext0
 11341 08ad 0100     		.2byte	0x1
 11342 08af 51       		.byte	0x51
 11343 08b0 24060000 		.4byte	.LVL131-.Ltext0
 11344 08b4 50060000 		.4byte	.LFE75-.Ltext0
 11345 08b8 0400     		.2byte	0x4
 11346 08ba F3       		.byte	0xf3
 11347 08bb 01       		.uleb128 0x1
 11348 08bc 51       		.byte	0x51
 11349 08bd 9F       		.byte	0x9f
 11350 08be 00000000 		.4byte	0
 11351 08c2 00000000 		.4byte	0
 11352              	.LLST24:
 11353 08c6 24060000 		.4byte	.LVL131-.Ltext0
 11354 08ca 3E060000 		.4byte	.LVL132-.Ltext0
 11355 08ce 0100     		.2byte	0x1
 11356 08d0 51       		.byte	0x51
 11357 08d1 00000000 		.4byte	0
 11358 08d5 00000000 		.4byte	0
 11359              	.LLST20:
 11360 08d9 E4050000 		.4byte	.LVL124-.Ltext0
 11361 08dd EE050000 		.4byte	.LVL125-.Ltext0
 11362 08e1 0100     		.2byte	0x1
 11363 08e3 50       		.byte	0x50
 11364 08e4 EE050000 		.4byte	.LVL125-.Ltext0
 11365 08e8 10060000 		.4byte	.LFE74-.Ltext0
 11366 08ec 0400     		.2byte	0x4
 11367 08ee F3       		.byte	0xf3
 11368 08ef 01       		.uleb128 0x1
 11369 08f0 50       		.byte	0x50
 11370 08f1 9F       		.byte	0x9f
 11371 08f2 00000000 		.4byte	0
 11372 08f6 00000000 		.4byte	0
 11373              	.LLST21:
 11374 08fa F0050000 		.4byte	.LVL126-.Ltext0
 11375 08fe 02060000 		.4byte	.LVL127-.Ltext0
 11376 0902 0100     		.2byte	0x1
ARM GAS  /tmp/ccp3ezWO.s 			page 227


 11377 0904 50       		.byte	0x50
 11378 0905 00000000 		.4byte	0
 11379 0909 00000000 		.4byte	0
 11380              	.LLST18:
 11381 090d B6050000 		.4byte	.LVL119-.Ltext0
 11382 0911 C0050000 		.4byte	.LVL120-.Ltext0
 11383 0915 0100     		.2byte	0x1
 11384 0917 50       		.byte	0x50
 11385 0918 C0050000 		.4byte	.LVL120-.Ltext0
 11386 091c E4050000 		.4byte	.LFE73-.Ltext0
 11387 0920 0400     		.2byte	0x4
 11388 0922 F3       		.byte	0xf3
 11389 0923 01       		.uleb128 0x1
 11390 0924 50       		.byte	0x50
 11391 0925 9F       		.byte	0x9f
 11392 0926 00000000 		.4byte	0
 11393 092a 00000000 		.4byte	0
 11394              	.LLST19:
 11395 092e C2050000 		.4byte	.LVL121-.Ltext0
 11396 0932 D4050000 		.4byte	.LVL122-.Ltext0
 11397 0936 0100     		.2byte	0x1
 11398 0938 50       		.byte	0x50
 11399 0939 00000000 		.4byte	0
 11400 093d 00000000 		.4byte	0
 11401              	.LLST17:
 11402 0941 8A050000 		.4byte	.LVL113-.Ltext0
 11403 0945 9A050000 		.4byte	.LVL114-.Ltext0
 11404 0949 0100     		.2byte	0x1
 11405 094b 50       		.byte	0x50
 11406 094c 9A050000 		.4byte	.LVL114-.Ltext0
 11407 0950 9C050000 		.4byte	.LVL115-.Ltext0
 11408 0954 0100     		.2byte	0x1
 11409 0956 50       		.byte	0x50
 11410 0957 B2050000 		.4byte	.LVL117-.Ltext0
 11411 095b B4050000 		.4byte	.LVL118-.Ltext0
 11412 095f 0100     		.2byte	0x1
 11413 0961 50       		.byte	0x50
 11414 0962 B4050000 		.4byte	.LVL118-.Ltext0
 11415 0966 B6050000 		.4byte	.LFE72-.Ltext0
 11416 096a 0400     		.2byte	0x4
 11417 096c F3       		.byte	0xf3
 11418 096d 01       		.uleb128 0x1
 11419 096e 50       		.byte	0x50
 11420 096f 9F       		.byte	0x9f
 11421 0970 00000000 		.4byte	0
 11422 0974 00000000 		.4byte	0
 11423              	.LLST16:
 11424 0978 40050000 		.4byte	.LVL110-.Ltext0
 11425 097c 80050000 		.4byte	.LVL111-.Ltext0
 11426 0980 0100     		.2byte	0x1
 11427 0982 50       		.byte	0x50
 11428 0983 80050000 		.4byte	.LVL111-.Ltext0
 11429 0987 8A050000 		.4byte	.LFE71-.Ltext0
 11430 098b 0400     		.2byte	0x4
 11431 098d F3       		.byte	0xf3
 11432 098e 01       		.uleb128 0x1
 11433 098f 50       		.byte	0x50
ARM GAS  /tmp/ccp3ezWO.s 			page 228


 11434 0990 9F       		.byte	0x9f
 11435 0991 00000000 		.4byte	0
 11436 0995 00000000 		.4byte	0
 11437              	.LLST11:
 11438 0999 9C030000 		.4byte	.LVL61-.Ltext0
 11439 099d B4030000 		.4byte	.LVL62-.Ltext0
 11440 09a1 0100     		.2byte	0x1
 11441 09a3 50       		.byte	0x50
 11442 09a4 B4030000 		.4byte	.LVL62-.Ltext0
 11443 09a8 06050000 		.4byte	.LVL104-.Ltext0
 11444 09ac 0400     		.2byte	0x4
 11445 09ae F3       		.byte	0xf3
 11446 09af 01       		.uleb128 0x1
 11447 09b0 50       		.byte	0x50
 11448 09b1 9F       		.byte	0x9f
 11449 09b2 06050000 		.4byte	.LVL104-.Ltext0
 11450 09b6 0A050000 		.4byte	.LVL105-.Ltext0
 11451 09ba 0100     		.2byte	0x1
 11452 09bc 50       		.byte	0x50
 11453 09bd 0A050000 		.4byte	.LVL105-.Ltext0
 11454 09c1 0C050000 		.4byte	.LVL106-.Ltext0
 11455 09c5 0400     		.2byte	0x4
 11456 09c7 F3       		.byte	0xf3
 11457 09c8 01       		.uleb128 0x1
 11458 09c9 50       		.byte	0x50
 11459 09ca 9F       		.byte	0x9f
 11460 09cb 0C050000 		.4byte	.LVL106-.Ltext0
 11461 09cf 10050000 		.4byte	.LVL107-.Ltext0
 11462 09d3 0100     		.2byte	0x1
 11463 09d5 50       		.byte	0x50
 11464 09d6 10050000 		.4byte	.LVL107-.Ltext0
 11465 09da 40050000 		.4byte	.LFE70-.Ltext0
 11466 09de 0400     		.2byte	0x4
 11467 09e0 F3       		.byte	0xf3
 11468 09e1 01       		.uleb128 0x1
 11469 09e2 50       		.byte	0x50
 11470 09e3 9F       		.byte	0x9f
 11471 09e4 00000000 		.4byte	0
 11472 09e8 00000000 		.4byte	0
 11473              	.LLST12:
 11474 09ec 9C030000 		.4byte	.LVL61-.Ltext0
 11475 09f0 B7030000 		.4byte	.LVL63-1-.Ltext0
 11476 09f4 0100     		.2byte	0x1
 11477 09f6 51       		.byte	0x51
 11478 09f7 B7030000 		.4byte	.LVL63-1-.Ltext0
 11479 09fb 06050000 		.4byte	.LVL104-.Ltext0
 11480 09ff 0400     		.2byte	0x4
 11481 0a01 F3       		.byte	0xf3
 11482 0a02 01       		.uleb128 0x1
 11483 0a03 51       		.byte	0x51
 11484 0a04 9F       		.byte	0x9f
 11485 0a05 06050000 		.4byte	.LVL104-.Ltext0
 11486 0a09 12050000 		.4byte	.LVL108-.Ltext0
 11487 0a0d 0100     		.2byte	0x1
 11488 0a0f 51       		.byte	0x51
 11489 0a10 12050000 		.4byte	.LVL108-.Ltext0
 11490 0a14 40050000 		.4byte	.LFE70-.Ltext0
ARM GAS  /tmp/ccp3ezWO.s 			page 229


 11491 0a18 0400     		.2byte	0x4
 11492 0a1a F3       		.byte	0xf3
 11493 0a1b 01       		.uleb128 0x1
 11494 0a1c 51       		.byte	0x51
 11495 0a1d 9F       		.byte	0x9f
 11496 0a1e 00000000 		.4byte	0
 11497 0a22 00000000 		.4byte	0
 11498              	.LLST13:
 11499 0a26 C0030000 		.4byte	.LVL65-.Ltext0
 11500 0a2a C4030000 		.4byte	.LVL66-.Ltext0
 11501 0a2e 0100     		.2byte	0x1
 11502 0a30 50       		.byte	0x50
 11503 0a31 C4030000 		.4byte	.LVL66-.Ltext0
 11504 0a35 06050000 		.4byte	.LVL104-.Ltext0
 11505 0a39 0100     		.2byte	0x1
 11506 0a3b 55       		.byte	0x55
 11507 0a3c 12050000 		.4byte	.LVL108-.Ltext0
 11508 0a40 40050000 		.4byte	.LFE70-.Ltext0
 11509 0a44 0100     		.2byte	0x1
 11510 0a46 55       		.byte	0x55
 11511 0a47 00000000 		.4byte	0
 11512 0a4b 00000000 		.4byte	0
 11513              	.LLST14:
 11514 0a4f F8030000 		.4byte	.LVL70-.Ltext0
 11515 0a53 2E040000 		.4byte	.LVL75-.Ltext0
 11516 0a57 0100     		.2byte	0x1
 11517 0a59 56       		.byte	0x56
 11518 0a5a 42040000 		.4byte	.LVL79-.Ltext0
 11519 0a5e 52040000 		.4byte	.LVL83-.Ltext0
 11520 0a62 0100     		.2byte	0x1
 11521 0a64 56       		.byte	0x56
 11522 0a65 62040000 		.4byte	.LVL86-.Ltext0
 11523 0a69 72040000 		.4byte	.LVL90-.Ltext0
 11524 0a6d 0100     		.2byte	0x1
 11525 0a6f 56       		.byte	0x56
 11526 0a70 82040000 		.4byte	.LVL93-.Ltext0
 11527 0a74 06050000 		.4byte	.LVL104-.Ltext0
 11528 0a78 0100     		.2byte	0x1
 11529 0a7a 56       		.byte	0x56
 11530 0a7b 18050000 		.4byte	.LVL109-.Ltext0
 11531 0a7f 40050000 		.4byte	.LFE70-.Ltext0
 11532 0a83 0100     		.2byte	0x1
 11533 0a85 56       		.byte	0x56
 11534 0a86 00000000 		.4byte	0
 11535 0a8a 00000000 		.4byte	0
 11536              	.LLST15:
 11537 0a8e 06040000 		.4byte	.LVL73-.Ltext0
 11538 0a92 20040000 		.4byte	.LVL74-.Ltext0
 11539 0a96 0100     		.2byte	0x1
 11540 0a98 50       		.byte	0x50
 11541 0a99 50040000 		.4byte	.LVL82-.Ltext0
 11542 0a9d 52040000 		.4byte	.LVL83-.Ltext0
 11543 0aa1 0100     		.2byte	0x1
 11544 0aa3 50       		.byte	0x50
 11545 0aa4 70040000 		.4byte	.LVL89-.Ltext0
 11546 0aa8 72040000 		.4byte	.LVL90-.Ltext0
 11547 0aac 0100     		.2byte	0x1
ARM GAS  /tmp/ccp3ezWO.s 			page 230


 11548 0aae 50       		.byte	0x50
 11549 0aaf 90040000 		.4byte	.LVL96-.Ltext0
 11550 0ab3 9A040000 		.4byte	.LVL97-.Ltext0
 11551 0ab7 0100     		.2byte	0x1
 11552 0ab9 50       		.byte	0x50
 11553 0aba 00000000 		.4byte	0
 11554 0abe 00000000 		.4byte	0
 11555              	.LLST10:
 11556 0ac2 8C030000 		.4byte	.LVL59-.Ltext0
 11557 0ac6 94030000 		.4byte	.LVL60-.Ltext0
 11558 0aca 0100     		.2byte	0x1
 11559 0acc 50       		.byte	0x50
 11560 0acd 94030000 		.4byte	.LVL60-.Ltext0
 11561 0ad1 9C030000 		.4byte	.LFE69-.Ltext0
 11562 0ad5 0400     		.2byte	0x4
 11563 0ad7 F3       		.byte	0xf3
 11564 0ad8 01       		.uleb128 0x1
 11565 0ad9 50       		.byte	0x50
 11566 0ada 9F       		.byte	0x9f
 11567 0adb 00000000 		.4byte	0
 11568 0adf 00000000 		.4byte	0
 11569              	.LLST8:
 11570 0ae3 20030000 		.4byte	.LVL52-.Ltext0
 11571 0ae7 2C030000 		.4byte	.LVL53-.Ltext0
 11572 0aeb 0100     		.2byte	0x1
 11573 0aed 50       		.byte	0x50
 11574 0aee 2C030000 		.4byte	.LVL53-.Ltext0
 11575 0af2 8C030000 		.4byte	.LFE68-.Ltext0
 11576 0af6 0400     		.2byte	0x4
 11577 0af8 F3       		.byte	0xf3
 11578 0af9 01       		.uleb128 0x1
 11579 0afa 50       		.byte	0x50
 11580 0afb 9F       		.byte	0x9f
 11581 0afc 00000000 		.4byte	0
 11582 0b00 00000000 		.4byte	0
 11583              	.LLST9:
 11584 0b04 40030000 		.4byte	.LVL54-.Ltext0
 11585 0b08 55030000 		.4byte	.LVL55-1-.Ltext0
 11586 0b0c 0100     		.2byte	0x1
 11587 0b0e 53       		.byte	0x53
 11588 0b0f 55030000 		.4byte	.LVL55-1-.Ltext0
 11589 0b13 6C030000 		.4byte	.LVL57-.Ltext0
 11590 0b17 0800     		.2byte	0x8
 11591 0b19 08       		.byte	0x8
 11592 0b1a C8       		.byte	0xc8
 11593 0b1b 74       		.byte	0x74
 11594 0b1c 00       		.sleb128 0
 11595 0b1d 1B       		.byte	0x1b
 11596 0b1e 31       		.byte	0x31
 11597 0b1f 1C       		.byte	0x1c
 11598 0b20 9F       		.byte	0x9f
 11599 0b21 78030000 		.4byte	.LVL58-.Ltext0
 11600 0b25 8C030000 		.4byte	.LFE68-.Ltext0
 11601 0b29 0800     		.2byte	0x8
 11602 0b2b 08       		.byte	0x8
 11603 0b2c C8       		.byte	0xc8
 11604 0b2d 74       		.byte	0x74
ARM GAS  /tmp/ccp3ezWO.s 			page 231


 11605 0b2e 00       		.sleb128 0
 11606 0b2f 1B       		.byte	0x1b
 11607 0b30 31       		.byte	0x31
 11608 0b31 1C       		.byte	0x1c
 11609 0b32 9F       		.byte	0x9f
 11610 0b33 00000000 		.4byte	0
 11611 0b37 00000000 		.4byte	0
 11612              	.LLST5:
 11613 0b3b 34020000 		.4byte	.LVL29-.Ltext0
 11614 0b3f 40020000 		.4byte	.LVL30-.Ltext0
 11615 0b43 0100     		.2byte	0x1
 11616 0b45 50       		.byte	0x50
 11617 0b46 40020000 		.4byte	.LVL30-.Ltext0
 11618 0b4a 92020000 		.4byte	.LVL40-.Ltext0
 11619 0b4e 0100     		.2byte	0x1
 11620 0b50 55       		.byte	0x55
 11621 0b51 92020000 		.4byte	.LVL40-.Ltext0
 11622 0b55 20030000 		.4byte	.LFE67-.Ltext0
 11623 0b59 0400     		.2byte	0x4
 11624 0b5b F3       		.byte	0xf3
 11625 0b5c 01       		.uleb128 0x1
 11626 0b5d 50       		.byte	0x50
 11627 0b5e 9F       		.byte	0x9f
 11628 0b5f 00000000 		.4byte	0
 11629 0b63 00000000 		.4byte	0
 11630              	.LLST6:
 11631 0b67 58020000 		.4byte	.LVL33-.Ltext0
 11632 0b6b 60020000 		.4byte	.LVL34-.Ltext0
 11633 0b6f 0500     		.2byte	0x5
 11634 0b71 54       		.byte	0x54
 11635 0b72 93       		.byte	0x93
 11636 0b73 04       		.uleb128 0x4
 11637 0b74 93       		.byte	0x93
 11638 0b75 08       		.uleb128 0x8
 11639 0b76 60020000 		.4byte	.LVL34-.Ltext0
 11640 0b7a 68020000 		.4byte	.LVL35-.Ltext0
 11641 0b7e 0500     		.2byte	0x5
 11642 0b80 54       		.byte	0x54
 11643 0b81 93       		.byte	0x93
 11644 0b82 04       		.uleb128 0x4
 11645 0b83 93       		.byte	0x93
 11646 0b84 08       		.uleb128 0x8
 11647 0b85 68020000 		.4byte	.LVL35-.Ltext0
 11648 0b89 70020000 		.4byte	.LVL36-.Ltext0
 11649 0b8d 0800     		.2byte	0x8
 11650 0b8f 54       		.byte	0x54
 11651 0b90 93       		.byte	0x93
 11652 0b91 04       		.uleb128 0x4
 11653 0b92 50       		.byte	0x50
 11654 0b93 93       		.byte	0x93
 11655 0b94 04       		.uleb128 0x4
 11656 0b95 93       		.byte	0x93
 11657 0b96 04       		.uleb128 0x4
 11658 0b97 70020000 		.4byte	.LVL36-.Ltext0
 11659 0b9b 78020000 		.4byte	.LVL37-.Ltext0
 11660 0b9f 0800     		.2byte	0x8
 11661 0ba1 54       		.byte	0x54
ARM GAS  /tmp/ccp3ezWO.s 			page 232


 11662 0ba2 93       		.byte	0x93
 11663 0ba3 04       		.uleb128 0x4
 11664 0ba4 50       		.byte	0x50
 11665 0ba5 93       		.byte	0x93
 11666 0ba6 04       		.uleb128 0x4
 11667 0ba7 93       		.byte	0x93
 11668 0ba8 04       		.uleb128 0x4
 11669 0ba9 78020000 		.4byte	.LVL37-.Ltext0
 11670 0bad 80020000 		.4byte	.LVL38-.Ltext0
 11671 0bb1 0900     		.2byte	0x9
 11672 0bb3 54       		.byte	0x54
 11673 0bb4 93       		.byte	0x93
 11674 0bb5 04       		.uleb128 0x4
 11675 0bb6 50       		.byte	0x50
 11676 0bb7 93       		.byte	0x93
 11677 0bb8 04       		.uleb128 0x4
 11678 0bb9 52       		.byte	0x52
 11679 0bba 93       		.byte	0x93
 11680 0bbb 04       		.uleb128 0x4
 11681 0bbc 80020000 		.4byte	.LVL38-.Ltext0
 11682 0bc0 90020000 		.4byte	.LVL39-.Ltext0
 11683 0bc4 0900     		.2byte	0x9
 11684 0bc6 54       		.byte	0x54
 11685 0bc7 93       		.byte	0x93
 11686 0bc8 04       		.uleb128 0x4
 11687 0bc9 50       		.byte	0x50
 11688 0bca 93       		.byte	0x93
 11689 0bcb 04       		.uleb128 0x4
 11690 0bcc 52       		.byte	0x52
 11691 0bcd 93       		.byte	0x93
 11692 0bce 04       		.uleb128 0x4
 11693 0bcf 90020000 		.4byte	.LVL39-.Ltext0
 11694 0bd3 92020000 		.4byte	.LVL40-.Ltext0
 11695 0bd7 4600     		.2byte	0x46
 11696 0bd9 03       		.byte	0x3
 11697 0bda 08000000 		.4byte	dmp+8
 11698 0bde 94       		.byte	0x94
 11699 0bdf 02       		.byte	0x2
 11700 0be0 33       		.byte	0x33
 11701 0be1 1A       		.byte	0x1a
 11702 0be2 0A       		.byte	0xa
 11703 0be3 FFFF     		.2byte	0xffff
 11704 0be5 1A       		.byte	0x1a
 11705 0be6 32       		.byte	0x32
 11706 0be7 24       		.byte	0x24
 11707 0be8 75       		.byte	0x75
 11708 0be9 00       		.sleb128 0
 11709 0bea 22       		.byte	0x22
 11710 0beb 06       		.byte	0x6
 11711 0bec 1F       		.byte	0x1f
 11712 0bed 03       		.byte	0x3
 11713 0bee 08000000 		.4byte	dmp+8
 11714 0bf2 94       		.byte	0x94
 11715 0bf3 02       		.byte	0x2
 11716 0bf4 33       		.byte	0x33
 11717 0bf5 1A       		.byte	0x1a
 11718 0bf6 0A       		.byte	0xa
ARM GAS  /tmp/ccp3ezWO.s 			page 233


 11719 0bf7 FFFF     		.2byte	0xffff
 11720 0bf9 1A       		.byte	0x1a
 11721 0bfa 32       		.byte	0x32
 11722 0bfb 24       		.byte	0x24
 11723 0bfc 75       		.byte	0x75
 11724 0bfd 00       		.sleb128 0
 11725 0bfe 22       		.byte	0x22
 11726 0bff 06       		.byte	0x6
 11727 0c00 03       		.byte	0x3
 11728 0c01 08000000 		.4byte	dmp+8
 11729 0c05 94       		.byte	0x94
 11730 0c06 02       		.byte	0x2
 11731 0c07 0A       		.byte	0xa
 11732 0c08 FFFF     		.2byte	0xffff
 11733 0c0a 1A       		.byte	0x1a
 11734 0c0b 31       		.byte	0x31
 11735 0c0c 24       		.byte	0x24
 11736 0c0d 33       		.byte	0x33
 11737 0c0e 25       		.byte	0x25
 11738 0c0f 30       		.byte	0x30
 11739 0c10 2E       		.byte	0x2e
 11740 0c11 28       		.byte	0x28
 11741 0c12 0100     		.2byte	0x1
 11742 0c14 16       		.byte	0x16
 11743 0c15 13       		.byte	0x13
 11744 0c16 9F       		.byte	0x9f
 11745 0c17 93       		.byte	0x93
 11746 0c18 04       		.uleb128 0x4
 11747 0c19 50       		.byte	0x50
 11748 0c1a 93       		.byte	0x93
 11749 0c1b 04       		.uleb128 0x4
 11750 0c1c 52       		.byte	0x52
 11751 0c1d 93       		.byte	0x93
 11752 0c1e 04       		.uleb128 0x4
 11753 0c1f 92020000 		.4byte	.LVL40-.Ltext0
 11754 0c23 98020000 		.4byte	.LVL41-.Ltext0
 11755 0c27 4800     		.2byte	0x48
 11756 0c29 03       		.byte	0x3
 11757 0c2a 08000000 		.4byte	dmp+8
 11758 0c2e 94       		.byte	0x94
 11759 0c2f 02       		.byte	0x2
 11760 0c30 33       		.byte	0x33
 11761 0c31 1A       		.byte	0x1a
 11762 0c32 0A       		.byte	0xa
 11763 0c33 FFFF     		.2byte	0xffff
 11764 0c35 1A       		.byte	0x1a
 11765 0c36 32       		.byte	0x32
 11766 0c37 24       		.byte	0x24
 11767 0c38 F3       		.byte	0xf3
 11768 0c39 01       		.uleb128 0x1
 11769 0c3a 50       		.byte	0x50
 11770 0c3b 22       		.byte	0x22
 11771 0c3c 06       		.byte	0x6
 11772 0c3d 1F       		.byte	0x1f
 11773 0c3e 03       		.byte	0x3
 11774 0c3f 08000000 		.4byte	dmp+8
 11775 0c43 94       		.byte	0x94
ARM GAS  /tmp/ccp3ezWO.s 			page 234


 11776 0c44 02       		.byte	0x2
 11777 0c45 33       		.byte	0x33
 11778 0c46 1A       		.byte	0x1a
 11779 0c47 0A       		.byte	0xa
 11780 0c48 FFFF     		.2byte	0xffff
 11781 0c4a 1A       		.byte	0x1a
 11782 0c4b 32       		.byte	0x32
 11783 0c4c 24       		.byte	0x24
 11784 0c4d F3       		.byte	0xf3
 11785 0c4e 01       		.uleb128 0x1
 11786 0c4f 50       		.byte	0x50
 11787 0c50 22       		.byte	0x22
 11788 0c51 06       		.byte	0x6
 11789 0c52 03       		.byte	0x3
 11790 0c53 08000000 		.4byte	dmp+8
 11791 0c57 94       		.byte	0x94
 11792 0c58 02       		.byte	0x2
 11793 0c59 0A       		.byte	0xa
 11794 0c5a FFFF     		.2byte	0xffff
 11795 0c5c 1A       		.byte	0x1a
 11796 0c5d 31       		.byte	0x31
 11797 0c5e 24       		.byte	0x24
 11798 0c5f 33       		.byte	0x33
 11799 0c60 25       		.byte	0x25
 11800 0c61 30       		.byte	0x30
 11801 0c62 2E       		.byte	0x2e
 11802 0c63 28       		.byte	0x28
 11803 0c64 0100     		.2byte	0x1
 11804 0c66 16       		.byte	0x16
 11805 0c67 13       		.byte	0x13
 11806 0c68 9F       		.byte	0x9f
 11807 0c69 93       		.byte	0x93
 11808 0c6a 04       		.uleb128 0x4
 11809 0c6b 50       		.byte	0x50
 11810 0c6c 93       		.byte	0x93
 11811 0c6d 04       		.uleb128 0x4
 11812 0c6e 52       		.byte	0x52
 11813 0c6f 93       		.byte	0x93
 11814 0c70 04       		.uleb128 0x4
 11815 0c71 98020000 		.4byte	.LVL41-.Ltext0
 11816 0c75 A8020000 		.4byte	.LVL42-.Ltext0
 11817 0c79 0900     		.2byte	0x9
 11818 0c7b 54       		.byte	0x54
 11819 0c7c 93       		.byte	0x93
 11820 0c7d 04       		.uleb128 0x4
 11821 0c7e 50       		.byte	0x50
 11822 0c7f 93       		.byte	0x93
 11823 0c80 04       		.uleb128 0x4
 11824 0c81 52       		.byte	0x52
 11825 0c82 93       		.byte	0x93
 11826 0c83 04       		.uleb128 0x4
 11827 0c84 A8020000 		.4byte	.LVL42-.Ltext0
 11828 0c88 B0020000 		.4byte	.LVL43-.Ltext0
 11829 0c8c 4F00     		.2byte	0x4f
 11830 0c8e 54       		.byte	0x54
 11831 0c8f 93       		.byte	0x93
 11832 0c90 04       		.uleb128 0x4
ARM GAS  /tmp/ccp3ezWO.s 			page 235


 11833 0c91 03       		.byte	0x3
 11834 0c92 08000000 		.4byte	dmp+8
 11835 0c96 94       		.byte	0x94
 11836 0c97 02       		.byte	0x2
 11837 0c98 0A       		.byte	0xa
 11838 0c99 FFFF     		.2byte	0xffff
 11839 0c9b 1A       		.byte	0x1a
 11840 0c9c 09       		.byte	0x9
 11841 0c9d FF       		.byte	0xff
 11842 0c9e 24       		.byte	0x24
 11843 0c9f 32       		.byte	0x32
 11844 0ca0 25       		.byte	0x25
 11845 0ca1 32       		.byte	0x32
 11846 0ca2 24       		.byte	0x24
 11847 0ca3 F3       		.byte	0xf3
 11848 0ca4 01       		.uleb128 0x1
 11849 0ca5 50       		.byte	0x50
 11850 0ca6 22       		.byte	0x22
 11851 0ca7 06       		.byte	0x6
 11852 0ca8 1F       		.byte	0x1f
 11853 0ca9 03       		.byte	0x3
 11854 0caa 08000000 		.4byte	dmp+8
 11855 0cae 94       		.byte	0x94
 11856 0caf 02       		.byte	0x2
 11857 0cb0 0A       		.byte	0xa
 11858 0cb1 FFFF     		.2byte	0xffff
 11859 0cb3 1A       		.byte	0x1a
 11860 0cb4 09       		.byte	0x9
 11861 0cb5 FF       		.byte	0xff
 11862 0cb6 24       		.byte	0x24
 11863 0cb7 32       		.byte	0x32
 11864 0cb8 25       		.byte	0x25
 11865 0cb9 32       		.byte	0x32
 11866 0cba 24       		.byte	0x24
 11867 0cbb F3       		.byte	0xf3
 11868 0cbc 01       		.uleb128 0x1
 11869 0cbd 50       		.byte	0x50
 11870 0cbe 22       		.byte	0x22
 11871 0cbf 06       		.byte	0x6
 11872 0cc0 03       		.byte	0x3
 11873 0cc1 08000000 		.4byte	dmp+8
 11874 0cc5 94       		.byte	0x94
 11875 0cc6 02       		.byte	0x2
 11876 0cc7 0A       		.byte	0xa
 11877 0cc8 FFFF     		.2byte	0xffff
 11878 0cca 1A       		.byte	0x1a
 11879 0ccb 09       		.byte	0x9
 11880 0ccc FE       		.byte	0xfe
 11881 0ccd 24       		.byte	0x24
 11882 0cce 33       		.byte	0x33
 11883 0ccf 25       		.byte	0x25
 11884 0cd0 30       		.byte	0x30
 11885 0cd1 2E       		.byte	0x2e
 11886 0cd2 28       		.byte	0x28
 11887 0cd3 0100     		.2byte	0x1
 11888 0cd5 16       		.byte	0x16
 11889 0cd6 13       		.byte	0x13
ARM GAS  /tmp/ccp3ezWO.s 			page 236


 11890 0cd7 9F       		.byte	0x9f
 11891 0cd8 93       		.byte	0x93
 11892 0cd9 04       		.uleb128 0x4
 11893 0cda 52       		.byte	0x52
 11894 0cdb 93       		.byte	0x93
 11895 0cdc 04       		.uleb128 0x4
 11896 0cdd B0020000 		.4byte	.LVL43-.Ltext0
 11897 0ce1 C0020000 		.4byte	.LVL45-.Ltext0
 11898 0ce5 0900     		.2byte	0x9
 11899 0ce7 54       		.byte	0x54
 11900 0ce8 93       		.byte	0x93
 11901 0ce9 04       		.uleb128 0x4
 11902 0cea 50       		.byte	0x50
 11903 0ceb 93       		.byte	0x93
 11904 0cec 04       		.uleb128 0x4
 11905 0ced 52       		.byte	0x52
 11906 0cee 93       		.byte	0x93
 11907 0cef 04       		.uleb128 0x4
 11908 0cf0 C0020000 		.4byte	.LVL45-.Ltext0
 11909 0cf4 C8020000 		.4byte	.LVL47-.Ltext0
 11910 0cf8 0800     		.2byte	0x8
 11911 0cfa 54       		.byte	0x54
 11912 0cfb 93       		.byte	0x93
 11913 0cfc 04       		.uleb128 0x4
 11914 0cfd 50       		.byte	0x50
 11915 0cfe 93       		.byte	0x93
 11916 0cff 04       		.uleb128 0x4
 11917 0d00 93       		.byte	0x93
 11918 0d01 04       		.uleb128 0x4
 11919 0d02 C8020000 		.4byte	.LVL47-.Ltext0
 11920 0d06 0C030000 		.4byte	.LVL48-.Ltext0
 11921 0d0a 0900     		.2byte	0x9
 11922 0d0c 54       		.byte	0x54
 11923 0d0d 93       		.byte	0x93
 11924 0d0e 04       		.uleb128 0x4
 11925 0d0f 50       		.byte	0x50
 11926 0d10 93       		.byte	0x93
 11927 0d11 04       		.uleb128 0x4
 11928 0d12 52       		.byte	0x52
 11929 0d13 93       		.byte	0x93
 11930 0d14 04       		.uleb128 0x4
 11931 0d15 0C030000 		.4byte	.LVL48-.Ltext0
 11932 0d19 12030000 		.4byte	.LVL49-.Ltext0
 11933 0d1d 0800     		.2byte	0x8
 11934 0d1f 54       		.byte	0x54
 11935 0d20 93       		.byte	0x93
 11936 0d21 04       		.uleb128 0x4
 11937 0d22 50       		.byte	0x50
 11938 0d23 93       		.byte	0x93
 11939 0d24 04       		.uleb128 0x4
 11940 0d25 93       		.byte	0x93
 11941 0d26 04       		.uleb128 0x4
 11942 0d27 12030000 		.4byte	.LVL49-.Ltext0
 11943 0d2b 1C030000 		.4byte	.LVL51-.Ltext0
 11944 0d2f 0500     		.2byte	0x5
 11945 0d31 54       		.byte	0x54
 11946 0d32 93       		.byte	0x93
ARM GAS  /tmp/ccp3ezWO.s 			page 237


 11947 0d33 04       		.uleb128 0x4
 11948 0d34 93       		.byte	0x93
 11949 0d35 08       		.uleb128 0x8
 11950 0d36 00000000 		.4byte	0
 11951 0d3a 00000000 		.4byte	0
 11952              	.LLST7:
 11953 0d3e 4C020000 		.4byte	.LVL32-.Ltext0
 11954 0d42 B8020000 		.4byte	.LVL44-.Ltext0
 11955 0d46 0600     		.2byte	0x6
 11956 0d48 53       		.byte	0x53
 11957 0d49 93       		.byte	0x93
 11958 0d4a 04       		.uleb128 0x4
 11959 0d4b 56       		.byte	0x56
 11960 0d4c 93       		.byte	0x93
 11961 0d4d 04       		.uleb128 0x4
 11962 0d4e 00000000 		.4byte	0
 11963 0d52 00000000 		.4byte	0
 11964              	.LLST3:
 11965 0d56 48010000 		.4byte	.LVL11-.Ltext0
 11966 0d5a 88010000 		.4byte	.LVL18-.Ltext0
 11967 0d5e 0100     		.2byte	0x1
 11968 0d60 50       		.byte	0x50
 11969 0d61 88010000 		.4byte	.LVL18-.Ltext0
 11970 0d65 34020000 		.4byte	.LFE66-.Ltext0
 11971 0d69 0400     		.2byte	0x4
 11972 0d6b F3       		.byte	0xf3
 11973 0d6c 01       		.uleb128 0x1
 11974 0d6d 50       		.byte	0x50
 11975 0d6e 9F       		.byte	0x9f
 11976 0d6f 00000000 		.4byte	0
 11977 0d73 00000000 		.4byte	0
 11978              	.LLST4:
 11979 0d77 58010000 		.4byte	.LVL12-.Ltext0
 11980 0d7b 60010000 		.4byte	.LVL13-.Ltext0
 11981 0d7f 0500     		.2byte	0x5
 11982 0d81 51       		.byte	0x51
 11983 0d82 93       		.byte	0x93
 11984 0d83 04       		.uleb128 0x4
 11985 0d84 93       		.byte	0x93
 11986 0d85 08       		.uleb128 0x8
 11987 0d86 60010000 		.4byte	.LVL13-.Ltext0
 11988 0d8a 68010000 		.4byte	.LVL14-.Ltext0
 11989 0d8e 0500     		.2byte	0x5
 11990 0d90 51       		.byte	0x51
 11991 0d91 93       		.byte	0x93
 11992 0d92 04       		.uleb128 0x4
 11993 0d93 93       		.byte	0x93
 11994 0d94 08       		.uleb128 0x8
 11995 0d95 68010000 		.4byte	.LVL14-.Ltext0
 11996 0d99 70010000 		.4byte	.LVL15-.Ltext0
 11997 0d9d 0800     		.2byte	0x8
 11998 0d9f 51       		.byte	0x51
 11999 0da0 93       		.byte	0x93
 12000 0da1 04       		.uleb128 0x4
 12001 0da2 53       		.byte	0x53
 12002 0da3 93       		.byte	0x93
 12003 0da4 04       		.uleb128 0x4
ARM GAS  /tmp/ccp3ezWO.s 			page 238


 12004 0da5 93       		.byte	0x93
 12005 0da6 04       		.uleb128 0x4
 12006 0da7 70010000 		.4byte	.LVL15-.Ltext0
 12007 0dab 78010000 		.4byte	.LVL16-.Ltext0
 12008 0daf 0800     		.2byte	0x8
 12009 0db1 51       		.byte	0x51
 12010 0db2 93       		.byte	0x93
 12011 0db3 04       		.uleb128 0x4
 12012 0db4 53       		.byte	0x53
 12013 0db5 93       		.byte	0x93
 12014 0db6 04       		.uleb128 0x4
 12015 0db7 93       		.byte	0x93
 12016 0db8 04       		.uleb128 0x4
 12017 0db9 78010000 		.4byte	.LVL16-.Ltext0
 12018 0dbd 80010000 		.4byte	.LVL17-.Ltext0
 12019 0dc1 0900     		.2byte	0x9
 12020 0dc3 51       		.byte	0x51
 12021 0dc4 93       		.byte	0x93
 12022 0dc5 04       		.uleb128 0x4
 12023 0dc6 53       		.byte	0x53
 12024 0dc7 93       		.byte	0x93
 12025 0dc8 04       		.uleb128 0x4
 12026 0dc9 52       		.byte	0x52
 12027 0dca 93       		.byte	0x93
 12028 0dcb 04       		.uleb128 0x4
 12029 0dcc 80010000 		.4byte	.LVL17-.Ltext0
 12030 0dd0 8C010000 		.4byte	.LVL19-.Ltext0
 12031 0dd4 0900     		.2byte	0x9
 12032 0dd6 51       		.byte	0x51
 12033 0dd7 93       		.byte	0x93
 12034 0dd8 04       		.uleb128 0x4
 12035 0dd9 53       		.byte	0x53
 12036 0dda 93       		.byte	0x93
 12037 0ddb 04       		.uleb128 0x4
 12038 0ddc 52       		.byte	0x52
 12039 0ddd 93       		.byte	0x93
 12040 0dde 04       		.uleb128 0x4
 12041 0ddf 8C010000 		.4byte	.LVL19-.Ltext0
 12042 0de3 8E010000 		.4byte	.LVL20-.Ltext0
 12043 0de7 2D00     		.2byte	0x2d
 12044 0de9 74       		.byte	0x74
 12045 0dea 00       		.sleb128 0
 12046 0deb 33       		.byte	0x33
 12047 0dec 1A       		.byte	0x1a
 12048 0ded 32       		.byte	0x32
 12049 0dee 24       		.byte	0x24
 12050 0def F3       		.byte	0xf3
 12051 0df0 01       		.uleb128 0x1
 12052 0df1 50       		.byte	0x50
 12053 0df2 22       		.byte	0x22
 12054 0df3 06       		.byte	0x6
 12055 0df4 1F       		.byte	0x1f
 12056 0df5 74       		.byte	0x74
 12057 0df6 00       		.sleb128 0
 12058 0df7 33       		.byte	0x33
 12059 0df8 1A       		.byte	0x1a
 12060 0df9 32       		.byte	0x32
ARM GAS  /tmp/ccp3ezWO.s 			page 239


 12061 0dfa 24       		.byte	0x24
 12062 0dfb F3       		.byte	0xf3
 12063 0dfc 01       		.uleb128 0x1
 12064 0dfd 50       		.byte	0x50
 12065 0dfe 22       		.byte	0x22
 12066 0dff 06       		.byte	0x6
 12067 0e00 74       		.byte	0x74
 12068 0e01 00       		.sleb128 0
 12069 0e02 31       		.byte	0x31
 12070 0e03 24       		.byte	0x24
 12071 0e04 33       		.byte	0x33
 12072 0e05 25       		.byte	0x25
 12073 0e06 30       		.byte	0x30
 12074 0e07 2E       		.byte	0x2e
 12075 0e08 28       		.byte	0x28
 12076 0e09 0100     		.2byte	0x1
 12077 0e0b 16       		.byte	0x16
 12078 0e0c 13       		.byte	0x13
 12079 0e0d 9F       		.byte	0x9f
 12080 0e0e 93       		.byte	0x93
 12081 0e0f 04       		.uleb128 0x4
 12082 0e10 53       		.byte	0x53
 12083 0e11 93       		.byte	0x93
 12084 0e12 04       		.uleb128 0x4
 12085 0e13 52       		.byte	0x52
 12086 0e14 93       		.byte	0x93
 12087 0e15 04       		.uleb128 0x4
 12088 0e16 8E010000 		.4byte	.LVL20-.Ltext0
 12089 0e1a 92010000 		.4byte	.LVL21-.Ltext0
 12090 0e1e 4800     		.2byte	0x48
 12091 0e20 03       		.byte	0x3
 12092 0e21 08000000 		.4byte	dmp+8
 12093 0e25 94       		.byte	0x94
 12094 0e26 02       		.byte	0x2
 12095 0e27 33       		.byte	0x33
 12096 0e28 1A       		.byte	0x1a
 12097 0e29 0A       		.byte	0xa
 12098 0e2a FFFF     		.2byte	0xffff
 12099 0e2c 1A       		.byte	0x1a
 12100 0e2d 32       		.byte	0x32
 12101 0e2e 24       		.byte	0x24
 12102 0e2f F3       		.byte	0xf3
 12103 0e30 01       		.uleb128 0x1
 12104 0e31 50       		.byte	0x50
 12105 0e32 22       		.byte	0x22
 12106 0e33 06       		.byte	0x6
 12107 0e34 1F       		.byte	0x1f
 12108 0e35 03       		.byte	0x3
 12109 0e36 08000000 		.4byte	dmp+8
 12110 0e3a 94       		.byte	0x94
 12111 0e3b 02       		.byte	0x2
 12112 0e3c 33       		.byte	0x33
 12113 0e3d 1A       		.byte	0x1a
 12114 0e3e 0A       		.byte	0xa
 12115 0e3f FFFF     		.2byte	0xffff
 12116 0e41 1A       		.byte	0x1a
 12117 0e42 32       		.byte	0x32
ARM GAS  /tmp/ccp3ezWO.s 			page 240


 12118 0e43 24       		.byte	0x24
 12119 0e44 F3       		.byte	0xf3
 12120 0e45 01       		.uleb128 0x1
 12121 0e46 50       		.byte	0x50
 12122 0e47 22       		.byte	0x22
 12123 0e48 06       		.byte	0x6
 12124 0e49 03       		.byte	0x3
 12125 0e4a 08000000 		.4byte	dmp+8
 12126 0e4e 94       		.byte	0x94
 12127 0e4f 02       		.byte	0x2
 12128 0e50 0A       		.byte	0xa
 12129 0e51 FFFF     		.2byte	0xffff
 12130 0e53 1A       		.byte	0x1a
 12131 0e54 31       		.byte	0x31
 12132 0e55 24       		.byte	0x24
 12133 0e56 33       		.byte	0x33
 12134 0e57 25       		.byte	0x25
 12135 0e58 30       		.byte	0x30
 12136 0e59 2E       		.byte	0x2e
 12137 0e5a 28       		.byte	0x28
 12138 0e5b 0100     		.2byte	0x1
 12139 0e5d 16       		.byte	0x16
 12140 0e5e 13       		.byte	0x13
 12141 0e5f 9F       		.byte	0x9f
 12142 0e60 93       		.byte	0x93
 12143 0e61 04       		.uleb128 0x4
 12144 0e62 53       		.byte	0x53
 12145 0e63 93       		.byte	0x93
 12146 0e64 04       		.uleb128 0x4
 12147 0e65 52       		.byte	0x52
 12148 0e66 93       		.byte	0x93
 12149 0e67 04       		.uleb128 0x4
 12150 0e68 92010000 		.4byte	.LVL21-.Ltext0
 12151 0e6c A2010000 		.4byte	.LVL22-.Ltext0
 12152 0e70 0900     		.2byte	0x9
 12153 0e72 54       		.byte	0x54
 12154 0e73 93       		.byte	0x93
 12155 0e74 04       		.uleb128 0x4
 12156 0e75 53       		.byte	0x53
 12157 0e76 93       		.byte	0x93
 12158 0e77 04       		.uleb128 0x4
 12159 0e78 52       		.byte	0x52
 12160 0e79 93       		.byte	0x93
 12161 0e7a 04       		.uleb128 0x4
 12162 0e7b A2010000 		.4byte	.LVL22-.Ltext0
 12163 0e7f A8010000 		.4byte	.LVL23-.Ltext0
 12164 0e83 0900     		.2byte	0x9
 12165 0e85 54       		.byte	0x54
 12166 0e86 93       		.byte	0x93
 12167 0e87 04       		.uleb128 0x4
 12168 0e88 56       		.byte	0x56
 12169 0e89 93       		.byte	0x93
 12170 0e8a 04       		.uleb128 0x4
 12171 0e8b 52       		.byte	0x52
 12172 0e8c 93       		.byte	0x93
 12173 0e8d 04       		.uleb128 0x4
 12174 0e8e A8010000 		.4byte	.LVL23-.Ltext0
ARM GAS  /tmp/ccp3ezWO.s 			page 241


 12175 0e92 B2010000 		.4byte	.LVL24-.Ltext0
 12176 0e96 0800     		.2byte	0x8
 12177 0e98 54       		.byte	0x54
 12178 0e99 93       		.byte	0x93
 12179 0e9a 04       		.uleb128 0x4
 12180 0e9b 56       		.byte	0x56
 12181 0e9c 93       		.byte	0x93
 12182 0e9d 04       		.uleb128 0x4
 12183 0e9e 93       		.byte	0x93
 12184 0e9f 04       		.uleb128 0x4
 12185 0ea0 B2010000 		.4byte	.LVL24-.Ltext0
 12186 0ea4 20020000 		.4byte	.LVL28-.Ltext0
 12187 0ea8 0900     		.2byte	0x9
 12188 0eaa 54       		.byte	0x54
 12189 0eab 93       		.byte	0x93
 12190 0eac 04       		.uleb128 0x4
 12191 0ead 56       		.byte	0x56
 12192 0eae 93       		.byte	0x93
 12193 0eaf 04       		.uleb128 0x4
 12194 0eb0 57       		.byte	0x57
 12195 0eb1 93       		.byte	0x93
 12196 0eb2 04       		.uleb128 0x4
 12197 0eb3 20020000 		.4byte	.LVL28-.Ltext0
 12198 0eb7 34020000 		.4byte	.LFE66-.Ltext0
 12199 0ebb 0900     		.2byte	0x9
 12200 0ebd 54       		.byte	0x54
 12201 0ebe 93       		.byte	0x93
 12202 0ebf 04       		.uleb128 0x4
 12203 0ec0 56       		.byte	0x56
 12204 0ec1 93       		.byte	0x93
 12205 0ec2 04       		.uleb128 0x4
 12206 0ec3 57       		.byte	0x57
 12207 0ec4 93       		.byte	0x93
 12208 0ec5 04       		.uleb128 0x4
 12209 0ec6 00000000 		.4byte	0
 12210 0eca 00000000 		.4byte	0
 12211              	.LLST0:
 12212 0ece 18000000 		.4byte	.LVL1-.Ltext0
 12213 0ed2 68000000 		.4byte	.LVL3-.Ltext0
 12214 0ed6 0100     		.2byte	0x1
 12215 0ed8 50       		.byte	0x50
 12216 0ed9 68000000 		.4byte	.LVL3-.Ltext0
 12217 0edd 48010000 		.4byte	.LFE65-.Ltext0
 12218 0ee1 0400     		.2byte	0x4
 12219 0ee3 F3       		.byte	0xf3
 12220 0ee4 01       		.uleb128 0x1
 12221 0ee5 50       		.byte	0x50
 12222 0ee6 9F       		.byte	0x9f
 12223 0ee7 00000000 		.4byte	0
 12224 0eeb 00000000 		.4byte	0
 12225              	.LLST1:
 12226 0eef 42000000 		.4byte	.LVL2-.Ltext0
 12227 0ef3 26010000 		.4byte	.LVL8-.Ltext0
 12228 0ef7 0F00     		.2byte	0xf
 12229 0ef9 08       		.byte	0x8
 12230 0efa 36       		.byte	0x36
 12231 0efb 9F       		.byte	0x9f
ARM GAS  /tmp/ccp3ezWO.s 			page 242


 12232 0efc 93       		.byte	0x93
 12233 0efd 01       		.uleb128 0x1
 12234 0efe 08       		.byte	0x8
 12235 0eff 56       		.byte	0x56
 12236 0f00 9F       		.byte	0x9f
 12237 0f01 93       		.byte	0x93
 12238 0f02 01       		.uleb128 0x1
 12239 0f03 08       		.byte	0x8
 12240 0f04 76       		.byte	0x76
 12241 0f05 9F       		.byte	0x9f
 12242 0f06 93       		.byte	0x93
 12243 0f07 01       		.uleb128 0x1
 12244 0f08 2C010000 		.4byte	.LVL9-.Ltext0
 12245 0f0c 42010000 		.4byte	.LVL10-.Ltext0
 12246 0f10 0F00     		.2byte	0xf
 12247 0f12 08       		.byte	0x8
 12248 0f13 36       		.byte	0x36
 12249 0f14 9F       		.byte	0x9f
 12250 0f15 93       		.byte	0x93
 12251 0f16 01       		.uleb128 0x1
 12252 0f17 08       		.byte	0x8
 12253 0f18 56       		.byte	0x56
 12254 0f19 9F       		.byte	0x9f
 12255 0f1a 93       		.byte	0x93
 12256 0f1b 01       		.uleb128 0x1
 12257 0f1c 08       		.byte	0x8
 12258 0f1d 76       		.byte	0x76
 12259 0f1e 9F       		.byte	0x9f
 12260 0f1f 93       		.byte	0x93
 12261 0f20 01       		.uleb128 0x1
 12262 0f21 00000000 		.4byte	0
 12263 0f25 00000000 		.4byte	0
 12264              	.LLST2:
 12265 0f29 42000000 		.4byte	.LVL2-.Ltext0
 12266 0f2d 26010000 		.4byte	.LVL8-.Ltext0
 12267 0f31 0F00     		.2byte	0xf
 12268 0f33 08       		.byte	0x8
 12269 0f34 26       		.byte	0x26
 12270 0f35 9F       		.byte	0x9f
 12271 0f36 93       		.byte	0x93
 12272 0f37 01       		.uleb128 0x1
 12273 0f38 08       		.byte	0x8
 12274 0f39 46       		.byte	0x46
 12275 0f3a 9F       		.byte	0x9f
 12276 0f3b 93       		.byte	0x93
 12277 0f3c 01       		.uleb128 0x1
 12278 0f3d 08       		.byte	0x8
 12279 0f3e 66       		.byte	0x66
 12280 0f3f 9F       		.byte	0x9f
 12281 0f40 93       		.byte	0x93
 12282 0f41 01       		.uleb128 0x1
 12283 0f42 2C010000 		.4byte	.LVL9-.Ltext0
 12284 0f46 42010000 		.4byte	.LVL10-.Ltext0
 12285 0f4a 0F00     		.2byte	0xf
 12286 0f4c 08       		.byte	0x8
 12287 0f4d 26       		.byte	0x26
 12288 0f4e 9F       		.byte	0x9f
ARM GAS  /tmp/ccp3ezWO.s 			page 243


 12289 0f4f 93       		.byte	0x93
 12290 0f50 01       		.uleb128 0x1
 12291 0f51 08       		.byte	0x8
 12292 0f52 46       		.byte	0x46
 12293 0f53 9F       		.byte	0x9f
 12294 0f54 93       		.byte	0x93
 12295 0f55 01       		.uleb128 0x1
 12296 0f56 08       		.byte	0x8
 12297 0f57 66       		.byte	0x66
 12298 0f58 9F       		.byte	0x9f
 12299 0f59 93       		.byte	0x93
 12300 0f5a 01       		.uleb128 0x1
 12301 0f5b 00000000 		.4byte	0
 12302 0f5f 00000000 		.4byte	0
 12303              		.section	.debug_aranges,"",%progbits
 12304 0000 1C000000 		.4byte	0x1c
 12305 0004 0200     		.2byte	0x2
 12306 0006 00000000 		.4byte	.Ldebug_info0
 12307 000a 04       		.byte	0x4
 12308 000b 00       		.byte	0
 12309 000c 0000     		.2byte	0
 12310 000e 0000     		.2byte	0
 12311 0010 00000000 		.4byte	.Ltext0
 12312 0014 C00C0000 		.4byte	.Letext0-.Ltext0
 12313 0018 00000000 		.4byte	0
 12314 001c 00000000 		.4byte	0
 12315              		.section	.debug_line,"",%progbits
 12316              	.Ldebug_line0:
 12317 0000 4E040000 		.section	.debug_str,"MS",%progbits,1
 12317      02003802 
 12317      00000201 
 12317      FB0E0D00 
 12317      01010101 
 12318              	.LASF53:
 12319 0000 5F64736F 		.ascii	"_dso_handle\000"
 12319      5F68616E 
 12319      646C6500 
 12320              	.LASF170:
 12321 000c 636F756E 		.ascii	"count\000"
 12321      7400
 12322              	.LASF4:
 12323 0012 73686F72 		.ascii	"short int\000"
 12323      7420696E 
 12323      7400
 12324              	.LASF27:
 12325 001c 5F66706F 		.ascii	"_fpos_t\000"
 12325      735F7400 
 12326              	.LASF208:
 12327 0024 61636365 		.ascii	"accel_sf\000"
 12327      6C5F7366 
 12327      00
 12328              	.LASF187:
 12329 002d 74687265 		.ascii	"thresh\000"
 12329      736800
 12330              	.LASF142:
 12331 0034 5F737973 		.ascii	"_sys_errlist\000"
 12331      5F657272 
ARM GAS  /tmp/ccp3ezWO.s 			page 244


 12331      6C697374 
 12331      00
 12332              	.LASF200:
 12333 0041 646D705F 		.ascii	"dmp_thresh_2\000"
 12333      74687265 
 12333      73685F32 
 12333      00
 12334              	.LASF153:
 12335 004e 646D705F 		.ascii	"dmp_register_android_orient_cb\000"
 12335      72656769 
 12335      73746572 
 12335      5F616E64 
 12335      726F6964 
 12336              	.LASF52:
 12337 006d 5F666E61 		.ascii	"_fnargs\000"
 12337      72677300 
 12338              	.LASF161:
 12339 0075 6669666F 		.ascii	"fifo_data\000"
 12339      5F646174 
 12339      6100
 12340              	.LASF106:
 12341 007f 5F72616E 		.ascii	"_rand48\000"
 12341      64343800 
 12342              	.LASF139:
 12343 0087 5F5F6664 		.ascii	"__fdlibm_xopen\000"
 12343      6C69626D 
 12343      5F786F70 
 12343      656E00
 12344              	.LASF85:
 12345 0096 5F656D65 		.ascii	"_emergency\000"
 12345      7267656E 
 12345      637900
 12346              	.LASF77:
 12347 00a1 5F6D6273 		.ascii	"_mbstate\000"
 12347      74617465 
 12347      00
 12348              	.LASF219:
 12349 00aa 646D705F 		.ascii	"dmp_load_motion_driver_firmware\000"
 12349      6C6F6164 
 12349      5F6D6F74 
 12349      696F6E5F 
 12349      64726976 
 12350              	.LASF118:
 12351 00ca 5F6D6274 		.ascii	"_mbtowc_state\000"
 12351      6F77635F 
 12351      73746174 
 12351      6500
 12352              	.LASF169:
 12353 00d8 64697265 		.ascii	"direction\000"
 12353      6374696F 
 12353      6E00
 12354              	.LASF97:
 12355 00e2 5F617465 		.ascii	"_atexit0\000"
 12355      78697430 
 12355      00
 12356              	.LASF126:
 12357 00eb 5F776372 		.ascii	"_wcrtomb_state\000"
ARM GAS  /tmp/ccp3ezWO.s 			page 245


 12357      746F6D62 
 12357      5F737461 
 12357      746500
 12358              	.LASF127:
 12359 00fa 5F776373 		.ascii	"_wcsrtombs_state\000"
 12359      72746F6D 
 12359      62735F73 
 12359      74617465 
 12359      00
 12360              	.LASF198:
 12361 010b 7363616C 		.ascii	"scaled_thresh\000"
 12361      65645F74 
 12361      68726573 
 12361      6800
 12362              	.LASF0:
 12363 0119 6C6F6E67 		.ascii	"long long unsigned int\000"
 12363      206C6F6E 
 12363      6720756E 
 12363      7369676E 
 12363      65642069 
 12364              	.LASF140:
 12365 0130 5F5F6664 		.ascii	"__fdlibm_posix\000"
 12365      6C69626D 
 12365      5F706F73 
 12365      697800
 12366              	.LASF190:
 12367 013f 646D705F 		.ascii	"dmp_time\000"
 12367      74696D65 
 12367      00
 12368              	.LASF65:
 12369 0148 5F6C6266 		.ascii	"_lbfsize\000"
 12369      73697A65 
 12369      00
 12370              	.LASF104:
 12371 0151 5F6E696F 		.ascii	"_niobs\000"
 12371      627300
 12372              	.LASF14:
 12373 0158 49544D5F 		.ascii	"ITM_RxBuffer\000"
 12373      52784275 
 12373      66666572 
 12373      00
 12374              	.LASF141:
 12375 0165 5F5F6664 		.ascii	"__fdlib_version\000"
 12375      6C69625F 
 12375      76657273 
 12375      696F6E00 
 12376              	.LASF16:
 12377 0175 6779726F 		.ascii	"gyro\000"
 12377      00
 12378              	.LASF124:
 12379 017a 5F6D6272 		.ascii	"_mbrtowc_state\000"
 12379      746F7763 
 12379      5F737461 
 12379      746500
 12380              	.LASF184:
 12381 0189 646D705F 		.ascii	"dmp_set_shake_reject_timeout\000"
 12381      7365745F 
ARM GAS  /tmp/ccp3ezWO.s 			page 246


 12381      7368616B 
 12381      655F7265 
 12381      6A656374 
 12382              	.LASF119:
 12383 01a6 5F776374 		.ascii	"_wctomb_state\000"
 12383      6F6D625F 
 12383      73746174 
 12383      6500
 12384              	.LASF42:
 12385 01b4 5F5F746D 		.ascii	"__tm_sec\000"
 12385      5F736563 
 12385      00
 12386              	.LASF158:
 12387 01bd 74696D65 		.ascii	"timestamp\000"
 12387      7374616D 
 12387      7000
 12388              	.LASF26:
 12389 01c7 5F6F6666 		.ascii	"_off_t\000"
 12389      5F7400
 12390              	.LASF70:
 12391 01ce 5F636C6F 		.ascii	"_close\000"
 12391      736500
 12392              	.LASF2:
 12393 01d5 7369676E 		.ascii	"signed char\000"
 12393      65642063 
 12393      68617200 
 12394              	.LASF197:
 12395 01e1 61636365 		.ascii	"accel_fsr\000"
 12395      6C5F6673 
 12395      7200
 12396              	.LASF202:
 12397 01eb 72617465 		.ascii	"rate\000"
 12397      00
 12398              	.LASF71:
 12399 01f0 5F756275 		.ascii	"_ubuf\000"
 12399      6600
 12400              	.LASF18:
 12401 01f6 47785F6F 		.ascii	"Gx_offset\000"
 12401      66667365 
 12401      7400
 12402              	.LASF60:
 12403 0200 5F626173 		.ascii	"_base\000"
 12403      6500
 12404              	.LASF44:
 12405 0206 5F5F746D 		.ascii	"__tm_hour\000"
 12405      5F686F75 
 12405      7200
 12406              	.LASF100:
 12407 0210 5F5F7366 		.ascii	"__sf\000"
 12407      00
 12408              	.LASF51:
 12409 0215 5F6F6E5F 		.ascii	"_on_exit_args\000"
 12409      65786974 
 12409      5F617267 
 12409      7300
 12410              	.LASF157:
 12411 0223 71756174 		.ascii	"quat\000"
ARM GAS  /tmp/ccp3ezWO.s 			page 247


 12411      00
 12412              	.LASF66:
 12413 0228 5F636F6F 		.ascii	"_cookie\000"
 12413      6B696500 
 12414              	.LASF99:
 12415 0230 5F5F7367 		.ascii	"__sglue\000"
 12415      6C756500 
 12416              	.LASF233:
 12417 0238 67657374 		.ascii	"gesture\000"
 12417      75726500 
 12418              	.LASF205:
 12419 0240 646D705F 		.ascii	"dmp_set_accel_bias\000"
 12419      7365745F 
 12419      61636365 
 12419      6C5F6269 
 12419      617300
 12420              	.LASF6:
 12421 0253 6C6F6E67 		.ascii	"long int\000"
 12421      20696E74 
 12421      00
 12422              	.LASF156:
 12423 025c 646D705F 		.ascii	"dmp_read_fifo\000"
 12423      72656164 
 12423      5F666966 
 12423      6F00
 12424              	.LASF230:
 12425 026a 2F686F6D 		.ascii	"/home/enbin/Documents/code/STM/stm32-quadrocopter\000"
 12425      652F656E 
 12425      62696E2F 
 12425      446F6375 
 12425      6D656E74 
 12426              	.LASF55:
 12427 029c 5F69735F 		.ascii	"_is_cxa\000"
 12427      63786100 
 12428              	.LASF81:
 12429 02a4 5F737464 		.ascii	"_stdin\000"
 12429      696E00
 12430              	.LASF138:
 12431 02ab 5F5F6664 		.ascii	"__fdlibm_svid\000"
 12431      6C69626D 
 12431      5F737669 
 12431      6400
 12432              	.LASF155:
 12433 02b9 66756E63 		.ascii	"func\000"
 12433      00
 12434              	.LASF91:
 12435 02be 5F726573 		.ascii	"_result_k\000"
 12435      756C745F 
 12435      6B00
 12436              	.LASF10:
 12437 02c8 6C6F6E67 		.ascii	"long long int\000"
 12437      206C6F6E 
 12437      6720696E 
 12437      7400
 12438              	.LASF135:
 12439 02d6 646F7562 		.ascii	"double\000"
 12439      6C6500
ARM GAS  /tmp/ccp3ezWO.s 			page 248


 12440              	.LASF193:
 12441 02dd 6D696E5F 		.ascii	"min_taps\000"
 12441      74617073 
 12441      00
 12442              	.LASF95:
 12443 02e6 5F637674 		.ascii	"_cvtbuf\000"
 12443      62756600 
 12444              	.LASF74:
 12445 02ee 5F6F6666 		.ascii	"_offset\000"
 12445      73657400 
 12446              	.LASF125:
 12447 02f6 5F6D6273 		.ascii	"_mbsrtowcs_state\000"
 12447      72746F77 
 12447      63735F73 
 12447      74617465 
 12447      00
 12448              	.LASF123:
 12449 0307 5F6D6272 		.ascii	"_mbrlen_state\000"
 12449      6C656E5F 
 12449      73746174 
 12449      6500
 12450              	.LASF217:
 12451 0315 6779726F 		.ascii	"gyro_sign\000"
 12451      5F736967 
 12451      6E00
 12452              	.LASF58:
 12453 031f 5F666E73 		.ascii	"_fns\000"
 12453      00
 12454              	.LASF8:
 12455 0324 5F5F7569 		.ascii	"__uint32_t\000"
 12455      6E743332 
 12455      5F7400
 12456              	.LASF177:
 12457 032f 6D61736B 		.ascii	"mask\000"
 12457      00
 12458              	.LASF38:
 12459 0334 5F736967 		.ascii	"_sign\000"
 12459      6E00
 12460              	.LASF132:
 12461 033a 5F696D70 		.ascii	"_impure_ptr\000"
 12461      7572655F 
 12461      70747200 
 12462              	.LASF83:
 12463 0346 5F737464 		.ascii	"_stderr\000"
 12463      65727200 
 12464              	.LASF40:
 12465 034e 5F426967 		.ascii	"_Bigint\000"
 12465      696E7400 
 12466              	.LASF43:
 12467 0356 5F5F746D 		.ascii	"__tm_min\000"
 12467      5F6D696E 
 12467      00
 12468              	.LASF36:
 12469 035f 5F6E6578 		.ascii	"_next\000"
 12469      7400
 12470              	.LASF224:
 12471 0365 6D70755F 		.ascii	"mpu_read_mem\000"
ARM GAS  /tmp/ccp3ezWO.s 			page 249


 12471      72656164 
 12471      5F6D656D 
 12471      00
 12472              	.LASF67:
 12473 0372 5F726561 		.ascii	"_read\000"
 12473      6400
 12474              	.LASF211:
 12475 0378 6779726F 		.ascii	"gyro_bias_body\000"
 12475      5F626961 
 12475      735F626F 
 12475      647900
 12476              	.LASF41:
 12477 0387 5F5F746D 		.ascii	"__tm\000"
 12477      00
 12478              	.LASF30:
 12479 038c 5F5F7763 		.ascii	"__wchb\000"
 12479      686200
 12480              	.LASF15:
 12481 0393 53797374 		.ascii	"SystemCoreClock\000"
 12481      656D436F 
 12481      7265436C 
 12481      6F636B00 
 12482              	.LASF82:
 12483 03a3 5F737464 		.ascii	"_stdout\000"
 12483      6F757400 
 12484              	.LASF94:
 12485 03ab 5F637674 		.ascii	"_cvtlen\000"
 12485      6C656E00 
 12486              	.LASF9:
 12487 03b3 6C6F6E67 		.ascii	"long unsigned int\000"
 12487      20756E73 
 12487      69676E65 
 12487      6420696E 
 12487      7400
 12488              	.LASF64:
 12489 03c5 5F66696C 		.ascii	"_file\000"
 12489      6500
 12490              	.LASF84:
 12491 03cb 5F696E63 		.ascii	"_inc\000"
 12491      00
 12492              	.LASF189:
 12493 03d0 646D705F 		.ascii	"dmp_set_tap_time_multi\000"
 12493      7365745F 
 12493      7461705F 
 12493      74696D65 
 12493      5F6D756C 
 12494              	.LASF57:
 12495 03e7 5F696E64 		.ascii	"_ind\000"
 12495      00
 12496              	.LASF75:
 12497 03ec 5F646174 		.ascii	"_data\000"
 12497      6100
 12498              	.LASF167:
 12499 03f2 72656773 		.ascii	"regs_gesture\000"
 12499      5F676573 
 12499      74757265 
 12499      00
ARM GAS  /tmp/ccp3ezWO.s 			page 250


 12500              	.LASF225:
 12501 03ff 6D70755F 		.ascii	"mpu_get_accel_fsr\000"
 12501      6765745F 
 12501      61636365 
 12501      6C5F6673 
 12501      7200
 12502              	.LASF186:
 12503 0411 646D705F 		.ascii	"dmp_set_shake_reject_thresh\000"
 12503      7365745F 
 12503      7368616B 
 12503      655F7265 
 12503      6A656374 
 12504              	.LASF223:
 12505 042d 6D70755F 		.ascii	"mpu_write_mem\000"
 12505      77726974 
 12505      655F6D65 
 12505      6D00
 12506              	.LASF115:
 12507 043b 5F72616E 		.ascii	"_rand_next\000"
 12507      645F6E65 
 12507      787400
 12508              	.LASF201:
 12509 0446 646D705F 		.ascii	"dmp_get_fifo_rate\000"
 12509      6765745F 
 12509      6669666F 
 12509      5F726174 
 12509      6500
 12510              	.LASF199:
 12511 0458 646D705F 		.ascii	"dmp_thresh\000"
 12511      74687265 
 12511      736800
 12512              	.LASF121:
 12513 0463 5F736967 		.ascii	"_signal_buf\000"
 12513      6E616C5F 
 12513      62756600 
 12514              	.LASF112:
 12515 046f 5F617363 		.ascii	"_asctime_buf\000"
 12515      74696D65 
 12515      5F627566 
 12515      00
 12516              	.LASF90:
 12517 047c 5F726573 		.ascii	"_result\000"
 12517      756C7400 
 12518              	.LASF29:
 12519 0484 5F5F7763 		.ascii	"__wch\000"
 12519      6800
 12520              	.LASF195:
 12521 048a 61786973 		.ascii	"axis\000"
 12521      00
 12522              	.LASF96:
 12523 048f 5F6E6577 		.ascii	"_new\000"
 12523      00
 12524              	.LASF76:
 12525 0494 5F6C6F63 		.ascii	"_lock\000"
 12525      6B00
 12526              	.LASF108:
 12527 049a 5F6D756C 		.ascii	"_mult\000"
ARM GAS  /tmp/ccp3ezWO.s 			page 251


 12527      7400
 12528              	.LASF221:
 12529 04a0 6D70755F 		.ascii	"mpu_read_fifo_stream\000"
 12529      72656164 
 12529      5F666966 
 12529      6F5F7374 
 12529      7265616D 
 12530              	.LASF33:
 12531 04b5 5F6D6273 		.ascii	"_mbstate_t\000"
 12531      74617465 
 12531      5F7400
 12532              	.LASF151:
 12533 04c0 6669666F 		.ascii	"fifo_rate\000"
 12533      5F726174 
 12533      6500
 12534              	.LASF147:
 12535 04ca 7461705F 		.ascii	"tap_cb\000"
 12535      636200
 12536              	.LASF68:
 12537 04d1 5F777269 		.ascii	"_write\000"
 12537      746500
 12538              	.LASF47:
 12539 04d8 5F5F746D 		.ascii	"__tm_year\000"
 12539      5F796561 
 12539      7200
 12540              	.LASF196:
 12541 04e2 646D705F 		.ascii	"dmp_set_tap_thresh\000"
 12541      7365745F 
 12541      7461705F 
 12541      74687265 
 12541      736800
 12542              	.LASF154:
 12543 04f5 646D705F 		.ascii	"dmp_register_tap_cb\000"
 12543      72656769 
 12543      73746572 
 12543      5F746170 
 12543      5F636200 
 12544              	.LASF13:
 12545 0509 73697A65 		.ascii	"sizetype\000"
 12545      74797065 
 12545      00
 12546              	.LASF191:
 12547 0512 646D705F 		.ascii	"dmp_set_tap_time\000"
 12547      7365745F 
 12547      7461705F 
 12547      74696D65 
 12547      00
 12548              	.LASF145:
 12549 0523 73537461 		.ascii	"sStartAddress\000"
 12549      72744164 
 12549      64726573 
 12549      7300
 12550              	.LASF172:
 12551 0531 656E6162 		.ascii	"enable\000"
 12551      6C6500
 12552              	.LASF19:
 12553 0538 47795F6F 		.ascii	"Gy_offset\000"
ARM GAS  /tmp/ccp3ezWO.s 			page 252


 12553      66667365 
 12553      7400
 12554              	.LASF129:
 12555 0542 5F6E6578 		.ascii	"_nextf\000"
 12555      746600
 12556              	.LASF185:
 12557 0549 646D705F 		.ascii	"dmp_set_shake_reject_time\000"
 12557      7365745F 
 12557      7368616B 
 12557      655F7265 
 12557      6A656374 
 12558              	.LASF194:
 12559 0563 646D705F 		.ascii	"dmp_set_tap_axes\000"
 12559      7365745F 
 12559      7461705F 
 12559      61786573 
 12559      00
 12560              	.LASF168:
 12561 0574 616E6472 		.ascii	"android_orient\000"
 12561      6F69645F 
 12561      6F726965 
 12561      6E7400
 12562              	.LASF17:
 12563 0583 61636365 		.ascii	"accel\000"
 12563      6C00
 12564              	.LASF20:
 12565 0589 477A5F6F 		.ascii	"Gz_offset\000"
 12565      66667365 
 12565      7400
 12566              	.LASF46:
 12567 0593 5F5F746D 		.ascii	"__tm_mon\000"
 12567      5F6D6F6E 
 12567      00
 12568              	.LASF56:
 12569 059c 5F617465 		.ascii	"_atexit\000"
 12569      78697400 
 12570              	.LASF134:
 12571 05a4 7375626F 		.ascii	"suboptarg\000"
 12571      70746172 
 12571      6700
 12572              	.LASF117:
 12573 05ae 5F6D626C 		.ascii	"_mblen_state\000"
 12573      656E5F73 
 12573      74617465 
 12573      00
 12574              	.LASF88:
 12575 05bb 5F5F7364 		.ascii	"__sdidinit\000"
 12575      6964696E 
 12575      697400
 12576              	.LASF114:
 12577 05c6 5F67616D 		.ascii	"_gamma_signgam\000"
 12577      6D615F73 
 12577      69676E67 
 12577      616D00
 12578              	.LASF203:
 12579 05d5 646D705F 		.ascii	"dmp_set_fifo_rate\000"
 12579      7365745F 
ARM GAS  /tmp/ccp3ezWO.s 			page 253


 12579      6669666F 
 12579      5F726174 
 12579      6500
 12580              	.LASF28:
 12581 05e7 77696E74 		.ascii	"wint_t\000"
 12581      5F7400
 12582              	.LASF183:
 12583 05ee 646D705F 		.ascii	"dmp_get_pedometer_step_count\000"
 12583      6765745F 
 12583      7065646F 
 12583      6D657465 
 12583      725F7374 
 12584              	.LASF22:
 12585 060b 666C6F61 		.ascii	"float\000"
 12585      7400
 12586              	.LASF93:
 12587 0611 5F667265 		.ascii	"_freelist\000"
 12587      656C6973 
 12587      7400
 12588              	.LASF23:
 12589 061b 50697463 		.ascii	"Pitch\000"
 12589      6800
 12590              	.LASF160:
 12591 0621 6D6F7265 		.ascii	"more\000"
 12591      00
 12592              	.LASF25:
 12593 0626 5F4C4F43 		.ascii	"_LOCK_RECURSIVE_T\000"
 12593      4B5F5245 
 12593      43555253 
 12593      4956455F 
 12593      5400
 12594              	.LASF163:
 12595 0638 71756174 		.ascii	"quat_mag_sq\000"
 12595      5F6D6167 
 12595      5F737100 
 12596              	.LASF192:
 12597 0644 646D705F 		.ascii	"dmp_set_tap_count\000"
 12597      7365745F 
 12597      7461705F 
 12597      636F756E 
 12597      7400
 12598              	.LASF174:
 12599 0656 646D705F 		.ascii	"dmp_enable_lp_quat\000"
 12599      656E6162 
 12599      6C655F6C 
 12599      705F7175 
 12599      617400
 12600              	.LASF209:
 12601 0669 61636365 		.ascii	"accel_sens\000"
 12601      6C5F7365 
 12601      6E7300
 12602              	.LASF220:
 12603 0674 6D70755F 		.ascii	"mpu_reset_fifo\000"
 12603      72657365 
 12603      745F6669 
 12603      666F00
 12604              	.LASF11:
ARM GAS  /tmp/ccp3ezWO.s 			page 254


 12605 0683 696E7433 		.ascii	"int32_t\000"
 12605      325F7400 
 12606              	.LASF3:
 12607 068b 756E7369 		.ascii	"unsigned char\000"
 12607      676E6564 
 12607      20636861 
 12607      7200
 12608              	.LASF105:
 12609 0699 5F696F62 		.ascii	"_iobs\000"
 12609      7300
 12610              	.LASF128:
 12611 069f 5F685F65 		.ascii	"_h_errno\000"
 12611      72726E6F 
 12611      00
 12612              	.LASF34:
 12613 06a8 5F666C6F 		.ascii	"_flock_t\000"
 12613      636B5F74 
 12613      00
 12614              	.LASF49:
 12615 06b1 5F5F746D 		.ascii	"__tm_yday\000"
 12615      5F796461 
 12615      7900
 12616              	.LASF59:
 12617 06bb 5F5F7362 		.ascii	"__sbuf\000"
 12617      756600
 12618              	.LASF78:
 12619 06c2 5F666C61 		.ascii	"_flags2\000"
 12619      67733200 
 12620              	.LASF102:
 12621 06ca 5F5F4649 		.ascii	"__FILE\000"
 12621      4C4500
 12622              	.LASF182:
 12623 06d1 646D705F 		.ascii	"dmp_set_pedometer_step_count\000"
 12623      7365745F 
 12623      7065646F 
 12623      6D657465 
 12623      725F7374 
 12624              	.LASF62:
 12625 06ee 5F5F7346 		.ascii	"__sFILE\000"
 12625      494C4500 
 12626              	.LASF143:
 12627 06f6 5F737973 		.ascii	"_sys_nerr\000"
 12627      5F6E6572 
 12627      7200
 12628              	.LASF228:
 12629 0700 474E5520 		.ascii	"GNU C89 6.1.1 20160526 -mcpu=cortex-m3 -mthumb -mfl"
 12629      43383920 
 12629      362E312E 
 12629      31203230 
 12629      31363035 
 12630 0733 6F61742D 		.ascii	"oat-abi=soft -g -O1 -std=gnu90 -fno-common -fno-mat"
 12630      6162693D 
 12630      736F6674 
 12630      202D6720 
 12630      2D4F3120 
 12631 0766 682D6572 		.ascii	"h-errno\000"
 12631      726E6F00 
ARM GAS  /tmp/ccp3ezWO.s 			page 255


 12632              	.LASF206:
 12633 076e 62696173 		.ascii	"bias\000"
 12633      00
 12634              	.LASF181:
 12635 0773 646D705F 		.ascii	"dmp_get_pedometer_walk_time\000"
 12635      6765745F 
 12635      7065646F 
 12635      6D657465 
 12635      725F7761 
 12636              	.LASF144:
 12637 078f 646D705F 		.ascii	"dmp_memory\000"
 12637      6D656D6F 
 12637      727900
 12638              	.LASF166:
 12639 079a 72656773 		.ascii	"regs_continuous\000"
 12639      5F636F6E 
 12639      74696E75 
 12639      6F757300 
 12640              	.LASF227:
 12641 07aa 6D70755F 		.ascii	"mpu_load_firmware\000"
 12641      6C6F6164 
 12641      5F666972 
 12641      6D776172 
 12641      6500
 12642              	.LASF89:
 12643 07bc 5F5F636C 		.ascii	"__cleanup\000"
 12643      65616E75 
 12643      7000
 12644              	.LASF226:
 12645 07c6 6D70755F 		.ascii	"mpu_get_accel_sens\000"
 12645      6765745F 
 12645      61636365 
 12645      6C5F7365 
 12645      6E7300
 12646              	.LASF37:
 12647 07d9 5F6D6178 		.ascii	"_maxwds\000"
 12647      77647300 
 12648              	.LASF79:
 12649 07e1 5F726565 		.ascii	"_reent\000"
 12649      6E7400
 12650              	.LASF107:
 12651 07e8 5F736565 		.ascii	"_seed\000"
 12651      6400
 12652              	.LASF31:
 12653 07ee 5F5F636F 		.ascii	"__count\000"
 12653      756E7400 
 12654              	.LASF32:
 12655 07f6 5F5F7661 		.ascii	"__value\000"
 12655      6C756500 
 12656              	.LASF188:
 12657 07fe 74687265 		.ascii	"thresh_scaled\000"
 12657      73685F73 
 12657      63616C65 
 12657      6400
 12658              	.LASF69:
 12659 080c 5F736565 		.ascii	"_seek\000"
 12659      6B00
ARM GAS  /tmp/ccp3ezWO.s 			page 256


 12660              	.LASF149:
 12661 0812 6F726965 		.ascii	"orient\000"
 12661      6E7400
 12662              	.LASF48:
 12663 0819 5F5F746D 		.ascii	"__tm_wday\000"
 12663      5F776461 
 12663      7900
 12664              	.LASF173:
 12665 0823 72656773 		.ascii	"regs\000"
 12665      00
 12666              	.LASF159:
 12667 0828 73656E73 		.ascii	"sensors\000"
 12667      6F727300 
 12668              	.LASF136:
 12669 0830 6C6F6E67 		.ascii	"long double\000"
 12669      20646F75 
 12669      626C6500 
 12670              	.LASF222:
 12671 083c 6D796765 		.ascii	"myget_ms\000"
 12671      745F6D73 
 12671      00
 12672              	.LASF80:
 12673 0845 5F657272 		.ascii	"_errno\000"
 12673      6E6F00
 12674              	.LASF101:
 12675 084c 63686172 		.ascii	"char\000"
 12675      00
 12676              	.LASF73:
 12677 0851 5F626C6B 		.ascii	"_blksize\000"
 12677      73697A65 
 12677      00
 12678              	.LASF165:
 12679 085a 6D6F6465 		.ascii	"mode\000"
 12679      00
 12680              	.LASF61:
 12681 085f 5F73697A 		.ascii	"_size\000"
 12681      6500
 12682              	.LASF1:
 12683 0865 756E7369 		.ascii	"unsigned int\000"
 12683      676E6564 
 12683      20696E74 
 12683      00
 12684              	.LASF146:
 12685 0872 646D705F 		.ascii	"dmp_s\000"
 12685      7300
 12686              	.LASF54:
 12687 0878 5F666E74 		.ascii	"_fntypes\000"
 12687      79706573 
 12687      00
 12688              	.LASF213:
 12689 0881 6779726F 		.ascii	"gyro_regs\000"
 12689      5F726567 
 12689      7300
 12690              	.LASF229:
 12691 088b 64726976 		.ascii	"drivers/inv_mpu_dmp_motion_driver.c\000"
 12691      6572732F 
 12691      696E765F 
ARM GAS  /tmp/ccp3ezWO.s 			page 257


 12691      6D70755F 
 12691      646D705F 
 12692              	.LASF7:
 12693 08af 5F5F696E 		.ascii	"__int32_t\000"
 12693      7433325F 
 12693      7400
 12694              	.LASF152:
 12695 08b9 7061636B 		.ascii	"packet_length\000"
 12695      65745F6C 
 12695      656E6774 
 12695      6800
 12696              	.LASF207:
 12697 08c7 61636365 		.ascii	"accel_bias_body\000"
 12697      6C5F6269 
 12697      61735F62 
 12697      6F647900 
 12698              	.LASF24:
 12699 08d7 526F6C6C 		.ascii	"Roll\000"
 12699      00
 12700              	.LASF232:
 12701 08dc 6465636F 		.ascii	"decode_gesture\000"
 12701      64655F67 
 12701      65737475 
 12701      726500
 12702              	.LASF210:
 12703 08eb 646D705F 		.ascii	"dmp_set_gyro_bias\000"
 12703      7365745F 
 12703      6779726F 
 12703      5F626961 
 12703      7300
 12704              	.LASF111:
 12705 08fd 5F737472 		.ascii	"_strtok_last\000"
 12705      746F6B5F 
 12705      6C617374 
 12705      00
 12706              	.LASF214:
 12707 090a 61636365 		.ascii	"accel_regs\000"
 12707      6C5F7265 
 12707      677300
 12708              	.LASF171:
 12709 0915 646D705F 		.ascii	"dmp_enable_6x_lp_quat\000"
 12709      656E6162 
 12709      6C655F36 
 12709      785F6C70 
 12709      5F717561 
 12710              	.LASF5:
 12711 092b 73686F72 		.ascii	"short unsigned int\000"
 12711      7420756E 
 12711      7369676E 
 12711      65642069 
 12711      6E7400
 12712              	.LASF109:
 12713 093e 5F616464 		.ascii	"_add\000"
 12713      00
 12714              	.LASF35:
 12715 0943 5F5F554C 		.ascii	"__ULong\000"
 12715      6F6E6700 
ARM GAS  /tmp/ccp3ezWO.s 			page 258


 12716              	.LASF176:
 12717 094b 646D705F 		.ascii	"dmp_get_enabled_features\000"
 12717      6765745F 
 12717      656E6162 
 12717      6C65645F 
 12717      66656174 
 12718              	.LASF122:
 12719 0964 5F676574 		.ascii	"_getdate_err\000"
 12719      64617465 
 12719      5F657272 
 12719      00
 12720              	.LASF180:
 12721 0971 74696D65 		.ascii	"time\000"
 12721      00
 12722              	.LASF231:
 12723 0976 5F5F6664 		.ascii	"__fdlibm_version\000"
 12723      6C69626D 
 12723      5F766572 
 12723      73696F6E 
 12723      00
 12724              	.LASF21:
 12725 0987 41636331 		.ascii	"Acc1G_Values\000"
 12725      475F5661 
 12725      6C756573 
 12725      00
 12726              	.LASF133:
 12727 0994 5F676C6F 		.ascii	"_global_impure_ptr\000"
 12727      62616C5F 
 12727      696D7075 
 12727      72655F70 
 12727      747200
 12728              	.LASF86:
 12729 09a7 5F637572 		.ascii	"_current_category\000"
 12729      72656E74 
 12729      5F636174 
 12729      65676F72 
 12729      7900
 12730              	.LASF137:
 12731 09b9 5F5F6664 		.ascii	"__fdlibm_ieee\000"
 12731      6C69626D 
 12731      5F696565 
 12731      6500
 12732              	.LASF204:
 12733 09c7 72656773 		.ascii	"regs_end\000"
 12733      5F656E64 
 12733      00
 12734              	.LASF110:
 12735 09d0 5F756E75 		.ascii	"_unused_rand\000"
 12735      7365645F 
 12735      72616E64 
 12735      00
 12736              	.LASF212:
 12737 09dd 646D705F 		.ascii	"dmp_set_orientation\000"
 12737      7365745F 
 12737      6F726965 
 12737      6E746174 
 12737      696F6E00 
ARM GAS  /tmp/ccp3ezWO.s 			page 259


 12738              	.LASF39:
 12739 09f1 5F776473 		.ascii	"_wds\000"
 12739      00
 12740              	.LASF103:
 12741 09f6 5F676C75 		.ascii	"_glue\000"
 12741      6500
 12742              	.LASF150:
 12743 09fc 66656174 		.ascii	"feature_mask\000"
 12743      7572655F 
 12743      6D61736B 
 12743      00
 12744              	.LASF63:
 12745 0a09 5F666C61 		.ascii	"_flags\000"
 12745      677300
 12746              	.LASF130:
 12747 0a10 5F6E6D61 		.ascii	"_nmalloc\000"
 12747      6C6C6F63 
 12747      00
 12748              	.LASF120:
 12749 0a19 5F6C3634 		.ascii	"_l64a_buf\000"
 12749      615F6275 
 12749      6600
 12750              	.LASF98:
 12751 0a23 5F736967 		.ascii	"_sig_func\000"
 12751      5F66756E 
 12751      6300
 12752              	.LASF162:
 12753 0a2d 71756174 		.ascii	"quat_q14\000"
 12753      5F713134 
 12753      00
 12754              	.LASF72:
 12755 0a36 5F6E6275 		.ascii	"_nbuf\000"
 12755      6600
 12756              	.LASF131:
 12757 0a3c 5F756E75 		.ascii	"_unused\000"
 12757      73656400 
 12758              	.LASF50:
 12759 0a44 5F5F746D 		.ascii	"__tm_isdst\000"
 12759      5F697364 
 12759      737400
 12760              	.LASF113:
 12761 0a4f 5F6C6F63 		.ascii	"_localtime_buf\000"
 12761      616C7469 
 12761      6D655F62 
 12761      756600
 12762              	.LASF178:
 12763 0a5e 646D705F 		.ascii	"dmp_enable_feature\000"
 12763      656E6162 
 12763      6C655F66 
 12763      65617475 
 12763      726500
 12764              	.LASF116:
 12765 0a71 5F723438 		.ascii	"_r48\000"
 12765      00
 12766              	.LASF87:
 12767 0a76 5F637572 		.ascii	"_current_locale\000"
 12767      72656E74 
ARM GAS  /tmp/ccp3ezWO.s 			page 260


 12767      5F6C6F63 
 12767      616C6500 
 12768              	.LASF215:
 12769 0a86 6779726F 		.ascii	"gyro_axes\000"
 12769      5F617865 
 12769      7300
 12770              	.LASF92:
 12771 0a90 5F703573 		.ascii	"_p5s\000"
 12771      00
 12772              	.LASF175:
 12773 0a95 646D705F 		.ascii	"dmp_enable_gyro_cal\000"
 12773      656E6162 
 12773      6C655F67 
 12773      79726F5F 
 12773      63616C00 
 12774              	.LASF218:
 12775 0aa9 61636365 		.ascii	"accel_sign\000"
 12775      6C5F7369 
 12775      676E00
 12776              	.LASF164:
 12777 0ab4 646D705F 		.ascii	"dmp_set_interrupt_mode\000"
 12777      7365745F 
 12777      696E7465 
 12777      72727570 
 12777      745F6D6F 
 12778              	.LASF12:
 12779 0acb 75696E74 		.ascii	"uint32_t\000"
 12779      33325F74 
 12779      00
 12780              	.LASF45:
 12781 0ad4 5F5F746D 		.ascii	"__tm_mday\000"
 12781      5F6D6461 
 12781      7900
 12782              	.LASF179:
 12783 0ade 646D705F 		.ascii	"dmp_set_pedometer_walk_time\000"
 12783      7365745F 
 12783      7065646F 
 12783      6D657465 
 12783      725F7761 
 12784              	.LASF216:
 12785 0afa 61636365 		.ascii	"accel_axes\000"
 12785      6C5F6178 
 12785      657300
 12786              	.LASF148:
 12787 0b05 616E6472 		.ascii	"android_orient_cb\000"
 12787      6F69645F 
 12787      6F726965 
 12787      6E745F63 
 12787      6200
 12788              		.ident	"GCC: (Arch Repository) 6.1.1 20160526"
ARM GAS  /tmp/ccp3ezWO.s 			page 261


DEFINED SYMBOLS
                            *ABS*:0000000000000000 inv_mpu_dmp_motion_driver.c
     /tmp/ccp3ezWO.s:15     .text:0000000000000000 $t
     /tmp/ccp3ezWO.s:22     .text:0000000000000000 dmp_load_motion_driver_firmware
     /tmp/ccp3ezWO.s:45     .text:0000000000000014 $d
     /tmp/ccp3ezWO.s:49     .text:0000000000000018 $t
     /tmp/ccp3ezWO.s:56     .text:0000000000000018 dmp_set_orientation
     /tmp/ccp3ezWO.s:222    .text:0000000000000144 $d
     /tmp/ccp3ezWO.s:226    .text:0000000000000148 $t
     /tmp/ccp3ezWO.s:233    .text:0000000000000148 dmp_set_gyro_bias
     /tmp/ccp3ezWO.s:380    .text:000000000000022c $d
     /tmp/ccp3ezWO.s:385    .text:0000000000000234 $t
     /tmp/ccp3ezWO.s:392    .text:0000000000000234 dmp_set_accel_bias
     /tmp/ccp3ezWO.s:535    .text:000000000000031c $d
     /tmp/ccp3ezWO.s:539    .text:0000000000000320 $t
     /tmp/ccp3ezWO.s:546    .text:0000000000000320 dmp_set_fifo_rate
     /tmp/ccp3ezWO.s:626    .text:0000000000000384 $d
     /tmp/ccp3ezWO.s:631    .text:000000000000038c $t
     /tmp/ccp3ezWO.s:638    .text:000000000000038c dmp_get_fifo_rate
     /tmp/ccp3ezWO.s:657    .text:0000000000000398 $d
     /tmp/ccp3ezWO.s:665    .text:000000000000039c $t
     /tmp/ccp3ezWO.s:672    .text:000000000000039c dmp_set_tap_thresh
     /tmp/ccp3ezWO.s:717    .text:00000000000003d8 $d
     /tmp/ccp3ezWO.s:953    .text:000000000000052c $d
     /tmp/ccp3ezWO.s:961    .text:0000000000000540 $t
     /tmp/ccp3ezWO.s:968    .text:0000000000000540 dmp_set_tap_axes
     /tmp/ccp3ezWO.s:1026   .text:000000000000058a dmp_set_tap_count
     /tmp/ccp3ezWO.s:1080   .text:00000000000005b6 dmp_set_tap_time
     /tmp/ccp3ezWO.s:1118   .text:00000000000005e0 $d
     /tmp/ccp3ezWO.s:1122   .text:00000000000005e4 $t
     /tmp/ccp3ezWO.s:1129   .text:00000000000005e4 dmp_set_tap_time_multi
     /tmp/ccp3ezWO.s:1167   .text:000000000000060c $d
     /tmp/ccp3ezWO.s:1171   .text:0000000000000610 $t
     /tmp/ccp3ezWO.s:1178   .text:0000000000000610 dmp_set_shake_reject_thresh
     /tmp/ccp3ezWO.s:1224   .text:000000000000064c $d
     /tmp/ccp3ezWO.s:1228   .text:0000000000000650 $t
     /tmp/ccp3ezWO.s:1235   .text:0000000000000650 dmp_set_shake_reject_time
     /tmp/ccp3ezWO.s:1273   .text:0000000000000678 $d
     /tmp/ccp3ezWO.s:1277   .text:000000000000067c $t
     /tmp/ccp3ezWO.s:1284   .text:000000000000067c dmp_set_shake_reject_timeout
     /tmp/ccp3ezWO.s:1322   .text:00000000000006a4 $d
     /tmp/ccp3ezWO.s:1326   .text:00000000000006a8 $t
     /tmp/ccp3ezWO.s:1333   .text:00000000000006a8 dmp_get_pedometer_step_count
     /tmp/ccp3ezWO.s:1407   .text:00000000000006f2 dmp_set_pedometer_step_count
     /tmp/ccp3ezWO.s:1452   .text:000000000000071e dmp_get_pedometer_walk_time
     /tmp/ccp3ezWO.s:1528   .text:000000000000076e dmp_set_pedometer_walk_time
     /tmp/ccp3ezWO.s:1571   .text:00000000000007a4 $d
     /tmp/ccp3ezWO.s:1575   .text:00000000000007a8 $t
     /tmp/ccp3ezWO.s:1582   .text:00000000000007a8 dmp_get_enabled_features
     /tmp/ccp3ezWO.s:1601   .text:00000000000007b4 $d
     /tmp/ccp3ezWO.s:1605   .text:00000000000007b8 $t
     /tmp/ccp3ezWO.s:1612   .text:00000000000007b8 dmp_enable_gyro_cal
     /tmp/ccp3ezWO.s:1673   .text:00000000000007fc $d
     /tmp/ccp3ezWO.s:1679   .text:0000000000000804 $t
     /tmp/ccp3ezWO.s:1686   .text:0000000000000804 dmp_enable_lp_quat
     /tmp/ccp3ezWO.s:1746   .text:0000000000000840 dmp_enable_6x_lp_quat
     /tmp/ccp3ezWO.s:1806   .text:000000000000087c dmp_enable_feature
ARM GAS  /tmp/ccp3ezWO.s 			page 262


     /tmp/ccp3ezWO.s:2111   .text:0000000000000a68 $d
     /tmp/ccp3ezWO.s:2116   .text:0000000000000a70 $t
     /tmp/ccp3ezWO.s:2123   .text:0000000000000a70 dmp_set_interrupt_mode
     /tmp/ccp3ezWO.s:2193   .text:0000000000000ad8 $d
     /tmp/ccp3ezWO.s:2197   .text:0000000000000adc $t
     /tmp/ccp3ezWO.s:2204   .text:0000000000000adc dmp_read_fifo
     /tmp/ccp3ezWO.s:2484   .text:0000000000000ca4 $d
     /tmp/ccp3ezWO.s:2488   .text:0000000000000ca8 $t
     /tmp/ccp3ezWO.s:2495   .text:0000000000000ca8 dmp_register_tap_cb
     /tmp/ccp3ezWO.s:2513   .text:0000000000000cb0 $d
     /tmp/ccp3ezWO.s:2517   .text:0000000000000cb4 $t
     /tmp/ccp3ezWO.s:2524   .text:0000000000000cb4 dmp_register_android_orient_cb
     /tmp/ccp3ezWO.s:2542   .text:0000000000000cbc $d
     /tmp/ccp3ezWO.s:2547   .rodata:0000000000000000 $d
     /tmp/ccp3ezWO.s:2551   .rodata:0000000000000000 dmp_memory
     /tmp/ccp3ezWO.s:5676   .bss:0000000000000000 $d
     /tmp/ccp3ezWO.s:5680   .bss:0000000000000000 dmp
                     .debug_frame:0000000000000010 $d
     /tmp/ccp3ezWO.s:732    .text:00000000000003e7 $d
     /tmp/ccp3ezWO.s:732    .text:00000000000003e8 $t

UNDEFINED SYMBOLS
mpu_load_firmware
mpu_write_mem
mpu_get_accel_sens
__aeabi_ui2f
__aeabi_fdiv
__aeabi_fmul
__aeabi_f2uiz
mpu_get_accel_fsr
mpu_read_mem
mpu_reset_fifo
mpu_read_fifo_stream
myget_ms
