ARM GAS  /tmp/cc7GaDyr.s 			page 1


   1              		.cpu cortex-m3
   2              		.eabi_attribute 20, 1
   3              		.eabi_attribute 21, 1
   4              		.eabi_attribute 23, 3
   5              		.eabi_attribute 24, 1
   6              		.eabi_attribute 25, 1
   7              		.eabi_attribute 26, 1
   8              		.eabi_attribute 30, 1
   9              		.eabi_attribute 34, 1
  10              		.eabi_attribute 18, 4
  11              		.file	"IOI2C.c"
  12              		.text
  13              	.Ltext0:
  14              		.cfi_sections	.debug_frame
  15              		.align	1
  16              		.global	IIC_Init
  17              		.syntax unified
  18              		.thumb
  19              		.thumb_func
  20              		.fpu softvfp
  21              		.type	IIC_Init, %function
  22              	IIC_Init:
  23              	.LFB64:
  24              		.file 1 "drivers/IOI2C.c"
   1:drivers/IOI2C.c **** #include "IOI2C.h"
   2:drivers/IOI2C.c **** #include "tools.h"
   3:drivers/IOI2C.c **** 
   4:drivers/IOI2C.c **** /**************************实现函数********************************************
   5:drivers/IOI2C.c **** *函数原型:		void IIC_Init(void)
   6:drivers/IOI2C.c **** *功　　能:		初始化I2C对应的接口引脚。
   7:drivers/IOI2C.c **** *******************************************************************************/
   8:drivers/IOI2C.c **** void IIC_Init(void)
   9:drivers/IOI2C.c **** {			
  25              		.loc 1 9 0
  26              		.cfi_startproc
  27              		@ args = 0, pretend = 0, frame = 0
  28              		@ frame_needed = 0, uses_anonymous_args = 0
  29              		@ link register save eliminated.
  10:drivers/IOI2C.c ****   /*RCC->APB2ENR|=1<<2;//先使能外设IO PORTA时钟 							 */
  11:drivers/IOI2C.c ****   GPIOB->CRH&=0XFFFF0FF0;//推挽输出
  30              		.loc 1 11 0
  31 0000 064A     		ldr	r2, .L2
  32 0002 5368     		ldr	r3, [r2, #4]
  33 0004 23F47043 		bic	r3, r3, #61440
  34 0008 23F00F03 		bic	r3, r3, #15
  35 000c 5360     		str	r3, [r2, #4]
  12:drivers/IOI2C.c ****   GPIOB->CRH|=0X00003003;	   
  36              		.loc 1 12 0
  37 000e 5368     		ldr	r3, [r2, #4]
  38 0010 43F44053 		orr	r3, r3, #12288
  39 0014 43F00303 		orr	r3, r3, #3
  40 0018 5360     		str	r3, [r2, #4]
  41 001a 7047     		bx	lr
  42              	.L3:
  43              		.align	2
  44              	.L2:
  45 001c 000C0140 		.word	1073810432
ARM GAS  /tmp/cc7GaDyr.s 			page 2


  46              		.cfi_endproc
  47              	.LFE64:
  48              		.size	IIC_Init, .-IIC_Init
  49              		.align	1
  50              		.global	IIC_Start
  51              		.syntax unified
  52              		.thumb
  53              		.thumb_func
  54              		.fpu softvfp
  55              		.type	IIC_Start, %function
  56              	IIC_Start:
  57              	.LFB65:
  13:drivers/IOI2C.c **** }
  14:drivers/IOI2C.c **** 
  15:drivers/IOI2C.c **** /**************************实现函数********************************************
  16:drivers/IOI2C.c **** *函数原型:		void IIC_Start(void)
  17:drivers/IOI2C.c **** *功　　能:		产生IIC起始信号
  18:drivers/IOI2C.c **** *******************************************************************************/
  19:drivers/IOI2C.c **** int IIC_Start(void)
  20:drivers/IOI2C.c **** {
  58              		.loc 1 20 0
  59              		.cfi_startproc
  60              		@ args = 0, pretend = 0, frame = 0
  61              		@ frame_needed = 0, uses_anonymous_args = 0
  62 0020 08B5     		push	{r3, lr}
  63              		.cfi_def_cfa_offset 8
  64              		.cfi_offset 3, -8
  65              		.cfi_offset 14, -4
  21:drivers/IOI2C.c **** 	SDA_OUT();     //sda线输出
  66              		.loc 1 21 0
  67 0022 134B     		ldr	r3, .L11
  68 0024 5A68     		ldr	r2, [r3, #4]
  69 0026 22F00F02 		bic	r2, r2, #15
  70 002a 5A60     		str	r2, [r3, #4]
  71 002c 5A68     		ldr	r2, [r3, #4]
  72 002e 42F00302 		orr	r2, r2, #3
  73 0032 5A60     		str	r2, [r3, #4]
  22:drivers/IOI2C.c **** 	IIC_SDA=1;
  74              		.loc 1 22 0
  75 0034 0122     		movs	r2, #1
  76 0036 0F4B     		ldr	r3, .L11+4
  77 0038 1A60     		str	r2, [r3]
  23:drivers/IOI2C.c **** 	if(!READ_SDA)return 0;	
  78              		.loc 1 23 0
  79 003a 803B     		subs	r3, r3, #128
  80 003c 1B68     		ldr	r3, [r3]
  81 003e 0BB9     		cbnz	r3, .L9
  82 0040 0020     		movs	r0, #0
  83 0042 08BD     		pop	{r3, pc}
  84              	.L9:
  24:drivers/IOI2C.c **** 	IIC_SCL=1;
  85              		.loc 1 24 0
  86 0044 1046     		mov	r0, r2
  87 0046 0C4B     		ldr	r3, .L11+8
  88 0048 1A60     		str	r2, [r3]
  25:drivers/IOI2C.c **** 	DelayUs(1);
  89              		.loc 1 25 0
ARM GAS  /tmp/cc7GaDyr.s 			page 3


  90 004a FFF7FEFF 		bl	DelayUs
  91              	.LVL0:
  26:drivers/IOI2C.c ****  	IIC_SDA=0;//START:when CLK is high,DATA change form high to low 
  92              		.loc 1 26 0
  93 004e 0022     		movs	r2, #0
  94 0050 084B     		ldr	r3, .L11+4
  95 0052 1A60     		str	r2, [r3]
  27:drivers/IOI2C.c **** 	if(READ_SDA)return 0;
  96              		.loc 1 27 0
  97 0054 803B     		subs	r3, r3, #128
  98 0056 1B68     		ldr	r3, [r3]
  99 0058 0BB1     		cbz	r3, .L10
 100 005a 0020     		movs	r0, #0
  28:drivers/IOI2C.c **** 	DelayUs(1);
  29:drivers/IOI2C.c **** 	IIC_SCL=0;//钳住I2C总线，准备发送或接收数据 
  30:drivers/IOI2C.c **** 	return 1;
  31:drivers/IOI2C.c **** }
 101              		.loc 1 31 0
 102 005c 08BD     		pop	{r3, pc}
 103              	.L10:
  28:drivers/IOI2C.c **** 	DelayUs(1);
 104              		.loc 1 28 0
 105 005e 0120     		movs	r0, #1
 106 0060 FFF7FEFF 		bl	DelayUs
 107              	.LVL1:
  29:drivers/IOI2C.c **** 	return 1;
 108              		.loc 1 29 0
 109 0064 0022     		movs	r2, #0
 110 0066 044B     		ldr	r3, .L11+8
 111 0068 1A60     		str	r2, [r3]
  30:drivers/IOI2C.c **** }
 112              		.loc 1 30 0
 113 006a 0120     		movs	r0, #1
 114 006c 08BD     		pop	{r3, pc}
 115              	.L12:
 116 006e 00BF     		.align	2
 117              	.L11:
 118 0070 000C0140 		.word	1073810432
 119 0074 AC812142 		.word	1109492140
 120 0078 A8812142 		.word	1109492136
 121              		.cfi_endproc
 122              	.LFE65:
 123              		.size	IIC_Start, .-IIC_Start
 124              		.align	1
 125              		.global	IIC_Stop
 126              		.syntax unified
 127              		.thumb
 128              		.thumb_func
 129              		.fpu softvfp
 130              		.type	IIC_Stop, %function
 131              	IIC_Stop:
 132              	.LFB66:
  32:drivers/IOI2C.c **** 
  33:drivers/IOI2C.c **** /**************************实现函数********************************************
  34:drivers/IOI2C.c **** *函数原型:		void IIC_Stop(void)
  35:drivers/IOI2C.c **** *功　　能:	    //产生IIC停止信号
  36:drivers/IOI2C.c **** *******************************************************************************/	  
ARM GAS  /tmp/cc7GaDyr.s 			page 4


  37:drivers/IOI2C.c **** void IIC_Stop(void)
  38:drivers/IOI2C.c **** {
 133              		.loc 1 38 0
 134              		.cfi_startproc
 135              		@ args = 0, pretend = 0, frame = 0
 136              		@ frame_needed = 0, uses_anonymous_args = 0
 137 007c 38B5     		push	{r3, r4, r5, lr}
 138              		.cfi_def_cfa_offset 16
 139              		.cfi_offset 3, -16
 140              		.cfi_offset 4, -12
 141              		.cfi_offset 5, -8
 142              		.cfi_offset 14, -4
  39:drivers/IOI2C.c **** 	SDA_OUT();//sda线输出
 143              		.loc 1 39 0
 144 007e 0B4B     		ldr	r3, .L15
 145 0080 5A68     		ldr	r2, [r3, #4]
 146 0082 22F00F02 		bic	r2, r2, #15
 147 0086 5A60     		str	r2, [r3, #4]
 148 0088 5A68     		ldr	r2, [r3, #4]
 149 008a 42F00302 		orr	r2, r2, #3
 150 008e 5A60     		str	r2, [r3, #4]
  40:drivers/IOI2C.c **** 	IIC_SCL=0;
 151              		.loc 1 40 0
 152 0090 074D     		ldr	r5, .L15+4
 153 0092 0023     		movs	r3, #0
 154 0094 2B60     		str	r3, [r5]
  41:drivers/IOI2C.c **** 	IIC_SDA=0;//STOP:when CLK is high DATA change form low to high
 155              		.loc 1 41 0
 156 0096 074C     		ldr	r4, .L15+8
 157 0098 2360     		str	r3, [r4]
  42:drivers/IOI2C.c ****  	DelayUs(1);
 158              		.loc 1 42 0
 159 009a 0120     		movs	r0, #1
 160 009c FFF7FEFF 		bl	DelayUs
 161              	.LVL2:
  43:drivers/IOI2C.c **** 	IIC_SCL=1; 
 162              		.loc 1 43 0
 163 00a0 0120     		movs	r0, #1
 164 00a2 2860     		str	r0, [r5]
  44:drivers/IOI2C.c **** 	IIC_SDA=1;//发送I2C总线结束信号
 165              		.loc 1 44 0
 166 00a4 2060     		str	r0, [r4]
  45:drivers/IOI2C.c **** 	DelayUs(1);							   	
 167              		.loc 1 45 0
 168 00a6 FFF7FEFF 		bl	DelayUs
 169              	.LVL3:
 170 00aa 38BD     		pop	{r3, r4, r5, pc}
 171              	.L16:
 172              		.align	2
 173              	.L15:
 174 00ac 000C0140 		.word	1073810432
 175 00b0 A8812142 		.word	1109492136
 176 00b4 AC812142 		.word	1109492140
 177              		.cfi_endproc
 178              	.LFE66:
 179              		.size	IIC_Stop, .-IIC_Stop
 180              		.align	1
ARM GAS  /tmp/cc7GaDyr.s 			page 5


 181              		.global	IIC_Wait_Ack
 182              		.syntax unified
 183              		.thumb
 184              		.thumb_func
 185              		.fpu softvfp
 186              		.type	IIC_Wait_Ack, %function
 187              	IIC_Wait_Ack:
 188              	.LFB67:
  46:drivers/IOI2C.c **** }
  47:drivers/IOI2C.c **** 
  48:drivers/IOI2C.c **** /**************************实现函数********************************************
  49:drivers/IOI2C.c **** *函数原型:		u8 IIC_Wait_Ack(void)
  50:drivers/IOI2C.c **** *功　　能:	    等待应答信号到来 
  51:drivers/IOI2C.c **** //返回值：1，接收应答失败
  52:drivers/IOI2C.c **** //        0，接收应答成功
  53:drivers/IOI2C.c **** *******************************************************************************/
  54:drivers/IOI2C.c **** int IIC_Wait_Ack(void)
  55:drivers/IOI2C.c **** {
 189              		.loc 1 55 0
 190              		.cfi_startproc
 191              		@ args = 0, pretend = 0, frame = 0
 192              		@ frame_needed = 0, uses_anonymous_args = 0
 193 00b8 70B5     		push	{r4, r5, r6, lr}
 194              		.cfi_def_cfa_offset 16
 195              		.cfi_offset 4, -16
 196              		.cfi_offset 5, -12
 197              		.cfi_offset 6, -8
 198              		.cfi_offset 14, -4
 199              	.LVL4:
  56:drivers/IOI2C.c **** 	u8 ucErrTime=0;
  57:drivers/IOI2C.c **** 	SDA_IN();      //SDA设置为输入  
 200              		.loc 1 57 0
 201 00ba 164B     		ldr	r3, .L25
 202 00bc 5A68     		ldr	r2, [r3, #4]
 203 00be 22F00F02 		bic	r2, r2, #15
 204 00c2 5A60     		str	r2, [r3, #4]
 205 00c4 5A68     		ldr	r2, [r3, #4]
 206 00c6 42F00802 		orr	r2, r2, #8
 207 00ca 5A60     		str	r2, [r3, #4]
  58:drivers/IOI2C.c **** 	IIC_SDA=1;
 208              		.loc 1 58 0
 209 00cc 0124     		movs	r4, #1
 210 00ce 124B     		ldr	r3, .L25+4
 211 00d0 1C60     		str	r4, [r3]
  59:drivers/IOI2C.c **** 	DelayUs(1);	   
 212              		.loc 1 59 0
 213 00d2 2046     		mov	r0, r4
 214 00d4 FFF7FEFF 		bl	DelayUs
 215              	.LVL5:
  60:drivers/IOI2C.c **** 	IIC_SCL=1;
 216              		.loc 1 60 0
 217 00d8 104B     		ldr	r3, .L25+8
 218 00da 1C60     		str	r4, [r3]
  61:drivers/IOI2C.c **** 	DelayUs(1);	 
 219              		.loc 1 61 0
 220 00dc 2046     		mov	r0, r4
 221 00de FFF7FEFF 		bl	DelayUs
ARM GAS  /tmp/cc7GaDyr.s 			page 6


 222              	.LVL6:
  62:drivers/IOI2C.c **** 	while(READ_SDA)
 223              		.loc 1 62 0
 224 00e2 0F4B     		ldr	r3, .L25+12
 225 00e4 1B68     		ldr	r3, [r3]
 226 00e6 7BB1     		cbz	r3, .L19
 227 00e8 3224     		movs	r4, #50
  63:drivers/IOI2C.c **** 	{
  64:drivers/IOI2C.c **** 		ucErrTime++;
  65:drivers/IOI2C.c **** 		if(ucErrTime>50)
  66:drivers/IOI2C.c **** 		{
  67:drivers/IOI2C.c **** 			IIC_Stop();
  68:drivers/IOI2C.c **** 			return 0;
  69:drivers/IOI2C.c **** 		}
  70:drivers/IOI2C.c **** 	  DelayUs(1);
 228              		.loc 1 70 0
 229 00ea 0126     		movs	r6, #1
  62:drivers/IOI2C.c **** 	while(READ_SDA)
 230              		.loc 1 62 0
 231 00ec 0C4D     		ldr	r5, .L25+12
 232              	.LVL7:
 233              	.L18:
 234              		.loc 1 70 0
 235 00ee 3046     		mov	r0, r6
 236 00f0 FFF7FEFF 		bl	DelayUs
 237              	.LVL8:
  62:drivers/IOI2C.c **** 	while(READ_SDA)
 238              		.loc 1 62 0
 239 00f4 2B68     		ldr	r3, [r5]
 240 00f6 3BB1     		cbz	r3, .L19
 241              	.LVL9:
 242 00f8 631E     		subs	r3, r4, #1
  65:drivers/IOI2C.c **** 		{
 243              		.loc 1 65 0
 244 00fa 13F0FF04 		ands	r4, r3, #255
 245              	.LVL10:
 246 00fe F6D1     		bne	.L18
  67:drivers/IOI2C.c **** 			return 0;
 247              		.loc 1 67 0
 248 0100 FFF7FEFF 		bl	IIC_Stop
 249              	.LVL11:
  68:drivers/IOI2C.c **** 		}
 250              		.loc 1 68 0
 251 0104 0020     		movs	r0, #0
 252 0106 70BD     		pop	{r4, r5, r6, pc}
 253              	.L19:
  71:drivers/IOI2C.c **** 	}
  72:drivers/IOI2C.c **** 	IIC_SCL=0;//时钟输出0 	   
 254              		.loc 1 72 0
 255 0108 0022     		movs	r2, #0
 256 010a 044B     		ldr	r3, .L25+8
 257 010c 1A60     		str	r2, [r3]
  73:drivers/IOI2C.c **** 	return 1;  
 258              		.loc 1 73 0
 259 010e 0120     		movs	r0, #1
  74:drivers/IOI2C.c **** } 
 260              		.loc 1 74 0
ARM GAS  /tmp/cc7GaDyr.s 			page 7


 261 0110 70BD     		pop	{r4, r5, r6, pc}
 262              	.L26:
 263 0112 00BF     		.align	2
 264              	.L25:
 265 0114 000C0140 		.word	1073810432
 266 0118 AC812142 		.word	1109492140
 267 011c A8812142 		.word	1109492136
 268 0120 2C812142 		.word	1109492012
 269              		.cfi_endproc
 270              	.LFE67:
 271              		.size	IIC_Wait_Ack, .-IIC_Wait_Ack
 272              		.align	1
 273              		.global	IIC_Ack
 274              		.syntax unified
 275              		.thumb
 276              		.thumb_func
 277              		.fpu softvfp
 278              		.type	IIC_Ack, %function
 279              	IIC_Ack:
 280              	.LFB68:
  75:drivers/IOI2C.c **** 
  76:drivers/IOI2C.c **** /**************************实现函数********************************************
  77:drivers/IOI2C.c **** *函数原型:		void IIC_Ack(void)
  78:drivers/IOI2C.c **** *功　　能:	    产生ACK应答
  79:drivers/IOI2C.c **** *******************************************************************************/
  80:drivers/IOI2C.c **** void IIC_Ack(void)
  81:drivers/IOI2C.c **** {
 281              		.loc 1 81 0
 282              		.cfi_startproc
 283              		@ args = 0, pretend = 0, frame = 0
 284              		@ frame_needed = 0, uses_anonymous_args = 0
 285 0124 38B5     		push	{r3, r4, r5, lr}
 286              		.cfi_def_cfa_offset 16
 287              		.cfi_offset 3, -16
 288              		.cfi_offset 4, -12
 289              		.cfi_offset 5, -8
 290              		.cfi_offset 14, -4
  82:drivers/IOI2C.c **** 	IIC_SCL=0;
 291              		.loc 1 82 0
 292 0126 0B4C     		ldr	r4, .L29
 293 0128 0025     		movs	r5, #0
 294 012a 2560     		str	r5, [r4]
  83:drivers/IOI2C.c **** 	SDA_OUT();
 295              		.loc 1 83 0
 296 012c 0A4B     		ldr	r3, .L29+4
 297 012e 5A68     		ldr	r2, [r3, #4]
 298 0130 22F00F02 		bic	r2, r2, #15
 299 0134 5A60     		str	r2, [r3, #4]
 300 0136 5A68     		ldr	r2, [r3, #4]
 301 0138 42F00302 		orr	r2, r2, #3
 302 013c 5A60     		str	r2, [r3, #4]
  84:drivers/IOI2C.c **** 	IIC_SDA=0;
 303              		.loc 1 84 0
 304 013e 074B     		ldr	r3, .L29+8
 305 0140 1D60     		str	r5, [r3]
  85:drivers/IOI2C.c **** 	DelayUs(1);
 306              		.loc 1 85 0
ARM GAS  /tmp/cc7GaDyr.s 			page 8


 307 0142 0120     		movs	r0, #1
 308 0144 FFF7FEFF 		bl	DelayUs
 309              	.LVL12:
  86:drivers/IOI2C.c **** 	IIC_SCL=1;
 310              		.loc 1 86 0
 311 0148 0120     		movs	r0, #1
 312 014a 2060     		str	r0, [r4]
  87:drivers/IOI2C.c **** 	DelayUs(1);
 313              		.loc 1 87 0
 314 014c FFF7FEFF 		bl	DelayUs
 315              	.LVL13:
  88:drivers/IOI2C.c **** 	IIC_SCL=0;
 316              		.loc 1 88 0
 317 0150 2560     		str	r5, [r4]
 318 0152 38BD     		pop	{r3, r4, r5, pc}
 319              	.L30:
 320              		.align	2
 321              	.L29:
 322 0154 A8812142 		.word	1109492136
 323 0158 000C0140 		.word	1073810432
 324 015c AC812142 		.word	1109492140
 325              		.cfi_endproc
 326              	.LFE68:
 327              		.size	IIC_Ack, .-IIC_Ack
 328              		.align	1
 329              		.global	IIC_NAck
 330              		.syntax unified
 331              		.thumb
 332              		.thumb_func
 333              		.fpu softvfp
 334              		.type	IIC_NAck, %function
 335              	IIC_NAck:
 336              	.LFB69:
  89:drivers/IOI2C.c **** }
  90:drivers/IOI2C.c **** 	
  91:drivers/IOI2C.c **** /**************************实现函数********************************************
  92:drivers/IOI2C.c **** *函数原型:		void IIC_NAck(void)
  93:drivers/IOI2C.c **** *功　　能:	    产生NACK应答
  94:drivers/IOI2C.c **** *******************************************************************************/	    
  95:drivers/IOI2C.c **** void IIC_NAck(void)
  96:drivers/IOI2C.c **** {
 337              		.loc 1 96 0
 338              		.cfi_startproc
 339              		@ args = 0, pretend = 0, frame = 0
 340              		@ frame_needed = 0, uses_anonymous_args = 0
 341 0160 70B5     		push	{r4, r5, r6, lr}
 342              		.cfi_def_cfa_offset 16
 343              		.cfi_offset 4, -16
 344              		.cfi_offset 5, -12
 345              		.cfi_offset 6, -8
 346              		.cfi_offset 14, -4
  97:drivers/IOI2C.c **** 	IIC_SCL=0;
 347              		.loc 1 97 0
 348 0162 0C4D     		ldr	r5, .L33
 349 0164 0026     		movs	r6, #0
 350 0166 2E60     		str	r6, [r5]
  98:drivers/IOI2C.c **** 	SDA_OUT();
ARM GAS  /tmp/cc7GaDyr.s 			page 9


 351              		.loc 1 98 0
 352 0168 0B4B     		ldr	r3, .L33+4
 353 016a 5A68     		ldr	r2, [r3, #4]
 354 016c 22F00F02 		bic	r2, r2, #15
 355 0170 5A60     		str	r2, [r3, #4]
 356 0172 5A68     		ldr	r2, [r3, #4]
 357 0174 42F00302 		orr	r2, r2, #3
 358 0178 5A60     		str	r2, [r3, #4]
  99:drivers/IOI2C.c **** 	IIC_SDA=1;
 359              		.loc 1 99 0
 360 017a 0124     		movs	r4, #1
 361 017c 074B     		ldr	r3, .L33+8
 362 017e 1C60     		str	r4, [r3]
 100:drivers/IOI2C.c **** 	DelayUs(1);
 363              		.loc 1 100 0
 364 0180 2046     		mov	r0, r4
 365 0182 FFF7FEFF 		bl	DelayUs
 366              	.LVL14:
 101:drivers/IOI2C.c **** 	IIC_SCL=1;
 367              		.loc 1 101 0
 368 0186 2C60     		str	r4, [r5]
 102:drivers/IOI2C.c **** 	DelayUs(1);
 369              		.loc 1 102 0
 370 0188 2046     		mov	r0, r4
 371 018a FFF7FEFF 		bl	DelayUs
 372              	.LVL15:
 103:drivers/IOI2C.c **** 	IIC_SCL=0;
 373              		.loc 1 103 0
 374 018e 2E60     		str	r6, [r5]
 375 0190 70BD     		pop	{r4, r5, r6, pc}
 376              	.L34:
 377 0192 00BF     		.align	2
 378              	.L33:
 379 0194 A8812142 		.word	1109492136
 380 0198 000C0140 		.word	1073810432
 381 019c AC812142 		.word	1109492140
 382              		.cfi_endproc
 383              	.LFE69:
 384              		.size	IIC_NAck, .-IIC_NAck
 385              		.align	1
 386              		.global	IIC_Send_Byte
 387              		.syntax unified
 388              		.thumb
 389              		.thumb_func
 390              		.fpu softvfp
 391              		.type	IIC_Send_Byte, %function
 392              	IIC_Send_Byte:
 393              	.LFB70:
 104:drivers/IOI2C.c **** }
 105:drivers/IOI2C.c **** /**************************实现函数********************************************
 106:drivers/IOI2C.c **** *函数原型:		void IIC_Send_Byte(u8 txd)
 107:drivers/IOI2C.c **** *功　　能:	    IIC发送一个字节
 108:drivers/IOI2C.c **** *******************************************************************************/		  
 109:drivers/IOI2C.c **** void IIC_Send_Byte(u8 txd)
 110:drivers/IOI2C.c **** {                        
 394              		.loc 1 110 0
 395              		.cfi_startproc
ARM GAS  /tmp/cc7GaDyr.s 			page 10


 396              		@ args = 0, pretend = 0, frame = 0
 397              		@ frame_needed = 0, uses_anonymous_args = 0
 398              	.LVL16:
 399 01a0 2DE9F041 		push	{r4, r5, r6, r7, r8, lr}
 400              		.cfi_def_cfa_offset 24
 401              		.cfi_offset 4, -24
 402              		.cfi_offset 5, -20
 403              		.cfi_offset 6, -16
 404              		.cfi_offset 7, -12
 405              		.cfi_offset 8, -8
 406              		.cfi_offset 14, -4
 407 01a4 0546     		mov	r5, r0
 111:drivers/IOI2C.c ****     u8 t;   
 112:drivers/IOI2C.c **** 	SDA_OUT(); 	    
 408              		.loc 1 112 0
 409 01a6 144B     		ldr	r3, .L39
 410 01a8 5A68     		ldr	r2, [r3, #4]
 411 01aa 22F00F02 		bic	r2, r2, #15
 412 01ae 5A60     		str	r2, [r3, #4]
 413 01b0 5A68     		ldr	r2, [r3, #4]
 414 01b2 42F00302 		orr	r2, r2, #3
 415 01b6 5A60     		str	r2, [r3, #4]
 113:drivers/IOI2C.c ****     IIC_SCL=0;//拉低时钟开始数据传输
 416              		.loc 1 113 0
 417 01b8 0022     		movs	r2, #0
 418 01ba 104B     		ldr	r3, .L39+4
 419 01bc 1A60     		str	r2, [r3]
 420              	.LVL17:
 421 01be 0824     		movs	r4, #8
 114:drivers/IOI2C.c ****     for(t=0;t<8;t++)
 115:drivers/IOI2C.c ****     {              
 116:drivers/IOI2C.c ****         IIC_SDA=(txd&0x80)>>7;
 422              		.loc 1 116 0
 423 01c0 DFF83C80 		ldr	r8, .L39+8
 117:drivers/IOI2C.c ****         txd<<=1; 	  
 118:drivers/IOI2C.c **** 		DelayUs(1);   
 424              		.loc 1 118 0
 425 01c4 0126     		movs	r6, #1
 119:drivers/IOI2C.c **** 		IIC_SCL=1;
 426              		.loc 1 119 0
 427 01c6 1F46     		mov	r7, r3
 428              	.LVL18:
 429              	.L36:
 116:drivers/IOI2C.c ****         txd<<=1; 	  
 430              		.loc 1 116 0 discriminator 3
 431 01c8 EB09     		lsrs	r3, r5, #7
 432 01ca C8F80030 		str	r3, [r8]
 117:drivers/IOI2C.c ****         txd<<=1; 	  
 433              		.loc 1 117 0 discriminator 3
 434 01ce 6D00     		lsls	r5, r5, #1
 435              	.LVL19:
 436 01d0 EDB2     		uxtb	r5, r5
 437              	.LVL20:
 118:drivers/IOI2C.c **** 		IIC_SCL=1;
 438              		.loc 1 118 0 discriminator 3
 439 01d2 3046     		mov	r0, r6
 440 01d4 FFF7FEFF 		bl	DelayUs
ARM GAS  /tmp/cc7GaDyr.s 			page 11


 441              	.LVL21:
 442              		.loc 1 119 0 discriminator 3
 443 01d8 3E60     		str	r6, [r7]
 120:drivers/IOI2C.c **** 		DelayUs(1); 
 444              		.loc 1 120 0 discriminator 3
 445 01da 3046     		mov	r0, r6
 446 01dc FFF7FEFF 		bl	DelayUs
 447              	.LVL22:
 121:drivers/IOI2C.c **** 		IIC_SCL=0;	
 448              		.loc 1 121 0 discriminator 3
 449 01e0 0023     		movs	r3, #0
 450 01e2 3B60     		str	r3, [r7]
 122:drivers/IOI2C.c **** 		DelayUs(1);
 451              		.loc 1 122 0 discriminator 3
 452 01e4 3046     		mov	r0, r6
 453 01e6 FFF7FEFF 		bl	DelayUs
 454              	.LVL23:
 455 01ea 631E     		subs	r3, r4, #1
 114:drivers/IOI2C.c ****     {              
 456              		.loc 1 114 0 discriminator 3
 457 01ec 13F0FF04 		ands	r4, r3, #255
 458              	.LVL24:
 459 01f0 EAD1     		bne	.L36
 123:drivers/IOI2C.c ****     }	 
 124:drivers/IOI2C.c **** } 	 
 460              		.loc 1 124 0
 461 01f2 BDE8F081 		pop	{r4, r5, r6, r7, r8, pc}
 462              	.LVL25:
 463              	.L40:
 464 01f6 00BF     		.align	2
 465              	.L39:
 466 01f8 000C0140 		.word	1073810432
 467 01fc A8812142 		.word	1109492136
 468 0200 AC812142 		.word	1109492140
 469              		.cfi_endproc
 470              	.LFE70:
 471              		.size	IIC_Send_Byte, .-IIC_Send_Byte
 472              		.align	1
 473              		.global	i2cWrite
 474              		.syntax unified
 475              		.thumb
 476              		.thumb_func
 477              		.fpu softvfp
 478              		.type	i2cWrite, %function
 479              	i2cWrite:
 480              	.LFB71:
 125:drivers/IOI2C.c ****   
 126:drivers/IOI2C.c **** /**************************实现函数********************************************
 127:drivers/IOI2C.c **** *函数原型:		bool i2cWrite(uint8_t addr, uint8_t reg, uint8_t data)
 128:drivers/IOI2C.c **** *功　　能:		
 129:drivers/IOI2C.c **** *******************************************************************************/
 130:drivers/IOI2C.c **** int i2cWrite(uint8_t addr, uint8_t reg, uint8_t len, uint8_t *data)
 131:drivers/IOI2C.c **** {
 481              		.loc 1 131 0
 482              		.cfi_startproc
 483              		@ args = 0, pretend = 0, frame = 0
 484              		@ frame_needed = 0, uses_anonymous_args = 0
ARM GAS  /tmp/cc7GaDyr.s 			page 12


 485              	.LVL26:
 486 0204 F8B5     		push	{r3, r4, r5, r6, r7, lr}
 487              		.cfi_def_cfa_offset 24
 488              		.cfi_offset 3, -24
 489              		.cfi_offset 4, -20
 490              		.cfi_offset 5, -16
 491              		.cfi_offset 6, -12
 492              		.cfi_offset 7, -8
 493              		.cfi_offset 14, -4
 494 0206 0446     		mov	r4, r0
 495 0208 0F46     		mov	r7, r1
 496 020a 1546     		mov	r5, r2
 497 020c 1E46     		mov	r6, r3
 132:drivers/IOI2C.c **** 		int i;
 133:drivers/IOI2C.c ****     if (!IIC_Start())
 498              		.loc 1 133 0
 499 020e FFF7FEFF 		bl	IIC_Start
 500              	.LVL27:
 501 0212 10B9     		cbnz	r0, .L50
 134:drivers/IOI2C.c ****         return 1;
 502              		.loc 1 134 0
 503 0214 0125     		movs	r5, #1
 504              	.LVL28:
 505              	.L41:
 135:drivers/IOI2C.c ****     IIC_Send_Byte(addr << 1 );
 136:drivers/IOI2C.c ****     if (!IIC_Wait_Ack()) {
 137:drivers/IOI2C.c ****         IIC_Stop();
 138:drivers/IOI2C.c ****         return 1;
 139:drivers/IOI2C.c ****     }
 140:drivers/IOI2C.c ****     IIC_Send_Byte(reg);
 141:drivers/IOI2C.c ****     IIC_Wait_Ack();
 142:drivers/IOI2C.c **** 		for (i = 0; i < len; i++) {
 143:drivers/IOI2C.c ****         IIC_Send_Byte(data[i]);
 144:drivers/IOI2C.c ****         if (!IIC_Wait_Ack()) {
 145:drivers/IOI2C.c ****             IIC_Stop();
 146:drivers/IOI2C.c ****             return 0;
 147:drivers/IOI2C.c ****         }
 148:drivers/IOI2C.c ****     }
 149:drivers/IOI2C.c ****     IIC_Stop();
 150:drivers/IOI2C.c ****     return 0;
 151:drivers/IOI2C.c **** }
 506              		.loc 1 151 0
 507 0216 2846     		mov	r0, r5
 508 0218 F8BD     		pop	{r3, r4, r5, r6, r7, pc}
 509              	.LVL29:
 510              	.L50:
 135:drivers/IOI2C.c ****     IIC_Send_Byte(addr << 1 );
 511              		.loc 1 135 0
 512 021a 6000     		lsls	r0, r4, #1
 513 021c 00F0FE00 		and	r0, r0, #254
 514 0220 FFF7FEFF 		bl	IIC_Send_Byte
 515              	.LVL30:
 136:drivers/IOI2C.c ****         IIC_Stop();
 516              		.loc 1 136 0
 517 0224 FFF7FEFF 		bl	IIC_Wait_Ack
 518              	.LVL31:
 519 0228 A8B1     		cbz	r0, .L51
ARM GAS  /tmp/cc7GaDyr.s 			page 13


 140:drivers/IOI2C.c ****     IIC_Wait_Ack();
 520              		.loc 1 140 0
 521 022a 3846     		mov	r0, r7
 522 022c FFF7FEFF 		bl	IIC_Send_Byte
 523              	.LVL32:
 141:drivers/IOI2C.c **** 		for (i = 0; i < len; i++) {
 524              		.loc 1 141 0
 525 0230 FFF7FEFF 		bl	IIC_Wait_Ack
 526              	.LVL33:
 142:drivers/IOI2C.c ****         IIC_Send_Byte(data[i]);
 527              		.loc 1 142 0
 528 0234 5DB1     		cbz	r5, .L44
 529 0236 3446     		mov	r4, r6
 530 0238 2E44     		add	r6, r6, r5
 531              	.LVL34:
 532              	.L46:
 143:drivers/IOI2C.c ****         if (!IIC_Wait_Ack()) {
 533              		.loc 1 143 0
 534 023a 14F8010B 		ldrb	r0, [r4], #1	@ zero_extendqisi2
 535              	.LVL35:
 536 023e FFF7FEFF 		bl	IIC_Send_Byte
 537              	.LVL36:
 144:drivers/IOI2C.c ****             IIC_Stop();
 538              		.loc 1 144 0
 539 0242 FFF7FEFF 		bl	IIC_Wait_Ack
 540              	.LVL37:
 541 0246 0546     		mov	r5, r0
 542 0248 48B1     		cbz	r0, .L52
 543              	.LVL38:
 142:drivers/IOI2C.c ****         IIC_Send_Byte(data[i]);
 544              		.loc 1 142 0 discriminator 2
 545 024a B442     		cmp	r4, r6
 546 024c F5D1     		bne	.L46
 547              	.LVL39:
 548              	.L44:
 149:drivers/IOI2C.c ****     return 0;
 549              		.loc 1 149 0
 550 024e FFF7FEFF 		bl	IIC_Stop
 551              	.LVL40:
 150:drivers/IOI2C.c **** }
 552              		.loc 1 150 0
 553 0252 0025     		movs	r5, #0
 554 0254 DFE7     		b	.L41
 555              	.LVL41:
 556              	.L51:
 137:drivers/IOI2C.c ****         return 1;
 557              		.loc 1 137 0
 558 0256 FFF7FEFF 		bl	IIC_Stop
 559              	.LVL42:
 138:drivers/IOI2C.c ****     }
 560              		.loc 1 138 0
 561 025a 0125     		movs	r5, #1
 562 025c DBE7     		b	.L41
 563              	.LVL43:
 564              	.L52:
 145:drivers/IOI2C.c ****             return 0;
 565              		.loc 1 145 0
ARM GAS  /tmp/cc7GaDyr.s 			page 14


 566 025e FFF7FEFF 		bl	IIC_Stop
 567              	.LVL44:
 146:drivers/IOI2C.c ****         }
 568              		.loc 1 146 0
 569 0262 D8E7     		b	.L41
 570              		.cfi_endproc
 571              	.LFE71:
 572              		.size	i2cWrite, .-i2cWrite
 573              		.align	1
 574              		.global	IIC_Read_Byte
 575              		.syntax unified
 576              		.thumb
 577              		.thumb_func
 578              		.fpu softvfp
 579              		.type	IIC_Read_Byte, %function
 580              	IIC_Read_Byte:
 581              	.LFB73:
 152:drivers/IOI2C.c **** /**************************实现函数********************************************
 153:drivers/IOI2C.c **** *函数原型:		bool i2cWrite(uint8_t addr, uint8_t reg, uint8_t data)
 154:drivers/IOI2C.c **** *功　　能:		
 155:drivers/IOI2C.c **** *******************************************************************************/
 156:drivers/IOI2C.c **** int i2cRead(uint8_t addr, uint8_t reg, uint8_t len, uint8_t *buf)
 157:drivers/IOI2C.c **** {
 158:drivers/IOI2C.c ****     if (!IIC_Start())
 159:drivers/IOI2C.c ****         return 1;
 160:drivers/IOI2C.c ****     IIC_Send_Byte(addr << 1);
 161:drivers/IOI2C.c ****     if (!IIC_Wait_Ack()) {
 162:drivers/IOI2C.c ****         IIC_Stop();
 163:drivers/IOI2C.c ****         return 1;
 164:drivers/IOI2C.c ****     }
 165:drivers/IOI2C.c ****     IIC_Send_Byte(reg);
 166:drivers/IOI2C.c ****     IIC_Wait_Ack();
 167:drivers/IOI2C.c ****     IIC_Start();
 168:drivers/IOI2C.c ****     IIC_Send_Byte((addr << 1)+1);
 169:drivers/IOI2C.c ****     IIC_Wait_Ack();
 170:drivers/IOI2C.c ****     while (len) {
 171:drivers/IOI2C.c ****         if (len == 1)
 172:drivers/IOI2C.c ****             *buf = IIC_Read_Byte(0);
 173:drivers/IOI2C.c ****         else
 174:drivers/IOI2C.c ****             *buf = IIC_Read_Byte(1);
 175:drivers/IOI2C.c ****         buf++;
 176:drivers/IOI2C.c ****         len--;
 177:drivers/IOI2C.c ****     }
 178:drivers/IOI2C.c ****     IIC_Stop();
 179:drivers/IOI2C.c ****     return 0;
 180:drivers/IOI2C.c **** }
 181:drivers/IOI2C.c **** 
 182:drivers/IOI2C.c **** 
 183:drivers/IOI2C.c **** /**************************实现函数********************************************
 184:drivers/IOI2C.c **** *函数原型:		u8 IIC_Read_Byte(unsigned char ack)
 185:drivers/IOI2C.c **** *功　　能:	    //读1个字节，ack=1时，发送ACK，ack=0，发送nACK 
 186:drivers/IOI2C.c **** *******************************************************************************/  
 187:drivers/IOI2C.c **** u8 IIC_Read_Byte(unsigned char ack)
 188:drivers/IOI2C.c **** {
 582              		.loc 1 188 0
 583              		.cfi_startproc
 584              		@ args = 0, pretend = 0, frame = 0
ARM GAS  /tmp/cc7GaDyr.s 			page 15


 585              		@ frame_needed = 0, uses_anonymous_args = 0
 586              	.LVL45:
 587 0264 2DE9F843 		push	{r3, r4, r5, r6, r7, r8, r9, lr}
 588              		.cfi_def_cfa_offset 32
 589              		.cfi_offset 3, -32
 590              		.cfi_offset 4, -28
 591              		.cfi_offset 5, -24
 592              		.cfi_offset 6, -20
 593              		.cfi_offset 7, -16
 594              		.cfi_offset 8, -12
 595              		.cfi_offset 9, -8
 596              		.cfi_offset 14, -4
 597 0268 8046     		mov	r8, r0
 598              	.LVL46:
 189:drivers/IOI2C.c **** 	unsigned char i,receive=0;
 190:drivers/IOI2C.c **** 	SDA_IN();//SDA设置为输入
 599              		.loc 1 190 0
 600 026a 184B     		ldr	r3, .L62
 601 026c 5A68     		ldr	r2, [r3, #4]
 602 026e 22F00F02 		bic	r2, r2, #15
 603 0272 5A60     		str	r2, [r3, #4]
 604 0274 5A68     		ldr	r2, [r3, #4]
 605 0276 42F00802 		orr	r2, r2, #8
 606 027a 5A60     		str	r2, [r3, #4]
 607              	.LVL47:
 608 027c 4FF00809 		mov	r9, #8
 189:drivers/IOI2C.c **** 	unsigned char i,receive=0;
 609              		.loc 1 189 0
 610 0280 0024     		movs	r4, #0
 191:drivers/IOI2C.c ****     for(i=0;i<8;i++ )
 192:drivers/IOI2C.c **** 	{
 193:drivers/IOI2C.c ****         IIC_SCL=0; 
 611              		.loc 1 193 0
 612 0282 134D     		ldr	r5, .L62+4
 613 0284 2746     		mov	r7, r4
 194:drivers/IOI2C.c ****         DelayUs(2);
 195:drivers/IOI2C.c **** 		IIC_SCL=1;
 196:drivers/IOI2C.c ****         receive<<=1;
 197:drivers/IOI2C.c ****         if(READ_SDA)receive++;   
 614              		.loc 1 197 0
 615 0286 134E     		ldr	r6, .L62+8
 616 0288 07E0     		b	.L55
 617              	.LVL48:
 618              	.L54:
 198:drivers/IOI2C.c **** 		DelayUs(2); 
 619              		.loc 1 198 0 discriminator 2
 620 028a 0220     		movs	r0, #2
 621 028c FFF7FEFF 		bl	DelayUs
 622              	.LVL49:
 623 0290 09F1FF33 		add	r3, r9, #-1
 191:drivers/IOI2C.c ****     for(i=0;i<8;i++ )
 624              		.loc 1 191 0 discriminator 2
 625 0294 13F0FF09 		ands	r9, r3, #255
 626              	.LVL50:
 627 0298 0DD0     		beq	.L60
 628              	.LVL51:
 629              	.L55:
ARM GAS  /tmp/cc7GaDyr.s 			page 16


 193:drivers/IOI2C.c ****         DelayUs(2);
 630              		.loc 1 193 0
 631 029a 2F60     		str	r7, [r5]
 194:drivers/IOI2C.c ****         DelayUs(2);
 632              		.loc 1 194 0
 633 029c 0220     		movs	r0, #2
 634 029e FFF7FEFF 		bl	DelayUs
 635              	.LVL52:
 195:drivers/IOI2C.c ****         receive<<=1;
 636              		.loc 1 195 0
 637 02a2 0123     		movs	r3, #1
 638 02a4 2B60     		str	r3, [r5]
 196:drivers/IOI2C.c ****         if(READ_SDA)receive++;   
 639              		.loc 1 196 0
 640 02a6 9C40     		lsls	r4, r4, r3
 641              	.LVL53:
 642 02a8 E4B2     		uxtb	r4, r4
 643              	.LVL54:
 197:drivers/IOI2C.c **** 		DelayUs(2); 
 644              		.loc 1 197 0
 645 02aa 3368     		ldr	r3, [r6]
 646 02ac 002B     		cmp	r3, #0
 647 02ae ECD0     		beq	.L54
 197:drivers/IOI2C.c **** 		DelayUs(2); 
 648              		.loc 1 197 0 is_stmt 0 discriminator 1
 649 02b0 0134     		adds	r4, r4, #1
 650              	.LVL55:
 651 02b2 E4B2     		uxtb	r4, r4
 652              	.LVL56:
 653 02b4 E9E7     		b	.L54
 654              	.LVL57:
 655              	.L60:
 199:drivers/IOI2C.c ****     }					 
 200:drivers/IOI2C.c ****     if (ack)
 656              		.loc 1 200 0 is_stmt 1
 657 02b6 B8F1000F 		cmp	r8, #0
 658 02ba 04D1     		bne	.L61
 201:drivers/IOI2C.c ****         IIC_Ack(); //发送ACK 
 202:drivers/IOI2C.c ****     else
 203:drivers/IOI2C.c ****         IIC_NAck();//发送nACK  
 659              		.loc 1 203 0
 660 02bc FFF7FEFF 		bl	IIC_NAck
 661              	.LVL58:
 662              	.L57:
 204:drivers/IOI2C.c ****     return receive;
 205:drivers/IOI2C.c **** }
 663              		.loc 1 205 0
 664 02c0 2046     		mov	r0, r4
 665 02c2 BDE8F883 		pop	{r3, r4, r5, r6, r7, r8, r9, pc}
 666              	.LVL59:
 667              	.L61:
 201:drivers/IOI2C.c ****         IIC_Ack(); //发送ACK 
 668              		.loc 1 201 0
 669 02c6 FFF7FEFF 		bl	IIC_Ack
 670              	.LVL60:
 671 02ca F9E7     		b	.L57
 672              	.L63:
ARM GAS  /tmp/cc7GaDyr.s 			page 17


 673              		.align	2
 674              	.L62:
 675 02cc 000C0140 		.word	1073810432
 676 02d0 A8812142 		.word	1109492136
 677 02d4 2C812142 		.word	1109492012
 678              		.cfi_endproc
 679              	.LFE73:
 680              		.size	IIC_Read_Byte, .-IIC_Read_Byte
 681              		.align	1
 682              		.global	i2cRead
 683              		.syntax unified
 684              		.thumb
 685              		.thumb_func
 686              		.fpu softvfp
 687              		.type	i2cRead, %function
 688              	i2cRead:
 689              	.LFB72:
 157:drivers/IOI2C.c ****     if (!IIC_Start())
 690              		.loc 1 157 0
 691              		.cfi_startproc
 692              		@ args = 0, pretend = 0, frame = 0
 693              		@ frame_needed = 0, uses_anonymous_args = 0
 694              	.LVL61:
 695 02d8 F8B5     		push	{r3, r4, r5, r6, r7, lr}
 696              		.cfi_def_cfa_offset 24
 697              		.cfi_offset 3, -24
 698              		.cfi_offset 4, -20
 699              		.cfi_offset 5, -16
 700              		.cfi_offset 6, -12
 701              		.cfi_offset 7, -8
 702              		.cfi_offset 14, -4
 703 02da 0646     		mov	r6, r0
 704 02dc 0F46     		mov	r7, r1
 705 02de 1446     		mov	r4, r2
 706 02e0 1D46     		mov	r5, r3
 158:drivers/IOI2C.c ****         return 1;
 707              		.loc 1 158 0
 708 02e2 FFF7FEFF 		bl	IIC_Start
 709              	.LVL62:
 710 02e6 08B9     		cbnz	r0, .L74
 159:drivers/IOI2C.c ****     IIC_Send_Byte(addr << 1);
 711              		.loc 1 159 0
 712 02e8 0120     		movs	r0, #1
 180:drivers/IOI2C.c **** 
 713              		.loc 1 180 0
 714 02ea F8BD     		pop	{r3, r4, r5, r6, r7, pc}
 715              	.LVL63:
 716              	.L74:
 160:drivers/IOI2C.c ****     if (!IIC_Wait_Ack()) {
 717              		.loc 1 160 0
 718 02ec 7600     		lsls	r6, r6, #1
 719 02ee F6B2     		uxtb	r6, r6
 720 02f0 3046     		mov	r0, r6
 721 02f2 FFF7FEFF 		bl	IIC_Send_Byte
 722              	.LVL64:
 161:drivers/IOI2C.c ****         IIC_Stop();
 723              		.loc 1 161 0
ARM GAS  /tmp/cc7GaDyr.s 			page 18


 724 02f6 FFF7FEFF 		bl	IIC_Wait_Ack
 725              	.LVL65:
 726 02fa E8B1     		cbz	r0, .L75
 165:drivers/IOI2C.c ****     IIC_Wait_Ack();
 727              		.loc 1 165 0
 728 02fc 3846     		mov	r0, r7
 729 02fe FFF7FEFF 		bl	IIC_Send_Byte
 730              	.LVL66:
 166:drivers/IOI2C.c ****     IIC_Start();
 731              		.loc 1 166 0
 732 0302 FFF7FEFF 		bl	IIC_Wait_Ack
 733              	.LVL67:
 167:drivers/IOI2C.c ****     IIC_Send_Byte((addr << 1)+1);
 734              		.loc 1 167 0
 735 0306 FFF7FEFF 		bl	IIC_Start
 736              	.LVL68:
 168:drivers/IOI2C.c ****     IIC_Wait_Ack();
 737              		.loc 1 168 0
 738 030a 0136     		adds	r6, r6, #1
 739 030c F0B2     		uxtb	r0, r6
 740 030e FFF7FEFF 		bl	IIC_Send_Byte
 741              	.LVL69:
 169:drivers/IOI2C.c ****     while (len) {
 742              		.loc 1 169 0
 743 0312 FFF7FEFF 		bl	IIC_Wait_Ack
 744              	.LVL70:
 170:drivers/IOI2C.c ****         if (len == 1)
 745              		.loc 1 170 0
 746 0316 5CB1     		cbz	r4, .L67
 174:drivers/IOI2C.c ****         buf++;
 747              		.loc 1 174 0
 748 0318 0126     		movs	r6, #1
 749              	.LVL71:
 750              	.L71:
 171:drivers/IOI2C.c ****             *buf = IIC_Read_Byte(0);
 751              		.loc 1 171 0
 752 031a 012C     		cmp	r4, #1
 753 031c 10D0     		beq	.L76
 174:drivers/IOI2C.c ****         buf++;
 754              		.loc 1 174 0
 755 031e 3046     		mov	r0, r6
 756 0320 FFF7FEFF 		bl	IIC_Read_Byte
 757              	.LVL72:
 758 0324 05F8010B 		strb	r0, [r5], #1
 759              	.LVL73:
 176:drivers/IOI2C.c ****     }
 760              		.loc 1 176 0
 761 0328 013C     		subs	r4, r4, #1
 762              	.LVL74:
 170:drivers/IOI2C.c ****         if (len == 1)
 763              		.loc 1 170 0
 764 032a 14F0FF04 		ands	r4, r4, #255
 765              	.LVL75:
 766 032e F4D1     		bne	.L71
 767              	.LVL76:
 768              	.L67:
 178:drivers/IOI2C.c ****     return 0;
ARM GAS  /tmp/cc7GaDyr.s 			page 19


 769              		.loc 1 178 0
 770 0330 FFF7FEFF 		bl	IIC_Stop
 771              	.LVL77:
 179:drivers/IOI2C.c **** }
 772              		.loc 1 179 0
 773 0334 0020     		movs	r0, #0
 774 0336 F8BD     		pop	{r3, r4, r5, r6, r7, pc}
 775              	.LVL78:
 776              	.L75:
 162:drivers/IOI2C.c ****         return 1;
 777              		.loc 1 162 0
 778 0338 FFF7FEFF 		bl	IIC_Stop
 779              	.LVL79:
 163:drivers/IOI2C.c ****     }
 780              		.loc 1 163 0
 781 033c 0120     		movs	r0, #1
 782 033e F8BD     		pop	{r3, r4, r5, r6, r7, pc}
 783              	.LVL80:
 784              	.L76:
 172:drivers/IOI2C.c ****         else
 785              		.loc 1 172 0
 786 0340 0020     		movs	r0, #0
 787 0342 FFF7FEFF 		bl	IIC_Read_Byte
 788              	.LVL81:
 789 0346 2870     		strb	r0, [r5]
 790              	.LVL82:
 791 0348 F2E7     		b	.L67
 792              		.cfi_endproc
 793              	.LFE72:
 794              		.size	i2cRead, .-i2cRead
 795              		.align	1
 796              		.global	I2C_ReadOneByte
 797              		.syntax unified
 798              		.thumb
 799              		.thumb_func
 800              		.fpu softvfp
 801              		.type	I2C_ReadOneByte, %function
 802              	I2C_ReadOneByte:
 803              	.LFB74:
 206:drivers/IOI2C.c **** 
 207:drivers/IOI2C.c **** /**************************实现函数********************************************
 208:drivers/IOI2C.c **** *函数原型:		unsigned char I2C_ReadOneByte(unsigned char I2C_Addr,unsigned char addr)
 209:drivers/IOI2C.c **** *功　　能:	    读取指定设备 指定寄存器的一个值
 210:drivers/IOI2C.c **** 输入	I2C_Addr  目标设备地址
 211:drivers/IOI2C.c **** 		addr	   寄存器地址
 212:drivers/IOI2C.c **** 返回   读出来的值
 213:drivers/IOI2C.c **** *******************************************************************************/ 
 214:drivers/IOI2C.c **** unsigned char I2C_ReadOneByte(unsigned char I2C_Addr,unsigned char addr)
 215:drivers/IOI2C.c **** {
 804              		.loc 1 215 0
 805              		.cfi_startproc
 806              		@ args = 0, pretend = 0, frame = 0
 807              		@ frame_needed = 0, uses_anonymous_args = 0
 808              	.LVL83:
 809 034a 38B5     		push	{r3, r4, r5, lr}
 810              		.cfi_def_cfa_offset 16
 811              		.cfi_offset 3, -16
ARM GAS  /tmp/cc7GaDyr.s 			page 20


 812              		.cfi_offset 4, -12
 813              		.cfi_offset 5, -8
 814              		.cfi_offset 14, -4
 815 034c 0446     		mov	r4, r0
 816 034e 0D46     		mov	r5, r1
 817              	.LVL84:
 216:drivers/IOI2C.c **** 	unsigned char res=0;
 217:drivers/IOI2C.c **** 	
 218:drivers/IOI2C.c **** 	IIC_Start();	
 818              		.loc 1 218 0
 819 0350 FFF7FEFF 		bl	IIC_Start
 820              	.LVL85:
 219:drivers/IOI2C.c **** 	IIC_Send_Byte(I2C_Addr);	   //发送写命令
 821              		.loc 1 219 0
 822 0354 2046     		mov	r0, r4
 823 0356 FFF7FEFF 		bl	IIC_Send_Byte
 824              	.LVL86:
 220:drivers/IOI2C.c **** 	res++;
 221:drivers/IOI2C.c **** 	IIC_Wait_Ack();
 825              		.loc 1 221 0
 826 035a FFF7FEFF 		bl	IIC_Wait_Ack
 827              	.LVL87:
 222:drivers/IOI2C.c **** 	IIC_Send_Byte(addr); res++;  //发送地址
 828              		.loc 1 222 0
 829 035e 2846     		mov	r0, r5
 830 0360 FFF7FEFF 		bl	IIC_Send_Byte
 831              	.LVL88:
 223:drivers/IOI2C.c **** 	IIC_Wait_Ack();	  
 832              		.loc 1 223 0
 833 0364 FFF7FEFF 		bl	IIC_Wait_Ack
 834              	.LVL89:
 224:drivers/IOI2C.c **** 	//IIC_Stop();//产生一个停止条件	
 225:drivers/IOI2C.c **** 	IIC_Start();
 835              		.loc 1 225 0
 836 0368 FFF7FEFF 		bl	IIC_Start
 837              	.LVL90:
 226:drivers/IOI2C.c **** 	IIC_Send_Byte(I2C_Addr+1); res++;          //进入接收模式			   
 838              		.loc 1 226 0
 839 036c 601C     		adds	r0, r4, #1
 840 036e C0B2     		uxtb	r0, r0
 841 0370 FFF7FEFF 		bl	IIC_Send_Byte
 842              	.LVL91:
 227:drivers/IOI2C.c **** 	IIC_Wait_Ack();
 843              		.loc 1 227 0
 844 0374 FFF7FEFF 		bl	IIC_Wait_Ack
 845              	.LVL92:
 228:drivers/IOI2C.c **** 	res=IIC_Read_Byte(0);	   
 846              		.loc 1 228 0
 847 0378 0020     		movs	r0, #0
 848 037a FFF7FEFF 		bl	IIC_Read_Byte
 849              	.LVL93:
 850 037e 0446     		mov	r4, r0
 851              	.LVL94:
 229:drivers/IOI2C.c ****     IIC_Stop();//产生一个停止条件
 852              		.loc 1 229 0
 853 0380 FFF7FEFF 		bl	IIC_Stop
 854              	.LVL95:
ARM GAS  /tmp/cc7GaDyr.s 			page 21


 230:drivers/IOI2C.c **** 
 231:drivers/IOI2C.c **** 	return res;
 232:drivers/IOI2C.c **** }
 855              		.loc 1 232 0
 856 0384 2046     		mov	r0, r4
 857 0386 38BD     		pop	{r3, r4, r5, pc}
 858              		.cfi_endproc
 859              	.LFE74:
 860              		.size	I2C_ReadOneByte, .-I2C_ReadOneByte
 861              		.align	1
 862              		.global	IICreadBytes
 863              		.syntax unified
 864              		.thumb
 865              		.thumb_func
 866              		.fpu softvfp
 867              		.type	IICreadBytes, %function
 868              	IICreadBytes:
 869              	.LFB75:
 233:drivers/IOI2C.c **** 
 234:drivers/IOI2C.c **** 
 235:drivers/IOI2C.c **** /**************************实现函数********************************************
 236:drivers/IOI2C.c **** *函数原型:		u8 IICreadBytes(u8 dev, u8 reg, u8 length, u8 *data)
 237:drivers/IOI2C.c **** *功　　能:	    读取指定设备 指定寄存器的 length个值
 238:drivers/IOI2C.c **** 输入	dev  目标设备地址
 239:drivers/IOI2C.c **** 		reg	  寄存器地址
 240:drivers/IOI2C.c **** 		length 要读的字节数
 241:drivers/IOI2C.c **** 		*data  读出的数据将要存放的指针
 242:drivers/IOI2C.c **** 返回   读出来的字节数量
 243:drivers/IOI2C.c **** *******************************************************************************/ 
 244:drivers/IOI2C.c **** u8 IICreadBytes(u8 dev, u8 reg, u8 length, u8 *data){
 870              		.loc 1 244 0
 871              		.cfi_startproc
 872              		@ args = 0, pretend = 0, frame = 0
 873              		@ frame_needed = 0, uses_anonymous_args = 0
 874              	.LVL96:
 875 0388 2DE9F047 		push	{r4, r5, r6, r7, r8, r9, r10, lr}
 876              		.cfi_def_cfa_offset 32
 877              		.cfi_offset 4, -32
 878              		.cfi_offset 5, -28
 879              		.cfi_offset 6, -24
 880              		.cfi_offset 7, -20
 881              		.cfi_offset 8, -16
 882              		.cfi_offset 9, -12
 883              		.cfi_offset 10, -8
 884              		.cfi_offset 14, -4
 885 038c 0446     		mov	r4, r0
 886 038e 0E46     		mov	r6, r1
 887 0390 9146     		mov	r9, r2
 888 0392 1D46     		mov	r5, r3
 889              	.LVL97:
 245:drivers/IOI2C.c ****     u8 count = 0;
 246:drivers/IOI2C.c **** 	
 247:drivers/IOI2C.c **** 	IIC_Start();
 890              		.loc 1 247 0
 891 0394 FFF7FEFF 		bl	IIC_Start
 892              	.LVL98:
 248:drivers/IOI2C.c **** 	IIC_Send_Byte(dev);	   //发送写命令
ARM GAS  /tmp/cc7GaDyr.s 			page 22


 893              		.loc 1 248 0
 894 0398 2046     		mov	r0, r4
 895 039a FFF7FEFF 		bl	IIC_Send_Byte
 896              	.LVL99:
 249:drivers/IOI2C.c **** 	IIC_Wait_Ack();
 897              		.loc 1 249 0
 898 039e FFF7FEFF 		bl	IIC_Wait_Ack
 899              	.LVL100:
 250:drivers/IOI2C.c **** 	IIC_Send_Byte(reg);   //发送地址
 900              		.loc 1 250 0
 901 03a2 3046     		mov	r0, r6
 902 03a4 FFF7FEFF 		bl	IIC_Send_Byte
 903              	.LVL101:
 251:drivers/IOI2C.c ****     IIC_Wait_Ack();	  
 904              		.loc 1 251 0
 905 03a8 FFF7FEFF 		bl	IIC_Wait_Ack
 906              	.LVL102:
 252:drivers/IOI2C.c **** 	IIC_Start();
 907              		.loc 1 252 0
 908 03ac FFF7FEFF 		bl	IIC_Start
 909              	.LVL103:
 253:drivers/IOI2C.c **** 	IIC_Send_Byte(dev+1);  //进入接收模式	
 910              		.loc 1 253 0
 911 03b0 601C     		adds	r0, r4, #1
 912 03b2 C0B2     		uxtb	r0, r0
 913 03b4 FFF7FEFF 		bl	IIC_Send_Byte
 914              	.LVL104:
 254:drivers/IOI2C.c **** 	IIC_Wait_Ack();
 915              		.loc 1 254 0
 916 03b8 FFF7FEFF 		bl	IIC_Wait_Ack
 917              	.LVL105:
 255:drivers/IOI2C.c **** 	
 256:drivers/IOI2C.c ****     for(count=0;count<length;count++){
 918              		.loc 1 256 0
 919 03bc B9F1000F 		cmp	r9, #0
 920 03c0 14D0     		beq	.L80
 921 03c2 09F1FF36 		add	r6, r9, #-1
 922 03c6 F6B2     		uxtb	r6, r6
 923 03c8 0136     		adds	r6, r6, #1
 924 03ca 0024     		movs	r4, #0
 257:drivers/IOI2C.c **** 		 
 258:drivers/IOI2C.c **** 		 if(count!=length-1)data[count]=IIC_Read_Byte(1);  //带ACK的读数据
 925              		.loc 1 258 0
 926 03cc 09F1FF37 		add	r7, r9, #-1
 259:drivers/IOI2C.c **** 		 	else  data[count]=IIC_Read_Byte(0);	 //最后一个字节NACK
 927              		.loc 1 259 0
 928 03d0 A246     		mov	r10, r4
 258:drivers/IOI2C.c **** 		 	else  data[count]=IIC_Read_Byte(0);	 //最后一个字节NACK
 929              		.loc 1 258 0
 930 03d2 4FF00108 		mov	r8, #1
 931              	.LVL106:
 932              	.L83:
 933 03d6 A742     		cmp	r7, r4
 934 03d8 14BF     		ite	ne
 935 03da 4046     		movne	r0, r8
 936              		.loc 1 259 0
 937 03dc 5046     		moveq	r0, r10
ARM GAS  /tmp/cc7GaDyr.s 			page 23


 938 03de FFF7FEFF 		bl	IIC_Read_Byte
 939              	.LVL107:
 940 03e2 2870     		strb	r0, [r5]
 941              	.LVL108:
 942 03e4 0134     		adds	r4, r4, #1
 943              	.LVL109:
 944 03e6 0135     		adds	r5, r5, #1
 256:drivers/IOI2C.c **** 		 
 945              		.loc 1 256 0
 946 03e8 B442     		cmp	r4, r6
 947 03ea F4D1     		bne	.L83
 948              	.L80:
 260:drivers/IOI2C.c **** 	}
 261:drivers/IOI2C.c ****     IIC_Stop();//产生一个停止条件
 949              		.loc 1 261 0
 950 03ec FFF7FEFF 		bl	IIC_Stop
 951              	.LVL110:
 262:drivers/IOI2C.c ****     return count;
 263:drivers/IOI2C.c **** }
 952              		.loc 1 263 0
 953 03f0 4846     		mov	r0, r9
 954 03f2 BDE8F087 		pop	{r4, r5, r6, r7, r8, r9, r10, pc}
 955              		.cfi_endproc
 956              	.LFE75:
 957              		.size	IICreadBytes, .-IICreadBytes
 958              		.align	1
 959              		.global	IICwriteBytes
 960              		.syntax unified
 961              		.thumb
 962              		.thumb_func
 963              		.fpu softvfp
 964              		.type	IICwriteBytes, %function
 965              	IICwriteBytes:
 966              	.LFB76:
 264:drivers/IOI2C.c **** 
 265:drivers/IOI2C.c **** /**************************实现函数********************************************
 266:drivers/IOI2C.c **** *函数原型:		u8 IICwriteBytes(u8 dev, u8 reg, u8 length, u8* data)
 267:drivers/IOI2C.c **** *功　　能:	    将多个字节写入指定设备 指定寄存器
 268:drivers/IOI2C.c **** 输入	dev  目标设备地址
 269:drivers/IOI2C.c **** 		reg	  寄存器地址
 270:drivers/IOI2C.c **** 		length 要写的字节数
 271:drivers/IOI2C.c **** 		*data  将要写的数据的首地址
 272:drivers/IOI2C.c **** 返回   返回是否成功
 273:drivers/IOI2C.c **** *******************************************************************************/ 
 274:drivers/IOI2C.c **** u8 IICwriteBytes(u8 dev, u8 reg, u8 length, u8* data){
 967              		.loc 1 274 0
 968              		.cfi_startproc
 969              		@ args = 0, pretend = 0, frame = 0
 970              		@ frame_needed = 0, uses_anonymous_args = 0
 971              	.LVL111:
 972 03f6 F8B5     		push	{r3, r4, r5, r6, r7, lr}
 973              		.cfi_def_cfa_offset 24
 974              		.cfi_offset 3, -24
 975              		.cfi_offset 4, -20
 976              		.cfi_offset 5, -16
 977              		.cfi_offset 6, -12
 978              		.cfi_offset 7, -8
ARM GAS  /tmp/cc7GaDyr.s 			page 24


 979              		.cfi_offset 14, -4
 980 03f8 0746     		mov	r7, r0
 981 03fa 0C46     		mov	r4, r1
 982 03fc 1646     		mov	r6, r2
 983 03fe 1D46     		mov	r5, r3
 984              	.LVL112:
 275:drivers/IOI2C.c ****   
 276:drivers/IOI2C.c ****  	u8 count = 0;
 277:drivers/IOI2C.c **** 	IIC_Start();
 985              		.loc 1 277 0
 986 0400 FFF7FEFF 		bl	IIC_Start
 987              	.LVL113:
 278:drivers/IOI2C.c **** 	IIC_Send_Byte(dev);	   //发送写命令
 988              		.loc 1 278 0
 989 0404 3846     		mov	r0, r7
 990 0406 FFF7FEFF 		bl	IIC_Send_Byte
 991              	.LVL114:
 279:drivers/IOI2C.c **** 	IIC_Wait_Ack();
 992              		.loc 1 279 0
 993 040a FFF7FEFF 		bl	IIC_Wait_Ack
 994              	.LVL115:
 280:drivers/IOI2C.c **** 	IIC_Send_Byte(reg);   //发送地址
 995              		.loc 1 280 0
 996 040e 2046     		mov	r0, r4
 997 0410 FFF7FEFF 		bl	IIC_Send_Byte
 998              	.LVL116:
 281:drivers/IOI2C.c ****     IIC_Wait_Ack();	  
 999              		.loc 1 281 0
 1000 0414 FFF7FEFF 		bl	IIC_Wait_Ack
 1001              	.LVL117:
 282:drivers/IOI2C.c **** 	for(count=0;count<length;count++){
 1002              		.loc 1 282 0
 1003 0418 5EB1     		cbz	r6, .L87
 1004 041a 6C1E     		subs	r4, r5, #1
 1005 041c 013E     		subs	r6, r6, #1
 1006 041e F6B2     		uxtb	r6, r6
 1007 0420 3544     		add	r5, r5, r6
 1008              	.LVL118:
 1009              	.L88:
 283:drivers/IOI2C.c **** 		IIC_Send_Byte(data[count]); 
 1010              		.loc 1 283 0 discriminator 3
 1011 0422 14F8010F 		ldrb	r0, [r4, #1]!	@ zero_extendqisi2
 1012              	.LVL119:
 1013 0426 FFF7FEFF 		bl	IIC_Send_Byte
 1014              	.LVL120:
 284:drivers/IOI2C.c **** 		IIC_Wait_Ack(); 
 1015              		.loc 1 284 0 discriminator 3
 1016 042a FFF7FEFF 		bl	IIC_Wait_Ack
 1017              	.LVL121:
 282:drivers/IOI2C.c **** 	for(count=0;count<length;count++){
 1018              		.loc 1 282 0 discriminator 3
 1019 042e AC42     		cmp	r4, r5
 1020 0430 F7D1     		bne	.L88
 1021              	.LVL122:
 1022              	.L87:
 285:drivers/IOI2C.c **** 	 }
 286:drivers/IOI2C.c **** 	IIC_Stop();//产生一个停止条件
ARM GAS  /tmp/cc7GaDyr.s 			page 25


 1023              		.loc 1 286 0
 1024 0432 FFF7FEFF 		bl	IIC_Stop
 1025              	.LVL123:
 287:drivers/IOI2C.c **** 
 288:drivers/IOI2C.c ****     return 1; //status == 0;
 289:drivers/IOI2C.c **** }
 1026              		.loc 1 289 0
 1027 0436 0120     		movs	r0, #1
 1028 0438 F8BD     		pop	{r3, r4, r5, r6, r7, pc}
 1029              		.cfi_endproc
 1030              	.LFE76:
 1031              		.size	IICwriteBytes, .-IICwriteBytes
 1032              		.align	1
 1033              		.global	IICreadByte
 1034              		.syntax unified
 1035              		.thumb
 1036              		.thumb_func
 1037              		.fpu softvfp
 1038              		.type	IICreadByte, %function
 1039              	IICreadByte:
 1040              	.LFB77:
 290:drivers/IOI2C.c **** 
 291:drivers/IOI2C.c **** /**************************实现函数********************************************
 292:drivers/IOI2C.c **** *函数原型:		u8 IICreadByte(u8 dev, u8 reg, u8 *data)
 293:drivers/IOI2C.c **** *功　　能:	    读取指定设备 指定寄存器的一个值
 294:drivers/IOI2C.c **** 输入	dev  目标设备地址
 295:drivers/IOI2C.c **** 		reg	   寄存器地址
 296:drivers/IOI2C.c **** 		*data  读出的数据将要存放的地址
 297:drivers/IOI2C.c **** 返回   1
 298:drivers/IOI2C.c **** *******************************************************************************/ 
 299:drivers/IOI2C.c **** u8 IICreadByte(u8 dev, u8 reg, u8 *data){
 1041              		.loc 1 299 0
 1042              		.cfi_startproc
 1043              		@ args = 0, pretend = 0, frame = 0
 1044              		@ frame_needed = 0, uses_anonymous_args = 0
 1045              	.LVL124:
 1046 043a 10B5     		push	{r4, lr}
 1047              		.cfi_def_cfa_offset 8
 1048              		.cfi_offset 4, -8
 1049              		.cfi_offset 14, -4
 1050 043c 1446     		mov	r4, r2
 300:drivers/IOI2C.c **** 	*data=I2C_ReadOneByte(dev, reg);
 1051              		.loc 1 300 0
 1052 043e FFF7FEFF 		bl	I2C_ReadOneByte
 1053              	.LVL125:
 1054 0442 2070     		strb	r0, [r4]
 301:drivers/IOI2C.c ****     return 1;
 302:drivers/IOI2C.c **** }
 1055              		.loc 1 302 0
 1056 0444 0120     		movs	r0, #1
 1057 0446 10BD     		pop	{r4, pc}
 1058              		.cfi_endproc
 1059              	.LFE77:
 1060              		.size	IICreadByte, .-IICreadByte
 1061              		.align	1
 1062              		.global	IICwriteByte
 1063              		.syntax unified
ARM GAS  /tmp/cc7GaDyr.s 			page 26


 1064              		.thumb
 1065              		.thumb_func
 1066              		.fpu softvfp
 1067              		.type	IICwriteByte, %function
 1068              	IICwriteByte:
 1069              	.LFB78:
 303:drivers/IOI2C.c **** 
 304:drivers/IOI2C.c **** /**************************实现函数********************************************
 305:drivers/IOI2C.c **** *函数原型:		unsigned char IICwriteByte(unsigned char dev, unsigned char reg, unsigned char data)
 306:drivers/IOI2C.c **** *功　　能:	    写入指定设备 指定寄存器一个字节
 307:drivers/IOI2C.c **** 输入	dev  目标设备地址
 308:drivers/IOI2C.c **** 		reg	   寄存器地址
 309:drivers/IOI2C.c **** 		data  将要写入的字节
 310:drivers/IOI2C.c **** 返回   1
 311:drivers/IOI2C.c **** *******************************************************************************/ 
 312:drivers/IOI2C.c **** unsigned char IICwriteByte(unsigned char dev, unsigned char reg, unsigned char data){
 1070              		.loc 1 312 0
 1071              		.cfi_startproc
 1072              		@ args = 0, pretend = 0, frame = 8
 1073              		@ frame_needed = 0, uses_anonymous_args = 0
 1074              	.LVL126:
 1075 0448 00B5     		push	{lr}
 1076              		.cfi_def_cfa_offset 4
 1077              		.cfi_offset 14, -4
 1078 044a 83B0     		sub	sp, sp, #12
 1079              		.cfi_def_cfa_offset 16
 1080 044c 02AB     		add	r3, sp, #8
 1081 044e 03F8012D 		strb	r2, [r3, #-1]!
 313:drivers/IOI2C.c ****     return IICwriteBytes(dev, reg, 1, &data);
 1082              		.loc 1 313 0
 1083 0452 0122     		movs	r2, #1
 1084              	.LVL127:
 1085 0454 FFF7FEFF 		bl	IICwriteBytes
 1086              	.LVL128:
 314:drivers/IOI2C.c **** }
 1087              		.loc 1 314 0
 1088 0458 03B0     		add	sp, sp, #12
 1089              		.cfi_def_cfa_offset 4
 1090              		@ sp needed
 1091 045a 5DF804FB 		ldr	pc, [sp], #4
 1092              		.cfi_endproc
 1093              	.LFE78:
 1094              		.size	IICwriteByte, .-IICwriteByte
 1095              		.align	1
 1096              		.global	IICwriteBits
 1097              		.syntax unified
 1098              		.thumb
 1099              		.thumb_func
 1100              		.fpu softvfp
 1101              		.type	IICwriteBits, %function
 1102              	IICwriteBits:
 1103              	.LFB79:
 315:drivers/IOI2C.c **** 
 316:drivers/IOI2C.c **** /**************************实现函数********************************************
 317:drivers/IOI2C.c **** *函数原型:		u8 IICwriteBits(u8 dev,u8 reg,u8 bitStart,u8 length,u8 data)
 318:drivers/IOI2C.c **** *功　　能:	    读 修改 写 指定设备 指定寄存器一个字节 中的多个位
 319:drivers/IOI2C.c **** 输入	dev  目标设备地址
ARM GAS  /tmp/cc7GaDyr.s 			page 27


 320:drivers/IOI2C.c **** 		reg	   寄存器地址
 321:drivers/IOI2C.c **** 		bitStart  目标字节的起始位
 322:drivers/IOI2C.c **** 		length   位长度
 323:drivers/IOI2C.c **** 		data    存放改变目标字节位的值
 324:drivers/IOI2C.c **** 返回   成功 为1 
 325:drivers/IOI2C.c ****  		失败为0
 326:drivers/IOI2C.c **** *******************************************************************************/ 
 327:drivers/IOI2C.c **** u8 IICwriteBits(u8 dev,u8 reg,u8 bitStart,u8 length,u8 data)
 328:drivers/IOI2C.c **** {
 1104              		.loc 1 328 0
 1105              		.cfi_startproc
 1106              		@ args = 4, pretend = 0, frame = 8
 1107              		@ frame_needed = 0, uses_anonymous_args = 0
 1108              	.LVL129:
 1109 045e F0B5     		push	{r4, r5, r6, r7, lr}
 1110              		.cfi_def_cfa_offset 20
 1111              		.cfi_offset 4, -20
 1112              		.cfi_offset 5, -16
 1113              		.cfi_offset 6, -12
 1114              		.cfi_offset 7, -8
 1115              		.cfi_offset 14, -4
 1116 0460 83B0     		sub	sp, sp, #12
 1117              		.cfi_def_cfa_offset 32
 1118 0462 0546     		mov	r5, r0
 1119 0464 0E46     		mov	r6, r1
 1120 0466 1746     		mov	r7, r2
 1121 0468 1C46     		mov	r4, r3
 329:drivers/IOI2C.c **** 
 330:drivers/IOI2C.c ****     u8 b;
 331:drivers/IOI2C.c ****     if (IICreadByte(dev, reg, &b) != 0) {
 1122              		.loc 1 331 0
 1123 046a 0DF10702 		add	r2, sp, #7
 1124              	.LVL130:
 1125 046e FFF7FEFF 		bl	IICreadByte
 1126              	.LVL131:
 1127 0472 0346     		mov	r3, r0
 1128 0474 10B9     		cbnz	r0, .L98
 1129              	.LVL132:
 1130              	.L96:
 332:drivers/IOI2C.c ****         u8 mask = (0xFF << (bitStart + 1)) | 0xFF >> ((8 - bitStart) + length - 1);
 333:drivers/IOI2C.c ****         data <<= (8 - length);
 334:drivers/IOI2C.c ****         data >>= (7 - bitStart);
 335:drivers/IOI2C.c ****         b &= mask;
 336:drivers/IOI2C.c ****         b |= data;
 337:drivers/IOI2C.c ****         return IICwriteByte(dev, reg, b);
 338:drivers/IOI2C.c ****     } else {
 339:drivers/IOI2C.c ****         return 0;
 340:drivers/IOI2C.c ****     }
 341:drivers/IOI2C.c **** }
 1131              		.loc 1 341 0
 1132 0476 1846     		mov	r0, r3
 1133 0478 03B0     		add	sp, sp, #12
 1134              		.cfi_remember_state
 1135              		.cfi_def_cfa_offset 20
 1136              		@ sp needed
 1137 047a F0BD     		pop	{r4, r5, r6, r7, pc}
 1138              	.LVL133:
ARM GAS  /tmp/cc7GaDyr.s 			page 28


 1139              	.L98:
 1140              		.cfi_restore_state
 1141              	.LBB2:
 333:drivers/IOI2C.c ****         data >>= (7 - bitStart);
 1142              		.loc 1 333 0
 1143 047c C4F10803 		rsb	r3, r4, #8
 1144 0480 9DF82020 		ldrb	r2, [sp, #32]	@ zero_extendqisi2
 1145 0484 9A40     		lsls	r2, r2, r3
 334:drivers/IOI2C.c ****         b &= mask;
 1146              		.loc 1 334 0
 1147 0486 D2B2     		uxtb	r2, r2
 1148 0488 C7F10703 		rsb	r3, r7, #7
 1149 048c 42FA03F3 		asr	r3, r2, r3
 1150              	.LVL134:
 332:drivers/IOI2C.c ****         u8 mask = (0xFF << (bitStart + 1)) | 0xFF >> ((8 - bitStart) + length - 1);
 1151              		.loc 1 332 0
 1152 0490 E21B     		subs	r2, r4, r7
 1153              	.LVL135:
 1154 0492 0732     		adds	r2, r2, #7
 1155              	.LVL136:
 1156 0494 FF21     		movs	r1, #255
 1157 0496 41FA02F2 		asr	r2, r1, r2
 1158              	.LVL137:
 1159 049a 0137     		adds	r7, r7, #1
 1160              	.LVL138:
 1161 049c 01FA07F7 		lsl	r7, r1, r7
 1162              	.LVL139:
 1163 04a0 3A43     		orrs	r2, r2, r7
 335:drivers/IOI2C.c ****         b |= data;
 1164              		.loc 1 335 0
 1165 04a2 9DF80710 		ldrb	r1, [sp, #7]	@ zero_extendqisi2
 1166 04a6 0A40     		ands	r2, r2, r1
 336:drivers/IOI2C.c ****         return IICwriteByte(dev, reg, b);
 1167              		.loc 1 336 0
 1168 04a8 1A43     		orrs	r2, r2, r3
 1169 04aa D2B2     		uxtb	r2, r2
 1170 04ac 8DF80720 		strb	r2, [sp, #7]
 337:drivers/IOI2C.c ****     } else {
 1171              		.loc 1 337 0
 1172 04b0 3146     		mov	r1, r6
 1173 04b2 2846     		mov	r0, r5
 1174 04b4 FFF7FEFF 		bl	IICwriteByte
 1175              	.LVL140:
 1176 04b8 0346     		mov	r3, r0
 1177 04ba DCE7     		b	.L96
 1178              	.LBE2:
 1179              		.cfi_endproc
 1180              	.LFE79:
 1181              		.size	IICwriteBits, .-IICwriteBits
 1182              		.align	1
 1183              		.global	IICwriteBit
 1184              		.syntax unified
 1185              		.thumb
 1186              		.thumb_func
 1187              		.fpu softvfp
 1188              		.type	IICwriteBit, %function
 1189              	IICwriteBit:
ARM GAS  /tmp/cc7GaDyr.s 			page 29


 1190              	.LFB80:
 342:drivers/IOI2C.c **** 
 343:drivers/IOI2C.c **** /**************************实现函数********************************************
 344:drivers/IOI2C.c **** *函数原型:		u8 IICwriteBit(u8 dev, u8 reg, u8 bitNum, u8 data)
 345:drivers/IOI2C.c **** *功　　能:	    读 修改 写 指定设备 指定寄存器一个字节 中的1个位
 346:drivers/IOI2C.c **** 输入	dev  目标设备地址
 347:drivers/IOI2C.c **** 		reg	   寄存器地址
 348:drivers/IOI2C.c **** 		bitNum  要修改目标字节的bitNum位
 349:drivers/IOI2C.c **** 		data  为0 时，目标位将被清0 否则将被置位
 350:drivers/IOI2C.c **** 返回   成功 为1 
 351:drivers/IOI2C.c ****  		失败为0
 352:drivers/IOI2C.c **** *******************************************************************************/ 
 353:drivers/IOI2C.c **** u8 IICwriteBit(u8 dev, u8 reg, u8 bitNum, u8 data){
 1191              		.loc 1 353 0
 1192              		.cfi_startproc
 1193              		@ args = 0, pretend = 0, frame = 8
 1194              		@ frame_needed = 0, uses_anonymous_args = 0
 1195              	.LVL141:
 1196 04bc F0B5     		push	{r4, r5, r6, r7, lr}
 1197              		.cfi_def_cfa_offset 20
 1198              		.cfi_offset 4, -20
 1199              		.cfi_offset 5, -16
 1200              		.cfi_offset 6, -12
 1201              		.cfi_offset 7, -8
 1202              		.cfi_offset 14, -4
 1203 04be 83B0     		sub	sp, sp, #12
 1204              		.cfi_def_cfa_offset 32
 1205 04c0 0446     		mov	r4, r0
 1206 04c2 0D46     		mov	r5, r1
 1207 04c4 1646     		mov	r6, r2
 1208 04c6 1F46     		mov	r7, r3
 354:drivers/IOI2C.c ****     u8 b;
 355:drivers/IOI2C.c ****     IICreadByte(dev, reg, &b);
 1209              		.loc 1 355 0
 1210 04c8 0DF10702 		add	r2, sp, #7
 1211              	.LVL142:
 1212 04cc FFF7FEFF 		bl	IICreadByte
 1213              	.LVL143:
 356:drivers/IOI2C.c ****     b = (data != 0) ? (b | (1 << bitNum)) : (b & ~(1 << bitNum));
 1214              		.loc 1 356 0
 1215 04d0 77B9     		cbnz	r7, .L103
 1216              		.loc 1 356 0 is_stmt 0 discriminator 2
 1217 04d2 0122     		movs	r2, #1
 1218 04d4 02FA06F3 		lsl	r3, r2, r6
 1219 04d8 9DF80720 		ldrb	r2, [sp, #7]	@ zero_extendqisi2
 1220 04dc 22EA0302 		bic	r2, r2, r3
 1221              	.L101:
 1222              		.loc 1 356 0 discriminator 4
 1223 04e0 8DF80720 		strb	r2, [sp, #7]
 357:drivers/IOI2C.c ****     return IICwriteByte(dev, reg, b);
 1224              		.loc 1 357 0 is_stmt 1 discriminator 4
 1225 04e4 2946     		mov	r1, r5
 1226 04e6 2046     		mov	r0, r4
 1227 04e8 FFF7FEFF 		bl	IICwriteByte
 1228              	.LVL144:
 358:drivers/IOI2C.c **** }
 1229              		.loc 1 358 0 discriminator 4
ARM GAS  /tmp/cc7GaDyr.s 			page 30


 1230 04ec 03B0     		add	sp, sp, #12
 1231              		.cfi_remember_state
 1232              		.cfi_def_cfa_offset 20
 1233              		@ sp needed
 1234 04ee F0BD     		pop	{r4, r5, r6, r7, pc}
 1235              	.L103:
 1236              		.cfi_restore_state
 356:drivers/IOI2C.c ****     b = (data != 0) ? (b | (1 << bitNum)) : (b & ~(1 << bitNum));
 1237              		.loc 1 356 0 discriminator 1
 1238 04f0 0122     		movs	r2, #1
 1239 04f2 B240     		lsls	r2, r2, r6
 1240 04f4 9DF80730 		ldrb	r3, [sp, #7]	@ zero_extendqisi2
 1241 04f8 1A43     		orrs	r2, r2, r3
 1242 04fa D2B2     		uxtb	r2, r2
 1243 04fc F0E7     		b	.L101
 1244              		.cfi_endproc
 1245              	.LFE80:
 1246              		.size	IICwriteBit, .-IICwriteBit
 1247              	.Letext0:
 1248              		.file 2 "/usr/arm-none-eabi/include/machine/_default_types.h"
 1249              		.file 3 "/usr/arm-none-eabi/include/sys/_stdint.h"
 1250              		.file 4 "/home/faker/Documents/code/STM/stm32-quadrocopter/cmsis/core_cm3.h"
 1251              		.file 5 "/home/faker/Documents/code/STM/stm32-quadrocopter/lib/inc/system_stm32f10x.h"
 1252              		.file 6 "/home/faker/Documents/code/STM/stm32-quadrocopter/lib/inc/stm32f10x.h"
 1253              		.file 7 "drivers/MPU6050.h"
 1254              		.file 8 "/usr/arm-none-eabi/include/sys/lock.h"
 1255              		.file 9 "/usr/arm-none-eabi/include/sys/_types.h"
 1256              		.file 10 "/usr/lib/gcc/arm-none-eabi/6.1.1/include/stddef.h"
 1257              		.file 11 "/usr/arm-none-eabi/include/sys/reent.h"
 1258              		.file 12 "/usr/arm-none-eabi/include/stdlib.h"
 1259              		.file 13 "/usr/arm-none-eabi/include/math.h"
 1260              		.file 14 "/usr/arm-none-eabi/include/sys/errno.h"
 1261              		.file 15 "drivers/tools.h"