ARM GAS  /tmp/ccURwfKD.s 			page 1


   1              		.cpu cortex-m3
   2              		.eabi_attribute 20, 1
   3              		.eabi_attribute 21, 1
   4              		.eabi_attribute 23, 3
   5              		.eabi_attribute 24, 1
   6              		.eabi_attribute 25, 1
   7              		.eabi_attribute 26, 1
   8              		.eabi_attribute 30, 6
   9              		.eabi_attribute 34, 1
  10              		.eabi_attribute 18, 4
  11              		.file	"lib.c"
  12              		.text
  13              	.Ltext0:
  14              		.cfi_sections	.debug_frame
  15              		.align	1
  16              		.global	HCSR04_Get
  17              		.syntax unified
  18              		.thumb
  19              		.thumb_func
  20              		.fpu softvfp
  21              		.type	HCSR04_Get, %function
  22              	HCSR04_Get:
  23              	.LFB64:
  24              		.file 1 "src/lib.c"
   1:src/lib.c     **** #include "main.h"
   2:src/lib.c     **** 
   3:src/lib.c     **** 
   4:src/lib.c     **** 
   5:src/lib.c     **** int HCSR04_Get(void)
   6:src/lib.c     **** {
  25              		.loc 1 6 0
  26              		.cfi_startproc
  27              		@ args = 0, pretend = 0, frame = 8
  28              		@ frame_needed = 1, uses_anonymous_args = 0
  29 0000 80B5     		push	{r7, lr}
  30              		.cfi_def_cfa_offset 8
  31              		.cfi_offset 7, -8
  32              		.cfi_offset 14, -4
  33 0002 82B0     		sub	sp, sp, #8
  34              		.cfi_def_cfa_offset 16
  35 0004 00AF     		add	r7, sp, #0
  36              		.cfi_def_cfa_register 7
   7:src/lib.c     ****   int length;
   8:src/lib.c     ****   
   9:src/lib.c     ****   GPIO_WriteBit(GPIOA,GPIO_Pin_1,1);
  37              		.loc 1 9 0
  38 0006 0122     		movs	r2, #1
  39 0008 0221     		movs	r1, #2
  40 000a 2348     		ldr	r0, .L7
  41 000c FFF7FEFF 		bl	GPIO_WriteBit
  10:src/lib.c     ****   delay_us(20);
  42              		.loc 1 10 0
  43 0010 1420     		movs	r0, #20
  44 0012 FFF7FEFF 		bl	delay_us
  11:src/lib.c     ****   GPIO_WriteBit(GPIOA,GPIO_Pin_1,0);
  45              		.loc 1 11 0
  46 0016 0022     		movs	r2, #0
ARM GAS  /tmp/ccURwfKD.s 			page 2


  47 0018 0221     		movs	r1, #2
  48 001a 1F48     		ldr	r0, .L7
  49 001c FFF7FEFF 		bl	GPIO_WriteBit
  12:src/lib.c     ****   //计数器清0
  13:src/lib.c     ****   TIM2->CNT = 0;
  50              		.loc 1 13 0
  51 0020 4FF08043 		mov	r3, #1073741824
  52 0024 0022     		movs	r2, #0
  53 0026 9A84     		strh	r2, [r3, #36]	@ movhi
  14:src/lib.c     ****   TIM_Cmd(TIM2, ENABLE);// TIM2 enable counter [允许tim2计数]
  54              		.loc 1 14 0
  55 0028 0121     		movs	r1, #1
  56 002a 4FF08040 		mov	r0, #1073741824
  57 002e FFF7FEFF 		bl	TIM_Cmd
  15:src/lib.c     ****   while(!GPIO_ReadInputDataBit(GPIOA, GPIO_Pin_0) && TIM2->CNT<1000);
  58              		.loc 1 15 0
  59 0032 00BF     		nop
  60              	.L3:
  61              		.loc 1 15 0 is_stmt 0 discriminator 2
  62 0034 0121     		movs	r1, #1
  63 0036 1848     		ldr	r0, .L7
  64 0038 FFF7FEFF 		bl	GPIO_ReadInputDataBit
  65 003c 0346     		mov	r3, r0
  66 003e 002B     		cmp	r3, #0
  67 0040 06D1     		bne	.L2
  68              		.loc 1 15 0 discriminator 1
  69 0042 4FF08043 		mov	r3, #1073741824
  70 0046 9B8C     		ldrh	r3, [r3, #36]	@ movhi
  71 0048 9BB2     		uxth	r3, r3
  72 004a B3F57A7F 		cmp	r3, #1000
  73 004e F1D3     		bcc	.L3
  74              	.L2:
  16:src/lib.c     ****   TIM2->CNT = 0;
  75              		.loc 1 16 0 is_stmt 1
  76 0050 4FF08043 		mov	r3, #1073741824
  77 0054 0022     		movs	r2, #0
  78 0056 9A84     		strh	r2, [r3, #36]	@ movhi
  17:src/lib.c     ****   while(GPIO_ReadInputDataBit(GPIOA, GPIO_Pin_0) && TIM2->CNT<60000);
  79              		.loc 1 17 0
  80 0058 00BF     		nop
  81              	.L5:
  82              		.loc 1 17 0 is_stmt 0 discriminator 2
  83 005a 0121     		movs	r1, #1
  84 005c 0E48     		ldr	r0, .L7
  85 005e FFF7FEFF 		bl	GPIO_ReadInputDataBit
  86 0062 0346     		mov	r3, r0
  87 0064 002B     		cmp	r3, #0
  88 0066 07D0     		beq	.L4
  89              		.loc 1 17 0 discriminator 1
  90 0068 4FF08043 		mov	r3, #1073741824
  91 006c 9B8C     		ldrh	r3, [r3, #36]	@ movhi
  92 006e 9BB2     		uxth	r3, r3
  93 0070 4EF65F22 		movw	r2, #59999
  94 0074 9342     		cmp	r3, r2
  95 0076 F0D9     		bls	.L5
  96              	.L4:
  18:src/lib.c     ****   TIM_Cmd(TIM2, DISABLE);
ARM GAS  /tmp/ccURwfKD.s 			page 3


  97              		.loc 1 18 0 is_stmt 1
  98 0078 0021     		movs	r1, #0
  99 007a 4FF08040 		mov	r0, #1073741824
 100 007e FFF7FEFF 		bl	TIM_Cmd
  19:src/lib.c     **** 
  20:src/lib.c     ****   length = TIM2->CNT;
 101              		.loc 1 20 0
 102 0082 4FF08043 		mov	r3, #1073741824
 103 0086 9B8C     		ldrh	r3, [r3, #36]	@ movhi
 104 0088 9BB2     		uxth	r3, r3
 105 008a 7B60     		str	r3, [r7, #4]
  21:src/lib.c     ****   return length;
 106              		.loc 1 21 0
 107 008c 7B68     		ldr	r3, [r7, #4]
  22:src/lib.c     **** }
 108              		.loc 1 22 0
 109 008e 1846     		mov	r0, r3
 110 0090 0837     		adds	r7, r7, #8
 111              		.cfi_def_cfa_offset 8
 112 0092 BD46     		mov	sp, r7
 113              		.cfi_def_cfa_register 13
 114              		@ sp needed
 115 0094 80BD     		pop	{r7, pc}
 116              	.L8:
 117 0096 00BF     		.align	2
 118              	.L7:
 119 0098 00080140 		.word	1073809408
 120              		.cfi_endproc
 121              	.LFE64:
 122              		.size	HCSR04_Get, .-HCSR04_Get
 123              		.align	1
 124              		.global	I2C_Conf
 125              		.syntax unified
 126              		.thumb
 127              		.thumb_func
 128              		.fpu softvfp
 129              		.type	I2C_Conf, %function
 130              	I2C_Conf:
 131              	.LFB65:
  23:src/lib.c     **** 
  24:src/lib.c     **** void I2C_Conf(void)
  25:src/lib.c     **** {
 132              		.loc 1 25 0
 133              		.cfi_startproc
 134              		@ args = 0, pretend = 0, frame = 16
 135              		@ frame_needed = 1, uses_anonymous_args = 0
 136 009c 80B5     		push	{r7, lr}
 137              		.cfi_def_cfa_offset 8
 138              		.cfi_offset 7, -8
 139              		.cfi_offset 14, -4
 140 009e 84B0     		sub	sp, sp, #16
 141              		.cfi_def_cfa_offset 24
 142 00a0 00AF     		add	r7, sp, #0
 143              		.cfi_def_cfa_register 7
  26:src/lib.c     ****   I2C_InitTypeDef  I2C_InitStructure; 
  27:src/lib.c     **** 
  28:src/lib.c     ****   /* I2C configuration */
ARM GAS  /tmp/ccURwfKD.s 			page 4


  29:src/lib.c     ****   I2C_InitStructure.I2C_Mode = I2C_Mode_I2C;
 144              		.loc 1 29 0
 145 00a2 0023     		movs	r3, #0
 146 00a4 BB80     		strh	r3, [r7, #4]	@ movhi
  30:src/lib.c     ****   I2C_InitStructure.I2C_DutyCycle = I2C_DutyCycle_2;
 147              		.loc 1 30 0
 148 00a6 4BF6FF73 		movw	r3, #49151
 149 00aa FB80     		strh	r3, [r7, #6]	@ movhi
  31:src/lib.c     ****   I2C_InitStructure.I2C_OwnAddress1 = I2C1_SLAVE_ADDRESS7;
 150              		.loc 1 31 0
 151 00ac A023     		movs	r3, #160
 152 00ae 3B81     		strh	r3, [r7, #8]	@ movhi
  32:src/lib.c     ****   I2C_InitStructure.I2C_Ack = I2C_Ack_Enable;
 153              		.loc 1 32 0
 154 00b0 4FF48063 		mov	r3, #1024
 155 00b4 7B81     		strh	r3, [r7, #10]	@ movhi
  33:src/lib.c     ****   I2C_InitStructure.I2C_AcknowledgedAddress = I2C_AcknowledgedAddress_7bit;
 156              		.loc 1 33 0
 157 00b6 4FF48043 		mov	r3, #16384
 158 00ba BB81     		strh	r3, [r7, #12]	@ movhi
  34:src/lib.c     ****   I2C_InitStructure.I2C_ClockSpeed = I2C_Speed;
 159              		.loc 1 34 0
 160 00bc 074B     		ldr	r3, .L10
 161 00be 3B60     		str	r3, [r7]
  35:src/lib.c     ****   
  36:src/lib.c     ****   /* I2C Peripheral Enable */
  37:src/lib.c     ****   I2C_Cmd(I2C1, ENABLE);
 162              		.loc 1 37 0
 163 00c0 0121     		movs	r1, #1
 164 00c2 0748     		ldr	r0, .L10+4
 165 00c4 FFF7FEFF 		bl	I2C_Cmd
  38:src/lib.c     ****   /* Apply I2C configuration after enabling it */
  39:src/lib.c     ****   I2C_Init(I2C1, &I2C_InitStructure);
 166              		.loc 1 39 0
 167 00c8 3B46     		mov	r3, r7
 168 00ca 1946     		mov	r1, r3
 169 00cc 0448     		ldr	r0, .L10+4
 170 00ce FFF7FEFF 		bl	I2C_Init
  40:src/lib.c     **** }
 171              		.loc 1 40 0
 172 00d2 00BF     		nop
 173 00d4 1037     		adds	r7, r7, #16
 174              		.cfi_def_cfa_offset 8
 175 00d6 BD46     		mov	sp, r7
 176              		.cfi_def_cfa_register 13
 177              		@ sp needed
 178 00d8 80BD     		pop	{r7, pc}
 179              	.L11:
 180 00da 00BF     		.align	2
 181              	.L10:
 182 00dc 801A0600 		.word	400000
 183 00e0 00540040 		.word	1073763328
 184              		.cfi_endproc
 185              	.LFE65:
 186              		.size	I2C_Conf, .-I2C_Conf
 187              		.align	1
 188              		.global	GPIO_Conf
ARM GAS  /tmp/ccURwfKD.s 			page 5


 189              		.syntax unified
 190              		.thumb
 191              		.thumb_func
 192              		.fpu softvfp
 193              		.type	GPIO_Conf, %function
 194              	GPIO_Conf:
 195              	.LFB66:
  41:src/lib.c     **** 
  42:src/lib.c     **** 
  43:src/lib.c     **** void GPIO_Conf(void)
  44:src/lib.c     **** {
 196              		.loc 1 44 0
 197              		.cfi_startproc
 198              		@ args = 0, pretend = 0, frame = 8
 199              		@ frame_needed = 1, uses_anonymous_args = 0
 200 00e4 80B5     		push	{r7, lr}
 201              		.cfi_def_cfa_offset 8
 202              		.cfi_offset 7, -8
 203              		.cfi_offset 14, -4
 204 00e6 82B0     		sub	sp, sp, #8
 205              		.cfi_def_cfa_offset 16
 206 00e8 00AF     		add	r7, sp, #0
 207              		.cfi_def_cfa_register 7
  45:src/lib.c     ****   GPIO_InitTypeDef GPIO_InitStructure;
  46:src/lib.c     ****   
  47:src/lib.c     ****   //开启AFIO时钟
  48:src/lib.c     ****   RCC_APB2PeriphClockCmd(RCC_APB2Periph_AFIO, ENABLE);
 208              		.loc 1 48 0
 209 00ea 0121     		movs	r1, #1
 210 00ec 0120     		movs	r0, #1
 211 00ee FFF7FEFF 		bl	RCC_APB2PeriphClockCmd
  49:src/lib.c     ****   
  50:src/lib.c     ****    //配置USARTx_Tx为复合推挽输出
  51:src/lib.c     ****   GPIO_InitStructure.GPIO_Pin = GPIO_TxPin;
 212              		.loc 1 51 0
 213 00f2 0423     		movs	r3, #4
 214 00f4 BB80     		strh	r3, [r7, #4]	@ movhi
  52:src/lib.c     ****   GPIO_InitStructure.GPIO_Speed = GPIO_Speed_50MHz;
 215              		.loc 1 52 0
 216 00f6 0323     		movs	r3, #3
 217 00f8 BB71     		strb	r3, [r7, #6]
  53:src/lib.c     ****   GPIO_InitStructure.GPIO_Mode = GPIO_Mode_AF_PP;
 218              		.loc 1 53 0
 219 00fa 1823     		movs	r3, #24
 220 00fc FB71     		strb	r3, [r7, #7]
  54:src/lib.c     ****   GPIO_Init(GPIOx, &GPIO_InitStructure);
 221              		.loc 1 54 0
 222 00fe 3B1D     		adds	r3, r7, #4
 223 0100 1946     		mov	r1, r3
 224 0102 1148     		ldr	r0, .L13
 225 0104 FFF7FEFF 		bl	GPIO_Init
  55:src/lib.c     ****   
  56:src/lib.c     ****   //配置 USARTx_Rx 为浮空输入
  57:src/lib.c     ****   GPIO_InitStructure.GPIO_Pin = GPIO_RxPin;
 226              		.loc 1 57 0
 227 0108 0823     		movs	r3, #8
 228 010a BB80     		strh	r3, [r7, #4]	@ movhi
ARM GAS  /tmp/ccURwfKD.s 			page 6


  58:src/lib.c     ****   GPIO_InitStructure.GPIO_Mode = GPIO_Mode_IN_FLOATING;
 229              		.loc 1 58 0
 230 010c 0423     		movs	r3, #4
 231 010e FB71     		strb	r3, [r7, #7]
  59:src/lib.c     ****   GPIO_Init(GPIOx, &GPIO_InitStructure);
 232              		.loc 1 59 0
 233 0110 3B1D     		adds	r3, r7, #4
 234 0112 1946     		mov	r1, r3
 235 0114 0C48     		ldr	r0, .L13
 236 0116 FFF7FEFF 		bl	GPIO_Init
  60:src/lib.c     ****   
  61:src/lib.c     ****   //HC-SR02 
  62:src/lib.c     ****   GPIO_InitStructure.GPIO_Pin = GPIO_Pin_1; 
 237              		.loc 1 62 0
 238 011a 0223     		movs	r3, #2
 239 011c BB80     		strh	r3, [r7, #4]	@ movhi
  63:src/lib.c     ****   GPIO_InitStructure.GPIO_Mode = GPIO_Mode_Out_PP;
 240              		.loc 1 63 0
 241 011e 1023     		movs	r3, #16
 242 0120 FB71     		strb	r3, [r7, #7]
  64:src/lib.c     ****   GPIO_Init(GPIOA, &GPIO_InitStructure);
 243              		.loc 1 64 0
 244 0122 3B1D     		adds	r3, r7, #4
 245 0124 1946     		mov	r1, r3
 246 0126 0848     		ldr	r0, .L13
 247 0128 FFF7FEFF 		bl	GPIO_Init
  65:src/lib.c     ****   GPIO_InitStructure.GPIO_Pin = GPIO_Pin_0; 
 248              		.loc 1 65 0
 249 012c 0123     		movs	r3, #1
 250 012e BB80     		strh	r3, [r7, #4]	@ movhi
  66:src/lib.c     ****   GPIO_InitStructure.GPIO_Mode = GPIO_Mode_IN_FLOATING;
 251              		.loc 1 66 0
 252 0130 0423     		movs	r3, #4
 253 0132 FB71     		strb	r3, [r7, #7]
  67:src/lib.c     ****   GPIO_Init(GPIOA, &GPIO_InitStructure);
 254              		.loc 1 67 0
 255 0134 3B1D     		adds	r3, r7, #4
 256 0136 1946     		mov	r1, r3
 257 0138 0348     		ldr	r0, .L13
 258 013a FFF7FEFF 		bl	GPIO_Init
  68:src/lib.c     **** 
  69:src/lib.c     **** }
 259              		.loc 1 69 0
 260 013e 00BF     		nop
 261 0140 0837     		adds	r7, r7, #8
 262              		.cfi_def_cfa_offset 8
 263 0142 BD46     		mov	sp, r7
 264              		.cfi_def_cfa_register 13
 265              		@ sp needed
 266 0144 80BD     		pop	{r7, pc}
 267              	.L14:
 268 0146 00BF     		.align	2
 269              	.L13:
 270 0148 00080140 		.word	1073809408
 271              		.cfi_endproc
 272              	.LFE66:
 273              		.size	GPIO_Conf, .-GPIO_Conf
ARM GAS  /tmp/ccURwfKD.s 			page 7


 274              		.align	1
 275              		.global	NVIC_Conf
 276              		.syntax unified
 277              		.thumb
 278              		.thumb_func
 279              		.fpu softvfp
 280              		.type	NVIC_Conf, %function
 281              	NVIC_Conf:
 282              	.LFB67:
  70:src/lib.c     **** 
  71:src/lib.c     **** // 系统中断控制
  72:src/lib.c     **** void NVIC_Conf(void)
  73:src/lib.c     **** { 
 283              		.loc 1 73 0
 284              		.cfi_startproc
 285              		@ args = 0, pretend = 0, frame = 8
 286              		@ frame_needed = 1, uses_anonymous_args = 0
 287 014c 80B5     		push	{r7, lr}
 288              		.cfi_def_cfa_offset 8
 289              		.cfi_offset 7, -8
 290              		.cfi_offset 14, -4
 291 014e 82B0     		sub	sp, sp, #8
 292              		.cfi_def_cfa_offset 16
 293 0150 00AF     		add	r7, sp, #0
 294              		.cfi_def_cfa_register 7
  74:src/lib.c     ****   NVIC_InitTypeDef NVIC_InitStructure;
  75:src/lib.c     ****   // 设置中断向量表位置 FLASH:0x08000000
  76:src/lib.c     ****   NVIC_SetVectorTable(NVIC_VectTab_FLASH, 0x0); 
 295              		.loc 1 76 0
 296 0152 0021     		movs	r1, #0
 297 0154 4FF00060 		mov	r0, #134217728
 298 0158 FFF7FEFF 		bl	NVIC_SetVectorTable
  77:src/lib.c     **** 
  78:src/lib.c     ****   // 打开TIM2中断
  79:src/lib.c     ****   NVIC_InitStructure.NVIC_IRQChannel = TIM2_IRQChannel;
 299              		.loc 1 79 0
 300 015c 1C23     		movs	r3, #28
 301 015e 3B71     		strb	r3, [r7, #4]
  80:src/lib.c     ****   NVIC_InitStructure.NVIC_IRQChannelPreemptionPriority = 0;
 302              		.loc 1 80 0
 303 0160 0023     		movs	r3, #0
 304 0162 7B71     		strb	r3, [r7, #5]
  81:src/lib.c     ****   NVIC_InitStructure.NVIC_IRQChannelSubPriority = 0;
 305              		.loc 1 81 0
 306 0164 0023     		movs	r3, #0
 307 0166 BB71     		strb	r3, [r7, #6]
  82:src/lib.c     ****   NVIC_InitStructure.NVIC_IRQChannelCmd = ENABLE;
 308              		.loc 1 82 0
 309 0168 0123     		movs	r3, #1
 310 016a FB71     		strb	r3, [r7, #7]
  83:src/lib.c     ****   NVIC_Init(&NVIC_InitStructure);
 311              		.loc 1 83 0
 312 016c 3B1D     		adds	r3, r7, #4
 313 016e 1846     		mov	r0, r3
 314 0170 FFF7FEFF 		bl	NVIC_Init
  84:src/lib.c     **** }
 315              		.loc 1 84 0
ARM GAS  /tmp/ccURwfKD.s 			page 8


 316 0174 00BF     		nop
 317 0176 0837     		adds	r7, r7, #8
 318              		.cfi_def_cfa_offset 8
 319 0178 BD46     		mov	sp, r7
 320              		.cfi_def_cfa_register 13
 321              		@ sp needed
 322 017a 80BD     		pop	{r7, pc}
 323              		.cfi_endproc
 324              	.LFE67:
 325              		.size	NVIC_Conf, .-NVIC_Conf
 326              	.Letext0:
 327              		.file 2 "/usr/arm-none-eabi/include/machine/_default_types.h"
 328              		.file 3 "/usr/arm-none-eabi/include/sys/_stdint.h"
 329              		.file 4 "include/../include/STM32/../CMSIS/core_cm3.h"
 330              		.file 5 "include/../include/STM32/system_stm32f10x.h"
 331              		.file 6 "include/../include/STM32/stm32f10x.h"
 332              		.file 7 "include/../include/STM32/i2c.h"
 333              		.file 8 "include/../include/STM32/gpio.h"
 334              		.file 9 "include/../include/STM32/misc.h"
 335              		.file 10 "include/../include/MPU6050/mpu6050.h"
 336              		.file 11 "/usr/arm-none-eabi/include/sys/lock.h"
 337              		.file 12 "/usr/arm-none-eabi/include/sys/_types.h"
 338              		.file 13 "/usr/lib/gcc/arm-none-eabi/6.1.1/include/stddef.h"
 339              		.file 14 "/usr/arm-none-eabi/include/sys/reent.h"
 340              		.file 15 "/usr/arm-none-eabi/include/math.h"
 341              		.section	.debug_info,"",%progbits
 342              	.Ldebug_info0:
 343 0000 6E0F0000 		.4byte	0xf6e
 344 0004 0400     		.2byte	0x4
 345 0006 00000000 		.4byte	.Ldebug_abbrev0
 346 000a 04       		.byte	0x4
 347 000b 01       		.uleb128 0x1
 348 000c D5080000 		.4byte	.LASF226
 349 0010 0C       		.byte	0xc
 350 0011 31010000 		.4byte	.LASF227
 351 0015 BA000000 		.4byte	.LASF228
 352 0019 00000000 		.4byte	.Ltext0
 353 001d 7C010000 		.4byte	.Letext0-.Ltext0
 354 0021 00000000 		.4byte	.Ldebug_line0
 355 0025 02       		.uleb128 0x2
 356 0026 01       		.byte	0x1
 357 0027 06       		.byte	0x6
 358 0028 20020000 		.4byte	.LASF0
 359 002c 03       		.uleb128 0x3
 360 002d 27010000 		.4byte	.LASF2
 361 0031 02       		.byte	0x2
 362 0032 1D       		.byte	0x1d
 363 0033 37000000 		.4byte	0x37
 364 0037 02       		.uleb128 0x2
 365 0038 01       		.byte	0x1
 366 0039 08       		.byte	0x8
 367 003a 7B020000 		.4byte	.LASF1
 368 003e 03       		.uleb128 0x3
 369 003f 7B070000 		.4byte	.LASF3
 370 0043 02       		.byte	0x2
 371 0044 29       		.byte	0x29
 372 0045 49000000 		.4byte	0x49
ARM GAS  /tmp/ccURwfKD.s 			page 9


 373 0049 02       		.uleb128 0x2
 374 004a 02       		.byte	0x2
 375 004b 05       		.byte	0x5
 376 004c F9070000 		.4byte	.LASF4
 377 0050 03       		.uleb128 0x3
 378 0051 61030000 		.4byte	.LASF5
 379 0055 02       		.byte	0x2
 380 0056 2B       		.byte	0x2b
 381 0057 5B000000 		.4byte	0x5b
 382 005b 02       		.uleb128 0x2
 383 005c 02       		.byte	0x2
 384 005d 07       		.byte	0x7
 385 005e 3A090000 		.4byte	.LASF6
 386 0062 03       		.uleb128 0x3
 387 0063 7D090000 		.4byte	.LASF7
 388 0067 02       		.byte	0x2
 389 0068 3F       		.byte	0x3f
 390 0069 6D000000 		.4byte	0x6d
 391 006d 02       		.uleb128 0x2
 392 006e 04       		.byte	0x4
 393 006f 05       		.byte	0x5
 394 0070 8B010000 		.4byte	.LASF8
 395 0074 03       		.uleb128 0x3
 396 0075 BB040000 		.4byte	.LASF9
 397 0079 02       		.byte	0x2
 398 007a 41       		.byte	0x41
 399 007b 7F000000 		.4byte	0x7f
 400 007f 02       		.uleb128 0x2
 401 0080 04       		.byte	0x4
 402 0081 07       		.byte	0x7
 403 0082 E9030000 		.4byte	.LASF10
 404 0086 02       		.uleb128 0x2
 405 0087 08       		.byte	0x8
 406 0088 05       		.byte	0x5
 407 0089 D1040000 		.4byte	.LASF11
 408 008d 02       		.uleb128 0x2
 409 008e 08       		.byte	0x8
 410 008f 07       		.byte	0x7
 411 0090 47060000 		.4byte	.LASF12
 412 0094 04       		.uleb128 0x4
 413 0095 04       		.byte	0x4
 414 0096 05       		.byte	0x5
 415 0097 696E7400 		.ascii	"int\000"
 416 009b 02       		.uleb128 0x2
 417 009c 04       		.byte	0x4
 418 009d 07       		.byte	0x7
 419 009e 56050000 		.4byte	.LASF13
 420 00a2 03       		.uleb128 0x3
 421 00a3 2C020000 		.4byte	.LASF14
 422 00a7 03       		.byte	0x3
 423 00a8 18       		.byte	0x18
 424 00a9 2C000000 		.4byte	0x2c
 425 00ad 03       		.uleb128 0x3
 426 00ae 28080000 		.4byte	.LASF15
 427 00b2 03       		.byte	0x3
 428 00b3 20       		.byte	0x20
 429 00b4 3E000000 		.4byte	0x3e
ARM GAS  /tmp/ccURwfKD.s 			page 10


 430 00b8 03       		.uleb128 0x3
 431 00b9 65060000 		.4byte	.LASF16
 432 00bd 03       		.byte	0x3
 433 00be 24       		.byte	0x24
 434 00bf 50000000 		.4byte	0x50
 435 00c3 05       		.uleb128 0x5
 436 00c4 B8000000 		.4byte	0xb8
 437 00c8 03       		.uleb128 0x3
 438 00c9 55000000 		.4byte	.LASF17
 439 00cd 03       		.byte	0x3
 440 00ce 2C       		.byte	0x2c
 441 00cf 62000000 		.4byte	0x62
 442 00d3 05       		.uleb128 0x5
 443 00d4 C8000000 		.4byte	0xc8
 444 00d8 03       		.uleb128 0x3
 445 00d9 BD080000 		.4byte	.LASF18
 446 00dd 03       		.byte	0x3
 447 00de 30       		.byte	0x30
 448 00df 74000000 		.4byte	0x74
 449 00e3 05       		.uleb128 0x5
 450 00e4 D8000000 		.4byte	0xd8
 451 00e8 02       		.uleb128 0x2
 452 00e9 04       		.byte	0x4
 453 00ea 07       		.byte	0x7
 454 00eb 32000000 		.4byte	.LASF19
 455 00ef 06       		.uleb128 0x6
 456 00f0 3D050000 		.4byte	.LASF20
 457 00f4 04       		.byte	0x4
 458 00f5 9606     		.2byte	0x696
 459 00f7 D3000000 		.4byte	0xd3
 460 00fb 07       		.uleb128 0x7
 461 00fc 28040000 		.4byte	.LASF21
 462 0100 05       		.byte	0x5
 463 0101 35       		.byte	0x35
 464 0102 D8000000 		.4byte	0xd8
 465 0106 08       		.uleb128 0x8
 466 0107 753800   		.ascii	"u8\000"
 467 010a 06       		.byte	0x6
 468 010b 8201     		.2byte	0x182
 469 010d A2000000 		.4byte	0xa2
 470 0111 09       		.uleb128 0x9
 471 0112 01       		.byte	0x1
 472 0113 37000000 		.4byte	0x37
 473 0117 06       		.byte	0x6
 474 0118 9201     		.2byte	0x192
 475 011a 2B010000 		.4byte	0x12b
 476 011e 0A       		.uleb128 0xa
 477 011f E8050000 		.4byte	.LASF22
 478 0123 00       		.byte	0
 479 0124 0A       		.uleb128 0xa
 480 0125 39080000 		.4byte	.LASF23
 481 0129 01       		.byte	0x1
 482 012a 00       		.byte	0
 483 012b 0B       		.uleb128 0xb
 484 012c 37060000 		.4byte	.LASF24
 485 0130 06       		.byte	0x6
 486 0131 9201     		.2byte	0x192
ARM GAS  /tmp/ccURwfKD.s 			page 11


 487 0133 11010000 		.4byte	0x111
 488 0137 0C       		.uleb128 0xc
 489 0138 1C       		.byte	0x1c
 490 0139 06       		.byte	0x6
 491 013a 7203     		.2byte	0x372
 492 013c 9C010000 		.4byte	0x19c
 493 0140 0D       		.uleb128 0xd
 494 0141 43524C00 		.ascii	"CRL\000"
 495 0145 06       		.byte	0x6
 496 0146 7403     		.2byte	0x374
 497 0148 E3000000 		.4byte	0xe3
 498 014c 00       		.byte	0
 499 014d 0D       		.uleb128 0xd
 500 014e 43524800 		.ascii	"CRH\000"
 501 0152 06       		.byte	0x6
 502 0153 7503     		.2byte	0x375
 503 0155 E3000000 		.4byte	0xe3
 504 0159 04       		.byte	0x4
 505 015a 0D       		.uleb128 0xd
 506 015b 49445200 		.ascii	"IDR\000"
 507 015f 06       		.byte	0x6
 508 0160 7603     		.2byte	0x376
 509 0162 E3000000 		.4byte	0xe3
 510 0166 08       		.byte	0x8
 511 0167 0D       		.uleb128 0xd
 512 0168 4F445200 		.ascii	"ODR\000"
 513 016c 06       		.byte	0x6
 514 016d 7703     		.2byte	0x377
 515 016f E3000000 		.4byte	0xe3
 516 0173 0C       		.byte	0xc
 517 0174 0E       		.uleb128 0xe
 518 0175 4A080000 		.4byte	.LASF25
 519 0179 06       		.byte	0x6
 520 017a 7803     		.2byte	0x378
 521 017c E3000000 		.4byte	0xe3
 522 0180 10       		.byte	0x10
 523 0181 0D       		.uleb128 0xd
 524 0182 42525200 		.ascii	"BRR\000"
 525 0186 06       		.byte	0x6
 526 0187 7903     		.2byte	0x379
 527 0189 E3000000 		.4byte	0xe3
 528 018d 14       		.byte	0x14
 529 018e 0E       		.uleb128 0xe
 530 018f 75040000 		.4byte	.LASF26
 531 0193 06       		.byte	0x6
 532 0194 7A03     		.2byte	0x37a
 533 0196 E3000000 		.4byte	0xe3
 534 019a 18       		.byte	0x18
 535 019b 00       		.byte	0
 536 019c 0B       		.uleb128 0xb
 537 019d 4F080000 		.4byte	.LASF27
 538 01a1 06       		.byte	0x6
 539 01a2 7B03     		.2byte	0x37b
 540 01a4 37010000 		.4byte	0x137
 541 01a8 0C       		.uleb128 0xc
 542 01a9 24       		.byte	0x24
 543 01aa 06       		.byte	0x6
ARM GAS  /tmp/ccURwfKD.s 			page 12


 544 01ab 8D03     		.2byte	0x38d
 545 01ad 9B020000 		.4byte	0x29b
 546 01b1 0D       		.uleb128 0xd
 547 01b2 43523100 		.ascii	"CR1\000"
 548 01b6 06       		.byte	0x6
 549 01b7 8F03     		.2byte	0x38f
 550 01b9 C3000000 		.4byte	0xc3
 551 01bd 00       		.byte	0
 552 01be 0E       		.uleb128 0xe
 553 01bf 67020000 		.4byte	.LASF28
 554 01c3 06       		.byte	0x6
 555 01c4 9003     		.2byte	0x390
 556 01c6 B8000000 		.4byte	0xb8
 557 01ca 02       		.byte	0x2
 558 01cb 0D       		.uleb128 0xd
 559 01cc 43523200 		.ascii	"CR2\000"
 560 01d0 06       		.byte	0x6
 561 01d1 9103     		.2byte	0x391
 562 01d3 C3000000 		.4byte	0xc3
 563 01d7 04       		.byte	0x4
 564 01d8 0E       		.uleb128 0xe
 565 01d9 71020000 		.4byte	.LASF29
 566 01dd 06       		.byte	0x6
 567 01de 9203     		.2byte	0x392
 568 01e0 B8000000 		.4byte	0xb8
 569 01e4 06       		.byte	0x6
 570 01e5 0E       		.uleb128 0xe
 571 01e6 A8070000 		.4byte	.LASF30
 572 01ea 06       		.byte	0x6
 573 01eb 9303     		.2byte	0x393
 574 01ed C3000000 		.4byte	0xc3
 575 01f1 08       		.byte	0x8
 576 01f2 0E       		.uleb128 0xe
 577 01f3 02030000 		.4byte	.LASF31
 578 01f7 06       		.byte	0x6
 579 01f8 9403     		.2byte	0x394
 580 01fa B8000000 		.4byte	0xb8
 581 01fe 0A       		.byte	0xa
 582 01ff 0E       		.uleb128 0xe
 583 0200 AD070000 		.4byte	.LASF32
 584 0204 06       		.byte	0x6
 585 0205 9503     		.2byte	0x395
 586 0207 C3000000 		.4byte	0xc3
 587 020b 0C       		.byte	0xc
 588 020c 0E       		.uleb128 0xe
 589 020d 89020000 		.4byte	.LASF33
 590 0211 06       		.byte	0x6
 591 0212 9603     		.2byte	0x396
 592 0214 B8000000 		.4byte	0xb8
 593 0218 0E       		.byte	0xe
 594 0219 0D       		.uleb128 0xd
 595 021a 445200   		.ascii	"DR\000"
 596 021d 06       		.byte	0x6
 597 021e 9703     		.2byte	0x397
 598 0220 C3000000 		.4byte	0xc3
 599 0224 10       		.byte	0x10
 600 0225 0E       		.uleb128 0xe
ARM GAS  /tmp/ccURwfKD.s 			page 13


 601 0226 93020000 		.4byte	.LASF34
 602 022a 06       		.byte	0x6
 603 022b 9803     		.2byte	0x398
 604 022d B8000000 		.4byte	0xb8
 605 0231 12       		.byte	0x12
 606 0232 0D       		.uleb128 0xd
 607 0233 53523100 		.ascii	"SR1\000"
 608 0237 06       		.byte	0x6
 609 0238 9903     		.2byte	0x399
 610 023a C3000000 		.4byte	0xc3
 611 023e 14       		.byte	0x14
 612 023f 0E       		.uleb128 0xe
 613 0240 9D020000 		.4byte	.LASF35
 614 0244 06       		.byte	0x6
 615 0245 9A03     		.2byte	0x39a
 616 0247 B8000000 		.4byte	0xb8
 617 024b 16       		.byte	0x16
 618 024c 0D       		.uleb128 0xd
 619 024d 53523200 		.ascii	"SR2\000"
 620 0251 06       		.byte	0x6
 621 0252 9B03     		.2byte	0x39b
 622 0254 C3000000 		.4byte	0xc3
 623 0258 18       		.byte	0x18
 624 0259 0E       		.uleb128 0xe
 625 025a A7020000 		.4byte	.LASF36
 626 025e 06       		.byte	0x6
 627 025f 9C03     		.2byte	0x39c
 628 0261 B8000000 		.4byte	0xb8
 629 0265 1A       		.byte	0x1a
 630 0266 0D       		.uleb128 0xd
 631 0267 43435200 		.ascii	"CCR\000"
 632 026b 06       		.byte	0x6
 633 026c 9D03     		.2byte	0x39d
 634 026e C3000000 		.4byte	0xc3
 635 0272 1C       		.byte	0x1c
 636 0273 0E       		.uleb128 0xe
 637 0274 B1020000 		.4byte	.LASF37
 638 0278 06       		.byte	0x6
 639 0279 9E03     		.2byte	0x39e
 640 027b B8000000 		.4byte	0xb8
 641 027f 1E       		.byte	0x1e
 642 0280 0E       		.uleb128 0xe
 643 0281 51040000 		.4byte	.LASF38
 644 0285 06       		.byte	0x6
 645 0286 9F03     		.2byte	0x39f
 646 0288 C3000000 		.4byte	0xc3
 647 028c 20       		.byte	0x20
 648 028d 0E       		.uleb128 0xe
 649 028e BB020000 		.4byte	.LASF39
 650 0292 06       		.byte	0x6
 651 0293 A003     		.2byte	0x3a0
 652 0295 B8000000 		.4byte	0xb8
 653 0299 22       		.byte	0x22
 654 029a 00       		.byte	0
 655 029b 0B       		.uleb128 0xb
 656 029c 34070000 		.4byte	.LASF40
 657 02a0 06       		.byte	0x6
ARM GAS  /tmp/ccURwfKD.s 			page 14


 658 02a1 A103     		.2byte	0x3a1
 659 02a3 A8010000 		.4byte	0x1a8
 660 02a7 0C       		.uleb128 0xc
 661 02a8 50       		.byte	0x50
 662 02a9 06       		.byte	0x6
 663 02aa 2B04     		.2byte	0x42b
 664 02ac B8040000 		.4byte	0x4b8
 665 02b0 0D       		.uleb128 0xd
 666 02b1 43523100 		.ascii	"CR1\000"
 667 02b5 06       		.byte	0x6
 668 02b6 2D04     		.2byte	0x42d
 669 02b8 C3000000 		.4byte	0xc3
 670 02bc 00       		.byte	0
 671 02bd 0E       		.uleb128 0xe
 672 02be 67020000 		.4byte	.LASF28
 673 02c2 06       		.byte	0x6
 674 02c3 2E04     		.2byte	0x42e
 675 02c5 B8000000 		.4byte	0xb8
 676 02c9 02       		.byte	0x2
 677 02ca 0D       		.uleb128 0xd
 678 02cb 43523200 		.ascii	"CR2\000"
 679 02cf 06       		.byte	0x6
 680 02d0 2F04     		.2byte	0x42f
 681 02d2 C3000000 		.4byte	0xc3
 682 02d6 04       		.byte	0x4
 683 02d7 0E       		.uleb128 0xe
 684 02d8 71020000 		.4byte	.LASF29
 685 02dc 06       		.byte	0x6
 686 02dd 3004     		.2byte	0x430
 687 02df B8000000 		.4byte	0xb8
 688 02e3 06       		.byte	0x6
 689 02e4 0E       		.uleb128 0xe
 690 02e5 4F070000 		.4byte	.LASF41
 691 02e9 06       		.byte	0x6
 692 02ea 3104     		.2byte	0x431
 693 02ec C3000000 		.4byte	0xc3
 694 02f0 08       		.byte	0x8
 695 02f1 0E       		.uleb128 0xe
 696 02f2 02030000 		.4byte	.LASF31
 697 02f6 06       		.byte	0x6
 698 02f7 3204     		.2byte	0x432
 699 02f9 B8000000 		.4byte	0xb8
 700 02fd 0A       		.byte	0xa
 701 02fe 0E       		.uleb128 0xe
 702 02ff 1B040000 		.4byte	.LASF42
 703 0303 06       		.byte	0x6
 704 0304 3304     		.2byte	0x433
 705 0306 C3000000 		.4byte	0xc3
 706 030a 0C       		.byte	0xc
 707 030b 0E       		.uleb128 0xe
 708 030c 89020000 		.4byte	.LASF33
 709 0310 06       		.byte	0x6
 710 0311 3404     		.2byte	0x434
 711 0313 B8000000 		.4byte	0xb8
 712 0317 0E       		.byte	0xe
 713 0318 0D       		.uleb128 0xd
 714 0319 535200   		.ascii	"SR\000"
ARM GAS  /tmp/ccURwfKD.s 			page 15


 715 031c 06       		.byte	0x6
 716 031d 3504     		.2byte	0x435
 717 031f C3000000 		.4byte	0xc3
 718 0323 10       		.byte	0x10
 719 0324 0E       		.uleb128 0xe
 720 0325 93020000 		.4byte	.LASF34
 721 0329 06       		.byte	0x6
 722 032a 3604     		.2byte	0x436
 723 032c B8000000 		.4byte	0xb8
 724 0330 12       		.byte	0x12
 725 0331 0D       		.uleb128 0xd
 726 0332 45475200 		.ascii	"EGR\000"
 727 0336 06       		.byte	0x6
 728 0337 3704     		.2byte	0x437
 729 0339 C3000000 		.4byte	0xc3
 730 033d 14       		.byte	0x14
 731 033e 0E       		.uleb128 0xe
 732 033f 9D020000 		.4byte	.LASF35
 733 0343 06       		.byte	0x6
 734 0344 3804     		.2byte	0x438
 735 0346 B8000000 		.4byte	0xb8
 736 034a 16       		.byte	0x16
 737 034b 0E       		.uleb128 0xe
 738 034c 0C030000 		.4byte	.LASF43
 739 0350 06       		.byte	0x6
 740 0351 3904     		.2byte	0x439
 741 0353 C3000000 		.4byte	0xc3
 742 0357 18       		.byte	0x18
 743 0358 0E       		.uleb128 0xe
 744 0359 A7020000 		.4byte	.LASF36
 745 035d 06       		.byte	0x6
 746 035e 3A04     		.2byte	0x43a
 747 0360 B8000000 		.4byte	0xb8
 748 0364 1A       		.byte	0x1a
 749 0365 0E       		.uleb128 0xe
 750 0366 12030000 		.4byte	.LASF44
 751 036a 06       		.byte	0x6
 752 036b 3B04     		.2byte	0x43b
 753 036d C3000000 		.4byte	0xc3
 754 0371 1C       		.byte	0x1c
 755 0372 0E       		.uleb128 0xe
 756 0373 B1020000 		.4byte	.LASF37
 757 0377 06       		.byte	0x6
 758 0378 3C04     		.2byte	0x43c
 759 037a B8000000 		.4byte	0xb8
 760 037e 1E       		.byte	0x1e
 761 037f 0E       		.uleb128 0xe
 762 0380 8D060000 		.4byte	.LASF45
 763 0384 06       		.byte	0x6
 764 0385 3D04     		.2byte	0x43d
 765 0387 C3000000 		.4byte	0xc3
 766 038b 20       		.byte	0x20
 767 038c 0E       		.uleb128 0xe
 768 038d BB020000 		.4byte	.LASF39
 769 0391 06       		.byte	0x6
 770 0392 3E04     		.2byte	0x43e
 771 0394 B8000000 		.4byte	0xb8
ARM GAS  /tmp/ccURwfKD.s 			page 16


 772 0398 22       		.byte	0x22
 773 0399 0D       		.uleb128 0xd
 774 039a 434E5400 		.ascii	"CNT\000"
 775 039e 06       		.byte	0x6
 776 039f 3F04     		.2byte	0x43f
 777 03a1 C3000000 		.4byte	0xc3
 778 03a5 24       		.byte	0x24
 779 03a6 0E       		.uleb128 0xe
 780 03a7 C5020000 		.4byte	.LASF46
 781 03ab 06       		.byte	0x6
 782 03ac 4004     		.2byte	0x440
 783 03ae B8000000 		.4byte	0xb8
 784 03b2 26       		.byte	0x26
 785 03b3 0D       		.uleb128 0xd
 786 03b4 50534300 		.ascii	"PSC\000"
 787 03b8 06       		.byte	0x6
 788 03b9 4104     		.2byte	0x441
 789 03bb C3000000 		.4byte	0xc3
 790 03bf 28       		.byte	0x28
 791 03c0 0E       		.uleb128 0xe
 792 03c1 82060000 		.4byte	.LASF47
 793 03c5 06       		.byte	0x6
 794 03c6 4204     		.2byte	0x442
 795 03c8 B8000000 		.4byte	0xb8
 796 03cc 2A       		.byte	0x2a
 797 03cd 0D       		.uleb128 0xd
 798 03ce 41525200 		.ascii	"ARR\000"
 799 03d2 06       		.byte	0x6
 800 03d3 4304     		.2byte	0x443
 801 03d5 C3000000 		.4byte	0xc3
 802 03d9 2C       		.byte	0x2c
 803 03da 0E       		.uleb128 0xe
 804 03db 61090000 		.4byte	.LASF48
 805 03df 06       		.byte	0x6
 806 03e0 4404     		.2byte	0x444
 807 03e2 B8000000 		.4byte	0xb8
 808 03e6 2E       		.byte	0x2e
 809 03e7 0D       		.uleb128 0xd
 810 03e8 52435200 		.ascii	"RCR\000"
 811 03ec 06       		.byte	0x6
 812 03ed 4504     		.2byte	0x445
 813 03ef C3000000 		.4byte	0xc3
 814 03f3 30       		.byte	0x30
 815 03f4 0E       		.uleb128 0xe
 816 03f5 92060000 		.4byte	.LASF49
 817 03f9 06       		.byte	0x6
 818 03fa 4604     		.2byte	0x446
 819 03fc B8000000 		.4byte	0xb8
 820 0400 32       		.byte	0x32
 821 0401 0E       		.uleb128 0xe
 822 0402 13010000 		.4byte	.LASF50
 823 0406 06       		.byte	0x6
 824 0407 4704     		.2byte	0x447
 825 0409 C3000000 		.4byte	0xc3
 826 040d 34       		.byte	0x34
 827 040e 0E       		.uleb128 0xe
 828 040f 9D060000 		.4byte	.LASF51
ARM GAS  /tmp/ccURwfKD.s 			page 17


 829 0413 06       		.byte	0x6
 830 0414 4804     		.2byte	0x448
 831 0416 B8000000 		.4byte	0xb8
 832 041a 36       		.byte	0x36
 833 041b 0E       		.uleb128 0xe
 834 041c 18010000 		.4byte	.LASF52
 835 0420 06       		.byte	0x6
 836 0421 4904     		.2byte	0x449
 837 0423 C3000000 		.4byte	0xc3
 838 0427 38       		.byte	0x38
 839 0428 0E       		.uleb128 0xe
 840 0429 A8060000 		.4byte	.LASF53
 841 042d 06       		.byte	0x6
 842 042e 4A04     		.2byte	0x44a
 843 0430 B8000000 		.4byte	0xb8
 844 0434 3A       		.byte	0x3a
 845 0435 0E       		.uleb128 0xe
 846 0436 1D010000 		.4byte	.LASF54
 847 043a 06       		.byte	0x6
 848 043b 4B04     		.2byte	0x44b
 849 043d C3000000 		.4byte	0xc3
 850 0441 3C       		.byte	0x3c
 851 0442 0E       		.uleb128 0xe
 852 0443 B3060000 		.4byte	.LASF55
 853 0447 06       		.byte	0x6
 854 0448 4C04     		.2byte	0x44c
 855 044a B8000000 		.4byte	0xb8
 856 044e 3E       		.byte	0x3e
 857 044f 0E       		.uleb128 0xe
 858 0450 22010000 		.4byte	.LASF56
 859 0454 06       		.byte	0x6
 860 0455 4D04     		.2byte	0x44d
 861 0457 C3000000 		.4byte	0xc3
 862 045b 40       		.byte	0x40
 863 045c 0E       		.uleb128 0xe
 864 045d BE060000 		.4byte	.LASF57
 865 0461 06       		.byte	0x6
 866 0462 4E04     		.2byte	0x44e
 867 0464 B8000000 		.4byte	0xb8
 868 0468 42       		.byte	0x42
 869 0469 0E       		.uleb128 0xe
 870 046a B8080000 		.4byte	.LASF58
 871 046e 06       		.byte	0x6
 872 046f 4F04     		.2byte	0x44f
 873 0471 C3000000 		.4byte	0xc3
 874 0475 44       		.byte	0x44
 875 0476 0E       		.uleb128 0xe
 876 0477 C9060000 		.4byte	.LASF59
 877 047b 06       		.byte	0x6
 878 047c 5004     		.2byte	0x450
 879 047e B8000000 		.4byte	0xb8
 880 0482 46       		.byte	0x46
 881 0483 0D       		.uleb128 0xd
 882 0484 44435200 		.ascii	"DCR\000"
 883 0488 06       		.byte	0x6
 884 0489 5104     		.2byte	0x451
 885 048b C3000000 		.4byte	0xc3
ARM GAS  /tmp/ccURwfKD.s 			page 18


 886 048f 48       		.byte	0x48
 887 0490 0E       		.uleb128 0xe
 888 0491 D4060000 		.4byte	.LASF60
 889 0495 06       		.byte	0x6
 890 0496 5204     		.2byte	0x452
 891 0498 B8000000 		.4byte	0xb8
 892 049c 4A       		.byte	0x4a
 893 049d 0E       		.uleb128 0xe
 894 049e FB000000 		.4byte	.LASF61
 895 04a2 06       		.byte	0x6
 896 04a3 5304     		.2byte	0x453
 897 04a5 C3000000 		.4byte	0xc3
 898 04a9 4C       		.byte	0x4c
 899 04aa 0E       		.uleb128 0xe
 900 04ab DF060000 		.4byte	.LASF62
 901 04af 06       		.byte	0x6
 902 04b0 5404     		.2byte	0x454
 903 04b2 B8000000 		.4byte	0xb8
 904 04b6 4E       		.byte	0x4e
 905 04b7 00       		.byte	0
 906 04b8 0B       		.uleb128 0xb
 907 04b9 5B020000 		.4byte	.LASF63
 908 04bd 06       		.byte	0x6
 909 04be 5504     		.2byte	0x455
 910 04c0 A7020000 		.4byte	0x2a7
 911 04c4 0F       		.uleb128 0xf
 912 04c5 10       		.byte	0x10
 913 04c6 07       		.byte	0x7
 914 04c7 32       		.byte	0x32
 915 04c8 15050000 		.4byte	0x515
 916 04cc 10       		.uleb128 0x10
 917 04cd 9B080000 		.4byte	.LASF64
 918 04d1 07       		.byte	0x7
 919 04d2 34       		.byte	0x34
 920 04d3 D8000000 		.4byte	0xd8
 921 04d7 00       		.byte	0
 922 04d8 10       		.uleb128 0x10
 923 04d9 EC000000 		.4byte	.LASF65
 924 04dd 07       		.byte	0x7
 925 04de 37       		.byte	0x37
 926 04df B8000000 		.4byte	0xb8
 927 04e3 04       		.byte	0x4
 928 04e4 10       		.uleb128 0x10
 929 04e5 34020000 		.4byte	.LASF66
 930 04e9 07       		.byte	0x7
 931 04ea 3A       		.byte	0x3a
 932 04eb B8000000 		.4byte	0xb8
 933 04ef 06       		.byte	0x6
 934 04f0 10       		.uleb128 0x10
 935 04f1 82040000 		.4byte	.LASF67
 936 04f5 07       		.byte	0x7
 937 04f6 3D       		.byte	0x3d
 938 04f7 B8000000 		.4byte	0xb8
 939 04fb 08       		.byte	0x8
 940 04fc 10       		.uleb128 0x10
 941 04fd 1A060000 		.4byte	.LASF68
 942 0501 07       		.byte	0x7
ARM GAS  /tmp/ccURwfKD.s 			page 19


 943 0502 40       		.byte	0x40
 944 0503 B8000000 		.4byte	0xb8
 945 0507 0A       		.byte	0xa
 946 0508 10       		.uleb128 0x10
 947 0509 FB030000 		.4byte	.LASF69
 948 050d 07       		.byte	0x7
 949 050e 43       		.byte	0x43
 950 050f B8000000 		.4byte	0xb8
 951 0513 0C       		.byte	0xc
 952 0514 00       		.byte	0
 953 0515 03       		.uleb128 0x3
 954 0516 9D030000 		.4byte	.LASF70
 955 051a 07       		.byte	0x7
 956 051b 45       		.byte	0x45
 957 051c C4040000 		.4byte	0x4c4
 958 0520 11       		.uleb128 0x11
 959 0521 01       		.byte	0x1
 960 0522 37000000 		.4byte	0x37
 961 0526 08       		.byte	0x8
 962 0527 3B       		.byte	0x3b
 963 0528 3F050000 		.4byte	0x53f
 964 052c 0A       		.uleb128 0xa
 965 052d 18090000 		.4byte	.LASF71
 966 0531 01       		.byte	0x1
 967 0532 0A       		.uleb128 0xa
 968 0533 B2070000 		.4byte	.LASF72
 969 0537 02       		.byte	0x2
 970 0538 0A       		.uleb128 0xa
 971 0539 73030000 		.4byte	.LASF73
 972 053d 03       		.byte	0x3
 973 053e 00       		.byte	0
 974 053f 03       		.uleb128 0x3
 975 0540 C2070000 		.4byte	.LASF74
 976 0544 08       		.byte	0x8
 977 0545 3F       		.byte	0x3f
 978 0546 20050000 		.4byte	0x520
 979 054a 11       		.uleb128 0x11
 980 054b 01       		.byte	0x1
 981 054c 37000000 		.4byte	0x37
 982 0550 08       		.byte	0x8
 983 0551 48       		.byte	0x48
 984 0552 87050000 		.4byte	0x587
 985 0556 0A       		.uleb128 0xa
 986 0557 C2010000 		.4byte	.LASF75
 987 055b 00       		.byte	0
 988 055c 0A       		.uleb128 0xa
 989 055d 12080000 		.4byte	.LASF76
 990 0561 04       		.byte	0x4
 991 0562 0A       		.uleb128 0xa
 992 0563 B0090000 		.4byte	.LASF77
 993 0567 28       		.byte	0x28
 994 0568 0A       		.uleb128 0xa
 995 0569 0A000000 		.4byte	.LASF78
 996 056d 48       		.byte	0x48
 997 056e 0A       		.uleb128 0xa
 998 056f 50030000 		.4byte	.LASF79
 999 0573 14       		.byte	0x14
ARM GAS  /tmp/ccURwfKD.s 			page 20


 1000 0574 0A       		.uleb128 0xa
 1001 0575 8C030000 		.4byte	.LASF80
 1002 0579 10       		.byte	0x10
 1003 057a 0A       		.uleb128 0xa
 1004 057b F1010000 		.4byte	.LASF81
 1005 057f 1C       		.byte	0x1c
 1006 0580 0A       		.uleb128 0xa
 1007 0581 CF020000 		.4byte	.LASF82
 1008 0585 18       		.byte	0x18
 1009 0586 00       		.byte	0
 1010 0587 03       		.uleb128 0x3
 1011 0588 6A070000 		.4byte	.LASF83
 1012 058c 08       		.byte	0x8
 1013 058d 50       		.byte	0x50
 1014 058e 4A050000 		.4byte	0x54a
 1015 0592 0F       		.uleb128 0xf
 1016 0593 04       		.byte	0x4
 1017 0594 08       		.byte	0x8
 1018 0595 5B       		.byte	0x5b
 1019 0596 BF050000 		.4byte	0x5bf
 1020 059a 10       		.uleb128 0x10
 1021 059b D4070000 		.4byte	.LASF84
 1022 059f 08       		.byte	0x8
 1023 05a0 5D       		.byte	0x5d
 1024 05a1 B8000000 		.4byte	0xb8
 1025 05a5 00       		.byte	0
 1026 05a6 10       		.uleb128 0x10
 1027 05a7 4F010000 		.4byte	.LASF85
 1028 05ab 08       		.byte	0x8
 1029 05ac 60       		.byte	0x60
 1030 05ad 3F050000 		.4byte	0x53f
 1031 05b1 02       		.byte	0x2
 1032 05b2 10       		.uleb128 0x10
 1033 05b3 1D070000 		.4byte	.LASF86
 1034 05b7 08       		.byte	0x8
 1035 05b8 63       		.byte	0x63
 1036 05b9 87050000 		.4byte	0x587
 1037 05bd 03       		.byte	0x3
 1038 05be 00       		.byte	0
 1039 05bf 03       		.uleb128 0x3
 1040 05c0 42020000 		.4byte	.LASF87
 1041 05c4 08       		.byte	0x8
 1042 05c5 65       		.byte	0x65
 1043 05c6 92050000 		.4byte	0x592
 1044 05ca 0F       		.uleb128 0xf
 1045 05cb 04       		.byte	0x4
 1046 05cc 09       		.byte	0x9
 1047 05cd 08       		.byte	0x8
 1048 05ce 03060000 		.4byte	0x603
 1049 05d2 10       		.uleb128 0x10
 1050 05d3 18000000 		.4byte	.LASF88
 1051 05d7 09       		.byte	0x9
 1052 05d8 0A       		.byte	0xa
 1053 05d9 A2000000 		.4byte	0xa2
 1054 05dd 00       		.byte	0
 1055 05de 10       		.uleb128 0x10
 1056 05df 2E030000 		.4byte	.LASF89
ARM GAS  /tmp/ccURwfKD.s 			page 21


 1057 05e3 09       		.byte	0x9
 1058 05e4 0F       		.byte	0xf
 1059 05e5 A2000000 		.4byte	0xa2
 1060 05e9 01       		.byte	0x1
 1061 05ea 10       		.uleb128 0x10
 1062 05eb CD050000 		.4byte	.LASF90
 1063 05ef 09       		.byte	0x9
 1064 05f0 13       		.byte	0x13
 1065 05f1 A2000000 		.4byte	0xa2
 1066 05f5 02       		.byte	0x2
 1067 05f6 10       		.uleb128 0x10
 1068 05f7 5A010000 		.4byte	.LASF91
 1069 05fb 09       		.byte	0x9
 1070 05fc 17       		.byte	0x17
 1071 05fd 2B010000 		.4byte	0x12b
 1072 0601 03       		.byte	0x3
 1073 0602 00       		.byte	0
 1074 0603 03       		.uleb128 0x3
 1075 0604 29090000 		.4byte	.LASF92
 1076 0608 09       		.byte	0x9
 1077 0609 1A       		.byte	0x1a
 1078 060a CA050000 		.4byte	0x5ca
 1079 060e 12       		.uleb128 0x12
 1080 060f 13       		.uleb128 0x13
 1081 0610 04       		.byte	0x4
 1082 0611 0E060000 		.4byte	0x60e
 1083 0615 14       		.uleb128 0x14
 1084 0616 49000000 		.4byte	0x49
 1085 061a 25060000 		.4byte	0x625
 1086 061e 15       		.uleb128 0x15
 1087 061f E8000000 		.4byte	0xe8
 1088 0623 02       		.byte	0x2
 1089 0624 00       		.byte	0
 1090 0625 06       		.uleb128 0x6
 1091 0626 22030000 		.4byte	.LASF93
 1092 062a 0A       		.byte	0xa
 1093 062b 6301     		.2byte	0x163
 1094 062d 15060000 		.4byte	0x615
 1095 0631 06       		.uleb128 0x6
 1096 0632 65080000 		.4byte	.LASF94
 1097 0636 0A       		.byte	0xa
 1098 0637 6301     		.2byte	0x163
 1099 0639 15060000 		.4byte	0x615
 1100 063d 06       		.uleb128 0x6
 1101 063e 75080000 		.4byte	.LASF95
 1102 0642 0A       		.byte	0xa
 1103 0643 6401     		.2byte	0x164
 1104 0645 AD000000 		.4byte	0xad
 1105 0649 06       		.uleb128 0x6
 1106 064a E6040000 		.4byte	.LASF96
 1107 064e 0A       		.byte	0xa
 1108 064f 6401     		.2byte	0x164
 1109 0651 AD000000 		.4byte	0xad
 1110 0655 06       		.uleb128 0x6
 1111 0656 73010000 		.4byte	.LASF97
 1112 065a 0A       		.byte	0xa
 1113 065b 6401     		.2byte	0x164
ARM GAS  /tmp/ccURwfKD.s 			page 22


 1114 065d AD000000 		.4byte	0xad
 1115 0661 06       		.uleb128 0x6
 1116 0662 57040000 		.4byte	.LASF98
 1117 0666 0A       		.byte	0xa
 1118 0667 6501     		.2byte	0x165
 1119 0669 6D060000 		.4byte	0x66d
 1120 066d 02       		.uleb128 0x2
 1121 066e 04       		.byte	0x4
 1122 066f 04       		.byte	0x4
 1123 0670 50050000 		.4byte	.LASF99
 1124 0674 06       		.uleb128 0x6
 1125 0675 AA080000 		.4byte	.LASF100
 1126 0679 0A       		.byte	0xa
 1127 067a 6601     		.2byte	0x166
 1128 067c 6D060000 		.4byte	0x66d
 1129 0680 06       		.uleb128 0x6
 1130 0681 64040000 		.4byte	.LASF101
 1131 0685 0A       		.byte	0xa
 1132 0686 6601     		.2byte	0x166
 1133 0688 6D060000 		.4byte	0x66d
 1134 068c 16       		.uleb128 0x16
 1135 068d 59617700 		.ascii	"Yaw\000"
 1136 0691 0A       		.byte	0xa
 1137 0692 6601     		.2byte	0x166
 1138 0694 6D060000 		.4byte	0x66d
 1139 0698 02       		.uleb128 0x2
 1140 0699 08       		.byte	0x8
 1141 069a 04       		.byte	0x4
 1142 069b F0050000 		.4byte	.LASF102
 1143 069f 17       		.uleb128 0x17
 1144 06a0 04       		.byte	0x4
 1145 06a1 03       		.uleb128 0x3
 1146 06a2 38040000 		.4byte	.LASF103
 1147 06a6 0B       		.byte	0xb
 1148 06a7 07       		.byte	0x7
 1149 06a8 94000000 		.4byte	0x94
 1150 06ac 03       		.uleb128 0x3
 1151 06ad CE080000 		.4byte	.LASF104
 1152 06b1 0C       		.byte	0xc
 1153 06b2 2C       		.byte	0x2c
 1154 06b3 6D000000 		.4byte	0x6d
 1155 06b7 03       		.uleb128 0x3
 1156 06b8 12060000 		.4byte	.LASF105
 1157 06bc 0C       		.byte	0xc
 1158 06bd 72       		.byte	0x72
 1159 06be 6D000000 		.4byte	0x6d
 1160 06c2 0B       		.uleb128 0xb
 1161 06c3 95070000 		.4byte	.LASF106
 1162 06c7 0D       		.byte	0xd
 1163 06c8 6501     		.2byte	0x165
 1164 06ca 9B000000 		.4byte	0x9b
 1165 06ce 18       		.uleb128 0x18
 1166 06cf 04       		.byte	0x4
 1167 06d0 0C       		.byte	0xc
 1168 06d1 A6       		.byte	0xa6
 1169 06d2 ED060000 		.4byte	0x6ed
 1170 06d6 19       		.uleb128 0x19
ARM GAS  /tmp/ccURwfKD.s 			page 23


 1171 06d7 6D010000 		.4byte	.LASF107
 1172 06db 0C       		.byte	0xc
 1173 06dc A8       		.byte	0xa8
 1174 06dd C2060000 		.4byte	0x6c2
 1175 06e1 19       		.uleb128 0x19
 1176 06e2 22060000 		.4byte	.LASF108
 1177 06e6 0C       		.byte	0xc
 1178 06e7 A9       		.byte	0xa9
 1179 06e8 ED060000 		.4byte	0x6ed
 1180 06ec 00       		.byte	0
 1181 06ed 14       		.uleb128 0x14
 1182 06ee 37000000 		.4byte	0x37
 1183 06f2 FD060000 		.4byte	0x6fd
 1184 06f6 15       		.uleb128 0x15
 1185 06f7 E8000000 		.4byte	0xe8
 1186 06fb 03       		.byte	0x3
 1187 06fc 00       		.byte	0
 1188 06fd 0F       		.uleb128 0xf
 1189 06fe 08       		.byte	0x8
 1190 06ff 0C       		.byte	0xc
 1191 0700 A3       		.byte	0xa3
 1192 0701 1E070000 		.4byte	0x71e
 1193 0705 10       		.uleb128 0x10
 1194 0706 C5050000 		.4byte	.LASF109
 1195 070a 0C       		.byte	0xc
 1196 070b A5       		.byte	0xa5
 1197 070c 94000000 		.4byte	0x94
 1198 0710 00       		.byte	0
 1199 0711 10       		.uleb128 0x10
 1200 0712 3B000000 		.4byte	.LASF110
 1201 0716 0C       		.byte	0xc
 1202 0717 AA       		.byte	0xaa
 1203 0718 CE060000 		.4byte	0x6ce
 1204 071c 04       		.byte	0x4
 1205 071d 00       		.byte	0
 1206 071e 03       		.uleb128 0x3
 1207 071f 85070000 		.4byte	.LASF111
 1208 0723 0C       		.byte	0xc
 1209 0724 AB       		.byte	0xab
 1210 0725 FD060000 		.4byte	0x6fd
 1211 0729 03       		.uleb128 0x3
 1212 072a DF010000 		.4byte	.LASF112
 1213 072e 0C       		.byte	0xc
 1214 072f AF       		.byte	0xaf
 1215 0730 A1060000 		.4byte	0x6a1
 1216 0734 03       		.uleb128 0x3
 1217 0735 B0080000 		.4byte	.LASF113
 1218 0739 0E       		.byte	0xe
 1219 073a 16       		.byte	0x16
 1220 073b 7F000000 		.4byte	0x7f
 1221 073f 1A       		.uleb128 0x1a
 1222 0740 7A040000 		.4byte	.LASF118
 1223 0744 18       		.byte	0x18
 1224 0745 0E       		.byte	0xe
 1225 0746 2D       		.byte	0x2d
 1226 0747 92070000 		.4byte	0x792
 1227 074b 10       		.uleb128 0x10
ARM GAS  /tmp/ccURwfKD.s 			page 24


 1228 074c 9C070000 		.4byte	.LASF114
 1229 0750 0E       		.byte	0xe
 1230 0751 2F       		.byte	0x2f
 1231 0752 92070000 		.4byte	0x792
 1232 0756 00       		.byte	0
 1233 0757 1B       		.uleb128 0x1b
 1234 0758 5F6B00   		.ascii	"_k\000"
 1235 075b 0E       		.byte	0xe
 1236 075c 30       		.byte	0x30
 1237 075d 94000000 		.4byte	0x94
 1238 0761 04       		.byte	0x4
 1239 0762 10       		.uleb128 0x10
 1240 0763 92040000 		.4byte	.LASF115
 1241 0767 0E       		.byte	0xe
 1242 0768 30       		.byte	0x30
 1243 0769 94000000 		.4byte	0x94
 1244 076d 08       		.byte	0x8
 1245 076e 10       		.uleb128 0x10
 1246 076f 4A050000 		.4byte	.LASF116
 1247 0773 0E       		.byte	0xe
 1248 0774 30       		.byte	0x30
 1249 0775 94000000 		.4byte	0x94
 1250 0779 0C       		.byte	0xc
 1251 077a 10       		.uleb128 0x10
 1252 077b B5030000 		.4byte	.LASF117
 1253 077f 0E       		.byte	0xe
 1254 0780 30       		.byte	0x30
 1255 0781 94000000 		.4byte	0x94
 1256 0785 10       		.byte	0x10
 1257 0786 1B       		.uleb128 0x1b
 1258 0787 5F7800   		.ascii	"_x\000"
 1259 078a 0E       		.byte	0xe
 1260 078b 31       		.byte	0x31
 1261 078c 98070000 		.4byte	0x798
 1262 0790 14       		.byte	0x14
 1263 0791 00       		.byte	0
 1264 0792 13       		.uleb128 0x13
 1265 0793 04       		.byte	0x4
 1266 0794 3F070000 		.4byte	0x73f
 1267 0798 14       		.uleb128 0x14
 1268 0799 34070000 		.4byte	0x734
 1269 079d A8070000 		.4byte	0x7a8
 1270 07a1 15       		.uleb128 0x15
 1271 07a2 E8000000 		.4byte	0xe8
 1272 07a6 00       		.byte	0
 1273 07a7 00       		.byte	0
 1274 07a8 1A       		.uleb128 0x1a
 1275 07a9 7A000000 		.4byte	.LASF119
 1276 07ad 24       		.byte	0x24
 1277 07ae 0E       		.byte	0xe
 1278 07af 35       		.byte	0x35
 1279 07b0 21080000 		.4byte	0x821
 1280 07b4 10       		.uleb128 0x10
 1281 07b5 96000000 		.4byte	.LASF120
 1282 07b9 0E       		.byte	0xe
 1283 07ba 37       		.byte	0x37
 1284 07bb 94000000 		.4byte	0x94
ARM GAS  /tmp/ccURwfKD.s 			page 25


 1285 07bf 00       		.byte	0
 1286 07c0 10       		.uleb128 0x10
 1287 07c1 9A090000 		.4byte	.LASF121
 1288 07c5 0E       		.byte	0xe
 1289 07c6 38       		.byte	0x38
 1290 07c7 94000000 		.4byte	0x94
 1291 07cb 04       		.byte	0x4
 1292 07cc 10       		.uleb128 0x10
 1293 07cd 4D090000 		.4byte	.LASF122
 1294 07d1 0E       		.byte	0xe
 1295 07d2 39       		.byte	0x39
 1296 07d3 94000000 		.4byte	0x94
 1297 07d7 08       		.byte	0x8
 1298 07d8 10       		.uleb128 0x10
 1299 07d9 6C050000 		.4byte	.LASF123
 1300 07dd 0E       		.byte	0xe
 1301 07de 3A       		.byte	0x3a
 1302 07df 94000000 		.4byte	0x94
 1303 07e3 0C       		.byte	0xc
 1304 07e4 10       		.uleb128 0x10
 1305 07e5 E8010000 		.4byte	.LASF124
 1306 07e9 0E       		.byte	0xe
 1307 07ea 3B       		.byte	0x3b
 1308 07eb 94000000 		.4byte	0x94
 1309 07ef 10       		.byte	0x10
 1310 07f0 10       		.uleb128 0x10
 1311 07f1 40080000 		.4byte	.LASF125
 1312 07f5 0E       		.byte	0xe
 1313 07f6 3C       		.byte	0x3c
 1314 07f7 94000000 		.4byte	0x94
 1315 07fb 14       		.byte	0x14
 1316 07fc 10       		.uleb128 0x10
 1317 07fd 57090000 		.4byte	.LASF126
 1318 0801 0E       		.byte	0xe
 1319 0802 3D       		.byte	0x3d
 1320 0803 94000000 		.4byte	0x94
 1321 0807 18       		.byte	0x18
 1322 0808 10       		.uleb128 0x10
 1323 0809 FC050000 		.4byte	.LASF127
 1324 080d 0E       		.byte	0xe
 1325 080e 3E       		.byte	0x3e
 1326 080f 94000000 		.4byte	0x94
 1327 0813 1C       		.byte	0x1c
 1328 0814 10       		.uleb128 0x10
 1329 0815 8F090000 		.4byte	.LASF128
 1330 0819 0E       		.byte	0xe
 1331 081a 3F       		.byte	0x3f
 1332 081b 94000000 		.4byte	0x94
 1333 081f 20       		.byte	0x20
 1334 0820 00       		.byte	0
 1335 0821 1C       		.uleb128 0x1c
 1336 0822 41010000 		.4byte	.LASF129
 1337 0826 0801     		.2byte	0x108
 1338 0828 0E       		.byte	0xe
 1339 0829 48       		.byte	0x48
 1340 082a 61080000 		.4byte	0x861
 1341 082e 10       		.uleb128 0x10
ARM GAS  /tmp/ccURwfKD.s 			page 26


 1342 082f 87090000 		.4byte	.LASF130
 1343 0833 0E       		.byte	0xe
 1344 0834 49       		.byte	0x49
 1345 0835 61080000 		.4byte	0x861
 1346 0839 00       		.byte	0
 1347 083a 10       		.uleb128 0x10
 1348 083b 6E060000 		.4byte	.LASF131
 1349 083f 0E       		.byte	0xe
 1350 0840 4A       		.byte	0x4a
 1351 0841 61080000 		.4byte	0x861
 1352 0845 80       		.byte	0x80
 1353 0846 1D       		.uleb128 0x1d
 1354 0847 30080000 		.4byte	.LASF132
 1355 084b 0E       		.byte	0xe
 1356 084c 4C       		.byte	0x4c
 1357 084d 34070000 		.4byte	0x734
 1358 0851 0001     		.2byte	0x100
 1359 0853 1D       		.uleb128 0x1d
 1360 0854 84030000 		.4byte	.LASF133
 1361 0858 0E       		.byte	0xe
 1362 0859 4F       		.byte	0x4f
 1363 085a 34070000 		.4byte	0x734
 1364 085e 0401     		.2byte	0x104
 1365 0860 00       		.byte	0
 1366 0861 14       		.uleb128 0x14
 1367 0862 9F060000 		.4byte	0x69f
 1368 0866 71080000 		.4byte	0x871
 1369 086a 15       		.uleb128 0x15
 1370 086b E8000000 		.4byte	0xe8
 1371 086f 1F       		.byte	0x1f
 1372 0870 00       		.byte	0
 1373 0871 1C       		.uleb128 0x1c
 1374 0872 B2050000 		.4byte	.LASF134
 1375 0876 9001     		.2byte	0x190
 1376 0878 0E       		.byte	0xe
 1377 0879 5B       		.byte	0x5b
 1378 087a AF080000 		.4byte	0x8af
 1379 087e 10       		.uleb128 0x10
 1380 087f 9C070000 		.4byte	.LASF114
 1381 0883 0E       		.byte	0xe
 1382 0884 5C       		.byte	0x5c
 1383 0885 AF080000 		.4byte	0x8af
 1384 0889 00       		.byte	0
 1385 088a 10       		.uleb128 0x10
 1386 088b 70080000 		.4byte	.LASF135
 1387 088f 0E       		.byte	0xe
 1388 0890 5D       		.byte	0x5d
 1389 0891 94000000 		.4byte	0x94
 1390 0895 04       		.byte	0x4
 1391 0896 10       		.uleb128 0x10
 1392 0897 1D030000 		.4byte	.LASF136
 1393 089b 0E       		.byte	0xe
 1394 089c 5F       		.byte	0x5f
 1395 089d B5080000 		.4byte	0x8b5
 1396 08a1 08       		.byte	0x8
 1397 08a2 10       		.uleb128 0x10
 1398 08a3 41010000 		.4byte	.LASF129
ARM GAS  /tmp/ccURwfKD.s 			page 27


 1399 08a7 0E       		.byte	0xe
 1400 08a8 60       		.byte	0x60
 1401 08a9 21080000 		.4byte	0x821
 1402 08ad 88       		.byte	0x88
 1403 08ae 00       		.byte	0
 1404 08af 13       		.uleb128 0x13
 1405 08b0 04       		.byte	0x4
 1406 08b1 71080000 		.4byte	0x871
 1407 08b5 14       		.uleb128 0x14
 1408 08b6 0F060000 		.4byte	0x60f
 1409 08ba C5080000 		.4byte	0x8c5
 1410 08be 15       		.uleb128 0x15
 1411 08bf E8000000 		.4byte	0xe8
 1412 08c3 1F       		.byte	0x1f
 1413 08c4 00       		.byte	0
 1414 08c5 1A       		.uleb128 0x1a
 1415 08c6 8D080000 		.4byte	.LASF137
 1416 08ca 08       		.byte	0x8
 1417 08cb 0E       		.byte	0xe
 1418 08cc 73       		.byte	0x73
 1419 08cd EA080000 		.4byte	0x8ea
 1420 08d1 10       		.uleb128 0x10
 1421 08d2 17070000 		.4byte	.LASF138
 1422 08d6 0E       		.byte	0xe
 1423 08d7 74       		.byte	0x74
 1424 08d8 EA080000 		.4byte	0x8ea
 1425 08dc 00       		.byte	0
 1426 08dd 10       		.uleb128 0x10
 1427 08de BC010000 		.4byte	.LASF139
 1428 08e2 0E       		.byte	0xe
 1429 08e3 75       		.byte	0x75
 1430 08e4 94000000 		.4byte	0x94
 1431 08e8 04       		.byte	0x4
 1432 08e9 00       		.byte	0
 1433 08ea 13       		.uleb128 0x13
 1434 08eb 04       		.byte	0x4
 1435 08ec 37000000 		.4byte	0x37
 1436 08f0 1A       		.uleb128 0x1a
 1437 08f1 13040000 		.4byte	.LASF140
 1438 08f5 68       		.byte	0x68
 1439 08f6 0E       		.byte	0xe
 1440 08f7 B3       		.byte	0xb3
 1441 08f8 1A0A0000 		.4byte	0xa1a
 1442 08fc 1B       		.uleb128 0x1b
 1443 08fd 5F7000   		.ascii	"_p\000"
 1444 0900 0E       		.byte	0xe
 1445 0901 B4       		.byte	0xb4
 1446 0902 EA080000 		.4byte	0x8ea
 1447 0906 00       		.byte	0
 1448 0907 1B       		.uleb128 0x1b
 1449 0908 5F7200   		.ascii	"_r\000"
 1450 090b 0E       		.byte	0xe
 1451 090c B5       		.byte	0xb5
 1452 090d 94000000 		.4byte	0x94
 1453 0911 04       		.byte	0x4
 1454 0912 1B       		.uleb128 0x1b
 1455 0913 5F7700   		.ascii	"_w\000"
ARM GAS  /tmp/ccURwfKD.s 			page 28


 1456 0916 0E       		.byte	0xe
 1457 0917 B6       		.byte	0xb6
 1458 0918 94000000 		.4byte	0x94
 1459 091c 08       		.byte	0x8
 1460 091d 10       		.uleb128 0x10
 1461 091e AB050000 		.4byte	.LASF141
 1462 0922 0E       		.byte	0xe
 1463 0923 B7       		.byte	0xb7
 1464 0924 49000000 		.4byte	0x49
 1465 0928 0C       		.byte	0xc
 1466 0929 10       		.uleb128 0x10
 1467 092a 3B010000 		.4byte	.LASF142
 1468 092e 0E       		.byte	0xe
 1469 092f B8       		.byte	0xb8
 1470 0930 49000000 		.4byte	0x49
 1471 0934 0E       		.byte	0xe
 1472 0935 1B       		.uleb128 0x1b
 1473 0936 5F626600 		.ascii	"_bf\000"
 1474 093a 0E       		.byte	0xe
 1475 093b B9       		.byte	0xb9
 1476 093c C5080000 		.4byte	0x8c5
 1477 0940 10       		.byte	0x10
 1478 0941 10       		.uleb128 0x10
 1479 0942 5C080000 		.4byte	.LASF143
 1480 0946 0E       		.byte	0xe
 1481 0947 BA       		.byte	0xba
 1482 0948 94000000 		.4byte	0x94
 1483 094c 18       		.byte	0x18
 1484 094d 10       		.uleb128 0x10
 1485 094e AD030000 		.4byte	.LASF144
 1486 0952 0E       		.byte	0xe
 1487 0953 C1       		.byte	0xc1
 1488 0954 9F060000 		.4byte	0x69f
 1489 0958 1C       		.byte	0x1c
 1490 0959 10       		.uleb128 0x10
 1491 095a 48000000 		.4byte	.LASF145
 1492 095e 0E       		.byte	0xe
 1493 095f C3       		.byte	0xc3
 1494 0960 870B0000 		.4byte	0xb87
 1495 0964 20       		.byte	0x20
 1496 0965 10       		.uleb128 0x10
 1497 0966 4E000000 		.4byte	.LASF146
 1498 096a 0E       		.byte	0xe
 1499 096b C5       		.byte	0xc5
 1500 096c B10B0000 		.4byte	0xbb1
 1501 0970 24       		.byte	0x24
 1502 0971 10       		.uleb128 0x10
 1503 0972 0C060000 		.4byte	.LASF147
 1504 0976 0E       		.byte	0xe
 1505 0977 C8       		.byte	0xc8
 1506 0978 D50B0000 		.4byte	0xbd5
 1507 097c 28       		.byte	0x28
 1508 097d 10       		.uleb128 0x10
 1509 097e 27030000 		.4byte	.LASF148
 1510 0982 0E       		.byte	0xe
 1511 0983 C9       		.byte	0xc9
 1512 0984 EF0B0000 		.4byte	0xbef
ARM GAS  /tmp/ccURwfKD.s 			page 29


 1513 0988 2C       		.byte	0x2c
 1514 0989 1B       		.uleb128 0x1b
 1515 098a 5F756200 		.ascii	"_ub\000"
 1516 098e 0E       		.byte	0xe
 1517 098f CC       		.byte	0xcc
 1518 0990 C5080000 		.4byte	0x8c5
 1519 0994 30       		.byte	0x30
 1520 0995 1B       		.uleb128 0x1b
 1521 0996 5F757000 		.ascii	"_up\000"
 1522 099a 0E       		.byte	0xe
 1523 099b CD       		.byte	0xcd
 1524 099c EA080000 		.4byte	0x8ea
 1525 09a0 38       		.byte	0x38
 1526 09a1 1B       		.uleb128 0x1b
 1527 09a2 5F757200 		.ascii	"_ur\000"
 1528 09a6 0E       		.byte	0xe
 1529 09a7 CE       		.byte	0xce
 1530 09a8 94000000 		.4byte	0x94
 1531 09ac 3C       		.byte	0x3c
 1532 09ad 10       		.uleb128 0x10
 1533 09ae 7B050000 		.4byte	.LASF149
 1534 09b2 0E       		.byte	0xe
 1535 09b3 D1       		.byte	0xd1
 1536 09b4 F50B0000 		.4byte	0xbf5
 1537 09b8 40       		.byte	0x40
 1538 09b9 10       		.uleb128 0x10
 1539 09ba 90000000 		.4byte	.LASF150
 1540 09be 0E       		.byte	0xe
 1541 09bf D2       		.byte	0xd2
 1542 09c0 050C0000 		.4byte	0xc05
 1543 09c4 43       		.byte	0x43
 1544 09c5 1B       		.uleb128 0x1b
 1545 09c6 5F6C6200 		.ascii	"_lb\000"
 1546 09ca 0E       		.byte	0xe
 1547 09cb D5       		.byte	0xd5
 1548 09cc C5080000 		.4byte	0x8c5
 1549 09d0 44       		.byte	0x44
 1550 09d1 10       		.uleb128 0x10
 1551 09d2 FB060000 		.4byte	.LASF151
 1552 09d6 0E       		.byte	0xe
 1553 09d7 D8       		.byte	0xd8
 1554 09d8 94000000 		.4byte	0x94
 1555 09dc 4C       		.byte	0x4c
 1556 09dd 10       		.uleb128 0x10
 1557 09de C4030000 		.4byte	.LASF152
 1558 09e2 0E       		.byte	0xe
 1559 09e3 D9       		.byte	0xd9
 1560 09e4 AC060000 		.4byte	0x6ac
 1561 09e8 50       		.byte	0x50
 1562 09e9 10       		.uleb128 0x10
 1563 09ea A2070000 		.4byte	.LASF153
 1564 09ee 0E       		.byte	0xe
 1565 09ef DC       		.byte	0xdc
 1566 09f0 380A0000 		.4byte	0xa38
 1567 09f4 54       		.byte	0x54
 1568 09f5 10       		.uleb128 0x10
 1569 09f6 B4000000 		.4byte	.LASF154
ARM GAS  /tmp/ccURwfKD.s 			page 30


 1570 09fa 0E       		.byte	0xe
 1571 09fb E0       		.byte	0xe0
 1572 09fc 29070000 		.4byte	0x729
 1573 0a00 58       		.byte	0x58
 1574 0a01 10       		.uleb128 0x10
 1575 0a02 97050000 		.4byte	.LASF155
 1576 0a06 0E       		.byte	0xe
 1577 0a07 E2       		.byte	0xe2
 1578 0a08 1E070000 		.4byte	0x71e
 1579 0a0c 5C       		.byte	0x5c
 1580 0a0d 10       		.uleb128 0x10
 1581 0a0e 20040000 		.4byte	.LASF156
 1582 0a12 0E       		.byte	0xe
 1583 0a13 E3       		.byte	0xe3
 1584 0a14 94000000 		.4byte	0x94
 1585 0a18 64       		.byte	0x64
 1586 0a19 00       		.byte	0
 1587 0a1a 1E       		.uleb128 0x1e
 1588 0a1b 94000000 		.4byte	0x94
 1589 0a1f 380A0000 		.4byte	0xa38
 1590 0a23 1F       		.uleb128 0x1f
 1591 0a24 380A0000 		.4byte	0xa38
 1592 0a28 1F       		.uleb128 0x1f
 1593 0a29 9F060000 		.4byte	0x69f
 1594 0a2d 1F       		.uleb128 0x1f
 1595 0a2e 750B0000 		.4byte	0xb75
 1596 0a32 1F       		.uleb128 0x1f
 1597 0a33 94000000 		.4byte	0x94
 1598 0a37 00       		.byte	0
 1599 0a38 13       		.uleb128 0x13
 1600 0a39 04       		.byte	0x4
 1601 0a3a 430A0000 		.4byte	0xa43
 1602 0a3e 20       		.uleb128 0x20
 1603 0a3f 380A0000 		.4byte	0xa38
 1604 0a43 21       		.uleb128 0x21
 1605 0a44 DF020000 		.4byte	.LASF157
 1606 0a48 2804     		.2byte	0x428
 1607 0a4a 0E       		.byte	0xe
 1608 0a4b 3802     		.2byte	0x238
 1609 0a4d 750B0000 		.4byte	0xb75
 1610 0a51 0E       		.uleb128 0xe
 1611 0a52 4A040000 		.4byte	.LASF158
 1612 0a56 0E       		.byte	0xe
 1613 0a57 3A02     		.2byte	0x23a
 1614 0a59 94000000 		.4byte	0x94
 1615 0a5d 00       		.byte	0
 1616 0a5e 0E       		.uleb128 0xe
 1617 0a5f 6C030000 		.4byte	.LASF159
 1618 0a63 0E       		.byte	0xe
 1619 0a64 3F02     		.2byte	0x23f
 1620 0a66 5C0C0000 		.4byte	0xc5c
 1621 0a6a 04       		.byte	0x4
 1622 0a6b 0E       		.uleb128 0xe
 1623 0a6c 53020000 		.4byte	.LASF160
 1624 0a70 0E       		.byte	0xe
 1625 0a71 3F02     		.2byte	0x23f
 1626 0a73 5C0C0000 		.4byte	0xc5c
ARM GAS  /tmp/ccURwfKD.s 			page 31


 1627 0a77 08       		.byte	0x8
 1628 0a78 0E       		.uleb128 0xe
 1629 0a79 81050000 		.4byte	.LASF161
 1630 0a7d 0E       		.byte	0xe
 1631 0a7e 3F02     		.2byte	0x23f
 1632 0a80 5C0C0000 		.4byte	0xc5c
 1633 0a84 0C       		.byte	0xc
 1634 0a85 0E       		.uleb128 0xe
 1635 0a86 6B080000 		.4byte	.LASF162
 1636 0a8a 0E       		.byte	0xe
 1637 0a8b 4102     		.2byte	0x241
 1638 0a8d 94000000 		.4byte	0x94
 1639 0a91 10       		.byte	0x10
 1640 0a92 0E       		.uleb128 0xe
 1641 0a93 C6040000 		.4byte	.LASF163
 1642 0a97 0E       		.byte	0xe
 1643 0a98 4202     		.2byte	0x242
 1644 0a9a 3E0E0000 		.4byte	0xe3e
 1645 0a9e 14       		.byte	0x14
 1646 0a9f 0E       		.uleb128 0xe
 1647 0aa0 01020000 		.4byte	.LASF164
 1648 0aa4 0E       		.byte	0xe
 1649 0aa5 4402     		.2byte	0x244
 1650 0aa7 94000000 		.4byte	0x94
 1651 0aab 30       		.byte	0x30
 1652 0aac 0E       		.uleb128 0xe
 1653 0aad 17050000 		.4byte	.LASF165
 1654 0ab1 0E       		.byte	0xe
 1655 0ab2 4502     		.2byte	0x245
 1656 0ab4 AB0B0000 		.4byte	0xbab
 1657 0ab8 34       		.byte	0x34
 1658 0ab9 0E       		.uleb128 0xe
 1659 0aba A9000000 		.4byte	.LASF166
 1660 0abe 0E       		.byte	0xe
 1661 0abf 4702     		.2byte	0x247
 1662 0ac1 94000000 		.4byte	0x94
 1663 0ac5 38       		.byte	0x38
 1664 0ac6 0E       		.uleb128 0xe
 1665 0ac7 9A040000 		.4byte	.LASF167
 1666 0acb 0E       		.byte	0xe
 1667 0acc 4902     		.2byte	0x249
 1668 0ace 590E0000 		.4byte	0xe59
 1669 0ad2 3C       		.byte	0x3c
 1670 0ad3 0E       		.uleb128 0xe
 1671 0ad4 C6080000 		.4byte	.LASF168
 1672 0ad8 0E       		.byte	0xe
 1673 0ad9 4C02     		.2byte	0x24c
 1674 0adb 92070000 		.4byte	0x792
 1675 0adf 40       		.byte	0x40
 1676 0ae0 0E       		.uleb128 0xe
 1677 0ae1 B2010000 		.4byte	.LASF169
 1678 0ae5 0E       		.byte	0xe
 1679 0ae6 4D02     		.2byte	0x24d
 1680 0ae8 94000000 		.4byte	0x94
 1681 0aec 44       		.byte	0x44
 1682 0aed 0E       		.uleb128 0xe
 1683 0aee E4030000 		.4byte	.LASF170
ARM GAS  /tmp/ccURwfKD.s 			page 32


 1684 0af2 0E       		.byte	0xe
 1685 0af3 4E02     		.2byte	0x24e
 1686 0af5 92070000 		.4byte	0x792
 1687 0af9 48       		.byte	0x48
 1688 0afa 0E       		.uleb128 0xe
 1689 0afb 27050000 		.4byte	.LASF171
 1690 0aff 0E       		.byte	0xe
 1691 0b00 4F02     		.2byte	0x24f
 1692 0b02 5F0E0000 		.4byte	0xe5f
 1693 0b06 4C       		.byte	0x4c
 1694 0b07 0E       		.uleb128 0xe
 1695 0b08 6A000000 		.4byte	.LASF172
 1696 0b0c 0E       		.byte	0xe
 1697 0b0d 5202     		.2byte	0x252
 1698 0b0f 94000000 		.4byte	0x94
 1699 0b13 50       		.byte	0x50
 1700 0b14 0E       		.uleb128 0xe
 1701 0b15 CC030000 		.4byte	.LASF173
 1702 0b19 0E       		.byte	0xe
 1703 0b1a 5302     		.2byte	0x253
 1704 0b1c 750B0000 		.4byte	0xb75
 1705 0b20 54       		.byte	0x54
 1706 0b21 0E       		.uleb128 0xe
 1707 0b22 76050000 		.4byte	.LASF174
 1708 0b26 0E       		.byte	0xe
 1709 0b27 7602     		.2byte	0x276
 1710 0b29 1C0E0000 		.4byte	0xe1c
 1711 0b2d 58       		.byte	0x58
 1712 0b2e 22       		.uleb128 0x22
 1713 0b2f B2050000 		.4byte	.LASF134
 1714 0b33 0E       		.byte	0xe
 1715 0b34 7A02     		.2byte	0x27a
 1716 0b36 AF080000 		.4byte	0x8af
 1717 0b3a 4801     		.2byte	0x148
 1718 0b3c 22       		.uleb128 0x22
 1719 0b3d A4040000 		.4byte	.LASF175
 1720 0b41 0E       		.byte	0xe
 1721 0b42 7B02     		.2byte	0x27b
 1722 0b44 71080000 		.4byte	0x871
 1723 0b48 4C01     		.2byte	0x14c
 1724 0b4a 22       		.uleb128 0x22
 1725 0b4b BA030000 		.4byte	.LASF176
 1726 0b4f 0E       		.byte	0xe
 1727 0b50 7F02     		.2byte	0x27f
 1728 0b52 700E0000 		.4byte	0xe70
 1729 0b56 DC02     		.2byte	0x2dc
 1730 0b58 22       		.uleb128 0x22
 1731 0b59 F0040000 		.4byte	.LASF177
 1732 0b5d 0E       		.byte	0xe
 1733 0b5e 8402     		.2byte	0x284
 1734 0b60 210C0000 		.4byte	0xc21
 1735 0b64 E002     		.2byte	0x2e0
 1736 0b66 22       		.uleb128 0x22
 1737 0b67 43000000 		.4byte	.LASF178
 1738 0b6b 0E       		.byte	0xe
 1739 0b6c 8502     		.2byte	0x285
 1740 0b6e 7C0E0000 		.4byte	0xe7c
ARM GAS  /tmp/ccURwfKD.s 			page 33


 1741 0b72 EC02     		.2byte	0x2ec
 1742 0b74 00       		.byte	0
 1743 0b75 13       		.uleb128 0x13
 1744 0b76 04       		.byte	0x4
 1745 0b77 7B0B0000 		.4byte	0xb7b
 1746 0b7b 02       		.uleb128 0x2
 1747 0b7c 01       		.byte	0x1
 1748 0b7d 08       		.byte	0x8
 1749 0b7e 18030000 		.4byte	.LASF179
 1750 0b82 20       		.uleb128 0x20
 1751 0b83 7B0B0000 		.4byte	0xb7b
 1752 0b87 13       		.uleb128 0x13
 1753 0b88 04       		.byte	0x4
 1754 0b89 1A0A0000 		.4byte	0xa1a
 1755 0b8d 1E       		.uleb128 0x1e
 1756 0b8e 94000000 		.4byte	0x94
 1757 0b92 AB0B0000 		.4byte	0xbab
 1758 0b96 1F       		.uleb128 0x1f
 1759 0b97 380A0000 		.4byte	0xa38
 1760 0b9b 1F       		.uleb128 0x1f
 1761 0b9c 9F060000 		.4byte	0x69f
 1762 0ba0 1F       		.uleb128 0x1f
 1763 0ba1 AB0B0000 		.4byte	0xbab
 1764 0ba5 1F       		.uleb128 0x1f
 1765 0ba6 94000000 		.4byte	0x94
 1766 0baa 00       		.byte	0
 1767 0bab 13       		.uleb128 0x13
 1768 0bac 04       		.byte	0x4
 1769 0bad 820B0000 		.4byte	0xb82
 1770 0bb1 13       		.uleb128 0x13
 1771 0bb2 04       		.byte	0x4
 1772 0bb3 8D0B0000 		.4byte	0xb8d
 1773 0bb7 1E       		.uleb128 0x1e
 1774 0bb8 B7060000 		.4byte	0x6b7
 1775 0bbc D50B0000 		.4byte	0xbd5
 1776 0bc0 1F       		.uleb128 0x1f
 1777 0bc1 380A0000 		.4byte	0xa38
 1778 0bc5 1F       		.uleb128 0x1f
 1779 0bc6 9F060000 		.4byte	0x69f
 1780 0bca 1F       		.uleb128 0x1f
 1781 0bcb B7060000 		.4byte	0x6b7
 1782 0bcf 1F       		.uleb128 0x1f
 1783 0bd0 94000000 		.4byte	0x94
 1784 0bd4 00       		.byte	0
 1785 0bd5 13       		.uleb128 0x13
 1786 0bd6 04       		.byte	0x4
 1787 0bd7 B70B0000 		.4byte	0xbb7
 1788 0bdb 1E       		.uleb128 0x1e
 1789 0bdc 94000000 		.4byte	0x94
 1790 0be0 EF0B0000 		.4byte	0xbef
 1791 0be4 1F       		.uleb128 0x1f
 1792 0be5 380A0000 		.4byte	0xa38
 1793 0be9 1F       		.uleb128 0x1f
 1794 0bea 9F060000 		.4byte	0x69f
 1795 0bee 00       		.byte	0
 1796 0bef 13       		.uleb128 0x13
 1797 0bf0 04       		.byte	0x4
ARM GAS  /tmp/ccURwfKD.s 			page 34


 1798 0bf1 DB0B0000 		.4byte	0xbdb
 1799 0bf5 14       		.uleb128 0x14
 1800 0bf6 37000000 		.4byte	0x37
 1801 0bfa 050C0000 		.4byte	0xc05
 1802 0bfe 15       		.uleb128 0x15
 1803 0bff E8000000 		.4byte	0xe8
 1804 0c03 02       		.byte	0x2
 1805 0c04 00       		.byte	0
 1806 0c05 14       		.uleb128 0x14
 1807 0c06 37000000 		.4byte	0x37
 1808 0c0a 150C0000 		.4byte	0xc15
 1809 0c0e 15       		.uleb128 0x15
 1810 0c0f E8000000 		.4byte	0xe8
 1811 0c13 00       		.byte	0
 1812 0c14 00       		.byte	0
 1813 0c15 0B       		.uleb128 0xb
 1814 0c16 54070000 		.4byte	.LASF180
 1815 0c1a 0E       		.byte	0xe
 1816 0c1b 1D01     		.2byte	0x11d
 1817 0c1d F0080000 		.4byte	0x8f0
 1818 0c21 23       		.uleb128 0x23
 1819 0c22 37050000 		.4byte	.LASF181
 1820 0c26 0C       		.byte	0xc
 1821 0c27 0E       		.byte	0xe
 1822 0c28 2101     		.2byte	0x121
 1823 0c2a 560C0000 		.4byte	0xc56
 1824 0c2e 0E       		.uleb128 0xe
 1825 0c2f 9C070000 		.4byte	.LASF114
 1826 0c33 0E       		.byte	0xe
 1827 0c34 2301     		.2byte	0x123
 1828 0c36 560C0000 		.4byte	0xc56
 1829 0c3a 00       		.byte	0
 1830 0c3b 0E       		.uleb128 0xe
 1831 0c3c DF040000 		.4byte	.LASF182
 1832 0c40 0E       		.byte	0xe
 1833 0c41 2401     		.2byte	0x124
 1834 0c43 94000000 		.4byte	0x94
 1835 0c47 04       		.byte	0x4
 1836 0c48 0E       		.uleb128 0xe
 1837 0c49 31050000 		.4byte	.LASF183
 1838 0c4d 0E       		.byte	0xe
 1839 0c4e 2501     		.2byte	0x125
 1840 0c50 5C0C0000 		.4byte	0xc5c
 1841 0c54 08       		.byte	0x8
 1842 0c55 00       		.byte	0
 1843 0c56 13       		.uleb128 0x13
 1844 0c57 04       		.byte	0x4
 1845 0c58 210C0000 		.4byte	0xc21
 1846 0c5c 13       		.uleb128 0x13
 1847 0c5d 04       		.byte	0x4
 1848 0c5e 150C0000 		.4byte	0xc15
 1849 0c62 23       		.uleb128 0x23
 1850 0c63 7A060000 		.4byte	.LASF184
 1851 0c67 0E       		.byte	0xe
 1852 0c68 0E       		.byte	0xe
 1853 0c69 3D01     		.2byte	0x13d
 1854 0c6b 970C0000 		.4byte	0xc97
ARM GAS  /tmp/ccURwfKD.s 			page 35


 1855 0c6f 0E       		.uleb128 0xe
 1856 0c70 06060000 		.4byte	.LASF185
 1857 0c74 0E       		.byte	0xe
 1858 0c75 3E01     		.2byte	0x13e
 1859 0c77 970C0000 		.4byte	0xc97
 1860 0c7b 00       		.byte	0
 1861 0c7c 0E       		.uleb128 0xe
 1862 0c7d F5000000 		.4byte	.LASF186
 1863 0c81 0E       		.byte	0xe
 1864 0c82 3F01     		.2byte	0x13f
 1865 0c84 970C0000 		.4byte	0xc97
 1866 0c88 06       		.byte	0x6
 1867 0c89 0E       		.uleb128 0xe
 1868 0c8a 13090000 		.4byte	.LASF187
 1869 0c8e 0E       		.byte	0xe
 1870 0c8f 4001     		.2byte	0x140
 1871 0c91 5B000000 		.4byte	0x5b
 1872 0c95 0C       		.byte	0xc
 1873 0c96 00       		.byte	0
 1874 0c97 14       		.uleb128 0x14
 1875 0c98 5B000000 		.4byte	0x5b
 1876 0c9c A70C0000 		.4byte	0xca7
 1877 0ca0 15       		.uleb128 0x15
 1878 0ca1 E8000000 		.4byte	0xe8
 1879 0ca5 02       		.byte	0x2
 1880 0ca6 00       		.byte	0
 1881 0ca7 0C       		.uleb128 0xc
 1882 0ca8 D0       		.byte	0xd0
 1883 0ca9 0E       		.byte	0xe
 1884 0caa 5702     		.2byte	0x257
 1885 0cac A80D0000 		.4byte	0xda8
 1886 0cb0 0E       		.uleb128 0xe
 1887 0cb1 13020000 		.4byte	.LASF188
 1888 0cb5 0E       		.byte	0xe
 1889 0cb6 5902     		.2byte	0x259
 1890 0cb8 9B000000 		.4byte	0x9b
 1891 0cbc 00       		.byte	0
 1892 0cbd 0E       		.uleb128 0xe
 1893 0cbe 27070000 		.4byte	.LASF189
 1894 0cc2 0E       		.byte	0xe
 1895 0cc3 5A02     		.2byte	0x25a
 1896 0cc5 750B0000 		.4byte	0xb75
 1897 0cc9 04       		.byte	0x4
 1898 0cca 0E       		.uleb128 0xe
 1899 0ccb 5D000000 		.4byte	.LASF190
 1900 0ccf 0E       		.byte	0xe
 1901 0cd0 5B02     		.2byte	0x25b
 1902 0cd2 A80D0000 		.4byte	0xda8
 1903 0cd6 08       		.byte	0x8
 1904 0cd7 0E       		.uleb128 0xe
 1905 0cd8 D0010000 		.4byte	.LASF191
 1906 0cdc 0E       		.byte	0xe
 1907 0cdd 5C02     		.2byte	0x25c
 1908 0cdf A8070000 		.4byte	0x7a8
 1909 0ce3 24       		.byte	0x24
 1910 0ce4 0E       		.uleb128 0xe
 1911 0ce5 08050000 		.4byte	.LASF192
ARM GAS  /tmp/ccURwfKD.s 			page 36


 1912 0ce9 0E       		.byte	0xe
 1913 0cea 5D02     		.2byte	0x25d
 1914 0cec 94000000 		.4byte	0x94
 1915 0cf0 48       		.byte	0x48
 1916 0cf1 0E       		.uleb128 0xe
 1917 0cf2 A0050000 		.4byte	.LASF193
 1918 0cf6 0E       		.byte	0xe
 1919 0cf7 5E02     		.2byte	0x25e
 1920 0cf9 8D000000 		.4byte	0x8d
 1921 0cfd 50       		.byte	0x50
 1922 0cfe 0E       		.uleb128 0xe
 1923 0cff 90070000 		.4byte	.LASF194
 1924 0d03 0E       		.byte	0xe
 1925 0d04 5F02     		.2byte	0x25f
 1926 0d06 620C0000 		.4byte	0xc62
 1927 0d0a 58       		.byte	0x58
 1928 0d0b 0E       		.uleb128 0xe
 1929 0d0c EC070000 		.4byte	.LASF195
 1930 0d10 0E       		.byte	0xe
 1931 0d11 6002     		.2byte	0x260
 1932 0d13 1E070000 		.4byte	0x71e
 1933 0d17 68       		.byte	0x68
 1934 0d18 0E       		.uleb128 0xe
 1935 0d19 29060000 		.4byte	.LASF196
 1936 0d1d 0E       		.byte	0xe
 1937 0d1e 6102     		.2byte	0x261
 1938 0d20 1E070000 		.4byte	0x71e
 1939 0d24 70       		.byte	0x70
 1940 0d25 0E       		.uleb128 0xe
 1941 0d26 89050000 		.4byte	.LASF197
 1942 0d2a 0E       		.byte	0xe
 1943 0d2b 6202     		.2byte	0x262
 1944 0d2d 1E070000 		.4byte	0x71e
 1945 0d31 78       		.byte	0x78
 1946 0d32 0E       		.uleb128 0xe
 1947 0d33 9F000000 		.4byte	.LASF198
 1948 0d37 0E       		.byte	0xe
 1949 0d38 6302     		.2byte	0x263
 1950 0d3a B80D0000 		.4byte	0xdb8
 1951 0d3e 80       		.byte	0x80
 1952 0d3f 0E       		.uleb128 0xe
 1953 0d40 69040000 		.4byte	.LASF199
 1954 0d44 0E       		.byte	0xe
 1955 0d45 6402     		.2byte	0x264
 1956 0d47 C80D0000 		.4byte	0xdc8
 1957 0d4b 88       		.byte	0x88
 1958 0d4c 0E       		.uleb128 0xe
 1959 0d4d A3090000 		.4byte	.LASF200
 1960 0d51 0E       		.byte	0xe
 1961 0d52 6502     		.2byte	0x265
 1962 0d54 94000000 		.4byte	0x94
 1963 0d58 A0       		.byte	0xa0
 1964 0d59 0E       		.uleb128 0xe
 1965 0d5a 7D010000 		.4byte	.LASF201
 1966 0d5e 0E       		.byte	0xe
 1967 0d5f 6602     		.2byte	0x266
 1968 0d61 1E070000 		.4byte	0x71e
ARM GAS  /tmp/ccURwfKD.s 			page 37


 1969 0d65 A4       		.byte	0xa4
 1970 0d66 0E       		.uleb128 0xe
 1971 0d67 40070000 		.4byte	.LASF202
 1972 0d6b 0E       		.byte	0xe
 1973 0d6c 6702     		.2byte	0x267
 1974 0d6e 1E070000 		.4byte	0x71e
 1975 0d72 AC       		.byte	0xac
 1976 0d73 0E       		.uleb128 0xe
 1977 0d74 6C090000 		.4byte	.LASF203
 1978 0d78 0E       		.byte	0xe
 1979 0d79 6802     		.2byte	0x268
 1980 0d7b 1E070000 		.4byte	0x71e
 1981 0d7f B4       		.byte	0xb4
 1982 0d80 0E       		.uleb128 0xe
 1983 0d81 5B070000 		.4byte	.LASF204
 1984 0d85 0E       		.byte	0xe
 1985 0d86 6902     		.2byte	0x269
 1986 0d88 1E070000 		.4byte	0x71e
 1987 0d8c BC       		.byte	0xbc
 1988 0d8d 0E       		.uleb128 0xe
 1989 0d8e 7F000000 		.4byte	.LASF205
 1990 0d92 0E       		.byte	0xe
 1991 0d93 6A02     		.2byte	0x26a
 1992 0d95 1E070000 		.4byte	0x71e
 1993 0d99 C4       		.byte	0xc4
 1994 0d9a 0E       		.uleb128 0xe
 1995 0d9b 63050000 		.4byte	.LASF206
 1996 0d9f 0E       		.byte	0xe
 1997 0da0 6B02     		.2byte	0x26b
 1998 0da2 94000000 		.4byte	0x94
 1999 0da6 CC       		.byte	0xcc
 2000 0da7 00       		.byte	0
 2001 0da8 14       		.uleb128 0x14
 2002 0da9 7B0B0000 		.4byte	0xb7b
 2003 0dad B80D0000 		.4byte	0xdb8
 2004 0db1 15       		.uleb128 0x15
 2005 0db2 E8000000 		.4byte	0xe8
 2006 0db6 19       		.byte	0x19
 2007 0db7 00       		.byte	0
 2008 0db8 14       		.uleb128 0x14
 2009 0db9 7B0B0000 		.4byte	0xb7b
 2010 0dbd C80D0000 		.4byte	0xdc8
 2011 0dc1 15       		.uleb128 0x15
 2012 0dc2 E8000000 		.4byte	0xe8
 2013 0dc6 07       		.byte	0x7
 2014 0dc7 00       		.byte	0
 2015 0dc8 14       		.uleb128 0x14
 2016 0dc9 7B0B0000 		.4byte	0xb7b
 2017 0dcd D80D0000 		.4byte	0xdd8
 2018 0dd1 15       		.uleb128 0x15
 2019 0dd2 E8000000 		.4byte	0xe8
 2020 0dd6 17       		.byte	0x17
 2021 0dd7 00       		.byte	0
 2022 0dd8 0C       		.uleb128 0xc
 2023 0dd9 F0       		.byte	0xf0
 2024 0dda 0E       		.byte	0xe
 2025 0ddb 7002     		.2byte	0x270
ARM GAS  /tmp/ccURwfKD.s 			page 38


 2026 0ddd FC0D0000 		.4byte	0xdfc
 2027 0de1 0E       		.uleb128 0xe
 2028 0de2 94080000 		.4byte	.LASF207
 2029 0de6 0E       		.byte	0xe
 2030 0de7 7302     		.2byte	0x273
 2031 0de9 FC0D0000 		.4byte	0xdfc
 2032 0ded 00       		.byte	0
 2033 0dee 0E       		.uleb128 0xe
 2034 0def F8040000 		.4byte	.LASF208
 2035 0df3 0E       		.byte	0xe
 2036 0df4 7402     		.2byte	0x274
 2037 0df6 0C0E0000 		.4byte	0xe0c
 2038 0dfa 78       		.byte	0x78
 2039 0dfb 00       		.byte	0
 2040 0dfc 14       		.uleb128 0x14
 2041 0dfd EA080000 		.4byte	0x8ea
 2042 0e01 0C0E0000 		.4byte	0xe0c
 2043 0e05 15       		.uleb128 0x15
 2044 0e06 E8000000 		.4byte	0xe8
 2045 0e0a 1D       		.byte	0x1d
 2046 0e0b 00       		.byte	0
 2047 0e0c 14       		.uleb128 0x14
 2048 0e0d 9B000000 		.4byte	0x9b
 2049 0e11 1C0E0000 		.4byte	0xe1c
 2050 0e15 15       		.uleb128 0x15
 2051 0e16 E8000000 		.4byte	0xe8
 2052 0e1a 1D       		.byte	0x1d
 2053 0e1b 00       		.byte	0
 2054 0e1c 24       		.uleb128 0x24
 2055 0e1d F0       		.byte	0xf0
 2056 0e1e 0E       		.byte	0xe
 2057 0e1f 5502     		.2byte	0x255
 2058 0e21 3E0E0000 		.4byte	0xe3e
 2059 0e25 25       		.uleb128 0x25
 2060 0e26 DF020000 		.4byte	.LASF157
 2061 0e2a 0E       		.byte	0xe
 2062 0e2b 6C02     		.2byte	0x26c
 2063 0e2d A70C0000 		.4byte	0xca7
 2064 0e31 25       		.uleb128 0x25
 2065 0e32 72000000 		.4byte	.LASF209
 2066 0e36 0E       		.byte	0xe
 2067 0e37 7502     		.2byte	0x275
 2068 0e39 D80D0000 		.4byte	0xdd8
 2069 0e3d 00       		.byte	0
 2070 0e3e 14       		.uleb128 0x14
 2071 0e3f 7B0B0000 		.4byte	0xb7b
 2072 0e43 4E0E0000 		.4byte	0xe4e
 2073 0e47 15       		.uleb128 0x15
 2074 0e48 E8000000 		.4byte	0xe8
 2075 0e4c 18       		.byte	0x18
 2076 0e4d 00       		.byte	0
 2077 0e4e 26       		.uleb128 0x26
 2078 0e4f 590E0000 		.4byte	0xe59
 2079 0e53 1F       		.uleb128 0x1f
 2080 0e54 380A0000 		.4byte	0xa38
 2081 0e58 00       		.byte	0
 2082 0e59 13       		.uleb128 0x13
ARM GAS  /tmp/ccURwfKD.s 			page 39


 2083 0e5a 04       		.byte	0x4
 2084 0e5b 4E0E0000 		.4byte	0xe4e
 2085 0e5f 13       		.uleb128 0x13
 2086 0e60 04       		.byte	0x4
 2087 0e61 92070000 		.4byte	0x792
 2088 0e65 26       		.uleb128 0x26
 2089 0e66 700E0000 		.4byte	0xe70
 2090 0e6a 1F       		.uleb128 0x1f
 2091 0e6b 94000000 		.4byte	0x94
 2092 0e6f 00       		.byte	0
 2093 0e70 13       		.uleb128 0x13
 2094 0e71 04       		.byte	0x4
 2095 0e72 760E0000 		.4byte	0xe76
 2096 0e76 13       		.uleb128 0x13
 2097 0e77 04       		.byte	0x4
 2098 0e78 650E0000 		.4byte	0xe65
 2099 0e7c 14       		.uleb128 0x14
 2100 0e7d 150C0000 		.4byte	0xc15
 2101 0e81 8C0E0000 		.4byte	0xe8c
 2102 0e85 15       		.uleb128 0x15
 2103 0e86 E8000000 		.4byte	0xe8
 2104 0e8a 02       		.byte	0x2
 2105 0e8b 00       		.byte	0
 2106 0e8c 06       		.uleb128 0x6
 2107 0e8d A6010000 		.4byte	.LASF210
 2108 0e91 0E       		.byte	0xe
 2109 0e92 FD02     		.2byte	0x2fd
 2110 0e94 380A0000 		.4byte	0xa38
 2111 0e98 06       		.uleb128 0x6
 2112 0e99 E6020000 		.4byte	.LASF211
 2113 0e9d 0E       		.byte	0xe
 2114 0e9e FE02     		.2byte	0x2fe
 2115 0ea0 3E0A0000 		.4byte	0xa3e
 2116 0ea4 02       		.uleb128 0x2
 2117 0ea5 08       		.byte	0x8
 2118 0ea6 04       		.byte	0x4
 2119 0ea7 01050000 		.4byte	.LASF212
 2120 0eab 27       		.uleb128 0x27
 2121 0eac EA060000 		.4byte	.LASF229
 2122 0eb0 01       		.byte	0x1
 2123 0eb1 25000000 		.4byte	0x25
 2124 0eb5 0F       		.byte	0xf
 2125 0eb6 9902     		.2byte	0x299
 2126 0eb8 D50E0000 		.4byte	0xed5
 2127 0ebc 28       		.uleb128 0x28
 2128 0ebd 7F080000 		.4byte	.LASF213
 2129 0ec1 7F       		.sleb128 -1
 2130 0ec2 0A       		.uleb128 0xa
 2131 0ec3 AD040000 		.4byte	.LASF214
 2132 0ec7 00       		.byte	0
 2133 0ec8 0A       		.uleb128 0xa
 2134 0ec9 03080000 		.4byte	.LASF215
 2135 0ecd 01       		.byte	0x1
 2136 0ece 0A       		.uleb128 0xa
 2137 0ecf DD070000 		.4byte	.LASF216
 2138 0ed3 02       		.byte	0x2
 2139 0ed4 00       		.byte	0
ARM GAS  /tmp/ccURwfKD.s 			page 40


 2140 0ed5 06       		.uleb128 0x6
 2141 0ed6 D4030000 		.4byte	.LASF217
 2142 0eda 0F       		.byte	0xf
 2143 0edb A402     		.2byte	0x2a4
 2144 0edd AB0E0000 		.4byte	0xeab
 2145 0ee1 29       		.uleb128 0x29
 2146 0ee2 28000000 		.4byte	.LASF218
 2147 0ee6 01       		.byte	0x1
 2148 0ee7 48       		.byte	0x48
 2149 0ee8 4C010000 		.4byte	.LFB67
 2150 0eec 30000000 		.4byte	.LFE67-.LFB67
 2151 0ef0 01       		.uleb128 0x1
 2152 0ef1 9C       		.byte	0x9c
 2153 0ef2 050F0000 		.4byte	0xf05
 2154 0ef6 2A       		.uleb128 0x2a
 2155 0ef7 00010000 		.4byte	.LASF220
 2156 0efb 01       		.byte	0x1
 2157 0efc 4A       		.byte	0x4a
 2158 0efd 03060000 		.4byte	0x603
 2159 0f01 02       		.uleb128 0x2
 2160 0f02 91       		.byte	0x91
 2161 0f03 74       		.sleb128 -12
 2162 0f04 00       		.byte	0
 2163 0f05 29       		.uleb128 0x29
 2164 0f06 00000000 		.4byte	.LASF219
 2165 0f0a 01       		.byte	0x1
 2166 0f0b 2B       		.byte	0x2b
 2167 0f0c E4000000 		.4byte	.LFB66
 2168 0f10 68000000 		.4byte	.LFE66-.LFB66
 2169 0f14 01       		.uleb128 0x1
 2170 0f15 9C       		.byte	0x9c
 2171 0f16 290F0000 		.4byte	0xf29
 2172 0f1a 2A       		.uleb128 0x2a
 2173 0f1b 04070000 		.4byte	.LASF221
 2174 0f1f 01       		.byte	0x1
 2175 0f20 2D       		.byte	0x2d
 2176 0f21 BF050000 		.4byte	0x5bf
 2177 0f25 02       		.uleb128 0x2
 2178 0f26 91       		.byte	0x91
 2179 0f27 74       		.sleb128 -12
 2180 0f28 00       		.byte	0
 2181 0f29 29       		.uleb128 0x29
 2182 0f2a F9020000 		.4byte	.LASF222
 2183 0f2e 01       		.byte	0x1
 2184 0f2f 18       		.byte	0x18
 2185 0f30 9C000000 		.4byte	.LFB65
 2186 0f34 48000000 		.4byte	.LFE65-.LFB65
 2187 0f38 01       		.uleb128 0x1
 2188 0f39 9C       		.byte	0x9c
 2189 0f3a 4D0F0000 		.4byte	0xf4d
 2190 0f3e 2A       		.uleb128 0x2a
 2191 0f3f 94010000 		.4byte	.LASF223
 2192 0f43 01       		.byte	0x1
 2193 0f44 1A       		.byte	0x1a
 2194 0f45 15050000 		.4byte	0x515
 2195 0f49 02       		.uleb128 0x2
 2196 0f4a 91       		.byte	0x91
ARM GAS  /tmp/ccURwfKD.s 			page 41


 2197 0f4b 68       		.sleb128 -24
 2198 0f4c 00       		.byte	0
 2199 0f4d 2B       		.uleb128 0x2b
 2200 0f4e BA050000 		.4byte	.LASF224
 2201 0f52 01       		.byte	0x1
 2202 0f53 05       		.byte	0x5
 2203 0f54 94000000 		.4byte	0x94
 2204 0f58 00000000 		.4byte	.LFB64
 2205 0f5c 9C000000 		.4byte	.LFE64-.LFB64
 2206 0f60 01       		.uleb128 0x1
 2207 0f61 9C       		.byte	0x9c
 2208 0f62 2A       		.uleb128 0x2a
 2209 0f63 5E060000 		.4byte	.LASF225
 2210 0f67 01       		.byte	0x1
 2211 0f68 07       		.byte	0x7
 2212 0f69 94000000 		.4byte	0x94
 2213 0f6d 02       		.uleb128 0x2
 2214 0f6e 91       		.byte	0x91
 2215 0f6f 74       		.sleb128 -12
 2216 0f70 00       		.byte	0
 2217 0f71 00       		.byte	0
 2218              		.section	.debug_abbrev,"",%progbits
 2219              	.Ldebug_abbrev0:
 2220 0000 01       		.uleb128 0x1
 2221 0001 11       		.uleb128 0x11
 2222 0002 01       		.byte	0x1
 2223 0003 25       		.uleb128 0x25
 2224 0004 0E       		.uleb128 0xe
 2225 0005 13       		.uleb128 0x13
 2226 0006 0B       		.uleb128 0xb
 2227 0007 03       		.uleb128 0x3
 2228 0008 0E       		.uleb128 0xe
 2229 0009 1B       		.uleb128 0x1b
 2230 000a 0E       		.uleb128 0xe
 2231 000b 11       		.uleb128 0x11
 2232 000c 01       		.uleb128 0x1
 2233 000d 12       		.uleb128 0x12
 2234 000e 06       		.uleb128 0x6
 2235 000f 10       		.uleb128 0x10
 2236 0010 17       		.uleb128 0x17
 2237 0011 00       		.byte	0
 2238 0012 00       		.byte	0
 2239 0013 02       		.uleb128 0x2
 2240 0014 24       		.uleb128 0x24
 2241 0015 00       		.byte	0
 2242 0016 0B       		.uleb128 0xb
 2243 0017 0B       		.uleb128 0xb
 2244 0018 3E       		.uleb128 0x3e
 2245 0019 0B       		.uleb128 0xb
 2246 001a 03       		.uleb128 0x3
 2247 001b 0E       		.uleb128 0xe
 2248 001c 00       		.byte	0
 2249 001d 00       		.byte	0
 2250 001e 03       		.uleb128 0x3
 2251 001f 16       		.uleb128 0x16
 2252 0020 00       		.byte	0
 2253 0021 03       		.uleb128 0x3
ARM GAS  /tmp/ccURwfKD.s 			page 42


 2254 0022 0E       		.uleb128 0xe
 2255 0023 3A       		.uleb128 0x3a
 2256 0024 0B       		.uleb128 0xb
 2257 0025 3B       		.uleb128 0x3b
 2258 0026 0B       		.uleb128 0xb
 2259 0027 49       		.uleb128 0x49
 2260 0028 13       		.uleb128 0x13
 2261 0029 00       		.byte	0
 2262 002a 00       		.byte	0
 2263 002b 04       		.uleb128 0x4
 2264 002c 24       		.uleb128 0x24
 2265 002d 00       		.byte	0
 2266 002e 0B       		.uleb128 0xb
 2267 002f 0B       		.uleb128 0xb
 2268 0030 3E       		.uleb128 0x3e
 2269 0031 0B       		.uleb128 0xb
 2270 0032 03       		.uleb128 0x3
 2271 0033 08       		.uleb128 0x8
 2272 0034 00       		.byte	0
 2273 0035 00       		.byte	0
 2274 0036 05       		.uleb128 0x5
 2275 0037 35       		.uleb128 0x35
 2276 0038 00       		.byte	0
 2277 0039 49       		.uleb128 0x49
 2278 003a 13       		.uleb128 0x13
 2279 003b 00       		.byte	0
 2280 003c 00       		.byte	0
 2281 003d 06       		.uleb128 0x6
 2282 003e 34       		.uleb128 0x34
 2283 003f 00       		.byte	0
 2284 0040 03       		.uleb128 0x3
 2285 0041 0E       		.uleb128 0xe
 2286 0042 3A       		.uleb128 0x3a
 2287 0043 0B       		.uleb128 0xb
 2288 0044 3B       		.uleb128 0x3b
 2289 0045 05       		.uleb128 0x5
 2290 0046 49       		.uleb128 0x49
 2291 0047 13       		.uleb128 0x13
 2292 0048 3F       		.uleb128 0x3f
 2293 0049 19       		.uleb128 0x19
 2294 004a 3C       		.uleb128 0x3c
 2295 004b 19       		.uleb128 0x19
 2296 004c 00       		.byte	0
 2297 004d 00       		.byte	0
 2298 004e 07       		.uleb128 0x7
 2299 004f 34       		.uleb128 0x34
 2300 0050 00       		.byte	0
 2301 0051 03       		.uleb128 0x3
 2302 0052 0E       		.uleb128 0xe
 2303 0053 3A       		.uleb128 0x3a
 2304 0054 0B       		.uleb128 0xb
 2305 0055 3B       		.uleb128 0x3b
 2306 0056 0B       		.uleb128 0xb
 2307 0057 49       		.uleb128 0x49
 2308 0058 13       		.uleb128 0x13
 2309 0059 3F       		.uleb128 0x3f
 2310 005a 19       		.uleb128 0x19
ARM GAS  /tmp/ccURwfKD.s 			page 43


 2311 005b 3C       		.uleb128 0x3c
 2312 005c 19       		.uleb128 0x19
 2313 005d 00       		.byte	0
 2314 005e 00       		.byte	0
 2315 005f 08       		.uleb128 0x8
 2316 0060 16       		.uleb128 0x16
 2317 0061 00       		.byte	0
 2318 0062 03       		.uleb128 0x3
 2319 0063 08       		.uleb128 0x8
 2320 0064 3A       		.uleb128 0x3a
 2321 0065 0B       		.uleb128 0xb
 2322 0066 3B       		.uleb128 0x3b
 2323 0067 05       		.uleb128 0x5
 2324 0068 49       		.uleb128 0x49
 2325 0069 13       		.uleb128 0x13
 2326 006a 00       		.byte	0
 2327 006b 00       		.byte	0
 2328 006c 09       		.uleb128 0x9
 2329 006d 04       		.uleb128 0x4
 2330 006e 01       		.byte	0x1
 2331 006f 0B       		.uleb128 0xb
 2332 0070 0B       		.uleb128 0xb
 2333 0071 49       		.uleb128 0x49
 2334 0072 13       		.uleb128 0x13
 2335 0073 3A       		.uleb128 0x3a
 2336 0074 0B       		.uleb128 0xb
 2337 0075 3B       		.uleb128 0x3b
 2338 0076 05       		.uleb128 0x5
 2339 0077 01       		.uleb128 0x1
 2340 0078 13       		.uleb128 0x13
 2341 0079 00       		.byte	0
 2342 007a 00       		.byte	0
 2343 007b 0A       		.uleb128 0xa
 2344 007c 28       		.uleb128 0x28
 2345 007d 00       		.byte	0
 2346 007e 03       		.uleb128 0x3
 2347 007f 0E       		.uleb128 0xe
 2348 0080 1C       		.uleb128 0x1c
 2349 0081 0B       		.uleb128 0xb
 2350 0082 00       		.byte	0
 2351 0083 00       		.byte	0
 2352 0084 0B       		.uleb128 0xb
 2353 0085 16       		.uleb128 0x16
 2354 0086 00       		.byte	0
 2355 0087 03       		.uleb128 0x3
 2356 0088 0E       		.uleb128 0xe
 2357 0089 3A       		.uleb128 0x3a
 2358 008a 0B       		.uleb128 0xb
 2359 008b 3B       		.uleb128 0x3b
 2360 008c 05       		.uleb128 0x5
 2361 008d 49       		.uleb128 0x49
 2362 008e 13       		.uleb128 0x13
 2363 008f 00       		.byte	0
 2364 0090 00       		.byte	0
 2365 0091 0C       		.uleb128 0xc
 2366 0092 13       		.uleb128 0x13
 2367 0093 01       		.byte	0x1
ARM GAS  /tmp/ccURwfKD.s 			page 44


 2368 0094 0B       		.uleb128 0xb
 2369 0095 0B       		.uleb128 0xb
 2370 0096 3A       		.uleb128 0x3a
 2371 0097 0B       		.uleb128 0xb
 2372 0098 3B       		.uleb128 0x3b
 2373 0099 05       		.uleb128 0x5
 2374 009a 01       		.uleb128 0x1
 2375 009b 13       		.uleb128 0x13
 2376 009c 00       		.byte	0
 2377 009d 00       		.byte	0
 2378 009e 0D       		.uleb128 0xd
 2379 009f 0D       		.uleb128 0xd
 2380 00a0 00       		.byte	0
 2381 00a1 03       		.uleb128 0x3
 2382 00a2 08       		.uleb128 0x8
 2383 00a3 3A       		.uleb128 0x3a
 2384 00a4 0B       		.uleb128 0xb
 2385 00a5 3B       		.uleb128 0x3b
 2386 00a6 05       		.uleb128 0x5
 2387 00a7 49       		.uleb128 0x49
 2388 00a8 13       		.uleb128 0x13
 2389 00a9 38       		.uleb128 0x38
 2390 00aa 0B       		.uleb128 0xb
 2391 00ab 00       		.byte	0
 2392 00ac 00       		.byte	0
 2393 00ad 0E       		.uleb128 0xe
 2394 00ae 0D       		.uleb128 0xd
 2395 00af 00       		.byte	0
 2396 00b0 03       		.uleb128 0x3
 2397 00b1 0E       		.uleb128 0xe
 2398 00b2 3A       		.uleb128 0x3a
 2399 00b3 0B       		.uleb128 0xb
 2400 00b4 3B       		.uleb128 0x3b
 2401 00b5 05       		.uleb128 0x5
 2402 00b6 49       		.uleb128 0x49
 2403 00b7 13       		.uleb128 0x13
 2404 00b8 38       		.uleb128 0x38
 2405 00b9 0B       		.uleb128 0xb
 2406 00ba 00       		.byte	0
 2407 00bb 00       		.byte	0
 2408 00bc 0F       		.uleb128 0xf
 2409 00bd 13       		.uleb128 0x13
 2410 00be 01       		.byte	0x1
 2411 00bf 0B       		.uleb128 0xb
 2412 00c0 0B       		.uleb128 0xb
 2413 00c1 3A       		.uleb128 0x3a
 2414 00c2 0B       		.uleb128 0xb
 2415 00c3 3B       		.uleb128 0x3b
 2416 00c4 0B       		.uleb128 0xb
 2417 00c5 01       		.uleb128 0x1
 2418 00c6 13       		.uleb128 0x13
 2419 00c7 00       		.byte	0
 2420 00c8 00       		.byte	0
 2421 00c9 10       		.uleb128 0x10
 2422 00ca 0D       		.uleb128 0xd
 2423 00cb 00       		.byte	0
 2424 00cc 03       		.uleb128 0x3
ARM GAS  /tmp/ccURwfKD.s 			page 45


 2425 00cd 0E       		.uleb128 0xe
 2426 00ce 3A       		.uleb128 0x3a
 2427 00cf 0B       		.uleb128 0xb
 2428 00d0 3B       		.uleb128 0x3b
 2429 00d1 0B       		.uleb128 0xb
 2430 00d2 49       		.uleb128 0x49
 2431 00d3 13       		.uleb128 0x13
 2432 00d4 38       		.uleb128 0x38
 2433 00d5 0B       		.uleb128 0xb
 2434 00d6 00       		.byte	0
 2435 00d7 00       		.byte	0
 2436 00d8 11       		.uleb128 0x11
 2437 00d9 04       		.uleb128 0x4
 2438 00da 01       		.byte	0x1
 2439 00db 0B       		.uleb128 0xb
 2440 00dc 0B       		.uleb128 0xb
 2441 00dd 49       		.uleb128 0x49
 2442 00de 13       		.uleb128 0x13
 2443 00df 3A       		.uleb128 0x3a
 2444 00e0 0B       		.uleb128 0xb
 2445 00e1 3B       		.uleb128 0x3b
 2446 00e2 0B       		.uleb128 0xb
 2447 00e3 01       		.uleb128 0x1
 2448 00e4 13       		.uleb128 0x13
 2449 00e5 00       		.byte	0
 2450 00e6 00       		.byte	0
 2451 00e7 12       		.uleb128 0x12
 2452 00e8 15       		.uleb128 0x15
 2453 00e9 00       		.byte	0
 2454 00ea 27       		.uleb128 0x27
 2455 00eb 19       		.uleb128 0x19
 2456 00ec 00       		.byte	0
 2457 00ed 00       		.byte	0
 2458 00ee 13       		.uleb128 0x13
 2459 00ef 0F       		.uleb128 0xf
 2460 00f0 00       		.byte	0
 2461 00f1 0B       		.uleb128 0xb
 2462 00f2 0B       		.uleb128 0xb
 2463 00f3 49       		.uleb128 0x49
 2464 00f4 13       		.uleb128 0x13
 2465 00f5 00       		.byte	0
 2466 00f6 00       		.byte	0
 2467 00f7 14       		.uleb128 0x14
 2468 00f8 01       		.uleb128 0x1
 2469 00f9 01       		.byte	0x1
 2470 00fa 49       		.uleb128 0x49
 2471 00fb 13       		.uleb128 0x13
 2472 00fc 01       		.uleb128 0x1
 2473 00fd 13       		.uleb128 0x13
 2474 00fe 00       		.byte	0
 2475 00ff 00       		.byte	0
 2476 0100 15       		.uleb128 0x15
 2477 0101 21       		.uleb128 0x21
 2478 0102 00       		.byte	0
 2479 0103 49       		.uleb128 0x49
 2480 0104 13       		.uleb128 0x13
 2481 0105 2F       		.uleb128 0x2f
ARM GAS  /tmp/ccURwfKD.s 			page 46


 2482 0106 0B       		.uleb128 0xb
 2483 0107 00       		.byte	0
 2484 0108 00       		.byte	0
 2485 0109 16       		.uleb128 0x16
 2486 010a 34       		.uleb128 0x34
 2487 010b 00       		.byte	0
 2488 010c 03       		.uleb128 0x3
 2489 010d 08       		.uleb128 0x8
 2490 010e 3A       		.uleb128 0x3a
 2491 010f 0B       		.uleb128 0xb
 2492 0110 3B       		.uleb128 0x3b
 2493 0111 05       		.uleb128 0x5
 2494 0112 49       		.uleb128 0x49
 2495 0113 13       		.uleb128 0x13
 2496 0114 3F       		.uleb128 0x3f
 2497 0115 19       		.uleb128 0x19
 2498 0116 3C       		.uleb128 0x3c
 2499 0117 19       		.uleb128 0x19
 2500 0118 00       		.byte	0
 2501 0119 00       		.byte	0
 2502 011a 17       		.uleb128 0x17
 2503 011b 0F       		.uleb128 0xf
 2504 011c 00       		.byte	0
 2505 011d 0B       		.uleb128 0xb
 2506 011e 0B       		.uleb128 0xb
 2507 011f 00       		.byte	0
 2508 0120 00       		.byte	0
 2509 0121 18       		.uleb128 0x18
 2510 0122 17       		.uleb128 0x17
 2511 0123 01       		.byte	0x1
 2512 0124 0B       		.uleb128 0xb
 2513 0125 0B       		.uleb128 0xb
 2514 0126 3A       		.uleb128 0x3a
 2515 0127 0B       		.uleb128 0xb
 2516 0128 3B       		.uleb128 0x3b
 2517 0129 0B       		.uleb128 0xb
 2518 012a 01       		.uleb128 0x1
 2519 012b 13       		.uleb128 0x13
 2520 012c 00       		.byte	0
 2521 012d 00       		.byte	0
 2522 012e 19       		.uleb128 0x19
 2523 012f 0D       		.uleb128 0xd
 2524 0130 00       		.byte	0
 2525 0131 03       		.uleb128 0x3
 2526 0132 0E       		.uleb128 0xe
 2527 0133 3A       		.uleb128 0x3a
 2528 0134 0B       		.uleb128 0xb
 2529 0135 3B       		.uleb128 0x3b
 2530 0136 0B       		.uleb128 0xb
 2531 0137 49       		.uleb128 0x49
 2532 0138 13       		.uleb128 0x13
 2533 0139 00       		.byte	0
 2534 013a 00       		.byte	0
 2535 013b 1A       		.uleb128 0x1a
 2536 013c 13       		.uleb128 0x13
 2537 013d 01       		.byte	0x1
 2538 013e 03       		.uleb128 0x3
ARM GAS  /tmp/ccURwfKD.s 			page 47


 2539 013f 0E       		.uleb128 0xe
 2540 0140 0B       		.uleb128 0xb
 2541 0141 0B       		.uleb128 0xb
 2542 0142 3A       		.uleb128 0x3a
 2543 0143 0B       		.uleb128 0xb
 2544 0144 3B       		.uleb128 0x3b
 2545 0145 0B       		.uleb128 0xb
 2546 0146 01       		.uleb128 0x1
 2547 0147 13       		.uleb128 0x13
 2548 0148 00       		.byte	0
 2549 0149 00       		.byte	0
 2550 014a 1B       		.uleb128 0x1b
 2551 014b 0D       		.uleb128 0xd
 2552 014c 00       		.byte	0
 2553 014d 03       		.uleb128 0x3
 2554 014e 08       		.uleb128 0x8
 2555 014f 3A       		.uleb128 0x3a
 2556 0150 0B       		.uleb128 0xb
 2557 0151 3B       		.uleb128 0x3b
 2558 0152 0B       		.uleb128 0xb
 2559 0153 49       		.uleb128 0x49
 2560 0154 13       		.uleb128 0x13
 2561 0155 38       		.uleb128 0x38
 2562 0156 0B       		.uleb128 0xb
 2563 0157 00       		.byte	0
 2564 0158 00       		.byte	0
 2565 0159 1C       		.uleb128 0x1c
 2566 015a 13       		.uleb128 0x13
 2567 015b 01       		.byte	0x1
 2568 015c 03       		.uleb128 0x3
 2569 015d 0E       		.uleb128 0xe
 2570 015e 0B       		.uleb128 0xb
 2571 015f 05       		.uleb128 0x5
 2572 0160 3A       		.uleb128 0x3a
 2573 0161 0B       		.uleb128 0xb
 2574 0162 3B       		.uleb128 0x3b
 2575 0163 0B       		.uleb128 0xb
 2576 0164 01       		.uleb128 0x1
 2577 0165 13       		.uleb128 0x13
 2578 0166 00       		.byte	0
 2579 0167 00       		.byte	0
 2580 0168 1D       		.uleb128 0x1d
 2581 0169 0D       		.uleb128 0xd
 2582 016a 00       		.byte	0
 2583 016b 03       		.uleb128 0x3
 2584 016c 0E       		.uleb128 0xe
 2585 016d 3A       		.uleb128 0x3a
 2586 016e 0B       		.uleb128 0xb
 2587 016f 3B       		.uleb128 0x3b
 2588 0170 0B       		.uleb128 0xb
 2589 0171 49       		.uleb128 0x49
 2590 0172 13       		.uleb128 0x13
 2591 0173 38       		.uleb128 0x38
 2592 0174 05       		.uleb128 0x5
 2593 0175 00       		.byte	0
 2594 0176 00       		.byte	0
 2595 0177 1E       		.uleb128 0x1e
ARM GAS  /tmp/ccURwfKD.s 			page 48


 2596 0178 15       		.uleb128 0x15
 2597 0179 01       		.byte	0x1
 2598 017a 27       		.uleb128 0x27
 2599 017b 19       		.uleb128 0x19
 2600 017c 49       		.uleb128 0x49
 2601 017d 13       		.uleb128 0x13
 2602 017e 01       		.uleb128 0x1
 2603 017f 13       		.uleb128 0x13
 2604 0180 00       		.byte	0
 2605 0181 00       		.byte	0
 2606 0182 1F       		.uleb128 0x1f
 2607 0183 05       		.uleb128 0x5
 2608 0184 00       		.byte	0
 2609 0185 49       		.uleb128 0x49
 2610 0186 13       		.uleb128 0x13
 2611 0187 00       		.byte	0
 2612 0188 00       		.byte	0
 2613 0189 20       		.uleb128 0x20
 2614 018a 26       		.uleb128 0x26
 2615 018b 00       		.byte	0
 2616 018c 49       		.uleb128 0x49
 2617 018d 13       		.uleb128 0x13
 2618 018e 00       		.byte	0
 2619 018f 00       		.byte	0
 2620 0190 21       		.uleb128 0x21
 2621 0191 13       		.uleb128 0x13
 2622 0192 01       		.byte	0x1
 2623 0193 03       		.uleb128 0x3
 2624 0194 0E       		.uleb128 0xe
 2625 0195 0B       		.uleb128 0xb
 2626 0196 05       		.uleb128 0x5
 2627 0197 3A       		.uleb128 0x3a
 2628 0198 0B       		.uleb128 0xb
 2629 0199 3B       		.uleb128 0x3b
 2630 019a 05       		.uleb128 0x5
 2631 019b 01       		.uleb128 0x1
 2632 019c 13       		.uleb128 0x13
 2633 019d 00       		.byte	0
 2634 019e 00       		.byte	0
 2635 019f 22       		.uleb128 0x22
 2636 01a0 0D       		.uleb128 0xd
 2637 01a1 00       		.byte	0
 2638 01a2 03       		.uleb128 0x3
 2639 01a3 0E       		.uleb128 0xe
 2640 01a4 3A       		.uleb128 0x3a
 2641 01a5 0B       		.uleb128 0xb
 2642 01a6 3B       		.uleb128 0x3b
 2643 01a7 05       		.uleb128 0x5
 2644 01a8 49       		.uleb128 0x49
 2645 01a9 13       		.uleb128 0x13
 2646 01aa 38       		.uleb128 0x38
 2647 01ab 05       		.uleb128 0x5
 2648 01ac 00       		.byte	0
 2649 01ad 00       		.byte	0
 2650 01ae 23       		.uleb128 0x23
 2651 01af 13       		.uleb128 0x13
 2652 01b0 01       		.byte	0x1
ARM GAS  /tmp/ccURwfKD.s 			page 49


 2653 01b1 03       		.uleb128 0x3
 2654 01b2 0E       		.uleb128 0xe
 2655 01b3 0B       		.uleb128 0xb
 2656 01b4 0B       		.uleb128 0xb
 2657 01b5 3A       		.uleb128 0x3a
 2658 01b6 0B       		.uleb128 0xb
 2659 01b7 3B       		.uleb128 0x3b
 2660 01b8 05       		.uleb128 0x5
 2661 01b9 01       		.uleb128 0x1
 2662 01ba 13       		.uleb128 0x13
 2663 01bb 00       		.byte	0
 2664 01bc 00       		.byte	0
 2665 01bd 24       		.uleb128 0x24
 2666 01be 17       		.uleb128 0x17
 2667 01bf 01       		.byte	0x1
 2668 01c0 0B       		.uleb128 0xb
 2669 01c1 0B       		.uleb128 0xb
 2670 01c2 3A       		.uleb128 0x3a
 2671 01c3 0B       		.uleb128 0xb
 2672 01c4 3B       		.uleb128 0x3b
 2673 01c5 05       		.uleb128 0x5
 2674 01c6 01       		.uleb128 0x1
 2675 01c7 13       		.uleb128 0x13
 2676 01c8 00       		.byte	0
 2677 01c9 00       		.byte	0
 2678 01ca 25       		.uleb128 0x25
 2679 01cb 0D       		.uleb128 0xd
 2680 01cc 00       		.byte	0
 2681 01cd 03       		.uleb128 0x3
 2682 01ce 0E       		.uleb128 0xe
 2683 01cf 3A       		.uleb128 0x3a
 2684 01d0 0B       		.uleb128 0xb
 2685 01d1 3B       		.uleb128 0x3b
 2686 01d2 05       		.uleb128 0x5
 2687 01d3 49       		.uleb128 0x49
 2688 01d4 13       		.uleb128 0x13
 2689 01d5 00       		.byte	0
 2690 01d6 00       		.byte	0
 2691 01d7 26       		.uleb128 0x26
 2692 01d8 15       		.uleb128 0x15
 2693 01d9 01       		.byte	0x1
 2694 01da 27       		.uleb128 0x27
 2695 01db 19       		.uleb128 0x19
 2696 01dc 01       		.uleb128 0x1
 2697 01dd 13       		.uleb128 0x13
 2698 01de 00       		.byte	0
 2699 01df 00       		.byte	0
 2700 01e0 27       		.uleb128 0x27
 2701 01e1 04       		.uleb128 0x4
 2702 01e2 01       		.byte	0x1
 2703 01e3 03       		.uleb128 0x3
 2704 01e4 0E       		.uleb128 0xe
 2705 01e5 0B       		.uleb128 0xb
 2706 01e6 0B       		.uleb128 0xb
 2707 01e7 49       		.uleb128 0x49
 2708 01e8 13       		.uleb128 0x13
 2709 01e9 3A       		.uleb128 0x3a
ARM GAS  /tmp/ccURwfKD.s 			page 50


 2710 01ea 0B       		.uleb128 0xb
 2711 01eb 3B       		.uleb128 0x3b
 2712 01ec 05       		.uleb128 0x5
 2713 01ed 01       		.uleb128 0x1
 2714 01ee 13       		.uleb128 0x13
 2715 01ef 00       		.byte	0
 2716 01f0 00       		.byte	0
 2717 01f1 28       		.uleb128 0x28
 2718 01f2 28       		.uleb128 0x28
 2719 01f3 00       		.byte	0
 2720 01f4 03       		.uleb128 0x3
 2721 01f5 0E       		.uleb128 0xe
 2722 01f6 1C       		.uleb128 0x1c
 2723 01f7 0D       		.uleb128 0xd
 2724 01f8 00       		.byte	0
 2725 01f9 00       		.byte	0
 2726 01fa 29       		.uleb128 0x29
 2727 01fb 2E       		.uleb128 0x2e
 2728 01fc 01       		.byte	0x1
 2729 01fd 3F       		.uleb128 0x3f
 2730 01fe 19       		.uleb128 0x19
 2731 01ff 03       		.uleb128 0x3
 2732 0200 0E       		.uleb128 0xe
 2733 0201 3A       		.uleb128 0x3a
 2734 0202 0B       		.uleb128 0xb
 2735 0203 3B       		.uleb128 0x3b
 2736 0204 0B       		.uleb128 0xb
 2737 0205 27       		.uleb128 0x27
 2738 0206 19       		.uleb128 0x19
 2739 0207 11       		.uleb128 0x11
 2740 0208 01       		.uleb128 0x1
 2741 0209 12       		.uleb128 0x12
 2742 020a 06       		.uleb128 0x6
 2743 020b 40       		.uleb128 0x40
 2744 020c 18       		.uleb128 0x18
 2745 020d 9642     		.uleb128 0x2116
 2746 020f 19       		.uleb128 0x19
 2747 0210 01       		.uleb128 0x1
 2748 0211 13       		.uleb128 0x13
 2749 0212 00       		.byte	0
 2750 0213 00       		.byte	0
 2751 0214 2A       		.uleb128 0x2a
 2752 0215 34       		.uleb128 0x34
 2753 0216 00       		.byte	0
 2754 0217 03       		.uleb128 0x3
 2755 0218 0E       		.uleb128 0xe
 2756 0219 3A       		.uleb128 0x3a
 2757 021a 0B       		.uleb128 0xb
 2758 021b 3B       		.uleb128 0x3b
 2759 021c 0B       		.uleb128 0xb
 2760 021d 49       		.uleb128 0x49
 2761 021e 13       		.uleb128 0x13
 2762 021f 02       		.uleb128 0x2
 2763 0220 18       		.uleb128 0x18
 2764 0221 00       		.byte	0
 2765 0222 00       		.byte	0
 2766 0223 2B       		.uleb128 0x2b
ARM GAS  /tmp/ccURwfKD.s 			page 51


 2767 0224 2E       		.uleb128 0x2e
 2768 0225 01       		.byte	0x1
 2769 0226 3F       		.uleb128 0x3f
 2770 0227 19       		.uleb128 0x19
 2771 0228 03       		.uleb128 0x3
 2772 0229 0E       		.uleb128 0xe
 2773 022a 3A       		.uleb128 0x3a
 2774 022b 0B       		.uleb128 0xb
 2775 022c 3B       		.uleb128 0x3b
 2776 022d 0B       		.uleb128 0xb
 2777 022e 27       		.uleb128 0x27
 2778 022f 19       		.uleb128 0x19
 2779 0230 49       		.uleb128 0x49
 2780 0231 13       		.uleb128 0x13
 2781 0232 11       		.uleb128 0x11
 2782 0233 01       		.uleb128 0x1
 2783 0234 12       		.uleb128 0x12
 2784 0235 06       		.uleb128 0x6
 2785 0236 40       		.uleb128 0x40
 2786 0237 18       		.uleb128 0x18
 2787 0238 9642     		.uleb128 0x2116
 2788 023a 19       		.uleb128 0x19
 2789 023b 00       		.byte	0
 2790 023c 00       		.byte	0
 2791 023d 00       		.byte	0
 2792              		.section	.debug_aranges,"",%progbits
 2793 0000 1C000000 		.4byte	0x1c
 2794 0004 0200     		.2byte	0x2
 2795 0006 00000000 		.4byte	.Ldebug_info0
 2796 000a 04       		.byte	0x4
 2797 000b 00       		.byte	0
 2798 000c 0000     		.2byte	0
 2799 000e 0000     		.2byte	0
 2800 0010 00000000 		.4byte	.Ltext0
 2801 0014 7C010000 		.4byte	.Letext0-.Ltext0
 2802 0018 00000000 		.4byte	0
 2803 001c 00000000 		.4byte	0
 2804              		.section	.debug_line,"",%progbits
 2805              	.Ldebug_line0:
 2806 0000 0A020000 		.section	.debug_str,"MS",%progbits,1
 2806      0200B101 
 2806      00000201 
 2806      FB0E0D00 
 2806      01010101 
 2807              	.LASF219:
 2808 0000 4750494F 		.ascii	"GPIO_Conf\000"
 2808      5F436F6E 
 2808      6600
 2809              	.LASF78:
 2810 000a 4750494F 		.ascii	"GPIO_Mode_IPU\000"
 2810      5F4D6F64 
 2810      655F4950 
 2810      5500
 2811              	.LASF88:
 2812 0018 4E564943 		.ascii	"NVIC_IRQChannel\000"
 2812      5F495251 
 2812      4368616E 
ARM GAS  /tmp/ccURwfKD.s 			page 52


 2812      6E656C00 
 2813              	.LASF218:
 2814 0028 4E564943 		.ascii	"NVIC_Conf\000"
 2814      5F436F6E 
 2814      6600
 2815              	.LASF19:
 2816 0032 73697A65 		.ascii	"sizetype\000"
 2816      74797065 
 2816      00
 2817              	.LASF110:
 2818 003b 5F5F7661 		.ascii	"__value\000"
 2818      6C756500 
 2819              	.LASF178:
 2820 0043 5F5F7366 		.ascii	"__sf\000"
 2820      00
 2821              	.LASF145:
 2822 0048 5F726561 		.ascii	"_read\000"
 2822      6400
 2823              	.LASF146:
 2824 004e 5F777269 		.ascii	"_write\000"
 2824      746500
 2825              	.LASF17:
 2826 0055 696E7433 		.ascii	"int32_t\000"
 2826      325F7400 
 2827              	.LASF190:
 2828 005d 5F617363 		.ascii	"_asctime_buf\000"
 2828      74696D65 
 2828      5F627566 
 2828      00
 2829              	.LASF172:
 2830 006a 5F637674 		.ascii	"_cvtlen\000"
 2830      6C656E00 
 2831              	.LASF209:
 2832 0072 5F756E75 		.ascii	"_unused\000"
 2832      73656400 
 2833              	.LASF119:
 2834 007a 5F5F746D 		.ascii	"__tm\000"
 2834      00
 2835              	.LASF205:
 2836 007f 5F776373 		.ascii	"_wcsrtombs_state\000"
 2836      72746F6D 
 2836      62735F73 
 2836      74617465 
 2836      00
 2837              	.LASF150:
 2838 0090 5F6E6275 		.ascii	"_nbuf\000"
 2838      6600
 2839              	.LASF120:
 2840 0096 5F5F746D 		.ascii	"__tm_sec\000"
 2840      5F736563 
 2840      00
 2841              	.LASF198:
 2842 009f 5F6C3634 		.ascii	"_l64a_buf\000"
 2842      615F6275 
 2842      6600
 2843              	.LASF166:
 2844 00a9 5F5F7364 		.ascii	"__sdidinit\000"
ARM GAS  /tmp/ccURwfKD.s 			page 53


 2844      6964696E 
 2844      697400
 2845              	.LASF154:
 2846 00b4 5F6C6F63 		.ascii	"_lock\000"
 2846      6B00
 2847              	.LASF228:
 2848 00ba 2F686F6D 		.ascii	"/home/enbin/Documents/code/STM/stm32-quadrocopter\000"
 2848      652F656E 
 2848      62696E2F 
 2848      446F6375 
 2848      6D656E74 
 2849              	.LASF65:
 2850 00ec 4932435F 		.ascii	"I2C_Mode\000"
 2850      4D6F6465 
 2850      00
 2851              	.LASF186:
 2852 00f5 5F6D756C 		.ascii	"_mult\000"
 2852      7400
 2853              	.LASF61:
 2854 00fb 444D4152 		.ascii	"DMAR\000"
 2854      00
 2855              	.LASF220:
 2856 0100 4E564943 		.ascii	"NVIC_InitStructure\000"
 2856      5F496E69 
 2856      74537472 
 2856      75637475 
 2856      726500
 2857              	.LASF50:
 2858 0113 43435231 		.ascii	"CCR1\000"
 2858      00
 2859              	.LASF52:
 2860 0118 43435232 		.ascii	"CCR2\000"
 2860      00
 2861              	.LASF54:
 2862 011d 43435233 		.ascii	"CCR3\000"
 2862      00
 2863              	.LASF56:
 2864 0122 43435234 		.ascii	"CCR4\000"
 2864      00
 2865              	.LASF2:
 2866 0127 5F5F7569 		.ascii	"__uint8_t\000"
 2866      6E74385F 
 2866      7400
 2867              	.LASF227:
 2868 0131 7372632F 		.ascii	"src/lib.c\000"
 2868      6C69622E 
 2868      6300
 2869              	.LASF142:
 2870 013b 5F66696C 		.ascii	"_file\000"
 2870      6500
 2871              	.LASF129:
 2872 0141 5F6F6E5F 		.ascii	"_on_exit_args\000"
 2872      65786974 
 2872      5F617267 
 2872      7300
 2873              	.LASF85:
 2874 014f 4750494F 		.ascii	"GPIO_Speed\000"
ARM GAS  /tmp/ccURwfKD.s 			page 54


 2874      5F537065 
 2874      656400
 2875              	.LASF91:
 2876 015a 4E564943 		.ascii	"NVIC_IRQChannelCmd\000"
 2876      5F495251 
 2876      4368616E 
 2876      6E656C43 
 2876      6D6400
 2877              	.LASF107:
 2878 016d 5F5F7763 		.ascii	"__wch\000"
 2878      6800
 2879              	.LASF97:
 2880 0173 477A5F6F 		.ascii	"Gz_offset\000"
 2880      66667365 
 2880      7400
 2881              	.LASF201:
 2882 017d 5F6D6272 		.ascii	"_mbrlen_state\000"
 2882      6C656E5F 
 2882      73746174 
 2882      6500
 2883              	.LASF8:
 2884 018b 6C6F6E67 		.ascii	"long int\000"
 2884      20696E74 
 2884      00
 2885              	.LASF223:
 2886 0194 4932435F 		.ascii	"I2C_InitStructure\000"
 2886      496E6974 
 2886      53747275 
 2886      63747572 
 2886      6500
 2887              	.LASF210:
 2888 01a6 5F696D70 		.ascii	"_impure_ptr\000"
 2888      7572655F 
 2888      70747200 
 2889              	.LASF169:
 2890 01b2 5F726573 		.ascii	"_result_k\000"
 2890      756C745F 
 2890      6B00
 2891              	.LASF139:
 2892 01bc 5F73697A 		.ascii	"_size\000"
 2892      6500
 2893              	.LASF75:
 2894 01c2 4750494F 		.ascii	"GPIO_Mode_AIN\000"
 2894      5F4D6F64 
 2894      655F4149 
 2894      4E00
 2895              	.LASF191:
 2896 01d0 5F6C6F63 		.ascii	"_localtime_buf\000"
 2896      616C7469 
 2896      6D655F62 
 2896      756600
 2897              	.LASF112:
 2898 01df 5F666C6F 		.ascii	"_flock_t\000"
 2898      636B5F74 
 2898      00
 2899              	.LASF124:
 2900 01e8 5F5F746D 		.ascii	"__tm_mon\000"
ARM GAS  /tmp/ccURwfKD.s 			page 55


 2900      5F6D6F6E 
 2900      00
 2901              	.LASF81:
 2902 01f1 4750494F 		.ascii	"GPIO_Mode_AF_OD\000"
 2902      5F4D6F64 
 2902      655F4146 
 2902      5F4F4400 
 2903              	.LASF164:
 2904 0201 5F637572 		.ascii	"_current_category\000"
 2904      72656E74 
 2904      5F636174 
 2904      65676F72 
 2904      7900
 2905              	.LASF188:
 2906 0213 5F756E75 		.ascii	"_unused_rand\000"
 2906      7365645F 
 2906      72616E64 
 2906      00
 2907              	.LASF0:
 2908 0220 7369676E 		.ascii	"signed char\000"
 2908      65642063 
 2908      68617200 
 2909              	.LASF14:
 2910 022c 75696E74 		.ascii	"uint8_t\000"
 2910      385F7400 
 2911              	.LASF66:
 2912 0234 4932435F 		.ascii	"I2C_DutyCycle\000"
 2912      44757479 
 2912      4379636C 
 2912      6500
 2913              	.LASF87:
 2914 0242 4750494F 		.ascii	"GPIO_InitTypeDef\000"
 2914      5F496E69 
 2914      74547970 
 2914      65446566 
 2914      00
 2915              	.LASF160:
 2916 0253 5F737464 		.ascii	"_stdout\000"
 2916      6F757400 
 2917              	.LASF63:
 2918 025b 54494D5F 		.ascii	"TIM_TypeDef\000"
 2918      54797065 
 2918      44656600 
 2919              	.LASF28:
 2920 0267 52455345 		.ascii	"RESERVED0\000"
 2920      52564544 
 2920      3000
 2921              	.LASF29:
 2922 0271 52455345 		.ascii	"RESERVED1\000"
 2922      52564544 
 2922      3100
 2923              	.LASF1:
 2924 027b 756E7369 		.ascii	"unsigned char\000"
 2924      676E6564 
 2924      20636861 
 2924      7200
 2925              	.LASF33:
ARM GAS  /tmp/ccURwfKD.s 			page 56


 2926 0289 52455345 		.ascii	"RESERVED3\000"
 2926      52564544 
 2926      3300
 2927              	.LASF34:
 2928 0293 52455345 		.ascii	"RESERVED4\000"
 2928      52564544 
 2928      3400
 2929              	.LASF35:
 2930 029d 52455345 		.ascii	"RESERVED5\000"
 2930      52564544 
 2930      3500
 2931              	.LASF36:
 2932 02a7 52455345 		.ascii	"RESERVED6\000"
 2932      52564544 
 2932      3600
 2933              	.LASF37:
 2934 02b1 52455345 		.ascii	"RESERVED7\000"
 2934      52564544 
 2934      3700
 2935              	.LASF39:
 2936 02bb 52455345 		.ascii	"RESERVED8\000"
 2936      52564544 
 2936      3800
 2937              	.LASF46:
 2938 02c5 52455345 		.ascii	"RESERVED9\000"
 2938      52564544 
 2938      3900
 2939              	.LASF82:
 2940 02cf 4750494F 		.ascii	"GPIO_Mode_AF_PP\000"
 2940      5F4D6F64 
 2940      655F4146 
 2940      5F505000 
 2941              	.LASF157:
 2942 02df 5F726565 		.ascii	"_reent\000"
 2942      6E7400
 2943              	.LASF211:
 2944 02e6 5F676C6F 		.ascii	"_global_impure_ptr\000"
 2944      62616C5F 
 2944      696D7075 
 2944      72655F70 
 2944      747200
 2945              	.LASF222:
 2946 02f9 4932435F 		.ascii	"I2C_Conf\000"
 2946      436F6E66 
 2946      00
 2947              	.LASF31:
 2948 0302 52455345 		.ascii	"RESERVED2\000"
 2948      52564544 
 2948      3200
 2949              	.LASF43:
 2950 030c 43434D52 		.ascii	"CCMR1\000"
 2950      3100
 2951              	.LASF44:
 2952 0312 43434D52 		.ascii	"CCMR2\000"
 2952      3200
 2953              	.LASF179:
 2954 0318 63686172 		.ascii	"char\000"
ARM GAS  /tmp/ccURwfKD.s 			page 57


 2954      00
 2955              	.LASF136:
 2956 031d 5F666E73 		.ascii	"_fns\000"
 2956      00
 2957              	.LASF93:
 2958 0322 6779726F 		.ascii	"gyro\000"
 2958      00
 2959              	.LASF148:
 2960 0327 5F636C6F 		.ascii	"_close\000"
 2960      736500
 2961              	.LASF89:
 2962 032e 4E564943 		.ascii	"NVIC_IRQChannelPreemptionPriority\000"
 2962      5F495251 
 2962      4368616E 
 2962      6E656C50 
 2962      7265656D 
 2963              	.LASF79:
 2964 0350 4750494F 		.ascii	"GPIO_Mode_Out_OD\000"
 2964      5F4D6F64 
 2964      655F4F75 
 2964      745F4F44 
 2964      00
 2965              	.LASF5:
 2966 0361 5F5F7569 		.ascii	"__uint16_t\000"
 2966      6E743136 
 2966      5F7400
 2967              	.LASF159:
 2968 036c 5F737464 		.ascii	"_stdin\000"
 2968      696E00
 2969              	.LASF73:
 2970 0373 4750494F 		.ascii	"GPIO_Speed_50MHz\000"
 2970      5F537065 
 2970      65645F35 
 2970      304D487A 
 2970      00
 2971              	.LASF133:
 2972 0384 5F69735F 		.ascii	"_is_cxa\000"
 2972      63786100 
 2973              	.LASF80:
 2974 038c 4750494F 		.ascii	"GPIO_Mode_Out_PP\000"
 2974      5F4D6F64 
 2974      655F4F75 
 2974      745F5050 
 2974      00
 2975              	.LASF70:
 2976 039d 4932435F 		.ascii	"I2C_InitTypeDef\000"
 2976      496E6974 
 2976      54797065 
 2976      44656600 
 2977              	.LASF144:
 2978 03ad 5F636F6F 		.ascii	"_cookie\000"
 2978      6B696500 
 2979              	.LASF117:
 2980 03b5 5F776473 		.ascii	"_wds\000"
 2980      00
 2981              	.LASF176:
 2982 03ba 5F736967 		.ascii	"_sig_func\000"
ARM GAS  /tmp/ccURwfKD.s 			page 58


 2982      5F66756E 
 2982      6300
 2983              	.LASF152:
 2984 03c4 5F6F6666 		.ascii	"_offset\000"
 2984      73657400 
 2985              	.LASF173:
 2986 03cc 5F637674 		.ascii	"_cvtbuf\000"
 2986      62756600 
 2987              	.LASF217:
 2988 03d4 5F5F6664 		.ascii	"__fdlib_version\000"
 2988      6C69625F 
 2988      76657273 
 2988      696F6E00 
 2989              	.LASF170:
 2990 03e4 5F703573 		.ascii	"_p5s\000"
 2990      00
 2991              	.LASF10:
 2992 03e9 6C6F6E67 		.ascii	"long unsigned int\000"
 2992      20756E73 
 2992      69676E65 
 2992      6420696E 
 2992      7400
 2993              	.LASF69:
 2994 03fb 4932435F 		.ascii	"I2C_AcknowledgedAddress\000"
 2994      41636B6E 
 2994      6F776C65 
 2994      64676564 
 2994      41646472 
 2995              	.LASF140:
 2996 0413 5F5F7346 		.ascii	"__sFILE\000"
 2996      494C4500 
 2997              	.LASF42:
 2998 041b 44494552 		.ascii	"DIER\000"
 2998      00
 2999              	.LASF156:
 3000 0420 5F666C61 		.ascii	"_flags2\000"
 3000      67733200 
 3001              	.LASF21:
 3002 0428 53797374 		.ascii	"SystemCoreClock\000"
 3002      656D436F 
 3002      7265436C 
 3002      6F636B00 
 3003              	.LASF103:
 3004 0438 5F4C4F43 		.ascii	"_LOCK_RECURSIVE_T\000"
 3004      4B5F5245 
 3004      43555253 
 3004      4956455F 
 3004      5400
 3005              	.LASF158:
 3006 044a 5F657272 		.ascii	"_errno\000"
 3006      6E6F00
 3007              	.LASF38:
 3008 0451 54524953 		.ascii	"TRISE\000"
 3008      4500
 3009              	.LASF98:
 3010 0457 41636331 		.ascii	"Acc1G_Values\000"
 3010      475F5661 
ARM GAS  /tmp/ccURwfKD.s 			page 59


 3010      6C756573 
 3010      00
 3011              	.LASF101:
 3012 0464 526F6C6C 		.ascii	"Roll\000"
 3012      00
 3013              	.LASF199:
 3014 0469 5F736967 		.ascii	"_signal_buf\000"
 3014      6E616C5F 
 3014      62756600 
 3015              	.LASF26:
 3016 0475 4C434B52 		.ascii	"LCKR\000"
 3016      00
 3017              	.LASF118:
 3018 047a 5F426967 		.ascii	"_Bigint\000"
 3018      696E7400 
 3019              	.LASF67:
 3020 0482 4932435F 		.ascii	"I2C_OwnAddress1\000"
 3020      4F776E41 
 3020      64647265 
 3020      73733100 
 3021              	.LASF115:
 3022 0492 5F6D6178 		.ascii	"_maxwds\000"
 3022      77647300 
 3023              	.LASF167:
 3024 049a 5F5F636C 		.ascii	"__cleanup\000"
 3024      65616E75 
 3024      7000
 3025              	.LASF175:
 3026 04a4 5F617465 		.ascii	"_atexit0\000"
 3026      78697430 
 3026      00
 3027              	.LASF214:
 3028 04ad 5F5F6664 		.ascii	"__fdlibm_svid\000"
 3028      6C69626D 
 3028      5F737669 
 3028      6400
 3029              	.LASF9:
 3030 04bb 5F5F7569 		.ascii	"__uint32_t\000"
 3030      6E743332 
 3030      5F7400
 3031              	.LASF163:
 3032 04c6 5F656D65 		.ascii	"_emergency\000"
 3032      7267656E 
 3032      637900
 3033              	.LASF11:
 3034 04d1 6C6F6E67 		.ascii	"long long int\000"
 3034      206C6F6E 
 3034      6720696E 
 3034      7400
 3035              	.LASF182:
 3036 04df 5F6E696F 		.ascii	"_niobs\000"
 3036      627300
 3037              	.LASF96:
 3038 04e6 47795F6F 		.ascii	"Gy_offset\000"
 3038      66667365 
 3038      7400
 3039              	.LASF177:
ARM GAS  /tmp/ccURwfKD.s 			page 60


 3040 04f0 5F5F7367 		.ascii	"__sglue\000"
 3040      6C756500 
 3041              	.LASF208:
 3042 04f8 5F6E6D61 		.ascii	"_nmalloc\000"
 3042      6C6C6F63 
 3042      00
 3043              	.LASF212:
 3044 0501 646F7562 		.ascii	"double\000"
 3044      6C6500
 3045              	.LASF192:
 3046 0508 5F67616D 		.ascii	"_gamma_signgam\000"
 3046      6D615F73 
 3046      69676E67 
 3046      616D00
 3047              	.LASF165:
 3048 0517 5F637572 		.ascii	"_current_locale\000"
 3048      72656E74 
 3048      5F6C6F63 
 3048      616C6500 
 3049              	.LASF171:
 3050 0527 5F667265 		.ascii	"_freelist\000"
 3050      656C6973 
 3050      7400
 3051              	.LASF183:
 3052 0531 5F696F62 		.ascii	"_iobs\000"
 3052      7300
 3053              	.LASF181:
 3054 0537 5F676C75 		.ascii	"_glue\000"
 3054      6500
 3055              	.LASF20:
 3056 053d 49544D5F 		.ascii	"ITM_RxBuffer\000"
 3056      52784275 
 3056      66666572 
 3056      00
 3057              	.LASF116:
 3058 054a 5F736967 		.ascii	"_sign\000"
 3058      6E00
 3059              	.LASF99:
 3060 0550 666C6F61 		.ascii	"float\000"
 3060      7400
 3061              	.LASF13:
 3062 0556 756E7369 		.ascii	"unsigned int\000"
 3062      676E6564 
 3062      20696E74 
 3062      00
 3063              	.LASF206:
 3064 0563 5F685F65 		.ascii	"_h_errno\000"
 3064      72726E6F 
 3064      00
 3065              	.LASF123:
 3066 056c 5F5F746D 		.ascii	"__tm_mday\000"
 3066      5F6D6461 
 3066      7900
 3067              	.LASF174:
 3068 0576 5F6E6577 		.ascii	"_new\000"
 3068      00
 3069              	.LASF149:
ARM GAS  /tmp/ccURwfKD.s 			page 61


 3070 057b 5F756275 		.ascii	"_ubuf\000"
 3070      6600
 3071              	.LASF161:
 3072 0581 5F737464 		.ascii	"_stderr\000"
 3072      65727200 
 3073              	.LASF197:
 3074 0589 5F776374 		.ascii	"_wctomb_state\000"
 3074      6F6D625F 
 3074      73746174 
 3074      6500
 3075              	.LASF155:
 3076 0597 5F6D6273 		.ascii	"_mbstate\000"
 3076      74617465 
 3076      00
 3077              	.LASF193:
 3078 05a0 5F72616E 		.ascii	"_rand_next\000"
 3078      645F6E65 
 3078      787400
 3079              	.LASF141:
 3080 05ab 5F666C61 		.ascii	"_flags\000"
 3080      677300
 3081              	.LASF134:
 3082 05b2 5F617465 		.ascii	"_atexit\000"
 3082      78697400 
 3083              	.LASF224:
 3084 05ba 48435352 		.ascii	"HCSR04_Get\000"
 3084      30345F47 
 3084      657400
 3085              	.LASF109:
 3086 05c5 5F5F636F 		.ascii	"__count\000"
 3086      756E7400 
 3087              	.LASF90:
 3088 05cd 4E564943 		.ascii	"NVIC_IRQChannelSubPriority\000"
 3088      5F495251 
 3088      4368616E 
 3088      6E656C53 
 3088      75625072 
 3089              	.LASF22:
 3090 05e8 44495341 		.ascii	"DISABLE\000"
 3090      424C4500 
 3091              	.LASF102:
 3092 05f0 6C6F6E67 		.ascii	"long double\000"
 3092      20646F75 
 3092      626C6500 
 3093              	.LASF127:
 3094 05fc 5F5F746D 		.ascii	"__tm_yday\000"
 3094      5F796461 
 3094      7900
 3095              	.LASF185:
 3096 0606 5F736565 		.ascii	"_seed\000"
 3096      6400
 3097              	.LASF147:
 3098 060c 5F736565 		.ascii	"_seek\000"
 3098      6B00
 3099              	.LASF105:
 3100 0612 5F66706F 		.ascii	"_fpos_t\000"
 3100      735F7400 
ARM GAS  /tmp/ccURwfKD.s 			page 62


 3101              	.LASF68:
 3102 061a 4932435F 		.ascii	"I2C_Ack\000"
 3102      41636B00 
 3103              	.LASF108:
 3104 0622 5F5F7763 		.ascii	"__wchb\000"
 3104      686200
 3105              	.LASF196:
 3106 0629 5F6D6274 		.ascii	"_mbtowc_state\000"
 3106      6F77635F 
 3106      73746174 
 3106      6500
 3107              	.LASF24:
 3108 0637 46756E63 		.ascii	"FunctionalState\000"
 3108      74696F6E 
 3108      616C5374 
 3108      61746500 
 3109              	.LASF12:
 3110 0647 6C6F6E67 		.ascii	"long long unsigned int\000"
 3110      206C6F6E 
 3110      6720756E 
 3110      7369676E 
 3110      65642069 
 3111              	.LASF225:
 3112 065e 6C656E67 		.ascii	"length\000"
 3112      746800
 3113              	.LASF16:
 3114 0665 75696E74 		.ascii	"uint16_t\000"
 3114      31365F74 
 3114      00
 3115              	.LASF131:
 3116 066e 5F64736F 		.ascii	"_dso_handle\000"
 3116      5F68616E 
 3116      646C6500 
 3117              	.LASF184:
 3118 067a 5F72616E 		.ascii	"_rand48\000"
 3118      64343800 
 3119              	.LASF47:
 3120 0682 52455345 		.ascii	"RESERVED10\000"
 3120      52564544 
 3120      313000
 3121              	.LASF45:
 3122 068d 43434552 		.ascii	"CCER\000"
 3122      00
 3123              	.LASF49:
 3124 0692 52455345 		.ascii	"RESERVED12\000"
 3124      52564544 
 3124      313200
 3125              	.LASF51:
 3126 069d 52455345 		.ascii	"RESERVED13\000"
 3126      52564544 
 3126      313300
 3127              	.LASF53:
 3128 06a8 52455345 		.ascii	"RESERVED14\000"
 3128      52564544 
 3128      313400
 3129              	.LASF55:
 3130 06b3 52455345 		.ascii	"RESERVED15\000"
ARM GAS  /tmp/ccURwfKD.s 			page 63


 3130      52564544 
 3130      313500
 3131              	.LASF57:
 3132 06be 52455345 		.ascii	"RESERVED16\000"
 3132      52564544 
 3132      313600
 3133              	.LASF59:
 3134 06c9 52455345 		.ascii	"RESERVED17\000"
 3134      52564544 
 3134      313700
 3135              	.LASF60:
 3136 06d4 52455345 		.ascii	"RESERVED18\000"
 3136      52564544 
 3136      313800
 3137              	.LASF62:
 3138 06df 52455345 		.ascii	"RESERVED19\000"
 3138      52564544 
 3138      313900
 3139              	.LASF229:
 3140 06ea 5F5F6664 		.ascii	"__fdlibm_version\000"
 3140      6C69626D 
 3140      5F766572 
 3140      73696F6E 
 3140      00
 3141              	.LASF151:
 3142 06fb 5F626C6B 		.ascii	"_blksize\000"
 3142      73697A65 
 3142      00
 3143              	.LASF221:
 3144 0704 4750494F 		.ascii	"GPIO_InitStructure\000"
 3144      5F496E69 
 3144      74537472 
 3144      75637475 
 3144      726500
 3145              	.LASF138:
 3146 0717 5F626173 		.ascii	"_base\000"
 3146      6500
 3147              	.LASF86:
 3148 071d 4750494F 		.ascii	"GPIO_Mode\000"
 3148      5F4D6F64 
 3148      6500
 3149              	.LASF189:
 3150 0727 5F737472 		.ascii	"_strtok_last\000"
 3150      746F6B5F 
 3150      6C617374 
 3150      00
 3151              	.LASF40:
 3152 0734 4932435F 		.ascii	"I2C_TypeDef\000"
 3152      54797065 
 3152      44656600 
 3153              	.LASF202:
 3154 0740 5F6D6272 		.ascii	"_mbrtowc_state\000"
 3154      746F7763 
 3154      5F737461 
 3154      746500
 3155              	.LASF41:
 3156 074f 534D4352 		.ascii	"SMCR\000"
ARM GAS  /tmp/ccURwfKD.s 			page 64


 3156      00
 3157              	.LASF180:
 3158 0754 5F5F4649 		.ascii	"__FILE\000"
 3158      4C4500
 3159              	.LASF204:
 3160 075b 5F776372 		.ascii	"_wcrtomb_state\000"
 3160      746F6D62 
 3160      5F737461 
 3160      746500
 3161              	.LASF83:
 3162 076a 4750494F 		.ascii	"GPIOMode_TypeDef\000"
 3162      4D6F6465 
 3162      5F547970 
 3162      65446566 
 3162      00
 3163              	.LASF3:
 3164 077b 5F5F696E 		.ascii	"__int16_t\000"
 3164      7431365F 
 3164      7400
 3165              	.LASF111:
 3166 0785 5F6D6273 		.ascii	"_mbstate_t\000"
 3166      74617465 
 3166      5F7400
 3167              	.LASF194:
 3168 0790 5F723438 		.ascii	"_r48\000"
 3168      00
 3169              	.LASF106:
 3170 0795 77696E74 		.ascii	"wint_t\000"
 3170      5F7400
 3171              	.LASF114:
 3172 079c 5F6E6578 		.ascii	"_next\000"
 3172      7400
 3173              	.LASF153:
 3174 07a2 5F646174 		.ascii	"_data\000"
 3174      6100
 3175              	.LASF30:
 3176 07a8 4F415231 		.ascii	"OAR1\000"
 3176      00
 3177              	.LASF32:
 3178 07ad 4F415232 		.ascii	"OAR2\000"
 3178      00
 3179              	.LASF72:
 3180 07b2 4750494F 		.ascii	"GPIO_Speed_2MHz\000"
 3180      5F537065 
 3180      65645F32 
 3180      4D487A00 
 3181              	.LASF74:
 3182 07c2 4750494F 		.ascii	"GPIOSpeed_TypeDef\000"
 3182      53706565 
 3182      645F5479 
 3182      70654465 
 3182      6600
 3183              	.LASF84:
 3184 07d4 4750494F 		.ascii	"GPIO_Pin\000"
 3184      5F50696E 
 3184      00
 3185              	.LASF216:
ARM GAS  /tmp/ccURwfKD.s 			page 65


 3186 07dd 5F5F6664 		.ascii	"__fdlibm_posix\000"
 3186      6C69626D 
 3186      5F706F73 
 3186      697800
 3187              	.LASF195:
 3188 07ec 5F6D626C 		.ascii	"_mblen_state\000"
 3188      656E5F73 
 3188      74617465 
 3188      00
 3189              	.LASF4:
 3190 07f9 73686F72 		.ascii	"short int\000"
 3190      7420696E 
 3190      7400
 3191              	.LASF215:
 3192 0803 5F5F6664 		.ascii	"__fdlibm_xopen\000"
 3192      6C69626D 
 3192      5F786F70 
 3192      656E00
 3193              	.LASF76:
 3194 0812 4750494F 		.ascii	"GPIO_Mode_IN_FLOATING\000"
 3194      5F4D6F64 
 3194      655F494E 
 3194      5F464C4F 
 3194      4154494E 
 3195              	.LASF15:
 3196 0828 696E7431 		.ascii	"int16_t\000"
 3196      365F7400 
 3197              	.LASF132:
 3198 0830 5F666E74 		.ascii	"_fntypes\000"
 3198      79706573 
 3198      00
 3199              	.LASF23:
 3200 0839 454E4142 		.ascii	"ENABLE\000"
 3200      4C4500
 3201              	.LASF125:
 3202 0840 5F5F746D 		.ascii	"__tm_year\000"
 3202      5F796561 
 3202      7200
 3203              	.LASF25:
 3204 084a 42535252 		.ascii	"BSRR\000"
 3204      00
 3205              	.LASF27:
 3206 084f 4750494F 		.ascii	"GPIO_TypeDef\000"
 3206      5F547970 
 3206      65446566 
 3206      00
 3207              	.LASF143:
 3208 085c 5F6C6266 		.ascii	"_lbfsize\000"
 3208      73697A65 
 3208      00
 3209              	.LASF94:
 3210 0865 61636365 		.ascii	"accel\000"
 3210      6C00
 3211              	.LASF162:
 3212 086b 5F696E63 		.ascii	"_inc\000"
 3212      00
 3213              	.LASF135:
ARM GAS  /tmp/ccURwfKD.s 			page 66


 3214 0870 5F696E64 		.ascii	"_ind\000"
 3214      00
 3215              	.LASF95:
 3216 0875 47785F6F 		.ascii	"Gx_offset\000"
 3216      66667365 
 3216      7400
 3217              	.LASF213:
 3218 087f 5F5F6664 		.ascii	"__fdlibm_ieee\000"
 3218      6C69626D 
 3218      5F696565 
 3218      6500
 3219              	.LASF137:
 3220 088d 5F5F7362 		.ascii	"__sbuf\000"
 3220      756600
 3221              	.LASF207:
 3222 0894 5F6E6578 		.ascii	"_nextf\000"
 3222      746600
 3223              	.LASF64:
 3224 089b 4932435F 		.ascii	"I2C_ClockSpeed\000"
 3224      436C6F63 
 3224      6B537065 
 3224      656400
 3225              	.LASF100:
 3226 08aa 50697463 		.ascii	"Pitch\000"
 3226      6800
 3227              	.LASF113:
 3228 08b0 5F5F554C 		.ascii	"__ULong\000"
 3228      6F6E6700 
 3229              	.LASF58:
 3230 08b8 42445452 		.ascii	"BDTR\000"
 3230      00
 3231              	.LASF18:
 3232 08bd 75696E74 		.ascii	"uint32_t\000"
 3232      33325F74 
 3232      00
 3233              	.LASF168:
 3234 08c6 5F726573 		.ascii	"_result\000"
 3234      756C7400 
 3235              	.LASF104:
 3236 08ce 5F6F6666 		.ascii	"_off_t\000"
 3236      5F7400
 3237              	.LASF226:
 3238 08d5 474E5520 		.ascii	"GNU C11 6.1.1 20160526 -mcpu=cortex-m3 -mthumb -g -"
 3238      43313120 
 3238      362E312E 
 3238      31203230 
 3238      31363035 
 3239 0908 666E6F2D 		.ascii	"fno-common\000"
 3239      636F6D6D 
 3239      6F6E00
 3240              	.LASF187:
 3241 0913 5F616464 		.ascii	"_add\000"
 3241      00
 3242              	.LASF71:
 3243 0918 4750494F 		.ascii	"GPIO_Speed_10MHz\000"
 3243      5F537065 
 3243      65645F31 
ARM GAS  /tmp/ccURwfKD.s 			page 67


 3243      304D487A 
 3243      00
 3244              	.LASF92:
 3245 0929 4E564943 		.ascii	"NVIC_InitTypeDef\000"
 3245      5F496E69 
 3245      74547970 
 3245      65446566 
 3245      00
 3246              	.LASF6:
 3247 093a 73686F72 		.ascii	"short unsigned int\000"
 3247      7420756E 
 3247      7369676E 
 3247      65642069 
 3247      6E7400
 3248              	.LASF122:
 3249 094d 5F5F746D 		.ascii	"__tm_hour\000"
 3249      5F686F75 
 3249      7200
 3250              	.LASF126:
 3251 0957 5F5F746D 		.ascii	"__tm_wday\000"
 3251      5F776461 
 3251      7900
 3252              	.LASF48:
 3253 0961 52455345 		.ascii	"RESERVED11\000"
 3253      52564544 
 3253      313100
 3254              	.LASF203:
 3255 096c 5F6D6273 		.ascii	"_mbsrtowcs_state\000"
 3255      72746F77 
 3255      63735F73 
 3255      74617465 
 3255      00
 3256              	.LASF7:
 3257 097d 5F5F696E 		.ascii	"__int32_t\000"
 3257      7433325F 
 3257      7400
 3258              	.LASF130:
 3259 0987 5F666E61 		.ascii	"_fnargs\000"
 3259      72677300 
 3260              	.LASF128:
 3261 098f 5F5F746D 		.ascii	"__tm_isdst\000"
 3261      5F697364 
 3261      737400
 3262              	.LASF121:
 3263 099a 5F5F746D 		.ascii	"__tm_min\000"
 3263      5F6D696E 
 3263      00
 3264              	.LASF200:
 3265 09a3 5F676574 		.ascii	"_getdate_err\000"
 3265      64617465 
 3265      5F657272 
 3265      00
 3266              	.LASF77:
 3267 09b0 4750494F 		.ascii	"GPIO_Mode_IPD\000"
 3267      5F4D6F64 
 3267      655F4950 
 3267      4400
ARM GAS  /tmp/ccURwfKD.s 			page 68


 3268              		.ident	"GCC: (Arch Repository) 6.1.1 20160526"
ARM GAS  /tmp/ccURwfKD.s 			page 69


DEFINED SYMBOLS
                            *ABS*:0000000000000000 lib.c
     /tmp/ccURwfKD.s:15     .text:0000000000000000 $t
     /tmp/ccURwfKD.s:22     .text:0000000000000000 HCSR04_Get
     /tmp/ccURwfKD.s:119    .text:0000000000000098 $d
     /tmp/ccURwfKD.s:123    .text:000000000000009c $t
     /tmp/ccURwfKD.s:130    .text:000000000000009c I2C_Conf
     /tmp/ccURwfKD.s:182    .text:00000000000000dc $d
     /tmp/ccURwfKD.s:187    .text:00000000000000e4 $t
     /tmp/ccURwfKD.s:194    .text:00000000000000e4 GPIO_Conf
     /tmp/ccURwfKD.s:270    .text:0000000000000148 $d
     /tmp/ccURwfKD.s:274    .text:000000000000014c $t
     /tmp/ccURwfKD.s:281    .text:000000000000014c NVIC_Conf
                     .debug_frame:0000000000000010 $d

UNDEFINED SYMBOLS
GPIO_WriteBit
delay_us
TIM_Cmd
GPIO_ReadInputDataBit
I2C_Cmd
I2C_Init
RCC_APB2PeriphClockCmd
GPIO_Init
NVIC_SetVectorTable
NVIC_Init
