ARM GAS  /tmp/ccURwfKD.s 			page 1


   1              		.cpu cortex-m3
   2              		.eabi_attribute 20, 1
   3              		.eabi_attribute 21, 1
   4              		.eabi_attribute 23, 3
   5              		.eabi_attribute 24, 1
   6              		.eabi_attribute 25, 1
   7              		.eabi_attribute 26, 1
   8              		.eabi_attribute 30, 6
   9              		.eabi_attribute 34, 1
  10              		.eabi_attribute 18, 4
  11              		.file	"lib.c"
  12              		.text
  13              	.Ltext0:
  14              		.cfi_sections	.debug_frame
  15              		.align	1
  16              		.global	HCSR04_Get
  17              		.syntax unified
  18              		.thumb
  19              		.thumb_func
  20              		.fpu softvfp
  21              		.type	HCSR04_Get, %function
  22              	HCSR04_Get:
  23              	.LFB64:
  24              		.file 1 "src/lib.c"
   1:src/lib.c     **** #include "main.h"
   2:src/lib.c     **** 
   3:src/lib.c     **** 
   4:src/lib.c     **** 
   5:src/lib.c     **** int HCSR04_Get(void)
   6:src/lib.c     **** {
  25              		.loc 1 6 0
  26              		.cfi_startproc
  27              		@ args = 0, pretend = 0, frame = 8
  28              		@ frame_needed = 1, uses_anonymous_args = 0
  29 0000 80B5     		push	{r7, lr}
  30              		.cfi_def_cfa_offset 8
  31              		.cfi_offset 7, -8
  32              		.cfi_offset 14, -4
  33 0002 82B0     		sub	sp, sp, #8
  34              		.cfi_def_cfa_offset 16
  35 0004 00AF     		add	r7, sp, #0
  36              		.cfi_def_cfa_register 7
   7:src/lib.c     ****   int length;
   8:src/lib.c     ****   
   9:src/lib.c     ****   GPIO_WriteBit(GPIOA,GPIO_Pin_1,1);
  37              		.loc 1 9 0
  38 0006 0122     		movs	r2, #1
  39 0008 0221     		movs	r1, #2
  40 000a 2348     		ldr	r0, .L7
  41 000c FFF7FEFF 		bl	GPIO_WriteBit
  10:src/lib.c     ****   delay_us(20);
  42              		.loc 1 10 0
  43 0010 1420     		movs	r0, #20
  44 0012 FFF7FEFF 		bl	delay_us
  11:src/lib.c     ****   GPIO_WriteBit(GPIOA,GPIO_Pin_1,0);
  45              		.loc 1 11 0
  46 0016 0022     		movs	r2, #0
ARM GAS  /tmp/ccURwfKD.s 			page 2


  47 0018 0221     		movs	r1, #2
  48 001a 1F48     		ldr	r0, .L7
  49 001c FFF7FEFF 		bl	GPIO_WriteBit
  12:src/lib.c     ****   //计数器清0
  13:src/lib.c     ****   TIM2->CNT = 0;
  50              		.loc 1 13 0
  51 0020 4FF08043 		mov	r3, #1073741824
  52 0024 0022     		movs	r2, #0
  53 0026 9A84     		strh	r2, [r3, #36]	@ movhi
  14:src/lib.c     ****   TIM_Cmd(TIM2, ENABLE);// TIM2 enable counter [允许tim2计数]
  54              		.loc 1 14 0
  55 0028 0121     		movs	r1, #1
  56 002a 4FF08040 		mov	r0, #1073741824
  57 002e FFF7FEFF 		bl	TIM_Cmd
  15:src/lib.c     ****   while(!GPIO_ReadInputDataBit(GPIOA, GPIO_Pin_0) && TIM2->CNT<1000);
  58              		.loc 1 15 0
  59 0032 00BF     		nop
  60              	.L3:
  61              		.loc 1 15 0 is_stmt 0 discriminator 2
  62 0034 0121     		movs	r1, #1
  63 0036 1848     		ldr	r0, .L7
  64 0038 FFF7FEFF 		bl	GPIO_ReadInputDataBit
  65 003c 0346     		mov	r3, r0
  66 003e 002B     		cmp	r3, #0
  67 0040 06D1     		bne	.L2
  68              		.loc 1 15 0 discriminator 1
  69 0042 4FF08043 		mov	r3, #1073741824
  70 0046 9B8C     		ldrh	r3, [r3, #36]	@ movhi
  71 0048 9BB2     		uxth	r3, r3
  72 004a B3F57A7F 		cmp	r3, #1000
  73 004e F1D3     		bcc	.L3
  74              	.L2:
  16:src/lib.c     ****   TIM2->CNT = 0;
  75              		.loc 1 16 0 is_stmt 1
  76 0050 4FF08043 		mov	r3, #1073741824
  77 0054 0022     		movs	r2, #0
  78 0056 9A84     		strh	r2, [r3, #36]	@ movhi
  17:src/lib.c     ****   while(GPIO_ReadInputDataBit(GPIOA, GPIO_Pin_0) && TIM2->CNT<60000);
  79              		.loc 1 17 0
  80 0058 00BF     		nop
  81              	.L5:
  82              		.loc 1 17 0 is_stmt 0 discriminator 2
  83 005a 0121     		movs	r1, #1
  84 005c 0E48     		ldr	r0, .L7
  85 005e FFF7FEFF 		bl	GPIO_ReadInputDataBit
  86 0062 0346     		mov	r3, r0
  87 0064 002B     		cmp	r3, #0
  88 0066 07D0     		beq	.L4
  89              		.loc 1 17 0 discriminator 1
  90 0068 4FF08043 		mov	r3, #1073741824
  91 006c 9B8C     		ldrh	r3, [r3, #36]	@ movhi
  92 006e 9BB2     		uxth	r3, r3
  93 0070 4EF65F22 		movw	r2, #59999
  94 0074 9342     		cmp	r3, r2
  95 0076 F0D9     		bls	.L5
  96              	.L4:
  18:src/lib.c     ****   TIM_Cmd(TIM2, DISABLE);
ARM GAS  /tmp/ccURwfKD.s 			page 3


  97              		.loc 1 18 0 is_stmt 1
  98 0078 0021     		movs	r1, #0
  99 007a 4FF08040 		mov	r0, #1073741824
 100 007e FFF7FEFF 		bl	TIM_Cmd
  19:src/lib.c     **** 
  20:src/lib.c     ****   length = TIM2->CNT;
 101              		.loc 1 20 0
 102 0082 4FF08043 		mov	r3, #1073741824
 103 0086 9B8C     		ldrh	r3, [r3, #36]	@ movhi
 104 0088 9BB2     		uxth	r3, r3
 105 008a 7B60     		str	r3, [r7, #4]
  21:src/lib.c     ****   return length;
 106              		.loc 1 21 0
 107 008c 7B68     		ldr	r3, [r7, #4]
  22:src/lib.c     **** }
 108              		.loc 1 22 0
 109 008e 1846     		mov	r0, r3
 110 0090 0837     		adds	r7, r7, #8
 111              		.cfi_def_cfa_offset 8
 112 0092 BD46     		mov	sp, r7
 113              		.cfi_def_cfa_register 13
 114              		@ sp needed
 115 0094 80BD     		pop	{r7, pc}
 116              	.L8:
 117 0096 00BF     		.align	2
 118              	.L7:
 119 0098 00080140 		.word	1073809408
 120              		.cfi_endproc
 121              	.LFE64:
 122              		.size	HCSR04_Get, .-HCSR04_Get
 123              		.align	1
 124              		.global	I2C_Conf
 125              		.syntax unified
 126              		.thumb
 127              		.thumb_func
 128              		.fpu softvfp
 129              		.type	I2C_Conf, %function
 130              	I2C_Conf:
 131              	.LFB65:
  23:src/lib.c     **** 
  24:src/lib.c     **** void I2C_Conf(void)
  25:src/lib.c     **** {
 132              		.loc 1 25 0
 133              		.cfi_startproc
 134              		@ args = 0, pretend = 0, frame = 16
 135              		@ frame_needed = 1, uses_anonymous_args = 0
 136 009c 80B5     		push	{r7, lr}
 137              		.cfi_def_cfa_offset 8
 138              		.cfi_offset 7, -8
 139              		.cfi_offset 14, -4
 140 009e 84B0     		sub	sp, sp, #16
 141              		.cfi_def_cfa_offset 24
 142 00a0 00AF     		add	r7, sp, #0
 143              		.cfi_def_cfa_register 7
  26:src/lib.c     ****   I2C_InitTypeDef  I2C_InitStructure; 
  27:src/lib.c     **** 
  28:src/lib.c     ****   /* I2C configuration */
ARM GAS  /tmp/ccURwfKD.s 			page 4


  29:src/lib.c     ****   I2C_InitStructure.I2C_Mode = I2C_Mode_I2C;
 144              		.loc 1 29 0
 145 00a2 0023     		movs	r3, #0
 146 00a4 BB80     		strh	r3, [r7, #4]	@ movhi
  30:src/lib.c     ****   I2C_InitStructure.I2C_DutyCycle = I2C_DutyCycle_2;
 147              		.loc 1 30 0
 148 00a6 4BF6FF73 		movw	r3, #49151
 149 00aa FB80     		strh	r3, [r7, #6]	@ movhi
  31:src/lib.c     ****   I2C_InitStructure.I2C_OwnAddress1 = I2C1_SLAVE_ADDRESS7;
 150              		.loc 1 31 0
 151 00ac A023     		movs	r3, #160
 152 00ae 3B81     		strh	r3, [r7, #8]	@ movhi
  32:src/lib.c     ****   I2C_InitStructure.I2C_Ack = I2C_Ack_Enable;
 153              		.loc 1 32 0
 154 00b0 4FF48063 		mov	r3, #1024
 155 00b4 7B81     		strh	r3, [r7, #10]	@ movhi
  33:src/lib.c     ****   I2C_InitStructure.I2C_AcknowledgedAddress = I2C_AcknowledgedAddress_7bit;
 156              		.loc 1 33 0
 157 00b6 4FF48043 		mov	r3, #16384
 158 00ba BB81     		strh	r3, [r7, #12]	@ movhi
  34:src/lib.c     ****   I2C_InitStructure.I2C_ClockSpeed = I2C_Speed;
 159              		.loc 1 34 0
 160 00bc 074B     		ldr	r3, .L10
 161 00be 3B60     		str	r3, [r7]
  35:src/lib.c     ****   
  36:src/lib.c     ****   /* I2C Peripheral Enable */
  37:src/lib.c     ****   I2C_Cmd(I2C1, ENABLE);
 162              		.loc 1 37 0
 163 00c0 0121     		movs	r1, #1
 164 00c2 0748     		ldr	r0, .L10+4
 165 00c4 FFF7FEFF 		bl	I2C_Cmd
  38:src/lib.c     ****   /* Apply I2C configuration after enabling it */
  39:src/lib.c     ****   I2C_Init(I2C1, &I2C_InitStructure);
 166              		.loc 1 39 0
 167 00c8 3B46     		mov	r3, r7
 168 00ca 1946     		mov	r1, r3
 169 00cc 0448     		ldr	r0, .L10+4
 170 00ce FFF7FEFF 		bl	I2C_Init
  40:src/lib.c     **** }
 171              		.loc 1 40 0
 172 00d2 00BF     		nop
 173 00d4 1037     		adds	r7, r7, #16
 174              		.cfi_def_cfa_offset 8
 175 00d6 BD46     		mov	sp, r7
 176              		.cfi_def_cfa_register 13
 177              		@ sp needed
 178 00d8 80BD     		pop	{r7, pc}
 179              	.L11:
 180 00da 00BF     		.align	2
 181              	.L10:
 182 00dc 801A0600 		.word	400000
 183 00e0 00540040 		.word	1073763328
 184              		.cfi_endproc
 185              	.LFE65:
 186              		.size	I2C_Conf, .-I2C_Conf
 187              		.align	1
 188              		.global	GPIO_Conf
ARM GAS  /tmp/ccURwfKD.s 			page 5


 189              		.syntax unified
 190              		.thumb
 191              		.thumb_func
 192              		.fpu softvfp
 193              		.type	GPIO_Conf, %function
 194              	GPIO_Conf:
 195              	.LFB66:
  41:src/lib.c     **** 
  42:src/lib.c     **** 
  43:src/lib.c     **** void GPIO_Conf(void)
  44:src/lib.c     **** {
 196              		.loc 1 44 0
 197              		.cfi_startproc
 198              		@ args = 0, pretend = 0, frame = 8
 199              		@ frame_needed = 1, uses_anonymous_args = 0
 200 00e4 80B5     		push	{r7, lr}
 201              		.cfi_def_cfa_offset 8
 202              		.cfi_offset 7, -8
 203              		.cfi_offset 14, -4
 204 00e6 82B0     		sub	sp, sp, #8
 205              		.cfi_def_cfa_offset 16
 206 00e8 00AF     		add	r7, sp, #0
 207              		.cfi_def_cfa_register 7
  45:src/lib.c     ****   GPIO_InitTypeDef GPIO_InitStructure;
  46:src/lib.c     ****   
  47:src/lib.c     ****   //开启AFIO时钟
  48:src/lib.c     ****   RCC_APB2PeriphClockCmd(RCC_APB2Periph_AFIO, ENABLE);
 208              		.loc 1 48 0
 209 00ea 0121     		movs	r1, #1
 210 00ec 0120     		movs	r0, #1
 211 00ee FFF7FEFF 		bl	RCC_APB2PeriphClockCmd
  49:src/lib.c     ****   
  50:src/lib.c     ****    //配置USARTx_Tx为复合推挽输出
  51:src/lib.c     ****   GPIO_InitStructure.GPIO_Pin = GPIO_TxPin;
 212              		.loc 1 51 0
 213 00f2 0423     		movs	r3, #4
 214 00f4 BB80     		strh	r3, [r7, #4]	@ movhi
  52:src/lib.c     ****   GPIO_InitStructure.GPIO_Speed = GPIO_Speed_50MHz;
 215              		.loc 1 52 0
 216 00f6 0323     		movs	r3, #3
 217 00f8 BB71     		strb	r3, [r7, #6]
  53:src/lib.c     ****   GPIO_InitStructure.GPIO_Mode = GPIO_Mode_AF_PP;
 218              		.loc 1 53 0
 219 00fa 1823     		movs	r3, #24
 220 00fc FB71     		strb	r3, [r7, #7]
  54:src/lib.c     ****   GPIO_Init(GPIOx, &GPIO_InitStructure);
 221              		.loc 1 54 0
 222 00fe 3B1D     		adds	r3, r7, #4
 223 0100 1946     		mov	r1, r3
 224 0102 1148     		ldr	r0, .L13
 225 0104 FFF7FEFF 		bl	GPIO_Init
  55:src/lib.c     ****   
  56:src/lib.c     ****   //配置 USARTx_Rx 为浮空输入
  57:src/lib.c     ****   GPIO_InitStructure.GPIO_Pin = GPIO_RxPin;
 226              		.loc 1 57 0
 227 0108 0823     		movs	r3, #8
 228 010a BB80     		strh	r3, [r7, #4]	@ movhi
ARM GAS  /tmp/ccURwfKD.s 			page 6


  58:src/lib.c     ****   GPIO_InitStructure.GPIO_Mode = GPIO_Mode_IN_FLOATING;
 229              		.loc 1 58 0
 230 010c 0423     		movs	r3, #4
 231 010e FB71     		strb	r3, [r7, #7]
  59:src/lib.c     ****   GPIO_Init(GPIOx, &GPIO_InitStructure);
 232              		.loc 1 59 0
 233 0110 3B1D     		adds	r3, r7, #4
 234 0112 1946     		mov	r1, r3
 235 0114 0C48     		ldr	r0, .L13
 236 0116 FFF7FEFF 		bl	GPIO_Init
  60:src/lib.c     ****   
  61:src/lib.c     ****   //HC-SR02 
  62:src/lib.c     ****   GPIO_InitStructure.GPIO_Pin = GPIO_Pin_1; 
 237              		.loc 1 62 0
 238 011a 0223     		movs	r3, #2
 239 011c BB80     		strh	r3, [r7, #4]	@ movhi
  63:src/lib.c     ****   GPIO_InitStructure.GPIO_Mode = GPIO_Mode_Out_PP;
 240              		.loc 1 63 0
 241 011e 1023     		movs	r3, #16
 242 0120 FB71     		strb	r3, [r7, #7]
  64:src/lib.c     ****   GPIO_Init(GPIOA, &GPIO_InitStructure);
 243              		.loc 1 64 0
 244 0122 3B1D     		adds	r3, r7, #4
 245 0124 1946     		mov	r1, r3
 246 0126 0848     		ldr	r0, .L13
 247 0128 FFF7FEFF 		bl	GPIO_Init
  65:src/lib.c     ****   GPIO_InitStructure.GPIO_Pin = GPIO_Pin_0; 
 248              		.loc 1 65 0
 249 012c 0123     		movs	r3, #1
 250 012e BB80     		strh	r3, [r7, #4]	@ movhi
  66:src/lib.c     ****   GPIO_InitStructure.GPIO_Mode = GPIO_Mode_IN_FLOATING;
 251              		.loc 1 66 0
 252 0130 0423     		movs	r3, #4
 253 0132 FB71     		strb	r3, [r7, #7]
  67:src/lib.c     ****   GPIO_Init(GPIOA, &GPIO_InitStructure);
 254              		.loc 1 67 0
 255 0134 3B1D     		adds	r3, r7, #4
 256 0136 1946     		mov	r1, r3
 257 0138 0348     		ldr	r0, .L13
 258 013a FFF7FEFF 		bl	GPIO_Init
  68:src/lib.c     **** 
  69:src/lib.c     **** }
 259              		.loc 1 69 0
 260 013e 00BF     		nop
 261 0140 0837     		adds	r7, r7, #8
 262              		.cfi_def_cfa_offset 8
 263 0142 BD46     		mov	sp, r7
 264              		.cfi_def_cfa_register 13
 265              		@ sp needed
 266 0144 80BD     		pop	{r7, pc}
 267              	.L14:
 268 0146 00BF     		.align	2
 269              	.L13:
 270 0148 00080140 		.word	1073809408
 271              		.cfi_endproc
 272              	.LFE66:
 273              		.size	GPIO_Conf, .-GPIO_Conf
ARM GAS  /tmp/ccURwfKD.s 			page 7


 274              		.align	1
 275              		.global	NVIC_Conf
 276              		.syntax unified
 277              		.thumb
 278              		.thumb_func
 279              		.fpu softvfp
 280              		.type	NVIC_Conf, %function
 281              	NVIC_Conf:
 282              	.LFB67:
  70:src/lib.c     **** 
  71:src/lib.c     **** // 系统中断控制
  72:src/lib.c     **** void NVIC_Conf(void)
  73:src/lib.c     **** { 
 283              		.loc 1 73 0
 284              		.cfi_startproc
 285              		@ args = 0, pretend = 0, frame = 8
 286              		@ frame_needed = 1, uses_anonymous_args = 0
 287 014c 80B5     		push	{r7, lr}
 288              		.cfi_def_cfa_offset 8
 289              		.cfi_offset 7, -8
 290              		.cfi_offset 14, -4
 291 014e 82B0     		sub	sp, sp, #8
 292              		.cfi_def_cfa_offset 16
 293 0150 00AF     		add	r7, sp, #0
 294              		.cfi_def_cfa_register 7
  74:src/lib.c     ****   NVIC_InitTypeDef NVIC_InitStructure;
  75:src/lib.c     ****   // 设置中断向量表位置 FLASH:0x08000000
  76:src/lib.c     ****   NVIC_SetVectorTable(NVIC_VectTab_FLASH, 0x0); 
 295              		.loc 1 76 0
 296 0152 0021     		movs	r1, #0
 297 0154 4FF00060 		mov	r0, #134217728
 298 0158 FFF7FEFF 		bl	NVIC_SetVectorTable
  77:src/lib.c     **** 
  78:src/lib.c     ****   // 打开TIM2中断
  79:src/lib.c     ****   NVIC_InitStructure.NVIC_IRQChannel = TIM2_IRQChannel;
 299              		.loc 1 79 0
 300 015c 1C23     		movs	r3, #28
 301 015e 3B71     		strb	r3, [r7, #4]
  80:src/lib.c     ****   NVIC_InitStructure.NVIC_IRQChannelPreemptionPriority = 0;
 302              		.loc 1 80 0
 303 0160 0023     		movs	r3, #0
 304 0162 7B71     		strb	r3, [r7, #5]
  81:src/lib.c     ****   NVIC_InitStructure.NVIC_IRQChannelSubPriority = 0;
 305              		.loc 1 81 0
 306 0164 0023     		movs	r3, #0
 307 0166 BB71     		strb	r3, [r7, #6]
  82:src/lib.c     ****   NVIC_InitStructure.NVIC_IRQChannelCmd = ENABLE;
 308              		.loc 1 82 0
 309 0168 0123     		movs	r3, #1
 310 016a FB71     		strb	r3, [r7, #7]
  83:src/lib.c     ****   NVIC_Init(&NVIC_InitStructure);
 311              		.loc 1 83 0
 312 016c 3B1D     		adds	r3, r7, #4
 313 016e 1846     		mov	r0, r3
 314 0170 FFF7FEFF 		bl	NVIC_Init
  84:src/lib.c     **** }
 315              		.loc 1 84 0
ARM GAS  /tmp/ccURwfKD.s 			page 8


 316 0174 00BF     		nop
 317 0176 0837     		adds	r7, r7, #8
 318              		.cfi_def_cfa_offset 8
 319 0178 BD46     		mov	sp, r7
 320              		.cfi_def_cfa_register 13
 321              		@ sp needed
 322 017a 80BD     		pop	{r7, pc}
 323              		.cfi_endproc
 324              	.LFE67:
 325              		.size	NVIC_Conf, .-NVIC_Conf
 326              	.Letext0:
 327              		.file 2 "/usr/arm-none-eabi/include/machine/_default_types.h"
 328              		.file 3 "/usr/arm-none-eabi/include/sys/_stdint.h"
 329              		.file 4 "include/../include/STM32/../CMSIS/core_cm3.h"
 330              		.file 5 "include/../include/STM32/system_stm32f10x.h"
 331              		.file 6 "include/../include/STM32/stm32f10x.h"
 332              		.file 7 "include/../include/STM32/i2c.h"
 333              		.file 8 "include/../include/STM32/gpio.h"
 334              		.file 9 "include/../include/STM32/misc.h"
 335              		.file 10 "include/../include/MPU6050/mpu6050.h"
 336              		.file 11 "/usr/arm-none-eabi/include/sys/lock.h"
 337              		.file 12 "/usr/arm-none-eabi/include/sys/_types.h"
 338              		.file 13 "/usr/lib/gcc/arm-none-eabi/6.1.1/include/stddef.h"
 339              		.file 14 "/usr/arm-none-eabi/include/sys/reent.h"
 340              		.file 15 "/usr/arm-none-eabi/include/math.h"