ARM GAS  /tmp/ccOBSLij.s 			page 1


   1              		.syntax unified
   2              		.cpu cortex-m3
   3              		.fpu softvfp
   4              		.eabi_attribute 20, 1
   5              		.eabi_attribute 21, 1
   6              		.eabi_attribute 23, 3
   7              		.eabi_attribute 24, 1
   8              		.eabi_attribute 25, 1
   9              		.eabi_attribute 26, 1
  10              		.eabi_attribute 30, 1
  11              		.eabi_attribute 34, 1
  12              		.eabi_attribute 18, 4
  13              		.thumb
  14              		.file	"main.c"
  15              		.text
  16              	.Ltext0:
  17              		.cfi_sections	.debug_frame
  18              		.align	2
  19              		.global	main
  20              		.thumb
  21              		.thumb_func
  22              		.type	main, %function
  23              	main:
  24              	.LFB63:
  25              		.file 1 "project/main.c"
   1:project/main.c **** /**
   2:project/main.c ****  * STM32F103C8 Quadrocopter
   3:project/main.c ****  */
   4:project/main.c **** #include "tools.h"
   5:project/main.c **** #include "conf.h"
   6:project/main.c **** #include "MPU6050.h"
   7:project/main.c **** 
   8:project/main.c **** /* Exported constants --------------------------------------------------------*/
   9:project/main.c **** 
  10:project/main.c **** 
  11:project/main.c **** int main(void)
  12:project/main.c **** {
  26              		.loc 1 12 0
  27              		.cfi_startproc
  28              		@ Volatile: function does not return.
  29              		@ args = 0, pretend = 0, frame = 0
  30              		@ frame_needed = 0, uses_anonymous_args = 0
  31 0000 08B5     		push	{r3, lr}
  32              		.cfi_def_cfa_offset 8
  33              		.cfi_offset 3, -8
  34              		.cfi_offset 14, -4
  13:project/main.c ****   SystemInit();
  35              		.loc 1 13 0
  36 0002 FFF7FEFF 		bl	SystemInit
  37              	.LVL0:
  14:project/main.c ****   UserInit();
  38              		.loc 1 14 0
  39 0006 FFF7FEFF 		bl	UserInit
  40              	.LVL1:
  15:project/main.c ****   MPU6050_Init();
  41              		.loc 1 15 0
  42 000a FFF7FEFF 		bl	MPU6050_Init
ARM GAS  /tmp/ccOBSLij.s 			page 2


  43              	.LVL2:
  16:project/main.c ****   DMP_Init();
  44              		.loc 1 16 0
  45 000e FFF7FEFF 		bl	DMP_Init
  46              	.LVL3:
  17:project/main.c **** 
  18:project/main.c **** 
  19:project/main.c ****   while (1) {  
  20:project/main.c ****     printf("height:%d\r\n", HCSR04_Get());
  47              		.loc 1 20 0
  48 0012 0C4E     		ldr	r6, .L4
  21:project/main.c ****     Read_DMP();
  22:project/main.c ****     printf("string:%s\r\n", "Hello World.");
  49              		.loc 1 22 0
  50 0014 0C4D     		ldr	r5, .L4+4
  51 0016 0D4C     		ldr	r4, .L4+8
  52              	.L2:
  20:project/main.c ****     Read_DMP();
  53              		.loc 1 20 0 discriminator 1
  54 0018 FFF7FEFF 		bl	HCSR04_Get
  55              	.LVL4:
  56 001c 0146     		mov	r1, r0
  57 001e 3046     		mov	r0, r6
  58 0020 FFF7FEFF 		bl	printf
  59              	.LVL5:
  21:project/main.c ****     Read_DMP();
  60              		.loc 1 21 0 discriminator 1
  61 0024 FFF7FEFF 		bl	Read_DMP
  62              	.LVL6:
  63              		.loc 1 22 0 discriminator 1
  64 0028 2846     		mov	r0, r5
  65 002a 2146     		mov	r1, r4
  66 002c FFF7FEFF 		bl	printf
  67              	.LVL7:
  23:project/main.c ****     printf("quad[0]:%d\r\n", iPitch);
  68              		.loc 1 23 0 discriminator 1
  69 0030 0748     		ldr	r0, .L4+12
  70 0032 084B     		ldr	r3, .L4+16
  71 0034 1988     		ldrh	r1, [r3]
  72 0036 FFF7FEFF 		bl	printf
  73              	.LVL8:
  24:project/main.c ****     DelayMs(10000);
  74              		.loc 1 24 0 discriminator 1
  75 003a 42F21070 		movw	r0, #10000
  76 003e FFF7FEFF 		bl	DelayMs
  77              	.LVL9:
  25:project/main.c ****   }
  78              		.loc 1 25 0 discriminator 1
  79 0042 E9E7     		b	.L2
  80              	.L5:
  81              		.align	2
  82              	.L4:
  83 0044 00000000 		.word	.LC0
  84 0048 0C000000 		.word	.LC1
  85 004c 18000000 		.word	.LC2
  86 0050 28000000 		.word	.LC3
  87 0054 00000000 		.word	iPitch
ARM GAS  /tmp/ccOBSLij.s 			page 3


  88              		.cfi_endproc
  89              	.LFE63:
  90              		.size	main, .-main
  91              		.section	.rodata.str1.4,"aMS",%progbits,1
  92              		.align	2
  93              	.LC0:
  94 0000 68656967 		.ascii	"height:%d\015\012\000"
  94      68743A25 
  94      640D0A00 
  95              	.LC1:
  96 000c 73747269 		.ascii	"string:%s\015\012\000"
  96      6E673A25 
  96      730D0A00 
  97              	.LC2:
  98 0018 48656C6C 		.ascii	"Hello World.\000"
  98      6F20576F 
  98      726C642E 
  98      00
  99 0025 000000   		.space	3
 100              	.LC3:
 101 0028 71756164 		.ascii	"quad[0]:%d\015\012\000"
 101      5B305D3A 
 101      25640D0A 
 101      00
 102              		.text
 103              	.Letext0:
 104              		.file 2 "/usr/include/newlib/machine/_default_types.h"
 105              		.file 3 "/usr/include/newlib/sys/_stdint.h"
 106              		.file 4 "cmsis/core_cm3.h"
 107              		.file 5 "drivers/MPU6050.h"
 108              		.file 6 "lib/inc/system_stm32f10x.h"
 109              		.file 7 "drivers/tools.h"
 110              		.file 8 "lib/inc/stm32f10x.h"
 111              		.file 9 "/usr/include/newlib/stdio.h"
 112              		.section	.debug_info,"",%progbits
 113              	.Ldebug_info0:
 114 0000 E5010000 		.4byte	0x1e5
 115 0004 0400     		.2byte	0x4
 116 0006 00000000 		.4byte	.Ldebug_abbrev0
 117 000a 04       		.byte	0x4
 118 000b 01       		.uleb128 0x1
 119 000c 67000000 		.4byte	.LASF25
 120 0010 01       		.byte	0x1
 121 0011 0A000000 		.4byte	.LASF26
 122 0015 61010000 		.4byte	.LASF27
 123 0019 00000000 		.4byte	.Ltext0
 124 001d 58000000 		.4byte	.Letext0-.Ltext0
 125 0021 00000000 		.4byte	.Ldebug_line0
 126 0025 02       		.uleb128 0x2
 127 0026 01       		.byte	0x1
 128 0027 06       		.byte	0x6
 129 0028 CD010000 		.4byte	.LASF0
 130 002c 02       		.uleb128 0x2
 131 002d 01       		.byte	0x1
 132 002e 08       		.byte	0x8
 133 002f 59000000 		.4byte	.LASF1
 134 0033 02       		.uleb128 0x2
ARM GAS  /tmp/ccOBSLij.s 			page 4


 135 0034 02       		.byte	0x2
 136 0035 05       		.byte	0x5
 137 0036 98010000 		.4byte	.LASF2
 138 003a 03       		.uleb128 0x3
 139 003b F4000000 		.4byte	.LASF4
 140 003f 02       		.byte	0x2
 141 0040 2B       		.byte	0x2b
 142 0041 45000000 		.4byte	0x45
 143 0045 02       		.uleb128 0x2
 144 0046 02       		.byte	0x2
 145 0047 07       		.byte	0x7
 146 0048 19000000 		.4byte	.LASF3
 147 004c 03       		.uleb128 0x3
 148 004d 00000000 		.4byte	.LASF5
 149 0051 02       		.byte	0x2
 150 0052 3F       		.byte	0x3f
 151 0053 57000000 		.4byte	0x57
 152 0057 02       		.uleb128 0x2
 153 0058 04       		.byte	0x4
 154 0059 05       		.byte	0x5
 155 005a B8010000 		.4byte	.LASF6
 156 005e 02       		.uleb128 0x2
 157 005f 04       		.byte	0x4
 158 0060 07       		.byte	0x7
 159 0061 FF000000 		.4byte	.LASF7
 160 0065 02       		.uleb128 0x2
 161 0066 08       		.byte	0x8
 162 0067 05       		.byte	0x5
 163 0068 4C010000 		.4byte	.LASF8
 164 006c 02       		.uleb128 0x2
 165 006d 08       		.byte	0x8
 166 006e 07       		.byte	0x7
 167 006f 42000000 		.4byte	.LASF9
 168 0073 04       		.uleb128 0x4
 169 0074 04       		.byte	0x4
 170 0075 05       		.byte	0x5
 171 0076 696E7400 		.ascii	"int\000"
 172 007a 02       		.uleb128 0x2
 173 007b 04       		.byte	0x4
 174 007c 07       		.byte	0x7
 175 007d 1E010000 		.4byte	.LASF10
 176 0081 03       		.uleb128 0x3
 177 0082 AF010000 		.4byte	.LASF11
 178 0086 03       		.byte	0x3
 179 0087 1A       		.byte	0x1a
 180 0088 3A000000 		.4byte	0x3a
 181 008c 03       		.uleb128 0x3
 182 008d 3B010000 		.4byte	.LASF12
 183 0091 03       		.byte	0x3
 184 0092 1F       		.byte	0x1f
 185 0093 4C000000 		.4byte	0x4c
 186 0097 02       		.uleb128 0x2
 187 0098 04       		.byte	0x4
 188 0099 07       		.byte	0x7
 189 009a 43010000 		.4byte	.LASF13
 190 009e 05       		.uleb128 0x5
 191 009f 8C000000 		.4byte	0x8c
ARM GAS  /tmp/ccOBSLij.s 			page 5


 192 00a3 06       		.uleb128 0x6
 193 00a4 75313600 		.ascii	"u16\000"
 194 00a8 08       		.byte	0x8
 195 00a9 F801     		.2byte	0x1f8
 196 00ab 81000000 		.4byte	0x81
 197 00af 02       		.uleb128 0x2
 198 00b0 01       		.byte	0x1
 199 00b1 08       		.byte	0x8
 200 00b2 2B010000 		.4byte	.LASF14
 201 00b6 07       		.uleb128 0x7
 202 00b7 04       		.byte	0x4
 203 00b8 BC000000 		.4byte	0xbc
 204 00bc 08       		.uleb128 0x8
 205 00bd AF000000 		.4byte	0xaf
 206 00c1 02       		.uleb128 0x2
 207 00c2 08       		.byte	0x8
 208 00c3 04       		.byte	0x4
 209 00c4 35000000 		.4byte	.LASF15
 210 00c8 02       		.uleb128 0x2
 211 00c9 04       		.byte	0x4
 212 00ca 04       		.byte	0x4
 213 00cb 3C000000 		.4byte	.LASF16
 214 00cf 02       		.uleb128 0x2
 215 00d0 08       		.byte	0x8
 216 00d1 04       		.byte	0x4
 217 00d2 C1010000 		.4byte	.LASF17
 218 00d6 09       		.uleb128 0x9
 219 00d7 11010000 		.4byte	.LASF28
 220 00db 01       		.byte	0x1
 221 00dc 0B       		.byte	0xb
 222 00dd 73000000 		.4byte	0x73
 223 00e1 00000000 		.4byte	.LFB63
 224 00e5 58000000 		.4byte	.LFE63-.LFB63
 225 00e9 01       		.uleb128 0x1
 226 00ea 9C       		.byte	0x9c
 227 00eb 7C010000 		.4byte	0x17c
 228 00ef 0A       		.uleb128 0xa
 229 00f0 06000000 		.4byte	.LVL0
 230 00f4 94010000 		.4byte	0x194
 231 00f8 0A       		.uleb128 0xa
 232 00f9 0A000000 		.4byte	.LVL1
 233 00fd 9B010000 		.4byte	0x19b
 234 0101 0A       		.uleb128 0xa
 235 0102 0E000000 		.4byte	.LVL2
 236 0106 A2010000 		.4byte	0x1a2
 237 010a 0A       		.uleb128 0xa
 238 010b 12000000 		.4byte	.LVL3
 239 010f AA010000 		.4byte	0x1aa
 240 0113 0A       		.uleb128 0xa
 241 0114 1C000000 		.4byte	.LVL4
 242 0118 B2010000 		.4byte	0x1b2
 243 011c 0B       		.uleb128 0xb
 244 011d 24000000 		.4byte	.LVL5
 245 0121 BD010000 		.4byte	0x1bd
 246 0125 30010000 		.4byte	0x130
 247 0129 0C       		.uleb128 0xc
 248 012a 01       		.uleb128 0x1
ARM GAS  /tmp/ccOBSLij.s 			page 6


 249 012b 50       		.byte	0x50
 250 012c 02       		.uleb128 0x2
 251 012d 76       		.byte	0x76
 252 012e 00       		.sleb128 0
 253 012f 00       		.byte	0
 254 0130 0A       		.uleb128 0xa
 255 0131 28000000 		.4byte	.LVL6
 256 0135 D3010000 		.4byte	0x1d3
 257 0139 0B       		.uleb128 0xb
 258 013a 30000000 		.4byte	.LVL7
 259 013e BD010000 		.4byte	0x1bd
 260 0142 53010000 		.4byte	0x153
 261 0146 0C       		.uleb128 0xc
 262 0147 01       		.uleb128 0x1
 263 0148 51       		.byte	0x51
 264 0149 02       		.uleb128 0x2
 265 014a 74       		.byte	0x74
 266 014b 00       		.sleb128 0
 267 014c 0C       		.uleb128 0xc
 268 014d 01       		.uleb128 0x1
 269 014e 50       		.byte	0x50
 270 014f 02       		.uleb128 0x2
 271 0150 75       		.byte	0x75
 272 0151 00       		.sleb128 0
 273 0152 00       		.byte	0
 274 0153 0B       		.uleb128 0xb
 275 0154 3A000000 		.4byte	.LVL8
 276 0158 BD010000 		.4byte	0x1bd
 277 015c 6A010000 		.4byte	0x16a
 278 0160 0C       		.uleb128 0xc
 279 0161 01       		.uleb128 0x1
 280 0162 50       		.byte	0x50
 281 0163 05       		.uleb128 0x5
 282 0164 03       		.byte	0x3
 283 0165 28000000 		.4byte	.LC3
 284 0169 00       		.byte	0
 285 016a 0D       		.uleb128 0xd
 286 016b 42000000 		.4byte	.LVL9
 287 016f DB010000 		.4byte	0x1db
 288 0173 0C       		.uleb128 0xc
 289 0174 01       		.uleb128 0x1
 290 0175 50       		.byte	0x50
 291 0176 03       		.uleb128 0x3
 292 0177 0A       		.byte	0xa
 293 0178 1027     		.2byte	0x2710
 294 017a 00       		.byte	0
 295 017b 00       		.byte	0
 296 017c 0E       		.uleb128 0xe
 297 017d E7000000 		.4byte	.LASF18
 298 0181 04       		.byte	0x4
 299 0182 9606     		.2byte	0x696
 300 0184 9E000000 		.4byte	0x9e
 301 0188 0E       		.uleb128 0xe
 302 0189 E0000000 		.4byte	.LASF19
 303 018d 05       		.byte	0x5
 304 018e 6801     		.2byte	0x168
 305 0190 81000000 		.4byte	0x81
ARM GAS  /tmp/ccOBSLij.s 			page 7


 306 0194 0F       		.uleb128 0xf
 307 0195 30010000 		.4byte	.LASF20
 308 0199 06       		.byte	0x6
 309 019a 4F       		.byte	0x4f
 310 019b 0F       		.uleb128 0xf
 311 019c 2C000000 		.4byte	.LASF21
 312 01a0 07       		.byte	0x7
 313 01a1 0C       		.byte	0xc
 314 01a2 10       		.uleb128 0x10
 315 01a3 A2010000 		.4byte	.LASF22
 316 01a7 05       		.byte	0x5
 317 01a8 6A01     		.2byte	0x16a
 318 01aa 10       		.uleb128 0x10
 319 01ab E4010000 		.4byte	.LASF23
 320 01af 05       		.byte	0x5
 321 01b0 7201     		.2byte	0x172
 322 01b2 11       		.uleb128 0x11
 323 01b3 D9010000 		.4byte	.LASF29
 324 01b7 07       		.byte	0x7
 325 01b8 06       		.byte	0x6
 326 01b9 73000000 		.4byte	0x73
 327 01bd 12       		.uleb128 0x12
 328 01be 5A010000 		.4byte	.LASF30
 329 01c2 09       		.byte	0x9
 330 01c3 B5       		.byte	0xb5
 331 01c4 73000000 		.4byte	0x73
 332 01c8 D3010000 		.4byte	0x1d3
 333 01cc 13       		.uleb128 0x13
 334 01cd B6000000 		.4byte	0xb6
 335 01d1 14       		.uleb128 0x14
 336 01d2 00       		.byte	0
 337 01d3 10       		.uleb128 0x10
 338 01d4 ED010000 		.4byte	.LASF24
 339 01d8 05       		.byte	0x5
 340 01d9 7301     		.2byte	0x173
 341 01db 15       		.uleb128 0x15
 342 01dc 16010000 		.4byte	.LASF31
 343 01e0 07       		.byte	0x7
 344 01e1 0B       		.byte	0xb
 345 01e2 13       		.uleb128 0x13
 346 01e3 A3000000 		.4byte	0xa3
 347 01e7 00       		.byte	0
 348 01e8 00       		.byte	0
 349              		.section	.debug_abbrev,"",%progbits
 350              	.Ldebug_abbrev0:
 351 0000 01       		.uleb128 0x1
 352 0001 11       		.uleb128 0x11
 353 0002 01       		.byte	0x1
 354 0003 25       		.uleb128 0x25
 355 0004 0E       		.uleb128 0xe
 356 0005 13       		.uleb128 0x13
 357 0006 0B       		.uleb128 0xb
 358 0007 03       		.uleb128 0x3
 359 0008 0E       		.uleb128 0xe
 360 0009 1B       		.uleb128 0x1b
 361 000a 0E       		.uleb128 0xe
 362 000b 11       		.uleb128 0x11
ARM GAS  /tmp/ccOBSLij.s 			page 8


 363 000c 01       		.uleb128 0x1
 364 000d 12       		.uleb128 0x12
 365 000e 06       		.uleb128 0x6
 366 000f 10       		.uleb128 0x10
 367 0010 17       		.uleb128 0x17
 368 0011 00       		.byte	0
 369 0012 00       		.byte	0
 370 0013 02       		.uleb128 0x2
 371 0014 24       		.uleb128 0x24
 372 0015 00       		.byte	0
 373 0016 0B       		.uleb128 0xb
 374 0017 0B       		.uleb128 0xb
 375 0018 3E       		.uleb128 0x3e
 376 0019 0B       		.uleb128 0xb
 377 001a 03       		.uleb128 0x3
 378 001b 0E       		.uleb128 0xe
 379 001c 00       		.byte	0
 380 001d 00       		.byte	0
 381 001e 03       		.uleb128 0x3
 382 001f 16       		.uleb128 0x16
 383 0020 00       		.byte	0
 384 0021 03       		.uleb128 0x3
 385 0022 0E       		.uleb128 0xe
 386 0023 3A       		.uleb128 0x3a
 387 0024 0B       		.uleb128 0xb
 388 0025 3B       		.uleb128 0x3b
 389 0026 0B       		.uleb128 0xb
 390 0027 49       		.uleb128 0x49
 391 0028 13       		.uleb128 0x13
 392 0029 00       		.byte	0
 393 002a 00       		.byte	0
 394 002b 04       		.uleb128 0x4
 395 002c 24       		.uleb128 0x24
 396 002d 00       		.byte	0
 397 002e 0B       		.uleb128 0xb
 398 002f 0B       		.uleb128 0xb
 399 0030 3E       		.uleb128 0x3e
 400 0031 0B       		.uleb128 0xb
 401 0032 03       		.uleb128 0x3
 402 0033 08       		.uleb128 0x8
 403 0034 00       		.byte	0
 404 0035 00       		.byte	0
 405 0036 05       		.uleb128 0x5
 406 0037 35       		.uleb128 0x35
 407 0038 00       		.byte	0
 408 0039 49       		.uleb128 0x49
 409 003a 13       		.uleb128 0x13
 410 003b 00       		.byte	0
 411 003c 00       		.byte	0
 412 003d 06       		.uleb128 0x6
 413 003e 16       		.uleb128 0x16
 414 003f 00       		.byte	0
 415 0040 03       		.uleb128 0x3
 416 0041 08       		.uleb128 0x8
 417 0042 3A       		.uleb128 0x3a
 418 0043 0B       		.uleb128 0xb
 419 0044 3B       		.uleb128 0x3b
ARM GAS  /tmp/ccOBSLij.s 			page 9


 420 0045 05       		.uleb128 0x5
 421 0046 49       		.uleb128 0x49
 422 0047 13       		.uleb128 0x13
 423 0048 00       		.byte	0
 424 0049 00       		.byte	0
 425 004a 07       		.uleb128 0x7
 426 004b 0F       		.uleb128 0xf
 427 004c 00       		.byte	0
 428 004d 0B       		.uleb128 0xb
 429 004e 0B       		.uleb128 0xb
 430 004f 49       		.uleb128 0x49
 431 0050 13       		.uleb128 0x13
 432 0051 00       		.byte	0
 433 0052 00       		.byte	0
 434 0053 08       		.uleb128 0x8
 435 0054 26       		.uleb128 0x26
 436 0055 00       		.byte	0
 437 0056 49       		.uleb128 0x49
 438 0057 13       		.uleb128 0x13
 439 0058 00       		.byte	0
 440 0059 00       		.byte	0
 441 005a 09       		.uleb128 0x9
 442 005b 2E       		.uleb128 0x2e
 443 005c 01       		.byte	0x1
 444 005d 3F       		.uleb128 0x3f
 445 005e 19       		.uleb128 0x19
 446 005f 03       		.uleb128 0x3
 447 0060 0E       		.uleb128 0xe
 448 0061 3A       		.uleb128 0x3a
 449 0062 0B       		.uleb128 0xb
 450 0063 3B       		.uleb128 0x3b
 451 0064 0B       		.uleb128 0xb
 452 0065 27       		.uleb128 0x27
 453 0066 19       		.uleb128 0x19
 454 0067 49       		.uleb128 0x49
 455 0068 13       		.uleb128 0x13
 456 0069 11       		.uleb128 0x11
 457 006a 01       		.uleb128 0x1
 458 006b 12       		.uleb128 0x12
 459 006c 06       		.uleb128 0x6
 460 006d 40       		.uleb128 0x40
 461 006e 18       		.uleb128 0x18
 462 006f 9742     		.uleb128 0x2117
 463 0071 19       		.uleb128 0x19
 464 0072 01       		.uleb128 0x1
 465 0073 13       		.uleb128 0x13
 466 0074 00       		.byte	0
 467 0075 00       		.byte	0
 468 0076 0A       		.uleb128 0xa
 469 0077 898201   		.uleb128 0x4109
 470 007a 00       		.byte	0
 471 007b 11       		.uleb128 0x11
 472 007c 01       		.uleb128 0x1
 473 007d 31       		.uleb128 0x31
 474 007e 13       		.uleb128 0x13
 475 007f 00       		.byte	0
 476 0080 00       		.byte	0
ARM GAS  /tmp/ccOBSLij.s 			page 10


 477 0081 0B       		.uleb128 0xb
 478 0082 898201   		.uleb128 0x4109
 479 0085 01       		.byte	0x1
 480 0086 11       		.uleb128 0x11
 481 0087 01       		.uleb128 0x1
 482 0088 31       		.uleb128 0x31
 483 0089 13       		.uleb128 0x13
 484 008a 01       		.uleb128 0x1
 485 008b 13       		.uleb128 0x13
 486 008c 00       		.byte	0
 487 008d 00       		.byte	0
 488 008e 0C       		.uleb128 0xc
 489 008f 8A8201   		.uleb128 0x410a
 490 0092 00       		.byte	0
 491 0093 02       		.uleb128 0x2
 492 0094 18       		.uleb128 0x18
 493 0095 9142     		.uleb128 0x2111
 494 0097 18       		.uleb128 0x18
 495 0098 00       		.byte	0
 496 0099 00       		.byte	0
 497 009a 0D       		.uleb128 0xd
 498 009b 898201   		.uleb128 0x4109
 499 009e 01       		.byte	0x1
 500 009f 11       		.uleb128 0x11
 501 00a0 01       		.uleb128 0x1
 502 00a1 31       		.uleb128 0x31
 503 00a2 13       		.uleb128 0x13
 504 00a3 00       		.byte	0
 505 00a4 00       		.byte	0
 506 00a5 0E       		.uleb128 0xe
 507 00a6 34       		.uleb128 0x34
 508 00a7 00       		.byte	0
 509 00a8 03       		.uleb128 0x3
 510 00a9 0E       		.uleb128 0xe
 511 00aa 3A       		.uleb128 0x3a
 512 00ab 0B       		.uleb128 0xb
 513 00ac 3B       		.uleb128 0x3b
 514 00ad 05       		.uleb128 0x5
 515 00ae 49       		.uleb128 0x49
 516 00af 13       		.uleb128 0x13
 517 00b0 3F       		.uleb128 0x3f
 518 00b1 19       		.uleb128 0x19
 519 00b2 3C       		.uleb128 0x3c
 520 00b3 19       		.uleb128 0x19
 521 00b4 00       		.byte	0
 522 00b5 00       		.byte	0
 523 00b6 0F       		.uleb128 0xf
 524 00b7 2E       		.uleb128 0x2e
 525 00b8 00       		.byte	0
 526 00b9 3F       		.uleb128 0x3f
 527 00ba 19       		.uleb128 0x19
 528 00bb 03       		.uleb128 0x3
 529 00bc 0E       		.uleb128 0xe
 530 00bd 3A       		.uleb128 0x3a
 531 00be 0B       		.uleb128 0xb
 532 00bf 3B       		.uleb128 0x3b
 533 00c0 0B       		.uleb128 0xb
ARM GAS  /tmp/ccOBSLij.s 			page 11


 534 00c1 27       		.uleb128 0x27
 535 00c2 19       		.uleb128 0x19
 536 00c3 3C       		.uleb128 0x3c
 537 00c4 19       		.uleb128 0x19
 538 00c5 00       		.byte	0
 539 00c6 00       		.byte	0
 540 00c7 10       		.uleb128 0x10
 541 00c8 2E       		.uleb128 0x2e
 542 00c9 00       		.byte	0
 543 00ca 3F       		.uleb128 0x3f
 544 00cb 19       		.uleb128 0x19
 545 00cc 03       		.uleb128 0x3
 546 00cd 0E       		.uleb128 0xe
 547 00ce 3A       		.uleb128 0x3a
 548 00cf 0B       		.uleb128 0xb
 549 00d0 3B       		.uleb128 0x3b
 550 00d1 05       		.uleb128 0x5
 551 00d2 27       		.uleb128 0x27
 552 00d3 19       		.uleb128 0x19
 553 00d4 3C       		.uleb128 0x3c
 554 00d5 19       		.uleb128 0x19
 555 00d6 00       		.byte	0
 556 00d7 00       		.byte	0
 557 00d8 11       		.uleb128 0x11
 558 00d9 2E       		.uleb128 0x2e
 559 00da 00       		.byte	0
 560 00db 3F       		.uleb128 0x3f
 561 00dc 19       		.uleb128 0x19
 562 00dd 03       		.uleb128 0x3
 563 00de 0E       		.uleb128 0xe
 564 00df 3A       		.uleb128 0x3a
 565 00e0 0B       		.uleb128 0xb
 566 00e1 3B       		.uleb128 0x3b
 567 00e2 0B       		.uleb128 0xb
 568 00e3 27       		.uleb128 0x27
 569 00e4 19       		.uleb128 0x19
 570 00e5 49       		.uleb128 0x49
 571 00e6 13       		.uleb128 0x13
 572 00e7 3C       		.uleb128 0x3c
 573 00e8 19       		.uleb128 0x19
 574 00e9 00       		.byte	0
 575 00ea 00       		.byte	0
 576 00eb 12       		.uleb128 0x12
 577 00ec 2E       		.uleb128 0x2e
 578 00ed 01       		.byte	0x1
 579 00ee 3F       		.uleb128 0x3f
 580 00ef 19       		.uleb128 0x19
 581 00f0 03       		.uleb128 0x3
 582 00f1 0E       		.uleb128 0xe
 583 00f2 3A       		.uleb128 0x3a
 584 00f3 0B       		.uleb128 0xb
 585 00f4 3B       		.uleb128 0x3b
 586 00f5 0B       		.uleb128 0xb
 587 00f6 27       		.uleb128 0x27
 588 00f7 19       		.uleb128 0x19
 589 00f8 49       		.uleb128 0x49
 590 00f9 13       		.uleb128 0x13
ARM GAS  /tmp/ccOBSLij.s 			page 12


 591 00fa 3C       		.uleb128 0x3c
 592 00fb 19       		.uleb128 0x19
 593 00fc 01       		.uleb128 0x1
 594 00fd 13       		.uleb128 0x13
 595 00fe 00       		.byte	0
 596 00ff 00       		.byte	0
 597 0100 13       		.uleb128 0x13
 598 0101 05       		.uleb128 0x5
 599 0102 00       		.byte	0
 600 0103 49       		.uleb128 0x49
 601 0104 13       		.uleb128 0x13
 602 0105 00       		.byte	0
 603 0106 00       		.byte	0
 604 0107 14       		.uleb128 0x14
 605 0108 18       		.uleb128 0x18
 606 0109 00       		.byte	0
 607 010a 00       		.byte	0
 608 010b 00       		.byte	0
 609 010c 15       		.uleb128 0x15
 610 010d 2E       		.uleb128 0x2e
 611 010e 01       		.byte	0x1
 612 010f 3F       		.uleb128 0x3f
 613 0110 19       		.uleb128 0x19
 614 0111 03       		.uleb128 0x3
 615 0112 0E       		.uleb128 0xe
 616 0113 3A       		.uleb128 0x3a
 617 0114 0B       		.uleb128 0xb
 618 0115 3B       		.uleb128 0x3b
 619 0116 0B       		.uleb128 0xb
 620 0117 27       		.uleb128 0x27
 621 0118 19       		.uleb128 0x19
 622 0119 3C       		.uleb128 0x3c
 623 011a 19       		.uleb128 0x19
 624 011b 00       		.byte	0
 625 011c 00       		.byte	0
 626 011d 00       		.byte	0
 627              		.section	.debug_aranges,"",%progbits
 628 0000 1C000000 		.4byte	0x1c
 629 0004 0200     		.2byte	0x2
 630 0006 00000000 		.4byte	.Ldebug_info0
 631 000a 04       		.byte	0x4
 632 000b 00       		.byte	0
 633 000c 0000     		.2byte	0
 634 000e 0000     		.2byte	0
 635 0010 00000000 		.4byte	.Ltext0
 636 0014 58000000 		.4byte	.Letext0-.Ltext0
 637 0018 00000000 		.4byte	0
 638 001c 00000000 		.4byte	0
 639              		.section	.debug_line,"",%progbits
 640              	.Ldebug_line0:
 641 0000 33010000 		.section	.debug_str,"MS",%progbits,1
 641      0200FA00 
 641      00000201 
 641      FB0E0D00 
 641      01010101 
 642              	.LASF5:
 643 0000 5F5F696E 		.ascii	"__int32_t\000"
ARM GAS  /tmp/ccOBSLij.s 			page 13


 643      7433325F 
 643      7400
 644              	.LASF26:
 645 000a 70726F6A 		.ascii	"project/main.c\000"
 645      6563742F 
 645      6D61696E 
 645      2E6300
 646              	.LASF3:
 647 0019 73686F72 		.ascii	"short unsigned int\000"
 647      7420756E 
 647      7369676E 
 647      65642069 
 647      6E7400
 648              	.LASF21:
 649 002c 55736572 		.ascii	"UserInit\000"
 649      496E6974 
 649      00
 650              	.LASF15:
 651 0035 646F7562 		.ascii	"double\000"
 651      6C6500
 652              	.LASF16:
 653 003c 666C6F61 		.ascii	"float\000"
 653      7400
 654              	.LASF9:
 655 0042 6C6F6E67 		.ascii	"long long unsigned int\000"
 655      206C6F6E 
 655      6720756E 
 655      7369676E 
 655      65642069 
 656              	.LASF1:
 657 0059 756E7369 		.ascii	"unsigned char\000"
 657      676E6564 
 657      20636861 
 657      7200
 658              	.LASF25:
 659 0067 474E5520 		.ascii	"GNU C 4.9.3 20150529 (prerelease) -mcpu=cortex-m3 -"
 659      4320342E 
 659      392E3320 
 659      32303135 
 659      30353239 
 660 009a 6D746875 		.ascii	"mthumb -mfloat-abi=soft -g -O1 -std=gnu90 -fno-comm"
 660      6D62202D 
 660      6D666C6F 
 660      61742D61 
 660      62693D73 
 661 00cd 6F6E202D 		.ascii	"on -fno-math-errno\000"
 661      666E6F2D 
 661      6D617468 
 661      2D657272 
 661      6E6F00
 662              	.LASF19:
 663 00e0 69506974 		.ascii	"iPitch\000"
 663      636800
 664              	.LASF18:
 665 00e7 49544D5F 		.ascii	"ITM_RxBuffer\000"
 665      52784275 
 665      66666572 
ARM GAS  /tmp/ccOBSLij.s 			page 14


 665      00
 666              	.LASF4:
 667 00f4 5F5F7569 		.ascii	"__uint16_t\000"
 667      6E743136 
 667      5F7400
 668              	.LASF7:
 669 00ff 6C6F6E67 		.ascii	"long unsigned int\000"
 669      20756E73 
 669      69676E65 
 669      6420696E 
 669      7400
 670              	.LASF28:
 671 0111 6D61696E 		.ascii	"main\000"
 671      00
 672              	.LASF31:
 673 0116 44656C61 		.ascii	"DelayMs\000"
 673      794D7300 
 674              	.LASF10:
 675 011e 756E7369 		.ascii	"unsigned int\000"
 675      676E6564 
 675      20696E74 
 675      00
 676              	.LASF14:
 677 012b 63686172 		.ascii	"char\000"
 677      00
 678              	.LASF20:
 679 0130 53797374 		.ascii	"SystemInit\000"
 679      656D496E 
 679      697400
 680              	.LASF12:
 681 013b 696E7433 		.ascii	"int32_t\000"
 681      325F7400 
 682              	.LASF13:
 683 0143 73697A65 		.ascii	"sizetype\000"
 683      74797065 
 683      00
 684              	.LASF8:
 685 014c 6C6F6E67 		.ascii	"long long int\000"
 685      206C6F6E 
 685      6720696E 
 685      7400
 686              	.LASF30:
 687 015a 7072696E 		.ascii	"printf\000"
 687      746600
 688              	.LASF27:
 689 0161 2F686F6D 		.ascii	"/home/hdd/Backup/Documents/code/STM/stm32-quadrocop"
 689      652F6864 
 689      642F4261 
 689      636B7570 
 689      2F446F63 
 690 0194 74657200 		.ascii	"ter\000"
 691              	.LASF2:
 692 0198 73686F72 		.ascii	"short int\000"
 692      7420696E 
 692      7400
 693              	.LASF22:
 694 01a2 4D505536 		.ascii	"MPU6050_Init\000"
ARM GAS  /tmp/ccOBSLij.s 			page 15


 694      3035305F 
 694      496E6974 
 694      00
 695              	.LASF11:
 696 01af 75696E74 		.ascii	"uint16_t\000"
 696      31365F74 
 696      00
 697              	.LASF6:
 698 01b8 6C6F6E67 		.ascii	"long int\000"
 698      20696E74 
 698      00
 699              	.LASF17:
 700 01c1 6C6F6E67 		.ascii	"long double\000"
 700      20646F75 
 700      626C6500 
 701              	.LASF0:
 702 01cd 7369676E 		.ascii	"signed char\000"
 702      65642063 
 702      68617200 
 703              	.LASF29:
 704 01d9 48435352 		.ascii	"HCSR04_Get\000"
 704      30345F47 
 704      657400
 705              	.LASF23:
 706 01e4 444D505F 		.ascii	"DMP_Init\000"
 706      496E6974 
 706      00
 707              	.LASF24:
 708 01ed 52656164 		.ascii	"Read_DMP\000"
 708      5F444D50 
 708      00
 709              		.ident	"GCC: (15:4.9.3+svn231177-1) 4.9.3 20150529 (prerelease)"
ARM GAS  /tmp/ccOBSLij.s 			page 16


DEFINED SYMBOLS
                            *ABS*:0000000000000000 main.c
     /tmp/ccOBSLij.s:18     .text:0000000000000000 $t
     /tmp/ccOBSLij.s:23     .text:0000000000000000 main
     /tmp/ccOBSLij.s:83     .text:0000000000000044 $d
     /tmp/ccOBSLij.s:92     .rodata.str1.4:0000000000000000 $d
                     .debug_frame:0000000000000010 $d

UNDEFINED SYMBOLS
SystemInit
UserInit
MPU6050_Init
DMP_Init
HCSR04_Get
printf
Read_DMP
DelayMs
iPitch
