ARM GAS  /tmp/ccXCY7I7.s 			page 1


   1              		.cpu cortex-m3
   2              		.eabi_attribute 20, 1
   3              		.eabi_attribute 21, 1
   4              		.eabi_attribute 23, 3
   5              		.eabi_attribute 24, 1
   6              		.eabi_attribute 25, 1
   7              		.eabi_attribute 26, 1
   8              		.eabi_attribute 30, 6
   9              		.eabi_attribute 34, 1
  10              		.eabi_attribute 18, 4
  11              		.file	"main.c"
  12              		.text
  13              	.Ltext0:
  14              		.cfi_sections	.debug_frame
  15              		.section	.rodata
  16              		.align	2
  17              	.LC0:
  18 0000 68656967 		.ascii	"height:%d\015\012\000"
  18      68743A25 
  18      640D0A00 
  19              		.align	2
  20              	.LC1:
  21 000c 48656C6C 		.ascii	"Hello World.\000"
  21      6F20576F 
  21      726C642E 
  21      00
  22 0019 000000   		.align	2
  23              	.LC2:
  24 001c 73747269 		.ascii	"string:%s\015\012\000"
  24      6E673A25 
  24      730D0A00 
  25              		.align	2
  26              	.LC3:
  27 0028 666C6F61 		.ascii	"float:%lf\015\012\000"
  27      743A256C 
  27      660D0A00 
  28              		.text
  29              		.align	1
  30              		.global	main
  31              		.syntax unified
  32              		.thumb
  33              		.thumb_func
  34              		.fpu softvfp
  35              		.type	main, %function
  36              	main:
  37              	.LFB64:
  38              		.file 1 "src/main.c"
   1:src/main.c    **** /**
   2:src/main.c    ****  * STM32F103C8 Quadrocopter
   3:src/main.c    ****  */
   4:src/main.c    **** #include "main.h"
   5:src/main.c    **** 
   6:src/main.c    **** int main(void)
   7:src/main.c    **** {
  39              		.loc 1 7 0
  40              		.cfi_startproc
  41              		@ args = 0, pretend = 0, frame = 8
ARM GAS  /tmp/ccXCY7I7.s 			page 2


  42              		@ frame_needed = 1, uses_anonymous_args = 0
  43 0000 90B5     		push	{r4, r7, lr}
  44              		.cfi_def_cfa_offset 12
  45              		.cfi_offset 4, -12
  46              		.cfi_offset 7, -8
  47              		.cfi_offset 14, -4
  48 0002 83B0     		sub	sp, sp, #12
  49              		.cfi_def_cfa_offset 24
  50 0004 00AF     		add	r7, sp, #0
  51              		.cfi_def_cfa_register 7
   8:src/main.c    ****   SystemInit();
  52              		.loc 1 8 0
  53 0006 FFF7FEFF 		bl	SystemInit
   9:src/main.c    ****   RCC_Conf();
  54              		.loc 1 9 0
  55 000a FFF7FEFF 		bl	RCC_Conf
  10:src/main.c    ****   NVIC_Conf();
  56              		.loc 1 10 0
  57 000e FFF7FEFF 		bl	NVIC_Conf
  11:src/main.c    ****   GPIO_Conf();
  58              		.loc 1 11 0
  59 0012 FFF7FEFF 		bl	GPIO_Conf
  12:src/main.c    ****   USART_Conf();  
  60              		.loc 1 12 0
  61 0016 FFF7FEFF 		bl	USART_Conf
  13:src/main.c    ****   TIMER_Conf();
  62              		.loc 1 13 0
  63 001a FFF7FEFF 		bl	TIMER_Conf
  14:src/main.c    ****   delay_init(72);
  64              		.loc 1 14 0
  65 001e 4820     		movs	r0, #72
  66 0020 FFF7FEFF 		bl	delay_init
  15:src/main.c    **** 
  16:src/main.c    ****   /*IIC_Init();*/
  17:src/main.c    ****   /*MPU6050_Init();*/
  18:src/main.c    ****   /*DMP_Init();*/
  19:src/main.c    **** 
  20:src/main.c    ****   double test = 90.323f;
  67              		.loc 1 20 0
  68 0024 0EA4     		adr	r4, .L3
  69 0026 D4E90034 		ldrd	r3, [r4]
  70 002a C7E90034 		strd	r3, [r7]
  71              	.L2:
  21:src/main.c    **** 
  22:src/main.c    ****   while (1) {  
  23:src/main.c    ****     /*Read_DMP();*/
  24:src/main.c    ****     /*printf("float:%f\r\n", 34.55f);*/
  25:src/main.c    ****     printf("height:%d\r\n", HCSR04_Get());
  72              		.loc 1 25 0 discriminator 1
  73 002e FFF7FEFF 		bl	HCSR04_Get
  74 0032 0346     		mov	r3, r0
  75 0034 1946     		mov	r1, r3
  76 0036 0C48     		ldr	r0, .L3+8
  77 0038 FFF7FEFF 		bl	printf
  26:src/main.c    ****     
  27:src/main.c    ****     delay_us(1000);
  78              		.loc 1 27 0 discriminator 1
ARM GAS  /tmp/ccXCY7I7.s 			page 3


  79 003c 4FF47A70 		mov	r0, #1000
  80 0040 FFF7FEFF 		bl	delay_us
  28:src/main.c    ****     printf("string:%s\r\n", "Hello World.");
  81              		.loc 1 28 0 discriminator 1
  82 0044 0949     		ldr	r1, .L3+12
  83 0046 0A48     		ldr	r0, .L3+16
  84 0048 FFF7FEFF 		bl	printf
  29:src/main.c    ****     printf("float:%lf\r\n", test);
  85              		.loc 1 29 0 discriminator 1
  86 004c D7E90023 		ldrd	r2, [r7]
  87 0050 0848     		ldr	r0, .L3+20
  88 0052 FFF7FEFF 		bl	printf
  30:src/main.c    ****     delay_ms(1000);
  89              		.loc 1 30 0 discriminator 1
  90 0056 4FF47A70 		mov	r0, #1000
  91 005a FFF7FEFF 		bl	delay_ms
  25:src/main.c    ****     
  92              		.loc 1 25 0 discriminator 1
  93 005e E6E7     		b	.L2
  94              	.L4:
  95              		.align	3
  96              	.L3:
  97 0060 00000000 		.word	0
  98 0064 AC945640 		.word	1079415980
  99 0068 00000000 		.word	.LC0
 100 006c 0C000000 		.word	.LC1
 101 0070 1C000000 		.word	.LC2
 102 0074 28000000 		.word	.LC3
 103              		.cfi_endproc
 104              	.LFE64:
 105              		.size	main, .-main
 106              	.Letext0:
 107              		.file 2 "/usr/arm-none-eabi/include/machine/_default_types.h"
 108              		.file 3 "/usr/arm-none-eabi/include/sys/_stdint.h"
 109              		.file 4 "include/../include/STM32/../CMSIS/core_cm3.h"
 110              		.file 5 "include/../include/STM32/system_stm32f10x.h"
 111              		.file 6 "include/../include/MPU6050/mpu6050.h"
 112              		.file 7 "/usr/arm-none-eabi/include/sys/lock.h"
 113              		.file 8 "/usr/arm-none-eabi/include/sys/_types.h"
 114              		.file 9 "/usr/lib/gcc/arm-none-eabi/6.1.1/include/stddef.h"
 115              		.file 10 "/usr/arm-none-eabi/include/sys/reent.h"
 116              		.file 11 "/usr/arm-none-eabi/include/math.h"
 117              		.section	.debug_info,"",%progbits
 118              	.Ldebug_info0:
 119 0000 C4090000 		.4byte	0x9c4
 120 0004 0400     		.2byte	0x4
 121 0006 00000000 		.4byte	.Ldebug_abbrev0
 122 000a 04       		.byte	0x4
 123 000b 01       		.uleb128 0x1
 124 000c A0040000 		.4byte	.LASF143
 125 0010 0C       		.byte	0xc
 126 0011 1E000000 		.4byte	.LASF144
 127 0015 6B010000 		.4byte	.LASF145
 128 0019 00000000 		.4byte	.Ltext0
 129 001d 78000000 		.4byte	.Letext0-.Ltext0
 130 0021 00000000 		.4byte	.Ldebug_line0
 131 0025 02       		.uleb128 0x2
ARM GAS  /tmp/ccXCY7I7.s 			page 4


 132 0026 01       		.byte	0x1
 133 0027 06       		.byte	0x6
 134 0028 06010000 		.4byte	.LASF0
 135 002c 02       		.uleb128 0x2
 136 002d 01       		.byte	0x1
 137 002e 08       		.byte	0x8
 138 002f 71030000 		.4byte	.LASF1
 139 0033 03       		.uleb128 0x3
 140 0034 8B050000 		.4byte	.LASF4
 141 0038 02       		.byte	0x2
 142 0039 29       		.byte	0x29
 143 003a 3E000000 		.4byte	0x3e
 144 003e 02       		.uleb128 0x2
 145 003f 02       		.byte	0x2
 146 0040 05       		.byte	0x5
 147 0041 0C000000 		.4byte	.LASF2
 148 0045 02       		.uleb128 0x2
 149 0046 02       		.byte	0x2
 150 0047 07       		.byte	0x7
 151 0048 DE040000 		.4byte	.LASF3
 152 004c 03       		.uleb128 0x3
 153 004d 75040000 		.4byte	.LASF5
 154 0051 02       		.byte	0x2
 155 0052 3F       		.byte	0x3f
 156 0053 57000000 		.4byte	0x57
 157 0057 02       		.uleb128 0x2
 158 0058 04       		.byte	0x4
 159 0059 05       		.byte	0x5
 160 005a 62010000 		.4byte	.LASF6
 161 005e 03       		.uleb128 0x3
 162 005f 0D020000 		.4byte	.LASF7
 163 0063 02       		.byte	0x2
 164 0064 41       		.byte	0x41
 165 0065 69000000 		.4byte	0x69
 166 0069 02       		.uleb128 0x2
 167 006a 04       		.byte	0x4
 168 006b 07       		.byte	0x7
 169 006c 6C020000 		.4byte	.LASF8
 170 0070 02       		.uleb128 0x2
 171 0071 08       		.byte	0x8
 172 0072 05       		.byte	0x5
 173 0073 C4010000 		.4byte	.LASF9
 174 0077 02       		.uleb128 0x2
 175 0078 08       		.byte	0x8
 176 0079 07       		.byte	0x7
 177 007a 74000000 		.4byte	.LASF10
 178 007e 04       		.uleb128 0x4
 179 007f 04       		.byte	0x4
 180 0080 05       		.byte	0x5
 181 0081 696E7400 		.ascii	"int\000"
 182 0085 02       		.uleb128 0x2
 183 0086 04       		.byte	0x4
 184 0087 07       		.byte	0x7
 185 0088 68040000 		.4byte	.LASF11
 186 008c 03       		.uleb128 0x3
 187 008d F0000000 		.4byte	.LASF12
 188 0091 03       		.byte	0x3
ARM GAS  /tmp/ccXCY7I7.s 			page 5


 189 0092 20       		.byte	0x20
 190 0093 33000000 		.4byte	0x33
 191 0097 03       		.uleb128 0x3
 192 0098 69030000 		.4byte	.LASF13
 193 009c 03       		.byte	0x3
 194 009d 2C       		.byte	0x2c
 195 009e 4C000000 		.4byte	0x4c
 196 00a2 05       		.uleb128 0x5
 197 00a3 97000000 		.4byte	0x97
 198 00a7 03       		.uleb128 0x3
 199 00a8 E3050000 		.4byte	.LASF14
 200 00ac 03       		.byte	0x3
 201 00ad 30       		.byte	0x30
 202 00ae 5E000000 		.4byte	0x5e
 203 00b2 02       		.uleb128 0x2
 204 00b3 04       		.byte	0x4
 205 00b4 07       		.byte	0x7
 206 00b5 E5020000 		.4byte	.LASF15
 207 00b9 06       		.uleb128 0x6
 208 00ba A8000000 		.4byte	.LASF16
 209 00be 04       		.byte	0x4
 210 00bf 9606     		.2byte	0x696
 211 00c1 A2000000 		.4byte	0xa2
 212 00c5 07       		.uleb128 0x7
 213 00c6 4C020000 		.4byte	.LASF17
 214 00ca 05       		.byte	0x5
 215 00cb 35       		.byte	0x35
 216 00cc A7000000 		.4byte	0xa7
 217 00d0 08       		.uleb128 0x8
 218 00d1 09       		.uleb128 0x9
 219 00d2 04       		.byte	0x4
 220 00d3 D0000000 		.4byte	0xd0
 221 00d7 0A       		.uleb128 0xa
 222 00d8 3E000000 		.4byte	0x3e
 223 00dc E7000000 		.4byte	0xe7
 224 00e0 0B       		.uleb128 0xb
 225 00e1 B2000000 		.4byte	0xb2
 226 00e5 02       		.byte	0x2
 227 00e6 00       		.byte	0
 228 00e7 06       		.uleb128 0x6
 229 00e8 C5000000 		.4byte	.LASF18
 230 00ec 06       		.byte	0x6
 231 00ed 6301     		.2byte	0x163
 232 00ef D7000000 		.4byte	0xd7
 233 00f3 06       		.uleb128 0x6
 234 00f4 FF020000 		.4byte	.LASF19
 235 00f8 06       		.byte	0x6
 236 00f9 6301     		.2byte	0x163
 237 00fb D7000000 		.4byte	0xd7
 238 00ff 06       		.uleb128 0x6
 239 0100 18010000 		.4byte	.LASF20
 240 0104 06       		.byte	0x6
 241 0105 6401     		.2byte	0x164
 242 0107 8C000000 		.4byte	0x8c
 243 010b 06       		.uleb128 0x6
 244 010c EE020000 		.4byte	.LASF21
 245 0110 06       		.byte	0x6
ARM GAS  /tmp/ccXCY7I7.s 			page 6


 246 0111 6401     		.2byte	0x164
 247 0113 8C000000 		.4byte	0x8c
 248 0117 06       		.uleb128 0x6
 249 0118 05030000 		.4byte	.LASF22
 250 011c 06       		.byte	0x6
 251 011d 6401     		.2byte	0x164
 252 011f 8C000000 		.4byte	0x8c
 253 0123 06       		.uleb128 0x6
 254 0124 45010000 		.4byte	.LASF23
 255 0128 06       		.byte	0x6
 256 0129 6501     		.2byte	0x165
 257 012b 2F010000 		.4byte	0x12f
 258 012f 02       		.uleb128 0x2
 259 0130 04       		.byte	0x4
 260 0131 04       		.byte	0x4
 261 0132 41030000 		.4byte	.LASF24
 262 0136 06       		.uleb128 0x6
 263 0137 51030000 		.4byte	.LASF25
 264 013b 06       		.byte	0x6
 265 013c 6601     		.2byte	0x166
 266 013e 2F010000 		.4byte	0x12f
 267 0142 06       		.uleb128 0x6
 268 0143 7F040000 		.4byte	.LASF26
 269 0147 06       		.byte	0x6
 270 0148 6601     		.2byte	0x166
 271 014a 2F010000 		.4byte	0x12f
 272 014e 0C       		.uleb128 0xc
 273 014f 59617700 		.ascii	"Yaw\000"
 274 0153 06       		.byte	0x6
 275 0154 6601     		.2byte	0x166
 276 0156 2F010000 		.4byte	0x12f
 277 015a 02       		.uleb128 0x2
 278 015b 08       		.byte	0x8
 279 015c 04       		.byte	0x4
 280 015d 41040000 		.4byte	.LASF27
 281 0161 0D       		.uleb128 0xd
 282 0162 04       		.byte	0x4
 283 0163 03       		.uleb128 0x3
 284 0164 57030000 		.4byte	.LASF28
 285 0168 07       		.byte	0x7
 286 0169 07       		.byte	0x7
 287 016a 7E000000 		.4byte	0x7e
 288 016e 03       		.uleb128 0x3
 289 016f F8000000 		.4byte	.LASF29
 290 0173 08       		.byte	0x8
 291 0174 2C       		.byte	0x2c
 292 0175 57000000 		.4byte	0x57
 293 0179 03       		.uleb128 0x3
 294 017a 39040000 		.4byte	.LASF30
 295 017e 08       		.byte	0x8
 296 017f 72       		.byte	0x72
 297 0180 57000000 		.4byte	0x57
 298 0184 0E       		.uleb128 0xe
 299 0185 3A030000 		.4byte	.LASF31
 300 0189 09       		.byte	0x9
 301 018a 6501     		.2byte	0x165
 302 018c 85000000 		.4byte	0x85
ARM GAS  /tmp/ccXCY7I7.s 			page 7


 303 0190 0F       		.uleb128 0xf
 304 0191 04       		.byte	0x4
 305 0192 08       		.byte	0x8
 306 0193 A6       		.byte	0xa6
 307 0194 AF010000 		.4byte	0x1af
 308 0198 10       		.uleb128 0x10
 309 0199 BD020000 		.4byte	.LASF32
 310 019d 08       		.byte	0x8
 311 019e A8       		.byte	0xa8
 312 019f 84010000 		.4byte	0x184
 313 01a3 10       		.uleb128 0x10
 314 01a4 45020000 		.4byte	.LASF33
 315 01a8 08       		.byte	0x8
 316 01a9 A9       		.byte	0xa9
 317 01aa AF010000 		.4byte	0x1af
 318 01ae 00       		.byte	0
 319 01af 0A       		.uleb128 0xa
 320 01b0 2C000000 		.4byte	0x2c
 321 01b4 BF010000 		.4byte	0x1bf
 322 01b8 0B       		.uleb128 0xb
 323 01b9 B2000000 		.4byte	0xb2
 324 01bd 03       		.byte	0x3
 325 01be 00       		.byte	0
 326 01bf 11       		.uleb128 0x11
 327 01c0 08       		.byte	0x8
 328 01c1 08       		.byte	0x8
 329 01c2 A3       		.byte	0xa3
 330 01c3 E0010000 		.4byte	0x1e0
 331 01c7 12       		.uleb128 0x12
 332 01c8 19040000 		.4byte	.LASF34
 333 01cc 08       		.byte	0x8
 334 01cd A5       		.byte	0xa5
 335 01ce 7E000000 		.4byte	0x7e
 336 01d2 00       		.byte	0
 337 01d3 12       		.uleb128 0x12
 338 01d4 21040000 		.4byte	.LASF35
 339 01d8 08       		.byte	0x8
 340 01d9 AA       		.byte	0xaa
 341 01da 90010000 		.4byte	0x190
 342 01de 04       		.byte	0x4
 343 01df 00       		.byte	0
 344 01e0 03       		.uleb128 0x3
 345 01e1 B7030000 		.4byte	.LASF36
 346 01e5 08       		.byte	0x8
 347 01e6 AB       		.byte	0xab
 348 01e7 BF010000 		.4byte	0x1bf
 349 01eb 03       		.uleb128 0x3
 350 01ec 8E030000 		.4byte	.LASF37
 351 01f0 08       		.byte	0x8
 352 01f1 AF       		.byte	0xaf
 353 01f2 63010000 		.4byte	0x163
 354 01f6 03       		.uleb128 0x3
 355 01f7 F6040000 		.4byte	.LASF38
 356 01fb 0A       		.byte	0xa
 357 01fc 16       		.byte	0x16
 358 01fd 69000000 		.4byte	0x69
 359 0201 13       		.uleb128 0x13
ARM GAS  /tmp/ccXCY7I7.s 			page 8


 360 0202 32020000 		.4byte	.LASF43
 361 0206 18       		.byte	0x18
 362 0207 0A       		.byte	0xa
 363 0208 2D       		.byte	0x2d
 364 0209 54020000 		.4byte	0x254
 365 020d 12       		.uleb128 0x12
 366 020e 84040000 		.4byte	.LASF39
 367 0212 0A       		.byte	0xa
 368 0213 2F       		.byte	0x2f
 369 0214 54020000 		.4byte	0x254
 370 0218 00       		.byte	0
 371 0219 14       		.uleb128 0x14
 372 021a 5F6B00   		.ascii	"_k\000"
 373 021d 0A       		.byte	0xa
 374 021e 30       		.byte	0x30
 375 021f 7E000000 		.4byte	0x7e
 376 0223 04       		.byte	0x4
 377 0224 12       		.uleb128 0x12
 378 0225 04040000 		.4byte	.LASF40
 379 0229 0A       		.byte	0xa
 380 022a 30       		.byte	0x30
 381 022b 7E000000 		.4byte	0x7e
 382 022f 08       		.byte	0x8
 383 0230 12       		.uleb128 0x12
 384 0231 18020000 		.4byte	.LASF41
 385 0235 0A       		.byte	0xa
 386 0236 30       		.byte	0x30
 387 0237 7E000000 		.4byte	0x7e
 388 023b 0C       		.byte	0xc
 389 023c 12       		.uleb128 0x12
 390 023d 5C050000 		.4byte	.LASF42
 391 0241 0A       		.byte	0xa
 392 0242 30       		.byte	0x30
 393 0243 7E000000 		.4byte	0x7e
 394 0247 10       		.byte	0x10
 395 0248 14       		.uleb128 0x14
 396 0249 5F7800   		.ascii	"_x\000"
 397 024c 0A       		.byte	0xa
 398 024d 31       		.byte	0x31
 399 024e 5A020000 		.4byte	0x25a
 400 0252 14       		.byte	0x14
 401 0253 00       		.byte	0
 402 0254 09       		.uleb128 0x9
 403 0255 04       		.byte	0x4
 404 0256 01020000 		.4byte	0x201
 405 025a 0A       		.uleb128 0xa
 406 025b F6010000 		.4byte	0x1f6
 407 025f 6A020000 		.4byte	0x26a
 408 0263 0B       		.uleb128 0xb
 409 0264 B2000000 		.4byte	0xb2
 410 0268 00       		.byte	0
 411 0269 00       		.byte	0
 412 026a 13       		.uleb128 0x13
 413 026b 40020000 		.4byte	.LASF44
 414 026f 24       		.byte	0x24
 415 0270 0A       		.byte	0xa
 416 0271 35       		.byte	0x35
ARM GAS  /tmp/ccXCY7I7.s 			page 9


 417 0272 E3020000 		.4byte	0x2e3
 418 0276 12       		.uleb128 0x12
 419 0277 E7000000 		.4byte	.LASF45
 420 027b 0A       		.byte	0xa
 421 027c 37       		.byte	0x37
 422 027d 7E000000 		.4byte	0x7e
 423 0281 00       		.byte	0
 424 0282 12       		.uleb128 0x12
 425 0283 BD050000 		.4byte	.LASF46
 426 0287 0A       		.byte	0xa
 427 0288 38       		.byte	0x38
 428 0289 7E000000 		.4byte	0x7e
 429 028d 04       		.byte	0x4
 430 028e 12       		.uleb128 0x12
 431 028f 28010000 		.4byte	.LASF47
 432 0293 0A       		.byte	0xa
 433 0294 39       		.byte	0x39
 434 0295 7E000000 		.4byte	0x7e
 435 0299 08       		.byte	0x8
 436 029a 12       		.uleb128 0x12
 437 029b EC050000 		.4byte	.LASF48
 438 029f 0A       		.byte	0xa
 439 02a0 3A       		.byte	0x3a
 440 02a1 7E000000 		.4byte	0x7e
 441 02a5 0C       		.byte	0xc
 442 02a6 12       		.uleb128 0x12
 443 02a7 0F030000 		.4byte	.LASF49
 444 02ab 0A       		.byte	0xa
 445 02ac 3B       		.byte	0x3b
 446 02ad 7E000000 		.4byte	0x7e
 447 02b1 10       		.byte	0x10
 448 02b2 12       		.uleb128 0x12
 449 02b3 DB020000 		.4byte	.LASF50
 450 02b7 0A       		.byte	0xa
 451 02b8 3C       		.byte	0x3c
 452 02b9 7E000000 		.4byte	0x7e
 453 02bd 14       		.byte	0x14
 454 02be 12       		.uleb128 0x12
 455 02bf 2F040000 		.4byte	.LASF51
 456 02c3 0A       		.byte	0xa
 457 02c4 3D       		.byte	0x3d
 458 02c5 7E000000 		.4byte	0x7e
 459 02c9 18       		.byte	0x18
 460 02ca 12       		.uleb128 0x12
 461 02cb 97030000 		.4byte	.LASF52
 462 02cf 0A       		.byte	0xa
 463 02d0 3E       		.byte	0x3e
 464 02d1 7E000000 		.4byte	0x7e
 465 02d5 1C       		.byte	0x1c
 466 02d6 12       		.uleb128 0x12
 467 02d7 A3050000 		.4byte	.LASF53
 468 02db 0A       		.byte	0xa
 469 02dc 3F       		.byte	0x3f
 470 02dd 7E000000 		.4byte	0x7e
 471 02e1 20       		.byte	0x20
 472 02e2 00       		.byte	0
 473 02e3 15       		.uleb128 0x15
ARM GAS  /tmp/ccXCY7I7.s 			page 10


 474 02e4 37010000 		.4byte	.LASF54
 475 02e8 0801     		.2byte	0x108
 476 02ea 0A       		.byte	0xa
 477 02eb 48       		.byte	0x48
 478 02ec 23030000 		.4byte	0x323
 479 02f0 12       		.uleb128 0x12
 480 02f1 16000000 		.4byte	.LASF55
 481 02f5 0A       		.byte	0xa
 482 02f6 49       		.byte	0x49
 483 02f7 23030000 		.4byte	0x323
 484 02fb 00       		.byte	0
 485 02fc 12       		.uleb128 0x12
 486 02fd 00000000 		.4byte	.LASF56
 487 0301 0A       		.byte	0xa
 488 0302 4A       		.byte	0x4a
 489 0303 23030000 		.4byte	0x323
 490 0307 80       		.byte	0x80
 491 0308 16       		.uleb128 0x16
 492 0309 97040000 		.4byte	.LASF57
 493 030d 0A       		.byte	0xa
 494 030e 4C       		.byte	0x4c
 495 030f F6010000 		.4byte	0x1f6
 496 0313 0001     		.2byte	0x100
 497 0315 16       		.uleb128 0x16
 498 0316 9D010000 		.4byte	.LASF58
 499 031a 0A       		.byte	0xa
 500 031b 4F       		.byte	0x4f
 501 031c F6010000 		.4byte	0x1f6
 502 0320 0401     		.2byte	0x104
 503 0322 00       		.byte	0
 504 0323 0A       		.uleb128 0xa
 505 0324 61010000 		.4byte	0x161
 506 0328 33030000 		.4byte	0x333
 507 032c 0B       		.uleb128 0xb
 508 032d B2000000 		.4byte	0xb2
 509 0331 1F       		.byte	0x1f
 510 0332 00       		.byte	0
 511 0333 15       		.uleb128 0x15
 512 0334 18030000 		.4byte	.LASF59
 513 0338 9001     		.2byte	0x190
 514 033a 0A       		.byte	0xa
 515 033b 5B       		.byte	0x5b
 516 033c 71030000 		.4byte	0x371
 517 0340 12       		.uleb128 0x12
 518 0341 84040000 		.4byte	.LASF39
 519 0345 0A       		.byte	0xa
 520 0346 5C       		.byte	0x5c
 521 0347 71030000 		.4byte	0x371
 522 034b 00       		.byte	0
 523 034c 12       		.uleb128 0x12
 524 034d E5030000 		.4byte	.LASF60
 525 0351 0A       		.byte	0xa
 526 0352 5D       		.byte	0x5d
 527 0353 7E000000 		.4byte	0x7e
 528 0357 04       		.byte	0x4
 529 0358 12       		.uleb128 0x12
 530 0359 08020000 		.4byte	.LASF61
ARM GAS  /tmp/ccXCY7I7.s 			page 11


 531 035d 0A       		.byte	0xa
 532 035e 5F       		.byte	0x5f
 533 035f 77030000 		.4byte	0x377
 534 0363 08       		.byte	0x8
 535 0364 12       		.uleb128 0x12
 536 0365 37010000 		.4byte	.LASF54
 537 0369 0A       		.byte	0xa
 538 036a 60       		.byte	0x60
 539 036b E3020000 		.4byte	0x2e3
 540 036f 88       		.byte	0x88
 541 0370 00       		.byte	0
 542 0371 09       		.uleb128 0x9
 543 0372 04       		.byte	0x4
 544 0373 33030000 		.4byte	0x333
 545 0377 0A       		.uleb128 0xa
 546 0378 D1000000 		.4byte	0xd1
 547 037c 87030000 		.4byte	0x387
 548 0380 0B       		.uleb128 0xb
 549 0381 B2000000 		.4byte	0xb2
 550 0385 1F       		.byte	0x1f
 551 0386 00       		.byte	0
 552 0387 13       		.uleb128 0x13
 553 0388 A1030000 		.4byte	.LASF62
 554 038c 08       		.byte	0x8
 555 038d 0A       		.byte	0xa
 556 038e 73       		.byte	0x73
 557 038f AC030000 		.4byte	0x3ac
 558 0393 12       		.uleb128 0x12
 559 0394 22010000 		.4byte	.LASF63
 560 0398 0A       		.byte	0xa
 561 0399 74       		.byte	0x74
 562 039a AC030000 		.4byte	0x3ac
 563 039e 00       		.byte	0
 564 039f 12       		.uleb128 0x12
 565 03a0 62040000 		.4byte	.LASF64
 566 03a4 0A       		.byte	0xa
 567 03a5 75       		.byte	0x75
 568 03a6 7E000000 		.4byte	0x7e
 569 03aa 04       		.byte	0x4
 570 03ab 00       		.byte	0
 571 03ac 09       		.uleb128 0x9
 572 03ad 04       		.byte	0x4
 573 03ae 2C000000 		.4byte	0x2c
 574 03b2 13       		.uleb128 0x13
 575 03b3 C2030000 		.4byte	.LASF65
 576 03b7 68       		.byte	0x68
 577 03b8 0A       		.byte	0xa
 578 03b9 B3       		.byte	0xb3
 579 03ba DC040000 		.4byte	0x4dc
 580 03be 14       		.uleb128 0x14
 581 03bf 5F7000   		.ascii	"_p\000"
 582 03c2 0A       		.byte	0xa
 583 03c3 B4       		.byte	0xb4
 584 03c4 AC030000 		.4byte	0x3ac
 585 03c8 00       		.byte	0
 586 03c9 14       		.uleb128 0x14
 587 03ca 5F7200   		.ascii	"_r\000"
ARM GAS  /tmp/ccXCY7I7.s 			page 12


 588 03cd 0A       		.byte	0xa
 589 03ce B5       		.byte	0xb5
 590 03cf 7E000000 		.4byte	0x7e
 591 03d3 04       		.byte	0x4
 592 03d4 14       		.uleb128 0x14
 593 03d5 5F7700   		.ascii	"_w\000"
 594 03d8 0A       		.byte	0xa
 595 03d9 B6       		.byte	0xb6
 596 03da 7E000000 		.4byte	0x7e
 597 03de 08       		.byte	0x8
 598 03df 12       		.uleb128 0x12
 599 03e0 67050000 		.4byte	.LASF66
 600 03e4 0A       		.byte	0xa
 601 03e5 B7       		.byte	0xb7
 602 03e6 3E000000 		.4byte	0x3e
 603 03ea 0C       		.byte	0xc
 604 03eb 12       		.uleb128 0x12
 605 03ec 7E020000 		.4byte	.LASF67
 606 03f0 0A       		.byte	0xa
 607 03f1 B8       		.byte	0xb8
 608 03f2 3E000000 		.4byte	0x3e
 609 03f6 0E       		.byte	0xe
 610 03f7 14       		.uleb128 0x14
 611 03f8 5F626600 		.ascii	"_bf\000"
 612 03fc 0A       		.byte	0xa
 613 03fd B9       		.byte	0xb9
 614 03fe 87030000 		.4byte	0x387
 615 0402 10       		.byte	0x10
 616 0403 12       		.uleb128 0x12
 617 0404 9A000000 		.4byte	.LASF68
 618 0408 0A       		.byte	0xa
 619 0409 BA       		.byte	0xba
 620 040a 7E000000 		.4byte	0x7e
 621 040e 18       		.byte	0x18
 622 040f 12       		.uleb128 0x12
 623 0410 52010000 		.4byte	.LASF69
 624 0414 0A       		.byte	0xa
 625 0415 C1       		.byte	0xc1
 626 0416 61010000 		.4byte	0x161
 627 041a 1C       		.byte	0x1c
 628 041b 12       		.uleb128 0x12
 629 041c 3A020000 		.4byte	.LASF70
 630 0420 0A       		.byte	0xa
 631 0421 C3       		.byte	0xc3
 632 0422 49060000 		.4byte	0x649
 633 0426 20       		.byte	0x20
 634 0427 12       		.uleb128 0x12
 635 0428 D4020000 		.4byte	.LASF71
 636 042c 0A       		.byte	0xa
 637 042d C5       		.byte	0xc5
 638 042e 73060000 		.4byte	0x673
 639 0432 24       		.byte	0x24
 640 0433 12       		.uleb128 0x12
 641 0434 29040000 		.4byte	.LASF72
 642 0438 0A       		.byte	0xa
 643 0439 C8       		.byte	0xc8
 644 043a 97060000 		.4byte	0x697
ARM GAS  /tmp/ccXCY7I7.s 			page 13


 645 043e 28       		.byte	0x28
 646 043f 12       		.uleb128 0x12
 647 0440 FF000000 		.4byte	.LASF73
 648 0444 0A       		.byte	0xa
 649 0445 C9       		.byte	0xc9
 650 0446 B1060000 		.4byte	0x6b1
 651 044a 2C       		.byte	0x2c
 652 044b 14       		.uleb128 0x14
 653 044c 5F756200 		.ascii	"_ub\000"
 654 0450 0A       		.byte	0xa
 655 0451 CC       		.byte	0xcc
 656 0452 87030000 		.4byte	0x387
 657 0456 30       		.byte	0x30
 658 0457 14       		.uleb128 0x14
 659 0458 5F757000 		.ascii	"_up\000"
 660 045c 0A       		.byte	0xa
 661 045d CD       		.byte	0xcd
 662 045e AC030000 		.4byte	0x3ac
 663 0462 38       		.byte	0x38
 664 0463 14       		.uleb128 0x14
 665 0464 5F757200 		.ascii	"_ur\000"
 666 0468 0A       		.byte	0xa
 667 0469 CE       		.byte	0xce
 668 046a 7E000000 		.4byte	0x7e
 669 046e 3C       		.byte	0x3c
 670 046f 12       		.uleb128 0x12
 671 0470 12010000 		.4byte	.LASF74
 672 0474 0A       		.byte	0xa
 673 0475 D1       		.byte	0xd1
 674 0476 B7060000 		.4byte	0x6b7
 675 047a 40       		.byte	0x40
 676 047b 12       		.uleb128 0x12
 677 047c 95050000 		.4byte	.LASF75
 678 0480 0A       		.byte	0xa
 679 0481 D2       		.byte	0xd2
 680 0482 C7060000 		.4byte	0x6c7
 681 0486 43       		.byte	0x43
 682 0487 14       		.uleb128 0x14
 683 0488 5F6C6200 		.ascii	"_lb\000"
 684 048c 0A       		.byte	0xa
 685 048d D5       		.byte	0xd5
 686 048e 87030000 		.4byte	0x387
 687 0492 44       		.byte	0x44
 688 0493 12       		.uleb128 0x12
 689 0494 59040000 		.4byte	.LASF76
 690 0498 0A       		.byte	0xa
 691 0499 D8       		.byte	0xd8
 692 049a 7E000000 		.4byte	0x7e
 693 049e 4C       		.byte	0x4c
 694 049f 12       		.uleb128 0x12
 695 04a0 E1010000 		.4byte	.LASF77
 696 04a4 0A       		.byte	0xa
 697 04a5 D9       		.byte	0xd9
 698 04a6 6E010000 		.4byte	0x16e
 699 04aa 50       		.byte	0x50
 700 04ab 12       		.uleb128 0x12
 701 04ac 84020000 		.4byte	.LASF78
ARM GAS  /tmp/ccXCY7I7.s 			page 14


 702 04b0 0A       		.byte	0xa
 703 04b1 DC       		.byte	0xdc
 704 04b2 FA040000 		.4byte	0x4fa
 705 04b6 54       		.byte	0x54
 706 04b7 12       		.uleb128 0x12
 707 04b8 C8020000 		.4byte	.LASF79
 708 04bc 0A       		.byte	0xa
 709 04bd E0       		.byte	0xe0
 710 04be EB010000 		.4byte	0x1eb
 711 04c2 58       		.byte	0x58
 712 04c3 12       		.uleb128 0x12
 713 04c4 CA030000 		.4byte	.LASF80
 714 04c8 0A       		.byte	0xa
 715 04c9 E2       		.byte	0xe2
 716 04ca E0010000 		.4byte	0x1e0
 717 04ce 5C       		.byte	0x5c
 718 04cf 12       		.uleb128 0x12
 719 04d0 A8030000 		.4byte	.LASF81
 720 04d4 0A       		.byte	0xa
 721 04d5 E3       		.byte	0xe3
 722 04d6 7E000000 		.4byte	0x7e
 723 04da 64       		.byte	0x64
 724 04db 00       		.byte	0
 725 04dc 17       		.uleb128 0x17
 726 04dd 7E000000 		.4byte	0x7e
 727 04e1 FA040000 		.4byte	0x4fa
 728 04e5 18       		.uleb128 0x18
 729 04e6 FA040000 		.4byte	0x4fa
 730 04ea 18       		.uleb128 0x18
 731 04eb 61010000 		.4byte	0x161
 732 04ef 18       		.uleb128 0x18
 733 04f0 37060000 		.4byte	0x637
 734 04f4 18       		.uleb128 0x18
 735 04f5 7E000000 		.4byte	0x7e
 736 04f9 00       		.byte	0
 737 04fa 09       		.uleb128 0x9
 738 04fb 04       		.byte	0x4
 739 04fc 05050000 		.4byte	0x505
 740 0500 19       		.uleb128 0x19
 741 0501 FA040000 		.4byte	0x4fa
 742 0505 1A       		.uleb128 0x1a
 743 0506 0C040000 		.4byte	.LASF82
 744 050a 2804     		.2byte	0x428
 745 050c 0A       		.byte	0xa
 746 050d 3802     		.2byte	0x238
 747 050f 37060000 		.4byte	0x637
 748 0513 1B       		.uleb128 0x1b
 749 0514 4D040000 		.4byte	.LASF83
 750 0518 0A       		.byte	0xa
 751 0519 3A02     		.2byte	0x23a
 752 051b 7E000000 		.4byte	0x7e
 753 051f 00       		.byte	0
 754 0520 1B       		.uleb128 0x1b
 755 0521 A5010000 		.4byte	.LASF84
 756 0525 0A       		.byte	0xa
 757 0526 3F02     		.2byte	0x23f
 758 0528 1E070000 		.4byte	0x71e
ARM GAS  /tmp/ccXCY7I7.s 			page 15


 759 052c 04       		.byte	0x4
 760 052d 1B       		.uleb128 0x1b
 761 052e 5C020000 		.4byte	.LASF85
 762 0532 0A       		.byte	0xa
 763 0533 3F02     		.2byte	0x23f
 764 0535 1E070000 		.4byte	0x71e
 765 0539 08       		.byte	0x8
 766 053a 1B       		.uleb128 0x1b
 767 053b 2A020000 		.4byte	.LASF86
 768 053f 0A       		.byte	0xa
 769 0540 3F02     		.2byte	0x23f
 770 0542 1E070000 		.4byte	0x71e
 771 0546 0C       		.byte	0xc
 772 0547 1B       		.uleb128 0x1b
 773 0548 E0030000 		.4byte	.LASF87
 774 054c 0A       		.byte	0xa
 775 054d 4102     		.2byte	0x241
 776 054f 7E000000 		.4byte	0x7e
 777 0553 10       		.byte	0x10
 778 0554 1B       		.uleb128 0x1b
 779 0555 40000000 		.4byte	.LASF88
 780 0559 0A       		.byte	0xa
 781 055a 4202     		.2byte	0x242
 782 055c 00090000 		.4byte	0x900
 783 0560 14       		.byte	0x14
 784 0561 1B       		.uleb128 0x1b
 785 0562 2F050000 		.4byte	.LASF89
 786 0566 0A       		.byte	0xa
 787 0567 4402     		.2byte	0x244
 788 0569 7E000000 		.4byte	0x7e
 789 056d 30       		.byte	0x30
 790 056e 1B       		.uleb128 0x1b
 791 056f EA030000 		.4byte	.LASF90
 792 0573 0A       		.byte	0xa
 793 0574 4502     		.2byte	0x245
 794 0576 6D060000 		.4byte	0x66d
 795 057a 34       		.byte	0x34
 796 057b 1B       		.uleb128 0x1b
 797 057c 20030000 		.4byte	.LASF91
 798 0580 0A       		.byte	0xa
 799 0581 4702     		.2byte	0x247
 800 0583 7E000000 		.4byte	0x7e
 801 0587 38       		.byte	0x38
 802 0588 1B       		.uleb128 0x1b
 803 0589 FA030000 		.4byte	.LASF92
 804 058d 0A       		.byte	0xa
 805 058e 4902     		.2byte	0x249
 806 0590 1B090000 		.4byte	0x91b
 807 0594 3C       		.byte	0x3c
 808 0595 1B       		.uleb128 0x1b
 809 0596 B5020000 		.4byte	.LASF93
 810 059a 0A       		.byte	0xa
 811 059b 4C02     		.2byte	0x24c
 812 059d 54020000 		.4byte	0x254
 813 05a1 40       		.byte	0x40
 814 05a2 1B       		.uleb128 0x1b
 815 05a3 BA010000 		.4byte	.LASF94
ARM GAS  /tmp/ccXCY7I7.s 			page 16


 816 05a7 0A       		.byte	0xa
 817 05a8 4D02     		.2byte	0x24d
 818 05aa 7E000000 		.4byte	0x7e
 819 05ae 44       		.byte	0x44
 820 05af 1B       		.uleb128 0x1b
 821 05b0 D9050000 		.4byte	.LASF95
 822 05b4 0A       		.byte	0xa
 823 05b5 4E02     		.2byte	0x24e
 824 05b7 54020000 		.4byte	0x254
 825 05bb 48       		.byte	0x48
 826 05bc 1B       		.uleb128 0x1b
 827 05bd 47030000 		.4byte	.LASF96
 828 05c1 0A       		.byte	0xa
 829 05c2 4F02     		.2byte	0x24f
 830 05c4 21090000 		.4byte	0x921
 831 05c8 4C       		.byte	0x4c
 832 05c9 1B       		.uleb128 0x1b
 833 05ca 64020000 		.4byte	.LASF97
 834 05ce 0A       		.byte	0xa
 835 05cf 5202     		.2byte	0x252
 836 05d1 7E000000 		.4byte	0x7e
 837 05d5 50       		.byte	0x50
 838 05d6 1B       		.uleb128 0x1b
 839 05d7 D9010000 		.4byte	.LASF98
 840 05db 0A       		.byte	0xa
 841 05dc 5302     		.2byte	0x253
 842 05de 37060000 		.4byte	0x637
 843 05e2 54       		.byte	0x54
 844 05e3 1B       		.uleb128 0x1b
 845 05e4 C3020000 		.4byte	.LASF99
 846 05e8 0A       		.byte	0xa
 847 05e9 7602     		.2byte	0x276
 848 05eb DE080000 		.4byte	0x8de
 849 05ef 58       		.byte	0x58
 850 05f0 1C       		.uleb128 0x1c
 851 05f1 18030000 		.4byte	.LASF59
 852 05f5 0A       		.byte	0xa
 853 05f6 7A02     		.2byte	0x27a
 854 05f8 71030000 		.4byte	0x371
 855 05fc 4801     		.2byte	0x148
 856 05fe 1C       		.uleb128 0x1c
 857 05ff 4B000000 		.4byte	.LASF100
 858 0603 0A       		.byte	0xa
 859 0604 7B02     		.2byte	0x27b
 860 0606 33030000 		.4byte	0x333
 861 060a 4C01     		.2byte	0x14c
 862 060c 1C       		.uleb128 0x1c
 863 060d 81050000 		.4byte	.LASF101
 864 0611 0A       		.byte	0xa
 865 0612 7F02     		.2byte	0x27f
 866 0614 32090000 		.4byte	0x932
 867 0618 DC02     		.2byte	0x2dc
 868 061a 1C       		.uleb128 0x1c
 869 061b 5A010000 		.4byte	.LASF102
 870 061f 0A       		.byte	0xa
 871 0620 8402     		.2byte	0x284
 872 0622 E3060000 		.4byte	0x6e3
ARM GAS  /tmp/ccXCY7I7.s 			page 17


 873 0626 E002     		.2byte	0x2e0
 874 0628 1C       		.uleb128 0x1c
 875 0629 32010000 		.4byte	.LASF103
 876 062d 0A       		.byte	0xa
 877 062e 8502     		.2byte	0x285
 878 0630 3E090000 		.4byte	0x93e
 879 0634 EC02     		.2byte	0x2ec
 880 0636 00       		.byte	0
 881 0637 09       		.uleb128 0x9
 882 0638 04       		.byte	0x4
 883 0639 3D060000 		.4byte	0x63d
 884 063d 02       		.uleb128 0x2
 885 063e 01       		.byte	0x1
 886 063f 08       		.byte	0x8
 887 0640 54040000 		.4byte	.LASF104
 888 0644 19       		.uleb128 0x19
 889 0645 3D060000 		.4byte	0x63d
 890 0649 09       		.uleb128 0x9
 891 064a 04       		.byte	0x4
 892 064b DC040000 		.4byte	0x4dc
 893 064f 17       		.uleb128 0x17
 894 0650 7E000000 		.4byte	0x7e
 895 0654 6D060000 		.4byte	0x66d
 896 0658 18       		.uleb128 0x18
 897 0659 FA040000 		.4byte	0x4fa
 898 065d 18       		.uleb128 0x18
 899 065e 61010000 		.4byte	0x161
 900 0662 18       		.uleb128 0x18
 901 0663 6D060000 		.4byte	0x66d
 902 0667 18       		.uleb128 0x18
 903 0668 7E000000 		.4byte	0x7e
 904 066c 00       		.byte	0
 905 066d 09       		.uleb128 0x9
 906 066e 04       		.byte	0x4
 907 066f 44060000 		.4byte	0x644
 908 0673 09       		.uleb128 0x9
 909 0674 04       		.byte	0x4
 910 0675 4F060000 		.4byte	0x64f
 911 0679 17       		.uleb128 0x17
 912 067a 79010000 		.4byte	0x179
 913 067e 97060000 		.4byte	0x697
 914 0682 18       		.uleb128 0x18
 915 0683 FA040000 		.4byte	0x4fa
 916 0687 18       		.uleb128 0x18
 917 0688 61010000 		.4byte	0x161
 918 068c 18       		.uleb128 0x18
 919 068d 79010000 		.4byte	0x179
 920 0691 18       		.uleb128 0x18
 921 0692 7E000000 		.4byte	0x7e
 922 0696 00       		.byte	0
 923 0697 09       		.uleb128 0x9
 924 0698 04       		.byte	0x4
 925 0699 79060000 		.4byte	0x679
 926 069d 17       		.uleb128 0x17
 927 069e 7E000000 		.4byte	0x7e
 928 06a2 B1060000 		.4byte	0x6b1
 929 06a6 18       		.uleb128 0x18
ARM GAS  /tmp/ccXCY7I7.s 			page 18


 930 06a7 FA040000 		.4byte	0x4fa
 931 06ab 18       		.uleb128 0x18
 932 06ac 61010000 		.4byte	0x161
 933 06b0 00       		.byte	0
 934 06b1 09       		.uleb128 0x9
 935 06b2 04       		.byte	0x4
 936 06b3 9D060000 		.4byte	0x69d
 937 06b7 0A       		.uleb128 0xa
 938 06b8 2C000000 		.4byte	0x2c
 939 06bc C7060000 		.4byte	0x6c7
 940 06c0 0B       		.uleb128 0xb
 941 06c1 B2000000 		.4byte	0xb2
 942 06c5 02       		.byte	0x2
 943 06c6 00       		.byte	0
 944 06c7 0A       		.uleb128 0xa
 945 06c8 2C000000 		.4byte	0x2c
 946 06cc D7060000 		.4byte	0x6d7
 947 06d0 0B       		.uleb128 0xb
 948 06d1 B2000000 		.4byte	0xb2
 949 06d5 00       		.byte	0
 950 06d6 00       		.byte	0
 951 06d7 0E       		.uleb128 0xe
 952 06d8 B0030000 		.4byte	.LASF105
 953 06dc 0A       		.byte	0xa
 954 06dd 1D01     		.2byte	0x11d
 955 06df B2030000 		.4byte	0x3b2
 956 06e3 1D       		.uleb128 0x1d
 957 06e4 61050000 		.4byte	.LASF106
 958 06e8 0C       		.byte	0xc
 959 06e9 0A       		.byte	0xa
 960 06ea 2101     		.2byte	0x121
 961 06ec 18070000 		.4byte	0x718
 962 06f0 1B       		.uleb128 0x1b
 963 06f1 84040000 		.4byte	.LASF39
 964 06f5 0A       		.byte	0xa
 965 06f6 2301     		.2byte	0x123
 966 06f8 18070000 		.4byte	0x718
 967 06fc 00       		.byte	0
 968 06fd 1B       		.uleb128 0x1b
 969 06fe 8A020000 		.4byte	.LASF107
 970 0702 0A       		.byte	0xa
 971 0703 2401     		.2byte	0x124
 972 0705 7E000000 		.4byte	0x7e
 973 0709 04       		.byte	0x4
 974 070a 1B       		.uleb128 0x1b
 975 070b 7F030000 		.4byte	.LASF108
 976 070f 0A       		.byte	0xa
 977 0710 2501     		.2byte	0x125
 978 0712 1E070000 		.4byte	0x71e
 979 0716 08       		.byte	0x8
 980 0717 00       		.byte	0
 981 0718 09       		.uleb128 0x9
 982 0719 04       		.byte	0x4
 983 071a E3060000 		.4byte	0x6e3
 984 071e 09       		.uleb128 0x9
 985 071f 04       		.byte	0x4
 986 0720 D7060000 		.4byte	0x6d7
ARM GAS  /tmp/ccXCY7I7.s 			page 19


 987 0724 1D       		.uleb128 0x1d
 988 0725 29000000 		.4byte	.LASF109
 989 0729 0E       		.byte	0xe
 990 072a 0A       		.byte	0xa
 991 072b 3D01     		.2byte	0x13d
 992 072d 59070000 		.4byte	0x759
 993 0731 1B       		.uleb128 0x1b
 994 0732 13040000 		.4byte	.LASF110
 995 0736 0A       		.byte	0xa
 996 0737 3E01     		.2byte	0x13e
 997 0739 59070000 		.4byte	0x759
 998 073d 00       		.byte	0
 999 073e 1B       		.uleb128 0x1b
 1000 073f CE020000 		.4byte	.LASF111
 1001 0743 0A       		.byte	0xa
 1002 0744 3F01     		.2byte	0x13f
 1003 0746 59070000 		.4byte	0x759
 1004 074a 06       		.byte	0x6
 1005 074b 1B       		.uleb128 0x1b
 1006 074c F1040000 		.4byte	.LASF112
 1007 0750 0A       		.byte	0xa
 1008 0751 4001     		.2byte	0x140
 1009 0753 45000000 		.4byte	0x45
 1010 0757 0C       		.byte	0xc
 1011 0758 00       		.byte	0
 1012 0759 0A       		.uleb128 0xa
 1013 075a 45000000 		.4byte	0x45
 1014 075e 69070000 		.4byte	0x769
 1015 0762 0B       		.uleb128 0xb
 1016 0763 B2000000 		.4byte	0xb2
 1017 0767 02       		.byte	0x2
 1018 0768 00       		.byte	0
 1019 0769 1E       		.uleb128 0x1e
 1020 076a D0       		.byte	0xd0
 1021 076b 0A       		.byte	0xa
 1022 076c 5702     		.2byte	0x257
 1023 076e 6A080000 		.4byte	0x86a
 1024 0772 1B       		.uleb128 0x1b
 1025 0773 4F050000 		.4byte	.LASF113
 1026 0777 0A       		.byte	0xa
 1027 0778 5902     		.2byte	0x259
 1028 077a 85000000 		.4byte	0x85
 1029 077e 00       		.byte	0
 1030 077f 1B       		.uleb128 0x1b
 1031 0780 8A040000 		.4byte	.LASF114
 1032 0784 0A       		.byte	0xa
 1033 0785 5A02     		.2byte	0x25a
 1034 0787 37060000 		.4byte	0x637
 1035 078b 04       		.byte	0x4
 1036 078c 1B       		.uleb128 0x1b
 1037 078d A8020000 		.4byte	.LASF115
 1038 0791 0A       		.byte	0xa
 1039 0792 5B02     		.2byte	0x25b
 1040 0794 6A080000 		.4byte	0x86a
 1041 0798 08       		.byte	0x8
 1042 0799 1B       		.uleb128 0x1b
 1043 079a AE050000 		.4byte	.LASF116
ARM GAS  /tmp/ccXCY7I7.s 			page 20


 1044 079e 0A       		.byte	0xa
 1045 079f 5C02     		.2byte	0x25c
 1046 07a1 6A020000 		.4byte	0x26a
 1047 07a5 24       		.byte	0x24
 1048 07a6 1B       		.uleb128 0x1b
 1049 07a7 2B030000 		.4byte	.LASF117
 1050 07ab 0A       		.byte	0xa
 1051 07ac 5D02     		.2byte	0x25d
 1052 07ae 7E000000 		.4byte	0x7e
 1053 07b2 48       		.byte	0x48
 1054 07b3 1B       		.uleb128 0x1b
 1055 07b4 91020000 		.4byte	.LASF118
 1056 07b8 0A       		.byte	0xa
 1057 07b9 5E02     		.2byte	0x25e
 1058 07bb 77000000 		.4byte	0x77
 1059 07bf 50       		.byte	0x50
 1060 07c0 1B       		.uleb128 0x1b
 1061 07c1 C6050000 		.4byte	.LASF119
 1062 07c5 0A       		.byte	0xa
 1063 07c6 5F02     		.2byte	0x25f
 1064 07c8 24070000 		.4byte	0x724
 1065 07cc 58       		.byte	0x58
 1066 07cd 1B       		.uleb128 0x1b
 1067 07ce D3030000 		.4byte	.LASF120
 1068 07d2 0A       		.byte	0xa
 1069 07d3 6002     		.2byte	0x260
 1070 07d5 E0010000 		.4byte	0x1e0
 1071 07d9 68       		.byte	0x68
 1072 07da 1B       		.uleb128 0x1b
 1073 07db CB050000 		.4byte	.LASF121
 1074 07df 0A       		.byte	0xa
 1075 07e0 6102     		.2byte	0x261
 1076 07e2 E0010000 		.4byte	0x1e0
 1077 07e6 70       		.byte	0x70
 1078 07e7 1B       		.uleb128 0x1b
 1079 07e8 D9000000 		.4byte	.LASF122
 1080 07ec 0A       		.byte	0xa
 1081 07ed 6202     		.2byte	0x262
 1082 07ef E0010000 		.4byte	0x1e0
 1083 07f3 78       		.byte	0x78
 1084 07f4 1B       		.uleb128 0x1b
 1085 07f5 77050000 		.4byte	.LASF123
 1086 07f9 0A       		.byte	0xa
 1087 07fa 6302     		.2byte	0x263
 1088 07fc 7A080000 		.4byte	0x87a
 1089 0800 80       		.byte	0x80
 1090 0801 1B       		.uleb128 0x1b
 1091 0802 9C020000 		.4byte	.LASF124
 1092 0806 0A       		.byte	0xa
 1093 0807 6402     		.2byte	0x264
 1094 0809 8A080000 		.4byte	0x88a
 1095 080d 88       		.byte	0x88
 1096 080e 1B       		.uleb128 0x1b
 1097 080f FE040000 		.4byte	.LASF125
 1098 0813 0A       		.byte	0xa
 1099 0814 6502     		.2byte	0x265
 1100 0816 7E000000 		.4byte	0x7e
ARM GAS  /tmp/ccXCY7I7.s 			page 21


 1101 081a A0       		.byte	0xa0
 1102 081b 1B       		.uleb128 0x1b
 1103 081c FA010000 		.4byte	.LASF126
 1104 0820 0A       		.byte	0xa
 1105 0821 6602     		.2byte	0x266
 1106 0823 E0010000 		.4byte	0x1e0
 1107 0827 A4       		.byte	0xa4
 1108 0828 1B       		.uleb128 0x1b
 1109 0829 CA000000 		.4byte	.LASF127
 1110 082d 0A       		.byte	0xa
 1111 082e 6702     		.2byte	0x267
 1112 0830 E0010000 		.4byte	0x1e0
 1113 0834 AC       		.byte	0xac
 1114 0835 1B       		.uleb128 0x1b
 1115 0836 E9010000 		.4byte	.LASF128
 1116 083a 0A       		.byte	0xa
 1117 083b 6802     		.2byte	0x268
 1118 083d E0010000 		.4byte	0x1e0
 1119 0841 B4       		.byte	0xb4
 1120 0842 1B       		.uleb128 0x1b
 1121 0843 54000000 		.4byte	.LASF129
 1122 0847 0A       		.byte	0xa
 1123 0848 6902     		.2byte	0x269
 1124 084a E0010000 		.4byte	0x1e0
 1125 084e BC       		.byte	0xbc
 1126 084f 1B       		.uleb128 0x1b
 1127 0850 63000000 		.4byte	.LASF130
 1128 0854 0A       		.byte	0xa
 1129 0855 6A02     		.2byte	0x26a
 1130 0857 E0010000 		.4byte	0x1e0
 1131 085b C4       		.byte	0xc4
 1132 085c 1B       		.uleb128 0x1b
 1133 085d 85030000 		.4byte	.LASF131
 1134 0861 0A       		.byte	0xa
 1135 0862 6B02     		.2byte	0x26b
 1136 0864 7E000000 		.4byte	0x7e
 1137 0868 CC       		.byte	0xcc
 1138 0869 00       		.byte	0
 1139 086a 0A       		.uleb128 0xa
 1140 086b 3D060000 		.4byte	0x63d
 1141 086f 7A080000 		.4byte	0x87a
 1142 0873 0B       		.uleb128 0xb
 1143 0874 B2000000 		.4byte	0xb2
 1144 0878 19       		.byte	0x19
 1145 0879 00       		.byte	0
 1146 087a 0A       		.uleb128 0xa
 1147 087b 3D060000 		.4byte	0x63d
 1148 087f 8A080000 		.4byte	0x88a
 1149 0883 0B       		.uleb128 0xb
 1150 0884 B2000000 		.4byte	0xb2
 1151 0888 07       		.byte	0x7
 1152 0889 00       		.byte	0
 1153 088a 0A       		.uleb128 0xa
 1154 088b 3D060000 		.4byte	0x63d
 1155 088f 9A080000 		.4byte	0x89a
 1156 0893 0B       		.uleb128 0xb
 1157 0894 B2000000 		.4byte	0xb2
ARM GAS  /tmp/ccXCY7I7.s 			page 22


 1158 0898 17       		.byte	0x17
 1159 0899 00       		.byte	0
 1160 089a 1E       		.uleb128 0x1e
 1161 089b F0       		.byte	0xf0
 1162 089c 0A       		.byte	0xa
 1163 089d 7002     		.2byte	0x270
 1164 089f BE080000 		.4byte	0x8be
 1165 08a3 1B       		.uleb128 0x1b
 1166 08a4 F8020000 		.4byte	.LASF132
 1167 08a8 0A       		.byte	0xa
 1168 08a9 7302     		.2byte	0x273
 1169 08ab BE080000 		.4byte	0x8be
 1170 08af 00       		.byte	0
 1171 08b0 1B       		.uleb128 0x1b
 1172 08b1 6E050000 		.4byte	.LASF133
 1173 08b5 0A       		.byte	0xa
 1174 08b6 7402     		.2byte	0x274
 1175 08b8 CE080000 		.4byte	0x8ce
 1176 08bc 78       		.byte	0x78
 1177 08bd 00       		.byte	0
 1178 08be 0A       		.uleb128 0xa
 1179 08bf AC030000 		.4byte	0x3ac
 1180 08c3 CE080000 		.4byte	0x8ce
 1181 08c7 0B       		.uleb128 0xb
 1182 08c8 B2000000 		.4byte	0xb2
 1183 08cc 1D       		.byte	0x1d
 1184 08cd 00       		.byte	0
 1185 08ce 0A       		.uleb128 0xa
 1186 08cf 85000000 		.4byte	0x85
 1187 08d3 DE080000 		.4byte	0x8de
 1188 08d7 0B       		.uleb128 0xb
 1189 08d8 B2000000 		.4byte	0xb2
 1190 08dc 1D       		.byte	0x1d
 1191 08dd 00       		.byte	0
 1192 08de 1F       		.uleb128 0x1f
 1193 08df F0       		.byte	0xf0
 1194 08e0 0A       		.byte	0xa
 1195 08e1 5502     		.2byte	0x255
 1196 08e3 00090000 		.4byte	0x900
 1197 08e7 20       		.uleb128 0x20
 1198 08e8 0C040000 		.4byte	.LASF82
 1199 08ec 0A       		.byte	0xa
 1200 08ed 6C02     		.2byte	0x26c
 1201 08ef 69070000 		.4byte	0x769
 1202 08f3 20       		.uleb128 0x20
 1203 08f4 9B050000 		.4byte	.LASF134
 1204 08f8 0A       		.byte	0xa
 1205 08f9 7502     		.2byte	0x275
 1206 08fb 9A080000 		.4byte	0x89a
 1207 08ff 00       		.byte	0
 1208 0900 0A       		.uleb128 0xa
 1209 0901 3D060000 		.4byte	0x63d
 1210 0905 10090000 		.4byte	0x910
 1211 0909 0B       		.uleb128 0xb
 1212 090a B2000000 		.4byte	0xb2
 1213 090e 18       		.byte	0x18
 1214 090f 00       		.byte	0
ARM GAS  /tmp/ccXCY7I7.s 			page 23


 1215 0910 21       		.uleb128 0x21
 1216 0911 1B090000 		.4byte	0x91b
 1217 0915 18       		.uleb128 0x18
 1218 0916 FA040000 		.4byte	0x4fa
 1219 091a 00       		.byte	0
 1220 091b 09       		.uleb128 0x9
 1221 091c 04       		.byte	0x4
 1222 091d 10090000 		.4byte	0x910
 1223 0921 09       		.uleb128 0x9
 1224 0922 04       		.byte	0x4
 1225 0923 54020000 		.4byte	0x254
 1226 0927 21       		.uleb128 0x21
 1227 0928 32090000 		.4byte	0x932
 1228 092c 18       		.uleb128 0x18
 1229 092d 7E000000 		.4byte	0x7e
 1230 0931 00       		.byte	0
 1231 0932 09       		.uleb128 0x9
 1232 0933 04       		.byte	0x4
 1233 0934 38090000 		.4byte	0x938
 1234 0938 09       		.uleb128 0x9
 1235 0939 04       		.byte	0x4
 1236 093a 27090000 		.4byte	0x927
 1237 093e 0A       		.uleb128 0xa
 1238 093f D7060000 		.4byte	0x6d7
 1239 0943 4E090000 		.4byte	0x94e
 1240 0947 0B       		.uleb128 0xb
 1241 0948 B2000000 		.4byte	0xb2
 1242 094c 02       		.byte	0x2
 1243 094d 00       		.byte	0
 1244 094e 06       		.uleb128 0x6
 1245 094f 1E020000 		.4byte	.LASF135
 1246 0953 0A       		.byte	0xa
 1247 0954 FD02     		.2byte	0x2fd
 1248 0956 FA040000 		.4byte	0x4fa
 1249 095a 06       		.uleb128 0x6
 1250 095b 1C050000 		.4byte	.LASF136
 1251 095f 0A       		.byte	0xa
 1252 0960 FE02     		.2byte	0x2fe
 1253 0962 00050000 		.4byte	0x500
 1254 0966 02       		.uleb128 0x2
 1255 0967 08       		.byte	0x8
 1256 0968 04       		.byte	0x4
 1257 0969 D2010000 		.4byte	.LASF137
 1258 096d 22       		.uleb128 0x22
 1259 096e 0B050000 		.4byte	.LASF146
 1260 0972 01       		.byte	0x1
 1261 0973 25000000 		.4byte	0x25
 1262 0977 0B       		.byte	0xb
 1263 0978 9902     		.2byte	0x299
 1264 097a 97090000 		.4byte	0x997
 1265 097e 23       		.uleb128 0x23
 1266 097f 41050000 		.4byte	.LASF138
 1267 0983 7F       		.sleb128 -1
 1268 0984 24       		.uleb128 0x24
 1269 0985 AC010000 		.4byte	.LASF139
 1270 0989 00       		.byte	0
 1271 098a 24       		.uleb128 0x24
ARM GAS  /tmp/ccXCY7I7.s 			page 24


 1272 098b 31000000 		.4byte	.LASF140
 1273 098f 01       		.byte	0x1
 1274 0990 24       		.uleb128 0x24
 1275 0991 8B000000 		.4byte	.LASF141
 1276 0995 02       		.byte	0x2
 1277 0996 00       		.byte	0
 1278 0997 06       		.uleb128 0x6
 1279 0998 B5000000 		.4byte	.LASF142
 1280 099c 0B       		.byte	0xb
 1281 099d A402     		.2byte	0x2a4
 1282 099f 6D090000 		.4byte	0x96d
 1283 09a3 25       		.uleb128 0x25
 1284 09a4 DE050000 		.4byte	.LASF147
 1285 09a8 01       		.byte	0x1
 1286 09a9 06       		.byte	0x6
 1287 09aa 7E000000 		.4byte	0x7e
 1288 09ae 00000000 		.4byte	.LFB64
 1289 09b2 78000000 		.4byte	.LFE64-.LFB64
 1290 09b6 01       		.uleb128 0x1
 1291 09b7 9C       		.byte	0x9c
 1292 09b8 26       		.uleb128 0x26
 1293 09b9 A3000000 		.4byte	.LASF148
 1294 09bd 01       		.byte	0x1
 1295 09be 14       		.byte	0x14
 1296 09bf 66090000 		.4byte	0x966
 1297 09c3 02       		.uleb128 0x2
 1298 09c4 91       		.byte	0x91
 1299 09c5 68       		.sleb128 -24
 1300 09c6 00       		.byte	0
 1301 09c7 00       		.byte	0
 1302              		.section	.debug_abbrev,"",%progbits
 1303              	.Ldebug_abbrev0:
 1304 0000 01       		.uleb128 0x1
 1305 0001 11       		.uleb128 0x11
 1306 0002 01       		.byte	0x1
 1307 0003 25       		.uleb128 0x25
 1308 0004 0E       		.uleb128 0xe
 1309 0005 13       		.uleb128 0x13
 1310 0006 0B       		.uleb128 0xb
 1311 0007 03       		.uleb128 0x3
 1312 0008 0E       		.uleb128 0xe
 1313 0009 1B       		.uleb128 0x1b
 1314 000a 0E       		.uleb128 0xe
 1315 000b 11       		.uleb128 0x11
 1316 000c 01       		.uleb128 0x1
 1317 000d 12       		.uleb128 0x12
 1318 000e 06       		.uleb128 0x6
 1319 000f 10       		.uleb128 0x10
 1320 0010 17       		.uleb128 0x17
 1321 0011 00       		.byte	0
 1322 0012 00       		.byte	0
 1323 0013 02       		.uleb128 0x2
 1324 0014 24       		.uleb128 0x24
 1325 0015 00       		.byte	0
 1326 0016 0B       		.uleb128 0xb
 1327 0017 0B       		.uleb128 0xb
 1328 0018 3E       		.uleb128 0x3e
ARM GAS  /tmp/ccXCY7I7.s 			page 25


 1329 0019 0B       		.uleb128 0xb
 1330 001a 03       		.uleb128 0x3
 1331 001b 0E       		.uleb128 0xe
 1332 001c 00       		.byte	0
 1333 001d 00       		.byte	0
 1334 001e 03       		.uleb128 0x3
 1335 001f 16       		.uleb128 0x16
 1336 0020 00       		.byte	0
 1337 0021 03       		.uleb128 0x3
 1338 0022 0E       		.uleb128 0xe
 1339 0023 3A       		.uleb128 0x3a
 1340 0024 0B       		.uleb128 0xb
 1341 0025 3B       		.uleb128 0x3b
 1342 0026 0B       		.uleb128 0xb
 1343 0027 49       		.uleb128 0x49
 1344 0028 13       		.uleb128 0x13
 1345 0029 00       		.byte	0
 1346 002a 00       		.byte	0
 1347 002b 04       		.uleb128 0x4
 1348 002c 24       		.uleb128 0x24
 1349 002d 00       		.byte	0
 1350 002e 0B       		.uleb128 0xb
 1351 002f 0B       		.uleb128 0xb
 1352 0030 3E       		.uleb128 0x3e
 1353 0031 0B       		.uleb128 0xb
 1354 0032 03       		.uleb128 0x3
 1355 0033 08       		.uleb128 0x8
 1356 0034 00       		.byte	0
 1357 0035 00       		.byte	0
 1358 0036 05       		.uleb128 0x5
 1359 0037 35       		.uleb128 0x35
 1360 0038 00       		.byte	0
 1361 0039 49       		.uleb128 0x49
 1362 003a 13       		.uleb128 0x13
 1363 003b 00       		.byte	0
 1364 003c 00       		.byte	0
 1365 003d 06       		.uleb128 0x6
 1366 003e 34       		.uleb128 0x34
 1367 003f 00       		.byte	0
 1368 0040 03       		.uleb128 0x3
 1369 0041 0E       		.uleb128 0xe
 1370 0042 3A       		.uleb128 0x3a
 1371 0043 0B       		.uleb128 0xb
 1372 0044 3B       		.uleb128 0x3b
 1373 0045 05       		.uleb128 0x5
 1374 0046 49       		.uleb128 0x49
 1375 0047 13       		.uleb128 0x13
 1376 0048 3F       		.uleb128 0x3f
 1377 0049 19       		.uleb128 0x19
 1378 004a 3C       		.uleb128 0x3c
 1379 004b 19       		.uleb128 0x19
 1380 004c 00       		.byte	0
 1381 004d 00       		.byte	0
 1382 004e 07       		.uleb128 0x7
 1383 004f 34       		.uleb128 0x34
 1384 0050 00       		.byte	0
 1385 0051 03       		.uleb128 0x3
ARM GAS  /tmp/ccXCY7I7.s 			page 26


 1386 0052 0E       		.uleb128 0xe
 1387 0053 3A       		.uleb128 0x3a
 1388 0054 0B       		.uleb128 0xb
 1389 0055 3B       		.uleb128 0x3b
 1390 0056 0B       		.uleb128 0xb
 1391 0057 49       		.uleb128 0x49
 1392 0058 13       		.uleb128 0x13
 1393 0059 3F       		.uleb128 0x3f
 1394 005a 19       		.uleb128 0x19
 1395 005b 3C       		.uleb128 0x3c
 1396 005c 19       		.uleb128 0x19
 1397 005d 00       		.byte	0
 1398 005e 00       		.byte	0
 1399 005f 08       		.uleb128 0x8
 1400 0060 15       		.uleb128 0x15
 1401 0061 00       		.byte	0
 1402 0062 27       		.uleb128 0x27
 1403 0063 19       		.uleb128 0x19
 1404 0064 00       		.byte	0
 1405 0065 00       		.byte	0
 1406 0066 09       		.uleb128 0x9
 1407 0067 0F       		.uleb128 0xf
 1408 0068 00       		.byte	0
 1409 0069 0B       		.uleb128 0xb
 1410 006a 0B       		.uleb128 0xb
 1411 006b 49       		.uleb128 0x49
 1412 006c 13       		.uleb128 0x13
 1413 006d 00       		.byte	0
 1414 006e 00       		.byte	0
 1415 006f 0A       		.uleb128 0xa
 1416 0070 01       		.uleb128 0x1
 1417 0071 01       		.byte	0x1
 1418 0072 49       		.uleb128 0x49
 1419 0073 13       		.uleb128 0x13
 1420 0074 01       		.uleb128 0x1
 1421 0075 13       		.uleb128 0x13
 1422 0076 00       		.byte	0
 1423 0077 00       		.byte	0
 1424 0078 0B       		.uleb128 0xb
 1425 0079 21       		.uleb128 0x21
 1426 007a 00       		.byte	0
 1427 007b 49       		.uleb128 0x49
 1428 007c 13       		.uleb128 0x13
 1429 007d 2F       		.uleb128 0x2f
 1430 007e 0B       		.uleb128 0xb
 1431 007f 00       		.byte	0
 1432 0080 00       		.byte	0
 1433 0081 0C       		.uleb128 0xc
 1434 0082 34       		.uleb128 0x34
 1435 0083 00       		.byte	0
 1436 0084 03       		.uleb128 0x3
 1437 0085 08       		.uleb128 0x8
 1438 0086 3A       		.uleb128 0x3a
 1439 0087 0B       		.uleb128 0xb
 1440 0088 3B       		.uleb128 0x3b
 1441 0089 05       		.uleb128 0x5
 1442 008a 49       		.uleb128 0x49
ARM GAS  /tmp/ccXCY7I7.s 			page 27


 1443 008b 13       		.uleb128 0x13
 1444 008c 3F       		.uleb128 0x3f
 1445 008d 19       		.uleb128 0x19
 1446 008e 3C       		.uleb128 0x3c
 1447 008f 19       		.uleb128 0x19
 1448 0090 00       		.byte	0
 1449 0091 00       		.byte	0
 1450 0092 0D       		.uleb128 0xd
 1451 0093 0F       		.uleb128 0xf
 1452 0094 00       		.byte	0
 1453 0095 0B       		.uleb128 0xb
 1454 0096 0B       		.uleb128 0xb
 1455 0097 00       		.byte	0
 1456 0098 00       		.byte	0
 1457 0099 0E       		.uleb128 0xe
 1458 009a 16       		.uleb128 0x16
 1459 009b 00       		.byte	0
 1460 009c 03       		.uleb128 0x3
 1461 009d 0E       		.uleb128 0xe
 1462 009e 3A       		.uleb128 0x3a
 1463 009f 0B       		.uleb128 0xb
 1464 00a0 3B       		.uleb128 0x3b
 1465 00a1 05       		.uleb128 0x5
 1466 00a2 49       		.uleb128 0x49
 1467 00a3 13       		.uleb128 0x13
 1468 00a4 00       		.byte	0
 1469 00a5 00       		.byte	0
 1470 00a6 0F       		.uleb128 0xf
 1471 00a7 17       		.uleb128 0x17
 1472 00a8 01       		.byte	0x1
 1473 00a9 0B       		.uleb128 0xb
 1474 00aa 0B       		.uleb128 0xb
 1475 00ab 3A       		.uleb128 0x3a
 1476 00ac 0B       		.uleb128 0xb
 1477 00ad 3B       		.uleb128 0x3b
 1478 00ae 0B       		.uleb128 0xb
 1479 00af 01       		.uleb128 0x1
 1480 00b0 13       		.uleb128 0x13
 1481 00b1 00       		.byte	0
 1482 00b2 00       		.byte	0
 1483 00b3 10       		.uleb128 0x10
 1484 00b4 0D       		.uleb128 0xd
 1485 00b5 00       		.byte	0
 1486 00b6 03       		.uleb128 0x3
 1487 00b7 0E       		.uleb128 0xe
 1488 00b8 3A       		.uleb128 0x3a
 1489 00b9 0B       		.uleb128 0xb
 1490 00ba 3B       		.uleb128 0x3b
 1491 00bb 0B       		.uleb128 0xb
 1492 00bc 49       		.uleb128 0x49
 1493 00bd 13       		.uleb128 0x13
 1494 00be 00       		.byte	0
 1495 00bf 00       		.byte	0
 1496 00c0 11       		.uleb128 0x11
 1497 00c1 13       		.uleb128 0x13
 1498 00c2 01       		.byte	0x1
 1499 00c3 0B       		.uleb128 0xb
ARM GAS  /tmp/ccXCY7I7.s 			page 28


 1500 00c4 0B       		.uleb128 0xb
 1501 00c5 3A       		.uleb128 0x3a
 1502 00c6 0B       		.uleb128 0xb
 1503 00c7 3B       		.uleb128 0x3b
 1504 00c8 0B       		.uleb128 0xb
 1505 00c9 01       		.uleb128 0x1
 1506 00ca 13       		.uleb128 0x13
 1507 00cb 00       		.byte	0
 1508 00cc 00       		.byte	0
 1509 00cd 12       		.uleb128 0x12
 1510 00ce 0D       		.uleb128 0xd
 1511 00cf 00       		.byte	0
 1512 00d0 03       		.uleb128 0x3
 1513 00d1 0E       		.uleb128 0xe
 1514 00d2 3A       		.uleb128 0x3a
 1515 00d3 0B       		.uleb128 0xb
 1516 00d4 3B       		.uleb128 0x3b
 1517 00d5 0B       		.uleb128 0xb
 1518 00d6 49       		.uleb128 0x49
 1519 00d7 13       		.uleb128 0x13
 1520 00d8 38       		.uleb128 0x38
 1521 00d9 0B       		.uleb128 0xb
 1522 00da 00       		.byte	0
 1523 00db 00       		.byte	0
 1524 00dc 13       		.uleb128 0x13
 1525 00dd 13       		.uleb128 0x13
 1526 00de 01       		.byte	0x1
 1527 00df 03       		.uleb128 0x3
 1528 00e0 0E       		.uleb128 0xe
 1529 00e1 0B       		.uleb128 0xb
 1530 00e2 0B       		.uleb128 0xb
 1531 00e3 3A       		.uleb128 0x3a
 1532 00e4 0B       		.uleb128 0xb
 1533 00e5 3B       		.uleb128 0x3b
 1534 00e6 0B       		.uleb128 0xb
 1535 00e7 01       		.uleb128 0x1
 1536 00e8 13       		.uleb128 0x13
 1537 00e9 00       		.byte	0
 1538 00ea 00       		.byte	0
 1539 00eb 14       		.uleb128 0x14
 1540 00ec 0D       		.uleb128 0xd
 1541 00ed 00       		.byte	0
 1542 00ee 03       		.uleb128 0x3
 1543 00ef 08       		.uleb128 0x8
 1544 00f0 3A       		.uleb128 0x3a
 1545 00f1 0B       		.uleb128 0xb
 1546 00f2 3B       		.uleb128 0x3b
 1547 00f3 0B       		.uleb128 0xb
 1548 00f4 49       		.uleb128 0x49
 1549 00f5 13       		.uleb128 0x13
 1550 00f6 38       		.uleb128 0x38
 1551 00f7 0B       		.uleb128 0xb
 1552 00f8 00       		.byte	0
 1553 00f9 00       		.byte	0
 1554 00fa 15       		.uleb128 0x15
 1555 00fb 13       		.uleb128 0x13
 1556 00fc 01       		.byte	0x1
ARM GAS  /tmp/ccXCY7I7.s 			page 29


 1557 00fd 03       		.uleb128 0x3
 1558 00fe 0E       		.uleb128 0xe
 1559 00ff 0B       		.uleb128 0xb
 1560 0100 05       		.uleb128 0x5
 1561 0101 3A       		.uleb128 0x3a
 1562 0102 0B       		.uleb128 0xb
 1563 0103 3B       		.uleb128 0x3b
 1564 0104 0B       		.uleb128 0xb
 1565 0105 01       		.uleb128 0x1
 1566 0106 13       		.uleb128 0x13
 1567 0107 00       		.byte	0
 1568 0108 00       		.byte	0
 1569 0109 16       		.uleb128 0x16
 1570 010a 0D       		.uleb128 0xd
 1571 010b 00       		.byte	0
 1572 010c 03       		.uleb128 0x3
 1573 010d 0E       		.uleb128 0xe
 1574 010e 3A       		.uleb128 0x3a
 1575 010f 0B       		.uleb128 0xb
 1576 0110 3B       		.uleb128 0x3b
 1577 0111 0B       		.uleb128 0xb
 1578 0112 49       		.uleb128 0x49
 1579 0113 13       		.uleb128 0x13
 1580 0114 38       		.uleb128 0x38
 1581 0115 05       		.uleb128 0x5
 1582 0116 00       		.byte	0
 1583 0117 00       		.byte	0
 1584 0118 17       		.uleb128 0x17
 1585 0119 15       		.uleb128 0x15
 1586 011a 01       		.byte	0x1
 1587 011b 27       		.uleb128 0x27
 1588 011c 19       		.uleb128 0x19
 1589 011d 49       		.uleb128 0x49
 1590 011e 13       		.uleb128 0x13
 1591 011f 01       		.uleb128 0x1
 1592 0120 13       		.uleb128 0x13
 1593 0121 00       		.byte	0
 1594 0122 00       		.byte	0
 1595 0123 18       		.uleb128 0x18
 1596 0124 05       		.uleb128 0x5
 1597 0125 00       		.byte	0
 1598 0126 49       		.uleb128 0x49
 1599 0127 13       		.uleb128 0x13
 1600 0128 00       		.byte	0
 1601 0129 00       		.byte	0
 1602 012a 19       		.uleb128 0x19
 1603 012b 26       		.uleb128 0x26
 1604 012c 00       		.byte	0
 1605 012d 49       		.uleb128 0x49
 1606 012e 13       		.uleb128 0x13
 1607 012f 00       		.byte	0
 1608 0130 00       		.byte	0
 1609 0131 1A       		.uleb128 0x1a
 1610 0132 13       		.uleb128 0x13
 1611 0133 01       		.byte	0x1
 1612 0134 03       		.uleb128 0x3
 1613 0135 0E       		.uleb128 0xe
ARM GAS  /tmp/ccXCY7I7.s 			page 30


 1614 0136 0B       		.uleb128 0xb
 1615 0137 05       		.uleb128 0x5
 1616 0138 3A       		.uleb128 0x3a
 1617 0139 0B       		.uleb128 0xb
 1618 013a 3B       		.uleb128 0x3b
 1619 013b 05       		.uleb128 0x5
 1620 013c 01       		.uleb128 0x1
 1621 013d 13       		.uleb128 0x13
 1622 013e 00       		.byte	0
 1623 013f 00       		.byte	0
 1624 0140 1B       		.uleb128 0x1b
 1625 0141 0D       		.uleb128 0xd
 1626 0142 00       		.byte	0
 1627 0143 03       		.uleb128 0x3
 1628 0144 0E       		.uleb128 0xe
 1629 0145 3A       		.uleb128 0x3a
 1630 0146 0B       		.uleb128 0xb
 1631 0147 3B       		.uleb128 0x3b
 1632 0148 05       		.uleb128 0x5
 1633 0149 49       		.uleb128 0x49
 1634 014a 13       		.uleb128 0x13
 1635 014b 38       		.uleb128 0x38
 1636 014c 0B       		.uleb128 0xb
 1637 014d 00       		.byte	0
 1638 014e 00       		.byte	0
 1639 014f 1C       		.uleb128 0x1c
 1640 0150 0D       		.uleb128 0xd
 1641 0151 00       		.byte	0
 1642 0152 03       		.uleb128 0x3
 1643 0153 0E       		.uleb128 0xe
 1644 0154 3A       		.uleb128 0x3a
 1645 0155 0B       		.uleb128 0xb
 1646 0156 3B       		.uleb128 0x3b
 1647 0157 05       		.uleb128 0x5
 1648 0158 49       		.uleb128 0x49
 1649 0159 13       		.uleb128 0x13
 1650 015a 38       		.uleb128 0x38
 1651 015b 05       		.uleb128 0x5
 1652 015c 00       		.byte	0
 1653 015d 00       		.byte	0
 1654 015e 1D       		.uleb128 0x1d
 1655 015f 13       		.uleb128 0x13
 1656 0160 01       		.byte	0x1
 1657 0161 03       		.uleb128 0x3
 1658 0162 0E       		.uleb128 0xe
 1659 0163 0B       		.uleb128 0xb
 1660 0164 0B       		.uleb128 0xb
 1661 0165 3A       		.uleb128 0x3a
 1662 0166 0B       		.uleb128 0xb
 1663 0167 3B       		.uleb128 0x3b
 1664 0168 05       		.uleb128 0x5
 1665 0169 01       		.uleb128 0x1
 1666 016a 13       		.uleb128 0x13
 1667 016b 00       		.byte	0
 1668 016c 00       		.byte	0
 1669 016d 1E       		.uleb128 0x1e
 1670 016e 13       		.uleb128 0x13
ARM GAS  /tmp/ccXCY7I7.s 			page 31


 1671 016f 01       		.byte	0x1
 1672 0170 0B       		.uleb128 0xb
 1673 0171 0B       		.uleb128 0xb
 1674 0172 3A       		.uleb128 0x3a
 1675 0173 0B       		.uleb128 0xb
 1676 0174 3B       		.uleb128 0x3b
 1677 0175 05       		.uleb128 0x5
 1678 0176 01       		.uleb128 0x1
 1679 0177 13       		.uleb128 0x13
 1680 0178 00       		.byte	0
 1681 0179 00       		.byte	0
 1682 017a 1F       		.uleb128 0x1f
 1683 017b 17       		.uleb128 0x17
 1684 017c 01       		.byte	0x1
 1685 017d 0B       		.uleb128 0xb
 1686 017e 0B       		.uleb128 0xb
 1687 017f 3A       		.uleb128 0x3a
 1688 0180 0B       		.uleb128 0xb
 1689 0181 3B       		.uleb128 0x3b
 1690 0182 05       		.uleb128 0x5
 1691 0183 01       		.uleb128 0x1
 1692 0184 13       		.uleb128 0x13
 1693 0185 00       		.byte	0
 1694 0186 00       		.byte	0
 1695 0187 20       		.uleb128 0x20
 1696 0188 0D       		.uleb128 0xd
 1697 0189 00       		.byte	0
 1698 018a 03       		.uleb128 0x3
 1699 018b 0E       		.uleb128 0xe
 1700 018c 3A       		.uleb128 0x3a
 1701 018d 0B       		.uleb128 0xb
 1702 018e 3B       		.uleb128 0x3b
 1703 018f 05       		.uleb128 0x5
 1704 0190 49       		.uleb128 0x49
 1705 0191 13       		.uleb128 0x13
 1706 0192 00       		.byte	0
 1707 0193 00       		.byte	0
 1708 0194 21       		.uleb128 0x21
 1709 0195 15       		.uleb128 0x15
 1710 0196 01       		.byte	0x1
 1711 0197 27       		.uleb128 0x27
 1712 0198 19       		.uleb128 0x19
 1713 0199 01       		.uleb128 0x1
 1714 019a 13       		.uleb128 0x13
 1715 019b 00       		.byte	0
 1716 019c 00       		.byte	0
 1717 019d 22       		.uleb128 0x22
 1718 019e 04       		.uleb128 0x4
 1719 019f 01       		.byte	0x1
 1720 01a0 03       		.uleb128 0x3
 1721 01a1 0E       		.uleb128 0xe
 1722 01a2 0B       		.uleb128 0xb
 1723 01a3 0B       		.uleb128 0xb
 1724 01a4 49       		.uleb128 0x49
 1725 01a5 13       		.uleb128 0x13
 1726 01a6 3A       		.uleb128 0x3a
 1727 01a7 0B       		.uleb128 0xb
ARM GAS  /tmp/ccXCY7I7.s 			page 32


 1728 01a8 3B       		.uleb128 0x3b
 1729 01a9 05       		.uleb128 0x5
 1730 01aa 01       		.uleb128 0x1
 1731 01ab 13       		.uleb128 0x13
 1732 01ac 00       		.byte	0
 1733 01ad 00       		.byte	0
 1734 01ae 23       		.uleb128 0x23
 1735 01af 28       		.uleb128 0x28
 1736 01b0 00       		.byte	0
 1737 01b1 03       		.uleb128 0x3
 1738 01b2 0E       		.uleb128 0xe
 1739 01b3 1C       		.uleb128 0x1c
 1740 01b4 0D       		.uleb128 0xd
 1741 01b5 00       		.byte	0
 1742 01b6 00       		.byte	0
 1743 01b7 24       		.uleb128 0x24
 1744 01b8 28       		.uleb128 0x28
 1745 01b9 00       		.byte	0
 1746 01ba 03       		.uleb128 0x3
 1747 01bb 0E       		.uleb128 0xe
 1748 01bc 1C       		.uleb128 0x1c
 1749 01bd 0B       		.uleb128 0xb
 1750 01be 00       		.byte	0
 1751 01bf 00       		.byte	0
 1752 01c0 25       		.uleb128 0x25
 1753 01c1 2E       		.uleb128 0x2e
 1754 01c2 01       		.byte	0x1
 1755 01c3 3F       		.uleb128 0x3f
 1756 01c4 19       		.uleb128 0x19
 1757 01c5 03       		.uleb128 0x3
 1758 01c6 0E       		.uleb128 0xe
 1759 01c7 3A       		.uleb128 0x3a
 1760 01c8 0B       		.uleb128 0xb
 1761 01c9 3B       		.uleb128 0x3b
 1762 01ca 0B       		.uleb128 0xb
 1763 01cb 27       		.uleb128 0x27
 1764 01cc 19       		.uleb128 0x19
 1765 01cd 49       		.uleb128 0x49
 1766 01ce 13       		.uleb128 0x13
 1767 01cf 11       		.uleb128 0x11
 1768 01d0 01       		.uleb128 0x1
 1769 01d1 12       		.uleb128 0x12
 1770 01d2 06       		.uleb128 0x6
 1771 01d3 40       		.uleb128 0x40
 1772 01d4 18       		.uleb128 0x18
 1773 01d5 9642     		.uleb128 0x2116
 1774 01d7 19       		.uleb128 0x19
 1775 01d8 00       		.byte	0
 1776 01d9 00       		.byte	0
 1777 01da 26       		.uleb128 0x26
 1778 01db 34       		.uleb128 0x34
 1779 01dc 00       		.byte	0
 1780 01dd 03       		.uleb128 0x3
 1781 01de 0E       		.uleb128 0xe
 1782 01df 3A       		.uleb128 0x3a
 1783 01e0 0B       		.uleb128 0xb
 1784 01e1 3B       		.uleb128 0x3b
ARM GAS  /tmp/ccXCY7I7.s 			page 33


 1785 01e2 0B       		.uleb128 0xb
 1786 01e3 49       		.uleb128 0x49
 1787 01e4 13       		.uleb128 0x13
 1788 01e5 02       		.uleb128 0x2
 1789 01e6 18       		.uleb128 0x18
 1790 01e7 00       		.byte	0
 1791 01e8 00       		.byte	0
 1792 01e9 00       		.byte	0
 1793              		.section	.debug_aranges,"",%progbits
 1794 0000 1C000000 		.4byte	0x1c
 1795 0004 0200     		.2byte	0x2
 1796 0006 00000000 		.4byte	.Ldebug_info0
 1797 000a 04       		.byte	0x4
 1798 000b 00       		.byte	0
 1799 000c 0000     		.2byte	0
 1800 000e 0000     		.2byte	0
 1801 0010 00000000 		.4byte	.Ltext0
 1802 0014 78000000 		.4byte	.Letext0-.Ltext0
 1803 0018 00000000 		.4byte	0
 1804 001c 00000000 		.4byte	0
 1805              		.section	.debug_line,"",%progbits
 1806              	.Ldebug_line0:
 1807 0000 BF010000 		.section	.debug_str,"MS",%progbits,1
 1807      02008601 
 1807      00000201 
 1807      FB0E0D00 
 1807      01010101 
 1808              	.LASF56:
 1809 0000 5F64736F 		.ascii	"_dso_handle\000"
 1809      5F68616E 
 1809      646C6500 
 1810              	.LASF2:
 1811 000c 73686F72 		.ascii	"short int\000"
 1811      7420696E 
 1811      7400
 1812              	.LASF55:
 1813 0016 5F666E61 		.ascii	"_fnargs\000"
 1813      72677300 
 1814              	.LASF144:
 1815 001e 7372632F 		.ascii	"src/main.c\000"
 1815      6D61696E 
 1815      2E6300
 1816              	.LASF109:
 1817 0029 5F72616E 		.ascii	"_rand48\000"
 1817      64343800 
 1818              	.LASF140:
 1819 0031 5F5F6664 		.ascii	"__fdlibm_xopen\000"
 1819      6C69626D 
 1819      5F786F70 
 1819      656E00
 1820              	.LASF88:
 1821 0040 5F656D65 		.ascii	"_emergency\000"
 1821      7267656E 
 1821      637900
 1822              	.LASF100:
 1823 004b 5F617465 		.ascii	"_atexit0\000"
 1823      78697430 
ARM GAS  /tmp/ccXCY7I7.s 			page 34


 1823      00
 1824              	.LASF129:
 1825 0054 5F776372 		.ascii	"_wcrtomb_state\000"
 1825      746F6D62 
 1825      5F737461 
 1825      746500
 1826              	.LASF130:
 1827 0063 5F776373 		.ascii	"_wcsrtombs_state\000"
 1827      72746F6D 
 1827      62735F73 
 1827      74617465 
 1827      00
 1828              	.LASF10:
 1829 0074 6C6F6E67 		.ascii	"long long unsigned int\000"
 1829      206C6F6E 
 1829      6720756E 
 1829      7369676E 
 1829      65642069 
 1830              	.LASF141:
 1831 008b 5F5F6664 		.ascii	"__fdlibm_posix\000"
 1831      6C69626D 
 1831      5F706F73 
 1831      697800
 1832              	.LASF68:
 1833 009a 5F6C6266 		.ascii	"_lbfsize\000"
 1833      73697A65 
 1833      00
 1834              	.LASF148:
 1835 00a3 74657374 		.ascii	"test\000"
 1835      00
 1836              	.LASF16:
 1837 00a8 49544D5F 		.ascii	"ITM_RxBuffer\000"
 1837      52784275 
 1837      66666572 
 1837      00
 1838              	.LASF142:
 1839 00b5 5F5F6664 		.ascii	"__fdlib_version\000"
 1839      6C69625F 
 1839      76657273 
 1839      696F6E00 
 1840              	.LASF18:
 1841 00c5 6779726F 		.ascii	"gyro\000"
 1841      00
 1842              	.LASF127:
 1843 00ca 5F6D6272 		.ascii	"_mbrtowc_state\000"
 1843      746F7763 
 1843      5F737461 
 1843      746500
 1844              	.LASF122:
 1845 00d9 5F776374 		.ascii	"_wctomb_state\000"
 1845      6F6D625F 
 1845      73746174 
 1845      6500
 1846              	.LASF45:
 1847 00e7 5F5F746D 		.ascii	"__tm_sec\000"
 1847      5F736563 
 1847      00
ARM GAS  /tmp/ccXCY7I7.s 			page 35


 1848              	.LASF12:
 1849 00f0 696E7431 		.ascii	"int16_t\000"
 1849      365F7400 
 1850              	.LASF29:
 1851 00f8 5F6F6666 		.ascii	"_off_t\000"
 1851      5F7400
 1852              	.LASF73:
 1853 00ff 5F636C6F 		.ascii	"_close\000"
 1853      736500
 1854              	.LASF0:
 1855 0106 7369676E 		.ascii	"signed char\000"
 1855      65642063 
 1855      68617200 
 1856              	.LASF74:
 1857 0112 5F756275 		.ascii	"_ubuf\000"
 1857      6600
 1858              	.LASF20:
 1859 0118 47785F6F 		.ascii	"Gx_offset\000"
 1859      66667365 
 1859      7400
 1860              	.LASF63:
 1861 0122 5F626173 		.ascii	"_base\000"
 1861      6500
 1862              	.LASF47:
 1863 0128 5F5F746D 		.ascii	"__tm_hour\000"
 1863      5F686F75 
 1863      7200
 1864              	.LASF103:
 1865 0132 5F5F7366 		.ascii	"__sf\000"
 1865      00
 1866              	.LASF54:
 1867 0137 5F6F6E5F 		.ascii	"_on_exit_args\000"
 1867      65786974 
 1867      5F617267 
 1867      7300
 1868              	.LASF23:
 1869 0145 41636331 		.ascii	"Acc1G_Values\000"
 1869      475F5661 
 1869      6C756573 
 1869      00
 1870              	.LASF69:
 1871 0152 5F636F6F 		.ascii	"_cookie\000"
 1871      6B696500 
 1872              	.LASF102:
 1873 015a 5F5F7367 		.ascii	"__sglue\000"
 1873      6C756500 
 1874              	.LASF6:
 1875 0162 6C6F6E67 		.ascii	"long int\000"
 1875      20696E74 
 1875      00
 1876              	.LASF145:
 1877 016b 2F686F6D 		.ascii	"/home/enbin/Documents/code/STM/stm32-quadrocopter\000"
 1877      652F656E 
 1877      62696E2F 
 1877      446F6375 
 1877      6D656E74 
 1878              	.LASF58:
ARM GAS  /tmp/ccXCY7I7.s 			page 36


 1879 019d 5F69735F 		.ascii	"_is_cxa\000"
 1879      63786100 
 1880              	.LASF84:
 1881 01a5 5F737464 		.ascii	"_stdin\000"
 1881      696E00
 1882              	.LASF139:
 1883 01ac 5F5F6664 		.ascii	"__fdlibm_svid\000"
 1883      6C69626D 
 1883      5F737669 
 1883      6400
 1884              	.LASF94:
 1885 01ba 5F726573 		.ascii	"_result_k\000"
 1885      756C745F 
 1885      6B00
 1886              	.LASF9:
 1887 01c4 6C6F6E67 		.ascii	"long long int\000"
 1887      206C6F6E 
 1887      6720696E 
 1887      7400
 1888              	.LASF137:
 1889 01d2 646F7562 		.ascii	"double\000"
 1889      6C6500
 1890              	.LASF98:
 1891 01d9 5F637674 		.ascii	"_cvtbuf\000"
 1891      62756600 
 1892              	.LASF77:
 1893 01e1 5F6F6666 		.ascii	"_offset\000"
 1893      73657400 
 1894              	.LASF128:
 1895 01e9 5F6D6273 		.ascii	"_mbsrtowcs_state\000"
 1895      72746F77 
 1895      63735F73 
 1895      74617465 
 1895      00
 1896              	.LASF126:
 1897 01fa 5F6D6272 		.ascii	"_mbrlen_state\000"
 1897      6C656E5F 
 1897      73746174 
 1897      6500
 1898              	.LASF61:
 1899 0208 5F666E73 		.ascii	"_fns\000"
 1899      00
 1900              	.LASF7:
 1901 020d 5F5F7569 		.ascii	"__uint32_t\000"
 1901      6E743332 
 1901      5F7400
 1902              	.LASF41:
 1903 0218 5F736967 		.ascii	"_sign\000"
 1903      6E00
 1904              	.LASF135:
 1905 021e 5F696D70 		.ascii	"_impure_ptr\000"
 1905      7572655F 
 1905      70747200 
 1906              	.LASF86:
 1907 022a 5F737464 		.ascii	"_stderr\000"
 1907      65727200 
 1908              	.LASF43:
ARM GAS  /tmp/ccXCY7I7.s 			page 37


 1909 0232 5F426967 		.ascii	"_Bigint\000"
 1909      696E7400 
 1910              	.LASF70:
 1911 023a 5F726561 		.ascii	"_read\000"
 1911      6400
 1912              	.LASF44:
 1913 0240 5F5F746D 		.ascii	"__tm\000"
 1913      00
 1914              	.LASF33:
 1915 0245 5F5F7763 		.ascii	"__wchb\000"
 1915      686200
 1916              	.LASF17:
 1917 024c 53797374 		.ascii	"SystemCoreClock\000"
 1917      656D436F 
 1917      7265436C 
 1917      6F636B00 
 1918              	.LASF85:
 1919 025c 5F737464 		.ascii	"_stdout\000"
 1919      6F757400 
 1920              	.LASF97:
 1921 0264 5F637674 		.ascii	"_cvtlen\000"
 1921      6C656E00 
 1922              	.LASF8:
 1923 026c 6C6F6E67 		.ascii	"long unsigned int\000"
 1923      20756E73 
 1923      69676E65 
 1923      6420696E 
 1923      7400
 1924              	.LASF67:
 1925 027e 5F66696C 		.ascii	"_file\000"
 1925      6500
 1926              	.LASF78:
 1927 0284 5F646174 		.ascii	"_data\000"
 1927      6100
 1928              	.LASF107:
 1929 028a 5F6E696F 		.ascii	"_niobs\000"
 1929      627300
 1930              	.LASF118:
 1931 0291 5F72616E 		.ascii	"_rand_next\000"
 1931      645F6E65 
 1931      787400
 1932              	.LASF124:
 1933 029c 5F736967 		.ascii	"_signal_buf\000"
 1933      6E616C5F 
 1933      62756600 
 1934              	.LASF115:
 1935 02a8 5F617363 		.ascii	"_asctime_buf\000"
 1935      74696D65 
 1935      5F627566 
 1935      00
 1936              	.LASF93:
 1937 02b5 5F726573 		.ascii	"_result\000"
 1937      756C7400 
 1938              	.LASF32:
 1939 02bd 5F5F7763 		.ascii	"__wch\000"
 1939      6800
 1940              	.LASF99:
ARM GAS  /tmp/ccXCY7I7.s 			page 38


 1941 02c3 5F6E6577 		.ascii	"_new\000"
 1941      00
 1942              	.LASF79:
 1943 02c8 5F6C6F63 		.ascii	"_lock\000"
 1943      6B00
 1944              	.LASF111:
 1945 02ce 5F6D756C 		.ascii	"_mult\000"
 1945      7400
 1946              	.LASF71:
 1947 02d4 5F777269 		.ascii	"_write\000"
 1947      746500
 1948              	.LASF50:
 1949 02db 5F5F746D 		.ascii	"__tm_year\000"
 1949      5F796561 
 1949      7200
 1950              	.LASF15:
 1951 02e5 73697A65 		.ascii	"sizetype\000"
 1951      74797065 
 1951      00
 1952              	.LASF21:
 1953 02ee 47795F6F 		.ascii	"Gy_offset\000"
 1953      66667365 
 1953      7400
 1954              	.LASF132:
 1955 02f8 5F6E6578 		.ascii	"_nextf\000"
 1955      746600
 1956              	.LASF19:
 1957 02ff 61636365 		.ascii	"accel\000"
 1957      6C00
 1958              	.LASF22:
 1959 0305 477A5F6F 		.ascii	"Gz_offset\000"
 1959      66667365 
 1959      7400
 1960              	.LASF49:
 1961 030f 5F5F746D 		.ascii	"__tm_mon\000"
 1961      5F6D6F6E 
 1961      00
 1962              	.LASF59:
 1963 0318 5F617465 		.ascii	"_atexit\000"
 1963      78697400 
 1964              	.LASF91:
 1965 0320 5F5F7364 		.ascii	"__sdidinit\000"
 1965      6964696E 
 1965      697400
 1966              	.LASF117:
 1967 032b 5F67616D 		.ascii	"_gamma_signgam\000"
 1967      6D615F73 
 1967      69676E67 
 1967      616D00
 1968              	.LASF31:
 1969 033a 77696E74 		.ascii	"wint_t\000"
 1969      5F7400
 1970              	.LASF24:
 1971 0341 666C6F61 		.ascii	"float\000"
 1971      7400
 1972              	.LASF96:
 1973 0347 5F667265 		.ascii	"_freelist\000"
ARM GAS  /tmp/ccXCY7I7.s 			page 39


 1973      656C6973 
 1973      7400
 1974              	.LASF25:
 1975 0351 50697463 		.ascii	"Pitch\000"
 1975      6800
 1976              	.LASF28:
 1977 0357 5F4C4F43 		.ascii	"_LOCK_RECURSIVE_T\000"
 1977      4B5F5245 
 1977      43555253 
 1977      4956455F 
 1977      5400
 1978              	.LASF13:
 1979 0369 696E7433 		.ascii	"int32_t\000"
 1979      325F7400 
 1980              	.LASF1:
 1981 0371 756E7369 		.ascii	"unsigned char\000"
 1981      676E6564 
 1981      20636861 
 1981      7200
 1982              	.LASF108:
 1983 037f 5F696F62 		.ascii	"_iobs\000"
 1983      7300
 1984              	.LASF131:
 1985 0385 5F685F65 		.ascii	"_h_errno\000"
 1985      72726E6F 
 1985      00
 1986              	.LASF37:
 1987 038e 5F666C6F 		.ascii	"_flock_t\000"
 1987      636B5F74 
 1987      00
 1988              	.LASF52:
 1989 0397 5F5F746D 		.ascii	"__tm_yday\000"
 1989      5F796461 
 1989      7900
 1990              	.LASF62:
 1991 03a1 5F5F7362 		.ascii	"__sbuf\000"
 1991      756600
 1992              	.LASF81:
 1993 03a8 5F666C61 		.ascii	"_flags2\000"
 1993      67733200 
 1994              	.LASF105:
 1995 03b0 5F5F4649 		.ascii	"__FILE\000"
 1995      4C4500
 1996              	.LASF36:
 1997 03b7 5F6D6273 		.ascii	"_mbstate_t\000"
 1997      74617465 
 1997      5F7400
 1998              	.LASF65:
 1999 03c2 5F5F7346 		.ascii	"__sFILE\000"
 1999      494C4500 
 2000              	.LASF80:
 2001 03ca 5F6D6273 		.ascii	"_mbstate\000"
 2001      74617465 
 2001      00
 2002              	.LASF120:
 2003 03d3 5F6D626C 		.ascii	"_mblen_state\000"
 2003      656E5F73 
ARM GAS  /tmp/ccXCY7I7.s 			page 40


 2003      74617465 
 2003      00
 2004              	.LASF87:
 2005 03e0 5F696E63 		.ascii	"_inc\000"
 2005      00
 2006              	.LASF60:
 2007 03e5 5F696E64 		.ascii	"_ind\000"
 2007      00
 2008              	.LASF90:
 2009 03ea 5F637572 		.ascii	"_current_locale\000"
 2009      72656E74 
 2009      5F6C6F63 
 2009      616C6500 
 2010              	.LASF92:
 2011 03fa 5F5F636C 		.ascii	"__cleanup\000"
 2011      65616E75 
 2011      7000
 2012              	.LASF40:
 2013 0404 5F6D6178 		.ascii	"_maxwds\000"
 2013      77647300 
 2014              	.LASF82:
 2015 040c 5F726565 		.ascii	"_reent\000"
 2015      6E7400
 2016              	.LASF110:
 2017 0413 5F736565 		.ascii	"_seed\000"
 2017      6400
 2018              	.LASF34:
 2019 0419 5F5F636F 		.ascii	"__count\000"
 2019      756E7400 
 2020              	.LASF35:
 2021 0421 5F5F7661 		.ascii	"__value\000"
 2021      6C756500 
 2022              	.LASF72:
 2023 0429 5F736565 		.ascii	"_seek\000"
 2023      6B00
 2024              	.LASF51:
 2025 042f 5F5F746D 		.ascii	"__tm_wday\000"
 2025      5F776461 
 2025      7900
 2026              	.LASF30:
 2027 0439 5F66706F 		.ascii	"_fpos_t\000"
 2027      735F7400 
 2028              	.LASF27:
 2029 0441 6C6F6E67 		.ascii	"long double\000"
 2029      20646F75 
 2029      626C6500 
 2030              	.LASF83:
 2031 044d 5F657272 		.ascii	"_errno\000"
 2031      6E6F00
 2032              	.LASF104:
 2033 0454 63686172 		.ascii	"char\000"
 2033      00
 2034              	.LASF76:
 2035 0459 5F626C6B 		.ascii	"_blksize\000"
 2035      73697A65 
 2035      00
 2036              	.LASF64:
ARM GAS  /tmp/ccXCY7I7.s 			page 41


 2037 0462 5F73697A 		.ascii	"_size\000"
 2037      6500
 2038              	.LASF11:
 2039 0468 756E7369 		.ascii	"unsigned int\000"
 2039      676E6564 
 2039      20696E74 
 2039      00
 2040              	.LASF5:
 2041 0475 5F5F696E 		.ascii	"__int32_t\000"
 2041      7433325F 
 2041      7400
 2042              	.LASF26:
 2043 047f 526F6C6C 		.ascii	"Roll\000"
 2043      00
 2044              	.LASF39:
 2045 0484 5F6E6578 		.ascii	"_next\000"
 2045      7400
 2046              	.LASF114:
 2047 048a 5F737472 		.ascii	"_strtok_last\000"
 2047      746F6B5F 
 2047      6C617374 
 2047      00
 2048              	.LASF57:
 2049 0497 5F666E74 		.ascii	"_fntypes\000"
 2049      79706573 
 2049      00
 2050              	.LASF143:
 2051 04a0 474E5520 		.ascii	"GNU C11 6.1.1 20160526 -mcpu=cortex-m3 -mthumb -g -"
 2051      43313120 
 2051      362E312E 
 2051      31203230 
 2051      31363035 
 2052 04d3 666E6F2D 		.ascii	"fno-common\000"
 2052      636F6D6D 
 2052      6F6E00
 2053              	.LASF3:
 2054 04de 73686F72 		.ascii	"short unsigned int\000"
 2054      7420756E 
 2054      7369676E 
 2054      65642069 
 2054      6E7400
 2055              	.LASF112:
 2056 04f1 5F616464 		.ascii	"_add\000"
 2056      00
 2057              	.LASF38:
 2058 04f6 5F5F554C 		.ascii	"__ULong\000"
 2058      6F6E6700 
 2059              	.LASF125:
 2060 04fe 5F676574 		.ascii	"_getdate_err\000"
 2060      64617465 
 2060      5F657272 
 2060      00
 2061              	.LASF146:
 2062 050b 5F5F6664 		.ascii	"__fdlibm_version\000"
 2062      6C69626D 
 2062      5F766572 
 2062      73696F6E 
ARM GAS  /tmp/ccXCY7I7.s 			page 42


 2062      00
 2063              	.LASF136:
 2064 051c 5F676C6F 		.ascii	"_global_impure_ptr\000"
 2064      62616C5F 
 2064      696D7075 
 2064      72655F70 
 2064      747200
 2065              	.LASF89:
 2066 052f 5F637572 		.ascii	"_current_category\000"
 2066      72656E74 
 2066      5F636174 
 2066      65676F72 
 2066      7900
 2067              	.LASF138:
 2068 0541 5F5F6664 		.ascii	"__fdlibm_ieee\000"
 2068      6C69626D 
 2068      5F696565 
 2068      6500
 2069              	.LASF113:
 2070 054f 5F756E75 		.ascii	"_unused_rand\000"
 2070      7365645F 
 2070      72616E64 
 2070      00
 2071              	.LASF42:
 2072 055c 5F776473 		.ascii	"_wds\000"
 2072      00
 2073              	.LASF106:
 2074 0561 5F676C75 		.ascii	"_glue\000"
 2074      6500
 2075              	.LASF66:
 2076 0567 5F666C61 		.ascii	"_flags\000"
 2076      677300
 2077              	.LASF133:
 2078 056e 5F6E6D61 		.ascii	"_nmalloc\000"
 2078      6C6C6F63 
 2078      00
 2079              	.LASF123:
 2080 0577 5F6C3634 		.ascii	"_l64a_buf\000"
 2080      615F6275 
 2080      6600
 2081              	.LASF101:
 2082 0581 5F736967 		.ascii	"_sig_func\000"
 2082      5F66756E 
 2082      6300
 2083              	.LASF4:
 2084 058b 5F5F696E 		.ascii	"__int16_t\000"
 2084      7431365F 
 2084      7400
 2085              	.LASF75:
 2086 0595 5F6E6275 		.ascii	"_nbuf\000"
 2086      6600
 2087              	.LASF134:
 2088 059b 5F756E75 		.ascii	"_unused\000"
 2088      73656400 
 2089              	.LASF53:
 2090 05a3 5F5F746D 		.ascii	"__tm_isdst\000"
 2090      5F697364 
ARM GAS  /tmp/ccXCY7I7.s 			page 43


 2090      737400
 2091              	.LASF116:
 2092 05ae 5F6C6F63 		.ascii	"_localtime_buf\000"
 2092      616C7469 
 2092      6D655F62 
 2092      756600
 2093              	.LASF46:
 2094 05bd 5F5F746D 		.ascii	"__tm_min\000"
 2094      5F6D696E 
 2094      00
 2095              	.LASF119:
 2096 05c6 5F723438 		.ascii	"_r48\000"
 2096      00
 2097              	.LASF121:
 2098 05cb 5F6D6274 		.ascii	"_mbtowc_state\000"
 2098      6F77635F 
 2098      73746174 
 2098      6500
 2099              	.LASF95:
 2100 05d9 5F703573 		.ascii	"_p5s\000"
 2100      00
 2101              	.LASF147:
 2102 05de 6D61696E 		.ascii	"main\000"
 2102      00
 2103              	.LASF14:
 2104 05e3 75696E74 		.ascii	"uint32_t\000"
 2104      33325F74 
 2104      00
 2105              	.LASF48:
 2106 05ec 5F5F746D 		.ascii	"__tm_mday\000"
 2106      5F6D6461 
 2106      7900
 2107              		.ident	"GCC: (Arch Repository) 6.1.1 20160526"
ARM GAS  /tmp/ccXCY7I7.s 			page 44


DEFINED SYMBOLS
                            *ABS*:0000000000000000 main.c
     /tmp/ccXCY7I7.s:16     .rodata:0000000000000000 $d
     /tmp/ccXCY7I7.s:29     .text:0000000000000000 $t
     /tmp/ccXCY7I7.s:36     .text:0000000000000000 main
     /tmp/ccXCY7I7.s:97     .text:0000000000000060 $d
                     .debug_frame:0000000000000010 $d

UNDEFINED SYMBOLS
SystemInit
RCC_Conf
NVIC_Conf
GPIO_Conf
USART_Conf
TIMER_Conf
delay_init
HCSR04_Get
printf
delay_us
delay_ms
