ARM GAS  /tmp/ccHpyiyK.s 			page 1


   1              		.cpu cortex-m3
   2              		.eabi_attribute 20, 1
   3              		.eabi_attribute 21, 1
   4              		.eabi_attribute 23, 3
   5              		.eabi_attribute 24, 1
   6              		.eabi_attribute 25, 1
   7              		.eabi_attribute 26, 1
   8              		.eabi_attribute 30, 1
   9              		.eabi_attribute 34, 1
  10              		.eabi_attribute 18, 4
  11              		.file	"main.c"
  12              		.text
  13              	.Ltext0:
  14              		.cfi_sections	.debug_frame
  15              		.align	1
  16              		.global	main
  17              		.syntax unified
  18              		.thumb
  19              		.thumb_func
  20              		.fpu softvfp
  21              		.type	main, %function
  22              	main:
  23              	.LFB64:
  24              		.file 1 "project/main.c"
   1:project/main.c **** /**
   2:project/main.c ****  * STM32F103C8 Quadrocopter
   3:project/main.c ****  */
   4:project/main.c **** #include "tools.h"
   5:project/main.c **** #include "conf.h"
   6:project/main.c **** #include "MPU6050.h"
   7:project/main.c **** 
   8:project/main.c **** /* Exported constants --------------------------------------------------------*/
   9:project/main.c **** 
  10:project/main.c **** 
  11:project/main.c **** int main(void)
  12:project/main.c **** {
  25              		.loc 1 12 0
  26              		.cfi_startproc
  27              		@ Volatile: function does not return.
  28              		@ args = 0, pretend = 0, frame = 0
  29              		@ frame_needed = 0, uses_anonymous_args = 0
  30 0000 08B5     		push	{r3, lr}
  31              		.cfi_def_cfa_offset 8
  32              		.cfi_offset 3, -8
  33              		.cfi_offset 14, -4
  13:project/main.c ****   SystemInit();
  34              		.loc 1 13 0
  35 0002 FFF7FEFF 		bl	SystemInit
  36              	.LVL0:
  14:project/main.c ****   UserInit();
  37              		.loc 1 14 0
  38 0006 FFF7FEFF 		bl	UserInit
  39              	.LVL1:
  15:project/main.c ****   MPU6050_Init();
  40              		.loc 1 15 0
  41 000a FFF7FEFF 		bl	MPU6050_Init
  42              	.LVL2:
ARM GAS  /tmp/ccHpyiyK.s 			page 2


  16:project/main.c ****   DMP_Init();
  43              		.loc 1 16 0
  44 000e FFF7FEFF 		bl	DMP_Init
  45              	.LVL3:
  17:project/main.c **** 
  18:project/main.c **** 
  19:project/main.c ****   while (1) {  
  20:project/main.c ****     printf("height:%d\r\n", HCSR04_Get());
  46              		.loc 1 20 0
  47 0012 0C4E     		ldr	r6, .L4
  21:project/main.c ****     Read_DMP();
  22:project/main.c ****     printf("string:%s\r\n", "Hello World.");
  48              		.loc 1 22 0
  49 0014 0C4D     		ldr	r5, .L4+4
  50 0016 0D4C     		ldr	r4, .L4+8
  51              	.L2:
  20:project/main.c ****     Read_DMP();
  52              		.loc 1 20 0 discriminator 1
  53 0018 FFF7FEFF 		bl	HCSR04_Get
  54              	.LVL4:
  55 001c 0146     		mov	r1, r0
  56 001e 3046     		mov	r0, r6
  57 0020 FFF7FEFF 		bl	printf
  58              	.LVL5:
  21:project/main.c ****     Read_DMP();
  59              		.loc 1 21 0 discriminator 1
  60 0024 FFF7FEFF 		bl	Read_DMP
  61              	.LVL6:
  62              		.loc 1 22 0 discriminator 1
  63 0028 2946     		mov	r1, r5
  64 002a 2046     		mov	r0, r4
  65 002c FFF7FEFF 		bl	printf
  66              	.LVL7:
  23:project/main.c ****     printf("quad[0]:%d\r\n", iPitch);
  67              		.loc 1 23 0 discriminator 1
  68 0030 074B     		ldr	r3, .L4+12
  69 0032 1988     		ldrh	r1, [r3]
  70 0034 0748     		ldr	r0, .L4+16
  71 0036 FFF7FEFF 		bl	printf
  72              	.LVL8:
  24:project/main.c ****     DelayMs(10000);
  73              		.loc 1 24 0 discriminator 1
  74 003a 42F21070 		movw	r0, #10000
  75 003e FFF7FEFF 		bl	DelayMs
  76              	.LVL9:
  77 0042 E9E7     		b	.L2
  78              	.L5:
  79              		.align	2
  80              	.L4:
  81 0044 00000000 		.word	.LC0
  82 0048 0C000000 		.word	.LC1
  83 004c 1C000000 		.word	.LC2
  84 0050 00000000 		.word	iPitch
  85 0054 28000000 		.word	.LC3
  86              		.cfi_endproc
  87              	.LFE64:
  88              		.size	main, .-main
ARM GAS  /tmp/ccHpyiyK.s 			page 3


  89              		.section	.rodata.str1.4,"aMS",%progbits,1
  90              		.align	2
  91              	.LC0:
  92 0000 68656967 		.ascii	"height:%d\015\012\000"
  92      68743A25 
  92      640D0A00 
  93              	.LC1:
  94 000c 48656C6C 		.ascii	"Hello World.\000"
  94      6F20576F 
  94      726C642E 
  94      00
  95 0019 000000   		.space	3
  96              	.LC2:
  97 001c 73747269 		.ascii	"string:%s\015\012\000"
  97      6E673A25 
  97      730D0A00 
  98              	.LC3:
  99 0028 71756164 		.ascii	"quad[0]:%d\015\012\000"
  99      5B305D3A 
  99      25640D0A 
  99      00
 100              		.text
 101              	.Letext0:
 102              		.file 2 "/usr/arm-none-eabi/include/machine/_default_types.h"
 103              		.file 3 "/usr/arm-none-eabi/include/sys/_stdint.h"
 104              		.file 4 "/home/enbin/Documents/code/STM/stm32-quadrocopter/cmsis/core_cm3.h"
 105              		.file 5 "/home/enbin/Documents/code/STM/stm32-quadrocopter/lib/inc/system_stm32f10x.h"
 106              		.file 6 "/home/enbin/Documents/code/STM/stm32-quadrocopter/drivers/MPU6050.h"
 107              		.file 7 "/usr/arm-none-eabi/include/sys/lock.h"
 108              		.file 8 "/usr/arm-none-eabi/include/sys/_types.h"
 109              		.file 9 "/usr/lib/gcc/arm-none-eabi/6.1.1/include/stddef.h"
 110              		.file 10 "/usr/arm-none-eabi/include/sys/reent.h"
 111              		.file 11 "/usr/arm-none-eabi/include/stdlib.h"
 112              		.file 12 "/usr/arm-none-eabi/include/math.h"
 113              		.file 13 "/usr/arm-none-eabi/include/sys/errno.h"
 114              		.file 14 "/home/enbin/Documents/code/STM/stm32-quadrocopter/drivers/tools.h"
 115              		.file 15 "/usr/arm-none-eabi/include/stdio.h"
 116              		.section	.debug_info,"",%progbits
 117              	.Ldebug_info0:
 118 0000 E10A0000 		.4byte	0xae1
 119 0004 0400     		.2byte	0x4
 120 0006 00000000 		.4byte	.Ldebug_abbrev0
 121 000a 04       		.byte	0x4
 122 000b 01       		.uleb128 0x1
 123 000c 32040000 		.4byte	.LASF156
 124 0010 01       		.byte	0x1
 125 0011 0D020000 		.4byte	.LASF157
 126 0015 6C010000 		.4byte	.LASF158
 127 0019 00000000 		.4byte	.Ltext0
 128 001d 58000000 		.4byte	.Letext0-.Ltext0
 129 0021 00000000 		.4byte	.Ldebug_line0
 130 0025 02       		.uleb128 0x2
 131 0026 01       		.byte	0x1
 132 0027 06       		.byte	0x6
 133 0028 07010000 		.4byte	.LASF0
 134 002c 02       		.uleb128 0x2
 135 002d 01       		.byte	0x1
ARM GAS  /tmp/ccHpyiyK.s 			page 4


 136 002e 08       		.byte	0x8
 137 002f CF030000 		.4byte	.LASF1
 138 0033 03       		.uleb128 0x3
 139 0034 35060000 		.4byte	.LASF3
 140 0038 02       		.byte	0x2
 141 0039 29       		.byte	0x29
 142 003a 3E000000 		.4byte	0x3e
 143 003e 02       		.uleb128 0x2
 144 003f 02       		.byte	0x2
 145 0040 05       		.byte	0x5
 146 0041 07000000 		.4byte	.LASF2
 147 0045 03       		.uleb128 0x3
 148 0046 56050000 		.4byte	.LASF4
 149 004a 02       		.byte	0x2
 150 004b 2B       		.byte	0x2b
 151 004c 50000000 		.4byte	0x50
 152 0050 02       		.uleb128 0x2
 153 0051 02       		.byte	0x2
 154 0052 07       		.byte	0x7
 155 0053 87050000 		.4byte	.LASF5
 156 0057 03       		.uleb128 0x3
 157 0058 61050000 		.4byte	.LASF6
 158 005c 02       		.byte	0x2
 159 005d 3F       		.byte	0x3f
 160 005e 62000000 		.4byte	0x62
 161 0062 02       		.uleb128 0x2
 162 0063 04       		.byte	0x4
 163 0064 05       		.byte	0x5
 164 0065 63010000 		.4byte	.LASF7
 165 0069 03       		.uleb128 0x3
 166 006a 2F020000 		.4byte	.LASF8
 167 006e 02       		.byte	0x2
 168 006f 41       		.byte	0x41
 169 0070 74000000 		.4byte	0x74
 170 0074 02       		.uleb128 0x2
 171 0075 04       		.byte	0x4
 172 0076 07       		.byte	0x7
 173 0077 8E020000 		.4byte	.LASF9
 174 007b 02       		.uleb128 0x2
 175 007c 08       		.byte	0x8
 176 007d 05       		.byte	0x5
 177 007e C5010000 		.4byte	.LASF10
 178 0082 02       		.uleb128 0x2
 179 0083 08       		.byte	0x8
 180 0084 07       		.byte	0x7
 181 0085 7A000000 		.4byte	.LASF11
 182 0089 04       		.uleb128 0x4
 183 008a 04       		.byte	0x4
 184 008b 05       		.byte	0x5
 185 008c 696E7400 		.ascii	"int\000"
 186 0090 02       		.uleb128 0x2
 187 0091 04       		.byte	0x4
 188 0092 07       		.byte	0x7
 189 0093 49050000 		.4byte	.LASF12
 190 0097 03       		.uleb128 0x3
 191 0098 F1000000 		.4byte	.LASF13
 192 009c 03       		.byte	0x3
ARM GAS  /tmp/ccHpyiyK.s 			page 5


 193 009d 20       		.byte	0x20
 194 009e 33000000 		.4byte	0x33
 195 00a2 03       		.uleb128 0x3
 196 00a3 D3010000 		.4byte	.LASF14
 197 00a7 03       		.byte	0x3
 198 00a8 24       		.byte	0x24
 199 00a9 45000000 		.4byte	0x45
 200 00ad 03       		.uleb128 0x3
 201 00ae C7030000 		.4byte	.LASF15
 202 00b2 03       		.byte	0x3
 203 00b3 2C       		.byte	0x2c
 204 00b4 57000000 		.4byte	0x57
 205 00b8 05       		.uleb128 0x5
 206 00b9 AD000000 		.4byte	0xad
 207 00bd 03       		.uleb128 0x3
 208 00be 96060000 		.4byte	.LASF16
 209 00c2 03       		.byte	0x3
 210 00c3 30       		.byte	0x30
 211 00c4 69000000 		.4byte	0x69
 212 00c8 02       		.uleb128 0x2
 213 00c9 04       		.byte	0x4
 214 00ca 07       		.byte	0x7
 215 00cb 21030000 		.4byte	.LASF17
 216 00cf 06       		.uleb128 0x6
 217 00d0 A9000000 		.4byte	.LASF18
 218 00d4 04       		.byte	0x4
 219 00d5 9606     		.2byte	0x696
 220 00d7 B8000000 		.4byte	0xb8
 221 00db 07       		.uleb128 0x7
 222 00dc 6E020000 		.4byte	.LASF19
 223 00e0 05       		.byte	0x5
 224 00e1 35       		.byte	0x35
 225 00e2 BD000000 		.4byte	0xbd
 226 00e6 08       		.uleb128 0x8
 227 00e7 09       		.uleb128 0x9
 228 00e8 04       		.byte	0x4
 229 00e9 E6000000 		.4byte	0xe6
 230 00ed 0A       		.uleb128 0xa
 231 00ee 3E000000 		.4byte	0x3e
 232 00f2 FD000000 		.4byte	0xfd
 233 00f6 0B       		.uleb128 0xb
 234 00f7 C8000000 		.4byte	0xc8
 235 00fb 02       		.byte	0x2
 236 00fc 00       		.byte	0
 237 00fd 06       		.uleb128 0x6
 238 00fe C6000000 		.4byte	.LASF20
 239 0102 06       		.byte	0x6
 240 0103 6401     		.2byte	0x164
 241 0105 ED000000 		.4byte	0xed
 242 0109 06       		.uleb128 0x6
 243 010a 3B030000 		.4byte	.LASF21
 244 010e 06       		.byte	0x6
 245 010f 6401     		.2byte	0x164
 246 0111 ED000000 		.4byte	0xed
 247 0115 06       		.uleb128 0x6
 248 0116 19010000 		.4byte	.LASF22
 249 011a 06       		.byte	0x6
ARM GAS  /tmp/ccHpyiyK.s 			page 6


 250 011b 6501     		.2byte	0x165
 251 011d 97000000 		.4byte	0x97
 252 0121 06       		.uleb128 0x6
 253 0122 2A030000 		.4byte	.LASF23
 254 0126 06       		.byte	0x6
 255 0127 6501     		.2byte	0x165
 256 0129 97000000 		.4byte	0x97
 257 012d 06       		.uleb128 0x6
 258 012e 41030000 		.4byte	.LASF24
 259 0132 06       		.byte	0x6
 260 0133 6501     		.2byte	0x165
 261 0135 97000000 		.4byte	0x97
 262 0139 06       		.uleb128 0x6
 263 013a 46010000 		.4byte	.LASF25
 264 013e 06       		.byte	0x6
 265 013f 6601     		.2byte	0x166
 266 0141 45010000 		.4byte	0x145
 267 0145 02       		.uleb128 0x2
 268 0146 04       		.byte	0x4
 269 0147 04       		.byte	0x4
 270 0148 87030000 		.4byte	.LASF26
 271 014c 06       		.uleb128 0x6
 272 014d 97030000 		.4byte	.LASF27
 273 0151 06       		.byte	0x6
 274 0152 6701     		.2byte	0x167
 275 0154 45010000 		.4byte	0x145
 276 0158 06       		.uleb128 0x6
 277 0159 B4050000 		.4byte	.LASF28
 278 015d 06       		.byte	0x6
 279 015e 6801     		.2byte	0x168
 280 0160 A2000000 		.4byte	0xa2
 281 0164 0C       		.uleb128 0xc
 282 0165 04       		.byte	0x4
 283 0166 03       		.uleb128 0x3
 284 0167 AA030000 		.4byte	.LASF29
 285 016b 07       		.byte	0x7
 286 016c 07       		.byte	0x7
 287 016d 89000000 		.4byte	0x89
 288 0171 03       		.uleb128 0x3
 289 0172 F9000000 		.4byte	.LASF30
 290 0176 08       		.byte	0x8
 291 0177 2C       		.byte	0x2c
 292 0178 62000000 		.4byte	0x62
 293 017c 03       		.uleb128 0x3
 294 017d 1A050000 		.4byte	.LASF31
 295 0181 08       		.byte	0x8
 296 0182 72       		.byte	0x72
 297 0183 62000000 		.4byte	0x62
 298 0187 0D       		.uleb128 0xd
 299 0188 80030000 		.4byte	.LASF32
 300 018c 09       		.byte	0x9
 301 018d 6501     		.2byte	0x165
 302 018f 90000000 		.4byte	0x90
 303 0193 0E       		.uleb128 0xe
 304 0194 04       		.byte	0x4
 305 0195 08       		.byte	0x8
 306 0196 A6       		.byte	0xa6
ARM GAS  /tmp/ccHpyiyK.s 			page 7


 307 0197 B2010000 		.4byte	0x1b2
 308 019b 0F       		.uleb128 0xf
 309 019c E8020000 		.4byte	.LASF33
 310 01a0 08       		.byte	0x8
 311 01a1 A8       		.byte	0xa8
 312 01a2 87010000 		.4byte	0x187
 313 01a6 0F       		.uleb128 0xf
 314 01a7 67020000 		.4byte	.LASF34
 315 01ab 08       		.byte	0x8
 316 01ac A9       		.byte	0xa9
 317 01ad B2010000 		.4byte	0x1b2
 318 01b1 00       		.byte	0
 319 01b2 0A       		.uleb128 0xa
 320 01b3 2C000000 		.4byte	0x2c
 321 01b7 C2010000 		.4byte	0x1c2
 322 01bb 0B       		.uleb128 0xb
 323 01bc C8000000 		.4byte	0xc8
 324 01c0 03       		.byte	0x3
 325 01c1 00       		.byte	0
 326 01c2 10       		.uleb128 0x10
 327 01c3 08       		.byte	0x8
 328 01c4 08       		.byte	0x8
 329 01c5 A3       		.byte	0xa3
 330 01c6 E3010000 		.4byte	0x1e3
 331 01ca 11       		.uleb128 0x11
 332 01cb FA040000 		.4byte	.LASF35
 333 01cf 08       		.byte	0x8
 334 01d0 A5       		.byte	0xa5
 335 01d1 89000000 		.4byte	0x89
 336 01d5 00       		.byte	0
 337 01d6 11       		.uleb128 0x11
 338 01d7 02050000 		.4byte	.LASF36
 339 01db 08       		.byte	0x8
 340 01dc AA       		.byte	0xaa
 341 01dd 93010000 		.4byte	0x193
 342 01e1 04       		.byte	0x4
 343 01e2 00       		.byte	0
 344 01e3 03       		.uleb128 0x3
 345 01e4 15040000 		.4byte	.LASF37
 346 01e8 08       		.byte	0x8
 347 01e9 AB       		.byte	0xab
 348 01ea C2010000 		.4byte	0x1c2
 349 01ee 03       		.uleb128 0x3
 350 01ef EC030000 		.4byte	.LASF38
 351 01f3 08       		.byte	0x8
 352 01f4 AF       		.byte	0xaf
 353 01f5 66010000 		.4byte	0x166
 354 01f9 03       		.uleb128 0x3
 355 01fa 9F050000 		.4byte	.LASF39
 356 01fe 0A       		.byte	0xa
 357 01ff 16       		.byte	0x16
 358 0200 74000000 		.4byte	0x74
 359 0204 12       		.uleb128 0x12
 360 0205 54020000 		.4byte	.LASF44
 361 0209 18       		.byte	0x18
 362 020a 0A       		.byte	0xa
 363 020b 2D       		.byte	0x2d
ARM GAS  /tmp/ccHpyiyK.s 			page 8


 364 020c 57020000 		.4byte	0x257
 365 0210 11       		.uleb128 0x11
 366 0211 6B050000 		.4byte	.LASF40
 367 0215 0A       		.byte	0xa
 368 0216 2F       		.byte	0x2f
 369 0217 57020000 		.4byte	0x257
 370 021b 00       		.byte	0
 371 021c 13       		.uleb128 0x13
 372 021d 5F6B00   		.ascii	"_k\000"
 373 0220 0A       		.byte	0xa
 374 0221 30       		.byte	0x30
 375 0222 89000000 		.4byte	0x89
 376 0226 04       		.byte	0x4
 377 0227 11       		.uleb128 0x11
 378 0228 E5040000 		.4byte	.LASF41
 379 022c 0A       		.byte	0xa
 380 022d 30       		.byte	0x30
 381 022e 89000000 		.4byte	0x89
 382 0232 08       		.byte	0x8
 383 0233 11       		.uleb128 0x11
 384 0234 3A020000 		.4byte	.LASF42
 385 0238 0A       		.byte	0xa
 386 0239 30       		.byte	0x30
 387 023a 89000000 		.4byte	0x89
 388 023e 0C       		.byte	0xc
 389 023f 11       		.uleb128 0x11
 390 0240 06060000 		.4byte	.LASF43
 391 0244 0A       		.byte	0xa
 392 0245 30       		.byte	0x30
 393 0246 89000000 		.4byte	0x89
 394 024a 10       		.byte	0x10
 395 024b 13       		.uleb128 0x13
 396 024c 5F7800   		.ascii	"_x\000"
 397 024f 0A       		.byte	0xa
 398 0250 31       		.byte	0x31
 399 0251 5D020000 		.4byte	0x25d
 400 0255 14       		.byte	0x14
 401 0256 00       		.byte	0
 402 0257 09       		.uleb128 0x9
 403 0258 04       		.byte	0x4
 404 0259 04020000 		.4byte	0x204
 405 025d 0A       		.uleb128 0xa
 406 025e F9010000 		.4byte	0x1f9
 407 0262 6D020000 		.4byte	0x26d
 408 0266 0B       		.uleb128 0xb
 409 0267 C8000000 		.4byte	0xc8
 410 026b 00       		.byte	0
 411 026c 00       		.byte	0
 412 026d 12       		.uleb128 0x12
 413 026e 62020000 		.4byte	.LASF45
 414 0272 24       		.byte	0x24
 415 0273 0A       		.byte	0xa
 416 0274 35       		.byte	0x35
 417 0275 E6020000 		.4byte	0x2e6
 418 0279 11       		.uleb128 0x11
 419 027a E8000000 		.4byte	.LASF46
 420 027e 0A       		.byte	0xa
ARM GAS  /tmp/ccHpyiyK.s 			page 9


 421 027f 37       		.byte	0x37
 422 0280 89000000 		.4byte	0x89
 423 0284 00       		.byte	0
 424 0285 11       		.uleb128 0x11
 425 0286 67060000 		.4byte	.LASF47
 426 028a 0A       		.byte	0xa
 427 028b 38       		.byte	0x38
 428 028c 89000000 		.4byte	0x89
 429 0290 04       		.byte	0x4
 430 0291 11       		.uleb128 0x11
 431 0292 29010000 		.4byte	.LASF48
 432 0296 0A       		.byte	0xa
 433 0297 39       		.byte	0x39
 434 0298 89000000 		.4byte	0x89
 435 029c 08       		.byte	0x8
 436 029d 11       		.uleb128 0x11
 437 029e 9F060000 		.4byte	.LASF49
 438 02a2 0A       		.byte	0xa
 439 02a3 3A       		.byte	0x3a
 440 02a4 89000000 		.4byte	0x89
 441 02a8 0C       		.byte	0xc
 442 02a9 11       		.uleb128 0x11
 443 02aa 4B030000 		.4byte	.LASF50
 444 02ae 0A       		.byte	0xa
 445 02af 3B       		.byte	0x3b
 446 02b0 89000000 		.4byte	0x89
 447 02b4 10       		.byte	0x10
 448 02b5 11       		.uleb128 0x11
 449 02b6 06030000 		.4byte	.LASF51
 450 02ba 0A       		.byte	0xa
 451 02bb 3C       		.byte	0x3c
 452 02bc 89000000 		.4byte	0x89
 453 02c0 14       		.byte	0x14
 454 02c1 11       		.uleb128 0x11
 455 02c2 10050000 		.4byte	.LASF52
 456 02c6 0A       		.byte	0xa
 457 02c7 3D       		.byte	0x3d
 458 02c8 89000000 		.4byte	0x89
 459 02cc 18       		.byte	0x18
 460 02cd 11       		.uleb128 0x11
 461 02ce F5030000 		.4byte	.LASF53
 462 02d2 0A       		.byte	0xa
 463 02d3 3E       		.byte	0x3e
 464 02d4 89000000 		.4byte	0x89
 465 02d8 1C       		.byte	0x1c
 466 02d9 11       		.uleb128 0x11
 467 02da 4D060000 		.4byte	.LASF54
 468 02de 0A       		.byte	0xa
 469 02df 3F       		.byte	0x3f
 470 02e0 89000000 		.4byte	0x89
 471 02e4 20       		.byte	0x20
 472 02e5 00       		.byte	0
 473 02e6 14       		.uleb128 0x14
 474 02e7 38010000 		.4byte	.LASF55
 475 02eb 0801     		.2byte	0x108
 476 02ed 0A       		.byte	0xa
 477 02ee 48       		.byte	0x48
ARM GAS  /tmp/ccHpyiyK.s 			page 10


 478 02ef 26030000 		.4byte	0x326
 479 02f3 11       		.uleb128 0x11
 480 02f4 1E000000 		.4byte	.LASF56
 481 02f8 0A       		.byte	0xa
 482 02f9 49       		.byte	0x49
 483 02fa 26030000 		.4byte	0x326
 484 02fe 00       		.byte	0
 485 02ff 11       		.uleb128 0x11
 486 0300 CF040000 		.4byte	.LASF57
 487 0304 0A       		.byte	0xa
 488 0305 4A       		.byte	0x4a
 489 0306 26030000 		.4byte	0x326
 490 030a 80       		.byte	0x80
 491 030b 15       		.uleb128 0x15
 492 030c 7E050000 		.4byte	.LASF58
 493 0310 0A       		.byte	0xa
 494 0311 4C       		.byte	0x4c
 495 0312 F9010000 		.4byte	0x1f9
 496 0316 0001     		.2byte	0x100
 497 0318 15       		.uleb128 0x15
 498 0319 9E010000 		.4byte	.LASF59
 499 031d 0A       		.byte	0xa
 500 031e 4F       		.byte	0x4f
 501 031f F9010000 		.4byte	0x1f9
 502 0323 0401     		.2byte	0x104
 503 0325 00       		.byte	0
 504 0326 0A       		.uleb128 0xa
 505 0327 64010000 		.4byte	0x164
 506 032b 36030000 		.4byte	0x336
 507 032f 0B       		.uleb128 0xb
 508 0330 C8000000 		.4byte	0xc8
 509 0334 1F       		.byte	0x1f
 510 0335 00       		.byte	0
 511 0336 14       		.uleb128 0x14
 512 0337 54030000 		.4byte	.LASF60
 513 033b 9001     		.2byte	0x190
 514 033d 0A       		.byte	0xa
 515 033e 5B       		.byte	0x5b
 516 033f 74030000 		.4byte	0x374
 517 0343 11       		.uleb128 0x11
 518 0344 6B050000 		.4byte	.LASF40
 519 0348 0A       		.byte	0xa
 520 0349 5C       		.byte	0x5c
 521 034a 74030000 		.4byte	0x374
 522 034e 00       		.byte	0
 523 034f 11       		.uleb128 0x11
 524 0350 BA040000 		.4byte	.LASF61
 525 0354 0A       		.byte	0xa
 526 0355 5D       		.byte	0x5d
 527 0356 89000000 		.4byte	0x89
 528 035a 04       		.byte	0x4
 529 035b 11       		.uleb128 0x11
 530 035c 2A020000 		.4byte	.LASF62
 531 0360 0A       		.byte	0xa
 532 0361 5F       		.byte	0x5f
 533 0362 7A030000 		.4byte	0x37a
 534 0366 08       		.byte	0x8
ARM GAS  /tmp/ccHpyiyK.s 			page 11


 535 0367 11       		.uleb128 0x11
 536 0368 38010000 		.4byte	.LASF55
 537 036c 0A       		.byte	0xa
 538 036d 60       		.byte	0x60
 539 036e E6020000 		.4byte	0x2e6
 540 0372 88       		.byte	0x88
 541 0373 00       		.byte	0
 542 0374 09       		.uleb128 0x9
 543 0375 04       		.byte	0x4
 544 0376 36030000 		.4byte	0x336
 545 037a 0A       		.uleb128 0xa
 546 037b E7000000 		.4byte	0xe7
 547 037f 8A030000 		.4byte	0x38a
 548 0383 0B       		.uleb128 0xb
 549 0384 C8000000 		.4byte	0xc8
 550 0388 1F       		.byte	0x1f
 551 0389 00       		.byte	0
 552 038a 12       		.uleb128 0x12
 553 038b FF030000 		.4byte	.LASF63
 554 038f 08       		.byte	0x8
 555 0390 0A       		.byte	0xa
 556 0391 73       		.byte	0x73
 557 0392 AF030000 		.4byte	0x3af
 558 0396 11       		.uleb128 0x11
 559 0397 23010000 		.4byte	.LASF64
 560 039b 0A       		.byte	0xa
 561 039c 74       		.byte	0x74
 562 039d AF030000 		.4byte	0x3af
 563 03a1 00       		.byte	0
 564 03a2 11       		.uleb128 0x11
 565 03a3 43050000 		.4byte	.LASF65
 566 03a7 0A       		.byte	0xa
 567 03a8 75       		.byte	0x75
 568 03a9 89000000 		.4byte	0x89
 569 03ad 04       		.byte	0x4
 570 03ae 00       		.byte	0
 571 03af 09       		.uleb128 0x9
 572 03b0 04       		.byte	0x4
 573 03b1 2C000000 		.4byte	0x2c
 574 03b5 12       		.uleb128 0x12
 575 03b6 20040000 		.4byte	.LASF66
 576 03ba 68       		.byte	0x68
 577 03bb 0A       		.byte	0xa
 578 03bc B3       		.byte	0xb3
 579 03bd DF040000 		.4byte	0x4df
 580 03c1 13       		.uleb128 0x13
 581 03c2 5F7000   		.ascii	"_p\000"
 582 03c5 0A       		.byte	0xa
 583 03c6 B4       		.byte	0xb4
 584 03c7 AF030000 		.4byte	0x3af
 585 03cb 00       		.byte	0
 586 03cc 13       		.uleb128 0x13
 587 03cd 5F7200   		.ascii	"_r\000"
 588 03d0 0A       		.byte	0xa
 589 03d1 B5       		.byte	0xb5
 590 03d2 89000000 		.4byte	0x89
 591 03d6 04       		.byte	0x4
ARM GAS  /tmp/ccHpyiyK.s 			page 12


 592 03d7 13       		.uleb128 0x13
 593 03d8 5F7700   		.ascii	"_w\000"
 594 03db 0A       		.byte	0xa
 595 03dc B6       		.byte	0xb6
 596 03dd 89000000 		.4byte	0x89
 597 03e1 08       		.byte	0x8
 598 03e2 11       		.uleb128 0x11
 599 03e3 11060000 		.4byte	.LASF67
 600 03e7 0A       		.byte	0xa
 601 03e8 B7       		.byte	0xb7
 602 03e9 3E000000 		.4byte	0x3e
 603 03ed 0C       		.byte	0xc
 604 03ee 11       		.uleb128 0x11
 605 03ef A0020000 		.4byte	.LASF68
 606 03f3 0A       		.byte	0xa
 607 03f4 B8       		.byte	0xb8
 608 03f5 3E000000 		.4byte	0x3e
 609 03f9 0E       		.byte	0xe
 610 03fa 13       		.uleb128 0x13
 611 03fb 5F626600 		.ascii	"_bf\000"
 612 03ff 0A       		.byte	0xa
 613 0400 B9       		.byte	0xb9
 614 0401 8A030000 		.4byte	0x38a
 615 0405 10       		.byte	0x10
 616 0406 11       		.uleb128 0x11
 617 0407 A0000000 		.4byte	.LASF69
 618 040b 0A       		.byte	0xa
 619 040c BA       		.byte	0xba
 620 040d 89000000 		.4byte	0x89
 621 0411 18       		.byte	0x18
 622 0412 11       		.uleb128 0x11
 623 0413 53010000 		.4byte	.LASF70
 624 0417 0A       		.byte	0xa
 625 0418 C1       		.byte	0xc1
 626 0419 64010000 		.4byte	0x164
 627 041d 1C       		.byte	0x1c
 628 041e 11       		.uleb128 0x11
 629 041f 5C020000 		.4byte	.LASF71
 630 0423 0A       		.byte	0xa
 631 0424 C3       		.byte	0xc3
 632 0425 4C060000 		.4byte	0x64c
 633 0429 20       		.byte	0x20
 634 042a 11       		.uleb128 0x11
 635 042b FF020000 		.4byte	.LASF72
 636 042f 0A       		.byte	0xa
 637 0430 C5       		.byte	0xc5
 638 0431 7B060000 		.4byte	0x67b
 639 0435 24       		.byte	0x24
 640 0436 11       		.uleb128 0x11
 641 0437 0A050000 		.4byte	.LASF73
 642 043b 0A       		.byte	0xa
 643 043c C8       		.byte	0xc8
 644 043d 9F060000 		.4byte	0x69f
 645 0441 28       		.byte	0x28
 646 0442 11       		.uleb128 0x11
 647 0443 00010000 		.4byte	.LASF74
 648 0447 0A       		.byte	0xa
ARM GAS  /tmp/ccHpyiyK.s 			page 13


 649 0448 C9       		.byte	0xc9
 650 0449 B9060000 		.4byte	0x6b9
 651 044d 2C       		.byte	0x2c
 652 044e 13       		.uleb128 0x13
 653 044f 5F756200 		.ascii	"_ub\000"
 654 0453 0A       		.byte	0xa
 655 0454 CC       		.byte	0xcc
 656 0455 8A030000 		.4byte	0x38a
 657 0459 30       		.byte	0x30
 658 045a 13       		.uleb128 0x13
 659 045b 5F757000 		.ascii	"_up\000"
 660 045f 0A       		.byte	0xa
 661 0460 CD       		.byte	0xcd
 662 0461 AF030000 		.4byte	0x3af
 663 0465 38       		.byte	0x38
 664 0466 13       		.uleb128 0x13
 665 0467 5F757200 		.ascii	"_ur\000"
 666 046b 0A       		.byte	0xa
 667 046c CE       		.byte	0xce
 668 046d 89000000 		.4byte	0x89
 669 0471 3C       		.byte	0x3c
 670 0472 11       		.uleb128 0x11
 671 0473 13010000 		.4byte	.LASF75
 672 0477 0A       		.byte	0xa
 673 0478 D1       		.byte	0xd1
 674 0479 BF060000 		.4byte	0x6bf
 675 047d 40       		.byte	0x40
 676 047e 11       		.uleb128 0x11
 677 047f 3F060000 		.4byte	.LASF76
 678 0483 0A       		.byte	0xa
 679 0484 D2       		.byte	0xd2
 680 0485 CF060000 		.4byte	0x6cf
 681 0489 43       		.byte	0x43
 682 048a 13       		.uleb128 0x13
 683 048b 5F6C6200 		.ascii	"_lb\000"
 684 048f 0A       		.byte	0xa
 685 0490 D5       		.byte	0xd5
 686 0491 8A030000 		.4byte	0x38a
 687 0495 44       		.byte	0x44
 688 0496 11       		.uleb128 0x11
 689 0497 3A050000 		.4byte	.LASF77
 690 049b 0A       		.byte	0xa
 691 049c D8       		.byte	0xd8
 692 049d 89000000 		.4byte	0x89
 693 04a1 4C       		.byte	0x4c
 694 04a2 11       		.uleb128 0x11
 695 04a3 F4010000 		.4byte	.LASF78
 696 04a7 0A       		.byte	0xa
 697 04a8 D9       		.byte	0xd9
 698 04a9 71010000 		.4byte	0x171
 699 04ad 50       		.byte	0x50
 700 04ae 11       		.uleb128 0x11
 701 04af AF020000 		.4byte	.LASF79
 702 04b3 0A       		.byte	0xa
 703 04b4 DC       		.byte	0xdc
 704 04b5 FD040000 		.4byte	0x4fd
 705 04b9 54       		.byte	0x54
ARM GAS  /tmp/ccHpyiyK.s 			page 14


 706 04ba 11       		.uleb128 0x11
 707 04bb F3020000 		.4byte	.LASF80
 708 04bf 0A       		.byte	0xa
 709 04c0 E0       		.byte	0xe0
 710 04c1 EE010000 		.4byte	0x1ee
 711 04c5 58       		.byte	0x58
 712 04c6 11       		.uleb128 0x11
 713 04c7 48000000 		.4byte	.LASF81
 714 04cb 0A       		.byte	0xa
 715 04cc E2       		.byte	0xe2
 716 04cd E3010000 		.4byte	0x1e3
 717 04d1 5C       		.byte	0x5c
 718 04d2 11       		.uleb128 0x11
 719 04d3 06040000 		.4byte	.LASF82
 720 04d7 0A       		.byte	0xa
 721 04d8 E3       		.byte	0xe3
 722 04d9 89000000 		.4byte	0x89
 723 04dd 64       		.byte	0x64
 724 04de 00       		.byte	0
 725 04df 16       		.uleb128 0x16
 726 04e0 89000000 		.4byte	0x89
 727 04e4 FD040000 		.4byte	0x4fd
 728 04e8 17       		.uleb128 0x17
 729 04e9 FD040000 		.4byte	0x4fd
 730 04ed 17       		.uleb128 0x17
 731 04ee 64010000 		.4byte	0x164
 732 04f2 17       		.uleb128 0x17
 733 04f3 3A060000 		.4byte	0x63a
 734 04f7 17       		.uleb128 0x17
 735 04f8 89000000 		.4byte	0x89
 736 04fc 00       		.byte	0
 737 04fd 09       		.uleb128 0x9
 738 04fe 04       		.byte	0x4
 739 04ff 08050000 		.4byte	0x508
 740 0503 18       		.uleb128 0x18
 741 0504 FD040000 		.4byte	0x4fd
 742 0508 19       		.uleb128 0x19
 743 0509 ED040000 		.4byte	.LASF83
 744 050d 2804     		.2byte	0x428
 745 050f 0A       		.byte	0xa
 746 0510 3802     		.2byte	0x238
 747 0512 3A060000 		.4byte	0x63a
 748 0516 1A       		.uleb128 0x1a
 749 0517 2E050000 		.4byte	.LASF84
 750 051b 0A       		.byte	0xa
 751 051c 3A02     		.2byte	0x23a
 752 051e 89000000 		.4byte	0x89
 753 0522 00       		.byte	0
 754 0523 1A       		.uleb128 0x1a
 755 0524 A6010000 		.4byte	.LASF85
 756 0528 0A       		.byte	0xa
 757 0529 3F02     		.2byte	0x23f
 758 052b 26070000 		.4byte	0x726
 759 052f 04       		.byte	0x4
 760 0530 1A       		.uleb128 0x1a
 761 0531 7E020000 		.4byte	.LASF86
 762 0535 0A       		.byte	0xa
ARM GAS  /tmp/ccHpyiyK.s 			page 15


 763 0536 3F02     		.2byte	0x23f
 764 0538 26070000 		.4byte	0x726
 765 053c 08       		.byte	0x8
 766 053d 1A       		.uleb128 0x1a
 767 053e 4C020000 		.4byte	.LASF87
 768 0542 0A       		.byte	0xa
 769 0543 3F02     		.2byte	0x23f
 770 0545 26070000 		.4byte	0x726
 771 0549 0C       		.byte	0xc
 772 054a 1A       		.uleb128 0x1a
 773 054b B5040000 		.4byte	.LASF88
 774 054f 0A       		.byte	0xa
 775 0550 4102     		.2byte	0x241
 776 0552 89000000 		.4byte	0x89
 777 0556 10       		.byte	0x10
 778 0557 1A       		.uleb128 0x1a
 779 0558 3D000000 		.4byte	.LASF89
 780 055c 0A       		.byte	0xa
 781 055d 4202     		.2byte	0x242
 782 055f 08090000 		.4byte	0x908
 783 0563 14       		.byte	0x14
 784 0564 1A       		.uleb128 0x1a
 785 0565 CE050000 		.4byte	.LASF90
 786 0569 0A       		.byte	0xa
 787 056a 4402     		.2byte	0x244
 788 056c 89000000 		.4byte	0x89
 789 0570 30       		.byte	0x30
 790 0571 1A       		.uleb128 0x1a
 791 0572 BF040000 		.4byte	.LASF91
 792 0576 0A       		.byte	0xa
 793 0577 4502     		.2byte	0x245
 794 0579 70060000 		.4byte	0x670
 795 057d 34       		.byte	0x34
 796 057e 1A       		.uleb128 0x1a
 797 057f 66030000 		.4byte	.LASF92
 798 0583 0A       		.byte	0xa
 799 0584 4702     		.2byte	0x247
 800 0586 89000000 		.4byte	0x89
 801 058a 38       		.byte	0x38
 802 058b 1A       		.uleb128 0x1a
 803 058c DB040000 		.4byte	.LASF93
 804 0590 0A       		.byte	0xa
 805 0591 4902     		.2byte	0x249
 806 0593 23090000 		.4byte	0x923
 807 0597 3C       		.byte	0x3c
 808 0598 1A       		.uleb128 0x1a
 809 0599 E0020000 		.4byte	.LASF94
 810 059d 0A       		.byte	0xa
 811 059e 4C02     		.2byte	0x24c
 812 05a0 57020000 		.4byte	0x257
 813 05a4 40       		.byte	0x40
 814 05a5 1A       		.uleb128 0x1a
 815 05a6 BB010000 		.4byte	.LASF95
 816 05aa 0A       		.byte	0xa
 817 05ab 4D02     		.2byte	0x24d
 818 05ad 89000000 		.4byte	0x89
 819 05b1 44       		.byte	0x44
ARM GAS  /tmp/ccHpyiyK.s 			page 16


 820 05b2 1A       		.uleb128 0x1a
 821 05b3 8C060000 		.4byte	.LASF96
 822 05b7 0A       		.byte	0xa
 823 05b8 4E02     		.2byte	0x24e
 824 05ba 57020000 		.4byte	0x257
 825 05be 48       		.byte	0x48
 826 05bf 1A       		.uleb128 0x1a
 827 05c0 8D030000 		.4byte	.LASF97
 828 05c4 0A       		.byte	0xa
 829 05c5 4F02     		.2byte	0x24f
 830 05c7 29090000 		.4byte	0x929
 831 05cb 4C       		.byte	0x4c
 832 05cc 1A       		.uleb128 0x1a
 833 05cd 86020000 		.4byte	.LASF98
 834 05d1 0A       		.byte	0xa
 835 05d2 5202     		.2byte	0x252
 836 05d4 89000000 		.4byte	0x89
 837 05d8 50       		.byte	0x50
 838 05d9 1A       		.uleb128 0x1a
 839 05da EC010000 		.4byte	.LASF99
 840 05de 0A       		.byte	0xa
 841 05df 5302     		.2byte	0x253
 842 05e1 3A060000 		.4byte	0x63a
 843 05e5 54       		.byte	0x54
 844 05e6 1A       		.uleb128 0x1a
 845 05e7 EE020000 		.4byte	.LASF100
 846 05eb 0A       		.byte	0xa
 847 05ec 7602     		.2byte	0x276
 848 05ee E6080000 		.4byte	0x8e6
 849 05f2 58       		.byte	0x58
 850 05f3 1B       		.uleb128 0x1b
 851 05f4 54030000 		.4byte	.LASF60
 852 05f8 0A       		.byte	0xa
 853 05f9 7A02     		.2byte	0x27a
 854 05fb 74030000 		.4byte	0x374
 855 05ff 4801     		.2byte	0x148
 856 0601 1B       		.uleb128 0x1b
 857 0602 51000000 		.4byte	.LASF101
 858 0606 0A       		.byte	0xa
 859 0607 7B02     		.2byte	0x27b
 860 0609 36030000 		.4byte	0x336
 861 060d 4C01     		.2byte	0x14c
 862 060f 1B       		.uleb128 0x1b
 863 0610 2B060000 		.4byte	.LASF102
 864 0614 0A       		.byte	0xa
 865 0615 7F02     		.2byte	0x27f
 866 0617 3A090000 		.4byte	0x93a
 867 061b DC02     		.2byte	0x2dc
 868 061d 1B       		.uleb128 0x1b
 869 061e 5B010000 		.4byte	.LASF103
 870 0622 0A       		.byte	0xa
 871 0623 8402     		.2byte	0x284
 872 0625 EB060000 		.4byte	0x6eb
 873 0629 E002     		.2byte	0x2e0
 874 062b 1B       		.uleb128 0x1b
 875 062c 33010000 		.4byte	.LASF104
 876 0630 0A       		.byte	0xa
ARM GAS  /tmp/ccHpyiyK.s 			page 17


 877 0631 8502     		.2byte	0x285
 878 0633 46090000 		.4byte	0x946
 879 0637 EC02     		.2byte	0x2ec
 880 0639 00       		.byte	0
 881 063a 09       		.uleb128 0x9
 882 063b 04       		.byte	0x4
 883 063c 40060000 		.4byte	0x640
 884 0640 02       		.uleb128 0x2
 885 0641 01       		.byte	0x1
 886 0642 08       		.byte	0x8
 887 0643 35050000 		.4byte	.LASF105
 888 0647 18       		.uleb128 0x18
 889 0648 40060000 		.4byte	0x640
 890 064c 09       		.uleb128 0x9
 891 064d 04       		.byte	0x4
 892 064e DF040000 		.4byte	0x4df
 893 0652 16       		.uleb128 0x16
 894 0653 89000000 		.4byte	0x89
 895 0657 70060000 		.4byte	0x670
 896 065b 17       		.uleb128 0x17
 897 065c FD040000 		.4byte	0x4fd
 898 0660 17       		.uleb128 0x17
 899 0661 64010000 		.4byte	0x164
 900 0665 17       		.uleb128 0x17
 901 0666 70060000 		.4byte	0x670
 902 066a 17       		.uleb128 0x17
 903 066b 89000000 		.4byte	0x89
 904 066f 00       		.byte	0
 905 0670 09       		.uleb128 0x9
 906 0671 04       		.byte	0x4
 907 0672 47060000 		.4byte	0x647
 908 0676 18       		.uleb128 0x18
 909 0677 70060000 		.4byte	0x670
 910 067b 09       		.uleb128 0x9
 911 067c 04       		.byte	0x4
 912 067d 52060000 		.4byte	0x652
 913 0681 16       		.uleb128 0x16
 914 0682 7C010000 		.4byte	0x17c
 915 0686 9F060000 		.4byte	0x69f
 916 068a 17       		.uleb128 0x17
 917 068b FD040000 		.4byte	0x4fd
 918 068f 17       		.uleb128 0x17
 919 0690 64010000 		.4byte	0x164
 920 0694 17       		.uleb128 0x17
 921 0695 7C010000 		.4byte	0x17c
 922 0699 17       		.uleb128 0x17
 923 069a 89000000 		.4byte	0x89
 924 069e 00       		.byte	0
 925 069f 09       		.uleb128 0x9
 926 06a0 04       		.byte	0x4
 927 06a1 81060000 		.4byte	0x681
 928 06a5 16       		.uleb128 0x16
 929 06a6 89000000 		.4byte	0x89
 930 06aa B9060000 		.4byte	0x6b9
 931 06ae 17       		.uleb128 0x17
 932 06af FD040000 		.4byte	0x4fd
 933 06b3 17       		.uleb128 0x17
ARM GAS  /tmp/ccHpyiyK.s 			page 18


 934 06b4 64010000 		.4byte	0x164
 935 06b8 00       		.byte	0
 936 06b9 09       		.uleb128 0x9
 937 06ba 04       		.byte	0x4
 938 06bb A5060000 		.4byte	0x6a5
 939 06bf 0A       		.uleb128 0xa
 940 06c0 2C000000 		.4byte	0x2c
 941 06c4 CF060000 		.4byte	0x6cf
 942 06c8 0B       		.uleb128 0xb
 943 06c9 C8000000 		.4byte	0xc8
 944 06cd 02       		.byte	0x2
 945 06ce 00       		.byte	0
 946 06cf 0A       		.uleb128 0xa
 947 06d0 2C000000 		.4byte	0x2c
 948 06d4 DF060000 		.4byte	0x6df
 949 06d8 0B       		.uleb128 0xb
 950 06d9 C8000000 		.4byte	0xc8
 951 06dd 00       		.byte	0
 952 06de 00       		.byte	0
 953 06df 0D       		.uleb128 0xd
 954 06e0 0E040000 		.4byte	.LASF106
 955 06e4 0A       		.byte	0xa
 956 06e5 1D01     		.2byte	0x11d
 957 06e7 B5030000 		.4byte	0x3b5
 958 06eb 1C       		.uleb128 0x1c
 959 06ec 0B060000 		.4byte	.LASF107
 960 06f0 0C       		.byte	0xc
 961 06f1 0A       		.byte	0xa
 962 06f2 2101     		.2byte	0x121
 963 06f4 20070000 		.4byte	0x720
 964 06f8 1A       		.uleb128 0x1a
 965 06f9 6B050000 		.4byte	.LASF40
 966 06fd 0A       		.byte	0xa
 967 06fe 2301     		.2byte	0x123
 968 0700 20070000 		.4byte	0x720
 969 0704 00       		.byte	0
 970 0705 1A       		.uleb128 0x1a
 971 0706 B5020000 		.4byte	.LASF108
 972 070a 0A       		.byte	0xa
 973 070b 2401     		.2byte	0x124
 974 070d 89000000 		.4byte	0x89
 975 0711 04       		.byte	0x4
 976 0712 1A       		.uleb128 0x1a
 977 0713 DD030000 		.4byte	.LASF109
 978 0717 0A       		.byte	0xa
 979 0718 2501     		.2byte	0x125
 980 071a 26070000 		.4byte	0x726
 981 071e 08       		.byte	0x8
 982 071f 00       		.byte	0
 983 0720 09       		.uleb128 0x9
 984 0721 04       		.byte	0x4
 985 0722 EB060000 		.4byte	0x6eb
 986 0726 09       		.uleb128 0x9
 987 0727 04       		.byte	0x4
 988 0728 DF060000 		.4byte	0x6df
 989 072c 1C       		.uleb128 0x1c
 990 072d 26000000 		.4byte	.LASF110
ARM GAS  /tmp/ccHpyiyK.s 			page 19


 991 0731 0E       		.byte	0xe
 992 0732 0A       		.byte	0xa
 993 0733 3D01     		.2byte	0x13d
 994 0735 61070000 		.4byte	0x761
 995 0739 1A       		.uleb128 0x1a
 996 073a F4040000 		.4byte	.LASF111
 997 073e 0A       		.byte	0xa
 998 073f 3E01     		.2byte	0x13e
 999 0741 61070000 		.4byte	0x761
 1000 0745 00       		.byte	0
 1001 0746 1A       		.uleb128 0x1a
 1002 0747 F9020000 		.4byte	.LASF112
 1003 074b 0A       		.byte	0xa
 1004 074c 3F01     		.2byte	0x13f
 1005 074e 61070000 		.4byte	0x761
 1006 0752 06       		.byte	0x6
 1007 0753 1A       		.uleb128 0x1a
 1008 0754 9A050000 		.4byte	.LASF113
 1009 0758 0A       		.byte	0xa
 1010 0759 4001     		.2byte	0x140
 1011 075b 50000000 		.4byte	0x50
 1012 075f 0C       		.byte	0xc
 1013 0760 00       		.byte	0
 1014 0761 0A       		.uleb128 0xa
 1015 0762 50000000 		.4byte	0x50
 1016 0766 71070000 		.4byte	0x771
 1017 076a 0B       		.uleb128 0xb
 1018 076b C8000000 		.4byte	0xc8
 1019 076f 02       		.byte	0x2
 1020 0770 00       		.byte	0
 1021 0771 1D       		.uleb128 0x1d
 1022 0772 D0       		.byte	0xd0
 1023 0773 0A       		.byte	0xa
 1024 0774 5702     		.2byte	0x257
 1025 0776 72080000 		.4byte	0x872
 1026 077a 1A       		.uleb128 0x1a
 1027 077b F9050000 		.4byte	.LASF114
 1028 077f 0A       		.byte	0xa
 1029 0780 5902     		.2byte	0x259
 1030 0782 90000000 		.4byte	0x90
 1031 0786 00       		.byte	0
 1032 0787 1A       		.uleb128 0x1a
 1033 0788 71050000 		.4byte	.LASF115
 1034 078c 0A       		.byte	0xa
 1035 078d 5A02     		.2byte	0x25a
 1036 078f 3A060000 		.4byte	0x63a
 1037 0793 04       		.byte	0x4
 1038 0794 1A       		.uleb128 0x1a
 1039 0795 D3020000 		.4byte	.LASF116
 1040 0799 0A       		.byte	0xa
 1041 079a 5B02     		.2byte	0x25b
 1042 079c 72080000 		.4byte	0x872
 1043 07a0 08       		.byte	0x8
 1044 07a1 1A       		.uleb128 0x1a
 1045 07a2 58060000 		.4byte	.LASF117
 1046 07a6 0A       		.byte	0xa
 1047 07a7 5C02     		.2byte	0x25c
ARM GAS  /tmp/ccHpyiyK.s 			page 20


 1048 07a9 6D020000 		.4byte	0x26d
 1049 07ad 24       		.byte	0x24
 1050 07ae 1A       		.uleb128 0x1a
 1051 07af 71030000 		.4byte	.LASF118
 1052 07b3 0A       		.byte	0xa
 1053 07b4 5D02     		.2byte	0x25d
 1054 07b6 89000000 		.4byte	0x89
 1055 07ba 48       		.byte	0x48
 1056 07bb 1A       		.uleb128 0x1a
 1057 07bc BC020000 		.4byte	.LASF119
 1058 07c0 0A       		.byte	0xa
 1059 07c1 5E02     		.2byte	0x25e
 1060 07c3 82000000 		.4byte	0x82
 1061 07c7 50       		.byte	0x50
 1062 07c8 1A       		.uleb128 0x1a
 1063 07c9 70060000 		.4byte	.LASF120
 1064 07cd 0A       		.byte	0xa
 1065 07ce 5F02     		.2byte	0x25f
 1066 07d0 2C070000 		.4byte	0x72c
 1067 07d4 58       		.byte	0x58
 1068 07d5 1A       		.uleb128 0x1a
 1069 07d6 A8040000 		.4byte	.LASF121
 1070 07da 0A       		.byte	0xa
 1071 07db 6002     		.2byte	0x260
 1072 07dd E3010000 		.4byte	0x1e3
 1073 07e1 68       		.byte	0x68
 1074 07e2 1A       		.uleb128 0x1a
 1075 07e3 7E060000 		.4byte	.LASF122
 1076 07e7 0A       		.byte	0xa
 1077 07e8 6102     		.2byte	0x261
 1078 07ea E3010000 		.4byte	0x1e3
 1079 07ee 70       		.byte	0x70
 1080 07ef 1A       		.uleb128 0x1a
 1081 07f0 DA000000 		.4byte	.LASF123
 1082 07f4 0A       		.byte	0xa
 1083 07f5 6202     		.2byte	0x262
 1084 07f7 E3010000 		.4byte	0x1e3
 1085 07fb 78       		.byte	0x78
 1086 07fc 1A       		.uleb128 0x1a
 1087 07fd 21060000 		.4byte	.LASF124
 1088 0801 0A       		.byte	0xa
 1089 0802 6302     		.2byte	0x263
 1090 0804 82080000 		.4byte	0x882
 1091 0808 80       		.byte	0x80
 1092 0809 1A       		.uleb128 0x1a
 1093 080a C7020000 		.4byte	.LASF125
 1094 080e 0A       		.byte	0xa
 1095 080f 6402     		.2byte	0x264
 1096 0811 92080000 		.4byte	0x892
 1097 0815 88       		.byte	0x88
 1098 0816 1A       		.uleb128 0x1a
 1099 0817 A7050000 		.4byte	.LASF126
 1100 081b 0A       		.byte	0xa
 1101 081c 6502     		.2byte	0x265
 1102 081e 89000000 		.4byte	0x89
 1103 0822 A0       		.byte	0xa0
 1104 0823 1A       		.uleb128 0x1a
ARM GAS  /tmp/ccHpyiyK.s 			page 21


 1105 0824 1C020000 		.4byte	.LASF127
 1106 0828 0A       		.byte	0xa
 1107 0829 6602     		.2byte	0x266
 1108 082b E3010000 		.4byte	0x1e3
 1109 082f A4       		.byte	0xa4
 1110 0830 1A       		.uleb128 0x1a
 1111 0831 CB000000 		.4byte	.LASF128
 1112 0835 0A       		.byte	0xa
 1113 0836 6702     		.2byte	0x267
 1114 0838 E3010000 		.4byte	0x1e3
 1115 083c AC       		.byte	0xac
 1116 083d 1A       		.uleb128 0x1a
 1117 083e FC010000 		.4byte	.LASF129
 1118 0842 0A       		.byte	0xa
 1119 0843 6802     		.2byte	0x268
 1120 0845 E3010000 		.4byte	0x1e3
 1121 0849 B4       		.byte	0xb4
 1122 084a 1A       		.uleb128 0x1a
 1123 084b 5A000000 		.4byte	.LASF130
 1124 084f 0A       		.byte	0xa
 1125 0850 6902     		.2byte	0x269
 1126 0852 E3010000 		.4byte	0x1e3
 1127 0856 BC       		.byte	0xbc
 1128 0857 1A       		.uleb128 0x1a
 1129 0858 69000000 		.4byte	.LASF131
 1130 085c 0A       		.byte	0xa
 1131 085d 6A02     		.2byte	0x26a
 1132 085f E3010000 		.4byte	0x1e3
 1133 0863 C4       		.byte	0xc4
 1134 0864 1A       		.uleb128 0x1a
 1135 0865 E3030000 		.4byte	.LASF132
 1136 0869 0A       		.byte	0xa
 1137 086a 6B02     		.2byte	0x26b
 1138 086c 89000000 		.4byte	0x89
 1139 0870 CC       		.byte	0xcc
 1140 0871 00       		.byte	0
 1141 0872 0A       		.uleb128 0xa
 1142 0873 40060000 		.4byte	0x640
 1143 0877 82080000 		.4byte	0x882
 1144 087b 0B       		.uleb128 0xb
 1145 087c C8000000 		.4byte	0xc8
 1146 0880 19       		.byte	0x19
 1147 0881 00       		.byte	0
 1148 0882 0A       		.uleb128 0xa
 1149 0883 40060000 		.4byte	0x640
 1150 0887 92080000 		.4byte	0x892
 1151 088b 0B       		.uleb128 0xb
 1152 088c C8000000 		.4byte	0xc8
 1153 0890 07       		.byte	0x7
 1154 0891 00       		.byte	0
 1155 0892 0A       		.uleb128 0xa
 1156 0893 40060000 		.4byte	0x640
 1157 0897 A2080000 		.4byte	0x8a2
 1158 089b 0B       		.uleb128 0xb
 1159 089c C8000000 		.4byte	0xc8
 1160 08a0 17       		.byte	0x17
 1161 08a1 00       		.byte	0
ARM GAS  /tmp/ccHpyiyK.s 			page 22


 1162 08a2 1D       		.uleb128 0x1d
 1163 08a3 F0       		.byte	0xf0
 1164 08a4 0A       		.byte	0xa
 1165 08a5 7002     		.2byte	0x270
 1166 08a7 C6080000 		.4byte	0x8c6
 1167 08ab 1A       		.uleb128 0x1a
 1168 08ac 34030000 		.4byte	.LASF133
 1169 08b0 0A       		.byte	0xa
 1170 08b1 7302     		.2byte	0x273
 1171 08b3 C6080000 		.4byte	0x8c6
 1172 08b7 00       		.byte	0
 1173 08b8 1A       		.uleb128 0x1a
 1174 08b9 18060000 		.4byte	.LASF134
 1175 08bd 0A       		.byte	0xa
 1176 08be 7402     		.2byte	0x274
 1177 08c0 D6080000 		.4byte	0x8d6
 1178 08c4 78       		.byte	0x78
 1179 08c5 00       		.byte	0
 1180 08c6 0A       		.uleb128 0xa
 1181 08c7 AF030000 		.4byte	0x3af
 1182 08cb D6080000 		.4byte	0x8d6
 1183 08cf 0B       		.uleb128 0xb
 1184 08d0 C8000000 		.4byte	0xc8
 1185 08d4 1D       		.byte	0x1d
 1186 08d5 00       		.byte	0
 1187 08d6 0A       		.uleb128 0xa
 1188 08d7 90000000 		.4byte	0x90
 1189 08db E6080000 		.4byte	0x8e6
 1190 08df 0B       		.uleb128 0xb
 1191 08e0 C8000000 		.4byte	0xc8
 1192 08e4 1D       		.byte	0x1d
 1193 08e5 00       		.byte	0
 1194 08e6 1E       		.uleb128 0x1e
 1195 08e7 F0       		.byte	0xf0
 1196 08e8 0A       		.byte	0xa
 1197 08e9 5502     		.2byte	0x255
 1198 08eb 08090000 		.4byte	0x908
 1199 08ef 1F       		.uleb128 0x1f
 1200 08f0 ED040000 		.4byte	.LASF83
 1201 08f4 0A       		.byte	0xa
 1202 08f5 6C02     		.2byte	0x26c
 1203 08f7 71070000 		.4byte	0x771
 1204 08fb 1F       		.uleb128 0x1f
 1205 08fc 45060000 		.4byte	.LASF135
 1206 0900 0A       		.byte	0xa
 1207 0901 7502     		.2byte	0x275
 1208 0903 A2080000 		.4byte	0x8a2
 1209 0907 00       		.byte	0
 1210 0908 0A       		.uleb128 0xa
 1211 0909 40060000 		.4byte	0x640
 1212 090d 18090000 		.4byte	0x918
 1213 0911 0B       		.uleb128 0xb
 1214 0912 C8000000 		.4byte	0xc8
 1215 0916 18       		.byte	0x18
 1216 0917 00       		.byte	0
 1217 0918 20       		.uleb128 0x20
 1218 0919 23090000 		.4byte	0x923
ARM GAS  /tmp/ccHpyiyK.s 			page 23


 1219 091d 17       		.uleb128 0x17
 1220 091e FD040000 		.4byte	0x4fd
 1221 0922 00       		.byte	0
 1222 0923 09       		.uleb128 0x9
 1223 0924 04       		.byte	0x4
 1224 0925 18090000 		.4byte	0x918
 1225 0929 09       		.uleb128 0x9
 1226 092a 04       		.byte	0x4
 1227 092b 57020000 		.4byte	0x257
 1228 092f 20       		.uleb128 0x20
 1229 0930 3A090000 		.4byte	0x93a
 1230 0934 17       		.uleb128 0x17
 1231 0935 89000000 		.4byte	0x89
 1232 0939 00       		.byte	0
 1233 093a 09       		.uleb128 0x9
 1234 093b 04       		.byte	0x4
 1235 093c 40090000 		.4byte	0x940
 1236 0940 09       		.uleb128 0x9
 1237 0941 04       		.byte	0x4
 1238 0942 2F090000 		.4byte	0x92f
 1239 0946 0A       		.uleb128 0xa
 1240 0947 DF060000 		.4byte	0x6df
 1241 094b 56090000 		.4byte	0x956
 1242 094f 0B       		.uleb128 0xb
 1243 0950 C8000000 		.4byte	0xc8
 1244 0954 02       		.byte	0x2
 1245 0955 00       		.byte	0
 1246 0956 06       		.uleb128 0x6
 1247 0957 40020000 		.4byte	.LASF136
 1248 095b 0A       		.byte	0xa
 1249 095c FD02     		.2byte	0x2fd
 1250 095e FD040000 		.4byte	0x4fd
 1251 0962 06       		.uleb128 0x6
 1252 0963 BB050000 		.4byte	.LASF137
 1253 0967 0A       		.byte	0xa
 1254 0968 FE02     		.2byte	0x2fe
 1255 096a 03050000 		.4byte	0x503
 1256 096e 07       		.uleb128 0x7
 1257 096f 5C030000 		.4byte	.LASF138
 1258 0973 0B       		.byte	0xb
 1259 0974 5F       		.byte	0x5f
 1260 0975 3A060000 		.4byte	0x63a
 1261 0979 02       		.uleb128 0x2
 1262 097a 08       		.byte	0x8
 1263 097b 04       		.byte	0x4
 1264 097c E5010000 		.4byte	.LASF139
 1265 0980 02       		.uleb128 0x2
 1266 0981 08       		.byte	0x8
 1267 0982 04       		.byte	0x4
 1268 0983 22050000 		.4byte	.LASF140
 1269 0987 21       		.uleb128 0x21
 1270 0988 10030000 		.4byte	.LASF159
 1271 098c 01       		.byte	0x1
 1272 098d 25000000 		.4byte	0x25
 1273 0991 0C       		.byte	0xc
 1274 0992 9902     		.2byte	0x299
 1275 0994 B1090000 		.4byte	0x9b1
ARM GAS  /tmp/ccHpyiyK.s 			page 24


 1276 0998 22       		.uleb128 0x22
 1277 0999 E0050000 		.4byte	.LASF141
 1278 099d 7F       		.sleb128 -1
 1279 099e 23       		.uleb128 0x23
 1280 099f AD010000 		.4byte	.LASF142
 1281 09a3 00       		.byte	0
 1282 09a4 23       		.uleb128 0x23
 1283 09a5 2E000000 		.4byte	.LASF143
 1284 09a9 01       		.byte	0x1
 1285 09aa 23       		.uleb128 0x23
 1286 09ab 91000000 		.4byte	.LASF144
 1287 09af 02       		.byte	0x2
 1288 09b0 00       		.byte	0
 1289 09b1 06       		.uleb128 0x6
 1290 09b2 B6000000 		.4byte	.LASF145
 1291 09b6 0C       		.byte	0xc
 1292 09b7 A402     		.2byte	0x2a4
 1293 09b9 87090000 		.4byte	0x987
 1294 09bd 0A       		.uleb128 0xa
 1295 09be 76060000 		.4byte	0x676
 1296 09c2 C8090000 		.4byte	0x9c8
 1297 09c6 24       		.uleb128 0x24
 1298 09c7 00       		.byte	0
 1299 09c8 18       		.uleb128 0x18
 1300 09c9 BD090000 		.4byte	0x9bd
 1301 09cd 07       		.uleb128 0x7
 1302 09ce 11000000 		.4byte	.LASF146
 1303 09d2 0D       		.byte	0xd
 1304 09d3 14       		.byte	0x14
 1305 09d4 C8090000 		.4byte	0x9c8
 1306 09d8 07       		.uleb128 0x7
 1307 09d9 28040000 		.4byte	.LASF147
 1308 09dd 0D       		.byte	0xd
 1309 09de 15       		.byte	0x15
 1310 09df 89000000 		.4byte	0x89
 1311 09e3 25       		.uleb128 0x25
 1312 09e4 91060000 		.4byte	.LASF160
 1313 09e8 01       		.byte	0x1
 1314 09e9 0B       		.byte	0xb
 1315 09ea 89000000 		.4byte	0x89
 1316 09ee 00000000 		.4byte	.LFB64
 1317 09f2 58000000 		.4byte	.LFE64-.LFB64
 1318 09f6 01       		.uleb128 0x1
 1319 09f7 9C       		.byte	0x9c
 1320 09f8 890A0000 		.4byte	0xa89
 1321 09fc 26       		.uleb128 0x26
 1322 09fd 06000000 		.4byte	.LVL0
 1323 0a01 890A0000 		.4byte	0xa89
 1324 0a05 26       		.uleb128 0x26
 1325 0a06 0A000000 		.4byte	.LVL1
 1326 0a0a 940A0000 		.4byte	0xa94
 1327 0a0e 26       		.uleb128 0x26
 1328 0a0f 0E000000 		.4byte	.LVL2
 1329 0a13 9F0A0000 		.4byte	0xa9f
 1330 0a17 26       		.uleb128 0x26
 1331 0a18 12000000 		.4byte	.LVL3
 1332 0a1c AB0A0000 		.4byte	0xaab
ARM GAS  /tmp/ccHpyiyK.s 			page 25


 1333 0a20 26       		.uleb128 0x26
 1334 0a21 1C000000 		.4byte	.LVL4
 1335 0a25 B70A0000 		.4byte	0xab7
 1336 0a29 27       		.uleb128 0x27
 1337 0a2a 24000000 		.4byte	.LVL5
 1338 0a2e C20A0000 		.4byte	0xac2
 1339 0a32 3D0A0000 		.4byte	0xa3d
 1340 0a36 28       		.uleb128 0x28
 1341 0a37 01       		.uleb128 0x1
 1342 0a38 50       		.byte	0x50
 1343 0a39 02       		.uleb128 0x2
 1344 0a3a 76       		.byte	0x76
 1345 0a3b 00       		.sleb128 0
 1346 0a3c 00       		.byte	0
 1347 0a3d 26       		.uleb128 0x26
 1348 0a3e 28000000 		.4byte	.LVL6
 1349 0a42 CD0A0000 		.4byte	0xacd
 1350 0a46 27       		.uleb128 0x27
 1351 0a47 30000000 		.4byte	.LVL7
 1352 0a4b C20A0000 		.4byte	0xac2
 1353 0a4f 600A0000 		.4byte	0xa60
 1354 0a53 28       		.uleb128 0x28
 1355 0a54 01       		.uleb128 0x1
 1356 0a55 50       		.byte	0x50
 1357 0a56 02       		.uleb128 0x2
 1358 0a57 74       		.byte	0x74
 1359 0a58 00       		.sleb128 0
 1360 0a59 28       		.uleb128 0x28
 1361 0a5a 01       		.uleb128 0x1
 1362 0a5b 51       		.byte	0x51
 1363 0a5c 02       		.uleb128 0x2
 1364 0a5d 75       		.byte	0x75
 1365 0a5e 00       		.sleb128 0
 1366 0a5f 00       		.byte	0
 1367 0a60 27       		.uleb128 0x27
 1368 0a61 3A000000 		.4byte	.LVL8
 1369 0a65 C20A0000 		.4byte	0xac2
 1370 0a69 770A0000 		.4byte	0xa77
 1371 0a6d 28       		.uleb128 0x28
 1372 0a6e 01       		.uleb128 0x1
 1373 0a6f 50       		.byte	0x50
 1374 0a70 05       		.uleb128 0x5
 1375 0a71 03       		.byte	0x3
 1376 0a72 28000000 		.4byte	.LC3
 1377 0a76 00       		.byte	0
 1378 0a77 29       		.uleb128 0x29
 1379 0a78 42000000 		.4byte	.LVL9
 1380 0a7c D90A0000 		.4byte	0xad9
 1381 0a80 28       		.uleb128 0x28
 1382 0a81 01       		.uleb128 0x1
 1383 0a82 50       		.byte	0x50
 1384 0a83 03       		.uleb128 0x3
 1385 0a84 0A       		.byte	0xa
 1386 0a85 1027     		.2byte	0x2710
 1387 0a87 00       		.byte	0
 1388 0a88 00       		.byte	0
 1389 0a89 2A       		.uleb128 0x2a
ARM GAS  /tmp/ccHpyiyK.s 			page 26


 1390 0a8a BC030000 		.4byte	.LASF148
 1391 0a8e BC030000 		.4byte	.LASF148
 1392 0a92 05       		.byte	0x5
 1393 0a93 4F       		.byte	0x4f
 1394 0a94 2A       		.uleb128 0x2a
 1395 0a95 DC010000 		.4byte	.LASF149
 1396 0a99 DC010000 		.4byte	.LASF149
 1397 0a9d 0E       		.byte	0xe
 1398 0a9e 0C       		.byte	0xc
 1399 0a9f 2B       		.uleb128 0x2b
 1400 0aa0 9D030000 		.4byte	.LASF150
 1401 0aa4 9D030000 		.4byte	.LASF150
 1402 0aa8 06       		.byte	0x6
 1403 0aa9 6A01     		.2byte	0x16a
 1404 0aab 2B       		.uleb128 0x2b
 1405 0aac 75060000 		.4byte	.LASF151
 1406 0ab0 75060000 		.4byte	.LASF151
 1407 0ab4 06       		.byte	0x6
 1408 0ab5 7201     		.2byte	0x172
 1409 0ab7 2A       		.uleb128 0x2a
 1410 0ab8 EE050000 		.4byte	.LASF152
 1411 0abc EE050000 		.4byte	.LASF152
 1412 0ac0 0E       		.byte	0xe
 1413 0ac1 06       		.byte	0x6
 1414 0ac2 2A       		.uleb128 0x2a
 1415 0ac3 00000000 		.4byte	.LASF153
 1416 0ac7 00000000 		.4byte	.LASF153
 1417 0acb 0F       		.byte	0xf
 1418 0acc BB       		.byte	0xbb
 1419 0acd 2B       		.uleb128 0x2b
 1420 0ace A6020000 		.4byte	.LASF154
 1421 0ad2 A6020000 		.4byte	.LASF154
 1422 0ad6 06       		.byte	0x6
 1423 0ad7 7301     		.2byte	0x173
 1424 0ad9 2A       		.uleb128 0x2a
 1425 0ada A0040000 		.4byte	.LASF155
 1426 0ade A0040000 		.4byte	.LASF155
 1427 0ae2 0E       		.byte	0xe
 1428 0ae3 0B       		.byte	0xb
 1429 0ae4 00       		.byte	0
 1430              		.section	.debug_abbrev,"",%progbits
 1431              	.Ldebug_abbrev0:
 1432 0000 01       		.uleb128 0x1
 1433 0001 11       		.uleb128 0x11
 1434 0002 01       		.byte	0x1
 1435 0003 25       		.uleb128 0x25
 1436 0004 0E       		.uleb128 0xe
 1437 0005 13       		.uleb128 0x13
 1438 0006 0B       		.uleb128 0xb
 1439 0007 03       		.uleb128 0x3
 1440 0008 0E       		.uleb128 0xe
 1441 0009 1B       		.uleb128 0x1b
 1442 000a 0E       		.uleb128 0xe
 1443 000b 11       		.uleb128 0x11
 1444 000c 01       		.uleb128 0x1
 1445 000d 12       		.uleb128 0x12
 1446 000e 06       		.uleb128 0x6
ARM GAS  /tmp/ccHpyiyK.s 			page 27


 1447 000f 10       		.uleb128 0x10
 1448 0010 17       		.uleb128 0x17
 1449 0011 00       		.byte	0
 1450 0012 00       		.byte	0
 1451 0013 02       		.uleb128 0x2
 1452 0014 24       		.uleb128 0x24
 1453 0015 00       		.byte	0
 1454 0016 0B       		.uleb128 0xb
 1455 0017 0B       		.uleb128 0xb
 1456 0018 3E       		.uleb128 0x3e
 1457 0019 0B       		.uleb128 0xb
 1458 001a 03       		.uleb128 0x3
 1459 001b 0E       		.uleb128 0xe
 1460 001c 00       		.byte	0
 1461 001d 00       		.byte	0
 1462 001e 03       		.uleb128 0x3
 1463 001f 16       		.uleb128 0x16
 1464 0020 00       		.byte	0
 1465 0021 03       		.uleb128 0x3
 1466 0022 0E       		.uleb128 0xe
 1467 0023 3A       		.uleb128 0x3a
 1468 0024 0B       		.uleb128 0xb
 1469 0025 3B       		.uleb128 0x3b
 1470 0026 0B       		.uleb128 0xb
 1471 0027 49       		.uleb128 0x49
 1472 0028 13       		.uleb128 0x13
 1473 0029 00       		.byte	0
 1474 002a 00       		.byte	0
 1475 002b 04       		.uleb128 0x4
 1476 002c 24       		.uleb128 0x24
 1477 002d 00       		.byte	0
 1478 002e 0B       		.uleb128 0xb
 1479 002f 0B       		.uleb128 0xb
 1480 0030 3E       		.uleb128 0x3e
 1481 0031 0B       		.uleb128 0xb
 1482 0032 03       		.uleb128 0x3
 1483 0033 08       		.uleb128 0x8
 1484 0034 00       		.byte	0
 1485 0035 00       		.byte	0
 1486 0036 05       		.uleb128 0x5
 1487 0037 35       		.uleb128 0x35
 1488 0038 00       		.byte	0
 1489 0039 49       		.uleb128 0x49
 1490 003a 13       		.uleb128 0x13
 1491 003b 00       		.byte	0
 1492 003c 00       		.byte	0
 1493 003d 06       		.uleb128 0x6
 1494 003e 34       		.uleb128 0x34
 1495 003f 00       		.byte	0
 1496 0040 03       		.uleb128 0x3
 1497 0041 0E       		.uleb128 0xe
 1498 0042 3A       		.uleb128 0x3a
 1499 0043 0B       		.uleb128 0xb
 1500 0044 3B       		.uleb128 0x3b
 1501 0045 05       		.uleb128 0x5
 1502 0046 49       		.uleb128 0x49
 1503 0047 13       		.uleb128 0x13
ARM GAS  /tmp/ccHpyiyK.s 			page 28


 1504 0048 3F       		.uleb128 0x3f
 1505 0049 19       		.uleb128 0x19
 1506 004a 3C       		.uleb128 0x3c
 1507 004b 19       		.uleb128 0x19
 1508 004c 00       		.byte	0
 1509 004d 00       		.byte	0
 1510 004e 07       		.uleb128 0x7
 1511 004f 34       		.uleb128 0x34
 1512 0050 00       		.byte	0
 1513 0051 03       		.uleb128 0x3
 1514 0052 0E       		.uleb128 0xe
 1515 0053 3A       		.uleb128 0x3a
 1516 0054 0B       		.uleb128 0xb
 1517 0055 3B       		.uleb128 0x3b
 1518 0056 0B       		.uleb128 0xb
 1519 0057 49       		.uleb128 0x49
 1520 0058 13       		.uleb128 0x13
 1521 0059 3F       		.uleb128 0x3f
 1522 005a 19       		.uleb128 0x19
 1523 005b 3C       		.uleb128 0x3c
 1524 005c 19       		.uleb128 0x19
 1525 005d 00       		.byte	0
 1526 005e 00       		.byte	0
 1527 005f 08       		.uleb128 0x8
 1528 0060 15       		.uleb128 0x15
 1529 0061 00       		.byte	0
 1530 0062 27       		.uleb128 0x27
 1531 0063 19       		.uleb128 0x19
 1532 0064 00       		.byte	0
 1533 0065 00       		.byte	0
 1534 0066 09       		.uleb128 0x9
 1535 0067 0F       		.uleb128 0xf
 1536 0068 00       		.byte	0
 1537 0069 0B       		.uleb128 0xb
 1538 006a 0B       		.uleb128 0xb
 1539 006b 49       		.uleb128 0x49
 1540 006c 13       		.uleb128 0x13
 1541 006d 00       		.byte	0
 1542 006e 00       		.byte	0
 1543 006f 0A       		.uleb128 0xa
 1544 0070 01       		.uleb128 0x1
 1545 0071 01       		.byte	0x1
 1546 0072 49       		.uleb128 0x49
 1547 0073 13       		.uleb128 0x13
 1548 0074 01       		.uleb128 0x1
 1549 0075 13       		.uleb128 0x13
 1550 0076 00       		.byte	0
 1551 0077 00       		.byte	0
 1552 0078 0B       		.uleb128 0xb
 1553 0079 21       		.uleb128 0x21
 1554 007a 00       		.byte	0
 1555 007b 49       		.uleb128 0x49
 1556 007c 13       		.uleb128 0x13
 1557 007d 2F       		.uleb128 0x2f
 1558 007e 0B       		.uleb128 0xb
 1559 007f 00       		.byte	0
 1560 0080 00       		.byte	0
ARM GAS  /tmp/ccHpyiyK.s 			page 29


 1561 0081 0C       		.uleb128 0xc
 1562 0082 0F       		.uleb128 0xf
 1563 0083 00       		.byte	0
 1564 0084 0B       		.uleb128 0xb
 1565 0085 0B       		.uleb128 0xb
 1566 0086 00       		.byte	0
 1567 0087 00       		.byte	0
 1568 0088 0D       		.uleb128 0xd
 1569 0089 16       		.uleb128 0x16
 1570 008a 00       		.byte	0
 1571 008b 03       		.uleb128 0x3
 1572 008c 0E       		.uleb128 0xe
 1573 008d 3A       		.uleb128 0x3a
 1574 008e 0B       		.uleb128 0xb
 1575 008f 3B       		.uleb128 0x3b
 1576 0090 05       		.uleb128 0x5
 1577 0091 49       		.uleb128 0x49
 1578 0092 13       		.uleb128 0x13
 1579 0093 00       		.byte	0
 1580 0094 00       		.byte	0
 1581 0095 0E       		.uleb128 0xe
 1582 0096 17       		.uleb128 0x17
 1583 0097 01       		.byte	0x1
 1584 0098 0B       		.uleb128 0xb
 1585 0099 0B       		.uleb128 0xb
 1586 009a 3A       		.uleb128 0x3a
 1587 009b 0B       		.uleb128 0xb
 1588 009c 3B       		.uleb128 0x3b
 1589 009d 0B       		.uleb128 0xb
 1590 009e 01       		.uleb128 0x1
 1591 009f 13       		.uleb128 0x13
 1592 00a0 00       		.byte	0
 1593 00a1 00       		.byte	0
 1594 00a2 0F       		.uleb128 0xf
 1595 00a3 0D       		.uleb128 0xd
 1596 00a4 00       		.byte	0
 1597 00a5 03       		.uleb128 0x3
 1598 00a6 0E       		.uleb128 0xe
 1599 00a7 3A       		.uleb128 0x3a
 1600 00a8 0B       		.uleb128 0xb
 1601 00a9 3B       		.uleb128 0x3b
 1602 00aa 0B       		.uleb128 0xb
 1603 00ab 49       		.uleb128 0x49
 1604 00ac 13       		.uleb128 0x13
 1605 00ad 00       		.byte	0
 1606 00ae 00       		.byte	0
 1607 00af 10       		.uleb128 0x10
 1608 00b0 13       		.uleb128 0x13
 1609 00b1 01       		.byte	0x1
 1610 00b2 0B       		.uleb128 0xb
 1611 00b3 0B       		.uleb128 0xb
 1612 00b4 3A       		.uleb128 0x3a
 1613 00b5 0B       		.uleb128 0xb
 1614 00b6 3B       		.uleb128 0x3b
 1615 00b7 0B       		.uleb128 0xb
 1616 00b8 01       		.uleb128 0x1
 1617 00b9 13       		.uleb128 0x13
ARM GAS  /tmp/ccHpyiyK.s 			page 30


 1618 00ba 00       		.byte	0
 1619 00bb 00       		.byte	0
 1620 00bc 11       		.uleb128 0x11
 1621 00bd 0D       		.uleb128 0xd
 1622 00be 00       		.byte	0
 1623 00bf 03       		.uleb128 0x3
 1624 00c0 0E       		.uleb128 0xe
 1625 00c1 3A       		.uleb128 0x3a
 1626 00c2 0B       		.uleb128 0xb
 1627 00c3 3B       		.uleb128 0x3b
 1628 00c4 0B       		.uleb128 0xb
 1629 00c5 49       		.uleb128 0x49
 1630 00c6 13       		.uleb128 0x13
 1631 00c7 38       		.uleb128 0x38
 1632 00c8 0B       		.uleb128 0xb
 1633 00c9 00       		.byte	0
 1634 00ca 00       		.byte	0
 1635 00cb 12       		.uleb128 0x12
 1636 00cc 13       		.uleb128 0x13
 1637 00cd 01       		.byte	0x1
 1638 00ce 03       		.uleb128 0x3
 1639 00cf 0E       		.uleb128 0xe
 1640 00d0 0B       		.uleb128 0xb
 1641 00d1 0B       		.uleb128 0xb
 1642 00d2 3A       		.uleb128 0x3a
 1643 00d3 0B       		.uleb128 0xb
 1644 00d4 3B       		.uleb128 0x3b
 1645 00d5 0B       		.uleb128 0xb
 1646 00d6 01       		.uleb128 0x1
 1647 00d7 13       		.uleb128 0x13
 1648 00d8 00       		.byte	0
 1649 00d9 00       		.byte	0
 1650 00da 13       		.uleb128 0x13
 1651 00db 0D       		.uleb128 0xd
 1652 00dc 00       		.byte	0
 1653 00dd 03       		.uleb128 0x3
 1654 00de 08       		.uleb128 0x8
 1655 00df 3A       		.uleb128 0x3a
 1656 00e0 0B       		.uleb128 0xb
 1657 00e1 3B       		.uleb128 0x3b
 1658 00e2 0B       		.uleb128 0xb
 1659 00e3 49       		.uleb128 0x49
 1660 00e4 13       		.uleb128 0x13
 1661 00e5 38       		.uleb128 0x38
 1662 00e6 0B       		.uleb128 0xb
 1663 00e7 00       		.byte	0
 1664 00e8 00       		.byte	0
 1665 00e9 14       		.uleb128 0x14
 1666 00ea 13       		.uleb128 0x13
 1667 00eb 01       		.byte	0x1
 1668 00ec 03       		.uleb128 0x3
 1669 00ed 0E       		.uleb128 0xe
 1670 00ee 0B       		.uleb128 0xb
 1671 00ef 05       		.uleb128 0x5
 1672 00f0 3A       		.uleb128 0x3a
 1673 00f1 0B       		.uleb128 0xb
 1674 00f2 3B       		.uleb128 0x3b
ARM GAS  /tmp/ccHpyiyK.s 			page 31


 1675 00f3 0B       		.uleb128 0xb
 1676 00f4 01       		.uleb128 0x1
 1677 00f5 13       		.uleb128 0x13
 1678 00f6 00       		.byte	0
 1679 00f7 00       		.byte	0
 1680 00f8 15       		.uleb128 0x15
 1681 00f9 0D       		.uleb128 0xd
 1682 00fa 00       		.byte	0
 1683 00fb 03       		.uleb128 0x3
 1684 00fc 0E       		.uleb128 0xe
 1685 00fd 3A       		.uleb128 0x3a
 1686 00fe 0B       		.uleb128 0xb
 1687 00ff 3B       		.uleb128 0x3b
 1688 0100 0B       		.uleb128 0xb
 1689 0101 49       		.uleb128 0x49
 1690 0102 13       		.uleb128 0x13
 1691 0103 38       		.uleb128 0x38
 1692 0104 05       		.uleb128 0x5
 1693 0105 00       		.byte	0
 1694 0106 00       		.byte	0
 1695 0107 16       		.uleb128 0x16
 1696 0108 15       		.uleb128 0x15
 1697 0109 01       		.byte	0x1
 1698 010a 27       		.uleb128 0x27
 1699 010b 19       		.uleb128 0x19
 1700 010c 49       		.uleb128 0x49
 1701 010d 13       		.uleb128 0x13
 1702 010e 01       		.uleb128 0x1
 1703 010f 13       		.uleb128 0x13
 1704 0110 00       		.byte	0
 1705 0111 00       		.byte	0
 1706 0112 17       		.uleb128 0x17
 1707 0113 05       		.uleb128 0x5
 1708 0114 00       		.byte	0
 1709 0115 49       		.uleb128 0x49
 1710 0116 13       		.uleb128 0x13
 1711 0117 00       		.byte	0
 1712 0118 00       		.byte	0
 1713 0119 18       		.uleb128 0x18
 1714 011a 26       		.uleb128 0x26
 1715 011b 00       		.byte	0
 1716 011c 49       		.uleb128 0x49
 1717 011d 13       		.uleb128 0x13
 1718 011e 00       		.byte	0
 1719 011f 00       		.byte	0
 1720 0120 19       		.uleb128 0x19
 1721 0121 13       		.uleb128 0x13
 1722 0122 01       		.byte	0x1
 1723 0123 03       		.uleb128 0x3
 1724 0124 0E       		.uleb128 0xe
 1725 0125 0B       		.uleb128 0xb
 1726 0126 05       		.uleb128 0x5
 1727 0127 3A       		.uleb128 0x3a
 1728 0128 0B       		.uleb128 0xb
 1729 0129 3B       		.uleb128 0x3b
 1730 012a 05       		.uleb128 0x5
 1731 012b 01       		.uleb128 0x1
ARM GAS  /tmp/ccHpyiyK.s 			page 32


 1732 012c 13       		.uleb128 0x13
 1733 012d 00       		.byte	0
 1734 012e 00       		.byte	0
 1735 012f 1A       		.uleb128 0x1a
 1736 0130 0D       		.uleb128 0xd
 1737 0131 00       		.byte	0
 1738 0132 03       		.uleb128 0x3
 1739 0133 0E       		.uleb128 0xe
 1740 0134 3A       		.uleb128 0x3a
 1741 0135 0B       		.uleb128 0xb
 1742 0136 3B       		.uleb128 0x3b
 1743 0137 05       		.uleb128 0x5
 1744 0138 49       		.uleb128 0x49
 1745 0139 13       		.uleb128 0x13
 1746 013a 38       		.uleb128 0x38
 1747 013b 0B       		.uleb128 0xb
 1748 013c 00       		.byte	0
 1749 013d 00       		.byte	0
 1750 013e 1B       		.uleb128 0x1b
 1751 013f 0D       		.uleb128 0xd
 1752 0140 00       		.byte	0
 1753 0141 03       		.uleb128 0x3
 1754 0142 0E       		.uleb128 0xe
 1755 0143 3A       		.uleb128 0x3a
 1756 0144 0B       		.uleb128 0xb
 1757 0145 3B       		.uleb128 0x3b
 1758 0146 05       		.uleb128 0x5
 1759 0147 49       		.uleb128 0x49
 1760 0148 13       		.uleb128 0x13
 1761 0149 38       		.uleb128 0x38
 1762 014a 05       		.uleb128 0x5
 1763 014b 00       		.byte	0
 1764 014c 00       		.byte	0
 1765 014d 1C       		.uleb128 0x1c
 1766 014e 13       		.uleb128 0x13
 1767 014f 01       		.byte	0x1
 1768 0150 03       		.uleb128 0x3
 1769 0151 0E       		.uleb128 0xe
 1770 0152 0B       		.uleb128 0xb
 1771 0153 0B       		.uleb128 0xb
 1772 0154 3A       		.uleb128 0x3a
 1773 0155 0B       		.uleb128 0xb
 1774 0156 3B       		.uleb128 0x3b
 1775 0157 05       		.uleb128 0x5
 1776 0158 01       		.uleb128 0x1
 1777 0159 13       		.uleb128 0x13
 1778 015a 00       		.byte	0
 1779 015b 00       		.byte	0
 1780 015c 1D       		.uleb128 0x1d
 1781 015d 13       		.uleb128 0x13
 1782 015e 01       		.byte	0x1
 1783 015f 0B       		.uleb128 0xb
 1784 0160 0B       		.uleb128 0xb
 1785 0161 3A       		.uleb128 0x3a
 1786 0162 0B       		.uleb128 0xb
 1787 0163 3B       		.uleb128 0x3b
 1788 0164 05       		.uleb128 0x5
ARM GAS  /tmp/ccHpyiyK.s 			page 33


 1789 0165 01       		.uleb128 0x1
 1790 0166 13       		.uleb128 0x13
 1791 0167 00       		.byte	0
 1792 0168 00       		.byte	0
 1793 0169 1E       		.uleb128 0x1e
 1794 016a 17       		.uleb128 0x17
 1795 016b 01       		.byte	0x1
 1796 016c 0B       		.uleb128 0xb
 1797 016d 0B       		.uleb128 0xb
 1798 016e 3A       		.uleb128 0x3a
 1799 016f 0B       		.uleb128 0xb
 1800 0170 3B       		.uleb128 0x3b
 1801 0171 05       		.uleb128 0x5
 1802 0172 01       		.uleb128 0x1
 1803 0173 13       		.uleb128 0x13
 1804 0174 00       		.byte	0
 1805 0175 00       		.byte	0
 1806 0176 1F       		.uleb128 0x1f
 1807 0177 0D       		.uleb128 0xd
 1808 0178 00       		.byte	0
 1809 0179 03       		.uleb128 0x3
 1810 017a 0E       		.uleb128 0xe
 1811 017b 3A       		.uleb128 0x3a
 1812 017c 0B       		.uleb128 0xb
 1813 017d 3B       		.uleb128 0x3b
 1814 017e 05       		.uleb128 0x5
 1815 017f 49       		.uleb128 0x49
 1816 0180 13       		.uleb128 0x13
 1817 0181 00       		.byte	0
 1818 0182 00       		.byte	0
 1819 0183 20       		.uleb128 0x20
 1820 0184 15       		.uleb128 0x15
 1821 0185 01       		.byte	0x1
 1822 0186 27       		.uleb128 0x27
 1823 0187 19       		.uleb128 0x19
 1824 0188 01       		.uleb128 0x1
 1825 0189 13       		.uleb128 0x13
 1826 018a 00       		.byte	0
 1827 018b 00       		.byte	0
 1828 018c 21       		.uleb128 0x21
 1829 018d 04       		.uleb128 0x4
 1830 018e 01       		.byte	0x1
 1831 018f 03       		.uleb128 0x3
 1832 0190 0E       		.uleb128 0xe
 1833 0191 0B       		.uleb128 0xb
 1834 0192 0B       		.uleb128 0xb
 1835 0193 49       		.uleb128 0x49
 1836 0194 13       		.uleb128 0x13
 1837 0195 3A       		.uleb128 0x3a
 1838 0196 0B       		.uleb128 0xb
 1839 0197 3B       		.uleb128 0x3b
 1840 0198 05       		.uleb128 0x5
 1841 0199 01       		.uleb128 0x1
 1842 019a 13       		.uleb128 0x13
 1843 019b 00       		.byte	0
 1844 019c 00       		.byte	0
 1845 019d 22       		.uleb128 0x22
ARM GAS  /tmp/ccHpyiyK.s 			page 34


 1846 019e 28       		.uleb128 0x28
 1847 019f 00       		.byte	0
 1848 01a0 03       		.uleb128 0x3
 1849 01a1 0E       		.uleb128 0xe
 1850 01a2 1C       		.uleb128 0x1c
 1851 01a3 0D       		.uleb128 0xd
 1852 01a4 00       		.byte	0
 1853 01a5 00       		.byte	0
 1854 01a6 23       		.uleb128 0x23
 1855 01a7 28       		.uleb128 0x28
 1856 01a8 00       		.byte	0
 1857 01a9 03       		.uleb128 0x3
 1858 01aa 0E       		.uleb128 0xe
 1859 01ab 1C       		.uleb128 0x1c
 1860 01ac 0B       		.uleb128 0xb
 1861 01ad 00       		.byte	0
 1862 01ae 00       		.byte	0
 1863 01af 24       		.uleb128 0x24
 1864 01b0 21       		.uleb128 0x21
 1865 01b1 00       		.byte	0
 1866 01b2 00       		.byte	0
 1867 01b3 00       		.byte	0
 1868 01b4 25       		.uleb128 0x25
 1869 01b5 2E       		.uleb128 0x2e
 1870 01b6 01       		.byte	0x1
 1871 01b7 3F       		.uleb128 0x3f
 1872 01b8 19       		.uleb128 0x19
 1873 01b9 03       		.uleb128 0x3
 1874 01ba 0E       		.uleb128 0xe
 1875 01bb 3A       		.uleb128 0x3a
 1876 01bc 0B       		.uleb128 0xb
 1877 01bd 3B       		.uleb128 0x3b
 1878 01be 0B       		.uleb128 0xb
 1879 01bf 27       		.uleb128 0x27
 1880 01c0 19       		.uleb128 0x19
 1881 01c1 49       		.uleb128 0x49
 1882 01c2 13       		.uleb128 0x13
 1883 01c3 11       		.uleb128 0x11
 1884 01c4 01       		.uleb128 0x1
 1885 01c5 12       		.uleb128 0x12
 1886 01c6 06       		.uleb128 0x6
 1887 01c7 40       		.uleb128 0x40
 1888 01c8 18       		.uleb128 0x18
 1889 01c9 9742     		.uleb128 0x2117
 1890 01cb 19       		.uleb128 0x19
 1891 01cc 01       		.uleb128 0x1
 1892 01cd 13       		.uleb128 0x13
 1893 01ce 00       		.byte	0
 1894 01cf 00       		.byte	0
 1895 01d0 26       		.uleb128 0x26
 1896 01d1 898201   		.uleb128 0x4109
 1897 01d4 00       		.byte	0
 1898 01d5 11       		.uleb128 0x11
 1899 01d6 01       		.uleb128 0x1
 1900 01d7 31       		.uleb128 0x31
 1901 01d8 13       		.uleb128 0x13
 1902 01d9 00       		.byte	0
ARM GAS  /tmp/ccHpyiyK.s 			page 35


 1903 01da 00       		.byte	0
 1904 01db 27       		.uleb128 0x27
 1905 01dc 898201   		.uleb128 0x4109
 1906 01df 01       		.byte	0x1
 1907 01e0 11       		.uleb128 0x11
 1908 01e1 01       		.uleb128 0x1
 1909 01e2 31       		.uleb128 0x31
 1910 01e3 13       		.uleb128 0x13
 1911 01e4 01       		.uleb128 0x1
 1912 01e5 13       		.uleb128 0x13
 1913 01e6 00       		.byte	0
 1914 01e7 00       		.byte	0
 1915 01e8 28       		.uleb128 0x28
 1916 01e9 8A8201   		.uleb128 0x410a
 1917 01ec 00       		.byte	0
 1918 01ed 02       		.uleb128 0x2
 1919 01ee 18       		.uleb128 0x18
 1920 01ef 9142     		.uleb128 0x2111
 1921 01f1 18       		.uleb128 0x18
 1922 01f2 00       		.byte	0
 1923 01f3 00       		.byte	0
 1924 01f4 29       		.uleb128 0x29
 1925 01f5 898201   		.uleb128 0x4109
 1926 01f8 01       		.byte	0x1
 1927 01f9 11       		.uleb128 0x11
 1928 01fa 01       		.uleb128 0x1
 1929 01fb 31       		.uleb128 0x31
 1930 01fc 13       		.uleb128 0x13
 1931 01fd 00       		.byte	0
 1932 01fe 00       		.byte	0
 1933 01ff 2A       		.uleb128 0x2a
 1934 0200 2E       		.uleb128 0x2e
 1935 0201 00       		.byte	0
 1936 0202 3F       		.uleb128 0x3f
 1937 0203 19       		.uleb128 0x19
 1938 0204 3C       		.uleb128 0x3c
 1939 0205 19       		.uleb128 0x19
 1940 0206 6E       		.uleb128 0x6e
 1941 0207 0E       		.uleb128 0xe
 1942 0208 03       		.uleb128 0x3
 1943 0209 0E       		.uleb128 0xe
 1944 020a 3A       		.uleb128 0x3a
 1945 020b 0B       		.uleb128 0xb
 1946 020c 3B       		.uleb128 0x3b
 1947 020d 0B       		.uleb128 0xb
 1948 020e 00       		.byte	0
 1949 020f 00       		.byte	0
 1950 0210 2B       		.uleb128 0x2b
 1951 0211 2E       		.uleb128 0x2e
 1952 0212 00       		.byte	0
 1953 0213 3F       		.uleb128 0x3f
 1954 0214 19       		.uleb128 0x19
 1955 0215 3C       		.uleb128 0x3c
 1956 0216 19       		.uleb128 0x19
 1957 0217 6E       		.uleb128 0x6e
 1958 0218 0E       		.uleb128 0xe
 1959 0219 03       		.uleb128 0x3
ARM GAS  /tmp/ccHpyiyK.s 			page 36


 1960 021a 0E       		.uleb128 0xe
 1961 021b 3A       		.uleb128 0x3a
 1962 021c 0B       		.uleb128 0xb
 1963 021d 3B       		.uleb128 0x3b
 1964 021e 05       		.uleb128 0x5
 1965 021f 00       		.byte	0
 1966 0220 00       		.byte	0
 1967 0221 00       		.byte	0
 1968              		.section	.debug_aranges,"",%progbits
 1969 0000 1C000000 		.4byte	0x1c
 1970 0004 0200     		.2byte	0x2
 1971 0006 00000000 		.4byte	.Ldebug_info0
 1972 000a 04       		.byte	0x4
 1973 000b 00       		.byte	0
 1974 000c 0000     		.2byte	0
 1975 000e 0000     		.2byte	0
 1976 0010 00000000 		.4byte	.Ltext0
 1977 0014 58000000 		.4byte	.Letext0-.Ltext0
 1978 0018 00000000 		.4byte	0
 1979 001c 00000000 		.4byte	0
 1980              		.section	.debug_line,"",%progbits
 1981              	.Ldebug_line0:
 1982 0000 41020000 		.section	.debug_str,"MS",%progbits,1
 1982      02000D02 
 1982      00000201 
 1982      FB0E0D00 
 1982      01010101 
 1983              	.LASF153:
 1984 0000 7072696E 		.ascii	"printf\000"
 1984      746600
 1985              	.LASF2:
 1986 0007 73686F72 		.ascii	"short int\000"
 1986      7420696E 
 1986      7400
 1987              	.LASF146:
 1988 0011 5F737973 		.ascii	"_sys_errlist\000"
 1988      5F657272 
 1988      6C697374 
 1988      00
 1989              	.LASF56:
 1990 001e 5F666E61 		.ascii	"_fnargs\000"
 1990      72677300 
 1991              	.LASF110:
 1992 0026 5F72616E 		.ascii	"_rand48\000"
 1992      64343800 
 1993              	.LASF143:
 1994 002e 5F5F6664 		.ascii	"__fdlibm_xopen\000"
 1994      6C69626D 
 1994      5F786F70 
 1994      656E00
 1995              	.LASF89:
 1996 003d 5F656D65 		.ascii	"_emergency\000"
 1996      7267656E 
 1996      637900
 1997              	.LASF81:
 1998 0048 5F6D6273 		.ascii	"_mbstate\000"
 1998      74617465 
ARM GAS  /tmp/ccHpyiyK.s 			page 37


 1998      00
 1999              	.LASF101:
 2000 0051 5F617465 		.ascii	"_atexit0\000"
 2000      78697430 
 2000      00
 2001              	.LASF130:
 2002 005a 5F776372 		.ascii	"_wcrtomb_state\000"
 2002      746F6D62 
 2002      5F737461 
 2002      746500
 2003              	.LASF131:
 2004 0069 5F776373 		.ascii	"_wcsrtombs_state\000"
 2004      72746F6D 
 2004      62735F73 
 2004      74617465 
 2004      00
 2005              	.LASF11:
 2006 007a 6C6F6E67 		.ascii	"long long unsigned int\000"
 2006      206C6F6E 
 2006      6720756E 
 2006      7369676E 
 2006      65642069 
 2007              	.LASF144:
 2008 0091 5F5F6664 		.ascii	"__fdlibm_posix\000"
 2008      6C69626D 
 2008      5F706F73 
 2008      697800
 2009              	.LASF69:
 2010 00a0 5F6C6266 		.ascii	"_lbfsize\000"
 2010      73697A65 
 2010      00
 2011              	.LASF18:
 2012 00a9 49544D5F 		.ascii	"ITM_RxBuffer\000"
 2012      52784275 
 2012      66666572 
 2012      00
 2013              	.LASF145:
 2014 00b6 5F5F6664 		.ascii	"__fdlib_version\000"
 2014      6C69625F 
 2014      76657273 
 2014      696F6E00 
 2015              	.LASF20:
 2016 00c6 6779726F 		.ascii	"gyro\000"
 2016      00
 2017              	.LASF128:
 2018 00cb 5F6D6272 		.ascii	"_mbrtowc_state\000"
 2018      746F7763 
 2018      5F737461 
 2018      746500
 2019              	.LASF123:
 2020 00da 5F776374 		.ascii	"_wctomb_state\000"
 2020      6F6D625F 
 2020      73746174 
 2020      6500
 2021              	.LASF46:
 2022 00e8 5F5F746D 		.ascii	"__tm_sec\000"
 2022      5F736563 
ARM GAS  /tmp/ccHpyiyK.s 			page 38


 2022      00
 2023              	.LASF13:
 2024 00f1 696E7431 		.ascii	"int16_t\000"
 2024      365F7400 
 2025              	.LASF30:
 2026 00f9 5F6F6666 		.ascii	"_off_t\000"
 2026      5F7400
 2027              	.LASF74:
 2028 0100 5F636C6F 		.ascii	"_close\000"
 2028      736500
 2029              	.LASF0:
 2030 0107 7369676E 		.ascii	"signed char\000"
 2030      65642063 
 2030      68617200 
 2031              	.LASF75:
 2032 0113 5F756275 		.ascii	"_ubuf\000"
 2032      6600
 2033              	.LASF22:
 2034 0119 47785F6F 		.ascii	"Gx_offset\000"
 2034      66667365 
 2034      7400
 2035              	.LASF64:
 2036 0123 5F626173 		.ascii	"_base\000"
 2036      6500
 2037              	.LASF48:
 2038 0129 5F5F746D 		.ascii	"__tm_hour\000"
 2038      5F686F75 
 2038      7200
 2039              	.LASF104:
 2040 0133 5F5F7366 		.ascii	"__sf\000"
 2040      00
 2041              	.LASF55:
 2042 0138 5F6F6E5F 		.ascii	"_on_exit_args\000"
 2042      65786974 
 2042      5F617267 
 2042      7300
 2043              	.LASF25:
 2044 0146 41636331 		.ascii	"Acc1G_Values\000"
 2044      475F5661 
 2044      6C756573 
 2044      00
 2045              	.LASF70:
 2046 0153 5F636F6F 		.ascii	"_cookie\000"
 2046      6B696500 
 2047              	.LASF103:
 2048 015b 5F5F7367 		.ascii	"__sglue\000"
 2048      6C756500 
 2049              	.LASF7:
 2050 0163 6C6F6E67 		.ascii	"long int\000"
 2050      20696E74 
 2050      00
 2051              	.LASF158:
 2052 016c 2F686F6D 		.ascii	"/home/enbin/Documents/code/STM/stm32-quadrocopter\000"
 2052      652F656E 
 2052      62696E2F 
 2052      446F6375 
 2052      6D656E74 
ARM GAS  /tmp/ccHpyiyK.s 			page 39


 2053              	.LASF59:
 2054 019e 5F69735F 		.ascii	"_is_cxa\000"
 2054      63786100 
 2055              	.LASF85:
 2056 01a6 5F737464 		.ascii	"_stdin\000"
 2056      696E00
 2057              	.LASF142:
 2058 01ad 5F5F6664 		.ascii	"__fdlibm_svid\000"
 2058      6C69626D 
 2058      5F737669 
 2058      6400
 2059              	.LASF95:
 2060 01bb 5F726573 		.ascii	"_result_k\000"
 2060      756C745F 
 2060      6B00
 2061              	.LASF10:
 2062 01c5 6C6F6E67 		.ascii	"long long int\000"
 2062      206C6F6E 
 2062      6720696E 
 2062      7400
 2063              	.LASF14:
 2064 01d3 75696E74 		.ascii	"uint16_t\000"
 2064      31365F74 
 2064      00
 2065              	.LASF149:
 2066 01dc 55736572 		.ascii	"UserInit\000"
 2066      496E6974 
 2066      00
 2067              	.LASF139:
 2068 01e5 646F7562 		.ascii	"double\000"
 2068      6C6500
 2069              	.LASF99:
 2070 01ec 5F637674 		.ascii	"_cvtbuf\000"
 2070      62756600 
 2071              	.LASF78:
 2072 01f4 5F6F6666 		.ascii	"_offset\000"
 2072      73657400 
 2073              	.LASF129:
 2074 01fc 5F6D6273 		.ascii	"_mbsrtowcs_state\000"
 2074      72746F77 
 2074      63735F73 
 2074      74617465 
 2074      00
 2075              	.LASF157:
 2076 020d 70726F6A 		.ascii	"project/main.c\000"
 2076      6563742F 
 2076      6D61696E 
 2076      2E6300
 2077              	.LASF127:
 2078 021c 5F6D6272 		.ascii	"_mbrlen_state\000"
 2078      6C656E5F 
 2078      73746174 
 2078      6500
 2079              	.LASF62:
 2080 022a 5F666E73 		.ascii	"_fns\000"
 2080      00
 2081              	.LASF8:
ARM GAS  /tmp/ccHpyiyK.s 			page 40


 2082 022f 5F5F7569 		.ascii	"__uint32_t\000"
 2082      6E743332 
 2082      5F7400
 2083              	.LASF42:
 2084 023a 5F736967 		.ascii	"_sign\000"
 2084      6E00
 2085              	.LASF136:
 2086 0240 5F696D70 		.ascii	"_impure_ptr\000"
 2086      7572655F 
 2086      70747200 
 2087              	.LASF87:
 2088 024c 5F737464 		.ascii	"_stderr\000"
 2088      65727200 
 2089              	.LASF44:
 2090 0254 5F426967 		.ascii	"_Bigint\000"
 2090      696E7400 
 2091              	.LASF71:
 2092 025c 5F726561 		.ascii	"_read\000"
 2092      6400
 2093              	.LASF45:
 2094 0262 5F5F746D 		.ascii	"__tm\000"
 2094      00
 2095              	.LASF34:
 2096 0267 5F5F7763 		.ascii	"__wchb\000"
 2096      686200
 2097              	.LASF19:
 2098 026e 53797374 		.ascii	"SystemCoreClock\000"
 2098      656D436F 
 2098      7265436C 
 2098      6F636B00 
 2099              	.LASF86:
 2100 027e 5F737464 		.ascii	"_stdout\000"
 2100      6F757400 
 2101              	.LASF98:
 2102 0286 5F637674 		.ascii	"_cvtlen\000"
 2102      6C656E00 
 2103              	.LASF9:
 2104 028e 6C6F6E67 		.ascii	"long unsigned int\000"
 2104      20756E73 
 2104      69676E65 
 2104      6420696E 
 2104      7400
 2105              	.LASF68:
 2106 02a0 5F66696C 		.ascii	"_file\000"
 2106      6500
 2107              	.LASF154:
 2108 02a6 52656164 		.ascii	"Read_DMP\000"
 2108      5F444D50 
 2108      00
 2109              	.LASF79:
 2110 02af 5F646174 		.ascii	"_data\000"
 2110      6100
 2111              	.LASF108:
 2112 02b5 5F6E696F 		.ascii	"_niobs\000"
 2112      627300
 2113              	.LASF119:
 2114 02bc 5F72616E 		.ascii	"_rand_next\000"
ARM GAS  /tmp/ccHpyiyK.s 			page 41


 2114      645F6E65 
 2114      787400
 2115              	.LASF125:
 2116 02c7 5F736967 		.ascii	"_signal_buf\000"
 2116      6E616C5F 
 2116      62756600 
 2117              	.LASF116:
 2118 02d3 5F617363 		.ascii	"_asctime_buf\000"
 2118      74696D65 
 2118      5F627566 
 2118      00
 2119              	.LASF94:
 2120 02e0 5F726573 		.ascii	"_result\000"
 2120      756C7400 
 2121              	.LASF33:
 2122 02e8 5F5F7763 		.ascii	"__wch\000"
 2122      6800
 2123              	.LASF100:
 2124 02ee 5F6E6577 		.ascii	"_new\000"
 2124      00
 2125              	.LASF80:
 2126 02f3 5F6C6F63 		.ascii	"_lock\000"
 2126      6B00
 2127              	.LASF112:
 2128 02f9 5F6D756C 		.ascii	"_mult\000"
 2128      7400
 2129              	.LASF72:
 2130 02ff 5F777269 		.ascii	"_write\000"
 2130      746500
 2131              	.LASF51:
 2132 0306 5F5F746D 		.ascii	"__tm_year\000"
 2132      5F796561 
 2132      7200
 2133              	.LASF159:
 2134 0310 5F5F6664 		.ascii	"__fdlibm_version\000"
 2134      6C69626D 
 2134      5F766572 
 2134      73696F6E 
 2134      00
 2135              	.LASF17:
 2136 0321 73697A65 		.ascii	"sizetype\000"
 2136      74797065 
 2136      00
 2137              	.LASF23:
 2138 032a 47795F6F 		.ascii	"Gy_offset\000"
 2138      66667365 
 2138      7400
 2139              	.LASF133:
 2140 0334 5F6E6578 		.ascii	"_nextf\000"
 2140      746600
 2141              	.LASF21:
 2142 033b 61636365 		.ascii	"accel\000"
 2142      6C00
 2143              	.LASF24:
 2144 0341 477A5F6F 		.ascii	"Gz_offset\000"
 2144      66667365 
 2144      7400
ARM GAS  /tmp/ccHpyiyK.s 			page 42


 2145              	.LASF50:
 2146 034b 5F5F746D 		.ascii	"__tm_mon\000"
 2146      5F6D6F6E 
 2146      00
 2147              	.LASF60:
 2148 0354 5F617465 		.ascii	"_atexit\000"
 2148      78697400 
 2149              	.LASF138:
 2150 035c 7375626F 		.ascii	"suboptarg\000"
 2150      70746172 
 2150      6700
 2151              	.LASF92:
 2152 0366 5F5F7364 		.ascii	"__sdidinit\000"
 2152      6964696E 
 2152      697400
 2153              	.LASF118:
 2154 0371 5F67616D 		.ascii	"_gamma_signgam\000"
 2154      6D615F73 
 2154      69676E67 
 2154      616D00
 2155              	.LASF32:
 2156 0380 77696E74 		.ascii	"wint_t\000"
 2156      5F7400
 2157              	.LASF26:
 2158 0387 666C6F61 		.ascii	"float\000"
 2158      7400
 2159              	.LASF97:
 2160 038d 5F667265 		.ascii	"_freelist\000"
 2160      656C6973 
 2160      7400
 2161              	.LASF27:
 2162 0397 50697463 		.ascii	"Pitch\000"
 2162      6800
 2163              	.LASF150:
 2164 039d 4D505536 		.ascii	"MPU6050_Init\000"
 2164      3035305F 
 2164      496E6974 
 2164      00
 2165              	.LASF29:
 2166 03aa 5F4C4F43 		.ascii	"_LOCK_RECURSIVE_T\000"
 2166      4B5F5245 
 2166      43555253 
 2166      4956455F 
 2166      5400
 2167              	.LASF148:
 2168 03bc 53797374 		.ascii	"SystemInit\000"
 2168      656D496E 
 2168      697400
 2169              	.LASF15:
 2170 03c7 696E7433 		.ascii	"int32_t\000"
 2170      325F7400 
 2171              	.LASF1:
 2172 03cf 756E7369 		.ascii	"unsigned char\000"
 2172      676E6564 
 2172      20636861 
 2172      7200
 2173              	.LASF109:
ARM GAS  /tmp/ccHpyiyK.s 			page 43


 2174 03dd 5F696F62 		.ascii	"_iobs\000"
 2174      7300
 2175              	.LASF132:
 2176 03e3 5F685F65 		.ascii	"_h_errno\000"
 2176      72726E6F 
 2176      00
 2177              	.LASF38:
 2178 03ec 5F666C6F 		.ascii	"_flock_t\000"
 2178      636B5F74 
 2178      00
 2179              	.LASF53:
 2180 03f5 5F5F746D 		.ascii	"__tm_yday\000"
 2180      5F796461 
 2180      7900
 2181              	.LASF63:
 2182 03ff 5F5F7362 		.ascii	"__sbuf\000"
 2182      756600
 2183              	.LASF82:
 2184 0406 5F666C61 		.ascii	"_flags2\000"
 2184      67733200 
 2185              	.LASF106:
 2186 040e 5F5F4649 		.ascii	"__FILE\000"
 2186      4C4500
 2187              	.LASF37:
 2188 0415 5F6D6273 		.ascii	"_mbstate_t\000"
 2188      74617465 
 2188      5F7400
 2189              	.LASF66:
 2190 0420 5F5F7346 		.ascii	"__sFILE\000"
 2190      494C4500 
 2191              	.LASF147:
 2192 0428 5F737973 		.ascii	"_sys_nerr\000"
 2192      5F6E6572 
 2192      7200
 2193              	.LASF156:
 2194 0432 474E5520 		.ascii	"GNU C89 6.1.1 20160526 -mcpu=cortex-m3 -mthumb -mfl"
 2194      43383920 
 2194      362E312E 
 2194      31203230 
 2194      31363035 
 2195 0465 6F61742D 		.ascii	"oat-abi=soft -g -O1 -std=gnu90 -fno-common -fno-mat"
 2195      6162693D 
 2195      736F6674 
 2195      202D6720 
 2195      2D4F3120 
 2196 0498 682D6572 		.ascii	"h-errno\000"
 2196      726E6F00 
 2197              	.LASF155:
 2198 04a0 44656C61 		.ascii	"DelayMs\000"
 2198      794D7300 
 2199              	.LASF121:
 2200 04a8 5F6D626C 		.ascii	"_mblen_state\000"
 2200      656E5F73 
 2200      74617465 
 2200      00
 2201              	.LASF88:
 2202 04b5 5F696E63 		.ascii	"_inc\000"
ARM GAS  /tmp/ccHpyiyK.s 			page 44


 2202      00
 2203              	.LASF61:
 2204 04ba 5F696E64 		.ascii	"_ind\000"
 2204      00
 2205              	.LASF91:
 2206 04bf 5F637572 		.ascii	"_current_locale\000"
 2206      72656E74 
 2206      5F6C6F63 
 2206      616C6500 
 2207              	.LASF57:
 2208 04cf 5F64736F 		.ascii	"_dso_handle\000"
 2208      5F68616E 
 2208      646C6500 
 2209              	.LASF93:
 2210 04db 5F5F636C 		.ascii	"__cleanup\000"
 2210      65616E75 
 2210      7000
 2211              	.LASF41:
 2212 04e5 5F6D6178 		.ascii	"_maxwds\000"
 2212      77647300 
 2213              	.LASF83:
 2214 04ed 5F726565 		.ascii	"_reent\000"
 2214      6E7400
 2215              	.LASF111:
 2216 04f4 5F736565 		.ascii	"_seed\000"
 2216      6400
 2217              	.LASF35:
 2218 04fa 5F5F636F 		.ascii	"__count\000"
 2218      756E7400 
 2219              	.LASF36:
 2220 0502 5F5F7661 		.ascii	"__value\000"
 2220      6C756500 
 2221              	.LASF73:
 2222 050a 5F736565 		.ascii	"_seek\000"
 2222      6B00
 2223              	.LASF52:
 2224 0510 5F5F746D 		.ascii	"__tm_wday\000"
 2224      5F776461 
 2224      7900
 2225              	.LASF31:
 2226 051a 5F66706F 		.ascii	"_fpos_t\000"
 2226      735F7400 
 2227              	.LASF140:
 2228 0522 6C6F6E67 		.ascii	"long double\000"
 2228      20646F75 
 2228      626C6500 
 2229              	.LASF84:
 2230 052e 5F657272 		.ascii	"_errno\000"
 2230      6E6F00
 2231              	.LASF105:
 2232 0535 63686172 		.ascii	"char\000"
 2232      00
 2233              	.LASF77:
 2234 053a 5F626C6B 		.ascii	"_blksize\000"
 2234      73697A65 
 2234      00
 2235              	.LASF65:
ARM GAS  /tmp/ccHpyiyK.s 			page 45


 2236 0543 5F73697A 		.ascii	"_size\000"
 2236      6500
 2237              	.LASF12:
 2238 0549 756E7369 		.ascii	"unsigned int\000"
 2238      676E6564 
 2238      20696E74 
 2238      00
 2239              	.LASF4:
 2240 0556 5F5F7569 		.ascii	"__uint16_t\000"
 2240      6E743136 
 2240      5F7400
 2241              	.LASF6:
 2242 0561 5F5F696E 		.ascii	"__int32_t\000"
 2242      7433325F 
 2242      7400
 2243              	.LASF40:
 2244 056b 5F6E6578 		.ascii	"_next\000"
 2244      7400
 2245              	.LASF115:
 2246 0571 5F737472 		.ascii	"_strtok_last\000"
 2246      746F6B5F 
 2246      6C617374 
 2246      00
 2247              	.LASF58:
 2248 057e 5F666E74 		.ascii	"_fntypes\000"
 2248      79706573 
 2248      00
 2249              	.LASF5:
 2250 0587 73686F72 		.ascii	"short unsigned int\000"
 2250      7420756E 
 2250      7369676E 
 2250      65642069 
 2250      6E7400
 2251              	.LASF113:
 2252 059a 5F616464 		.ascii	"_add\000"
 2252      00
 2253              	.LASF39:
 2254 059f 5F5F554C 		.ascii	"__ULong\000"
 2254      6F6E6700 
 2255              	.LASF126:
 2256 05a7 5F676574 		.ascii	"_getdate_err\000"
 2256      64617465 
 2256      5F657272 
 2256      00
 2257              	.LASF28:
 2258 05b4 69506974 		.ascii	"iPitch\000"
 2258      636800
 2259              	.LASF137:
 2260 05bb 5F676C6F 		.ascii	"_global_impure_ptr\000"
 2260      62616C5F 
 2260      696D7075 
 2260      72655F70 
 2260      747200
 2261              	.LASF90:
 2262 05ce 5F637572 		.ascii	"_current_category\000"
 2262      72656E74 
 2262      5F636174 
ARM GAS  /tmp/ccHpyiyK.s 			page 46


 2262      65676F72 
 2262      7900
 2263              	.LASF141:
 2264 05e0 5F5F6664 		.ascii	"__fdlibm_ieee\000"
 2264      6C69626D 
 2264      5F696565 
 2264      6500
 2265              	.LASF152:
 2266 05ee 48435352 		.ascii	"HCSR04_Get\000"
 2266      30345F47 
 2266      657400
 2267              	.LASF114:
 2268 05f9 5F756E75 		.ascii	"_unused_rand\000"
 2268      7365645F 
 2268      72616E64 
 2268      00
 2269              	.LASF43:
 2270 0606 5F776473 		.ascii	"_wds\000"
 2270      00
 2271              	.LASF107:
 2272 060b 5F676C75 		.ascii	"_glue\000"
 2272      6500
 2273              	.LASF67:
 2274 0611 5F666C61 		.ascii	"_flags\000"
 2274      677300
 2275              	.LASF134:
 2276 0618 5F6E6D61 		.ascii	"_nmalloc\000"
 2276      6C6C6F63 
 2276      00
 2277              	.LASF124:
 2278 0621 5F6C3634 		.ascii	"_l64a_buf\000"
 2278      615F6275 
 2278      6600
 2279              	.LASF102:
 2280 062b 5F736967 		.ascii	"_sig_func\000"
 2280      5F66756E 
 2280      6300
 2281              	.LASF3:
 2282 0635 5F5F696E 		.ascii	"__int16_t\000"
 2282      7431365F 
 2282      7400
 2283              	.LASF76:
 2284 063f 5F6E6275 		.ascii	"_nbuf\000"
 2284      6600
 2285              	.LASF135:
 2286 0645 5F756E75 		.ascii	"_unused\000"
 2286      73656400 
 2287              	.LASF54:
 2288 064d 5F5F746D 		.ascii	"__tm_isdst\000"
 2288      5F697364 
 2288      737400
 2289              	.LASF117:
 2290 0658 5F6C6F63 		.ascii	"_localtime_buf\000"
 2290      616C7469 
 2290      6D655F62 
 2290      756600
 2291              	.LASF47:
ARM GAS  /tmp/ccHpyiyK.s 			page 47


 2292 0667 5F5F746D 		.ascii	"__tm_min\000"
 2292      5F6D696E 
 2292      00
 2293              	.LASF120:
 2294 0670 5F723438 		.ascii	"_r48\000"
 2294      00
 2295              	.LASF151:
 2296 0675 444D505F 		.ascii	"DMP_Init\000"
 2296      496E6974 
 2296      00
 2297              	.LASF122:
 2298 067e 5F6D6274 		.ascii	"_mbtowc_state\000"
 2298      6F77635F 
 2298      73746174 
 2298      6500
 2299              	.LASF96:
 2300 068c 5F703573 		.ascii	"_p5s\000"
 2300      00
 2301              	.LASF160:
 2302 0691 6D61696E 		.ascii	"main\000"
 2302      00
 2303              	.LASF16:
 2304 0696 75696E74 		.ascii	"uint32_t\000"
 2304      33325F74 
 2304      00
 2305              	.LASF49:
 2306 069f 5F5F746D 		.ascii	"__tm_mday\000"
 2306      5F6D6461 
 2306      7900
 2307              		.ident	"GCC: (Arch Repository) 6.1.1 20160526"
ARM GAS  /tmp/ccHpyiyK.s 			page 48


DEFINED SYMBOLS
                            *ABS*:0000000000000000 main.c
     /tmp/ccHpyiyK.s:15     .text:0000000000000000 $t
     /tmp/ccHpyiyK.s:22     .text:0000000000000000 main
     /tmp/ccHpyiyK.s:81     .text:0000000000000044 $d
     /tmp/ccHpyiyK.s:90     .rodata.str1.4:0000000000000000 $d
                     .debug_frame:0000000000000010 $d

UNDEFINED SYMBOLS
SystemInit
UserInit
MPU6050_Init
DMP_Init
HCSR04_Get
printf
Read_DMP
DelayMs
iPitch
