ARM GAS  /tmp/cctJdLn9.s 			page 1


   1              		.cpu cortex-m3
   2              		.eabi_attribute 20, 1
   3              		.eabi_attribute 21, 1
   4              		.eabi_attribute 23, 3
   5              		.eabi_attribute 24, 1
   6              		.eabi_attribute 25, 1
   7              		.eabi_attribute 26, 1
   8              		.eabi_attribute 30, 1
   9              		.eabi_attribute 34, 1
  10              		.eabi_attribute 18, 4
  11              		.file	"main.c"
  12              		.text
  13              	.Ltext0:
  14              		.cfi_sections	.debug_frame
  15              		.global	__aeabi_f2d
  16              		.global	__aeabi_dmul
  17              		.global	__aeabi_ddiv
  18              		.global	__aeabi_d2f
  19              		.align	1
  20              		.global	main
  21              		.syntax unified
  22              		.thumb
  23              		.thumb_func
  24              		.fpu softvfp
  25              		.type	main, %function
  26              	main:
  27              	.LFB63:
  28              		.file 1 "project/main.c"
   1:project/main.c **** /**
   2:project/main.c ****  * STM32F103C8 Quadrocopter
   3:project/main.c ****  */
   4:project/main.c **** #include "tools.h"
   5:project/main.c **** #include "conf.h"
   6:project/main.c **** 
   7:project/main.c **** /* Exported constants --------------------------------------------------------*/
   8:project/main.c **** 
   9:project/main.c **** int main(void)
  10:project/main.c **** {
  29              		.loc 1 10 0
  30              		.cfi_startproc
  31              		@ args = 0, pretend = 0, frame = 0
  32              		@ frame_needed = 0, uses_anonymous_args = 0
  33 0000 2DE9F04F 		push	{r4, r5, r6, r7, r8, r9, r10, fp, lr}
  34              		.cfi_def_cfa_offset 36
  35              		.cfi_offset 4, -36
  36              		.cfi_offset 5, -32
  37              		.cfi_offset 6, -28
  38              		.cfi_offset 7, -24
  39              		.cfi_offset 8, -20
  40              		.cfi_offset 9, -16
  41              		.cfi_offset 10, -12
  42              		.cfi_offset 11, -8
  43              		.cfi_offset 14, -4
  44 0004 85B0     		sub	sp, sp, #20
  45              		.cfi_def_cfa_offset 56
  11:project/main.c ****   SystemInit();
  46              		.loc 1 11 0
ARM GAS  /tmp/cctJdLn9.s 			page 2


  47 0006 FFF7FEFF 		bl	SystemInit
  48              	.LVL0:
  12:project/main.c ****   UserInit();
  49              		.loc 1 12 0
  50 000a FFF7FEFF 		bl	UserInit
  51              	.LVL1:
  13:project/main.c ****   DelayInit(72);
  52              		.loc 1 13 0
  53 000e 4820     		movs	r0, #72
  54 0010 FFF7FEFF 		bl	DelayInit
  55              	.LVL2:
  14:project/main.c **** 
  15:project/main.c ****   mpu_6050_init();
  56              		.loc 1 15 0
  57 0014 FFF7FEFF 		bl	mpu_6050_init
  58              	.LVL3:
  16:project/main.c **** 
  17:project/main.c ****   uint8_t a = 0;
  59              		.loc 1 17 0
  60 0018 0024     		movs	r4, #0
  18:project/main.c **** 
  19:project/main.c ****   uint16_t dt = 0;
  20:project/main.c **** 
  21:project/main.c ****   while (1) {
  22:project/main.c ****     dt = TIM3->CNT;
  61              		.loc 1 22 0
  62 001a DFF81C81 		ldr	r8, .L5+48
  23:project/main.c ****     TIM3->CNT = 0;
  24:project/main.c ****     mpu6050_get_value();
  25:project/main.c ****     get_acc_value();
  26:project/main.c ****     get_gyro_rate();
  27:project/main.c ****     //ahrs computing ---------------          
  28:project/main.c ****     MadgwickAHRSupdateIMU(gyro_x_rate*M_PI/180,gyro_y_rate*M_PI/180,gyro_z_rate*M_PI/180,
  63              		.loc 1 28 0
  64 001e 3AA7     		adr	r7, .L5
  65 0020 D7E90067 		ldrd	r6, [r7]
  66              	.LVL4:
  67              	.L2:
  22:project/main.c ****     TIM3->CNT = 0;
  68              		.loc 1 22 0
  69 0024 B8F82450 		ldrh	r5, [r8, #36]
  70 0028 ADB2     		uxth	r5, r5
  71              	.LVL5:
  23:project/main.c ****     TIM3->CNT = 0;
  72              		.loc 1 23 0
  73 002a 0023     		movs	r3, #0
  74 002c A8F82430 		strh	r3, [r8, #36]	@ movhi
  24:project/main.c ****     get_acc_value();
  75              		.loc 1 24 0
  76 0030 FFF7FEFF 		bl	mpu6050_get_value
  77              	.LVL6:
  25:project/main.c ****     get_gyro_rate();
  78              		.loc 1 25 0
  79 0034 FFF7FEFF 		bl	get_acc_value
  80              	.LVL7:
  26:project/main.c ****     //ahrs computing ---------------          
  81              		.loc 1 26 0
ARM GAS  /tmp/cctJdLn9.s 			page 3


  82 0038 FFF7FEFF 		bl	get_gyro_rate
  83              	.LVL8:
  84              		.loc 1 28 0
  85 003c 344B     		ldr	r3, .L5+8
  86 003e D3F800B0 		ldr	fp, [r3]	@ float
  87 0042 344B     		ldr	r3, .L5+12
  88 0044 1868     		ldr	r0, [r3]	@ float
  89 0046 FFF7FEFF 		bl	__aeabi_f2d
  90              	.LVL9:
  91 004a 3246     		mov	r2, r6
  92 004c 3B46     		mov	r3, r7
  93 004e FFF7FEFF 		bl	__aeabi_dmul
  94              	.LVL10:
  95 0052 0022     		movs	r2, #0
  96 0054 304B     		ldr	r3, .L5+16
  97 0056 FFF7FEFF 		bl	__aeabi_ddiv
  98              	.LVL11:
  99 005a FFF7FEFF 		bl	__aeabi_d2f
 100              	.LVL12:
 101 005e 8246     		mov	r10, r0
 102 0060 2E4B     		ldr	r3, .L5+20
 103 0062 1868     		ldr	r0, [r3]	@ float
 104 0064 FFF7FEFF 		bl	__aeabi_f2d
 105              	.LVL13:
 106 0068 3246     		mov	r2, r6
 107 006a 3B46     		mov	r3, r7
 108 006c FFF7FEFF 		bl	__aeabi_dmul
 109              	.LVL14:
 110 0070 0022     		movs	r2, #0
 111 0072 294B     		ldr	r3, .L5+16
 112 0074 FFF7FEFF 		bl	__aeabi_ddiv
 113              	.LVL15:
 114 0078 FFF7FEFF 		bl	__aeabi_d2f
 115              	.LVL16:
 116 007c 8146     		mov	r9, r0
 117 007e 284B     		ldr	r3, .L5+24
 118 0080 1868     		ldr	r0, [r3]	@ float
 119 0082 FFF7FEFF 		bl	__aeabi_f2d
 120              	.LVL17:
 121 0086 3246     		mov	r2, r6
 122 0088 3B46     		mov	r3, r7
 123 008a FFF7FEFF 		bl	__aeabi_dmul
 124              	.LVL18:
 125 008e 0022     		movs	r2, #0
 126 0090 214B     		ldr	r3, .L5+16
 127 0092 FFF7FEFF 		bl	__aeabi_ddiv
 128              	.LVL19:
 129 0096 FFF7FEFF 		bl	__aeabi_d2f
 130              	.LVL20:
 131 009a 224B     		ldr	r3, .L5+28
 132 009c 1B68     		ldr	r3, [r3]	@ float
 133 009e 0193     		str	r3, [sp, #4]	@ float
 134 00a0 214B     		ldr	r3, .L5+32
 135 00a2 1B68     		ldr	r3, [r3]	@ float
 136 00a4 0093     		str	r3, [sp]	@ float
 137 00a6 5B46     		mov	r3, fp
 138 00a8 5246     		mov	r2, r10
ARM GAS  /tmp/cctJdLn9.s 			page 4


 139 00aa 4946     		mov	r1, r9
 140 00ac FFF7FEFF 		bl	MadgwickAHRSupdateIMU
 141              	.LVL21:
  29:project/main.c ****                       acc_x_temp,acc_y_temp,acc_z_temp);
  30:project/main.c ****     getRollPitchYaw();
 142              		.loc 1 30 0
 143 00b0 FFF7FEFF 		bl	getRollPitchYaw
 144              	.LVL22:
  31:project/main.c ****     a++;
 145              		.loc 1 31 0
 146 00b4 0134     		adds	r4, r4, #1
 147              	.LVL23:
  32:project/main.c ****     if ( a == 0 ){
 148              		.loc 1 32 0
 149 00b6 14F0FF04 		ands	r4, r4, #255
 150              	.LVL24:
 151 00ba B3D1     		bne	.L2
  33:project/main.c ****       myprintf("height:%f\tdt:%d\r\n", HCSR04_Get(), dt);
 152              		.loc 1 33 0
 153 00bc FFF7FEFF 		bl	HCSR04_Get
 154              	.LVL25:
 155 00c0 FFF7FEFF 		bl	__aeabi_f2d
 156              	.LVL26:
 157 00c4 0095     		str	r5, [sp]
 158 00c6 0246     		mov	r2, r0
 159 00c8 0B46     		mov	r3, r1
 160 00ca 1848     		ldr	r0, .L5+36
 161 00cc FFF7FEFF 		bl	myprintf
 162              	.LVL27:
  34:project/main.c ****       myprintf("roll:%f\tpitch:%f\tyaw:%f\r\n", rpy[0], rpy[1], rpy[2]);
 163              		.loc 1 34 0
 164 00d0 174B     		ldr	r3, .L5+40
 165 00d2 1868     		ldr	r0, [r3]	@ float
 166 00d4 5D68     		ldr	r5, [r3, #4]	@ float
 167              	.LVL28:
 168 00d6 D3F80890 		ldr	r9, [r3, #8]	@ float
 169 00da FFF7FEFF 		bl	__aeabi_f2d
 170              	.LVL29:
 171 00de 8246     		mov	r10, r0
 172 00e0 8B46     		mov	fp, r1
 173 00e2 4846     		mov	r0, r9
 174 00e4 FFF7FEFF 		bl	__aeabi_f2d
 175              	.LVL30:
 176 00e8 CDE90201 		strd	r0, [sp, #8]
 177 00ec 2846     		mov	r0, r5
 178 00ee FFF7FEFF 		bl	__aeabi_f2d
 179              	.LVL31:
 180 00f2 CDE90001 		strd	r0, [sp]
 181 00f6 5246     		mov	r2, r10
 182 00f8 5B46     		mov	r3, fp
 183 00fa 0E48     		ldr	r0, .L5+44
 184 00fc FFF7FEFF 		bl	myprintf
 185              	.LVL32:
 186 0100 90E7     		b	.L2
 187              	.L6:
 188 0102 00BFAFF3 		.align	3
 188      0080
ARM GAS  /tmp/cctJdLn9.s 			page 5


 189              	.L5:
 190 0108 182D4454 		.word	1413754136
 191 010c FB210940 		.word	1074340347
 192 0110 00000000 		.word	acc_x_temp
 193 0114 00000000 		.word	gyro_z_rate
 194 0118 00806640 		.word	1080459264
 195 011c 00000000 		.word	gyro_y_rate
 196 0120 00000000 		.word	gyro_x_rate
 197 0124 00000000 		.word	acc_z_temp
 198 0128 00000000 		.word	acc_y_temp
 199 012c 00000000 		.word	.LC0
 200 0130 00000000 		.word	rpy
 201 0134 14000000 		.word	.LC1
 202 0138 00040040 		.word	1073742848
 203              		.cfi_endproc
 204              	.LFE63:
 205              		.size	main, .-main
 206              		.section	.rodata.str1.4,"aMS",%progbits,1
 207              		.align	2
 208              	.LC0:
 209 0000 68656967 		.ascii	"height:%f\011dt:%d\015\012\000"
 209      68743A25 
 209      66096474 
 209      3A25640D 
 209      0A00
 210 0012 0000     		.space	2
 211              	.LC1:
 212 0014 726F6C6C 		.ascii	"roll:%f\011pitch:%f\011yaw:%f\015\012\000"
 212      3A256609 
 212      70697463 
 212      683A2566 
 212      09796177 
 213              		.text
 214              	.Letext0:
 215              		.file 2 "/usr/arm-none-eabi/include/machine/_default_types.h"
 216              		.file 3 "/usr/arm-none-eabi/include/sys/_stdint.h"
 217              		.file 4 "/home/faker/Documents/code/STM/stm32-quadrocopter/cmsis/core_cm3.h"
 218              		.file 5 "/home/faker/Documents/code/STM/stm32-quadrocopter/lib/inc/system_stm32f10x.h"
 219              		.file 6 "/home/faker/Documents/code/STM/stm32-quadrocopter/lib/inc/stm32f10x.h"
 220              		.file 7 "/home/faker/Documents/code/STM/stm32-quadrocopter/drivers/ahrs.h"
 221              		.file 8 "/home/faker/Documents/code/STM/stm32-quadrocopter/drivers/nvic.h"
 222              		.file 9 "/home/faker/Documents/code/STM/stm32-quadrocopter/drivers/mpu6050.h"
 223              		.file 10 "/home/faker/Documents/code/STM/stm32-quadrocopter/drivers/kalman.h"
 224              		.file 11 "/usr/arm-none-eabi/include/sys/lock.h"
 225              		.file 12 "/usr/arm-none-eabi/include/sys/_types.h"
 226              		.file 13 "/usr/lib/gcc/arm-none-eabi/6.1.1/include/stddef.h"
 227              		.file 14 "/usr/arm-none-eabi/include/sys/reent.h"
 228              		.file 15 "/usr/arm-none-eabi/include/stdlib.h"
 229              		.file 16 "/usr/arm-none-eabi/include/math.h"
 230              		.file 17 "/usr/arm-none-eabi/include/sys/errno.h"
 231              		.file 18 "/home/faker/Documents/code/STM/stm32-quadrocopter/drivers/tools.h"
 232              		.section	.debug_info,"",%progbits
 233              	.Ldebug_info0:
 234 0000 020F0000 		.4byte	0xf02
 235 0004 0400     		.2byte	0x4
 236 0006 00000000 		.4byte	.Ldebug_abbrev0
 237 000a 04       		.byte	0x4
ARM GAS  /tmp/cctJdLn9.s 			page 6


 238 000b 01       		.uleb128 0x1
 239 000c 45080000 		.4byte	.LASF219
 240 0010 0C       		.byte	0xc
 241 0011 70020000 		.4byte	.LASF220
 242 0015 5F050000 		.4byte	.LASF221
 243 0019 00000000 		.4byte	.Ltext0
 244 001d 3C010000 		.4byte	.Letext0-.Ltext0
 245 0021 00000000 		.4byte	.Ldebug_line0
 246 0025 02       		.uleb128 0x2
 247 0026 04       		.byte	0x4
 248 0027 04       		.byte	0x4
 249 0028 C5040000 		.4byte	.LASF0
 250 002c 02       		.uleb128 0x2
 251 002d 01       		.byte	0x1
 252 002e 06       		.byte	0x6
 253 002f 42010000 		.4byte	.LASF1
 254 0033 03       		.uleb128 0x3
 255 0034 5E000000 		.4byte	.LASF3
 256 0038 02       		.byte	0x2
 257 0039 1D       		.byte	0x1d
 258 003a 3E000000 		.4byte	0x3e
 259 003e 02       		.uleb128 0x2
 260 003f 01       		.byte	0x1
 261 0040 08       		.byte	0x8
 262 0041 51050000 		.4byte	.LASF2
 263 0045 03       		.uleb128 0x3
 264 0046 F0070000 		.4byte	.LASF4
 265 004a 02       		.byte	0x2
 266 004b 29       		.byte	0x29
 267 004c 50000000 		.4byte	0x50
 268 0050 02       		.uleb128 0x2
 269 0051 02       		.byte	0x2
 270 0052 05       		.byte	0x5
 271 0053 0A000000 		.4byte	.LASF5
 272 0057 03       		.uleb128 0x3
 273 0058 AB020000 		.4byte	.LASF6
 274 005c 02       		.byte	0x2
 275 005d 2B       		.byte	0x2b
 276 005e 62000000 		.4byte	0x62
 277 0062 02       		.uleb128 0x2
 278 0063 02       		.byte	0x2
 279 0064 07       		.byte	0x7
 280 0065 92030000 		.4byte	.LASF7
 281 0069 03       		.uleb128 0x3
 282 006a DC060000 		.4byte	.LASF8
 283 006e 02       		.byte	0x2
 284 006f 3F       		.byte	0x3f
 285 0070 74000000 		.4byte	0x74
 286 0074 02       		.uleb128 0x2
 287 0075 04       		.byte	0x4
 288 0076 05       		.byte	0x5
 289 0077 DF010000 		.4byte	.LASF9
 290 007b 03       		.uleb128 0x3
 291 007c C7020000 		.4byte	.LASF10
 292 0080 02       		.byte	0x2
 293 0081 41       		.byte	0x41
 294 0082 86000000 		.4byte	0x86
ARM GAS  /tmp/cctJdLn9.s 			page 7


 295 0086 02       		.uleb128 0x2
 296 0087 04       		.byte	0x4
 297 0088 07       		.byte	0x7
 298 0089 4B030000 		.4byte	.LASF11
 299 008d 02       		.uleb128 0x2
 300 008e 08       		.byte	0x8
 301 008f 05       		.byte	0x5
 302 0090 31020000 		.4byte	.LASF12
 303 0094 02       		.uleb128 0x2
 304 0095 08       		.byte	0x8
 305 0096 07       		.byte	0x7
 306 0097 54010000 		.4byte	.LASF13
 307 009b 04       		.uleb128 0x4
 308 009c 04       		.byte	0x4
 309 009d 05       		.byte	0x5
 310 009e 696E7400 		.ascii	"int\000"
 311 00a2 02       		.uleb128 0x2
 312 00a3 04       		.byte	0x4
 313 00a4 07       		.byte	0x7
 314 00a5 B8060000 		.4byte	.LASF14
 315 00a9 03       		.uleb128 0x3
 316 00aa D0070000 		.4byte	.LASF15
 317 00ae 03       		.byte	0x3
 318 00af 18       		.byte	0x18
 319 00b0 33000000 		.4byte	0x33
 320 00b4 03       		.uleb128 0x3
 321 00b5 2D010000 		.4byte	.LASF16
 322 00b9 03       		.byte	0x3
 323 00ba 20       		.byte	0x20
 324 00bb 45000000 		.4byte	0x45
 325 00bf 03       		.uleb128 0x3
 326 00c0 3F020000 		.4byte	.LASF17
 327 00c4 03       		.byte	0x3
 328 00c5 24       		.byte	0x24
 329 00c6 57000000 		.4byte	0x57
 330 00ca 05       		.uleb128 0x5
 331 00cb BF000000 		.4byte	0xbf
 332 00cf 03       		.uleb128 0x3
 333 00d0 49050000 		.4byte	.LASF18
 334 00d4 03       		.byte	0x3
 335 00d5 2C       		.byte	0x2c
 336 00d6 69000000 		.4byte	0x69
 337 00da 05       		.uleb128 0x5
 338 00db CF000000 		.4byte	0xcf
 339 00df 03       		.uleb128 0x3
 340 00e0 A6080000 		.4byte	.LASF19
 341 00e4 03       		.byte	0x3
 342 00e5 30       		.byte	0x30
 343 00e6 7B000000 		.4byte	0x7b
 344 00ea 02       		.uleb128 0x2
 345 00eb 04       		.byte	0x4
 346 00ec 07       		.byte	0x7
 347 00ed 22040000 		.4byte	.LASF20
 348 00f1 06       		.uleb128 0x6
 349 00f2 E7000000 		.4byte	.LASF21
 350 00f6 04       		.byte	0x4
 351 00f7 9606     		.2byte	0x696
ARM GAS  /tmp/cctJdLn9.s 			page 8


 352 00f9 DA000000 		.4byte	0xda
 353 00fd 07       		.uleb128 0x7
 354 00fe 33030000 		.4byte	.LASF22
 355 0102 05       		.byte	0x5
 356 0103 35       		.byte	0x35
 357 0104 DF000000 		.4byte	0xdf
 358 0108 08       		.uleb128 0x8
 359 0109 50       		.byte	0x50
 360 010a 06       		.byte	0x6
 361 010b A204     		.2byte	0x4a2
 362 010d 19030000 		.4byte	0x319
 363 0111 09       		.uleb128 0x9
 364 0112 43523100 		.ascii	"CR1\000"
 365 0116 06       		.byte	0x6
 366 0117 A404     		.2byte	0x4a4
 367 0119 CA000000 		.4byte	0xca
 368 011d 00       		.byte	0
 369 011e 0A       		.uleb128 0xa
 370 011f D5040000 		.4byte	.LASF23
 371 0123 06       		.byte	0x6
 372 0124 A504     		.2byte	0x4a5
 373 0126 BF000000 		.4byte	0xbf
 374 012a 02       		.byte	0x2
 375 012b 09       		.uleb128 0x9
 376 012c 43523200 		.ascii	"CR2\000"
 377 0130 06       		.byte	0x6
 378 0131 A604     		.2byte	0x4a6
 379 0133 CA000000 		.4byte	0xca
 380 0137 04       		.byte	0x4
 381 0138 0A       		.uleb128 0xa
 382 0139 DF040000 		.4byte	.LASF24
 383 013d 06       		.byte	0x6
 384 013e A704     		.2byte	0x4a7
 385 0140 BF000000 		.4byte	0xbf
 386 0144 06       		.byte	0x6
 387 0145 0A       		.uleb128 0xa
 388 0146 AD060000 		.4byte	.LASF25
 389 014a 06       		.byte	0x6
 390 014b A804     		.2byte	0x4a8
 391 014d CA000000 		.4byte	0xca
 392 0151 08       		.byte	0x8
 393 0152 0A       		.uleb128 0xa
 394 0153 E9040000 		.4byte	.LASF26
 395 0157 06       		.byte	0x6
 396 0158 A904     		.2byte	0x4a9
 397 015a BF000000 		.4byte	0xbf
 398 015e 0A       		.byte	0xa
 399 015f 0A       		.uleb128 0xa
 400 0160 2F000000 		.4byte	.LASF27
 401 0164 06       		.byte	0x6
 402 0165 AA04     		.2byte	0x4aa
 403 0167 CA000000 		.4byte	0xca
 404 016b 0C       		.byte	0xc
 405 016c 0A       		.uleb128 0xa
 406 016d F3040000 		.4byte	.LASF28
 407 0171 06       		.byte	0x6
 408 0172 AB04     		.2byte	0x4ab
ARM GAS  /tmp/cctJdLn9.s 			page 9


 409 0174 BF000000 		.4byte	0xbf
 410 0178 0E       		.byte	0xe
 411 0179 09       		.uleb128 0x9
 412 017a 535200   		.ascii	"SR\000"
 413 017d 06       		.byte	0x6
 414 017e AC04     		.2byte	0x4ac
 415 0180 CA000000 		.4byte	0xca
 416 0184 10       		.byte	0x10
 417 0185 0A       		.uleb128 0xa
 418 0186 FD040000 		.4byte	.LASF29
 419 018a 06       		.byte	0x6
 420 018b AD04     		.2byte	0x4ad
 421 018d BF000000 		.4byte	0xbf
 422 0191 12       		.byte	0x12
 423 0192 09       		.uleb128 0x9
 424 0193 45475200 		.ascii	"EGR\000"
 425 0197 06       		.byte	0x6
 426 0198 AE04     		.2byte	0x4ae
 427 019a CA000000 		.4byte	0xca
 428 019e 14       		.byte	0x14
 429 019f 0A       		.uleb128 0xa
 430 01a0 07050000 		.4byte	.LASF30
 431 01a4 06       		.byte	0x6
 432 01a5 AF04     		.2byte	0x4af
 433 01a7 BF000000 		.4byte	0xbf
 434 01ab 16       		.byte	0x16
 435 01ac 0A       		.uleb128 0xa
 436 01ad 68000000 		.4byte	.LASF31
 437 01b1 06       		.byte	0x6
 438 01b2 B004     		.2byte	0x4b0
 439 01b4 CA000000 		.4byte	0xca
 440 01b8 18       		.byte	0x18
 441 01b9 0A       		.uleb128 0xa
 442 01ba 11050000 		.4byte	.LASF32
 443 01be 06       		.byte	0x6
 444 01bf B104     		.2byte	0x4b1
 445 01c1 BF000000 		.4byte	0xbf
 446 01c5 1A       		.byte	0x1a
 447 01c6 0A       		.uleb128 0xa
 448 01c7 35010000 		.4byte	.LASF33
 449 01cb 06       		.byte	0x6
 450 01cc B204     		.2byte	0x4b2
 451 01ce CA000000 		.4byte	0xca
 452 01d2 1C       		.byte	0x1c
 453 01d3 0A       		.uleb128 0xa
 454 01d4 53060000 		.4byte	.LASF34
 455 01d8 06       		.byte	0x6
 456 01d9 B304     		.2byte	0x4b3
 457 01db BF000000 		.4byte	0xbf
 458 01df 1E       		.byte	0x1e
 459 01e0 0A       		.uleb128 0xa
 460 01e1 2C020000 		.4byte	.LASF35
 461 01e5 06       		.byte	0x6
 462 01e6 B404     		.2byte	0x4b4
 463 01e8 CA000000 		.4byte	0xca
 464 01ec 20       		.byte	0x20
 465 01ed 0A       		.uleb128 0xa
ARM GAS  /tmp/cctJdLn9.s 			page 10


 466 01ee 1B050000 		.4byte	.LASF36
 467 01f2 06       		.byte	0x6
 468 01f3 B504     		.2byte	0x4b5
 469 01f5 BF000000 		.4byte	0xbf
 470 01f9 22       		.byte	0x22
 471 01fa 09       		.uleb128 0x9
 472 01fb 434E5400 		.ascii	"CNT\000"
 473 01ff 06       		.byte	0x6
 474 0200 B604     		.2byte	0x4b6
 475 0202 CA000000 		.4byte	0xca
 476 0206 24       		.byte	0x24
 477 0207 0A       		.uleb128 0xa
 478 0208 25050000 		.4byte	.LASF37
 479 020c 06       		.byte	0x6
 480 020d B704     		.2byte	0x4b7
 481 020f BF000000 		.4byte	0xbf
 482 0213 26       		.byte	0x26
 483 0214 09       		.uleb128 0x9
 484 0215 50534300 		.ascii	"PSC\000"
 485 0219 06       		.byte	0x6
 486 021a B804     		.2byte	0x4b8
 487 021c CA000000 		.4byte	0xca
 488 0220 28       		.byte	0x28
 489 0221 0A       		.uleb128 0xa
 490 0222 50070000 		.4byte	.LASF38
 491 0226 06       		.byte	0x6
 492 0227 B904     		.2byte	0x4b9
 493 0229 BF000000 		.4byte	0xbf
 494 022d 2A       		.byte	0x2a
 495 022e 09       		.uleb128 0x9
 496 022f 41525200 		.ascii	"ARR\000"
 497 0233 06       		.byte	0x6
 498 0234 BA04     		.2byte	0x4ba
 499 0236 CA000000 		.4byte	0xca
 500 023a 2C       		.byte	0x2c
 501 023b 0A       		.uleb128 0xa
 502 023c 4C040000 		.4byte	.LASF39
 503 0240 06       		.byte	0x6
 504 0241 BB04     		.2byte	0x4bb
 505 0243 BF000000 		.4byte	0xbf
 506 0247 2E       		.byte	0x2e
 507 0248 09       		.uleb128 0x9
 508 0249 52435200 		.ascii	"RCR\000"
 509 024d 06       		.byte	0x6
 510 024e BC04     		.2byte	0x4bc
 511 0250 CA000000 		.4byte	0xca
 512 0254 30       		.byte	0x30
 513 0255 0A       		.uleb128 0xa
 514 0256 88010000 		.4byte	.LASF40
 515 025a 06       		.byte	0x6
 516 025b BD04     		.2byte	0x4bd
 517 025d BF000000 		.4byte	0xbf
 518 0261 32       		.byte	0x32
 519 0262 0A       		.uleb128 0xa
 520 0263 95070000 		.4byte	.LASF41
 521 0267 06       		.byte	0x6
 522 0268 BE04     		.2byte	0x4be
ARM GAS  /tmp/cctJdLn9.s 			page 11


 523 026a CA000000 		.4byte	0xca
 524 026e 34       		.byte	0x34
 525 026f 0A       		.uleb128 0xa
 526 0270 93010000 		.4byte	.LASF42
 527 0274 06       		.byte	0x6
 528 0275 BF04     		.2byte	0x4bf
 529 0277 BF000000 		.4byte	0xbf
 530 027b 36       		.byte	0x36
 531 027c 0A       		.uleb128 0xa
 532 027d 9A070000 		.4byte	.LASF43
 533 0281 06       		.byte	0x6
 534 0282 C004     		.2byte	0x4c0
 535 0284 CA000000 		.4byte	0xca
 536 0288 38       		.byte	0x38
 537 0289 0A       		.uleb128 0xa
 538 028a 9E010000 		.4byte	.LASF44
 539 028e 06       		.byte	0x6
 540 028f C104     		.2byte	0x4c1
 541 0291 BF000000 		.4byte	0xbf
 542 0295 3A       		.byte	0x3a
 543 0296 0A       		.uleb128 0xa
 544 0297 9F070000 		.4byte	.LASF45
 545 029b 06       		.byte	0x6
 546 029c C204     		.2byte	0x4c2
 547 029e CA000000 		.4byte	0xca
 548 02a2 3C       		.byte	0x3c
 549 02a3 0A       		.uleb128 0xa
 550 02a4 A9010000 		.4byte	.LASF46
 551 02a8 06       		.byte	0x6
 552 02a9 C304     		.2byte	0x4c3
 553 02ab BF000000 		.4byte	0xbf
 554 02af 3E       		.byte	0x3e
 555 02b0 0A       		.uleb128 0xa
 556 02b1 A4070000 		.4byte	.LASF47
 557 02b5 06       		.byte	0x6
 558 02b6 C404     		.2byte	0x4c4
 559 02b8 CA000000 		.4byte	0xca
 560 02bc 40       		.byte	0x40
 561 02bd 0A       		.uleb128 0xa
 562 02be A9070000 		.4byte	.LASF48
 563 02c2 06       		.byte	0x6
 564 02c3 C504     		.2byte	0x4c5
 565 02c5 BF000000 		.4byte	0xbf
 566 02c9 42       		.byte	0x42
 567 02ca 0A       		.uleb128 0xa
 568 02cb 13010000 		.4byte	.LASF49
 569 02cf 06       		.byte	0x6
 570 02d0 C604     		.2byte	0x4c6
 571 02d2 CA000000 		.4byte	0xca
 572 02d6 44       		.byte	0x44
 573 02d7 0A       		.uleb128 0xa
 574 02d8 BC010000 		.4byte	.LASF50
 575 02dc 06       		.byte	0x6
 576 02dd C704     		.2byte	0x4c7
 577 02df BF000000 		.4byte	0xbf
 578 02e3 46       		.byte	0x46
 579 02e4 09       		.uleb128 0x9
ARM GAS  /tmp/cctJdLn9.s 			page 12


 580 02e5 44435200 		.ascii	"DCR\000"
 581 02e9 06       		.byte	0x6
 582 02ea C804     		.2byte	0x4c8
 583 02ec CA000000 		.4byte	0xca
 584 02f0 48       		.byte	0x48
 585 02f1 0A       		.uleb128 0xa
 586 02f2 AA040000 		.4byte	.LASF51
 587 02f6 06       		.byte	0x6
 588 02f7 C904     		.2byte	0x4c9
 589 02f9 BF000000 		.4byte	0xbf
 590 02fd 4A       		.byte	0x4a
 591 02fe 0A       		.uleb128 0xa
 592 02ff C5060000 		.4byte	.LASF52
 593 0303 06       		.byte	0x6
 594 0304 CA04     		.2byte	0x4ca
 595 0306 CA000000 		.4byte	0xca
 596 030a 4C       		.byte	0x4c
 597 030b 0A       		.uleb128 0xa
 598 030c CF010000 		.4byte	.LASF53
 599 0310 06       		.byte	0x6
 600 0311 CB04     		.2byte	0x4cb
 601 0313 BF000000 		.4byte	0xbf
 602 0317 4E       		.byte	0x4e
 603 0318 00       		.byte	0
 604 0319 0B       		.uleb128 0xb
 605 031a 7E000000 		.4byte	.LASF54
 606 031e 06       		.byte	0x6
 607 031f CC04     		.2byte	0x4cc
 608 0321 08010000 		.4byte	0x108
 609 0325 07       		.uleb128 0x7
 610 0326 B4070000 		.4byte	.LASF55
 611 032a 07       		.byte	0x7
 612 032b 1A       		.byte	0x1a
 613 032c 30030000 		.4byte	0x330
 614 0330 05       		.uleb128 0x5
 615 0331 25000000 		.4byte	0x25
 616 0335 0C       		.uleb128 0xc
 617 0336 713000   		.ascii	"q0\000"
 618 0339 07       		.byte	0x7
 619 033a 1B       		.byte	0x1b
 620 033b 30030000 		.4byte	0x330
 621 033f 0C       		.uleb128 0xc
 622 0340 713100   		.ascii	"q1\000"
 623 0343 07       		.byte	0x7
 624 0344 1B       		.byte	0x1b
 625 0345 30030000 		.4byte	0x330
 626 0349 0C       		.uleb128 0xc
 627 034a 713200   		.ascii	"q2\000"
 628 034d 07       		.byte	0x7
 629 034e 1B       		.byte	0x1b
 630 034f 30030000 		.4byte	0x330
 631 0353 0C       		.uleb128 0xc
 632 0354 713300   		.ascii	"q3\000"
 633 0357 07       		.byte	0x7
 634 0358 1B       		.byte	0x1b
 635 0359 30030000 		.4byte	0x330
 636 035d 0D       		.uleb128 0xd
ARM GAS  /tmp/cctJdLn9.s 			page 13


 637 035e 30030000 		.4byte	0x330
 638 0362 6D030000 		.4byte	0x36d
 639 0366 0E       		.uleb128 0xe
 640 0367 EA000000 		.4byte	0xea
 641 036b 02       		.byte	0x2
 642 036c 00       		.byte	0
 643 036d 05       		.uleb128 0x5
 644 036e 5D030000 		.4byte	0x35d
 645 0372 0C       		.uleb128 0xc
 646 0373 72707900 		.ascii	"rpy\000"
 647 0377 07       		.byte	0x7
 648 0378 1C       		.byte	0x1c
 649 0379 6D030000 		.4byte	0x36d
 650 037d 07       		.uleb128 0x7
 651 037e E6060000 		.4byte	.LASF56
 652 0382 07       		.byte	0x7
 653 0383 1C       		.byte	0x1c
 654 0384 6D030000 		.4byte	0x36d
 655 0388 07       		.uleb128 0x7
 656 0389 81030000 		.4byte	.LASF57
 657 038d 08       		.byte	0x8
 658 038e 0A       		.byte	0xa
 659 038f BF000000 		.4byte	0xbf
 660 0393 07       		.uleb128 0x7
 661 0394 76060000 		.4byte	.LASF58
 662 0398 08       		.byte	0x8
 663 0399 0B       		.byte	0xb
 664 039a BF000000 		.4byte	0xbf
 665 039e 07       		.uleb128 0x7
 666 039f 02040000 		.4byte	.LASF59
 667 03a3 09       		.byte	0x9
 668 03a4 07       		.byte	0x7
 669 03a5 B4000000 		.4byte	0xb4
 670 03a9 07       		.uleb128 0x7
 671 03aa AA000000 		.4byte	.LASF60
 672 03ae 09       		.byte	0x9
 673 03af 07       		.byte	0x7
 674 03b0 B4000000 		.4byte	0xb4
 675 03b4 07       		.uleb128 0x7
 676 03b5 1B040000 		.4byte	.LASF61
 677 03b9 09       		.byte	0x9
 678 03ba 07       		.byte	0x7
 679 03bb B4000000 		.4byte	0xb4
 680 03bf 07       		.uleb128 0x7
 681 03c0 5D030000 		.4byte	.LASF62
 682 03c4 09       		.byte	0x9
 683 03c5 08       		.byte	0x8
 684 03c6 B4000000 		.4byte	0xb4
 685 03ca 07       		.uleb128 0x7
 686 03cb 21000000 		.4byte	.LASF63
 687 03cf 09       		.byte	0x9
 688 03d0 08       		.byte	0x8
 689 03d1 B4000000 		.4byte	0xb4
 690 03d5 07       		.uleb128 0x7
 691 03d6 69030000 		.4byte	.LASF64
 692 03da 09       		.byte	0x9
 693 03db 08       		.byte	0x8
ARM GAS  /tmp/cctJdLn9.s 			page 14


 694 03dc B4000000 		.4byte	0xb4
 695 03e0 07       		.uleb128 0x7
 696 03e1 2B040000 		.4byte	.LASF65
 697 03e5 09       		.byte	0x9
 698 03e6 09       		.byte	0x9
 699 03e7 25000000 		.4byte	0x25
 700 03eb 07       		.uleb128 0x7
 701 03ec 2B080000 		.4byte	.LASF66
 702 03f0 09       		.byte	0x9
 703 03f1 09       		.byte	0x9
 704 03f2 25000000 		.4byte	0x25
 705 03f6 07       		.uleb128 0x7
 706 03f7 F2010000 		.4byte	.LASF67
 707 03fb 09       		.byte	0x9
 708 03fc 09       		.byte	0x9
 709 03fd 25000000 		.4byte	0x25
 710 0401 07       		.uleb128 0x7
 711 0402 12030000 		.4byte	.LASF68
 712 0406 09       		.byte	0x9
 713 0407 0A       		.byte	0xa
 714 0408 25000000 		.4byte	0x25
 715 040c 07       		.uleb128 0x7
 716 040d 03070000 		.4byte	.LASF69
 717 0411 09       		.byte	0x9
 718 0412 0A       		.byte	0xa
 719 0413 25000000 		.4byte	0x25
 720 0417 07       		.uleb128 0x7
 721 0418 91050000 		.4byte	.LASF70
 722 041c 09       		.byte	0x9
 723 041d 0B       		.byte	0xb
 724 041e 25000000 		.4byte	0x25
 725 0422 07       		.uleb128 0x7
 726 0423 B1000000 		.4byte	.LASF71
 727 0427 09       		.byte	0x9
 728 0428 0B       		.byte	0xb
 729 0429 25000000 		.4byte	0x25
 730 042d 07       		.uleb128 0x7
 731 042e 37040000 		.4byte	.LASF72
 732 0432 09       		.byte	0x9
 733 0433 0B       		.byte	0xb
 734 0434 25000000 		.4byte	0x25
 735 0438 07       		.uleb128 0x7
 736 0439 27000000 		.4byte	.LASF73
 737 043d 09       		.byte	0x9
 738 043e 0C       		.byte	0xc
 739 043f 25000000 		.4byte	0x25
 740 0443 0C       		.uleb128 0xc
 741 0444 647400   		.ascii	"dt\000"
 742 0447 09       		.byte	0x9
 743 0448 0D       		.byte	0xd
 744 0449 25000000 		.4byte	0x25
 745 044d 07       		.uleb128 0x7
 746 044e DA010000 		.4byte	.LASF74
 747 0452 09       		.byte	0x9
 748 0453 0D       		.byte	0xd
 749 0454 25000000 		.4byte	0x25
 750 0458 07       		.uleb128 0x7
ARM GAS  /tmp/cctJdLn9.s 			page 15


 751 0459 E2000000 		.4byte	.LASF75
 752 045d 09       		.byte	0x9
 753 045e 0E       		.byte	0xe
 754 045f A9000000 		.4byte	0xa9
 755 0463 0D       		.uleb128 0xd
 756 0464 A9000000 		.4byte	0xa9
 757 0468 73040000 		.4byte	0x473
 758 046c 0E       		.uleb128 0xe
 759 046d EA000000 		.4byte	0xea
 760 0471 13       		.byte	0x13
 761 0472 00       		.byte	0
 762 0473 07       		.uleb128 0x7
 763 0474 D2030000 		.4byte	.LASF76
 764 0478 09       		.byte	0x9
 765 0479 0E       		.byte	0xe
 766 047a 63040000 		.4byte	0x463
 767 047e 07       		.uleb128 0x7
 768 047f 00000000 		.4byte	.LASF77
 769 0483 09       		.byte	0x9
 770 0484 0E       		.byte	0xe
 771 0485 63040000 		.4byte	0x463
 772 0489 07       		.uleb128 0x7
 773 048a 08080000 		.4byte	.LASF78
 774 048e 0A       		.byte	0xa
 775 048f 03       		.byte	0x3
 776 0490 25000000 		.4byte	0x25
 777 0494 07       		.uleb128 0x7
 778 0495 68020000 		.4byte	.LASF79
 779 0499 0A       		.byte	0xa
 780 049a 04       		.byte	0x4
 781 049b 25000000 		.4byte	0x25
 782 049f 07       		.uleb128 0x7
 783 04a0 2F050000 		.4byte	.LASF80
 784 04a4 0A       		.byte	0xa
 785 04a5 05       		.byte	0x5
 786 04a6 25000000 		.4byte	0x25
 787 04aa 07       		.uleb128 0x7
 788 04ab B9080000 		.4byte	.LASF81
 789 04af 0A       		.byte	0xa
 790 04b0 07       		.byte	0x7
 791 04b1 25000000 		.4byte	0x25
 792 04b5 07       		.uleb128 0x7
 793 04b6 26010000 		.4byte	.LASF82
 794 04ba 0A       		.byte	0xa
 795 04bb 08       		.byte	0x8
 796 04bc 25000000 		.4byte	0x25
 797 04c0 07       		.uleb128 0x7
 798 04c1 B6020000 		.4byte	.LASF83
 799 04c5 0A       		.byte	0xa
 800 04c6 09       		.byte	0x9
 801 04c7 25000000 		.4byte	0x25
 802 04cb 07       		.uleb128 0x7
 803 04cc BC020000 		.4byte	.LASF84
 804 04d0 0A       		.byte	0xa
 805 04d1 09       		.byte	0x9
 806 04d2 25000000 		.4byte	0x25
 807 04d6 07       		.uleb128 0x7
ARM GAS  /tmp/cctJdLn9.s 			page 16


 808 04d7 A5030000 		.4byte	.LASF85
 809 04db 0A       		.byte	0xa
 810 04dc 09       		.byte	0x9
 811 04dd 25000000 		.4byte	0x25
 812 04e1 07       		.uleb128 0x7
 813 04e2 8C030000 		.4byte	.LASF86
 814 04e6 0A       		.byte	0xa
 815 04e7 09       		.byte	0x9
 816 04e8 25000000 		.4byte	0x25
 817 04ec 0C       		.uleb128 0xc
 818 04ed 64745800 		.ascii	"dtX\000"
 819 04f1 0A       		.byte	0xa
 820 04f2 0A       		.byte	0xa
 821 04f3 25000000 		.4byte	0x25
 822 04f7 0C       		.uleb128 0xc
 823 04f8 795800   		.ascii	"yX\000"
 824 04fb 0A       		.byte	0xa
 825 04fc 0A       		.byte	0xa
 826 04fd 25000000 		.4byte	0x25
 827 0501 0C       		.uleb128 0xc
 828 0502 535800   		.ascii	"SX\000"
 829 0505 0A       		.byte	0xa
 830 0506 0A       		.byte	0xa
 831 0507 25000000 		.4byte	0x25
 832 050b 07       		.uleb128 0x7
 833 050c 47040000 		.4byte	.LASF87
 834 0510 0A       		.byte	0xa
 835 0511 0B       		.byte	0xb
 836 0512 25000000 		.4byte	0x25
 837 0516 07       		.uleb128 0x7
 838 0517 57040000 		.4byte	.LASF88
 839 051b 0A       		.byte	0xa
 840 051c 0B       		.byte	0xb
 841 051d 25000000 		.4byte	0x25
 842 0521 02       		.uleb128 0x2
 843 0522 08       		.byte	0x8
 844 0523 04       		.byte	0x4
 845 0524 89060000 		.4byte	.LASF89
 846 0528 03       		.uleb128 0x3
 847 0529 09040000 		.4byte	.LASF90
 848 052d 0B       		.byte	0xb
 849 052e 07       		.byte	0x7
 850 052f 9B000000 		.4byte	0x9b
 851 0533 03       		.uleb128 0x3
 852 0534 77000000 		.4byte	.LASF91
 853 0538 0C       		.byte	0xc
 854 0539 2C       		.byte	0x2c
 855 053a 74000000 		.4byte	0x74
 856 053e 03       		.uleb128 0x3
 857 053f 81060000 		.4byte	.LASF92
 858 0543 0C       		.byte	0xc
 859 0544 72       		.byte	0x72
 860 0545 74000000 		.4byte	0x74
 861 0549 0B       		.uleb128 0xb
 862 054a A3040000 		.4byte	.LASF93
 863 054e 0D       		.byte	0xd
 864 054f 6501     		.2byte	0x165
ARM GAS  /tmp/cctJdLn9.s 			page 17


 865 0551 A2000000 		.4byte	0xa2
 866 0555 0F       		.uleb128 0xf
 867 0556 04       		.byte	0x4
 868 0557 0C       		.byte	0xc
 869 0558 A6       		.byte	0xa6
 870 0559 74050000 		.4byte	0x574
 871 055d 10       		.uleb128 0x10
 872 055e C0030000 		.4byte	.LASF94
 873 0562 0C       		.byte	0xc
 874 0563 A8       		.byte	0xa8
 875 0564 49050000 		.4byte	0x549
 876 0568 10       		.uleb128 0x10
 877 0569 2C030000 		.4byte	.LASF95
 878 056d 0C       		.byte	0xc
 879 056e A9       		.byte	0xa9
 880 056f 74050000 		.4byte	0x574
 881 0573 00       		.byte	0
 882 0574 0D       		.uleb128 0xd
 883 0575 3E000000 		.4byte	0x3e
 884 0579 84050000 		.4byte	0x584
 885 057d 0E       		.uleb128 0xe
 886 057e EA000000 		.4byte	0xea
 887 0582 03       		.byte	0x3
 888 0583 00       		.byte	0
 889 0584 11       		.uleb128 0x11
 890 0585 08       		.byte	0x8
 891 0586 0C       		.byte	0xc
 892 0587 A3       		.byte	0xa3
 893 0588 A5050000 		.4byte	0x5a5
 894 058c 12       		.uleb128 0x12
 895 058d 43060000 		.4byte	.LASF96
 896 0591 0C       		.byte	0xc
 897 0592 A5       		.byte	0xa5
 898 0593 9B000000 		.4byte	0x9b
 899 0597 00       		.byte	0
 900 0598 12       		.uleb128 0x12
 901 0599 4B060000 		.4byte	.LASF97
 902 059d 0C       		.byte	0xc
 903 059e AA       		.byte	0xaa
 904 059f 55050000 		.4byte	0x555
 905 05a3 04       		.byte	0x4
 906 05a4 00       		.byte	0
 907 05a5 03       		.uleb128 0x3
 908 05a6 D2050000 		.4byte	.LASF98
 909 05aa 0C       		.byte	0xc
 910 05ab AB       		.byte	0xab
 911 05ac 84050000 		.4byte	0x584
 912 05b0 03       		.uleb128 0x3
 913 05b1 9C050000 		.4byte	.LASF99
 914 05b5 0C       		.byte	0xc
 915 05b6 AF       		.byte	0xaf
 916 05b7 28050000 		.4byte	0x528
 917 05bb 13       		.uleb128 0x13
 918 05bc 04       		.byte	0x4
 919 05bd 14       		.uleb128 0x14
 920 05be 04       		.byte	0x4
 921 05bf C3050000 		.4byte	0x5c3
ARM GAS  /tmp/cctJdLn9.s 			page 18


 922 05c3 02       		.uleb128 0x2
 923 05c4 01       		.byte	0x1
 924 05c5 08       		.byte	0x8
 925 05c6 9C060000 		.4byte	.LASF100
 926 05ca 15       		.uleb128 0x15
 927 05cb C3050000 		.4byte	0x5c3
 928 05cf 03       		.uleb128 0x3
 929 05d0 2A070000 		.4byte	.LASF101
 930 05d4 0E       		.byte	0xe
 931 05d5 16       		.byte	0x16
 932 05d6 86000000 		.4byte	0x86
 933 05da 16       		.uleb128 0x16
 934 05db EC020000 		.4byte	.LASF106
 935 05df 18       		.byte	0x18
 936 05e0 0E       		.byte	0xe
 937 05e1 2D       		.byte	0x2d
 938 05e2 2D060000 		.4byte	0x62d
 939 05e6 12       		.uleb128 0x12
 940 05e7 FD020000 		.4byte	.LASF102
 941 05eb 0E       		.byte	0xe
 942 05ec 2F       		.byte	0x2f
 943 05ed 2D060000 		.4byte	0x62d
 944 05f1 00       		.byte	0
 945 05f2 17       		.uleb128 0x17
 946 05f3 5F6B00   		.ascii	"_k\000"
 947 05f6 0E       		.byte	0xe
 948 05f7 30       		.byte	0x30
 949 05f8 9B000000 		.4byte	0x9b
 950 05fc 04       		.byte	0x4
 951 05fd 12       		.uleb128 0x12
 952 05fe 2E060000 		.4byte	.LASF103
 953 0602 0E       		.byte	0xe
 954 0603 30       		.byte	0x30
 955 0604 9B000000 		.4byte	0x9b
 956 0608 08       		.byte	0x8
 957 0609 12       		.uleb128 0x12
 958 060a D2020000 		.4byte	.LASF104
 959 060e 0E       		.byte	0xe
 960 060f 30       		.byte	0x30
 961 0610 9B000000 		.4byte	0x9b
 962 0614 0C       		.byte	0xc
 963 0615 12       		.uleb128 0x12
 964 0616 42040000 		.4byte	.LASF105
 965 061a 0E       		.byte	0xe
 966 061b 30       		.byte	0x30
 967 061c 9B000000 		.4byte	0x9b
 968 0620 10       		.byte	0x10
 969 0621 17       		.uleb128 0x17
 970 0622 5F7800   		.ascii	"_x\000"
 971 0625 0E       		.byte	0xe
 972 0626 31       		.byte	0x31
 973 0627 33060000 		.4byte	0x633
 974 062b 14       		.byte	0x14
 975 062c 00       		.byte	0
 976 062d 14       		.uleb128 0x14
 977 062e 04       		.byte	0x4
 978 062f DA050000 		.4byte	0x5da
ARM GAS  /tmp/cctJdLn9.s 			page 19


 979 0633 0D       		.uleb128 0xd
 980 0634 CF050000 		.4byte	0x5cf
 981 0638 43060000 		.4byte	0x643
 982 063c 0E       		.uleb128 0xe
 983 063d EA000000 		.4byte	0xea
 984 0641 00       		.byte	0
 985 0642 00       		.byte	0
 986 0643 16       		.uleb128 0x16
 987 0644 1E030000 		.4byte	.LASF107
 988 0648 24       		.byte	0x24
 989 0649 0E       		.byte	0xe
 990 064a 35       		.byte	0x35
 991 064b BC060000 		.4byte	0x6bc
 992 064f 12       		.uleb128 0x12
 993 0650 B9070000 		.4byte	.LASF108
 994 0654 0E       		.byte	0xe
 995 0655 37       		.byte	0x37
 996 0656 9B000000 		.4byte	0x9b
 997 065a 00       		.byte	0
 998 065b 12       		.uleb128 0x12
 999 065c F4020000 		.4byte	.LASF109
 1000 0660 0E       		.byte	0xe
 1001 0661 38       		.byte	0x38
 1002 0662 9B000000 		.4byte	0x9b
 1003 0666 04       		.byte	0x4
 1004 0667 12       		.uleb128 0x12
 1005 0668 6B010000 		.4byte	.LASF110
 1006 066c 0E       		.byte	0xe
 1007 066d 39       		.byte	0x39
 1008 066e 9B000000 		.4byte	0x9b
 1009 0672 08       		.byte	0x8
 1010 0673 12       		.uleb128 0x12
 1011 0674 AF080000 		.4byte	.LASF111
 1012 0678 0E       		.byte	0xe
 1013 0679 3A       		.byte	0x3a
 1014 067a 9B000000 		.4byte	0x9b
 1015 067e 0C       		.byte	0xc
 1016 067f 12       		.uleb128 0x12
 1017 0680 61040000 		.4byte	.LASF112
 1018 0684 0E       		.byte	0xe
 1019 0685 3B       		.byte	0x3b
 1020 0686 9B000000 		.4byte	0x9b
 1021 068a 10       		.byte	0x10
 1022 068b 12       		.uleb128 0x12
 1023 068c EF030000 		.4byte	.LASF113
 1024 0690 0E       		.byte	0xe
 1025 0691 3C       		.byte	0x3c
 1026 0692 9B000000 		.4byte	0x9b
 1027 0696 14       		.byte	0x14
 1028 0697 12       		.uleb128 0x12
 1029 0698 6C060000 		.4byte	.LASF114
 1030 069c 0E       		.byte	0xe
 1031 069d 3D       		.byte	0x3d
 1032 069e 9B000000 		.4byte	0x9b
 1033 06a2 18       		.byte	0x18
 1034 06a3 12       		.uleb128 0x12
 1035 06a4 A5050000 		.4byte	.LASF115
ARM GAS  /tmp/cctJdLn9.s 			page 20


 1036 06a8 0E       		.byte	0xe
 1037 06a9 3E       		.byte	0x3e
 1038 06aa 9B000000 		.4byte	0x9b
 1039 06ae 1C       		.byte	0x1c
 1040 06af 12       		.uleb128 0x12
 1041 06b0 11080000 		.4byte	.LASF116
 1042 06b4 0E       		.byte	0xe
 1043 06b5 3F       		.byte	0x3f
 1044 06b6 9B000000 		.4byte	0x9b
 1045 06ba 20       		.byte	0x20
 1046 06bb 00       		.byte	0
 1047 06bc 18       		.uleb128 0x18
 1048 06bd 7A010000 		.4byte	.LASF117
 1049 06c1 0801     		.2byte	0x108
 1050 06c3 0E       		.byte	0xe
 1051 06c4 48       		.byte	0x48
 1052 06c5 FC060000 		.4byte	0x6fc
 1053 06c9 12       		.uleb128 0x12
 1054 06ca 34000000 		.4byte	.LASF118
 1055 06ce 0E       		.byte	0xe
 1056 06cf 49       		.byte	0x49
 1057 06d0 FC060000 		.4byte	0x6fc
 1058 06d4 00       		.byte	0
 1059 06d5 12       		.uleb128 0x12
 1060 06d6 18060000 		.4byte	.LASF119
 1061 06da 0E       		.byte	0xe
 1062 06db 4A       		.byte	0x4a
 1063 06dc FC060000 		.4byte	0x6fc
 1064 06e0 80       		.byte	0x80
 1065 06e1 19       		.uleb128 0x19
 1066 06e2 FA060000 		.4byte	.LASF120
 1067 06e6 0E       		.byte	0xe
 1068 06e7 4C       		.byte	0x4c
 1069 06e8 CF050000 		.4byte	0x5cf
 1070 06ec 0001     		.2byte	0x100
 1071 06ee 19       		.uleb128 0x19
 1072 06ef 05020000 		.4byte	.LASF121
 1073 06f3 0E       		.byte	0xe
 1074 06f4 4F       		.byte	0x4f
 1075 06f5 CF050000 		.4byte	0x5cf
 1076 06f9 0401     		.2byte	0x104
 1077 06fb 00       		.byte	0
 1078 06fc 0D       		.uleb128 0xd
 1079 06fd BB050000 		.4byte	0x5bb
 1080 0701 0C070000 		.4byte	0x70c
 1081 0705 0E       		.uleb128 0xe
 1082 0706 EA000000 		.4byte	0xea
 1083 070a 1F       		.byte	0x1f
 1084 070b 00       		.byte	0
 1085 070c 18       		.uleb128 0x18
 1086 070d 6A040000 		.4byte	.LASF122
 1087 0711 9001     		.2byte	0x190
 1088 0713 0E       		.byte	0xe
 1089 0714 5B       		.byte	0x5b
 1090 0715 4A070000 		.4byte	0x74a
 1091 0719 12       		.uleb128 0x12
 1092 071a FD020000 		.4byte	.LASF102
ARM GAS  /tmp/cctJdLn9.s 			page 21


 1093 071e 0E       		.byte	0xe
 1094 071f 5C       		.byte	0x5c
 1095 0720 4A070000 		.4byte	0x74a
 1096 0724 00       		.byte	0
 1097 0725 12       		.uleb128 0x12
 1098 0726 6F030000 		.4byte	.LASF123
 1099 072a 0E       		.byte	0xe
 1100 072b 5D       		.byte	0x5d
 1101 072c 9B000000 		.4byte	0x9b
 1102 0730 04       		.byte	0x4
 1103 0731 12       		.uleb128 0x12
 1104 0732 C2020000 		.4byte	.LASF124
 1105 0736 0E       		.byte	0xe
 1106 0737 5F       		.byte	0x5f
 1107 0738 50070000 		.4byte	0x750
 1108 073c 08       		.byte	0x8
 1109 073d 12       		.uleb128 0x12
 1110 073e 7A010000 		.4byte	.LASF117
 1111 0742 0E       		.byte	0xe
 1112 0743 60       		.byte	0x60
 1113 0744 BC060000 		.4byte	0x6bc
 1114 0748 88       		.byte	0x88
 1115 0749 00       		.byte	0
 1116 074a 14       		.uleb128 0x14
 1117 074b 04       		.byte	0x4
 1118 074c 0C070000 		.4byte	0x70c
 1119 0750 0D       		.uleb128 0xd
 1120 0751 60070000 		.4byte	0x760
 1121 0755 60070000 		.4byte	0x760
 1122 0759 0E       		.uleb128 0xe
 1123 075a EA000000 		.4byte	0xea
 1124 075e 1F       		.byte	0x1f
 1125 075f 00       		.byte	0
 1126 0760 14       		.uleb128 0x14
 1127 0761 04       		.byte	0x4
 1128 0762 66070000 		.4byte	0x766
 1129 0766 1A       		.uleb128 0x1a
 1130 0767 16       		.uleb128 0x16
 1131 0768 9F080000 		.4byte	.LASF125
 1132 076c 08       		.byte	0x8
 1133 076d 0E       		.byte	0xe
 1134 076e 73       		.byte	0x73
 1135 076f 8C070000 		.4byte	0x78c
 1136 0773 12       		.uleb128 0x12
 1137 0774 43050000 		.4byte	.LASF126
 1138 0778 0E       		.byte	0xe
 1139 0779 74       		.byte	0x74
 1140 077a 8C070000 		.4byte	0x78c
 1141 077e 00       		.byte	0
 1142 077f 12       		.uleb128 0x12
 1143 0780 B2060000 		.4byte	.LASF127
 1144 0784 0E       		.byte	0xe
 1145 0785 75       		.byte	0x75
 1146 0786 9B000000 		.4byte	0x9b
 1147 078a 04       		.byte	0x4
 1148 078b 00       		.byte	0
 1149 078c 14       		.uleb128 0x14
ARM GAS  /tmp/cctJdLn9.s 			page 22


 1150 078d 04       		.byte	0x4
 1151 078e 3E000000 		.4byte	0x3e
 1152 0792 16       		.uleb128 0x16
 1153 0793 DD050000 		.4byte	.LASF128
 1154 0797 68       		.byte	0x68
 1155 0798 0E       		.byte	0xe
 1156 0799 B3       		.byte	0xb3
 1157 079a BC080000 		.4byte	0x8bc
 1158 079e 17       		.uleb128 0x17
 1159 079f 5F7000   		.ascii	"_p\000"
 1160 07a2 0E       		.byte	0xe
 1161 07a3 B4       		.byte	0xb4
 1162 07a4 8C070000 		.4byte	0x78c
 1163 07a8 00       		.byte	0
 1164 07a9 17       		.uleb128 0x17
 1165 07aa 5F7200   		.ascii	"_r\000"
 1166 07ad 0E       		.byte	0xe
 1167 07ae B5       		.byte	0xb5
 1168 07af 9B000000 		.4byte	0x9b
 1169 07b3 04       		.byte	0x4
 1170 07b4 17       		.uleb128 0x17
 1171 07b5 5F7700   		.ascii	"_w\000"
 1172 07b8 0E       		.byte	0xe
 1173 07b9 B6       		.byte	0xb6
 1174 07ba 9B000000 		.4byte	0x9b
 1175 07be 08       		.byte	0x8
 1176 07bf 12       		.uleb128 0x12
 1177 07c0 FE010000 		.4byte	.LASF129
 1178 07c4 0E       		.byte	0xe
 1179 07c5 B7       		.byte	0xb7
 1180 07c6 50000000 		.4byte	0x50
 1181 07ca 0C       		.byte	0xc
 1182 07cb 12       		.uleb128 0x12
 1183 07cc 63030000 		.4byte	.LASF130
 1184 07d0 0E       		.byte	0xe
 1185 07d1 B8       		.byte	0xb8
 1186 07d2 50000000 		.4byte	0x50
 1187 07d6 0E       		.byte	0xe
 1188 07d7 17       		.uleb128 0x17
 1189 07d8 5F626600 		.ascii	"_bf\000"
 1190 07dc 0E       		.byte	0xe
 1191 07dd B9       		.byte	0xb9
 1192 07de 67070000 		.4byte	0x767
 1193 07e2 10       		.byte	0x10
 1194 07e3 12       		.uleb128 0x12
 1195 07e4 CB000000 		.4byte	.LASF131
 1196 07e8 0E       		.byte	0xe
 1197 07e9 BA       		.byte	0xba
 1198 07ea 9B000000 		.4byte	0x9b
 1199 07ee 18       		.byte	0x18
 1200 07ef 12       		.uleb128 0x12
 1201 07f0 B4010000 		.4byte	.LASF132
 1202 07f4 0E       		.byte	0xe
 1203 07f5 C1       		.byte	0xc1
 1204 07f6 BB050000 		.4byte	0x5bb
 1205 07fa 1C       		.byte	0x1c
 1206 07fb 12       		.uleb128 0x12
ARM GAS  /tmp/cctJdLn9.s 			page 23


 1207 07fc 0C030000 		.4byte	.LASF133
 1208 0800 0E       		.byte	0xe
 1209 0801 C3       		.byte	0xc3
 1210 0802 170A0000 		.4byte	0xa17
 1211 0806 20       		.byte	0x20
 1212 0807 12       		.uleb128 0x12
 1213 0808 E8030000 		.4byte	.LASF134
 1214 080c 0E       		.byte	0xe
 1215 080d C5       		.byte	0xc5
 1216 080e 460A0000 		.4byte	0xa46
 1217 0812 24       		.byte	0x24
 1218 0813 12       		.uleb128 0x12
 1219 0814 5D060000 		.4byte	.LASF135
 1220 0818 0E       		.byte	0xe
 1221 0819 C8       		.byte	0xc8
 1222 081a 6A0A0000 		.4byte	0xa6a
 1223 081e 28       		.byte	0x28
 1224 081f 12       		.uleb128 0x12
 1225 0820 3B010000 		.4byte	.LASF136
 1226 0824 0E       		.byte	0xe
 1227 0825 C9       		.byte	0xc9
 1228 0826 840A0000 		.4byte	0xa84
 1229 082a 2C       		.byte	0x2c
 1230 082b 17       		.uleb128 0x17
 1231 082c 5F756200 		.ascii	"_ub\000"
 1232 0830 0E       		.byte	0xe
 1233 0831 CC       		.byte	0xcc
 1234 0832 67070000 		.4byte	0x767
 1235 0836 30       		.byte	0x30
 1236 0837 17       		.uleb128 0x17
 1237 0838 5F757000 		.ascii	"_up\000"
 1238 083c 0E       		.byte	0xe
 1239 083d CD       		.byte	0xcd
 1240 083e 8C070000 		.4byte	0x78c
 1241 0842 38       		.byte	0x38
 1242 0843 17       		.uleb128 0x17
 1243 0844 5F757200 		.ascii	"_ur\000"
 1244 0848 0E       		.byte	0xe
 1245 0849 CE       		.byte	0xce
 1246 084a 9B000000 		.4byte	0x9b
 1247 084e 3C       		.byte	0x3c
 1248 084f 12       		.uleb128 0x12
 1249 0850 4E010000 		.4byte	.LASF137
 1250 0854 0E       		.byte	0xe
 1251 0855 D1       		.byte	0xd1
 1252 0856 8A0A0000 		.4byte	0xa8a
 1253 085a 40       		.byte	0x40
 1254 085b 12       		.uleb128 0x12
 1255 085c FA070000 		.4byte	.LASF138
 1256 0860 0E       		.byte	0xe
 1257 0861 D2       		.byte	0xd2
 1258 0862 9A0A0000 		.4byte	0xa9a
 1259 0866 43       		.byte	0x43
 1260 0867 17       		.uleb128 0x17
 1261 0868 5F6C6200 		.ascii	"_lb\000"
 1262 086c 0E       		.byte	0xe
 1263 086d D5       		.byte	0xd5
ARM GAS  /tmp/cctJdLn9.s 			page 24


 1264 086e 67070000 		.4byte	0x767
 1265 0872 44       		.byte	0x44
 1266 0873 12       		.uleb128 0x12
 1267 0874 03030000 		.4byte	.LASF139
 1268 0878 0E       		.byte	0xe
 1269 0879 D8       		.byte	0xd8
 1270 087a 9B000000 		.4byte	0x9b
 1271 087e 4C       		.byte	0x4c
 1272 087f 12       		.uleb128 0x12
 1273 0880 60020000 		.4byte	.LASF140
 1274 0884 0E       		.byte	0xe
 1275 0885 D9       		.byte	0xd9
 1276 0886 33050000 		.4byte	0x533
 1277 088a 50       		.byte	0x50
 1278 088b 12       		.uleb128 0x12
 1279 088c 74030000 		.4byte	.LASF141
 1280 0890 0E       		.byte	0xe
 1281 0891 DC       		.byte	0xdc
 1282 0892 DA080000 		.4byte	0x8da
 1283 0896 54       		.byte	0x54
 1284 0897 12       		.uleb128 0x12
 1285 0898 DC030000 		.4byte	.LASF142
 1286 089c 0E       		.byte	0xe
 1287 089d E0       		.byte	0xe0
 1288 089e B0050000 		.4byte	0x5b0
 1289 08a2 58       		.byte	0x58
 1290 08a3 12       		.uleb128 0x12
 1291 08a4 EF050000 		.4byte	.LASF143
 1292 08a8 0E       		.byte	0xe
 1293 08a9 E2       		.byte	0xe2
 1294 08aa A5050000 		.4byte	0x5a5
 1295 08ae 5C       		.byte	0x5c
 1296 08af 12       		.uleb128 0x12
 1297 08b0 BD050000 		.4byte	.LASF144
 1298 08b4 0E       		.byte	0xe
 1299 08b5 E3       		.byte	0xe3
 1300 08b6 9B000000 		.4byte	0x9b
 1301 08ba 64       		.byte	0x64
 1302 08bb 00       		.byte	0
 1303 08bc 1B       		.uleb128 0x1b
 1304 08bd 9B000000 		.4byte	0x9b
 1305 08c1 DA080000 		.4byte	0x8da
 1306 08c5 1C       		.uleb128 0x1c
 1307 08c6 DA080000 		.4byte	0x8da
 1308 08ca 1C       		.uleb128 0x1c
 1309 08cb BB050000 		.4byte	0x5bb
 1310 08cf 1C       		.uleb128 0x1c
 1311 08d0 BD050000 		.4byte	0x5bd
 1312 08d4 1C       		.uleb128 0x1c
 1313 08d5 9B000000 		.4byte	0x9b
 1314 08d9 00       		.byte	0
 1315 08da 14       		.uleb128 0x14
 1316 08db 04       		.byte	0x4
 1317 08dc E5080000 		.4byte	0x8e5
 1318 08e0 15       		.uleb128 0x15
 1319 08e1 DA080000 		.4byte	0x8da
 1320 08e5 1D       		.uleb128 0x1d
ARM GAS  /tmp/cctJdLn9.s 			page 25


 1321 08e6 36060000 		.4byte	.LASF145
 1322 08ea 2804     		.2byte	0x428
 1323 08ec 0E       		.byte	0xe
 1324 08ed 3802     		.2byte	0x238
 1325 08ef 170A0000 		.4byte	0xa17
 1326 08f3 0A       		.uleb128 0xa
 1327 08f4 95060000 		.4byte	.LASF146
 1328 08f8 0E       		.byte	0xe
 1329 08f9 3A02     		.2byte	0x23a
 1330 08fb 9B000000 		.4byte	0x9b
 1331 08ff 00       		.byte	0
 1332 0900 0A       		.uleb128 0xa
 1333 0901 0D020000 		.4byte	.LASF147
 1334 0905 0E       		.byte	0xe
 1335 0906 3F02     		.2byte	0x23f
 1336 0908 F10A0000 		.4byte	0xaf1
 1337 090c 04       		.byte	0x4
 1338 090d 0A       		.uleb128 0xa
 1339 090e C2070000 		.4byte	.LASF148
 1340 0912 0E       		.byte	0xe
 1341 0913 3F02     		.2byte	0x23f
 1342 0915 F10A0000 		.4byte	0xaf1
 1343 0919 08       		.byte	0x8
 1344 091a 0A       		.uleb128 0xa
 1345 091b E4020000 		.4byte	.LASF149
 1346 091f 0E       		.byte	0xe
 1347 0920 3F02     		.2byte	0x23f
 1348 0922 F10A0000 		.4byte	0xaf1
 1349 0926 0C       		.byte	0xc
 1350 0927 0A       		.uleb128 0xa
 1351 0928 03060000 		.4byte	.LASF150
 1352 092c 0E       		.byte	0xe
 1353 092d 4102     		.2byte	0x241
 1354 092f 9B000000 		.4byte	0x9b
 1355 0933 10       		.byte	0x10
 1356 0934 0A       		.uleb128 0xa
 1357 0935 53000000 		.4byte	.LASF151
 1358 0939 0E       		.byte	0xe
 1359 093a 4202     		.2byte	0x242
 1360 093c D30C0000 		.4byte	0xcd3
 1361 0940 14       		.byte	0x14
 1362 0941 0A       		.uleb128 0xa
 1363 0942 6E070000 		.4byte	.LASF152
 1364 0946 0E       		.byte	0xe
 1365 0947 4402     		.2byte	0x244
 1366 0949 9B000000 		.4byte	0x9b
 1367 094d 30       		.byte	0x30
 1368 094e 0A       		.uleb128 0xa
 1369 094f 08060000 		.4byte	.LASF153
 1370 0953 0E       		.byte	0xe
 1371 0954 4502     		.2byte	0x245
 1372 0956 3B0A0000 		.4byte	0xa3b
 1373 095a 34       		.byte	0x34
 1374 095b 0A       		.uleb128 0xa
 1375 095c 89040000 		.4byte	.LASF154
 1376 0960 0E       		.byte	0xe
 1377 0961 4702     		.2byte	0x247
ARM GAS  /tmp/cctJdLn9.s 			page 26


 1378 0963 9B000000 		.4byte	0x9b
 1379 0967 38       		.byte	0x38
 1380 0968 0A       		.uleb128 0xa
 1381 0969 24060000 		.4byte	.LASF155
 1382 096d 0E       		.byte	0xe
 1383 096e 4902     		.2byte	0x249
 1384 0970 EE0C0000 		.4byte	0xcee
 1385 0974 3C       		.byte	0x3c
 1386 0975 0A       		.uleb128 0xa
 1387 0976 B8030000 		.4byte	.LASF156
 1388 097a 0E       		.byte	0xe
 1389 097b 4C02     		.2byte	0x24c
 1390 097d 2D060000 		.4byte	0x62d
 1391 0981 40       		.byte	0x40
 1392 0982 0A       		.uleb128 0xa
 1393 0983 22020000 		.4byte	.LASF157
 1394 0987 0E       		.byte	0xe
 1395 0988 4D02     		.2byte	0x24d
 1396 098a 9B000000 		.4byte	0x9b
 1397 098e 44       		.byte	0x44
 1398 098f 0A       		.uleb128 0xa
 1399 0990 95080000 		.4byte	.LASF158
 1400 0994 0E       		.byte	0xe
 1401 0995 4E02     		.2byte	0x24e
 1402 0997 2D060000 		.4byte	0x62d
 1403 099b 48       		.byte	0x48
 1404 099c 0A       		.uleb128 0xa
 1405 099d CB040000 		.4byte	.LASF159
 1406 09a1 0E       		.byte	0xe
 1407 09a2 4F02     		.2byte	0x24f
 1408 09a4 F40C0000 		.4byte	0xcf4
 1409 09a8 4C       		.byte	0x4c
 1410 09a9 0A       		.uleb128 0xa
 1411 09aa 43030000 		.4byte	.LASF160
 1412 09ae 0E       		.byte	0xe
 1413 09af 5202     		.2byte	0x252
 1414 09b1 9B000000 		.4byte	0x9b
 1415 09b5 50       		.byte	0x50
 1416 09b6 0A       		.uleb128 0xa
 1417 09b7 58020000 		.4byte	.LASF161
 1418 09bb 0E       		.byte	0xe
 1419 09bc 5302     		.2byte	0x253
 1420 09be BD050000 		.4byte	0x5bd
 1421 09c2 54       		.byte	0x54
 1422 09c3 0A       		.uleb128 0xa
 1423 09c4 CD030000 		.4byte	.LASF162
 1424 09c8 0E       		.byte	0xe
 1425 09c9 7602     		.2byte	0x276
 1426 09cb B10C0000 		.4byte	0xcb1
 1427 09cf 58       		.byte	0x58
 1428 09d0 1E       		.uleb128 0x1e
 1429 09d1 6A040000 		.4byte	.LASF122
 1430 09d5 0E       		.byte	0xe
 1431 09d6 7A02     		.2byte	0x27a
 1432 09d8 4A070000 		.4byte	0x74a
 1433 09dc 4801     		.2byte	0x148
 1434 09de 1E       		.uleb128 0x1e
ARM GAS  /tmp/cctJdLn9.s 			page 27


 1435 09df 6E000000 		.4byte	.LASF163
 1436 09e3 0E       		.byte	0xe
 1437 09e4 7B02     		.2byte	0x27b
 1438 09e6 0C070000 		.4byte	0x70c
 1439 09ea 4C01     		.2byte	0x14c
 1440 09ec 1E       		.uleb128 0x1e
 1441 09ed 80070000 		.4byte	.LASF164
 1442 09f1 0E       		.byte	0xe
 1443 09f2 7F02     		.2byte	0x27f
 1444 09f4 050D0000 		.4byte	0xd05
 1445 09f8 DC02     		.2byte	0x2dc
 1446 09fa 1E       		.uleb128 0x1e
 1447 09fb C7010000 		.4byte	.LASF165
 1448 09ff 0E       		.byte	0xe
 1449 0a00 8402     		.2byte	0x284
 1450 0a02 B60A0000 		.4byte	0xab6
 1451 0a06 E002     		.2byte	0x2e0
 1452 0a08 1E       		.uleb128 0x1e
 1453 0a09 75010000 		.4byte	.LASF166
 1454 0a0d 0E       		.byte	0xe
 1455 0a0e 8502     		.2byte	0x285
 1456 0a10 110D0000 		.4byte	0xd11
 1457 0a14 EC02     		.2byte	0x2ec
 1458 0a16 00       		.byte	0
 1459 0a17 14       		.uleb128 0x14
 1460 0a18 04       		.byte	0x4
 1461 0a19 BC080000 		.4byte	0x8bc
 1462 0a1d 1B       		.uleb128 0x1b
 1463 0a1e 9B000000 		.4byte	0x9b
 1464 0a22 3B0A0000 		.4byte	0xa3b
 1465 0a26 1C       		.uleb128 0x1c
 1466 0a27 DA080000 		.4byte	0x8da
 1467 0a2b 1C       		.uleb128 0x1c
 1468 0a2c BB050000 		.4byte	0x5bb
 1469 0a30 1C       		.uleb128 0x1c
 1470 0a31 3B0A0000 		.4byte	0xa3b
 1471 0a35 1C       		.uleb128 0x1c
 1472 0a36 9B000000 		.4byte	0x9b
 1473 0a3a 00       		.byte	0
 1474 0a3b 14       		.uleb128 0x14
 1475 0a3c 04       		.byte	0x4
 1476 0a3d CA050000 		.4byte	0x5ca
 1477 0a41 15       		.uleb128 0x15
 1478 0a42 3B0A0000 		.4byte	0xa3b
 1479 0a46 14       		.uleb128 0x14
 1480 0a47 04       		.byte	0x4
 1481 0a48 1D0A0000 		.4byte	0xa1d
 1482 0a4c 1B       		.uleb128 0x1b
 1483 0a4d 3E050000 		.4byte	0x53e
 1484 0a51 6A0A0000 		.4byte	0xa6a
 1485 0a55 1C       		.uleb128 0x1c
 1486 0a56 DA080000 		.4byte	0x8da
 1487 0a5a 1C       		.uleb128 0x1c
 1488 0a5b BB050000 		.4byte	0x5bb
 1489 0a5f 1C       		.uleb128 0x1c
 1490 0a60 3E050000 		.4byte	0x53e
 1491 0a64 1C       		.uleb128 0x1c
ARM GAS  /tmp/cctJdLn9.s 			page 28


 1492 0a65 9B000000 		.4byte	0x9b
 1493 0a69 00       		.byte	0
 1494 0a6a 14       		.uleb128 0x14
 1495 0a6b 04       		.byte	0x4
 1496 0a6c 4C0A0000 		.4byte	0xa4c
 1497 0a70 1B       		.uleb128 0x1b
 1498 0a71 9B000000 		.4byte	0x9b
 1499 0a75 840A0000 		.4byte	0xa84
 1500 0a79 1C       		.uleb128 0x1c
 1501 0a7a DA080000 		.4byte	0x8da
 1502 0a7e 1C       		.uleb128 0x1c
 1503 0a7f BB050000 		.4byte	0x5bb
 1504 0a83 00       		.byte	0
 1505 0a84 14       		.uleb128 0x14
 1506 0a85 04       		.byte	0x4
 1507 0a86 700A0000 		.4byte	0xa70
 1508 0a8a 0D       		.uleb128 0xd
 1509 0a8b 3E000000 		.4byte	0x3e
 1510 0a8f 9A0A0000 		.4byte	0xa9a
 1511 0a93 0E       		.uleb128 0xe
 1512 0a94 EA000000 		.4byte	0xea
 1513 0a98 02       		.byte	0x2
 1514 0a99 00       		.byte	0
 1515 0a9a 0D       		.uleb128 0xd
 1516 0a9b 3E000000 		.4byte	0x3e
 1517 0a9f AA0A0000 		.4byte	0xaaa
 1518 0aa3 0E       		.uleb128 0xe
 1519 0aa4 EA000000 		.4byte	0xea
 1520 0aa8 00       		.byte	0
 1521 0aa9 00       		.byte	0
 1522 0aaa 0B       		.uleb128 0xb
 1523 0aab CB050000 		.4byte	.LASF167
 1524 0aaf 0E       		.byte	0xe
 1525 0ab0 1D01     		.2byte	0x11d
 1526 0ab2 92070000 		.4byte	0x792
 1527 0ab6 1F       		.uleb128 0x1f
 1528 0ab7 CA070000 		.4byte	.LASF168
 1529 0abb 0C       		.byte	0xc
 1530 0abc 0E       		.byte	0xe
 1531 0abd 2101     		.2byte	0x121
 1532 0abf EB0A0000 		.4byte	0xaeb
 1533 0ac3 0A       		.uleb128 0xa
 1534 0ac4 FD020000 		.4byte	.LASF102
 1535 0ac8 0E       		.byte	0xe
 1536 0ac9 2301     		.2byte	0x123
 1537 0acb EB0A0000 		.4byte	0xaeb
 1538 0acf 00       		.byte	0
 1539 0ad0 0A       		.uleb128 0xa
 1540 0ad1 7A030000 		.4byte	.LASF169
 1541 0ad5 0E       		.byte	0xe
 1542 0ad6 2401     		.2byte	0x124
 1543 0ad8 9B000000 		.4byte	0x9b
 1544 0adc 04       		.byte	0x4
 1545 0add 0A       		.uleb128 0xa
 1546 0ade C5050000 		.4byte	.LASF170
 1547 0ae2 0E       		.byte	0xe
 1548 0ae3 2501     		.2byte	0x125
ARM GAS  /tmp/cctJdLn9.s 			page 29


 1549 0ae5 F10A0000 		.4byte	0xaf1
 1550 0ae9 08       		.byte	0x8
 1551 0aea 00       		.byte	0
 1552 0aeb 14       		.uleb128 0x14
 1553 0aec 04       		.byte	0x4
 1554 0aed B60A0000 		.4byte	0xab6
 1555 0af1 14       		.uleb128 0x14
 1556 0af2 04       		.byte	0x4
 1557 0af3 AA0A0000 		.4byte	0xaaa
 1558 0af7 1F       		.uleb128 0x1f
 1559 0af8 3C000000 		.4byte	.LASF171
 1560 0afc 0E       		.byte	0xe
 1561 0afd 0E       		.byte	0xe
 1562 0afe 3D01     		.2byte	0x13d
 1563 0b00 2C0B0000 		.4byte	0xb2c
 1564 0b04 0A       		.uleb128 0xa
 1565 0b05 3D060000 		.4byte	.LASF172
 1566 0b09 0E       		.byte	0xe
 1567 0b0a 3E01     		.2byte	0x13e
 1568 0b0c 2C0B0000 		.4byte	0xb2c
 1569 0b10 00       		.byte	0
 1570 0b11 0A       		.uleb128 0xa
 1571 0b12 E2030000 		.4byte	.LASF173
 1572 0b16 0E       		.byte	0xe
 1573 0b17 3F01     		.2byte	0x13f
 1574 0b19 2C0B0000 		.4byte	0xb2c
 1575 0b1d 06       		.byte	0x6
 1576 0b1e 0A       		.uleb128 0xa
 1577 0b1f 25070000 		.4byte	.LASF174
 1578 0b23 0E       		.byte	0xe
 1579 0b24 4001     		.2byte	0x140
 1580 0b26 62000000 		.4byte	0x62
 1581 0b2a 0C       		.byte	0xc
 1582 0b2b 00       		.byte	0
 1583 0b2c 0D       		.uleb128 0xd
 1584 0b2d 62000000 		.4byte	0x62
 1585 0b31 3C0B0000 		.4byte	0xb3c
 1586 0b35 0E       		.uleb128 0xe
 1587 0b36 EA000000 		.4byte	0xea
 1588 0b3a 02       		.byte	0x2
 1589 0b3b 00       		.byte	0
 1590 0b3c 08       		.uleb128 0x8
 1591 0b3d D0       		.byte	0xd0
 1592 0b3e 0E       		.byte	0xe
 1593 0b3f 5702     		.2byte	0x257
 1594 0b41 3D0C0000 		.4byte	0xc3d
 1595 0b45 0A       		.uleb128 0xa
 1596 0b46 8D020000 		.4byte	.LASF175
 1597 0b4a 0E       		.byte	0xe
 1598 0b4b 5902     		.2byte	0x259
 1599 0b4d A2000000 		.4byte	0xa2
 1600 0b51 00       		.byte	0
 1601 0b52 0A       		.uleb128 0xa
 1602 0b53 ED060000 		.4byte	.LASF176
 1603 0b57 0E       		.byte	0xe
 1604 0b58 5A02     		.2byte	0x25a
 1605 0b5a BD050000 		.4byte	0x5bd
ARM GAS  /tmp/cctJdLn9.s 			page 30


 1606 0b5e 04       		.byte	0x4
 1607 0b5f 0A       		.uleb128 0xa
 1608 0b60 AB030000 		.4byte	.LASF177
 1609 0b64 0E       		.byte	0xe
 1610 0b65 5B02     		.2byte	0x25b
 1611 0b67 3D0C0000 		.4byte	0xc3d
 1612 0b6b 08       		.byte	0x8
 1613 0b6c 0A       		.uleb128 0xa
 1614 0b6d 1C080000 		.4byte	.LASF178
 1615 0b71 0E       		.byte	0xe
 1616 0b72 5C02     		.2byte	0x25c
 1617 0b74 43060000 		.4byte	0x643
 1618 0b78 24       		.byte	0x24
 1619 0b79 0A       		.uleb128 0xa
 1620 0b7a 94040000 		.4byte	.LASF179
 1621 0b7e 0E       		.byte	0xe
 1622 0b7f 5D02     		.2byte	0x25d
 1623 0b81 9B000000 		.4byte	0x9b
 1624 0b85 48       		.byte	0x48
 1625 0b86 0A       		.uleb128 0xa
 1626 0b87 F8050000 		.4byte	.LASF180
 1627 0b8b 0E       		.byte	0xe
 1628 0b8c 5E02     		.2byte	0x25e
 1629 0b8e 94000000 		.4byte	0x94
 1630 0b92 50       		.byte	0x50
 1631 0b93 0A       		.uleb128 0xa
 1632 0b94 5C040000 		.4byte	.LASF181
 1633 0b98 0E       		.byte	0xe
 1634 0b99 5F02     		.2byte	0x25f
 1635 0b9b F70A0000 		.4byte	0xaf7
 1636 0b9f 58       		.byte	0x58
 1637 0ba0 0A       		.uleb128 0xa
 1638 0ba1 7C040000 		.4byte	.LASF182
 1639 0ba5 0E       		.byte	0xe
 1640 0ba6 6002     		.2byte	0x260
 1641 0ba8 A5050000 		.4byte	0x5a5
 1642 0bac 68       		.byte	0x68
 1643 0bad 0A       		.uleb128 0xa
 1644 0bae 87080000 		.4byte	.LASF183
 1645 0bb2 0E       		.byte	0xe
 1646 0bb3 6102     		.2byte	0x261
 1647 0bb5 A5050000 		.4byte	0x5a5
 1648 0bb9 70       		.byte	0x70
 1649 0bba 0A       		.uleb128 0xa
 1650 0bbb 18010000 		.4byte	.LASF184
 1651 0bbf 0E       		.byte	0xe
 1652 0bc0 6202     		.2byte	0x262
 1653 0bc2 A5050000 		.4byte	0x5a5
 1654 0bc6 78       		.byte	0x78
 1655 0bc7 0A       		.uleb128 0xa
 1656 0bc8 D8070000 		.4byte	.LASF185
 1657 0bcc 0E       		.byte	0xe
 1658 0bcd 6302     		.2byte	0x263
 1659 0bcf 4D0C0000 		.4byte	0xc4d
 1660 0bd3 80       		.byte	0x80
 1661 0bd4 0A       		.uleb128 0xa
 1662 0bd5 A1060000 		.4byte	.LASF186
ARM GAS  /tmp/cctJdLn9.s 			page 31


 1663 0bd9 0E       		.byte	0xe
 1664 0bda 6402     		.2byte	0x264
 1665 0bdc 5D0C0000 		.4byte	0xc5d
 1666 0be0 88       		.byte	0x88
 1667 0be1 0A       		.uleb128 0xa
 1668 0be2 32070000 		.4byte	.LASF187
 1669 0be6 0E       		.byte	0xe
 1670 0be7 6502     		.2byte	0x265
 1671 0be9 9B000000 		.4byte	0x9b
 1672 0bed A0       		.byte	0xa0
 1673 0bee 0A       		.uleb128 0xa
 1674 0bef 7F020000 		.4byte	.LASF188
 1675 0bf3 0E       		.byte	0xe
 1676 0bf4 6602     		.2byte	0x266
 1677 0bf6 A5050000 		.4byte	0x5a5
 1678 0bfa A4       		.byte	0xa4
 1679 0bfb 0A       		.uleb128 0xa
 1680 0bfc 04010000 		.4byte	.LASF189
 1681 0c00 0E       		.byte	0xe
 1682 0c01 6702     		.2byte	0x267
 1683 0c03 A5050000 		.4byte	0x5a5
 1684 0c07 AC       		.byte	0xac
 1685 0c08 0A       		.uleb128 0xa
 1686 0c09 9A020000 		.4byte	.LASF190
 1687 0c0d 0E       		.byte	0xe
 1688 0c0e 6802     		.2byte	0x268
 1689 0c10 A5050000 		.4byte	0x5a5
 1690 0c14 B4       		.byte	0xb4
 1691 0c15 0A       		.uleb128 0xa
 1692 0c16 8A000000 		.4byte	.LASF191
 1693 0c1a 0E       		.byte	0xe
 1694 0c1b 6902     		.2byte	0x269
 1695 0c1d A5050000 		.4byte	0x5a5
 1696 0c21 BC       		.byte	0xbc
 1697 0c22 0A       		.uleb128 0xa
 1698 0c23 99000000 		.4byte	.LASF192
 1699 0c27 0E       		.byte	0xe
 1700 0c28 6A02     		.2byte	0x26a
 1701 0c2a A5050000 		.4byte	0x5a5
 1702 0c2e C4       		.byte	0xc4
 1703 0c2f 0A       		.uleb128 0xa
 1704 0c30 63060000 		.4byte	.LASF193
 1705 0c34 0E       		.byte	0xe
 1706 0c35 6B02     		.2byte	0x26b
 1707 0c37 9B000000 		.4byte	0x9b
 1708 0c3b CC       		.byte	0xcc
 1709 0c3c 00       		.byte	0
 1710 0c3d 0D       		.uleb128 0xd
 1711 0c3e C3050000 		.4byte	0x5c3
 1712 0c42 4D0C0000 		.4byte	0xc4d
 1713 0c46 0E       		.uleb128 0xe
 1714 0c47 EA000000 		.4byte	0xea
 1715 0c4b 19       		.byte	0x19
 1716 0c4c 00       		.byte	0
 1717 0c4d 0D       		.uleb128 0xd
 1718 0c4e C3050000 		.4byte	0x5c3
 1719 0c52 5D0C0000 		.4byte	0xc5d
ARM GAS  /tmp/cctJdLn9.s 			page 32


 1720 0c56 0E       		.uleb128 0xe
 1721 0c57 EA000000 		.4byte	0xea
 1722 0c5b 07       		.byte	0x7
 1723 0c5c 00       		.byte	0
 1724 0c5d 0D       		.uleb128 0xd
 1725 0c5e C3050000 		.4byte	0x5c3
 1726 0c62 6D0C0000 		.4byte	0xc6d
 1727 0c66 0E       		.uleb128 0xe
 1728 0c67 EA000000 		.4byte	0xea
 1729 0c6b 17       		.byte	0x17
 1730 0c6c 00       		.byte	0
 1731 0c6d 08       		.uleb128 0x8
 1732 0c6e F0       		.byte	0xf0
 1733 0c6f 0E       		.byte	0xe
 1734 0c70 7002     		.2byte	0x270
 1735 0c72 910C0000 		.4byte	0xc91
 1736 0c76 0A       		.uleb128 0xa
 1737 0c77 C6030000 		.4byte	.LASF194
 1738 0c7b 0E       		.byte	0xe
 1739 0c7c 7302     		.2byte	0x273
 1740 0c7e 910C0000 		.4byte	0xc91
 1741 0c82 00       		.byte	0
 1742 0c83 0A       		.uleb128 0xa
 1743 0c84 F9030000 		.4byte	.LASF195
 1744 0c88 0E       		.byte	0xe
 1745 0c89 7402     		.2byte	0x274
 1746 0c8b A10C0000 		.4byte	0xca1
 1747 0c8f 78       		.byte	0x78
 1748 0c90 00       		.byte	0
 1749 0c91 0D       		.uleb128 0xd
 1750 0c92 8C070000 		.4byte	0x78c
 1751 0c96 A10C0000 		.4byte	0xca1
 1752 0c9a 0E       		.uleb128 0xe
 1753 0c9b EA000000 		.4byte	0xea
 1754 0c9f 1D       		.byte	0x1d
 1755 0ca0 00       		.byte	0
 1756 0ca1 0D       		.uleb128 0xd
 1757 0ca2 A2000000 		.4byte	0xa2
 1758 0ca6 B10C0000 		.4byte	0xcb1
 1759 0caa 0E       		.uleb128 0xe
 1760 0cab EA000000 		.4byte	0xea
 1761 0caf 1D       		.byte	0x1d
 1762 0cb0 00       		.byte	0
 1763 0cb1 20       		.uleb128 0x20
 1764 0cb2 F0       		.byte	0xf0
 1765 0cb3 0E       		.byte	0xe
 1766 0cb4 5502     		.2byte	0x255
 1767 0cb6 D30C0000 		.4byte	0xcd3
 1768 0cba 21       		.uleb128 0x21
 1769 0cbb 36060000 		.4byte	.LASF145
 1770 0cbf 0E       		.byte	0xe
 1771 0cc0 6C02     		.2byte	0x26c
 1772 0cc2 3C0B0000 		.4byte	0xb3c
 1773 0cc6 21       		.uleb128 0x21
 1774 0cc7 00080000 		.4byte	.LASF196
 1775 0ccb 0E       		.byte	0xe
 1776 0ccc 7502     		.2byte	0x275
ARM GAS  /tmp/cctJdLn9.s 			page 33


 1777 0cce 6D0C0000 		.4byte	0xc6d
 1778 0cd2 00       		.byte	0
 1779 0cd3 0D       		.uleb128 0xd
 1780 0cd4 C3050000 		.4byte	0x5c3
 1781 0cd8 E30C0000 		.4byte	0xce3
 1782 0cdc 0E       		.uleb128 0xe
 1783 0cdd EA000000 		.4byte	0xea
 1784 0ce1 18       		.byte	0x18
 1785 0ce2 00       		.byte	0
 1786 0ce3 22       		.uleb128 0x22
 1787 0ce4 EE0C0000 		.4byte	0xcee
 1788 0ce8 1C       		.uleb128 0x1c
 1789 0ce9 DA080000 		.4byte	0x8da
 1790 0ced 00       		.byte	0
 1791 0cee 14       		.uleb128 0x14
 1792 0cef 04       		.byte	0x4
 1793 0cf0 E30C0000 		.4byte	0xce3
 1794 0cf4 14       		.uleb128 0x14
 1795 0cf5 04       		.byte	0x4
 1796 0cf6 2D060000 		.4byte	0x62d
 1797 0cfa 22       		.uleb128 0x22
 1798 0cfb 050D0000 		.4byte	0xd05
 1799 0cff 1C       		.uleb128 0x1c
 1800 0d00 9B000000 		.4byte	0x9b
 1801 0d04 00       		.byte	0
 1802 0d05 14       		.uleb128 0x14
 1803 0d06 04       		.byte	0x4
 1804 0d07 0B0D0000 		.4byte	0xd0b
 1805 0d0b 14       		.uleb128 0x14
 1806 0d0c 04       		.byte	0x4
 1807 0d0d FA0C0000 		.4byte	0xcfa
 1808 0d11 0D       		.uleb128 0xd
 1809 0d12 AA0A0000 		.4byte	0xaaa
 1810 0d16 210D0000 		.4byte	0xd21
 1811 0d1a 0E       		.uleb128 0xe
 1812 0d1b EA000000 		.4byte	0xea
 1813 0d1f 02       		.byte	0x2
 1814 0d20 00       		.byte	0
 1815 0d21 06       		.uleb128 0x6
 1816 0d22 D8020000 		.4byte	.LASF197
 1817 0d26 0E       		.byte	0xe
 1818 0d27 FD02     		.2byte	0x2fd
 1819 0d29 DA080000 		.4byte	0x8da
 1820 0d2d 06       		.uleb128 0x6
 1821 0d2e 5B070000 		.4byte	.LASF198
 1822 0d32 0E       		.byte	0xe
 1823 0d33 FE02     		.2byte	0x2fe
 1824 0d35 E0080000 		.4byte	0x8e0
 1825 0d39 07       		.uleb128 0x7
 1826 0d3a 72040000 		.4byte	.LASF199
 1827 0d3e 0F       		.byte	0xf
 1828 0d3f 5F       		.byte	0x5f
 1829 0d40 BD050000 		.4byte	0x5bd
 1830 0d44 02       		.uleb128 0x2
 1831 0d45 08       		.byte	0x8
 1832 0d46 04       		.byte	0x4
 1833 0d47 51020000 		.4byte	.LASF200
ARM GAS  /tmp/cctJdLn9.s 			page 34


 1834 0d4b 23       		.uleb128 0x23
 1835 0d4c 3F070000 		.4byte	.LASF222
 1836 0d50 01       		.byte	0x1
 1837 0d51 2C000000 		.4byte	0x2c
 1838 0d55 10       		.byte	0x10
 1839 0d56 9902     		.2byte	0x299
 1840 0d58 750D0000 		.4byte	0xd75
 1841 0d5c 24       		.uleb128 0x24
 1842 0d5d AF050000 		.4byte	.LASF201
 1843 0d61 7F       		.sleb128 -1
 1844 0d62 25       		.uleb128 0x25
 1845 0d63 14020000 		.4byte	.LASF202
 1846 0d67 00       		.byte	0
 1847 0d68 25       		.uleb128 0x25
 1848 0d69 44000000 		.4byte	.LASF203
 1849 0d6d 01       		.byte	0x1
 1850 0d6e 25       		.uleb128 0x25
 1851 0d6f BC000000 		.4byte	.LASF204
 1852 0d73 02       		.byte	0x2
 1853 0d74 00       		.byte	0
 1854 0d75 06       		.uleb128 0x6
 1855 0d76 F4000000 		.4byte	.LASF205
 1856 0d7a 10       		.byte	0x10
 1857 0d7b A402     		.2byte	0x2a4
 1858 0d7d 4B0D0000 		.4byte	0xd4b
 1859 0d81 0D       		.uleb128 0xd
 1860 0d82 410A0000 		.4byte	0xa41
 1861 0d86 8C0D0000 		.4byte	0xd8c
 1862 0d8a 26       		.uleb128 0x26
 1863 0d8b 00       		.byte	0
 1864 0d8c 15       		.uleb128 0x15
 1865 0d8d 810D0000 		.4byte	0xd81
 1866 0d91 07       		.uleb128 0x7
 1867 0d92 14000000 		.4byte	.LASF206
 1868 0d96 11       		.byte	0x11
 1869 0d97 14       		.byte	0x14
 1870 0d98 8C0D0000 		.4byte	0xd8c
 1871 0d9c 07       		.uleb128 0x7
 1872 0d9d E5050000 		.4byte	.LASF207
 1873 0da1 11       		.byte	0x11
 1874 0da2 15       		.byte	0x15
 1875 0da3 9B000000 		.4byte	0x9b
 1876 0da7 27       		.uleb128 0x27
 1877 0da8 9A080000 		.4byte	.LASF223
 1878 0dac 01       		.byte	0x1
 1879 0dad 09       		.byte	0x9
 1880 0dae 9B000000 		.4byte	0x9b
 1881 0db2 00000000 		.4byte	.LFB63
 1882 0db6 3C010000 		.4byte	.LFE63-.LFB63
 1883 0dba 01       		.uleb128 0x1
 1884 0dbb 9C       		.byte	0x9c
 1885 0dbc 8C0E0000 		.4byte	0xe8c
 1886 0dc0 28       		.uleb128 0x28
 1887 0dc1 6100     		.ascii	"a\000"
 1888 0dc3 01       		.byte	0x1
 1889 0dc4 11       		.byte	0x11
 1890 0dc5 A9000000 		.4byte	0xa9
ARM GAS  /tmp/cctJdLn9.s 			page 35


 1891 0dc9 00000000 		.4byte	.LLST0
 1892 0dcd 28       		.uleb128 0x28
 1893 0dce 647400   		.ascii	"dt\000"
 1894 0dd1 01       		.byte	0x1
 1895 0dd2 13       		.byte	0x13
 1896 0dd3 BF000000 		.4byte	0xbf
 1897 0dd7 1F000000 		.4byte	.LLST1
 1898 0ddb 29       		.uleb128 0x29
 1899 0ddc 0A000000 		.4byte	.LVL0
 1900 0de0 8C0E0000 		.4byte	0xe8c
 1901 0de4 29       		.uleb128 0x29
 1902 0de5 0E000000 		.4byte	.LVL1
 1903 0de9 970E0000 		.4byte	0xe97
 1904 0ded 2A       		.uleb128 0x2a
 1905 0dee 14000000 		.4byte	.LVL2
 1906 0df2 A20E0000 		.4byte	0xea2
 1907 0df6 010E0000 		.4byte	0xe01
 1908 0dfa 2B       		.uleb128 0x2b
 1909 0dfb 01       		.uleb128 0x1
 1910 0dfc 50       		.byte	0x50
 1911 0dfd 02       		.uleb128 0x2
 1912 0dfe 08       		.byte	0x8
 1913 0dff 48       		.byte	0x48
 1914 0e00 00       		.byte	0
 1915 0e01 29       		.uleb128 0x29
 1916 0e02 18000000 		.4byte	.LVL3
 1917 0e06 AD0E0000 		.4byte	0xead
 1918 0e0a 29       		.uleb128 0x29
 1919 0e0b 34000000 		.4byte	.LVL6
 1920 0e0f B80E0000 		.4byte	0xeb8
 1921 0e13 29       		.uleb128 0x29
 1922 0e14 38000000 		.4byte	.LVL7
 1923 0e18 C30E0000 		.4byte	0xec3
 1924 0e1c 29       		.uleb128 0x29
 1925 0e1d 3C000000 		.4byte	.LVL8
 1926 0e21 CE0E0000 		.4byte	0xece
 1927 0e25 2A       		.uleb128 0x2a
 1928 0e26 B0000000 		.4byte	.LVL21
 1929 0e2a D90E0000 		.4byte	0xed9
 1930 0e2e 480E0000 		.4byte	0xe48
 1931 0e32 2B       		.uleb128 0x2b
 1932 0e33 01       		.uleb128 0x1
 1933 0e34 51       		.byte	0x51
 1934 0e35 03       		.uleb128 0x3
 1935 0e36 F5       		.byte	0xf5
 1936 0e37 09       		.uleb128 0x9
 1937 0e38 25       		.uleb128 0x25
 1938 0e39 2B       		.uleb128 0x2b
 1939 0e3a 01       		.uleb128 0x1
 1940 0e3b 52       		.byte	0x52
 1941 0e3c 03       		.uleb128 0x3
 1942 0e3d F5       		.byte	0xf5
 1943 0e3e 0A       		.uleb128 0xa
 1944 0e3f 25       		.uleb128 0x25
 1945 0e40 2B       		.uleb128 0x2b
 1946 0e41 01       		.uleb128 0x1
 1947 0e42 53       		.byte	0x53
ARM GAS  /tmp/cctJdLn9.s 			page 36


 1948 0e43 03       		.uleb128 0x3
 1949 0e44 F5       		.byte	0xf5
 1950 0e45 0B       		.uleb128 0xb
 1951 0e46 25       		.uleb128 0x25
 1952 0e47 00       		.byte	0
 1953 0e48 29       		.uleb128 0x29
 1954 0e49 B4000000 		.4byte	.LVL22
 1955 0e4d E40E0000 		.4byte	0xee4
 1956 0e51 29       		.uleb128 0x29
 1957 0e52 C0000000 		.4byte	.LVL25
 1958 0e56 EF0E0000 		.4byte	0xeef
 1959 0e5a 2A       		.uleb128 0x2a
 1960 0e5b D0000000 		.4byte	.LVL27
 1961 0e5f FA0E0000 		.4byte	0xefa
 1962 0e63 780E0000 		.4byte	0xe78
 1963 0e67 2B       		.uleb128 0x2b
 1964 0e68 01       		.uleb128 0x1
 1965 0e69 50       		.byte	0x50
 1966 0e6a 05       		.uleb128 0x5
 1967 0e6b 03       		.byte	0x3
 1968 0e6c 00000000 		.4byte	.LC0
 1969 0e70 2B       		.uleb128 0x2b
 1970 0e71 02       		.uleb128 0x2
 1971 0e72 7D       		.byte	0x7d
 1972 0e73 00       		.sleb128 0
 1973 0e74 02       		.uleb128 0x2
 1974 0e75 75       		.byte	0x75
 1975 0e76 00       		.sleb128 0
 1976 0e77 00       		.byte	0
 1977 0e78 2C       		.uleb128 0x2c
 1978 0e79 00010000 		.4byte	.LVL32
 1979 0e7d FA0E0000 		.4byte	0xefa
 1980 0e81 2B       		.uleb128 0x2b
 1981 0e82 01       		.uleb128 0x1
 1982 0e83 50       		.byte	0x50
 1983 0e84 05       		.uleb128 0x5
 1984 0e85 03       		.byte	0x3
 1985 0e86 14000000 		.4byte	.LC1
 1986 0e8a 00       		.byte	0
 1987 0e8b 00       		.byte	0
 1988 0e8c 2D       		.uleb128 0x2d
 1989 0e8d 38050000 		.4byte	.LASF208
 1990 0e91 38050000 		.4byte	.LASF208
 1991 0e95 05       		.byte	0x5
 1992 0e96 4F       		.byte	0x4f
 1993 0e97 2D       		.uleb128 0x2d
 1994 0e98 48020000 		.4byte	.LASF209
 1995 0e9c 48020000 		.4byte	.LASF209
 1996 0ea0 12       		.byte	0x12
 1997 0ea1 11       		.byte	0x11
 1998 0ea2 2D       		.uleb128 0x2d
 1999 0ea3 E8010000 		.4byte	.LASF210
 2000 0ea7 E8010000 		.4byte	.LASF210
 2001 0eab 12       		.byte	0x12
 2002 0eac 0E       		.byte	0xe
 2003 0ead 2D       		.uleb128 0x2d
 2004 0eae D4000000 		.4byte	.LASF211
ARM GAS  /tmp/cctJdLn9.s 			page 37


 2005 0eb2 D4000000 		.4byte	.LASF211
 2006 0eb6 09       		.byte	0x9
 2007 0eb7 15       		.byte	0x15
 2008 0eb8 2D       		.uleb128 0x2d
 2009 0eb9 CA060000 		.4byte	.LASF212
 2010 0ebd CA060000 		.4byte	.LASF212
 2011 0ec1 09       		.byte	0x9
 2012 0ec2 16       		.byte	0x16
 2013 0ec3 2D       		.uleb128 0x2d
 2014 0ec4 37080000 		.4byte	.LASF213
 2015 0ec8 37080000 		.4byte	.LASF213
 2016 0ecc 09       		.byte	0x9
 2017 0ecd 18       		.byte	0x18
 2018 0ece 2D       		.uleb128 0x2d
 2019 0ecf E2070000 		.4byte	.LASF214
 2020 0ed3 E2070000 		.4byte	.LASF214
 2021 0ed7 09       		.byte	0x9
 2022 0ed8 17       		.byte	0x17
 2023 0ed9 2D       		.uleb128 0x2d
 2024 0eda 0F070000 		.4byte	.LASF215
 2025 0ede 0F070000 		.4byte	.LASF215
 2026 0ee2 07       		.byte	0x7
 2027 0ee3 23       		.byte	0x23
 2028 0ee4 2D       		.uleb128 0x2d
 2029 0ee5 B5040000 		.4byte	.LASF216
 2030 0ee9 B5040000 		.4byte	.LASF216
 2031 0eed 07       		.byte	0x7
 2032 0eee 24       		.byte	0x24
 2033 0eef 2D       		.uleb128 0x2d
 2034 0ef0 8A070000 		.4byte	.LASF217
 2035 0ef4 8A070000 		.4byte	.LASF217
 2036 0ef8 12       		.byte	0x12
 2037 0ef9 06       		.byte	0x6
 2038 0efa 2D       		.uleb128 0x2d
 2039 0efb 23030000 		.4byte	.LASF218
 2040 0eff 23030000 		.4byte	.LASF218
 2041 0f03 12       		.byte	0x12
 2042 0f04 0A       		.byte	0xa
 2043 0f05 00       		.byte	0
 2044              		.section	.debug_abbrev,"",%progbits
 2045              	.Ldebug_abbrev0:
 2046 0000 01       		.uleb128 0x1
 2047 0001 11       		.uleb128 0x11
 2048 0002 01       		.byte	0x1
 2049 0003 25       		.uleb128 0x25
 2050 0004 0E       		.uleb128 0xe
 2051 0005 13       		.uleb128 0x13
 2052 0006 0B       		.uleb128 0xb
 2053 0007 03       		.uleb128 0x3
 2054 0008 0E       		.uleb128 0xe
 2055 0009 1B       		.uleb128 0x1b
 2056 000a 0E       		.uleb128 0xe
 2057 000b 11       		.uleb128 0x11
 2058 000c 01       		.uleb128 0x1
 2059 000d 12       		.uleb128 0x12
 2060 000e 06       		.uleb128 0x6
 2061 000f 10       		.uleb128 0x10
ARM GAS  /tmp/cctJdLn9.s 			page 38


 2062 0010 17       		.uleb128 0x17
 2063 0011 00       		.byte	0
 2064 0012 00       		.byte	0
 2065 0013 02       		.uleb128 0x2
 2066 0014 24       		.uleb128 0x24
 2067 0015 00       		.byte	0
 2068 0016 0B       		.uleb128 0xb
 2069 0017 0B       		.uleb128 0xb
 2070 0018 3E       		.uleb128 0x3e
 2071 0019 0B       		.uleb128 0xb
 2072 001a 03       		.uleb128 0x3
 2073 001b 0E       		.uleb128 0xe
 2074 001c 00       		.byte	0
 2075 001d 00       		.byte	0
 2076 001e 03       		.uleb128 0x3
 2077 001f 16       		.uleb128 0x16
 2078 0020 00       		.byte	0
 2079 0021 03       		.uleb128 0x3
 2080 0022 0E       		.uleb128 0xe
 2081 0023 3A       		.uleb128 0x3a
 2082 0024 0B       		.uleb128 0xb
 2083 0025 3B       		.uleb128 0x3b
 2084 0026 0B       		.uleb128 0xb
 2085 0027 49       		.uleb128 0x49
 2086 0028 13       		.uleb128 0x13
 2087 0029 00       		.byte	0
 2088 002a 00       		.byte	0
 2089 002b 04       		.uleb128 0x4
 2090 002c 24       		.uleb128 0x24
 2091 002d 00       		.byte	0
 2092 002e 0B       		.uleb128 0xb
 2093 002f 0B       		.uleb128 0xb
 2094 0030 3E       		.uleb128 0x3e
 2095 0031 0B       		.uleb128 0xb
 2096 0032 03       		.uleb128 0x3
 2097 0033 08       		.uleb128 0x8
 2098 0034 00       		.byte	0
 2099 0035 00       		.byte	0
 2100 0036 05       		.uleb128 0x5
 2101 0037 35       		.uleb128 0x35
 2102 0038 00       		.byte	0
 2103 0039 49       		.uleb128 0x49
 2104 003a 13       		.uleb128 0x13
 2105 003b 00       		.byte	0
 2106 003c 00       		.byte	0
 2107 003d 06       		.uleb128 0x6
 2108 003e 34       		.uleb128 0x34
 2109 003f 00       		.byte	0
 2110 0040 03       		.uleb128 0x3
 2111 0041 0E       		.uleb128 0xe
 2112 0042 3A       		.uleb128 0x3a
 2113 0043 0B       		.uleb128 0xb
 2114 0044 3B       		.uleb128 0x3b
 2115 0045 05       		.uleb128 0x5
 2116 0046 49       		.uleb128 0x49
 2117 0047 13       		.uleb128 0x13
 2118 0048 3F       		.uleb128 0x3f
ARM GAS  /tmp/cctJdLn9.s 			page 39


 2119 0049 19       		.uleb128 0x19
 2120 004a 3C       		.uleb128 0x3c
 2121 004b 19       		.uleb128 0x19
 2122 004c 00       		.byte	0
 2123 004d 00       		.byte	0
 2124 004e 07       		.uleb128 0x7
 2125 004f 34       		.uleb128 0x34
 2126 0050 00       		.byte	0
 2127 0051 03       		.uleb128 0x3
 2128 0052 0E       		.uleb128 0xe
 2129 0053 3A       		.uleb128 0x3a
 2130 0054 0B       		.uleb128 0xb
 2131 0055 3B       		.uleb128 0x3b
 2132 0056 0B       		.uleb128 0xb
 2133 0057 49       		.uleb128 0x49
 2134 0058 13       		.uleb128 0x13
 2135 0059 3F       		.uleb128 0x3f
 2136 005a 19       		.uleb128 0x19
 2137 005b 3C       		.uleb128 0x3c
 2138 005c 19       		.uleb128 0x19
 2139 005d 00       		.byte	0
 2140 005e 00       		.byte	0
 2141 005f 08       		.uleb128 0x8
 2142 0060 13       		.uleb128 0x13
 2143 0061 01       		.byte	0x1
 2144 0062 0B       		.uleb128 0xb
 2145 0063 0B       		.uleb128 0xb
 2146 0064 3A       		.uleb128 0x3a
 2147 0065 0B       		.uleb128 0xb
 2148 0066 3B       		.uleb128 0x3b
 2149 0067 05       		.uleb128 0x5
 2150 0068 01       		.uleb128 0x1
 2151 0069 13       		.uleb128 0x13
 2152 006a 00       		.byte	0
 2153 006b 00       		.byte	0
 2154 006c 09       		.uleb128 0x9
 2155 006d 0D       		.uleb128 0xd
 2156 006e 00       		.byte	0
 2157 006f 03       		.uleb128 0x3
 2158 0070 08       		.uleb128 0x8
 2159 0071 3A       		.uleb128 0x3a
 2160 0072 0B       		.uleb128 0xb
 2161 0073 3B       		.uleb128 0x3b
 2162 0074 05       		.uleb128 0x5
 2163 0075 49       		.uleb128 0x49
 2164 0076 13       		.uleb128 0x13
 2165 0077 38       		.uleb128 0x38
 2166 0078 0B       		.uleb128 0xb
 2167 0079 00       		.byte	0
 2168 007a 00       		.byte	0
 2169 007b 0A       		.uleb128 0xa
 2170 007c 0D       		.uleb128 0xd
 2171 007d 00       		.byte	0
 2172 007e 03       		.uleb128 0x3
 2173 007f 0E       		.uleb128 0xe
 2174 0080 3A       		.uleb128 0x3a
 2175 0081 0B       		.uleb128 0xb
ARM GAS  /tmp/cctJdLn9.s 			page 40


 2176 0082 3B       		.uleb128 0x3b
 2177 0083 05       		.uleb128 0x5
 2178 0084 49       		.uleb128 0x49
 2179 0085 13       		.uleb128 0x13
 2180 0086 38       		.uleb128 0x38
 2181 0087 0B       		.uleb128 0xb
 2182 0088 00       		.byte	0
 2183 0089 00       		.byte	0
 2184 008a 0B       		.uleb128 0xb
 2185 008b 16       		.uleb128 0x16
 2186 008c 00       		.byte	0
 2187 008d 03       		.uleb128 0x3
 2188 008e 0E       		.uleb128 0xe
 2189 008f 3A       		.uleb128 0x3a
 2190 0090 0B       		.uleb128 0xb
 2191 0091 3B       		.uleb128 0x3b
 2192 0092 05       		.uleb128 0x5
 2193 0093 49       		.uleb128 0x49
 2194 0094 13       		.uleb128 0x13
 2195 0095 00       		.byte	0
 2196 0096 00       		.byte	0
 2197 0097 0C       		.uleb128 0xc
 2198 0098 34       		.uleb128 0x34
 2199 0099 00       		.byte	0
 2200 009a 03       		.uleb128 0x3
 2201 009b 08       		.uleb128 0x8
 2202 009c 3A       		.uleb128 0x3a
 2203 009d 0B       		.uleb128 0xb
 2204 009e 3B       		.uleb128 0x3b
 2205 009f 0B       		.uleb128 0xb
 2206 00a0 49       		.uleb128 0x49
 2207 00a1 13       		.uleb128 0x13
 2208 00a2 3F       		.uleb128 0x3f
 2209 00a3 19       		.uleb128 0x19
 2210 00a4 3C       		.uleb128 0x3c
 2211 00a5 19       		.uleb128 0x19
 2212 00a6 00       		.byte	0
 2213 00a7 00       		.byte	0
 2214 00a8 0D       		.uleb128 0xd
 2215 00a9 01       		.uleb128 0x1
 2216 00aa 01       		.byte	0x1
 2217 00ab 49       		.uleb128 0x49
 2218 00ac 13       		.uleb128 0x13
 2219 00ad 01       		.uleb128 0x1
 2220 00ae 13       		.uleb128 0x13
 2221 00af 00       		.byte	0
 2222 00b0 00       		.byte	0
 2223 00b1 0E       		.uleb128 0xe
 2224 00b2 21       		.uleb128 0x21
 2225 00b3 00       		.byte	0
 2226 00b4 49       		.uleb128 0x49
 2227 00b5 13       		.uleb128 0x13
 2228 00b6 2F       		.uleb128 0x2f
 2229 00b7 0B       		.uleb128 0xb
 2230 00b8 00       		.byte	0
 2231 00b9 00       		.byte	0
 2232 00ba 0F       		.uleb128 0xf
ARM GAS  /tmp/cctJdLn9.s 			page 41


 2233 00bb 17       		.uleb128 0x17
 2234 00bc 01       		.byte	0x1
 2235 00bd 0B       		.uleb128 0xb
 2236 00be 0B       		.uleb128 0xb
 2237 00bf 3A       		.uleb128 0x3a
 2238 00c0 0B       		.uleb128 0xb
 2239 00c1 3B       		.uleb128 0x3b
 2240 00c2 0B       		.uleb128 0xb
 2241 00c3 01       		.uleb128 0x1
 2242 00c4 13       		.uleb128 0x13
 2243 00c5 00       		.byte	0
 2244 00c6 00       		.byte	0
 2245 00c7 10       		.uleb128 0x10
 2246 00c8 0D       		.uleb128 0xd
 2247 00c9 00       		.byte	0
 2248 00ca 03       		.uleb128 0x3
 2249 00cb 0E       		.uleb128 0xe
 2250 00cc 3A       		.uleb128 0x3a
 2251 00cd 0B       		.uleb128 0xb
 2252 00ce 3B       		.uleb128 0x3b
 2253 00cf 0B       		.uleb128 0xb
 2254 00d0 49       		.uleb128 0x49
 2255 00d1 13       		.uleb128 0x13
 2256 00d2 00       		.byte	0
 2257 00d3 00       		.byte	0
 2258 00d4 11       		.uleb128 0x11
 2259 00d5 13       		.uleb128 0x13
 2260 00d6 01       		.byte	0x1
 2261 00d7 0B       		.uleb128 0xb
 2262 00d8 0B       		.uleb128 0xb
 2263 00d9 3A       		.uleb128 0x3a
 2264 00da 0B       		.uleb128 0xb
 2265 00db 3B       		.uleb128 0x3b
 2266 00dc 0B       		.uleb128 0xb
 2267 00dd 01       		.uleb128 0x1
 2268 00de 13       		.uleb128 0x13
 2269 00df 00       		.byte	0
 2270 00e0 00       		.byte	0
 2271 00e1 12       		.uleb128 0x12
 2272 00e2 0D       		.uleb128 0xd
 2273 00e3 00       		.byte	0
 2274 00e4 03       		.uleb128 0x3
 2275 00e5 0E       		.uleb128 0xe
 2276 00e6 3A       		.uleb128 0x3a
 2277 00e7 0B       		.uleb128 0xb
 2278 00e8 3B       		.uleb128 0x3b
 2279 00e9 0B       		.uleb128 0xb
 2280 00ea 49       		.uleb128 0x49
 2281 00eb 13       		.uleb128 0x13
 2282 00ec 38       		.uleb128 0x38
 2283 00ed 0B       		.uleb128 0xb
 2284 00ee 00       		.byte	0
 2285 00ef 00       		.byte	0
 2286 00f0 13       		.uleb128 0x13
 2287 00f1 0F       		.uleb128 0xf
 2288 00f2 00       		.byte	0
 2289 00f3 0B       		.uleb128 0xb
ARM GAS  /tmp/cctJdLn9.s 			page 42


 2290 00f4 0B       		.uleb128 0xb
 2291 00f5 00       		.byte	0
 2292 00f6 00       		.byte	0
 2293 00f7 14       		.uleb128 0x14
 2294 00f8 0F       		.uleb128 0xf
 2295 00f9 00       		.byte	0
 2296 00fa 0B       		.uleb128 0xb
 2297 00fb 0B       		.uleb128 0xb
 2298 00fc 49       		.uleb128 0x49
 2299 00fd 13       		.uleb128 0x13
 2300 00fe 00       		.byte	0
 2301 00ff 00       		.byte	0
 2302 0100 15       		.uleb128 0x15
 2303 0101 26       		.uleb128 0x26
 2304 0102 00       		.byte	0
 2305 0103 49       		.uleb128 0x49
 2306 0104 13       		.uleb128 0x13
 2307 0105 00       		.byte	0
 2308 0106 00       		.byte	0
 2309 0107 16       		.uleb128 0x16
 2310 0108 13       		.uleb128 0x13
 2311 0109 01       		.byte	0x1
 2312 010a 03       		.uleb128 0x3
 2313 010b 0E       		.uleb128 0xe
 2314 010c 0B       		.uleb128 0xb
 2315 010d 0B       		.uleb128 0xb
 2316 010e 3A       		.uleb128 0x3a
 2317 010f 0B       		.uleb128 0xb
 2318 0110 3B       		.uleb128 0x3b
 2319 0111 0B       		.uleb128 0xb
 2320 0112 01       		.uleb128 0x1
 2321 0113 13       		.uleb128 0x13
 2322 0114 00       		.byte	0
 2323 0115 00       		.byte	0
 2324 0116 17       		.uleb128 0x17
 2325 0117 0D       		.uleb128 0xd
 2326 0118 00       		.byte	0
 2327 0119 03       		.uleb128 0x3
 2328 011a 08       		.uleb128 0x8
 2329 011b 3A       		.uleb128 0x3a
 2330 011c 0B       		.uleb128 0xb
 2331 011d 3B       		.uleb128 0x3b
 2332 011e 0B       		.uleb128 0xb
 2333 011f 49       		.uleb128 0x49
 2334 0120 13       		.uleb128 0x13
 2335 0121 38       		.uleb128 0x38
 2336 0122 0B       		.uleb128 0xb
 2337 0123 00       		.byte	0
 2338 0124 00       		.byte	0
 2339 0125 18       		.uleb128 0x18
 2340 0126 13       		.uleb128 0x13
 2341 0127 01       		.byte	0x1
 2342 0128 03       		.uleb128 0x3
 2343 0129 0E       		.uleb128 0xe
 2344 012a 0B       		.uleb128 0xb
 2345 012b 05       		.uleb128 0x5
 2346 012c 3A       		.uleb128 0x3a
ARM GAS  /tmp/cctJdLn9.s 			page 43


 2347 012d 0B       		.uleb128 0xb
 2348 012e 3B       		.uleb128 0x3b
 2349 012f 0B       		.uleb128 0xb
 2350 0130 01       		.uleb128 0x1
 2351 0131 13       		.uleb128 0x13
 2352 0132 00       		.byte	0
 2353 0133 00       		.byte	0
 2354 0134 19       		.uleb128 0x19
 2355 0135 0D       		.uleb128 0xd
 2356 0136 00       		.byte	0
 2357 0137 03       		.uleb128 0x3
 2358 0138 0E       		.uleb128 0xe
 2359 0139 3A       		.uleb128 0x3a
 2360 013a 0B       		.uleb128 0xb
 2361 013b 3B       		.uleb128 0x3b
 2362 013c 0B       		.uleb128 0xb
 2363 013d 49       		.uleb128 0x49
 2364 013e 13       		.uleb128 0x13
 2365 013f 38       		.uleb128 0x38
 2366 0140 05       		.uleb128 0x5
 2367 0141 00       		.byte	0
 2368 0142 00       		.byte	0
 2369 0143 1A       		.uleb128 0x1a
 2370 0144 15       		.uleb128 0x15
 2371 0145 00       		.byte	0
 2372 0146 27       		.uleb128 0x27
 2373 0147 19       		.uleb128 0x19
 2374 0148 00       		.byte	0
 2375 0149 00       		.byte	0
 2376 014a 1B       		.uleb128 0x1b
 2377 014b 15       		.uleb128 0x15
 2378 014c 01       		.byte	0x1
 2379 014d 27       		.uleb128 0x27
 2380 014e 19       		.uleb128 0x19
 2381 014f 49       		.uleb128 0x49
 2382 0150 13       		.uleb128 0x13
 2383 0151 01       		.uleb128 0x1
 2384 0152 13       		.uleb128 0x13
 2385 0153 00       		.byte	0
 2386 0154 00       		.byte	0
 2387 0155 1C       		.uleb128 0x1c
 2388 0156 05       		.uleb128 0x5
 2389 0157 00       		.byte	0
 2390 0158 49       		.uleb128 0x49
 2391 0159 13       		.uleb128 0x13
 2392 015a 00       		.byte	0
 2393 015b 00       		.byte	0
 2394 015c 1D       		.uleb128 0x1d
 2395 015d 13       		.uleb128 0x13
 2396 015e 01       		.byte	0x1
 2397 015f 03       		.uleb128 0x3
 2398 0160 0E       		.uleb128 0xe
 2399 0161 0B       		.uleb128 0xb
 2400 0162 05       		.uleb128 0x5
 2401 0163 3A       		.uleb128 0x3a
 2402 0164 0B       		.uleb128 0xb
 2403 0165 3B       		.uleb128 0x3b
ARM GAS  /tmp/cctJdLn9.s 			page 44


 2404 0166 05       		.uleb128 0x5
 2405 0167 01       		.uleb128 0x1
 2406 0168 13       		.uleb128 0x13
 2407 0169 00       		.byte	0
 2408 016a 00       		.byte	0
 2409 016b 1E       		.uleb128 0x1e
 2410 016c 0D       		.uleb128 0xd
 2411 016d 00       		.byte	0
 2412 016e 03       		.uleb128 0x3
 2413 016f 0E       		.uleb128 0xe
 2414 0170 3A       		.uleb128 0x3a
 2415 0171 0B       		.uleb128 0xb
 2416 0172 3B       		.uleb128 0x3b
 2417 0173 05       		.uleb128 0x5
 2418 0174 49       		.uleb128 0x49
 2419 0175 13       		.uleb128 0x13
 2420 0176 38       		.uleb128 0x38
 2421 0177 05       		.uleb128 0x5
 2422 0178 00       		.byte	0
 2423 0179 00       		.byte	0
 2424 017a 1F       		.uleb128 0x1f
 2425 017b 13       		.uleb128 0x13
 2426 017c 01       		.byte	0x1
 2427 017d 03       		.uleb128 0x3
 2428 017e 0E       		.uleb128 0xe
 2429 017f 0B       		.uleb128 0xb
 2430 0180 0B       		.uleb128 0xb
 2431 0181 3A       		.uleb128 0x3a
 2432 0182 0B       		.uleb128 0xb
 2433 0183 3B       		.uleb128 0x3b
 2434 0184 05       		.uleb128 0x5
 2435 0185 01       		.uleb128 0x1
 2436 0186 13       		.uleb128 0x13
 2437 0187 00       		.byte	0
 2438 0188 00       		.byte	0
 2439 0189 20       		.uleb128 0x20
 2440 018a 17       		.uleb128 0x17
 2441 018b 01       		.byte	0x1
 2442 018c 0B       		.uleb128 0xb
 2443 018d 0B       		.uleb128 0xb
 2444 018e 3A       		.uleb128 0x3a
 2445 018f 0B       		.uleb128 0xb
 2446 0190 3B       		.uleb128 0x3b
 2447 0191 05       		.uleb128 0x5
 2448 0192 01       		.uleb128 0x1
 2449 0193 13       		.uleb128 0x13
 2450 0194 00       		.byte	0
 2451 0195 00       		.byte	0
 2452 0196 21       		.uleb128 0x21
 2453 0197 0D       		.uleb128 0xd
 2454 0198 00       		.byte	0
 2455 0199 03       		.uleb128 0x3
 2456 019a 0E       		.uleb128 0xe
 2457 019b 3A       		.uleb128 0x3a
 2458 019c 0B       		.uleb128 0xb
 2459 019d 3B       		.uleb128 0x3b
 2460 019e 05       		.uleb128 0x5
ARM GAS  /tmp/cctJdLn9.s 			page 45


 2461 019f 49       		.uleb128 0x49
 2462 01a0 13       		.uleb128 0x13
 2463 01a1 00       		.byte	0
 2464 01a2 00       		.byte	0
 2465 01a3 22       		.uleb128 0x22
 2466 01a4 15       		.uleb128 0x15
 2467 01a5 01       		.byte	0x1
 2468 01a6 27       		.uleb128 0x27
 2469 01a7 19       		.uleb128 0x19
 2470 01a8 01       		.uleb128 0x1
 2471 01a9 13       		.uleb128 0x13
 2472 01aa 00       		.byte	0
 2473 01ab 00       		.byte	0
 2474 01ac 23       		.uleb128 0x23
 2475 01ad 04       		.uleb128 0x4
 2476 01ae 01       		.byte	0x1
 2477 01af 03       		.uleb128 0x3
 2478 01b0 0E       		.uleb128 0xe
 2479 01b1 0B       		.uleb128 0xb
 2480 01b2 0B       		.uleb128 0xb
 2481 01b3 49       		.uleb128 0x49
 2482 01b4 13       		.uleb128 0x13
 2483 01b5 3A       		.uleb128 0x3a
 2484 01b6 0B       		.uleb128 0xb
 2485 01b7 3B       		.uleb128 0x3b
 2486 01b8 05       		.uleb128 0x5
 2487 01b9 01       		.uleb128 0x1
 2488 01ba 13       		.uleb128 0x13
 2489 01bb 00       		.byte	0
 2490 01bc 00       		.byte	0
 2491 01bd 24       		.uleb128 0x24
 2492 01be 28       		.uleb128 0x28
 2493 01bf 00       		.byte	0
 2494 01c0 03       		.uleb128 0x3
 2495 01c1 0E       		.uleb128 0xe
 2496 01c2 1C       		.uleb128 0x1c
 2497 01c3 0D       		.uleb128 0xd
 2498 01c4 00       		.byte	0
 2499 01c5 00       		.byte	0
 2500 01c6 25       		.uleb128 0x25
 2501 01c7 28       		.uleb128 0x28
 2502 01c8 00       		.byte	0
 2503 01c9 03       		.uleb128 0x3
 2504 01ca 0E       		.uleb128 0xe
 2505 01cb 1C       		.uleb128 0x1c
 2506 01cc 0B       		.uleb128 0xb
 2507 01cd 00       		.byte	0
 2508 01ce 00       		.byte	0
 2509 01cf 26       		.uleb128 0x26
 2510 01d0 21       		.uleb128 0x21
 2511 01d1 00       		.byte	0
 2512 01d2 00       		.byte	0
 2513 01d3 00       		.byte	0
 2514 01d4 27       		.uleb128 0x27
 2515 01d5 2E       		.uleb128 0x2e
 2516 01d6 01       		.byte	0x1
 2517 01d7 3F       		.uleb128 0x3f
ARM GAS  /tmp/cctJdLn9.s 			page 46


 2518 01d8 19       		.uleb128 0x19
 2519 01d9 03       		.uleb128 0x3
 2520 01da 0E       		.uleb128 0xe
 2521 01db 3A       		.uleb128 0x3a
 2522 01dc 0B       		.uleb128 0xb
 2523 01dd 3B       		.uleb128 0x3b
 2524 01de 0B       		.uleb128 0xb
 2525 01df 27       		.uleb128 0x27
 2526 01e0 19       		.uleb128 0x19
 2527 01e1 49       		.uleb128 0x49
 2528 01e2 13       		.uleb128 0x13
 2529 01e3 11       		.uleb128 0x11
 2530 01e4 01       		.uleb128 0x1
 2531 01e5 12       		.uleb128 0x12
 2532 01e6 06       		.uleb128 0x6
 2533 01e7 40       		.uleb128 0x40
 2534 01e8 18       		.uleb128 0x18
 2535 01e9 9642     		.uleb128 0x2116
 2536 01eb 19       		.uleb128 0x19
 2537 01ec 01       		.uleb128 0x1
 2538 01ed 13       		.uleb128 0x13
 2539 01ee 00       		.byte	0
 2540 01ef 00       		.byte	0
 2541 01f0 28       		.uleb128 0x28
 2542 01f1 34       		.uleb128 0x34
 2543 01f2 00       		.byte	0
 2544 01f3 03       		.uleb128 0x3
 2545 01f4 08       		.uleb128 0x8
 2546 01f5 3A       		.uleb128 0x3a
 2547 01f6 0B       		.uleb128 0xb
 2548 01f7 3B       		.uleb128 0x3b
 2549 01f8 0B       		.uleb128 0xb
 2550 01f9 49       		.uleb128 0x49
 2551 01fa 13       		.uleb128 0x13
 2552 01fb 02       		.uleb128 0x2
 2553 01fc 17       		.uleb128 0x17
 2554 01fd 00       		.byte	0
 2555 01fe 00       		.byte	0
 2556 01ff 29       		.uleb128 0x29
 2557 0200 898201   		.uleb128 0x4109
 2558 0203 00       		.byte	0
 2559 0204 11       		.uleb128 0x11
 2560 0205 01       		.uleb128 0x1
 2561 0206 31       		.uleb128 0x31
 2562 0207 13       		.uleb128 0x13
 2563 0208 00       		.byte	0
 2564 0209 00       		.byte	0
 2565 020a 2A       		.uleb128 0x2a
 2566 020b 898201   		.uleb128 0x4109
 2567 020e 01       		.byte	0x1
 2568 020f 11       		.uleb128 0x11
 2569 0210 01       		.uleb128 0x1
 2570 0211 31       		.uleb128 0x31
 2571 0212 13       		.uleb128 0x13
 2572 0213 01       		.uleb128 0x1
 2573 0214 13       		.uleb128 0x13
 2574 0215 00       		.byte	0
ARM GAS  /tmp/cctJdLn9.s 			page 47


 2575 0216 00       		.byte	0
 2576 0217 2B       		.uleb128 0x2b
 2577 0218 8A8201   		.uleb128 0x410a
 2578 021b 00       		.byte	0
 2579 021c 02       		.uleb128 0x2
 2580 021d 18       		.uleb128 0x18
 2581 021e 9142     		.uleb128 0x2111
 2582 0220 18       		.uleb128 0x18
 2583 0221 00       		.byte	0
 2584 0222 00       		.byte	0
 2585 0223 2C       		.uleb128 0x2c
 2586 0224 898201   		.uleb128 0x4109
 2587 0227 01       		.byte	0x1
 2588 0228 11       		.uleb128 0x11
 2589 0229 01       		.uleb128 0x1
 2590 022a 31       		.uleb128 0x31
 2591 022b 13       		.uleb128 0x13
 2592 022c 00       		.byte	0
 2593 022d 00       		.byte	0
 2594 022e 2D       		.uleb128 0x2d
 2595 022f 2E       		.uleb128 0x2e
 2596 0230 00       		.byte	0
 2597 0231 3F       		.uleb128 0x3f
 2598 0232 19       		.uleb128 0x19
 2599 0233 3C       		.uleb128 0x3c
 2600 0234 19       		.uleb128 0x19
 2601 0235 6E       		.uleb128 0x6e
 2602 0236 0E       		.uleb128 0xe
 2603 0237 03       		.uleb128 0x3
 2604 0238 0E       		.uleb128 0xe
 2605 0239 3A       		.uleb128 0x3a
 2606 023a 0B       		.uleb128 0xb
 2607 023b 3B       		.uleb128 0x3b
 2608 023c 0B       		.uleb128 0xb
 2609 023d 00       		.byte	0
 2610 023e 00       		.byte	0
 2611 023f 00       		.byte	0
 2612              		.section	.debug_loc,"",%progbits
 2613              	.Ldebug_loc0:
 2614              	.LLST0:
 2615 0000 18000000 		.4byte	.LVL3-.Ltext0
 2616 0004 24000000 		.4byte	.LVL4-.Ltext0
 2617 0008 0200     		.2byte	0x2
 2618 000a 30       		.byte	0x30
 2619 000b 9F       		.byte	0x9f
 2620 000c 24000000 		.4byte	.LVL4-.Ltext0
 2621 0010 BA000000 		.4byte	.LVL24-.Ltext0
 2622 0014 0100     		.2byte	0x1
 2623 0016 54       		.byte	0x54
 2624 0017 00000000 		.4byte	0
 2625 001b 00000000 		.4byte	0
 2626              	.LLST1:
 2627 001f 18000000 		.4byte	.LVL3-.Ltext0
 2628 0023 24000000 		.4byte	.LVL4-.Ltext0
 2629 0027 0200     		.2byte	0x2
 2630 0029 30       		.byte	0x30
 2631 002a 9F       		.byte	0x9f
ARM GAS  /tmp/cctJdLn9.s 			page 48


 2632 002b 2A000000 		.4byte	.LVL5-.Ltext0
 2633 002f D6000000 		.4byte	.LVL28-.Ltext0
 2634 0033 0100     		.2byte	0x1
 2635 0035 55       		.byte	0x55
 2636 0036 00000000 		.4byte	0
 2637 003a 00000000 		.4byte	0
 2638              		.section	.debug_aranges,"",%progbits
 2639 0000 1C000000 		.4byte	0x1c
 2640 0004 0200     		.2byte	0x2
 2641 0006 00000000 		.4byte	.Ldebug_info0
 2642 000a 04       		.byte	0x4
 2643 000b 00       		.byte	0
 2644 000c 0000     		.2byte	0
 2645 000e 0000     		.2byte	0
 2646 0010 00000000 		.4byte	.Ltext0
 2647 0014 3C010000 		.4byte	.Letext0-.Ltext0
 2648 0018 00000000 		.4byte	0
 2649 001c 00000000 		.4byte	0
 2650              		.section	.debug_line,"",%progbits
 2651              	.Ldebug_line0:
 2652 0000 5C020000 		.section	.debug_str,"MS",%progbits,1
 2652      02003102 
 2652      00000201 
 2652      FB0E0D00 
 2652      01010101 
 2653              	.LASF77:
 2654 0000 6932635F 		.ascii	"i2c_rdata\000"
 2654      72646174 
 2654      6100
 2655              	.LASF5:
 2656 000a 73686F72 		.ascii	"short int\000"
 2656      7420696E 
 2656      7400
 2657              	.LASF206:
 2658 0014 5F737973 		.ascii	"_sys_errlist\000"
 2658      5F657272 
 2658      6C697374 
 2658      00
 2659              	.LASF63:
 2660 0021 6163635F 		.ascii	"acc_y\000"
 2660      7900
 2661              	.LASF73:
 2662 0027 7A5F616E 		.ascii	"z_angle\000"
 2662      676C6500 
 2663              	.LASF27:
 2664 002f 44494552 		.ascii	"DIER\000"
 2664      00
 2665              	.LASF118:
 2666 0034 5F666E61 		.ascii	"_fnargs\000"
 2666      72677300 
 2667              	.LASF171:
 2668 003c 5F72616E 		.ascii	"_rand48\000"
 2668      64343800 
 2669              	.LASF203:
 2670 0044 5F5F6664 		.ascii	"__fdlibm_xopen\000"
 2670      6C69626D 
 2670      5F786F70 
ARM GAS  /tmp/cctJdLn9.s 			page 49


 2670      656E00
 2671              	.LASF151:
 2672 0053 5F656D65 		.ascii	"_emergency\000"
 2672      7267656E 
 2672      637900
 2673              	.LASF3:
 2674 005e 5F5F7569 		.ascii	"__uint8_t\000"
 2674      6E74385F 
 2674      7400
 2675              	.LASF31:
 2676 0068 43434D52 		.ascii	"CCMR1\000"
 2676      3100
 2677              	.LASF163:
 2678 006e 5F617465 		.ascii	"_atexit0\000"
 2678      78697430 
 2678      00
 2679              	.LASF91:
 2680 0077 5F6F6666 		.ascii	"_off_t\000"
 2680      5F7400
 2681              	.LASF54:
 2682 007e 54494D5F 		.ascii	"TIM_TypeDef\000"
 2682      54797065 
 2682      44656600 
 2683              	.LASF191:
 2684 008a 5F776372 		.ascii	"_wcrtomb_state\000"
 2684      746F6D62 
 2684      5F737461 
 2684      746500
 2685              	.LASF192:
 2686 0099 5F776373 		.ascii	"_wcsrtombs_state\000"
 2686      72746F6D 
 2686      62735F73 
 2686      74617465 
 2686      00
 2687              	.LASF60:
 2688 00aa 6779726F 		.ascii	"gyro_y\000"
 2688      5F7900
 2689              	.LASF71:
 2690 00b1 6163635F 		.ascii	"acc_y_temp\000"
 2690      795F7465 
 2690      6D7000
 2691              	.LASF204:
 2692 00bc 5F5F6664 		.ascii	"__fdlibm_posix\000"
 2692      6C69626D 
 2692      5F706F73 
 2692      697800
 2693              	.LASF131:
 2694 00cb 5F6C6266 		.ascii	"_lbfsize\000"
 2694      73697A65 
 2694      00
 2695              	.LASF211:
 2696 00d4 6D70755F 		.ascii	"mpu_6050_init\000"
 2696      36303530 
 2696      5F696E69 
 2696      7400
 2697              	.LASF75:
 2698 00e2 74657374 		.ascii	"test\000"
ARM GAS  /tmp/cctJdLn9.s 			page 50


 2698      00
 2699              	.LASF21:
 2700 00e7 49544D5F 		.ascii	"ITM_RxBuffer\000"
 2700      52784275 
 2700      66666572 
 2700      00
 2701              	.LASF205:
 2702 00f4 5F5F6664 		.ascii	"__fdlib_version\000"
 2702      6C69625F 
 2702      76657273 
 2702      696F6E00 
 2703              	.LASF189:
 2704 0104 5F6D6272 		.ascii	"_mbrtowc_state\000"
 2704      746F7763 
 2704      5F737461 
 2704      746500
 2705              	.LASF49:
 2706 0113 42445452 		.ascii	"BDTR\000"
 2706      00
 2707              	.LASF184:
 2708 0118 5F776374 		.ascii	"_wctomb_state\000"
 2708      6F6D625F 
 2708      73746174 
 2708      6500
 2709              	.LASF82:
 2710 0126 785F6269 		.ascii	"x_bias\000"
 2710      617300
 2711              	.LASF16:
 2712 012d 696E7431 		.ascii	"int16_t\000"
 2712      365F7400 
 2713              	.LASF33:
 2714 0135 43434D52 		.ascii	"CCMR2\000"
 2714      3200
 2715              	.LASF136:
 2716 013b 5F636C6F 		.ascii	"_close\000"
 2716      736500
 2717              	.LASF1:
 2718 0142 7369676E 		.ascii	"signed char\000"
 2718      65642063 
 2718      68617200 
 2719              	.LASF137:
 2720 014e 5F756275 		.ascii	"_ubuf\000"
 2720      6600
 2721              	.LASF13:
 2722 0154 6C6F6E67 		.ascii	"long long unsigned int\000"
 2722      206C6F6E 
 2722      6720756E 
 2722      7369676E 
 2722      65642069 
 2723              	.LASF110:
 2724 016b 5F5F746D 		.ascii	"__tm_hour\000"
 2724      5F686F75 
 2724      7200
 2725              	.LASF166:
 2726 0175 5F5F7366 		.ascii	"__sf\000"
 2726      00
 2727              	.LASF117:
ARM GAS  /tmp/cctJdLn9.s 			page 51


 2728 017a 5F6F6E5F 		.ascii	"_on_exit_args\000"
 2728      65786974 
 2728      5F617267 
 2728      7300
 2729              	.LASF40:
 2730 0188 52455345 		.ascii	"RESERVED12\000"
 2730      52564544 
 2730      313200
 2731              	.LASF42:
 2732 0193 52455345 		.ascii	"RESERVED13\000"
 2732      52564544 
 2732      313300
 2733              	.LASF44:
 2734 019e 52455345 		.ascii	"RESERVED14\000"
 2734      52564544 
 2734      313400
 2735              	.LASF46:
 2736 01a9 52455345 		.ascii	"RESERVED15\000"
 2736      52564544 
 2736      313500
 2737              	.LASF132:
 2738 01b4 5F636F6F 		.ascii	"_cookie\000"
 2738      6B696500 
 2739              	.LASF50:
 2740 01bc 52455345 		.ascii	"RESERVED17\000"
 2740      52564544 
 2740      313700
 2741              	.LASF165:
 2742 01c7 5F5F7367 		.ascii	"__sglue\000"
 2742      6C756500 
 2743              	.LASF53:
 2744 01cf 52455345 		.ascii	"RESERVED19\000"
 2744      52564544 
 2744      313900
 2745              	.LASF74:
 2746 01da 74656D70 		.ascii	"temp\000"
 2746      00
 2747              	.LASF9:
 2748 01df 6C6F6E67 		.ascii	"long int\000"
 2748      20696E74 
 2748      00
 2749              	.LASF210:
 2750 01e8 44656C61 		.ascii	"DelayInit\000"
 2750      79496E69 
 2750      7400
 2751              	.LASF67:
 2752 01f2 6779726F 		.ascii	"gyro_z_rate\000"
 2752      5F7A5F72 
 2752      61746500 
 2753              	.LASF129:
 2754 01fe 5F666C61 		.ascii	"_flags\000"
 2754      677300
 2755              	.LASF121:
 2756 0205 5F69735F 		.ascii	"_is_cxa\000"
 2756      63786100 
 2757              	.LASF147:
 2758 020d 5F737464 		.ascii	"_stdin\000"
ARM GAS  /tmp/cctJdLn9.s 			page 52


 2758      696E00
 2759              	.LASF202:
 2760 0214 5F5F6664 		.ascii	"__fdlibm_svid\000"
 2760      6C69626D 
 2760      5F737669 
 2760      6400
 2761              	.LASF157:
 2762 0222 5F726573 		.ascii	"_result_k\000"
 2762      756C745F 
 2762      6B00
 2763              	.LASF35:
 2764 022c 43434552 		.ascii	"CCER\000"
 2764      00
 2765              	.LASF12:
 2766 0231 6C6F6E67 		.ascii	"long long int\000"
 2766      206C6F6E 
 2766      6720696E 
 2766      7400
 2767              	.LASF17:
 2768 023f 75696E74 		.ascii	"uint16_t\000"
 2768      31365F74 
 2768      00
 2769              	.LASF209:
 2770 0248 55736572 		.ascii	"UserInit\000"
 2770      496E6974 
 2770      00
 2771              	.LASF200:
 2772 0251 646F7562 		.ascii	"double\000"
 2772      6C6500
 2773              	.LASF161:
 2774 0258 5F637674 		.ascii	"_cvtbuf\000"
 2774      62756600 
 2775              	.LASF140:
 2776 0260 5F6F6666 		.ascii	"_offset\000"
 2776      73657400 
 2777              	.LASF79:
 2778 0268 515F6779 		.ascii	"Q_gyroX\000"
 2778      726F5800 
 2779              	.LASF220:
 2780 0270 70726F6A 		.ascii	"project/main.c\000"
 2780      6563742F 
 2780      6D61696E 
 2780      2E6300
 2781              	.LASF188:
 2782 027f 5F6D6272 		.ascii	"_mbrlen_state\000"
 2782      6C656E5F 
 2782      73746174 
 2782      6500
 2783              	.LASF175:
 2784 028d 5F756E75 		.ascii	"_unused_rand\000"
 2784      7365645F 
 2784      72616E64 
 2784      00
 2785              	.LASF190:
 2786 029a 5F6D6273 		.ascii	"_mbsrtowcs_state\000"
 2786      72746F77 
 2786      63735F73 
ARM GAS  /tmp/cctJdLn9.s 			page 53


 2786      74617465 
 2786      00
 2787              	.LASF6:
 2788 02ab 5F5F7569 		.ascii	"__uint16_t\000"
 2788      6E743136 
 2788      5F7400
 2789              	.LASF83:
 2790 02b6 50585F30 		.ascii	"PX_00\000"
 2790      3000
 2791              	.LASF84:
 2792 02bc 50585F30 		.ascii	"PX_01\000"
 2792      3100
 2793              	.LASF124:
 2794 02c2 5F666E73 		.ascii	"_fns\000"
 2794      00
 2795              	.LASF10:
 2796 02c7 5F5F7569 		.ascii	"__uint32_t\000"
 2796      6E743332 
 2796      5F7400
 2797              	.LASF104:
 2798 02d2 5F736967 		.ascii	"_sign\000"
 2798      6E00
 2799              	.LASF197:
 2800 02d8 5F696D70 		.ascii	"_impure_ptr\000"
 2800      7572655F 
 2800      70747200 
 2801              	.LASF149:
 2802 02e4 5F737464 		.ascii	"_stderr\000"
 2802      65727200 
 2803              	.LASF106:
 2804 02ec 5F426967 		.ascii	"_Bigint\000"
 2804      696E7400 
 2805              	.LASF109:
 2806 02f4 5F5F746D 		.ascii	"__tm_min\000"
 2806      5F6D696E 
 2806      00
 2807              	.LASF102:
 2808 02fd 5F6E6578 		.ascii	"_next\000"
 2808      7400
 2809              	.LASF139:
 2810 0303 5F626C6B 		.ascii	"_blksize\000"
 2810      73697A65 
 2810      00
 2811              	.LASF133:
 2812 030c 5F726561 		.ascii	"_read\000"
 2812      6400
 2813              	.LASF68:
 2814 0312 6163635F 		.ascii	"acc_x_angle\000"
 2814      785F616E 
 2814      676C6500 
 2815              	.LASF107:
 2816 031e 5F5F746D 		.ascii	"__tm\000"
 2816      00
 2817              	.LASF218:
 2818 0323 6D797072 		.ascii	"myprintf\000"
 2818      696E7466 
 2818      00
ARM GAS  /tmp/cctJdLn9.s 			page 54


 2819              	.LASF95:
 2820 032c 5F5F7763 		.ascii	"__wchb\000"
 2820      686200
 2821              	.LASF22:
 2822 0333 53797374 		.ascii	"SystemCoreClock\000"
 2822      656D436F 
 2822      7265436C 
 2822      6F636B00 
 2823              	.LASF160:
 2824 0343 5F637674 		.ascii	"_cvtlen\000"
 2824      6C656E00 
 2825              	.LASF11:
 2826 034b 6C6F6E67 		.ascii	"long unsigned int\000"
 2826      20756E73 
 2826      69676E65 
 2826      6420696E 
 2826      7400
 2827              	.LASF62:
 2828 035d 6163635F 		.ascii	"acc_x\000"
 2828      7800
 2829              	.LASF130:
 2830 0363 5F66696C 		.ascii	"_file\000"
 2830      6500
 2831              	.LASF64:
 2832 0369 6163635F 		.ascii	"acc_z\000"
 2832      7A00
 2833              	.LASF123:
 2834 036f 5F696E64 		.ascii	"_ind\000"
 2834      00
 2835              	.LASF141:
 2836 0374 5F646174 		.ascii	"_data\000"
 2836      6100
 2837              	.LASF169:
 2838 037a 5F6E696F 		.ascii	"_niobs\000"
 2838      627300
 2839              	.LASF57:
 2840 0381 74696D32 		.ascii	"tim2_count\000"
 2840      5F636F75 
 2840      6E7400
 2841              	.LASF86:
 2842 038c 50585F31 		.ascii	"PX_11\000"
 2842      3100
 2843              	.LASF7:
 2844 0392 73686F72 		.ascii	"short unsigned int\000"
 2844      7420756E 
 2844      7369676E 
 2844      65642069 
 2844      6E7400
 2845              	.LASF85:
 2846 03a5 50585F31 		.ascii	"PX_10\000"
 2846      3000
 2847              	.LASF177:
 2848 03ab 5F617363 		.ascii	"_asctime_buf\000"
 2848      74696D65 
 2848      5F627566 
 2848      00
 2849              	.LASF156:
ARM GAS  /tmp/cctJdLn9.s 			page 55


 2850 03b8 5F726573 		.ascii	"_result\000"
 2850      756C7400 
 2851              	.LASF94:
 2852 03c0 5F5F7763 		.ascii	"__wch\000"
 2852      6800
 2853              	.LASF194:
 2854 03c6 5F6E6578 		.ascii	"_nextf\000"
 2854      746600
 2855              	.LASF162:
 2856 03cd 5F6E6577 		.ascii	"_new\000"
 2856      00
 2857              	.LASF76:
 2858 03d2 6932635F 		.ascii	"i2c_sdata\000"
 2858      73646174 
 2858      6100
 2859              	.LASF142:
 2860 03dc 5F6C6F63 		.ascii	"_lock\000"
 2860      6B00
 2861              	.LASF173:
 2862 03e2 5F6D756C 		.ascii	"_mult\000"
 2862      7400
 2863              	.LASF134:
 2864 03e8 5F777269 		.ascii	"_write\000"
 2864      746500
 2865              	.LASF113:
 2866 03ef 5F5F746D 		.ascii	"__tm_year\000"
 2866      5F796561 
 2866      7200
 2867              	.LASF195:
 2868 03f9 5F6E6D61 		.ascii	"_nmalloc\000"
 2868      6C6C6F63 
 2868      00
 2869              	.LASF59:
 2870 0402 6779726F 		.ascii	"gyro_x\000"
 2870      5F7800
 2871              	.LASF90:
 2872 0409 5F4C4F43 		.ascii	"_LOCK_RECURSIVE_T\000"
 2872      4B5F5245 
 2872      43555253 
 2872      4956455F 
 2872      5400
 2873              	.LASF61:
 2874 041b 6779726F 		.ascii	"gyro_z\000"
 2874      5F7A00
 2875              	.LASF20:
 2876 0422 73697A65 		.ascii	"sizetype\000"
 2876      74797065 
 2876      00
 2877              	.LASF65:
 2878 042b 6779726F 		.ascii	"gyro_x_rate\000"
 2878      5F785F72 
 2878      61746500 
 2879              	.LASF72:
 2880 0437 6163635F 		.ascii	"acc_z_temp\000"
 2880      7A5F7465 
 2880      6D7000
 2881              	.LASF105:
ARM GAS  /tmp/cctJdLn9.s 			page 56


 2882 0442 5F776473 		.ascii	"_wds\000"
 2882      00
 2883              	.LASF87:
 2884 0447 4B585F30 		.ascii	"KX_0\000"
 2884      00
 2885              	.LASF39:
 2886 044c 52455345 		.ascii	"RESERVED11\000"
 2886      52564544 
 2886      313100
 2887              	.LASF88:
 2888 0457 4B585F31 		.ascii	"KX_1\000"
 2888      00
 2889              	.LASF181:
 2890 045c 5F723438 		.ascii	"_r48\000"
 2890      00
 2891              	.LASF112:
 2892 0461 5F5F746D 		.ascii	"__tm_mon\000"
 2892      5F6D6F6E 
 2892      00
 2893              	.LASF122:
 2894 046a 5F617465 		.ascii	"_atexit\000"
 2894      78697400 
 2895              	.LASF199:
 2896 0472 7375626F 		.ascii	"suboptarg\000"
 2896      70746172 
 2896      6700
 2897              	.LASF182:
 2898 047c 5F6D626C 		.ascii	"_mblen_state\000"
 2898      656E5F73 
 2898      74617465 
 2898      00
 2899              	.LASF154:
 2900 0489 5F5F7364 		.ascii	"__sdidinit\000"
 2900      6964696E 
 2900      697400
 2901              	.LASF179:
 2902 0494 5F67616D 		.ascii	"_gamma_signgam\000"
 2902      6D615F73 
 2902      69676E67 
 2902      616D00
 2903              	.LASF93:
 2904 04a3 77696E74 		.ascii	"wint_t\000"
 2904      5F7400
 2905              	.LASF51:
 2906 04aa 52455345 		.ascii	"RESERVED18\000"
 2906      52564544 
 2906      313800
 2907              	.LASF216:
 2908 04b5 67657452 		.ascii	"getRollPitchYaw\000"
 2908      6F6C6C50 
 2908      69746368 
 2908      59617700 
 2909              	.LASF0:
 2910 04c5 666C6F61 		.ascii	"float\000"
 2910      7400
 2911              	.LASF159:
 2912 04cb 5F667265 		.ascii	"_freelist\000"
ARM GAS  /tmp/cctJdLn9.s 			page 57


 2912      656C6973 
 2912      7400
 2913              	.LASF23:
 2914 04d5 52455345 		.ascii	"RESERVED0\000"
 2914      52564544 
 2914      3000
 2915              	.LASF24:
 2916 04df 52455345 		.ascii	"RESERVED1\000"
 2916      52564544 
 2916      3100
 2917              	.LASF26:
 2918 04e9 52455345 		.ascii	"RESERVED2\000"
 2918      52564544 
 2918      3200
 2919              	.LASF28:
 2920 04f3 52455345 		.ascii	"RESERVED3\000"
 2920      52564544 
 2920      3300
 2921              	.LASF29:
 2922 04fd 52455345 		.ascii	"RESERVED4\000"
 2922      52564544 
 2922      3400
 2923              	.LASF30:
 2924 0507 52455345 		.ascii	"RESERVED5\000"
 2924      52564544 
 2924      3500
 2925              	.LASF32:
 2926 0511 52455345 		.ascii	"RESERVED6\000"
 2926      52564544 
 2926      3600
 2927              	.LASF36:
 2928 051b 52455345 		.ascii	"RESERVED8\000"
 2928      52564544 
 2928      3800
 2929              	.LASF37:
 2930 0525 52455345 		.ascii	"RESERVED9\000"
 2930      52564544 
 2930      3900
 2931              	.LASF80:
 2932 052f 525F616E 		.ascii	"R_angleX\000"
 2932      676C6558 
 2932      00
 2933              	.LASF208:
 2934 0538 53797374 		.ascii	"SystemInit\000"
 2934      656D496E 
 2934      697400
 2935              	.LASF126:
 2936 0543 5F626173 		.ascii	"_base\000"
 2936      6500
 2937              	.LASF18:
 2938 0549 696E7433 		.ascii	"int32_t\000"
 2938      325F7400 
 2939              	.LASF2:
 2940 0551 756E7369 		.ascii	"unsigned char\000"
 2940      676E6564 
 2940      20636861 
 2940      7200
ARM GAS  /tmp/cctJdLn9.s 			page 58


 2941              	.LASF221:
 2942 055f 2F686F6D 		.ascii	"/home/faker/Documents/code/STM/stm32-quadrocopter\000"
 2942      652F6661 
 2942      6B65722F 
 2942      446F6375 
 2942      6D656E74 
 2943              	.LASF70:
 2944 0591 6163635F 		.ascii	"acc_x_temp\000"
 2944      785F7465 
 2944      6D7000
 2945              	.LASF99:
 2946 059c 5F666C6F 		.ascii	"_flock_t\000"
 2946      636B5F74 
 2946      00
 2947              	.LASF115:
 2948 05a5 5F5F746D 		.ascii	"__tm_yday\000"
 2948      5F796461 
 2948      7900
 2949              	.LASF201:
 2950 05af 5F5F6664 		.ascii	"__fdlibm_ieee\000"
 2950      6C69626D 
 2950      5F696565 
 2950      6500
 2951              	.LASF144:
 2952 05bd 5F666C61 		.ascii	"_flags2\000"
 2952      67733200 
 2953              	.LASF170:
 2954 05c5 5F696F62 		.ascii	"_iobs\000"
 2954      7300
 2955              	.LASF167:
 2956 05cb 5F5F4649 		.ascii	"__FILE\000"
 2956      4C4500
 2957              	.LASF98:
 2958 05d2 5F6D6273 		.ascii	"_mbstate_t\000"
 2958      74617465 
 2958      5F7400
 2959              	.LASF128:
 2960 05dd 5F5F7346 		.ascii	"__sFILE\000"
 2960      494C4500 
 2961              	.LASF207:
 2962 05e5 5F737973 		.ascii	"_sys_nerr\000"
 2962      5F6E6572 
 2962      7200
 2963              	.LASF143:
 2964 05ef 5F6D6273 		.ascii	"_mbstate\000"
 2964      74617465 
 2964      00
 2965              	.LASF180:
 2966 05f8 5F72616E 		.ascii	"_rand_next\000"
 2966      645F6E65 
 2966      787400
 2967              	.LASF150:
 2968 0603 5F696E63 		.ascii	"_inc\000"
 2968      00
 2969              	.LASF153:
 2970 0608 5F637572 		.ascii	"_current_locale\000"
 2970      72656E74 
ARM GAS  /tmp/cctJdLn9.s 			page 59


 2970      5F6C6F63 
 2970      616C6500 
 2971              	.LASF119:
 2972 0618 5F64736F 		.ascii	"_dso_handle\000"
 2972      5F68616E 
 2972      646C6500 
 2973              	.LASF155:
 2974 0624 5F5F636C 		.ascii	"__cleanup\000"
 2974      65616E75 
 2974      7000
 2975              	.LASF103:
 2976 062e 5F6D6178 		.ascii	"_maxwds\000"
 2976      77647300 
 2977              	.LASF145:
 2978 0636 5F726565 		.ascii	"_reent\000"
 2978      6E7400
 2979              	.LASF172:
 2980 063d 5F736565 		.ascii	"_seed\000"
 2980      6400
 2981              	.LASF96:
 2982 0643 5F5F636F 		.ascii	"__count\000"
 2982      756E7400 
 2983              	.LASF97:
 2984 064b 5F5F7661 		.ascii	"__value\000"
 2984      6C756500 
 2985              	.LASF34:
 2986 0653 52455345 		.ascii	"RESERVED7\000"
 2986      52564544 
 2986      3700
 2987              	.LASF135:
 2988 065d 5F736565 		.ascii	"_seek\000"
 2988      6B00
 2989              	.LASF193:
 2990 0663 5F685F65 		.ascii	"_h_errno\000"
 2990      72726E6F 
 2990      00
 2991              	.LASF114:
 2992 066c 5F5F746D 		.ascii	"__tm_wday\000"
 2992      5F776461 
 2992      7900
 2993              	.LASF58:
 2994 0676 74696D33 		.ascii	"tim3_count\000"
 2994      5F636F75 
 2994      6E7400
 2995              	.LASF92:
 2996 0681 5F66706F 		.ascii	"_fpos_t\000"
 2996      735F7400 
 2997              	.LASF89:
 2998 0689 6C6F6E67 		.ascii	"long double\000"
 2998      20646F75 
 2998      626C6500 
 2999              	.LASF146:
 3000 0695 5F657272 		.ascii	"_errno\000"
 3000      6E6F00
 3001              	.LASF100:
 3002 069c 63686172 		.ascii	"char\000"
 3002      00
ARM GAS  /tmp/cctJdLn9.s 			page 60


 3003              	.LASF186:
 3004 06a1 5F736967 		.ascii	"_signal_buf\000"
 3004      6E616C5F 
 3004      62756600 
 3005              	.LASF25:
 3006 06ad 534D4352 		.ascii	"SMCR\000"
 3006      00
 3007              	.LASF127:
 3008 06b2 5F73697A 		.ascii	"_size\000"
 3008      6500
 3009              	.LASF14:
 3010 06b8 756E7369 		.ascii	"unsigned int\000"
 3010      676E6564 
 3010      20696E74 
 3010      00
 3011              	.LASF52:
 3012 06c5 444D4152 		.ascii	"DMAR\000"
 3012      00
 3013              	.LASF212:
 3014 06ca 6D707536 		.ascii	"mpu6050_get_value\000"
 3014      3035305F 
 3014      6765745F 
 3014      76616C75 
 3014      6500
 3015              	.LASF8:
 3016 06dc 5F5F696E 		.ascii	"__int32_t\000"
 3016      7433325F 
 3016      7400
 3017              	.LASF56:
 3018 06e6 45616E67 		.ascii	"Eangle\000"
 3018      6C6500
 3019              	.LASF176:
 3020 06ed 5F737472 		.ascii	"_strtok_last\000"
 3020      746F6B5F 
 3020      6C617374 
 3020      00
 3021              	.LASF120:
 3022 06fa 5F666E74 		.ascii	"_fntypes\000"
 3022      79706573 
 3022      00
 3023              	.LASF69:
 3024 0703 6163635F 		.ascii	"acc_y_angle\000"
 3024      795F616E 
 3024      676C6500 
 3025              	.LASF215:
 3026 070f 4D616467 		.ascii	"MadgwickAHRSupdateIMU\000"
 3026      7769636B 
 3026      41485253 
 3026      75706461 
 3026      7465494D 
 3027              	.LASF174:
 3028 0725 5F616464 		.ascii	"_add\000"
 3028      00
 3029              	.LASF101:
 3030 072a 5F5F554C 		.ascii	"__ULong\000"
 3030      6F6E6700 
 3031              	.LASF187:
ARM GAS  /tmp/cctJdLn9.s 			page 61


 3032 0732 5F676574 		.ascii	"_getdate_err\000"
 3032      64617465 
 3032      5F657272 
 3032      00
 3033              	.LASF222:
 3034 073f 5F5F6664 		.ascii	"__fdlibm_version\000"
 3034      6C69626D 
 3034      5F766572 
 3034      73696F6E 
 3034      00
 3035              	.LASF38:
 3036 0750 52455345 		.ascii	"RESERVED10\000"
 3036      52564544 
 3036      313000
 3037              	.LASF198:
 3038 075b 5F676C6F 		.ascii	"_global_impure_ptr\000"
 3038      62616C5F 
 3038      696D7075 
 3038      72655F70 
 3038      747200
 3039              	.LASF152:
 3040 076e 5F637572 		.ascii	"_current_category\000"
 3040      72656E74 
 3040      5F636174 
 3040      65676F72 
 3040      7900
 3041              	.LASF164:
 3042 0780 5F736967 		.ascii	"_sig_func\000"
 3042      5F66756E 
 3042      6300
 3043              	.LASF217:
 3044 078a 48435352 		.ascii	"HCSR04_Get\000"
 3044      30345F47 
 3044      657400
 3045              	.LASF41:
 3046 0795 43435231 		.ascii	"CCR1\000"
 3046      00
 3047              	.LASF43:
 3048 079a 43435232 		.ascii	"CCR2\000"
 3048      00
 3049              	.LASF45:
 3050 079f 43435233 		.ascii	"CCR3\000"
 3050      00
 3051              	.LASF47:
 3052 07a4 43435234 		.ascii	"CCR4\000"
 3052      00
 3053              	.LASF48:
 3054 07a9 52455345 		.ascii	"RESERVED16\000"
 3054      52564544 
 3054      313600
 3055              	.LASF55:
 3056 07b4 62657461 		.ascii	"beta\000"
 3056      00
 3057              	.LASF108:
 3058 07b9 5F5F746D 		.ascii	"__tm_sec\000"
 3058      5F736563 
 3058      00
ARM GAS  /tmp/cctJdLn9.s 			page 62


 3059              	.LASF148:
 3060 07c2 5F737464 		.ascii	"_stdout\000"
 3060      6F757400 
 3061              	.LASF168:
 3062 07ca 5F676C75 		.ascii	"_glue\000"
 3062      6500
 3063              	.LASF15:
 3064 07d0 75696E74 		.ascii	"uint8_t\000"
 3064      385F7400 
 3065              	.LASF185:
 3066 07d8 5F6C3634 		.ascii	"_l64a_buf\000"
 3066      615F6275 
 3066      6600
 3067              	.LASF214:
 3068 07e2 6765745F 		.ascii	"get_gyro_rate\000"
 3068      6779726F 
 3068      5F726174 
 3068      6500
 3069              	.LASF4:
 3070 07f0 5F5F696E 		.ascii	"__int16_t\000"
 3070      7431365F 
 3070      7400
 3071              	.LASF138:
 3072 07fa 5F6E6275 		.ascii	"_nbuf\000"
 3072      6600
 3073              	.LASF196:
 3074 0800 5F756E75 		.ascii	"_unused\000"
 3074      73656400 
 3075              	.LASF78:
 3076 0808 515F616E 		.ascii	"Q_angleX\000"
 3076      676C6558 
 3076      00
 3077              	.LASF116:
 3078 0811 5F5F746D 		.ascii	"__tm_isdst\000"
 3078      5F697364 
 3078      737400
 3079              	.LASF178:
 3080 081c 5F6C6F63 		.ascii	"_localtime_buf\000"
 3080      616C7469 
 3080      6D655F62 
 3080      756600
 3081              	.LASF66:
 3082 082b 6779726F 		.ascii	"gyro_y_rate\000"
 3082      5F795F72 
 3082      61746500 
 3083              	.LASF213:
 3084 0837 6765745F 		.ascii	"get_acc_value\000"
 3084      6163635F 
 3084      76616C75 
 3084      6500
 3085              	.LASF219:
 3086 0845 474E5520 		.ascii	"GNU C11 6.1.1 20160526 -mcpu=cortex-m3 -mthumb -g -"
 3086      43313120 
 3086      362E312E 
 3086      31203230 
 3086      31363035 
 3087 0878 4F31202D 		.ascii	"O1 -fno-common\000"
ARM GAS  /tmp/cctJdLn9.s 			page 63


 3087      666E6F2D 
 3087      636F6D6D 
 3087      6F6E00
 3088              	.LASF183:
 3089 0887 5F6D6274 		.ascii	"_mbtowc_state\000"
 3089      6F77635F 
 3089      73746174 
 3089      6500
 3090              	.LASF158:
 3091 0895 5F703573 		.ascii	"_p5s\000"
 3091      00
 3092              	.LASF223:
 3093 089a 6D61696E 		.ascii	"main\000"
 3093      00
 3094              	.LASF125:
 3095 089f 5F5F7362 		.ascii	"__sbuf\000"
 3095      756600
 3096              	.LASF19:
 3097 08a6 75696E74 		.ascii	"uint32_t\000"
 3097      33325F74 
 3097      00
 3098              	.LASF111:
 3099 08af 5F5F746D 		.ascii	"__tm_mday\000"
 3099      5F6D6461 
 3099      7900
 3100              	.LASF81:
 3101 08b9 785F616E 		.ascii	"x_angle\000"
 3101      676C6500 
 3102              		.ident	"GCC: (Arch Repository) 6.1.1 20160526"
ARM GAS  /tmp/cctJdLn9.s 			page 64


DEFINED SYMBOLS
                            *ABS*:0000000000000000 main.c
     /tmp/cctJdLn9.s:19     .text:0000000000000000 $t
     /tmp/cctJdLn9.s:26     .text:0000000000000000 main
     /tmp/cctJdLn9.s:190    .text:0000000000000108 $d
     /tmp/cctJdLn9.s:207    .rodata.str1.4:0000000000000000 $d
                     .debug_frame:0000000000000010 $d

UNDEFINED SYMBOLS
__aeabi_f2d
__aeabi_dmul
__aeabi_ddiv
__aeabi_d2f
SystemInit
UserInit
DelayInit
mpu_6050_init
mpu6050_get_value
get_acc_value
get_gyro_rate
MadgwickAHRSupdateIMU
getRollPitchYaw
HCSR04_Get
myprintf
acc_x_temp
gyro_z_rate
gyro_y_rate
gyro_x_rate
acc_z_temp
acc_y_temp
rpy
