ARM GAS  /tmp/ccmFQypW.s 			page 1


   1              		.cpu cortex-m3
   2              		.eabi_attribute 20, 1
   3              		.eabi_attribute 21, 1
   4              		.eabi_attribute 23, 3
   5              		.eabi_attribute 24, 1
   6              		.eabi_attribute 25, 1
   7              		.eabi_attribute 26, 1
   8              		.eabi_attribute 30, 1
   9              		.eabi_attribute 34, 1
  10              		.eabi_attribute 18, 4
  11              		.file	"main.c"
  12              		.text
  13              	.Ltext0:
  14              		.cfi_sections	.debug_frame
  15              		.global	__aeabi_f2d
  16              		.align	1
  17              		.global	main
  18              		.syntax unified
  19              		.thumb
  20              		.thumb_func
  21              		.fpu softvfp
  22              		.type	main, %function
  23              	main:
  24              	.LFB63:
  25              		.file 1 "project/main.c"
   1:project/main.c **** /**
   2:project/main.c ****  * STM32F103C8 Quadrocopter
   3:project/main.c ****  */
   4:project/main.c **** #include "tools.h"
   5:project/main.c **** #include "conf.h"
   6:project/main.c **** #include "MPU6050.h"
   7:project/main.c **** 
   8:project/main.c **** /* Exported constants --------------------------------------------------------*/
   9:project/main.c **** 
  10:project/main.c **** int main(void)
  11:project/main.c **** {
  26              		.loc 1 11 0
  27              		.cfi_startproc
  28              		@ Volatile: function does not return.
  29              		@ args = 0, pretend = 0, frame = 24
  30              		@ frame_needed = 0, uses_anonymous_args = 0
  31 0000 80B5     		push	{r7, lr}
  32              		.cfi_def_cfa_offset 8
  33              		.cfi_offset 7, -8
  34              		.cfi_offset 14, -4
  35 0002 8AB0     		sub	sp, sp, #40
  36              		.cfi_def_cfa_offset 48
  12:project/main.c ****   float AccelGyro[6];
  13:project/main.c ****   SystemInit();
  37              		.loc 1 13 0
  38 0004 FFF7FEFF 		bl	SystemInit
  39              	.LVL0:
  14:project/main.c ****   UserInit();
  40              		.loc 1 14 0
  41 0008 FFF7FEFF 		bl	UserInit
  42              	.LVL1:
  15:project/main.c ****   DelayInit(72);
ARM GAS  /tmp/ccmFQypW.s 			page 2


  43              		.loc 1 15 0
  44 000c 4820     		movs	r0, #72
  45 000e FFF7FEFF 		bl	DelayInit
  46              	.LVL2:
  16:project/main.c **** 
  17:project/main.c ****   while (1) {
  18:project/main.c ****     getAttitude(AccelGyro);
  19:project/main.c ****     myprintf("height:%f\r\n", HCSR04_Get());
  47              		.loc 1 19 0
  48 0012 DFF88080 		ldr	r8, .L4+8
  20:project/main.c ****     myprintf("accel:%f\t%f\t%f\r\n", AccelGyro[0], AccelGyro[1], AccelGyro[2]);
  49              		.loc 1 20 0
  50 0016 1D4F     		ldr	r7, .L4
  21:project/main.c ****     myprintf("anglr:%f\t%f\t%f\r\n", AccelGyro[3], AccelGyro[4], AccelGyro[5]);
  51              		.loc 1 21 0
  52 0018 1D4E     		ldr	r6, .L4+4
  53              	.L2:
  18:project/main.c ****     myprintf("height:%f\r\n", HCSR04_Get());
  54              		.loc 1 18 0 discriminator 1
  55 001a 04A8     		add	r0, sp, #16
  56 001c FFF7FEFF 		bl	getAttitude
  57              	.LVL3:
  19:project/main.c ****     myprintf("accel:%f\t%f\t%f\r\n", AccelGyro[0], AccelGyro[1], AccelGyro[2]);
  58              		.loc 1 19 0 discriminator 1
  59 0020 FFF7FEFF 		bl	HCSR04_Get
  60              	.LVL4:
  61 0024 FFF7FEFF 		bl	__aeabi_f2d
  62              	.LVL5:
  63 0028 0246     		mov	r2, r0
  64 002a 0B46     		mov	r3, r1
  65 002c 4046     		mov	r0, r8
  66 002e FFF7FEFF 		bl	myprintf
  67              	.LVL6:
  20:project/main.c ****     myprintf("anglr:%f\t%f\t%f\r\n", AccelGyro[3], AccelGyro[4], AccelGyro[5]);
  68              		.loc 1 20 0 discriminator 1
  69 0032 0498     		ldr	r0, [sp, #16]	@ float
  70 0034 FFF7FEFF 		bl	__aeabi_f2d
  71              	.LVL7:
  72 0038 0446     		mov	r4, r0
  73 003a 0D46     		mov	r5, r1
  74 003c 0698     		ldr	r0, [sp, #24]	@ float
  75 003e FFF7FEFF 		bl	__aeabi_f2d
  76              	.LVL8:
  77 0042 CDE90201 		strd	r0, [sp, #8]
  78 0046 0598     		ldr	r0, [sp, #20]	@ float
  79 0048 FFF7FEFF 		bl	__aeabi_f2d
  80              	.LVL9:
  81 004c CDE90001 		strd	r0, [sp]
  82 0050 2246     		mov	r2, r4
  83 0052 2B46     		mov	r3, r5
  84 0054 3846     		mov	r0, r7
  85 0056 FFF7FEFF 		bl	myprintf
  86              	.LVL10:
  87              		.loc 1 21 0 discriminator 1
  88 005a 0798     		ldr	r0, [sp, #28]	@ float
  89 005c FFF7FEFF 		bl	__aeabi_f2d
  90              	.LVL11:
ARM GAS  /tmp/ccmFQypW.s 			page 3


  91 0060 0446     		mov	r4, r0
  92 0062 0D46     		mov	r5, r1
  93 0064 0998     		ldr	r0, [sp, #36]	@ float
  94 0066 FFF7FEFF 		bl	__aeabi_f2d
  95              	.LVL12:
  96 006a CDE90201 		strd	r0, [sp, #8]
  97 006e 0898     		ldr	r0, [sp, #32]	@ float
  98 0070 FFF7FEFF 		bl	__aeabi_f2d
  99              	.LVL13:
 100 0074 CDE90001 		strd	r0, [sp]
 101 0078 2246     		mov	r2, r4
 102 007a 2B46     		mov	r3, r5
 103 007c 3046     		mov	r0, r6
 104 007e FFF7FEFF 		bl	myprintf
 105              	.LVL14:
  22:project/main.c ****     DelayMs(1000);
 106              		.loc 1 22 0 discriminator 1
 107 0082 4FF47A70 		mov	r0, #1000
 108 0086 FFF7FEFF 		bl	DelayMs
 109              	.LVL15:
 110 008a C6E7     		b	.L2
 111              	.L5:
 112              		.align	2
 113              	.L4:
 114 008c 0C000000 		.word	.LC1
 115 0090 20000000 		.word	.LC2
 116 0094 00000000 		.word	.LC0
 117              		.cfi_endproc
 118              	.LFE63:
 119              		.size	main, .-main
 120              		.section	.rodata.str1.4,"aMS",%progbits,1
 121              		.align	2
 122              	.LC0:
 123 0000 68656967 		.ascii	"height:%f\015\012\000"
 123      68743A25 
 123      660D0A00 
 124              	.LC1:
 125 000c 61636365 		.ascii	"accel:%f\011%f\011%f\015\012\000"
 125      6C3A2566 
 125      09256609 
 125      25660D0A 
 125      00
 126 001d 000000   		.space	3
 127              	.LC2:
 128 0020 616E676C 		.ascii	"anglr:%f\011%f\011%f\015\012\000"
 128      723A2566 
 128      09256609 
 128      25660D0A 
 128      00
 129              		.text
 130              	.Letext0:
 131              		.file 2 "/usr/arm-none-eabi/include/machine/_default_types.h"
 132              		.file 3 "/usr/arm-none-eabi/include/sys/_stdint.h"
 133              		.file 4 "/home/faker/Documents/code/STM/stm32-quadrocopter/cmsis/core_cm3.h"
 134              		.file 5 "/home/faker/Documents/code/STM/stm32-quadrocopter/lib/inc/system_stm32f10x.h"
 135              		.file 6 "/usr/arm-none-eabi/include/sys/lock.h"
 136              		.file 7 "/usr/arm-none-eabi/include/sys/_types.h"
ARM GAS  /tmp/ccmFQypW.s 			page 4


 137              		.file 8 "/usr/lib/gcc/arm-none-eabi/6.1.1/include/stddef.h"
 138              		.file 9 "/usr/arm-none-eabi/include/sys/reent.h"
 139              		.file 10 "/usr/arm-none-eabi/include/stdlib.h"
 140              		.file 11 "/usr/arm-none-eabi/include/math.h"
 141              		.file 12 "/usr/arm-none-eabi/include/sys/errno.h"
 142              		.file 13 "/home/faker/Documents/code/STM/stm32-quadrocopter/drivers/tools.h"
 143              		.section	.debug_info,"",%progbits
 144              	.Ldebug_info0:
 145 0000 590A0000 		.4byte	0xa59
 146 0004 0400     		.2byte	0x4
 147 0006 00000000 		.4byte	.Ldebug_abbrev0
 148 000a 04       		.byte	0x4
 149 000b 01       		.uleb128 0x1
 150 000c AA050000 		.4byte	.LASF143
 151 0010 0C       		.byte	0xc
 152 0011 BB010000 		.4byte	.LASF144
 153 0015 68030000 		.4byte	.LASF145
 154 0019 00000000 		.4byte	.Ltext0
 155 001d 98000000 		.4byte	.Letext0-.Ltext0
 156 0021 00000000 		.4byte	.Ldebug_line0
 157 0025 02       		.uleb128 0x2
 158 0026 01       		.byte	0x1
 159 0027 06       		.byte	0x6
 160 0028 F6000000 		.4byte	.LASF0
 161 002c 02       		.uleb128 0x2
 162 002d 01       		.byte	0x1
 163 002e 08       		.byte	0x8
 164 002f 5A030000 		.4byte	.LASF1
 165 0033 02       		.uleb128 0x2
 166 0034 02       		.byte	0x2
 167 0035 05       		.byte	0x5
 168 0036 0C000000 		.4byte	.LASF2
 169 003a 02       		.uleb128 0x2
 170 003b 02       		.byte	0x2
 171 003c 07       		.byte	0x7
 172 003d C8040000 		.4byte	.LASF3
 173 0041 03       		.uleb128 0x3
 174 0042 A2040000 		.4byte	.LASF5
 175 0046 02       		.byte	0x2
 176 0047 3F       		.byte	0x3f
 177 0048 4C000000 		.4byte	0x4c
 178 004c 02       		.uleb128 0x2
 179 004d 04       		.byte	0x4
 180 004e 05       		.byte	0x5
 181 004f 3B010000 		.4byte	.LASF4
 182 0053 03       		.uleb128 0x3
 183 0054 DD010000 		.4byte	.LASF6
 184 0058 02       		.byte	0x2
 185 0059 41       		.byte	0x41
 186 005a 5E000000 		.4byte	0x5e
 187 005e 02       		.uleb128 0x2
 188 005f 04       		.byte	0x4
 189 0060 07       		.byte	0x7
 190 0061 45020000 		.4byte	.LASF7
 191 0065 02       		.uleb128 0x2
 192 0066 08       		.byte	0x8
 193 0067 05       		.byte	0x5
ARM GAS  /tmp/ccmFQypW.s 			page 5


 194 0068 7C010000 		.4byte	.LASF8
 195 006c 02       		.uleb128 0x2
 196 006d 08       		.byte	0x8
 197 006e 07       		.byte	0x7
 198 006f 76000000 		.4byte	.LASF9
 199 0073 04       		.uleb128 0x4
 200 0074 04       		.byte	0x4
 201 0075 05       		.byte	0x5
 202 0076 696E7400 		.ascii	"int\000"
 203 007a 02       		.uleb128 0x2
 204 007b 04       		.byte	0x4
 205 007c 07       		.byte	0x7
 206 007d 95040000 		.4byte	.LASF10
 207 0081 03       		.uleb128 0x3
 208 0082 52030000 		.4byte	.LASF11
 209 0086 03       		.byte	0x3
 210 0087 2C       		.byte	0x2c
 211 0088 41000000 		.4byte	0x41
 212 008c 05       		.uleb128 0x5
 213 008d 81000000 		.4byte	0x81
 214 0091 03       		.uleb128 0x3
 215 0092 04060000 		.4byte	.LASF12
 216 0096 03       		.byte	0x3
 217 0097 30       		.byte	0x30
 218 0098 53000000 		.4byte	0x53
 219 009c 02       		.uleb128 0x2
 220 009d 04       		.byte	0x4
 221 009e 07       		.byte	0x7
 222 009f D4020000 		.4byte	.LASF13
 223 00a3 06       		.uleb128 0x6
 224 00a4 A5000000 		.4byte	.LASF14
 225 00a8 04       		.byte	0x4
 226 00a9 9606     		.2byte	0x696
 227 00ab 8C000000 		.4byte	0x8c
 228 00af 07       		.uleb128 0x7
 229 00b0 25020000 		.4byte	.LASF15
 230 00b4 05       		.byte	0x5
 231 00b5 35       		.byte	0x35
 232 00b6 91000000 		.4byte	0x91
 233 00ba 02       		.uleb128 0x2
 234 00bb 08       		.byte	0x8
 235 00bc 04       		.byte	0x4
 236 00bd 6E040000 		.4byte	.LASF16
 237 00c1 03       		.uleb128 0x3
 238 00c2 35030000 		.4byte	.LASF17
 239 00c6 06       		.byte	0x6
 240 00c7 07       		.byte	0x7
 241 00c8 73000000 		.4byte	0x73
 242 00cc 03       		.uleb128 0x3
 243 00cd E8000000 		.4byte	.LASF18
 244 00d1 07       		.byte	0x7
 245 00d2 2C       		.byte	0x2c
 246 00d3 4C000000 		.4byte	0x4c
 247 00d7 03       		.uleb128 0x3
 248 00d8 66040000 		.4byte	.LASF19
 249 00dc 07       		.byte	0x7
 250 00dd 72       		.byte	0x72
ARM GAS  /tmp/ccmFQypW.s 			page 6


 251 00de 4C000000 		.4byte	0x4c
 252 00e2 08       		.uleb128 0x8
 253 00e3 1E030000 		.4byte	.LASF20
 254 00e7 08       		.byte	0x8
 255 00e8 6501     		.2byte	0x165
 256 00ea 7A000000 		.4byte	0x7a
 257 00ee 09       		.uleb128 0x9
 258 00ef 04       		.byte	0x4
 259 00f0 07       		.byte	0x7
 260 00f1 A6       		.byte	0xa6
 261 00f2 0D010000 		.4byte	0x10d
 262 00f6 0A       		.uleb128 0xa
 263 00f7 96020000 		.4byte	.LASF21
 264 00fb 07       		.byte	0x7
 265 00fc A8       		.byte	0xa8
 266 00fd E2000000 		.4byte	0xe2
 267 0101 0A       		.uleb128 0xa
 268 0102 1E020000 		.4byte	.LASF22
 269 0106 07       		.byte	0x7
 270 0107 A9       		.byte	0xa9
 271 0108 0D010000 		.4byte	0x10d
 272 010c 00       		.byte	0
 273 010d 0B       		.uleb128 0xb
 274 010e 2C000000 		.4byte	0x2c
 275 0112 1D010000 		.4byte	0x11d
 276 0116 0C       		.uleb128 0xc
 277 0117 9C000000 		.4byte	0x9c
 278 011b 03       		.byte	0x3
 279 011c 00       		.byte	0
 280 011d 0D       		.uleb128 0xd
 281 011e 08       		.byte	0x8
 282 011f 07       		.byte	0x7
 283 0120 A3       		.byte	0xa3
 284 0121 3E010000 		.4byte	0x13e
 285 0125 0E       		.uleb128 0xe
 286 0126 46040000 		.4byte	.LASF23
 287 012a 07       		.byte	0x7
 288 012b A5       		.byte	0xa5
 289 012c 73000000 		.4byte	0x73
 290 0130 00       		.byte	0
 291 0131 0E       		.uleb128 0xe
 292 0132 4E040000 		.4byte	.LASF24
 293 0136 07       		.byte	0x7
 294 0137 AA       		.byte	0xaa
 295 0138 EE000000 		.4byte	0xee
 296 013c 04       		.byte	0x4
 297 013d 00       		.byte	0
 298 013e 03       		.uleb128 0x3
 299 013f D2030000 		.4byte	.LASF25
 300 0143 07       		.byte	0x7
 301 0144 AB       		.byte	0xab
 302 0145 1D010000 		.4byte	0x11d
 303 0149 03       		.uleb128 0x3
 304 014a A3030000 		.4byte	.LASF26
 305 014e 07       		.byte	0x7
 306 014f AF       		.byte	0xaf
 307 0150 C1000000 		.4byte	0xc1
ARM GAS  /tmp/ccmFQypW.s 			page 7


 308 0154 0F       		.uleb128 0xf
 309 0155 04       		.byte	0x4
 310 0156 10       		.uleb128 0x10
 311 0157 04       		.byte	0x4
 312 0158 5C010000 		.4byte	0x15c
 313 015c 02       		.uleb128 0x2
 314 015d 01       		.byte	0x1
 315 015e 08       		.byte	0x8
 316 015f 81040000 		.4byte	.LASF27
 317 0163 11       		.uleb128 0x11
 318 0164 5C010000 		.4byte	0x15c
 319 0168 03       		.uleb128 0x3
 320 0169 E0040000 		.4byte	.LASF28
 321 016d 09       		.byte	0x9
 322 016e 16       		.byte	0x16
 323 016f 5E000000 		.4byte	0x5e
 324 0173 12       		.uleb128 0x12
 325 0174 02020000 		.4byte	.LASF33
 326 0178 18       		.byte	0x18
 327 0179 09       		.byte	0x9
 328 017a 2D       		.byte	0x2d
 329 017b C6010000 		.4byte	0x1c6
 330 017f 0E       		.uleb128 0xe
 331 0180 AC040000 		.4byte	.LASF29
 332 0184 09       		.byte	0x9
 333 0185 2F       		.byte	0x2f
 334 0186 C6010000 		.4byte	0x1c6
 335 018a 00       		.byte	0
 336 018b 13       		.uleb128 0x13
 337 018c 5F6B00   		.ascii	"_k\000"
 338 018f 09       		.byte	0x9
 339 0190 30       		.byte	0x30
 340 0191 73000000 		.4byte	0x73
 341 0195 04       		.byte	0x4
 342 0196 0E       		.uleb128 0xe
 343 0197 31040000 		.4byte	.LASF30
 344 019b 09       		.byte	0x9
 345 019c 30       		.byte	0x30
 346 019d 73000000 		.4byte	0x73
 347 01a1 08       		.byte	0x8
 348 01a2 0E       		.uleb128 0xe
 349 01a3 E8010000 		.4byte	.LASF31
 350 01a7 09       		.byte	0x9
 351 01a8 30       		.byte	0x30
 352 01a9 73000000 		.4byte	0x73
 353 01ad 0C       		.byte	0xc
 354 01ae 0E       		.uleb128 0xe
 355 01af 51050000 		.4byte	.LASF32
 356 01b3 09       		.byte	0x9
 357 01b4 30       		.byte	0x30
 358 01b5 73000000 		.4byte	0x73
 359 01b9 10       		.byte	0x10
 360 01ba 13       		.uleb128 0x13
 361 01bb 5F7800   		.ascii	"_x\000"
 362 01be 09       		.byte	0x9
 363 01bf 31       		.byte	0x31
 364 01c0 CC010000 		.4byte	0x1cc
ARM GAS  /tmp/ccmFQypW.s 			page 8


 365 01c4 14       		.byte	0x14
 366 01c5 00       		.byte	0
 367 01c6 10       		.uleb128 0x10
 368 01c7 04       		.byte	0x4
 369 01c8 73010000 		.4byte	0x173
 370 01cc 0B       		.uleb128 0xb
 371 01cd 68010000 		.4byte	0x168
 372 01d1 DC010000 		.4byte	0x1dc
 373 01d5 0C       		.uleb128 0xc
 374 01d6 9C000000 		.4byte	0x9c
 375 01da 00       		.byte	0
 376 01db 00       		.byte	0
 377 01dc 12       		.uleb128 0x12
 378 01dd 10020000 		.4byte	.LASF34
 379 01e1 24       		.byte	0x24
 380 01e2 09       		.byte	0x9
 381 01e3 35       		.byte	0x35
 382 01e4 55020000 		.4byte	0x255
 383 01e8 0E       		.uleb128 0xe
 384 01e9 DF000000 		.4byte	.LASF35
 385 01ed 09       		.byte	0x9
 386 01ee 37       		.byte	0x37
 387 01ef 73000000 		.4byte	0x73
 388 01f3 00       		.byte	0
 389 01f4 0E       		.uleb128 0xe
 390 01f5 A1050000 		.4byte	.LASF36
 391 01f9 09       		.byte	0x9
 392 01fa 38       		.byte	0x38
 393 01fb 73000000 		.4byte	0x73
 394 01ff 04       		.byte	0x4
 395 0200 0E       		.uleb128 0xe
 396 0201 0E010000 		.4byte	.LASF37
 397 0205 09       		.byte	0x9
 398 0206 39       		.byte	0x39
 399 0207 73000000 		.4byte	0x73
 400 020b 08       		.byte	0x8
 401 020c 0E       		.uleb128 0xe
 402 020d 0D060000 		.4byte	.LASF38
 403 0211 09       		.byte	0x9
 404 0212 3A       		.byte	0x3a
 405 0213 73000000 		.4byte	0x73
 406 0217 0C       		.byte	0xc
 407 0218 0E       		.uleb128 0xe
 408 0219 E9020000 		.4byte	.LASF39
 409 021d 09       		.byte	0x9
 410 021e 3B       		.byte	0x3b
 411 021f 73000000 		.4byte	0x73
 412 0223 10       		.byte	0x10
 413 0224 0E       		.uleb128 0xe
 414 0225 CA020000 		.4byte	.LASF40
 415 0229 09       		.byte	0x9
 416 022a 3C       		.byte	0x3c
 417 022b 73000000 		.4byte	0x73
 418 022f 14       		.byte	0x14
 419 0230 0E       		.uleb128 0xe
 420 0231 5C040000 		.4byte	.LASF41
 421 0235 09       		.byte	0x9
ARM GAS  /tmp/ccmFQypW.s 			page 9


 422 0236 3D       		.byte	0x3d
 423 0237 73000000 		.4byte	0x73
 424 023b 18       		.byte	0x18
 425 023c 0E       		.uleb128 0xe
 426 023d AC030000 		.4byte	.LASF42
 427 0241 09       		.byte	0x9
 428 0242 3E       		.byte	0x3e
 429 0243 73000000 		.4byte	0x73
 430 0247 1C       		.byte	0x1c
 431 0248 0E       		.uleb128 0xe
 432 0249 87050000 		.4byte	.LASF43
 433 024d 09       		.byte	0x9
 434 024e 3F       		.byte	0x3f
 435 024f 73000000 		.4byte	0x73
 436 0253 20       		.byte	0x20
 437 0254 00       		.byte	0
 438 0255 14       		.uleb128 0x14
 439 0256 1D010000 		.4byte	.LASF44
 440 025a 0801     		.2byte	0x108
 441 025c 09       		.byte	0x9
 442 025d 48       		.byte	0x48
 443 025e 95020000 		.4byte	0x295
 444 0262 0E       		.uleb128 0xe
 445 0263 23000000 		.4byte	.LASF45
 446 0267 09       		.byte	0x9
 447 0268 49       		.byte	0x49
 448 0269 95020000 		.4byte	0x295
 449 026d 00       		.byte	0
 450 026e 0E       		.uleb128 0xe
 451 026f 00000000 		.4byte	.LASF46
 452 0273 09       		.byte	0x9
 453 0274 4A       		.byte	0x4a
 454 0275 95020000 		.4byte	0x295
 455 0279 80       		.byte	0x80
 456 027a 15       		.uleb128 0x15
 457 027b BF040000 		.4byte	.LASF47
 458 027f 09       		.byte	0x9
 459 0280 4C       		.byte	0x4c
 460 0281 68010000 		.4byte	0x168
 461 0285 0001     		.2byte	0x100
 462 0287 15       		.uleb128 0x15
 463 0288 55010000 		.4byte	.LASF48
 464 028c 09       		.byte	0x9
 465 028d 4F       		.byte	0x4f
 466 028e 68010000 		.4byte	0x168
 467 0292 0401     		.2byte	0x104
 468 0294 00       		.byte	0
 469 0295 0B       		.uleb128 0xb
 470 0296 54010000 		.4byte	0x154
 471 029a A5020000 		.4byte	0x2a5
 472 029e 0C       		.uleb128 0xc
 473 029f 9C000000 		.4byte	0x9c
 474 02a3 1F       		.byte	0x1f
 475 02a4 00       		.byte	0
 476 02a5 14       		.uleb128 0x14
 477 02a6 F2020000 		.4byte	.LASF49
 478 02aa 9001     		.2byte	0x190
ARM GAS  /tmp/ccmFQypW.s 			page 10


 479 02ac 09       		.byte	0x9
 480 02ad 5B       		.byte	0x5b
 481 02ae E3020000 		.4byte	0x2e3
 482 02b2 0E       		.uleb128 0xe
 483 02b3 AC040000 		.4byte	.LASF29
 484 02b7 09       		.byte	0x9
 485 02b8 5C       		.byte	0x5c
 486 02b9 E3020000 		.4byte	0x2e3
 487 02bd 00       		.byte	0
 488 02be 0E       		.uleb128 0xe
 489 02bf 12040000 		.4byte	.LASF50
 490 02c3 09       		.byte	0x9
 491 02c4 5D       		.byte	0x5d
 492 02c5 73000000 		.4byte	0x73
 493 02c9 04       		.byte	0x4
 494 02ca 0E       		.uleb128 0xe
 495 02cb D8010000 		.4byte	.LASF51
 496 02cf 09       		.byte	0x9
 497 02d0 5F       		.byte	0x5f
 498 02d1 E9020000 		.4byte	0x2e9
 499 02d5 08       		.byte	0x8
 500 02d6 0E       		.uleb128 0xe
 501 02d7 1D010000 		.4byte	.LASF44
 502 02db 09       		.byte	0x9
 503 02dc 60       		.byte	0x60
 504 02dd 55020000 		.4byte	0x255
 505 02e1 88       		.byte	0x88
 506 02e2 00       		.byte	0
 507 02e3 10       		.uleb128 0x10
 508 02e4 04       		.byte	0x4
 509 02e5 A5020000 		.4byte	0x2a5
 510 02e9 0B       		.uleb128 0xb
 511 02ea F9020000 		.4byte	0x2f9
 512 02ee F9020000 		.4byte	0x2f9
 513 02f2 0C       		.uleb128 0xc
 514 02f3 9C000000 		.4byte	0x9c
 515 02f7 1F       		.byte	0x1f
 516 02f8 00       		.byte	0
 517 02f9 10       		.uleb128 0x10
 518 02fa 04       		.byte	0x4
 519 02fb FF020000 		.4byte	0x2ff
 520 02ff 16       		.uleb128 0x16
 521 0300 12       		.uleb128 0x12
 522 0301 B6030000 		.4byte	.LASF52
 523 0305 08       		.byte	0x8
 524 0306 09       		.byte	0x9
 525 0307 73       		.byte	0x73
 526 0308 25030000 		.4byte	0x325
 527 030c 0E       		.uleb128 0xe
 528 030d 08010000 		.4byte	.LASF53
 529 0311 09       		.byte	0x9
 530 0312 74       		.byte	0x74
 531 0313 25030000 		.4byte	0x325
 532 0317 00       		.byte	0
 533 0318 0E       		.uleb128 0xe
 534 0319 8F040000 		.4byte	.LASF54
 535 031d 09       		.byte	0x9
ARM GAS  /tmp/ccmFQypW.s 			page 11


 536 031e 75       		.byte	0x75
 537 031f 73000000 		.4byte	0x73
 538 0323 04       		.byte	0x4
 539 0324 00       		.byte	0
 540 0325 10       		.uleb128 0x10
 541 0326 04       		.byte	0x4
 542 0327 2C000000 		.4byte	0x2c
 543 032b 12       		.uleb128 0x12
 544 032c DD030000 		.4byte	.LASF55
 545 0330 68       		.byte	0x68
 546 0331 09       		.byte	0x9
 547 0332 B3       		.byte	0xb3
 548 0333 55040000 		.4byte	0x455
 549 0337 13       		.uleb128 0x13
 550 0338 5F7000   		.ascii	"_p\000"
 551 033b 09       		.byte	0x9
 552 033c B4       		.byte	0xb4
 553 033d 25030000 		.4byte	0x325
 554 0341 00       		.byte	0
 555 0342 13       		.uleb128 0x13
 556 0343 5F7200   		.ascii	"_r\000"
 557 0346 09       		.byte	0x9
 558 0347 B5       		.byte	0xb5
 559 0348 73000000 		.4byte	0x73
 560 034c 04       		.byte	0x4
 561 034d 13       		.uleb128 0x13
 562 034e 5F7700   		.ascii	"_w\000"
 563 0351 09       		.byte	0x9
 564 0352 B6       		.byte	0xb6
 565 0353 73000000 		.4byte	0x73
 566 0357 08       		.byte	0x8
 567 0358 0E       		.uleb128 0xe
 568 0359 4E010000 		.4byte	.LASF56
 569 035d 09       		.byte	0x9
 570 035e B7       		.byte	0xb7
 571 035f 33000000 		.4byte	0x33
 572 0363 0C       		.byte	0xc
 573 0364 0E       		.uleb128 0xe
 574 0365 57020000 		.4byte	.LASF57
 575 0369 09       		.byte	0x9
 576 036a B8       		.byte	0xb8
 577 036b 33000000 		.4byte	0x33
 578 036f 0E       		.byte	0xe
 579 0370 13       		.uleb128 0x13
 580 0371 5F626600 		.ascii	"_bf\000"
 581 0375 09       		.byte	0x9
 582 0376 B9       		.byte	0xb9
 583 0377 00030000 		.4byte	0x300
 584 037b 10       		.byte	0x10
 585 037c 0E       		.uleb128 0xe
 586 037d 9C000000 		.4byte	.LASF58
 587 0381 09       		.byte	0x9
 588 0382 BA       		.byte	0xba
 589 0383 73000000 		.4byte	0x73
 590 0387 18       		.byte	0x18
 591 0388 0E       		.uleb128 0xe
 592 0389 2B010000 		.4byte	.LASF59
ARM GAS  /tmp/ccmFQypW.s 			page 12


 593 038d 09       		.byte	0x9
 594 038e C1       		.byte	0xc1
 595 038f 54010000 		.4byte	0x154
 596 0393 1C       		.byte	0x1c
 597 0394 0E       		.uleb128 0xe
 598 0395 0A020000 		.4byte	.LASF60
 599 0399 09       		.byte	0x9
 600 039a C3       		.byte	0xc3
 601 039b B0050000 		.4byte	0x5b0
 602 039f 20       		.byte	0x20
 603 03a0 0E       		.uleb128 0xe
 604 03a1 C3020000 		.4byte	.LASF61
 605 03a5 09       		.byte	0x9
 606 03a6 C5       		.byte	0xc5
 607 03a7 DF050000 		.4byte	0x5df
 608 03ab 24       		.byte	0x24
 609 03ac 0E       		.uleb128 0xe
 610 03ad 56040000 		.4byte	.LASF62
 611 03b1 09       		.byte	0x9
 612 03b2 C8       		.byte	0xc8
 613 03b3 03060000 		.4byte	0x603
 614 03b7 28       		.byte	0x28
 615 03b8 0E       		.uleb128 0xe
 616 03b9 EF000000 		.4byte	.LASF63
 617 03bd 09       		.byte	0x9
 618 03be C9       		.byte	0xc9
 619 03bf 1D060000 		.4byte	0x61d
 620 03c3 2C       		.byte	0x2c
 621 03c4 13       		.uleb128 0x13
 622 03c5 5F756200 		.ascii	"_ub\000"
 623 03c9 09       		.byte	0x9
 624 03ca CC       		.byte	0xcc
 625 03cb 00030000 		.4byte	0x300
 626 03cf 30       		.byte	0x30
 627 03d0 13       		.uleb128 0x13
 628 03d1 5F757000 		.ascii	"_up\000"
 629 03d5 09       		.byte	0x9
 630 03d6 CD       		.byte	0xcd
 631 03d7 25030000 		.4byte	0x325
 632 03db 38       		.byte	0x38
 633 03dc 13       		.uleb128 0x13
 634 03dd 5F757200 		.ascii	"_ur\000"
 635 03e1 09       		.byte	0x9
 636 03e2 CE       		.byte	0xce
 637 03e3 73000000 		.4byte	0x73
 638 03e7 3C       		.byte	0x3c
 639 03e8 0E       		.uleb128 0xe
 640 03e9 02010000 		.4byte	.LASF64
 641 03ed 09       		.byte	0x9
 642 03ee D1       		.byte	0xd1
 643 03ef 23060000 		.4byte	0x623
 644 03f3 40       		.byte	0x40
 645 03f4 0E       		.uleb128 0xe
 646 03f5 79050000 		.4byte	.LASF65
 647 03f9 09       		.byte	0x9
 648 03fa D2       		.byte	0xd2
 649 03fb 33060000 		.4byte	0x633
ARM GAS  /tmp/ccmFQypW.s 			page 13


 650 03ff 43       		.byte	0x43
 651 0400 13       		.uleb128 0x13
 652 0401 5F6C6200 		.ascii	"_lb\000"
 653 0405 09       		.byte	0x9
 654 0406 D5       		.byte	0xd5
 655 0407 00030000 		.4byte	0x300
 656 040b 44       		.byte	0x44
 657 040c 0E       		.uleb128 0xe
 658 040d 86040000 		.4byte	.LASF66
 659 0411 09       		.byte	0x9
 660 0412 D8       		.byte	0xd8
 661 0413 73000000 		.4byte	0x73
 662 0417 4C       		.byte	0x4c
 663 0418 0E       		.uleb128 0xe
 664 0419 A2010000 		.4byte	.LASF67
 665 041d 09       		.byte	0x9
 666 041e D9       		.byte	0xd9
 667 041f CC000000 		.4byte	0xcc
 668 0423 50       		.byte	0x50
 669 0424 0E       		.uleb128 0xe
 670 0425 5D020000 		.4byte	.LASF68
 671 0429 09       		.byte	0x9
 672 042a DC       		.byte	0xdc
 673 042b 73040000 		.4byte	0x473
 674 042f 54       		.byte	0x54
 675 0430 0E       		.uleb128 0xe
 676 0431 AD020000 		.4byte	.LASF69
 677 0435 09       		.byte	0x9
 678 0436 E0       		.byte	0xe0
 679 0437 49010000 		.4byte	0x149
 680 043b 58       		.byte	0x58
 681 043c 0E       		.uleb128 0xe
 682 043d EF030000 		.4byte	.LASF70
 683 0441 09       		.byte	0x9
 684 0442 E2       		.byte	0xe2
 685 0443 3E010000 		.4byte	0x13e
 686 0447 5C       		.byte	0x5c
 687 0448 0E       		.uleb128 0xe
 688 0449 BD030000 		.4byte	.LASF71
 689 044d 09       		.byte	0x9
 690 044e E3       		.byte	0xe3
 691 044f 73000000 		.4byte	0x73
 692 0453 64       		.byte	0x64
 693 0454 00       		.byte	0
 694 0455 17       		.uleb128 0x17
 695 0456 73000000 		.4byte	0x73
 696 045a 73040000 		.4byte	0x473
 697 045e 18       		.uleb128 0x18
 698 045f 73040000 		.4byte	0x473
 699 0463 18       		.uleb128 0x18
 700 0464 54010000 		.4byte	0x154
 701 0468 18       		.uleb128 0x18
 702 0469 56010000 		.4byte	0x156
 703 046d 18       		.uleb128 0x18
 704 046e 73000000 		.4byte	0x73
 705 0472 00       		.byte	0
 706 0473 10       		.uleb128 0x10
ARM GAS  /tmp/ccmFQypW.s 			page 14


 707 0474 04       		.byte	0x4
 708 0475 7E040000 		.4byte	0x47e
 709 0479 11       		.uleb128 0x11
 710 047a 73040000 		.4byte	0x473
 711 047e 19       		.uleb128 0x19
 712 047f 39040000 		.4byte	.LASF72
 713 0483 2804     		.2byte	0x428
 714 0485 09       		.byte	0x9
 715 0486 3802     		.2byte	0x238
 716 0488 B0050000 		.4byte	0x5b0
 717 048c 1A       		.uleb128 0x1a
 718 048d 7A040000 		.4byte	.LASF73
 719 0491 09       		.byte	0x9
 720 0492 3A02     		.2byte	0x23a
 721 0494 73000000 		.4byte	0x73
 722 0498 00       		.byte	0
 723 0499 1A       		.uleb128 0x1a
 724 049a 5D010000 		.4byte	.LASF74
 725 049e 09       		.byte	0x9
 726 049f 3F02     		.2byte	0x23f
 727 04a1 8A060000 		.4byte	0x68a
 728 04a5 04       		.byte	0x4
 729 04a6 1A       		.uleb128 0x1a
 730 04a7 35020000 		.4byte	.LASF75
 731 04ab 09       		.byte	0x9
 732 04ac 3F02     		.2byte	0x23f
 733 04ae 8A060000 		.4byte	0x68a
 734 04b2 08       		.byte	0x8
 735 04b3 1A       		.uleb128 0x1a
 736 04b4 FA010000 		.4byte	.LASF76
 737 04b8 09       		.byte	0x9
 738 04b9 3F02     		.2byte	0x23f
 739 04bb 8A060000 		.4byte	0x68a
 740 04bf 0C       		.byte	0xc
 741 04c0 1A       		.uleb128 0x1a
 742 04c1 0D040000 		.4byte	.LASF77
 743 04c5 09       		.byte	0x9
 744 04c6 4102     		.2byte	0x241
 745 04c8 73000000 		.4byte	0x73
 746 04cc 10       		.byte	0x10
 747 04cd 1A       		.uleb128 0x1a
 748 04ce 42000000 		.4byte	.LASF78
 749 04d2 09       		.byte	0x9
 750 04d3 4202     		.2byte	0x242
 751 04d5 6C080000 		.4byte	0x86c
 752 04d9 14       		.byte	0x14
 753 04da 1A       		.uleb128 0x1a
 754 04db 19050000 		.4byte	.LASF79
 755 04df 09       		.byte	0x9
 756 04e0 4402     		.2byte	0x244
 757 04e2 73000000 		.4byte	0x73
 758 04e6 30       		.byte	0x30
 759 04e7 1A       		.uleb128 0x1a
 760 04e8 17040000 		.4byte	.LASF80
 761 04ec 09       		.byte	0x9
 762 04ed 4502     		.2byte	0x245
 763 04ef D4050000 		.4byte	0x5d4
ARM GAS  /tmp/ccmFQypW.s 			page 15


 764 04f3 34       		.byte	0x34
 765 04f4 1A       		.uleb128 0x1a
 766 04f5 04030000 		.4byte	.LASF81
 767 04f9 09       		.byte	0x9
 768 04fa 4702     		.2byte	0x247
 769 04fc 73000000 		.4byte	0x73
 770 0500 38       		.byte	0x38
 771 0501 1A       		.uleb128 0x1a
 772 0502 27040000 		.4byte	.LASF82
 773 0506 09       		.byte	0x9
 774 0507 4902     		.2byte	0x249
 775 0509 87080000 		.4byte	0x887
 776 050d 3C       		.byte	0x3c
 777 050e 1A       		.uleb128 0x1a
 778 050f 8E020000 		.4byte	.LASF83
 779 0513 09       		.byte	0x9
 780 0514 4C02     		.2byte	0x24c
 781 0516 C6010000 		.4byte	0x1c6
 782 051a 40       		.byte	0x40
 783 051b 1A       		.uleb128 0x1a
 784 051c 72010000 		.4byte	.LASF84
 785 0520 09       		.byte	0x9
 786 0521 4D02     		.2byte	0x24d
 787 0523 73000000 		.4byte	0x73
 788 0527 44       		.byte	0x44
 789 0528 1A       		.uleb128 0x1a
 790 0529 FA050000 		.4byte	.LASF85
 791 052d 09       		.byte	0x9
 792 052e 4E02     		.2byte	0x24e
 793 0530 C6010000 		.4byte	0x1c6
 794 0534 48       		.byte	0x48
 795 0535 1A       		.uleb128 0x1a
 796 0536 2B030000 		.4byte	.LASF86
 797 053a 09       		.byte	0x9
 798 053b 4F02     		.2byte	0x24f
 799 053d 8D080000 		.4byte	0x88d
 800 0541 4C       		.byte	0x4c
 801 0542 1A       		.uleb128 0x1a
 802 0543 3D020000 		.4byte	.LASF87
 803 0547 09       		.byte	0x9
 804 0548 5202     		.2byte	0x252
 805 054a 73000000 		.4byte	0x73
 806 054e 50       		.byte	0x50
 807 054f 1A       		.uleb128 0x1a
 808 0550 9A010000 		.4byte	.LASF88
 809 0554 09       		.byte	0x9
 810 0555 5302     		.2byte	0x253
 811 0557 56010000 		.4byte	0x156
 812 055b 54       		.byte	0x54
 813 055c 1A       		.uleb128 0x1a
 814 055d A8020000 		.4byte	.LASF89
 815 0561 09       		.byte	0x9
 816 0562 7602     		.2byte	0x276
 817 0564 4A080000 		.4byte	0x84a
 818 0568 58       		.byte	0x58
 819 0569 1B       		.uleb128 0x1b
 820 056a F2020000 		.4byte	.LASF49
ARM GAS  /tmp/ccmFQypW.s 			page 16


 821 056e 09       		.byte	0x9
 822 056f 7A02     		.2byte	0x27a
 823 0571 E3020000 		.4byte	0x2e3
 824 0575 4801     		.2byte	0x148
 825 0577 1B       		.uleb128 0x1b
 826 0578 4D000000 		.4byte	.LASF90
 827 057c 09       		.byte	0x9
 828 057d 7B02     		.2byte	0x27b
 829 057f A5020000 		.4byte	0x2a5
 830 0583 4C01     		.2byte	0x14c
 831 0585 1B       		.uleb128 0x1b
 832 0586 6F050000 		.4byte	.LASF91
 833 058a 09       		.byte	0x9
 834 058b 7F02     		.2byte	0x27f
 835 058d 9E080000 		.4byte	0x89e
 836 0591 DC02     		.2byte	0x2dc
 837 0593 1B       		.uleb128 0x1b
 838 0594 33010000 		.4byte	.LASF92
 839 0598 09       		.byte	0x9
 840 0599 8402     		.2byte	0x284
 841 059b 4F060000 		.4byte	0x64f
 842 059f E002     		.2byte	0x2e0
 843 05a1 1B       		.uleb128 0x1b
 844 05a2 18010000 		.4byte	.LASF93
 845 05a6 09       		.byte	0x9
 846 05a7 8502     		.2byte	0x285
 847 05a9 AA080000 		.4byte	0x8aa
 848 05ad EC02     		.2byte	0x2ec
 849 05af 00       		.byte	0
 850 05b0 10       		.uleb128 0x10
 851 05b1 04       		.byte	0x4
 852 05b2 55040000 		.4byte	0x455
 853 05b6 17       		.uleb128 0x17
 854 05b7 73000000 		.4byte	0x73
 855 05bb D4050000 		.4byte	0x5d4
 856 05bf 18       		.uleb128 0x18
 857 05c0 73040000 		.4byte	0x473
 858 05c4 18       		.uleb128 0x18
 859 05c5 54010000 		.4byte	0x154
 860 05c9 18       		.uleb128 0x18
 861 05ca D4050000 		.4byte	0x5d4
 862 05ce 18       		.uleb128 0x18
 863 05cf 73000000 		.4byte	0x73
 864 05d3 00       		.byte	0
 865 05d4 10       		.uleb128 0x10
 866 05d5 04       		.byte	0x4
 867 05d6 63010000 		.4byte	0x163
 868 05da 11       		.uleb128 0x11
 869 05db D4050000 		.4byte	0x5d4
 870 05df 10       		.uleb128 0x10
 871 05e0 04       		.byte	0x4
 872 05e1 B6050000 		.4byte	0x5b6
 873 05e5 17       		.uleb128 0x17
 874 05e6 D7000000 		.4byte	0xd7
 875 05ea 03060000 		.4byte	0x603
 876 05ee 18       		.uleb128 0x18
 877 05ef 73040000 		.4byte	0x473
ARM GAS  /tmp/ccmFQypW.s 			page 17


 878 05f3 18       		.uleb128 0x18
 879 05f4 54010000 		.4byte	0x154
 880 05f8 18       		.uleb128 0x18
 881 05f9 D7000000 		.4byte	0xd7
 882 05fd 18       		.uleb128 0x18
 883 05fe 73000000 		.4byte	0x73
 884 0602 00       		.byte	0
 885 0603 10       		.uleb128 0x10
 886 0604 04       		.byte	0x4
 887 0605 E5050000 		.4byte	0x5e5
 888 0609 17       		.uleb128 0x17
 889 060a 73000000 		.4byte	0x73
 890 060e 1D060000 		.4byte	0x61d
 891 0612 18       		.uleb128 0x18
 892 0613 73040000 		.4byte	0x473
 893 0617 18       		.uleb128 0x18
 894 0618 54010000 		.4byte	0x154
 895 061c 00       		.byte	0
 896 061d 10       		.uleb128 0x10
 897 061e 04       		.byte	0x4
 898 061f 09060000 		.4byte	0x609
 899 0623 0B       		.uleb128 0xb
 900 0624 2C000000 		.4byte	0x2c
 901 0628 33060000 		.4byte	0x633
 902 062c 0C       		.uleb128 0xc
 903 062d 9C000000 		.4byte	0x9c
 904 0631 02       		.byte	0x2
 905 0632 00       		.byte	0
 906 0633 0B       		.uleb128 0xb
 907 0634 2C000000 		.4byte	0x2c
 908 0638 43060000 		.4byte	0x643
 909 063c 0C       		.uleb128 0xc
 910 063d 9C000000 		.4byte	0x9c
 911 0641 00       		.byte	0
 912 0642 00       		.byte	0
 913 0643 08       		.uleb128 0x8
 914 0644 CB030000 		.4byte	.LASF94
 915 0648 09       		.byte	0x9
 916 0649 1D01     		.2byte	0x11d
 917 064b 2B030000 		.4byte	0x32b
 918 064f 1C       		.uleb128 0x1c
 919 0650 56050000 		.4byte	.LASF95
 920 0654 0C       		.byte	0xc
 921 0655 09       		.byte	0x9
 922 0656 2101     		.2byte	0x121
 923 0658 84060000 		.4byte	0x684
 924 065c 1A       		.uleb128 0x1a
 925 065d AC040000 		.4byte	.LASF29
 926 0661 09       		.byte	0x9
 927 0662 2301     		.2byte	0x123
 928 0664 84060000 		.4byte	0x684
 929 0668 00       		.byte	0
 930 0669 1A       		.uleb128 0x1a
 931 066a 63020000 		.4byte	.LASF96
 932 066e 09       		.byte	0x9
 933 066f 2401     		.2byte	0x124
 934 0671 73000000 		.4byte	0x73
ARM GAS  /tmp/ccmFQypW.s 			page 18


 935 0675 04       		.byte	0x4
 936 0676 1A       		.uleb128 0x1a
 937 0677 C5030000 		.4byte	.LASF97
 938 067b 09       		.byte	0x9
 939 067c 2501     		.2byte	0x125
 940 067e 8A060000 		.4byte	0x68a
 941 0682 08       		.byte	0x8
 942 0683 00       		.byte	0
 943 0684 10       		.uleb128 0x10
 944 0685 04       		.byte	0x4
 945 0686 4F060000 		.4byte	0x64f
 946 068a 10       		.uleb128 0x10
 947 068b 04       		.byte	0x4
 948 068c 43060000 		.4byte	0x643
 949 0690 1C       		.uleb128 0x1c
 950 0691 2B000000 		.4byte	.LASF98
 951 0695 0E       		.byte	0xe
 952 0696 09       		.byte	0x9
 953 0697 3D01     		.2byte	0x13d
 954 0699 C5060000 		.4byte	0x6c5
 955 069d 1A       		.uleb128 0x1a
 956 069e 40040000 		.4byte	.LASF99
 957 06a2 09       		.byte	0x9
 958 06a3 3E01     		.2byte	0x13e
 959 06a5 C5060000 		.4byte	0x6c5
 960 06a9 00       		.byte	0
 961 06aa 1A       		.uleb128 0x1a
 962 06ab BD020000 		.4byte	.LASF100
 963 06af 09       		.byte	0x9
 964 06b0 3F01     		.2byte	0x13f
 965 06b2 C5060000 		.4byte	0x6c5
 966 06b6 06       		.byte	0x6
 967 06b7 1A       		.uleb128 0x1a
 968 06b8 DB040000 		.4byte	.LASF101
 969 06bc 09       		.byte	0x9
 970 06bd 4001     		.2byte	0x140
 971 06bf 3A000000 		.4byte	0x3a
 972 06c3 0C       		.byte	0xc
 973 06c4 00       		.byte	0
 974 06c5 0B       		.uleb128 0xb
 975 06c6 3A000000 		.4byte	0x3a
 976 06ca D5060000 		.4byte	0x6d5
 977 06ce 0C       		.uleb128 0xc
 978 06cf 9C000000 		.4byte	0x9c
 979 06d3 02       		.byte	0x2
 980 06d4 00       		.byte	0
 981 06d5 1D       		.uleb128 0x1d
 982 06d6 D0       		.byte	0xd0
 983 06d7 09       		.byte	0x9
 984 06d8 5702     		.2byte	0x257
 985 06da D6070000 		.4byte	0x7d6
 986 06de 1A       		.uleb128 0x1a
 987 06df 44050000 		.4byte	.LASF102
 988 06e3 09       		.byte	0x9
 989 06e4 5902     		.2byte	0x259
 990 06e6 7A000000 		.4byte	0x7a
 991 06ea 00       		.byte	0
ARM GAS  /tmp/ccmFQypW.s 			page 19


 992 06eb 1A       		.uleb128 0x1a
 993 06ec B2040000 		.4byte	.LASF103
 994 06f0 09       		.byte	0x9
 995 06f1 5A02     		.2byte	0x25a
 996 06f3 56010000 		.4byte	0x156
 997 06f7 04       		.byte	0x4
 998 06f8 1A       		.uleb128 0x1a
 999 06f9 81020000 		.4byte	.LASF104
 1000 06fd 09       		.byte	0x9
 1001 06fe 5B02     		.2byte	0x25b
 1002 0700 D6070000 		.4byte	0x7d6
 1003 0704 08       		.byte	0x8
 1004 0705 1A       		.uleb128 0x1a
 1005 0706 92050000 		.4byte	.LASF105
 1006 070a 09       		.byte	0x9
 1007 070b 5C02     		.2byte	0x25c
 1008 070d DC010000 		.4byte	0x1dc
 1009 0711 24       		.byte	0x24
 1010 0712 1A       		.uleb128 0x1a
 1011 0713 0F030000 		.4byte	.LASF106
 1012 0717 09       		.byte	0x9
 1013 0718 5D02     		.2byte	0x25d
 1014 071a 73000000 		.4byte	0x73
 1015 071e 48       		.byte	0x48
 1016 071f 1A       		.uleb128 0x1a
 1017 0720 6A020000 		.4byte	.LASF107
 1018 0724 09       		.byte	0x9
 1019 0725 5E02     		.2byte	0x25e
 1020 0727 6C000000 		.4byte	0x6c
 1021 072b 50       		.byte	0x50
 1022 072c 1A       		.uleb128 0x1a
 1023 072d E4020000 		.4byte	.LASF108
 1024 0731 09       		.byte	0x9
 1025 0732 5F02     		.2byte	0x25f
 1026 0734 90060000 		.4byte	0x690
 1027 0738 58       		.byte	0x58
 1028 0739 1A       		.uleb128 0x1a
 1029 073a 00040000 		.4byte	.LASF109
 1030 073e 09       		.byte	0x9
 1031 073f 6002     		.2byte	0x260
 1032 0741 3E010000 		.4byte	0x13e
 1033 0745 68       		.byte	0x68
 1034 0746 1A       		.uleb128 0x1a
 1035 0747 EC050000 		.4byte	.LASF110
 1036 074b 09       		.byte	0x9
 1037 074c 6102     		.2byte	0x261
 1038 074e 3E010000 		.4byte	0x13e
 1039 0752 70       		.byte	0x70
 1040 0753 1A       		.uleb128 0x1a
 1041 0754 D1000000 		.4byte	.LASF111
 1042 0758 09       		.byte	0x9
 1043 0759 6202     		.2byte	0x262
 1044 075b 3E010000 		.4byte	0x13e
 1045 075f 78       		.byte	0x78
 1046 0760 1A       		.uleb128 0x1a
 1047 0761 65050000 		.4byte	.LASF112
 1048 0765 09       		.byte	0x9
ARM GAS  /tmp/ccmFQypW.s 			page 20


 1049 0766 6302     		.2byte	0x263
 1050 0768 E6070000 		.4byte	0x7e6
 1051 076c 80       		.byte	0x80
 1052 076d 1A       		.uleb128 0x1a
 1053 076e 75020000 		.4byte	.LASF113
 1054 0772 09       		.byte	0x9
 1055 0773 6402     		.2byte	0x264
 1056 0775 F6070000 		.4byte	0x7f6
 1057 0779 88       		.byte	0x88
 1058 077a 1A       		.uleb128 0x1a
 1059 077b E8040000 		.4byte	.LASF114
 1060 077f 09       		.byte	0x9
 1061 0780 6502     		.2byte	0x265
 1062 0782 73000000 		.4byte	0x73
 1063 0786 A0       		.byte	0xa0
 1064 0787 1A       		.uleb128 0x1a
 1065 0788 CA010000 		.4byte	.LASF115
 1066 078c 09       		.byte	0x9
 1067 078d 6602     		.2byte	0x266
 1068 078f 3E010000 		.4byte	0x13e
 1069 0793 A4       		.byte	0xa4
 1070 0794 1A       		.uleb128 0x1a
 1071 0795 C2000000 		.4byte	.LASF116
 1072 0799 09       		.byte	0x9
 1073 079a 6702     		.2byte	0x267
 1074 079c 3E010000 		.4byte	0x13e
 1075 07a0 AC       		.byte	0xac
 1076 07a1 1A       		.uleb128 0x1a
 1077 07a2 AA010000 		.4byte	.LASF117
 1078 07a6 09       		.byte	0x9
 1079 07a7 6802     		.2byte	0x268
 1080 07a9 3E010000 		.4byte	0x13e
 1081 07ad B4       		.byte	0xb4
 1082 07ae 1A       		.uleb128 0x1a
 1083 07af 56000000 		.4byte	.LASF118
 1084 07b3 09       		.byte	0x9
 1085 07b4 6902     		.2byte	0x269
 1086 07b6 3E010000 		.4byte	0x13e
 1087 07ba BC       		.byte	0xbc
 1088 07bb 1A       		.uleb128 0x1a
 1089 07bc 65000000 		.4byte	.LASF119
 1090 07c0 09       		.byte	0x9
 1091 07c1 6A02     		.2byte	0x26a
 1092 07c3 3E010000 		.4byte	0x13e
 1093 07c7 C4       		.byte	0xc4
 1094 07c8 1A       		.uleb128 0x1a
 1095 07c9 9A030000 		.4byte	.LASF120
 1096 07cd 09       		.byte	0x9
 1097 07ce 6B02     		.2byte	0x26b
 1098 07d0 73000000 		.4byte	0x73
 1099 07d4 CC       		.byte	0xcc
 1100 07d5 00       		.byte	0
 1101 07d6 0B       		.uleb128 0xb
 1102 07d7 5C010000 		.4byte	0x15c
 1103 07db E6070000 		.4byte	0x7e6
 1104 07df 0C       		.uleb128 0xc
 1105 07e0 9C000000 		.4byte	0x9c
ARM GAS  /tmp/ccmFQypW.s 			page 21


 1106 07e4 19       		.byte	0x19
 1107 07e5 00       		.byte	0
 1108 07e6 0B       		.uleb128 0xb
 1109 07e7 5C010000 		.4byte	0x15c
 1110 07eb F6070000 		.4byte	0x7f6
 1111 07ef 0C       		.uleb128 0xc
 1112 07f0 9C000000 		.4byte	0x9c
 1113 07f4 07       		.byte	0x7
 1114 07f5 00       		.byte	0
 1115 07f6 0B       		.uleb128 0xb
 1116 07f7 5C010000 		.4byte	0x15c
 1117 07fb 06080000 		.4byte	0x806
 1118 07ff 0C       		.uleb128 0xc
 1119 0800 9C000000 		.4byte	0x9c
 1120 0804 17       		.byte	0x17
 1121 0805 00       		.byte	0
 1122 0806 1D       		.uleb128 0x1d
 1123 0807 F0       		.byte	0xf0
 1124 0808 09       		.byte	0x9
 1125 0809 7002     		.2byte	0x270
 1126 080b 2A080000 		.4byte	0x82a
 1127 080f 1A       		.uleb128 0x1a
 1128 0810 DD020000 		.4byte	.LASF121
 1129 0814 09       		.byte	0x9
 1130 0815 7302     		.2byte	0x273
 1131 0817 2A080000 		.4byte	0x82a
 1132 081b 00       		.byte	0
 1133 081c 1A       		.uleb128 0x1a
 1134 081d 5C050000 		.4byte	.LASF122
 1135 0821 09       		.byte	0x9
 1136 0822 7402     		.2byte	0x274
 1137 0824 3A080000 		.4byte	0x83a
 1138 0828 78       		.byte	0x78
 1139 0829 00       		.byte	0
 1140 082a 0B       		.uleb128 0xb
 1141 082b 25030000 		.4byte	0x325
 1142 082f 3A080000 		.4byte	0x83a
 1143 0833 0C       		.uleb128 0xc
 1144 0834 9C000000 		.4byte	0x9c
 1145 0838 1D       		.byte	0x1d
 1146 0839 00       		.byte	0
 1147 083a 0B       		.uleb128 0xb
 1148 083b 7A000000 		.4byte	0x7a
 1149 083f 4A080000 		.4byte	0x84a
 1150 0843 0C       		.uleb128 0xc
 1151 0844 9C000000 		.4byte	0x9c
 1152 0848 1D       		.byte	0x1d
 1153 0849 00       		.byte	0
 1154 084a 1E       		.uleb128 0x1e
 1155 084b F0       		.byte	0xf0
 1156 084c 09       		.byte	0x9
 1157 084d 5502     		.2byte	0x255
 1158 084f 6C080000 		.4byte	0x86c
 1159 0853 1F       		.uleb128 0x1f
 1160 0854 39040000 		.4byte	.LASF72
 1161 0858 09       		.byte	0x9
 1162 0859 6C02     		.2byte	0x26c
ARM GAS  /tmp/ccmFQypW.s 			page 22


 1163 085b D5060000 		.4byte	0x6d5
 1164 085f 1F       		.uleb128 0x1f
 1165 0860 7F050000 		.4byte	.LASF123
 1166 0864 09       		.byte	0x9
 1167 0865 7502     		.2byte	0x275
 1168 0867 06080000 		.4byte	0x806
 1169 086b 00       		.byte	0
 1170 086c 0B       		.uleb128 0xb
 1171 086d 5C010000 		.4byte	0x15c
 1172 0871 7C080000 		.4byte	0x87c
 1173 0875 0C       		.uleb128 0xc
 1174 0876 9C000000 		.4byte	0x9c
 1175 087a 18       		.byte	0x18
 1176 087b 00       		.byte	0
 1177 087c 20       		.uleb128 0x20
 1178 087d 87080000 		.4byte	0x887
 1179 0881 18       		.uleb128 0x18
 1180 0882 73040000 		.4byte	0x473
 1181 0886 00       		.byte	0
 1182 0887 10       		.uleb128 0x10
 1183 0888 04       		.byte	0x4
 1184 0889 7C080000 		.4byte	0x87c
 1185 088d 10       		.uleb128 0x10
 1186 088e 04       		.byte	0x4
 1187 088f C6010000 		.4byte	0x1c6
 1188 0893 20       		.uleb128 0x20
 1189 0894 9E080000 		.4byte	0x89e
 1190 0898 18       		.uleb128 0x18
 1191 0899 73000000 		.4byte	0x73
 1192 089d 00       		.byte	0
 1193 089e 10       		.uleb128 0x10
 1194 089f 04       		.byte	0x4
 1195 08a0 A4080000 		.4byte	0x8a4
 1196 08a4 10       		.uleb128 0x10
 1197 08a5 04       		.byte	0x4
 1198 08a6 93080000 		.4byte	0x893
 1199 08aa 0B       		.uleb128 0xb
 1200 08ab 43060000 		.4byte	0x643
 1201 08af BA080000 		.4byte	0x8ba
 1202 08b3 0C       		.uleb128 0xc
 1203 08b4 9C000000 		.4byte	0x9c
 1204 08b8 02       		.byte	0x2
 1205 08b9 00       		.byte	0
 1206 08ba 06       		.uleb128 0x6
 1207 08bb EE010000 		.4byte	.LASF124
 1208 08bf 09       		.byte	0x9
 1209 08c0 FD02     		.2byte	0x2fd
 1210 08c2 73040000 		.4byte	0x473
 1211 08c6 06       		.uleb128 0x6
 1212 08c7 06050000 		.4byte	.LASF125
 1213 08cb 09       		.byte	0x9
 1214 08cc FE02     		.2byte	0x2fe
 1215 08ce 79040000 		.4byte	0x479
 1216 08d2 07       		.uleb128 0x7
 1217 08d3 FA020000 		.4byte	.LASF126
 1218 08d7 0A       		.byte	0xa
 1219 08d8 5F       		.byte	0x5f
ARM GAS  /tmp/ccmFQypW.s 			page 23


 1220 08d9 56010000 		.4byte	0x156
 1221 08dd 02       		.uleb128 0x2
 1222 08de 08       		.byte	0x8
 1223 08df 04       		.byte	0x4
 1224 08e0 93010000 		.4byte	.LASF127
 1225 08e4 02       		.uleb128 0x2
 1226 08e5 04       		.byte	0x4
 1227 08e6 04       		.byte	0x4
 1228 08e7 25030000 		.4byte	.LASF128
 1229 08eb 21       		.uleb128 0x21
 1230 08ec F5040000 		.4byte	.LASF146
 1231 08f0 01       		.byte	0x1
 1232 08f1 25000000 		.4byte	0x25
 1233 08f5 0B       		.byte	0xb
 1234 08f6 9902     		.2byte	0x299
 1235 08f8 15090000 		.4byte	0x915
 1236 08fc 22       		.uleb128 0x22
 1237 08fd 2B050000 		.4byte	.LASF129
 1238 0901 7F       		.sleb128 -1
 1239 0902 23       		.uleb128 0x23
 1240 0903 64010000 		.4byte	.LASF130
 1241 0907 00       		.byte	0
 1242 0908 23       		.uleb128 0x23
 1243 0909 33000000 		.4byte	.LASF131
 1244 090d 01       		.byte	0x1
 1245 090e 23       		.uleb128 0x23
 1246 090f 8D000000 		.4byte	.LASF132
 1247 0913 02       		.byte	0x2
 1248 0914 00       		.byte	0
 1249 0915 06       		.uleb128 0x6
 1250 0916 B2000000 		.4byte	.LASF133
 1251 091a 0B       		.byte	0xb
 1252 091b A402     		.2byte	0x2a4
 1253 091d EB080000 		.4byte	0x8eb
 1254 0921 0B       		.uleb128 0xb
 1255 0922 DA050000 		.4byte	0x5da
 1256 0926 2C090000 		.4byte	0x92c
 1257 092a 24       		.uleb128 0x24
 1258 092b 00       		.byte	0
 1259 092c 11       		.uleb128 0x11
 1260 092d 21090000 		.4byte	0x921
 1261 0931 07       		.uleb128 0x7
 1262 0932 16000000 		.4byte	.LASF134
 1263 0936 0C       		.byte	0xc
 1264 0937 14       		.byte	0x14
 1265 0938 2C090000 		.4byte	0x92c
 1266 093c 07       		.uleb128 0x7
 1267 093d E5030000 		.4byte	.LASF135
 1268 0941 0C       		.byte	0xc
 1269 0942 15       		.byte	0x15
 1270 0943 73000000 		.4byte	0x73
 1271 0947 25       		.uleb128 0x25
 1272 0948 FF050000 		.4byte	.LASF147
 1273 094c 01       		.byte	0x1
 1274 094d 0A       		.byte	0xa
 1275 094e 73000000 		.4byte	0x73
 1276 0952 00000000 		.4byte	.LFB63
ARM GAS  /tmp/ccmFQypW.s 			page 24


 1277 0956 98000000 		.4byte	.LFE63-.LFB63
 1278 095a 01       		.uleb128 0x1
 1279 095b 9C       		.byte	0x9c
 1280 095c FF090000 		.4byte	0x9ff
 1281 0960 26       		.uleb128 0x26
 1282 0961 B3020000 		.4byte	.LASF148
 1283 0965 01       		.byte	0x1
 1284 0966 0C       		.byte	0xc
 1285 0967 FF090000 		.4byte	0x9ff
 1286 096b 02       		.uleb128 0x2
 1287 096c 91       		.byte	0x91
 1288 096d 60       		.sleb128 -32
 1289 096e 27       		.uleb128 0x27
 1290 096f 08000000 		.4byte	.LVL0
 1291 0973 0F0A0000 		.4byte	0xa0f
 1292 0977 27       		.uleb128 0x27
 1293 0978 0C000000 		.4byte	.LVL1
 1294 097c 1A0A0000 		.4byte	0xa1a
 1295 0980 28       		.uleb128 0x28
 1296 0981 12000000 		.4byte	.LVL2
 1297 0985 250A0000 		.4byte	0xa25
 1298 0989 94090000 		.4byte	0x994
 1299 098d 29       		.uleb128 0x29
 1300 098e 01       		.uleb128 0x1
 1301 098f 50       		.byte	0x50
 1302 0990 02       		.uleb128 0x2
 1303 0991 08       		.byte	0x8
 1304 0992 48       		.byte	0x48
 1305 0993 00       		.byte	0
 1306 0994 28       		.uleb128 0x28
 1307 0995 20000000 		.4byte	.LVL3
 1308 0999 300A0000 		.4byte	0xa30
 1309 099d A8090000 		.4byte	0x9a8
 1310 09a1 29       		.uleb128 0x29
 1311 09a2 01       		.uleb128 0x1
 1312 09a3 50       		.byte	0x50
 1313 09a4 02       		.uleb128 0x2
 1314 09a5 91       		.byte	0x91
 1315 09a6 60       		.sleb128 -32
 1316 09a7 00       		.byte	0
 1317 09a8 27       		.uleb128 0x27
 1318 09a9 24000000 		.4byte	.LVL4
 1319 09ad 3B0A0000 		.4byte	0xa3b
 1320 09b1 28       		.uleb128 0x28
 1321 09b2 32000000 		.4byte	.LVL6
 1322 09b6 460A0000 		.4byte	0xa46
 1323 09ba C5090000 		.4byte	0x9c5
 1324 09be 29       		.uleb128 0x29
 1325 09bf 01       		.uleb128 0x1
 1326 09c0 50       		.byte	0x50
 1327 09c1 02       		.uleb128 0x2
 1328 09c2 78       		.byte	0x78
 1329 09c3 00       		.sleb128 0
 1330 09c4 00       		.byte	0
 1331 09c5 28       		.uleb128 0x28
 1332 09c6 5A000000 		.4byte	.LVL10
 1333 09ca 460A0000 		.4byte	0xa46
ARM GAS  /tmp/ccmFQypW.s 			page 25


 1334 09ce D9090000 		.4byte	0x9d9
 1335 09d2 29       		.uleb128 0x29
 1336 09d3 01       		.uleb128 0x1
 1337 09d4 50       		.byte	0x50
 1338 09d5 02       		.uleb128 0x2
 1339 09d6 77       		.byte	0x77
 1340 09d7 00       		.sleb128 0
 1341 09d8 00       		.byte	0
 1342 09d9 28       		.uleb128 0x28
 1343 09da 82000000 		.4byte	.LVL14
 1344 09de 460A0000 		.4byte	0xa46
 1345 09e2 ED090000 		.4byte	0x9ed
 1346 09e6 29       		.uleb128 0x29
 1347 09e7 01       		.uleb128 0x1
 1348 09e8 50       		.byte	0x50
 1349 09e9 02       		.uleb128 0x2
 1350 09ea 76       		.byte	0x76
 1351 09eb 00       		.sleb128 0
 1352 09ec 00       		.byte	0
 1353 09ed 2A       		.uleb128 0x2a
 1354 09ee 8A000000 		.4byte	.LVL15
 1355 09f2 510A0000 		.4byte	0xa51
 1356 09f6 29       		.uleb128 0x29
 1357 09f7 01       		.uleb128 0x1
 1358 09f8 50       		.byte	0x50
 1359 09f9 03       		.uleb128 0x3
 1360 09fa 0A       		.byte	0xa
 1361 09fb E803     		.2byte	0x3e8
 1362 09fd 00       		.byte	0
 1363 09fe 00       		.byte	0
 1364 09ff 0B       		.uleb128 0xb
 1365 0a00 E4080000 		.4byte	0x8e4
 1366 0a04 0F0A0000 		.4byte	0xa0f
 1367 0a08 0C       		.uleb128 0xc
 1368 0a09 9C000000 		.4byte	0x9c
 1369 0a0d 05       		.byte	0x5
 1370 0a0e 00       		.byte	0
 1371 0a0f 2B       		.uleb128 0x2b
 1372 0a10 47030000 		.4byte	.LASF136
 1373 0a14 47030000 		.4byte	.LASF136
 1374 0a18 05       		.byte	0x5
 1375 0a19 4F       		.byte	0x4f
 1376 0a1a 2B       		.uleb128 0x2b
 1377 0a1b 8A010000 		.4byte	.LASF137
 1378 0a1f 8A010000 		.4byte	.LASF137
 1379 0a23 0D       		.byte	0xd
 1380 0a24 11       		.byte	0x11
 1381 0a25 2B       		.uleb128 0x2b
 1382 0a26 44010000 		.4byte	.LASF138
 1383 0a2a 44010000 		.4byte	.LASF138
 1384 0a2e 0D       		.byte	0xd
 1385 0a2f 0E       		.byte	0xe
 1386 0a30 2B       		.uleb128 0x2b
 1387 0a31 9C020000 		.4byte	.LASF139
 1388 0a35 9C020000 		.4byte	.LASF139
 1389 0a39 0D       		.byte	0xd
 1390 0a3a 08       		.byte	0x8
ARM GAS  /tmp/ccmFQypW.s 			page 26


 1391 0a3b 2B       		.uleb128 0x2b
 1392 0a3c 39050000 		.4byte	.LASF140
 1393 0a40 39050000 		.4byte	.LASF140
 1394 0a44 0D       		.byte	0xd
 1395 0a45 06       		.byte	0x6
 1396 0a46 2B       		.uleb128 0x2b
 1397 0a47 15020000 		.4byte	.LASF141
 1398 0a4b 15020000 		.4byte	.LASF141
 1399 0a4f 0D       		.byte	0xd
 1400 0a50 0A       		.byte	0xa
 1401 0a51 2B       		.uleb128 0x2b
 1402 0a52 F8030000 		.4byte	.LASF142
 1403 0a56 F8030000 		.4byte	.LASF142
 1404 0a5a 0D       		.byte	0xd
 1405 0a5b 10       		.byte	0x10
 1406 0a5c 00       		.byte	0
 1407              		.section	.debug_abbrev,"",%progbits
 1408              	.Ldebug_abbrev0:
 1409 0000 01       		.uleb128 0x1
 1410 0001 11       		.uleb128 0x11
 1411 0002 01       		.byte	0x1
 1412 0003 25       		.uleb128 0x25
 1413 0004 0E       		.uleb128 0xe
 1414 0005 13       		.uleb128 0x13
 1415 0006 0B       		.uleb128 0xb
 1416 0007 03       		.uleb128 0x3
 1417 0008 0E       		.uleb128 0xe
 1418 0009 1B       		.uleb128 0x1b
 1419 000a 0E       		.uleb128 0xe
 1420 000b 11       		.uleb128 0x11
 1421 000c 01       		.uleb128 0x1
 1422 000d 12       		.uleb128 0x12
 1423 000e 06       		.uleb128 0x6
 1424 000f 10       		.uleb128 0x10
 1425 0010 17       		.uleb128 0x17
 1426 0011 00       		.byte	0
 1427 0012 00       		.byte	0
 1428 0013 02       		.uleb128 0x2
 1429 0014 24       		.uleb128 0x24
 1430 0015 00       		.byte	0
 1431 0016 0B       		.uleb128 0xb
 1432 0017 0B       		.uleb128 0xb
 1433 0018 3E       		.uleb128 0x3e
 1434 0019 0B       		.uleb128 0xb
 1435 001a 03       		.uleb128 0x3
 1436 001b 0E       		.uleb128 0xe
 1437 001c 00       		.byte	0
 1438 001d 00       		.byte	0
 1439 001e 03       		.uleb128 0x3
 1440 001f 16       		.uleb128 0x16
 1441 0020 00       		.byte	0
 1442 0021 03       		.uleb128 0x3
 1443 0022 0E       		.uleb128 0xe
 1444 0023 3A       		.uleb128 0x3a
 1445 0024 0B       		.uleb128 0xb
 1446 0025 3B       		.uleb128 0x3b
 1447 0026 0B       		.uleb128 0xb
ARM GAS  /tmp/ccmFQypW.s 			page 27


 1448 0027 49       		.uleb128 0x49
 1449 0028 13       		.uleb128 0x13
 1450 0029 00       		.byte	0
 1451 002a 00       		.byte	0
 1452 002b 04       		.uleb128 0x4
 1453 002c 24       		.uleb128 0x24
 1454 002d 00       		.byte	0
 1455 002e 0B       		.uleb128 0xb
 1456 002f 0B       		.uleb128 0xb
 1457 0030 3E       		.uleb128 0x3e
 1458 0031 0B       		.uleb128 0xb
 1459 0032 03       		.uleb128 0x3
 1460 0033 08       		.uleb128 0x8
 1461 0034 00       		.byte	0
 1462 0035 00       		.byte	0
 1463 0036 05       		.uleb128 0x5
 1464 0037 35       		.uleb128 0x35
 1465 0038 00       		.byte	0
 1466 0039 49       		.uleb128 0x49
 1467 003a 13       		.uleb128 0x13
 1468 003b 00       		.byte	0
 1469 003c 00       		.byte	0
 1470 003d 06       		.uleb128 0x6
 1471 003e 34       		.uleb128 0x34
 1472 003f 00       		.byte	0
 1473 0040 03       		.uleb128 0x3
 1474 0041 0E       		.uleb128 0xe
 1475 0042 3A       		.uleb128 0x3a
 1476 0043 0B       		.uleb128 0xb
 1477 0044 3B       		.uleb128 0x3b
 1478 0045 05       		.uleb128 0x5
 1479 0046 49       		.uleb128 0x49
 1480 0047 13       		.uleb128 0x13
 1481 0048 3F       		.uleb128 0x3f
 1482 0049 19       		.uleb128 0x19
 1483 004a 3C       		.uleb128 0x3c
 1484 004b 19       		.uleb128 0x19
 1485 004c 00       		.byte	0
 1486 004d 00       		.byte	0
 1487 004e 07       		.uleb128 0x7
 1488 004f 34       		.uleb128 0x34
 1489 0050 00       		.byte	0
 1490 0051 03       		.uleb128 0x3
 1491 0052 0E       		.uleb128 0xe
 1492 0053 3A       		.uleb128 0x3a
 1493 0054 0B       		.uleb128 0xb
 1494 0055 3B       		.uleb128 0x3b
 1495 0056 0B       		.uleb128 0xb
 1496 0057 49       		.uleb128 0x49
 1497 0058 13       		.uleb128 0x13
 1498 0059 3F       		.uleb128 0x3f
 1499 005a 19       		.uleb128 0x19
 1500 005b 3C       		.uleb128 0x3c
 1501 005c 19       		.uleb128 0x19
 1502 005d 00       		.byte	0
 1503 005e 00       		.byte	0
 1504 005f 08       		.uleb128 0x8
ARM GAS  /tmp/ccmFQypW.s 			page 28


 1505 0060 16       		.uleb128 0x16
 1506 0061 00       		.byte	0
 1507 0062 03       		.uleb128 0x3
 1508 0063 0E       		.uleb128 0xe
 1509 0064 3A       		.uleb128 0x3a
 1510 0065 0B       		.uleb128 0xb
 1511 0066 3B       		.uleb128 0x3b
 1512 0067 05       		.uleb128 0x5
 1513 0068 49       		.uleb128 0x49
 1514 0069 13       		.uleb128 0x13
 1515 006a 00       		.byte	0
 1516 006b 00       		.byte	0
 1517 006c 09       		.uleb128 0x9
 1518 006d 17       		.uleb128 0x17
 1519 006e 01       		.byte	0x1
 1520 006f 0B       		.uleb128 0xb
 1521 0070 0B       		.uleb128 0xb
 1522 0071 3A       		.uleb128 0x3a
 1523 0072 0B       		.uleb128 0xb
 1524 0073 3B       		.uleb128 0x3b
 1525 0074 0B       		.uleb128 0xb
 1526 0075 01       		.uleb128 0x1
 1527 0076 13       		.uleb128 0x13
 1528 0077 00       		.byte	0
 1529 0078 00       		.byte	0
 1530 0079 0A       		.uleb128 0xa
 1531 007a 0D       		.uleb128 0xd
 1532 007b 00       		.byte	0
 1533 007c 03       		.uleb128 0x3
 1534 007d 0E       		.uleb128 0xe
 1535 007e 3A       		.uleb128 0x3a
 1536 007f 0B       		.uleb128 0xb
 1537 0080 3B       		.uleb128 0x3b
 1538 0081 0B       		.uleb128 0xb
 1539 0082 49       		.uleb128 0x49
 1540 0083 13       		.uleb128 0x13
 1541 0084 00       		.byte	0
 1542 0085 00       		.byte	0
 1543 0086 0B       		.uleb128 0xb
 1544 0087 01       		.uleb128 0x1
 1545 0088 01       		.byte	0x1
 1546 0089 49       		.uleb128 0x49
 1547 008a 13       		.uleb128 0x13
 1548 008b 01       		.uleb128 0x1
 1549 008c 13       		.uleb128 0x13
 1550 008d 00       		.byte	0
 1551 008e 00       		.byte	0
 1552 008f 0C       		.uleb128 0xc
 1553 0090 21       		.uleb128 0x21
 1554 0091 00       		.byte	0
 1555 0092 49       		.uleb128 0x49
 1556 0093 13       		.uleb128 0x13
 1557 0094 2F       		.uleb128 0x2f
 1558 0095 0B       		.uleb128 0xb
 1559 0096 00       		.byte	0
 1560 0097 00       		.byte	0
 1561 0098 0D       		.uleb128 0xd
ARM GAS  /tmp/ccmFQypW.s 			page 29


 1562 0099 13       		.uleb128 0x13
 1563 009a 01       		.byte	0x1
 1564 009b 0B       		.uleb128 0xb
 1565 009c 0B       		.uleb128 0xb
 1566 009d 3A       		.uleb128 0x3a
 1567 009e 0B       		.uleb128 0xb
 1568 009f 3B       		.uleb128 0x3b
 1569 00a0 0B       		.uleb128 0xb
 1570 00a1 01       		.uleb128 0x1
 1571 00a2 13       		.uleb128 0x13
 1572 00a3 00       		.byte	0
 1573 00a4 00       		.byte	0
 1574 00a5 0E       		.uleb128 0xe
 1575 00a6 0D       		.uleb128 0xd
 1576 00a7 00       		.byte	0
 1577 00a8 03       		.uleb128 0x3
 1578 00a9 0E       		.uleb128 0xe
 1579 00aa 3A       		.uleb128 0x3a
 1580 00ab 0B       		.uleb128 0xb
 1581 00ac 3B       		.uleb128 0x3b
 1582 00ad 0B       		.uleb128 0xb
 1583 00ae 49       		.uleb128 0x49
 1584 00af 13       		.uleb128 0x13
 1585 00b0 38       		.uleb128 0x38
 1586 00b1 0B       		.uleb128 0xb
 1587 00b2 00       		.byte	0
 1588 00b3 00       		.byte	0
 1589 00b4 0F       		.uleb128 0xf
 1590 00b5 0F       		.uleb128 0xf
 1591 00b6 00       		.byte	0
 1592 00b7 0B       		.uleb128 0xb
 1593 00b8 0B       		.uleb128 0xb
 1594 00b9 00       		.byte	0
 1595 00ba 00       		.byte	0
 1596 00bb 10       		.uleb128 0x10
 1597 00bc 0F       		.uleb128 0xf
 1598 00bd 00       		.byte	0
 1599 00be 0B       		.uleb128 0xb
 1600 00bf 0B       		.uleb128 0xb
 1601 00c0 49       		.uleb128 0x49
 1602 00c1 13       		.uleb128 0x13
 1603 00c2 00       		.byte	0
 1604 00c3 00       		.byte	0
 1605 00c4 11       		.uleb128 0x11
 1606 00c5 26       		.uleb128 0x26
 1607 00c6 00       		.byte	0
 1608 00c7 49       		.uleb128 0x49
 1609 00c8 13       		.uleb128 0x13
 1610 00c9 00       		.byte	0
 1611 00ca 00       		.byte	0
 1612 00cb 12       		.uleb128 0x12
 1613 00cc 13       		.uleb128 0x13
 1614 00cd 01       		.byte	0x1
 1615 00ce 03       		.uleb128 0x3
 1616 00cf 0E       		.uleb128 0xe
 1617 00d0 0B       		.uleb128 0xb
 1618 00d1 0B       		.uleb128 0xb
ARM GAS  /tmp/ccmFQypW.s 			page 30


 1619 00d2 3A       		.uleb128 0x3a
 1620 00d3 0B       		.uleb128 0xb
 1621 00d4 3B       		.uleb128 0x3b
 1622 00d5 0B       		.uleb128 0xb
 1623 00d6 01       		.uleb128 0x1
 1624 00d7 13       		.uleb128 0x13
 1625 00d8 00       		.byte	0
 1626 00d9 00       		.byte	0
 1627 00da 13       		.uleb128 0x13
 1628 00db 0D       		.uleb128 0xd
 1629 00dc 00       		.byte	0
 1630 00dd 03       		.uleb128 0x3
 1631 00de 08       		.uleb128 0x8
 1632 00df 3A       		.uleb128 0x3a
 1633 00e0 0B       		.uleb128 0xb
 1634 00e1 3B       		.uleb128 0x3b
 1635 00e2 0B       		.uleb128 0xb
 1636 00e3 49       		.uleb128 0x49
 1637 00e4 13       		.uleb128 0x13
 1638 00e5 38       		.uleb128 0x38
 1639 00e6 0B       		.uleb128 0xb
 1640 00e7 00       		.byte	0
 1641 00e8 00       		.byte	0
 1642 00e9 14       		.uleb128 0x14
 1643 00ea 13       		.uleb128 0x13
 1644 00eb 01       		.byte	0x1
 1645 00ec 03       		.uleb128 0x3
 1646 00ed 0E       		.uleb128 0xe
 1647 00ee 0B       		.uleb128 0xb
 1648 00ef 05       		.uleb128 0x5
 1649 00f0 3A       		.uleb128 0x3a
 1650 00f1 0B       		.uleb128 0xb
 1651 00f2 3B       		.uleb128 0x3b
 1652 00f3 0B       		.uleb128 0xb
 1653 00f4 01       		.uleb128 0x1
 1654 00f5 13       		.uleb128 0x13
 1655 00f6 00       		.byte	0
 1656 00f7 00       		.byte	0
 1657 00f8 15       		.uleb128 0x15
 1658 00f9 0D       		.uleb128 0xd
 1659 00fa 00       		.byte	0
 1660 00fb 03       		.uleb128 0x3
 1661 00fc 0E       		.uleb128 0xe
 1662 00fd 3A       		.uleb128 0x3a
 1663 00fe 0B       		.uleb128 0xb
 1664 00ff 3B       		.uleb128 0x3b
 1665 0100 0B       		.uleb128 0xb
 1666 0101 49       		.uleb128 0x49
 1667 0102 13       		.uleb128 0x13
 1668 0103 38       		.uleb128 0x38
 1669 0104 05       		.uleb128 0x5
 1670 0105 00       		.byte	0
 1671 0106 00       		.byte	0
 1672 0107 16       		.uleb128 0x16
 1673 0108 15       		.uleb128 0x15
 1674 0109 00       		.byte	0
 1675 010a 27       		.uleb128 0x27
ARM GAS  /tmp/ccmFQypW.s 			page 31


 1676 010b 19       		.uleb128 0x19
 1677 010c 00       		.byte	0
 1678 010d 00       		.byte	0
 1679 010e 17       		.uleb128 0x17
 1680 010f 15       		.uleb128 0x15
 1681 0110 01       		.byte	0x1
 1682 0111 27       		.uleb128 0x27
 1683 0112 19       		.uleb128 0x19
 1684 0113 49       		.uleb128 0x49
 1685 0114 13       		.uleb128 0x13
 1686 0115 01       		.uleb128 0x1
 1687 0116 13       		.uleb128 0x13
 1688 0117 00       		.byte	0
 1689 0118 00       		.byte	0
 1690 0119 18       		.uleb128 0x18
 1691 011a 05       		.uleb128 0x5
 1692 011b 00       		.byte	0
 1693 011c 49       		.uleb128 0x49
 1694 011d 13       		.uleb128 0x13
 1695 011e 00       		.byte	0
 1696 011f 00       		.byte	0
 1697 0120 19       		.uleb128 0x19
 1698 0121 13       		.uleb128 0x13
 1699 0122 01       		.byte	0x1
 1700 0123 03       		.uleb128 0x3
 1701 0124 0E       		.uleb128 0xe
 1702 0125 0B       		.uleb128 0xb
 1703 0126 05       		.uleb128 0x5
 1704 0127 3A       		.uleb128 0x3a
 1705 0128 0B       		.uleb128 0xb
 1706 0129 3B       		.uleb128 0x3b
 1707 012a 05       		.uleb128 0x5
 1708 012b 01       		.uleb128 0x1
 1709 012c 13       		.uleb128 0x13
 1710 012d 00       		.byte	0
 1711 012e 00       		.byte	0
 1712 012f 1A       		.uleb128 0x1a
 1713 0130 0D       		.uleb128 0xd
 1714 0131 00       		.byte	0
 1715 0132 03       		.uleb128 0x3
 1716 0133 0E       		.uleb128 0xe
 1717 0134 3A       		.uleb128 0x3a
 1718 0135 0B       		.uleb128 0xb
 1719 0136 3B       		.uleb128 0x3b
 1720 0137 05       		.uleb128 0x5
 1721 0138 49       		.uleb128 0x49
 1722 0139 13       		.uleb128 0x13
 1723 013a 38       		.uleb128 0x38
 1724 013b 0B       		.uleb128 0xb
 1725 013c 00       		.byte	0
 1726 013d 00       		.byte	0
 1727 013e 1B       		.uleb128 0x1b
 1728 013f 0D       		.uleb128 0xd
 1729 0140 00       		.byte	0
 1730 0141 03       		.uleb128 0x3
 1731 0142 0E       		.uleb128 0xe
 1732 0143 3A       		.uleb128 0x3a
ARM GAS  /tmp/ccmFQypW.s 			page 32


 1733 0144 0B       		.uleb128 0xb
 1734 0145 3B       		.uleb128 0x3b
 1735 0146 05       		.uleb128 0x5
 1736 0147 49       		.uleb128 0x49
 1737 0148 13       		.uleb128 0x13
 1738 0149 38       		.uleb128 0x38
 1739 014a 05       		.uleb128 0x5
 1740 014b 00       		.byte	0
 1741 014c 00       		.byte	0
 1742 014d 1C       		.uleb128 0x1c
 1743 014e 13       		.uleb128 0x13
 1744 014f 01       		.byte	0x1
 1745 0150 03       		.uleb128 0x3
 1746 0151 0E       		.uleb128 0xe
 1747 0152 0B       		.uleb128 0xb
 1748 0153 0B       		.uleb128 0xb
 1749 0154 3A       		.uleb128 0x3a
 1750 0155 0B       		.uleb128 0xb
 1751 0156 3B       		.uleb128 0x3b
 1752 0157 05       		.uleb128 0x5
 1753 0158 01       		.uleb128 0x1
 1754 0159 13       		.uleb128 0x13
 1755 015a 00       		.byte	0
 1756 015b 00       		.byte	0
 1757 015c 1D       		.uleb128 0x1d
 1758 015d 13       		.uleb128 0x13
 1759 015e 01       		.byte	0x1
 1760 015f 0B       		.uleb128 0xb
 1761 0160 0B       		.uleb128 0xb
 1762 0161 3A       		.uleb128 0x3a
 1763 0162 0B       		.uleb128 0xb
 1764 0163 3B       		.uleb128 0x3b
 1765 0164 05       		.uleb128 0x5
 1766 0165 01       		.uleb128 0x1
 1767 0166 13       		.uleb128 0x13
 1768 0167 00       		.byte	0
 1769 0168 00       		.byte	0
 1770 0169 1E       		.uleb128 0x1e
 1771 016a 17       		.uleb128 0x17
 1772 016b 01       		.byte	0x1
 1773 016c 0B       		.uleb128 0xb
 1774 016d 0B       		.uleb128 0xb
 1775 016e 3A       		.uleb128 0x3a
 1776 016f 0B       		.uleb128 0xb
 1777 0170 3B       		.uleb128 0x3b
 1778 0171 05       		.uleb128 0x5
 1779 0172 01       		.uleb128 0x1
 1780 0173 13       		.uleb128 0x13
 1781 0174 00       		.byte	0
 1782 0175 00       		.byte	0
 1783 0176 1F       		.uleb128 0x1f
 1784 0177 0D       		.uleb128 0xd
 1785 0178 00       		.byte	0
 1786 0179 03       		.uleb128 0x3
 1787 017a 0E       		.uleb128 0xe
 1788 017b 3A       		.uleb128 0x3a
 1789 017c 0B       		.uleb128 0xb
ARM GAS  /tmp/ccmFQypW.s 			page 33


 1790 017d 3B       		.uleb128 0x3b
 1791 017e 05       		.uleb128 0x5
 1792 017f 49       		.uleb128 0x49
 1793 0180 13       		.uleb128 0x13
 1794 0181 00       		.byte	0
 1795 0182 00       		.byte	0
 1796 0183 20       		.uleb128 0x20
 1797 0184 15       		.uleb128 0x15
 1798 0185 01       		.byte	0x1
 1799 0186 27       		.uleb128 0x27
 1800 0187 19       		.uleb128 0x19
 1801 0188 01       		.uleb128 0x1
 1802 0189 13       		.uleb128 0x13
 1803 018a 00       		.byte	0
 1804 018b 00       		.byte	0
 1805 018c 21       		.uleb128 0x21
 1806 018d 04       		.uleb128 0x4
 1807 018e 01       		.byte	0x1
 1808 018f 03       		.uleb128 0x3
 1809 0190 0E       		.uleb128 0xe
 1810 0191 0B       		.uleb128 0xb
 1811 0192 0B       		.uleb128 0xb
 1812 0193 49       		.uleb128 0x49
 1813 0194 13       		.uleb128 0x13
 1814 0195 3A       		.uleb128 0x3a
 1815 0196 0B       		.uleb128 0xb
 1816 0197 3B       		.uleb128 0x3b
 1817 0198 05       		.uleb128 0x5
 1818 0199 01       		.uleb128 0x1
 1819 019a 13       		.uleb128 0x13
 1820 019b 00       		.byte	0
 1821 019c 00       		.byte	0
 1822 019d 22       		.uleb128 0x22
 1823 019e 28       		.uleb128 0x28
 1824 019f 00       		.byte	0
 1825 01a0 03       		.uleb128 0x3
 1826 01a1 0E       		.uleb128 0xe
 1827 01a2 1C       		.uleb128 0x1c
 1828 01a3 0D       		.uleb128 0xd
 1829 01a4 00       		.byte	0
 1830 01a5 00       		.byte	0
 1831 01a6 23       		.uleb128 0x23
 1832 01a7 28       		.uleb128 0x28
 1833 01a8 00       		.byte	0
 1834 01a9 03       		.uleb128 0x3
 1835 01aa 0E       		.uleb128 0xe
 1836 01ab 1C       		.uleb128 0x1c
 1837 01ac 0B       		.uleb128 0xb
 1838 01ad 00       		.byte	0
 1839 01ae 00       		.byte	0
 1840 01af 24       		.uleb128 0x24
 1841 01b0 21       		.uleb128 0x21
 1842 01b1 00       		.byte	0
 1843 01b2 00       		.byte	0
 1844 01b3 00       		.byte	0
 1845 01b4 25       		.uleb128 0x25
 1846 01b5 2E       		.uleb128 0x2e
ARM GAS  /tmp/ccmFQypW.s 			page 34


 1847 01b6 01       		.byte	0x1
 1848 01b7 3F       		.uleb128 0x3f
 1849 01b8 19       		.uleb128 0x19
 1850 01b9 03       		.uleb128 0x3
 1851 01ba 0E       		.uleb128 0xe
 1852 01bb 3A       		.uleb128 0x3a
 1853 01bc 0B       		.uleb128 0xb
 1854 01bd 3B       		.uleb128 0x3b
 1855 01be 0B       		.uleb128 0xb
 1856 01bf 27       		.uleb128 0x27
 1857 01c0 19       		.uleb128 0x19
 1858 01c1 49       		.uleb128 0x49
 1859 01c2 13       		.uleb128 0x13
 1860 01c3 11       		.uleb128 0x11
 1861 01c4 01       		.uleb128 0x1
 1862 01c5 12       		.uleb128 0x12
 1863 01c6 06       		.uleb128 0x6
 1864 01c7 40       		.uleb128 0x40
 1865 01c8 18       		.uleb128 0x18
 1866 01c9 9642     		.uleb128 0x2116
 1867 01cb 19       		.uleb128 0x19
 1868 01cc 01       		.uleb128 0x1
 1869 01cd 13       		.uleb128 0x13
 1870 01ce 00       		.byte	0
 1871 01cf 00       		.byte	0
 1872 01d0 26       		.uleb128 0x26
 1873 01d1 34       		.uleb128 0x34
 1874 01d2 00       		.byte	0
 1875 01d3 03       		.uleb128 0x3
 1876 01d4 0E       		.uleb128 0xe
 1877 01d5 3A       		.uleb128 0x3a
 1878 01d6 0B       		.uleb128 0xb
 1879 01d7 3B       		.uleb128 0x3b
 1880 01d8 0B       		.uleb128 0xb
 1881 01d9 49       		.uleb128 0x49
 1882 01da 13       		.uleb128 0x13
 1883 01db 02       		.uleb128 0x2
 1884 01dc 18       		.uleb128 0x18
 1885 01dd 00       		.byte	0
 1886 01de 00       		.byte	0
 1887 01df 27       		.uleb128 0x27
 1888 01e0 898201   		.uleb128 0x4109
 1889 01e3 00       		.byte	0
 1890 01e4 11       		.uleb128 0x11
 1891 01e5 01       		.uleb128 0x1
 1892 01e6 31       		.uleb128 0x31
 1893 01e7 13       		.uleb128 0x13
 1894 01e8 00       		.byte	0
 1895 01e9 00       		.byte	0
 1896 01ea 28       		.uleb128 0x28
 1897 01eb 898201   		.uleb128 0x4109
 1898 01ee 01       		.byte	0x1
 1899 01ef 11       		.uleb128 0x11
 1900 01f0 01       		.uleb128 0x1
 1901 01f1 31       		.uleb128 0x31
 1902 01f2 13       		.uleb128 0x13
 1903 01f3 01       		.uleb128 0x1
ARM GAS  /tmp/ccmFQypW.s 			page 35


 1904 01f4 13       		.uleb128 0x13
 1905 01f5 00       		.byte	0
 1906 01f6 00       		.byte	0
 1907 01f7 29       		.uleb128 0x29
 1908 01f8 8A8201   		.uleb128 0x410a
 1909 01fb 00       		.byte	0
 1910 01fc 02       		.uleb128 0x2
 1911 01fd 18       		.uleb128 0x18
 1912 01fe 9142     		.uleb128 0x2111
 1913 0200 18       		.uleb128 0x18
 1914 0201 00       		.byte	0
 1915 0202 00       		.byte	0
 1916 0203 2A       		.uleb128 0x2a
 1917 0204 898201   		.uleb128 0x4109
 1918 0207 01       		.byte	0x1
 1919 0208 11       		.uleb128 0x11
 1920 0209 01       		.uleb128 0x1
 1921 020a 31       		.uleb128 0x31
 1922 020b 13       		.uleb128 0x13
 1923 020c 00       		.byte	0
 1924 020d 00       		.byte	0
 1925 020e 2B       		.uleb128 0x2b
 1926 020f 2E       		.uleb128 0x2e
 1927 0210 00       		.byte	0
 1928 0211 3F       		.uleb128 0x3f
 1929 0212 19       		.uleb128 0x19
 1930 0213 3C       		.uleb128 0x3c
 1931 0214 19       		.uleb128 0x19
 1932 0215 6E       		.uleb128 0x6e
 1933 0216 0E       		.uleb128 0xe
 1934 0217 03       		.uleb128 0x3
 1935 0218 0E       		.uleb128 0xe
 1936 0219 3A       		.uleb128 0x3a
 1937 021a 0B       		.uleb128 0xb
 1938 021b 3B       		.uleb128 0x3b
 1939 021c 0B       		.uleb128 0xb
 1940 021d 00       		.byte	0
 1941 021e 00       		.byte	0
 1942 021f 00       		.byte	0
 1943              		.section	.debug_aranges,"",%progbits
 1944 0000 1C000000 		.4byte	0x1c
 1945 0004 0200     		.2byte	0x2
 1946 0006 00000000 		.4byte	.Ldebug_info0
 1947 000a 04       		.byte	0x4
 1948 000b 00       		.byte	0
 1949 000c 0000     		.2byte	0
 1950 000e 0000     		.2byte	0
 1951 0010 00000000 		.4byte	.Ltext0
 1952 0014 98000000 		.4byte	.Letext0-.Ltext0
 1953 0018 00000000 		.4byte	0
 1954 001c 00000000 		.4byte	0
 1955              		.section	.debug_line,"",%progbits
 1956              	.Ldebug_line0:
 1957 0000 2B020000 		.section	.debug_str,"MS",%progbits,1
 1957      0200F501 
 1957      00000201 
 1957      FB0E0D00 
ARM GAS  /tmp/ccmFQypW.s 			page 36


 1957      01010101 
 1958              	.LASF46:
 1959 0000 5F64736F 		.ascii	"_dso_handle\000"
 1959      5F68616E 
 1959      646C6500 
 1960              	.LASF2:
 1961 000c 73686F72 		.ascii	"short int\000"
 1961      7420696E 
 1961      7400
 1962              	.LASF134:
 1963 0016 5F737973 		.ascii	"_sys_errlist\000"
 1963      5F657272 
 1963      6C697374 
 1963      00
 1964              	.LASF45:
 1965 0023 5F666E61 		.ascii	"_fnargs\000"
 1965      72677300 
 1966              	.LASF98:
 1967 002b 5F72616E 		.ascii	"_rand48\000"
 1967      64343800 
 1968              	.LASF131:
 1969 0033 5F5F6664 		.ascii	"__fdlibm_xopen\000"
 1969      6C69626D 
 1969      5F786F70 
 1969      656E00
 1970              	.LASF78:
 1971 0042 5F656D65 		.ascii	"_emergency\000"
 1971      7267656E 
 1971      637900
 1972              	.LASF90:
 1973 004d 5F617465 		.ascii	"_atexit0\000"
 1973      78697430 
 1973      00
 1974              	.LASF118:
 1975 0056 5F776372 		.ascii	"_wcrtomb_state\000"
 1975      746F6D62 
 1975      5F737461 
 1975      746500
 1976              	.LASF119:
 1977 0065 5F776373 		.ascii	"_wcsrtombs_state\000"
 1977      72746F6D 
 1977      62735F73 
 1977      74617465 
 1977      00
 1978              	.LASF9:
 1979 0076 6C6F6E67 		.ascii	"long long unsigned int\000"
 1979      206C6F6E 
 1979      6720756E 
 1979      7369676E 
 1979      65642069 
 1980              	.LASF132:
 1981 008d 5F5F6664 		.ascii	"__fdlibm_posix\000"
 1981      6C69626D 
 1981      5F706F73 
 1981      697800
 1982              	.LASF58:
 1983 009c 5F6C6266 		.ascii	"_lbfsize\000"
ARM GAS  /tmp/ccmFQypW.s 			page 37


 1983      73697A65 
 1983      00
 1984              	.LASF14:
 1985 00a5 49544D5F 		.ascii	"ITM_RxBuffer\000"
 1985      52784275 
 1985      66666572 
 1985      00
 1986              	.LASF133:
 1987 00b2 5F5F6664 		.ascii	"__fdlib_version\000"
 1987      6C69625F 
 1987      76657273 
 1987      696F6E00 
 1988              	.LASF116:
 1989 00c2 5F6D6272 		.ascii	"_mbrtowc_state\000"
 1989      746F7763 
 1989      5F737461 
 1989      746500
 1990              	.LASF111:
 1991 00d1 5F776374 		.ascii	"_wctomb_state\000"
 1991      6F6D625F 
 1991      73746174 
 1991      6500
 1992              	.LASF35:
 1993 00df 5F5F746D 		.ascii	"__tm_sec\000"
 1993      5F736563 
 1993      00
 1994              	.LASF18:
 1995 00e8 5F6F6666 		.ascii	"_off_t\000"
 1995      5F7400
 1996              	.LASF63:
 1997 00ef 5F636C6F 		.ascii	"_close\000"
 1997      736500
 1998              	.LASF0:
 1999 00f6 7369676E 		.ascii	"signed char\000"
 1999      65642063 
 1999      68617200 
 2000              	.LASF64:
 2001 0102 5F756275 		.ascii	"_ubuf\000"
 2001      6600
 2002              	.LASF53:
 2003 0108 5F626173 		.ascii	"_base\000"
 2003      6500
 2004              	.LASF37:
 2005 010e 5F5F746D 		.ascii	"__tm_hour\000"
 2005      5F686F75 
 2005      7200
 2006              	.LASF93:
 2007 0118 5F5F7366 		.ascii	"__sf\000"
 2007      00
 2008              	.LASF44:
 2009 011d 5F6F6E5F 		.ascii	"_on_exit_args\000"
 2009      65786974 
 2009      5F617267 
 2009      7300
 2010              	.LASF59:
 2011 012b 5F636F6F 		.ascii	"_cookie\000"
 2011      6B696500 
ARM GAS  /tmp/ccmFQypW.s 			page 38


 2012              	.LASF92:
 2013 0133 5F5F7367 		.ascii	"__sglue\000"
 2013      6C756500 
 2014              	.LASF4:
 2015 013b 6C6F6E67 		.ascii	"long int\000"
 2015      20696E74 
 2015      00
 2016              	.LASF138:
 2017 0144 44656C61 		.ascii	"DelayInit\000"
 2017      79496E69 
 2017      7400
 2018              	.LASF56:
 2019 014e 5F666C61 		.ascii	"_flags\000"
 2019      677300
 2020              	.LASF48:
 2021 0155 5F69735F 		.ascii	"_is_cxa\000"
 2021      63786100 
 2022              	.LASF74:
 2023 015d 5F737464 		.ascii	"_stdin\000"
 2023      696E00
 2024              	.LASF130:
 2025 0164 5F5F6664 		.ascii	"__fdlibm_svid\000"
 2025      6C69626D 
 2025      5F737669 
 2025      6400
 2026              	.LASF84:
 2027 0172 5F726573 		.ascii	"_result_k\000"
 2027      756C745F 
 2027      6B00
 2028              	.LASF8:
 2029 017c 6C6F6E67 		.ascii	"long long int\000"
 2029      206C6F6E 
 2029      6720696E 
 2029      7400
 2030              	.LASF137:
 2031 018a 55736572 		.ascii	"UserInit\000"
 2031      496E6974 
 2031      00
 2032              	.LASF127:
 2033 0193 646F7562 		.ascii	"double\000"
 2033      6C6500
 2034              	.LASF88:
 2035 019a 5F637674 		.ascii	"_cvtbuf\000"
 2035      62756600 
 2036              	.LASF67:
 2037 01a2 5F6F6666 		.ascii	"_offset\000"
 2037      73657400 
 2038              	.LASF117:
 2039 01aa 5F6D6273 		.ascii	"_mbsrtowcs_state\000"
 2039      72746F77 
 2039      63735F73 
 2039      74617465 
 2039      00
 2040              	.LASF144:
 2041 01bb 70726F6A 		.ascii	"project/main.c\000"
 2041      6563742F 
 2041      6D61696E 
ARM GAS  /tmp/ccmFQypW.s 			page 39


 2041      2E6300
 2042              	.LASF115:
 2043 01ca 5F6D6272 		.ascii	"_mbrlen_state\000"
 2043      6C656E5F 
 2043      73746174 
 2043      6500
 2044              	.LASF51:
 2045 01d8 5F666E73 		.ascii	"_fns\000"
 2045      00
 2046              	.LASF6:
 2047 01dd 5F5F7569 		.ascii	"__uint32_t\000"
 2047      6E743332 
 2047      5F7400
 2048              	.LASF31:
 2049 01e8 5F736967 		.ascii	"_sign\000"
 2049      6E00
 2050              	.LASF124:
 2051 01ee 5F696D70 		.ascii	"_impure_ptr\000"
 2051      7572655F 
 2051      70747200 
 2052              	.LASF76:
 2053 01fa 5F737464 		.ascii	"_stderr\000"
 2053      65727200 
 2054              	.LASF33:
 2055 0202 5F426967 		.ascii	"_Bigint\000"
 2055      696E7400 
 2056              	.LASF60:
 2057 020a 5F726561 		.ascii	"_read\000"
 2057      6400
 2058              	.LASF34:
 2059 0210 5F5F746D 		.ascii	"__tm\000"
 2059      00
 2060              	.LASF141:
 2061 0215 6D797072 		.ascii	"myprintf\000"
 2061      696E7466 
 2061      00
 2062              	.LASF22:
 2063 021e 5F5F7763 		.ascii	"__wchb\000"
 2063      686200
 2064              	.LASF15:
 2065 0225 53797374 		.ascii	"SystemCoreClock\000"
 2065      656D436F 
 2065      7265436C 
 2065      6F636B00 
 2066              	.LASF75:
 2067 0235 5F737464 		.ascii	"_stdout\000"
 2067      6F757400 
 2068              	.LASF87:
 2069 023d 5F637674 		.ascii	"_cvtlen\000"
 2069      6C656E00 
 2070              	.LASF7:
 2071 0245 6C6F6E67 		.ascii	"long unsigned int\000"
 2071      20756E73 
 2071      69676E65 
 2071      6420696E 
 2071      7400
 2072              	.LASF57:
ARM GAS  /tmp/ccmFQypW.s 			page 40


 2073 0257 5F66696C 		.ascii	"_file\000"
 2073      6500
 2074              	.LASF68:
 2075 025d 5F646174 		.ascii	"_data\000"
 2075      6100
 2076              	.LASF96:
 2077 0263 5F6E696F 		.ascii	"_niobs\000"
 2077      627300
 2078              	.LASF107:
 2079 026a 5F72616E 		.ascii	"_rand_next\000"
 2079      645F6E65 
 2079      787400
 2080              	.LASF113:
 2081 0275 5F736967 		.ascii	"_signal_buf\000"
 2081      6E616C5F 
 2081      62756600 
 2082              	.LASF104:
 2083 0281 5F617363 		.ascii	"_asctime_buf\000"
 2083      74696D65 
 2083      5F627566 
 2083      00
 2084              	.LASF83:
 2085 028e 5F726573 		.ascii	"_result\000"
 2085      756C7400 
 2086              	.LASF21:
 2087 0296 5F5F7763 		.ascii	"__wch\000"
 2087      6800
 2088              	.LASF139:
 2089 029c 67657441 		.ascii	"getAttitude\000"
 2089      74746974 
 2089      75646500 
 2090              	.LASF89:
 2091 02a8 5F6E6577 		.ascii	"_new\000"
 2091      00
 2092              	.LASF69:
 2093 02ad 5F6C6F63 		.ascii	"_lock\000"
 2093      6B00
 2094              	.LASF148:
 2095 02b3 41636365 		.ascii	"AccelGyro\000"
 2095      6C477972 
 2095      6F00
 2096              	.LASF100:
 2097 02bd 5F6D756C 		.ascii	"_mult\000"
 2097      7400
 2098              	.LASF61:
 2099 02c3 5F777269 		.ascii	"_write\000"
 2099      746500
 2100              	.LASF40:
 2101 02ca 5F5F746D 		.ascii	"__tm_year\000"
 2101      5F796561 
 2101      7200
 2102              	.LASF13:
 2103 02d4 73697A65 		.ascii	"sizetype\000"
 2103      74797065 
 2103      00
 2104              	.LASF121:
 2105 02dd 5F6E6578 		.ascii	"_nextf\000"
ARM GAS  /tmp/ccmFQypW.s 			page 41


 2105      746600
 2106              	.LASF108:
 2107 02e4 5F723438 		.ascii	"_r48\000"
 2107      00
 2108              	.LASF39:
 2109 02e9 5F5F746D 		.ascii	"__tm_mon\000"
 2109      5F6D6F6E 
 2109      00
 2110              	.LASF49:
 2111 02f2 5F617465 		.ascii	"_atexit\000"
 2111      78697400 
 2112              	.LASF126:
 2113 02fa 7375626F 		.ascii	"suboptarg\000"
 2113      70746172 
 2113      6700
 2114              	.LASF81:
 2115 0304 5F5F7364 		.ascii	"__sdidinit\000"
 2115      6964696E 
 2115      697400
 2116              	.LASF106:
 2117 030f 5F67616D 		.ascii	"_gamma_signgam\000"
 2117      6D615F73 
 2117      69676E67 
 2117      616D00
 2118              	.LASF20:
 2119 031e 77696E74 		.ascii	"wint_t\000"
 2119      5F7400
 2120              	.LASF128:
 2121 0325 666C6F61 		.ascii	"float\000"
 2121      7400
 2122              	.LASF86:
 2123 032b 5F667265 		.ascii	"_freelist\000"
 2123      656C6973 
 2123      7400
 2124              	.LASF17:
 2125 0335 5F4C4F43 		.ascii	"_LOCK_RECURSIVE_T\000"
 2125      4B5F5245 
 2125      43555253 
 2125      4956455F 
 2125      5400
 2126              	.LASF136:
 2127 0347 53797374 		.ascii	"SystemInit\000"
 2127      656D496E 
 2127      697400
 2128              	.LASF11:
 2129 0352 696E7433 		.ascii	"int32_t\000"
 2129      325F7400 
 2130              	.LASF1:
 2131 035a 756E7369 		.ascii	"unsigned char\000"
 2131      676E6564 
 2131      20636861 
 2131      7200
 2132              	.LASF145:
 2133 0368 2F686F6D 		.ascii	"/home/faker/Documents/code/STM/stm32-quadrocopter\000"
 2133      652F6661 
 2133      6B65722F 
 2133      446F6375 
ARM GAS  /tmp/ccmFQypW.s 			page 42


 2133      6D656E74 
 2134              	.LASF120:
 2135 039a 5F685F65 		.ascii	"_h_errno\000"
 2135      72726E6F 
 2135      00
 2136              	.LASF26:
 2137 03a3 5F666C6F 		.ascii	"_flock_t\000"
 2137      636B5F74 
 2137      00
 2138              	.LASF42:
 2139 03ac 5F5F746D 		.ascii	"__tm_yday\000"
 2139      5F796461 
 2139      7900
 2140              	.LASF52:
 2141 03b6 5F5F7362 		.ascii	"__sbuf\000"
 2141      756600
 2142              	.LASF71:
 2143 03bd 5F666C61 		.ascii	"_flags2\000"
 2143      67733200 
 2144              	.LASF97:
 2145 03c5 5F696F62 		.ascii	"_iobs\000"
 2145      7300
 2146              	.LASF94:
 2147 03cb 5F5F4649 		.ascii	"__FILE\000"
 2147      4C4500
 2148              	.LASF25:
 2149 03d2 5F6D6273 		.ascii	"_mbstate_t\000"
 2149      74617465 
 2149      5F7400
 2150              	.LASF55:
 2151 03dd 5F5F7346 		.ascii	"__sFILE\000"
 2151      494C4500 
 2152              	.LASF135:
 2153 03e5 5F737973 		.ascii	"_sys_nerr\000"
 2153      5F6E6572 
 2153      7200
 2154              	.LASF70:
 2155 03ef 5F6D6273 		.ascii	"_mbstate\000"
 2155      74617465 
 2155      00
 2156              	.LASF142:
 2157 03f8 44656C61 		.ascii	"DelayMs\000"
 2157      794D7300 
 2158              	.LASF109:
 2159 0400 5F6D626C 		.ascii	"_mblen_state\000"
 2159      656E5F73 
 2159      74617465 
 2159      00
 2160              	.LASF77:
 2161 040d 5F696E63 		.ascii	"_inc\000"
 2161      00
 2162              	.LASF50:
 2163 0412 5F696E64 		.ascii	"_ind\000"
 2163      00
 2164              	.LASF80:
 2165 0417 5F637572 		.ascii	"_current_locale\000"
 2165      72656E74 
ARM GAS  /tmp/ccmFQypW.s 			page 43


 2165      5F6C6F63 
 2165      616C6500 
 2166              	.LASF82:
 2167 0427 5F5F636C 		.ascii	"__cleanup\000"
 2167      65616E75 
 2167      7000
 2168              	.LASF30:
 2169 0431 5F6D6178 		.ascii	"_maxwds\000"
 2169      77647300 
 2170              	.LASF72:
 2171 0439 5F726565 		.ascii	"_reent\000"
 2171      6E7400
 2172              	.LASF99:
 2173 0440 5F736565 		.ascii	"_seed\000"
 2173      6400
 2174              	.LASF23:
 2175 0446 5F5F636F 		.ascii	"__count\000"
 2175      756E7400 
 2176              	.LASF24:
 2177 044e 5F5F7661 		.ascii	"__value\000"
 2177      6C756500 
 2178              	.LASF62:
 2179 0456 5F736565 		.ascii	"_seek\000"
 2179      6B00
 2180              	.LASF41:
 2181 045c 5F5F746D 		.ascii	"__tm_wday\000"
 2181      5F776461 
 2181      7900
 2182              	.LASF19:
 2183 0466 5F66706F 		.ascii	"_fpos_t\000"
 2183      735F7400 
 2184              	.LASF16:
 2185 046e 6C6F6E67 		.ascii	"long double\000"
 2185      20646F75 
 2185      626C6500 
 2186              	.LASF73:
 2187 047a 5F657272 		.ascii	"_errno\000"
 2187      6E6F00
 2188              	.LASF27:
 2189 0481 63686172 		.ascii	"char\000"
 2189      00
 2190              	.LASF66:
 2191 0486 5F626C6B 		.ascii	"_blksize\000"
 2191      73697A65 
 2191      00
 2192              	.LASF54:
 2193 048f 5F73697A 		.ascii	"_size\000"
 2193      6500
 2194              	.LASF10:
 2195 0495 756E7369 		.ascii	"unsigned int\000"
 2195      676E6564 
 2195      20696E74 
 2195      00
 2196              	.LASF5:
 2197 04a2 5F5F696E 		.ascii	"__int32_t\000"
 2197      7433325F 
 2197      7400
ARM GAS  /tmp/ccmFQypW.s 			page 44


 2198              	.LASF29:
 2199 04ac 5F6E6578 		.ascii	"_next\000"
 2199      7400
 2200              	.LASF103:
 2201 04b2 5F737472 		.ascii	"_strtok_last\000"
 2201      746F6B5F 
 2201      6C617374 
 2201      00
 2202              	.LASF47:
 2203 04bf 5F666E74 		.ascii	"_fntypes\000"
 2203      79706573 
 2203      00
 2204              	.LASF3:
 2205 04c8 73686F72 		.ascii	"short unsigned int\000"
 2205      7420756E 
 2205      7369676E 
 2205      65642069 
 2205      6E7400
 2206              	.LASF101:
 2207 04db 5F616464 		.ascii	"_add\000"
 2207      00
 2208              	.LASF28:
 2209 04e0 5F5F554C 		.ascii	"__ULong\000"
 2209      6F6E6700 
 2210              	.LASF114:
 2211 04e8 5F676574 		.ascii	"_getdate_err\000"
 2211      64617465 
 2211      5F657272 
 2211      00
 2212              	.LASF146:
 2213 04f5 5F5F6664 		.ascii	"__fdlibm_version\000"
 2213      6C69626D 
 2213      5F766572 
 2213      73696F6E 
 2213      00
 2214              	.LASF125:
 2215 0506 5F676C6F 		.ascii	"_global_impure_ptr\000"
 2215      62616C5F 
 2215      696D7075 
 2215      72655F70 
 2215      747200
 2216              	.LASF79:
 2217 0519 5F637572 		.ascii	"_current_category\000"
 2217      72656E74 
 2217      5F636174 
 2217      65676F72 
 2217      7900
 2218              	.LASF129:
 2219 052b 5F5F6664 		.ascii	"__fdlibm_ieee\000"
 2219      6C69626D 
 2219      5F696565 
 2219      6500
 2220              	.LASF140:
 2221 0539 48435352 		.ascii	"HCSR04_Get\000"
 2221      30345F47 
 2221      657400
 2222              	.LASF102:
ARM GAS  /tmp/ccmFQypW.s 			page 45


 2223 0544 5F756E75 		.ascii	"_unused_rand\000"
 2223      7365645F 
 2223      72616E64 
 2223      00
 2224              	.LASF32:
 2225 0551 5F776473 		.ascii	"_wds\000"
 2225      00
 2226              	.LASF95:
 2227 0556 5F676C75 		.ascii	"_glue\000"
 2227      6500
 2228              	.LASF122:
 2229 055c 5F6E6D61 		.ascii	"_nmalloc\000"
 2229      6C6C6F63 
 2229      00
 2230              	.LASF112:
 2231 0565 5F6C3634 		.ascii	"_l64a_buf\000"
 2231      615F6275 
 2231      6600
 2232              	.LASF91:
 2233 056f 5F736967 		.ascii	"_sig_func\000"
 2233      5F66756E 
 2233      6300
 2234              	.LASF65:
 2235 0579 5F6E6275 		.ascii	"_nbuf\000"
 2235      6600
 2236              	.LASF123:
 2237 057f 5F756E75 		.ascii	"_unused\000"
 2237      73656400 
 2238              	.LASF43:
 2239 0587 5F5F746D 		.ascii	"__tm_isdst\000"
 2239      5F697364 
 2239      737400
 2240              	.LASF105:
 2241 0592 5F6C6F63 		.ascii	"_localtime_buf\000"
 2241      616C7469 
 2241      6D655F62 
 2241      756600
 2242              	.LASF36:
 2243 05a1 5F5F746D 		.ascii	"__tm_min\000"
 2243      5F6D696E 
 2243      00
 2244              	.LASF143:
 2245 05aa 474E5520 		.ascii	"GNU C11 6.1.1 20160526 -mcpu=cortex-m3 -mthumb -g -"
 2245      43313120 
 2245      362E312E 
 2245      31203230 
 2245      31363035 
 2246 05dd 4F31202D 		.ascii	"O1 -fno-common\000"
 2246      666E6F2D 
 2246      636F6D6D 
 2246      6F6E00
 2247              	.LASF110:
 2248 05ec 5F6D6274 		.ascii	"_mbtowc_state\000"
 2248      6F77635F 
 2248      73746174 
 2248      6500
 2249              	.LASF85:
ARM GAS  /tmp/ccmFQypW.s 			page 46


 2250 05fa 5F703573 		.ascii	"_p5s\000"
 2250      00
 2251              	.LASF147:
 2252 05ff 6D61696E 		.ascii	"main\000"
 2252      00
 2253              	.LASF12:
 2254 0604 75696E74 		.ascii	"uint32_t\000"
 2254      33325F74 
 2254      00
 2255              	.LASF38:
 2256 060d 5F5F746D 		.ascii	"__tm_mday\000"
 2256      5F6D6461 
 2256      7900
 2257              		.ident	"GCC: (Arch Repository) 6.1.1 20160526"
ARM GAS  /tmp/ccmFQypW.s 			page 47


DEFINED SYMBOLS
                            *ABS*:0000000000000000 main.c
     /tmp/ccmFQypW.s:16     .text:0000000000000000 $t
     /tmp/ccmFQypW.s:23     .text:0000000000000000 main
     /tmp/ccmFQypW.s:114    .text:000000000000008c $d
     /tmp/ccmFQypW.s:121    .rodata.str1.4:0000000000000000 $d
                     .debug_frame:0000000000000010 $d

UNDEFINED SYMBOLS
__aeabi_f2d
SystemInit
UserInit
DelayInit
getAttitude
HCSR04_Get
myprintf
DelayMs
