ARM GAS  /tmp/ccBGe30t.s 			page 1


   1              		.cpu cortex-m3
   2              		.eabi_attribute 20, 1
   3              		.eabi_attribute 21, 1
   4              		.eabi_attribute 23, 3
   5              		.eabi_attribute 24, 1
   6              		.eabi_attribute 25, 1
   7              		.eabi_attribute 26, 1
   8              		.eabi_attribute 30, 1
   9              		.eabi_attribute 34, 1
  10              		.eabi_attribute 18, 4
  11              		.file	"main.c"
  12              		.text
  13              	.Ltext0:
  14              		.cfi_sections	.debug_frame
  15              		.align	1
  16              		.global	main
  17              		.syntax unified
  18              		.thumb
  19              		.thumb_func
  20              		.fpu softvfp
  21              		.type	main, %function
  22              	main:
  23              	.LFB64:
  24              		.file 1 "project/main.c"
   1:project/main.c **** /**
   2:project/main.c ****  * STM32F103C8 Quadrocopter
   3:project/main.c ****  */
   4:project/main.c **** #include "tools.h"
   5:project/main.c **** #include "conf.h"
   6:project/main.c **** #include "MPU6050.h"
   7:project/main.c **** 
   8:project/main.c **** /* Exported constants --------------------------------------------------------*/
   9:project/main.c **** 
  10:project/main.c **** 
  11:project/main.c **** int main(void)
  12:project/main.c **** {
  25              		.loc 1 12 0
  26              		.cfi_startproc
  27              		@ Volatile: function does not return.
  28              		@ args = 0, pretend = 0, frame = 16
  29              		@ frame_needed = 0, uses_anonymous_args = 0
  30 0000 00B5     		push	{lr}
  31              		.cfi_def_cfa_offset 4
  32              		.cfi_offset 14, -4
  33 0002 85B0     		sub	sp, sp, #20
  34              		.cfi_def_cfa_offset 24
  13:project/main.c ****   int16_t AccelGyro[8];
  14:project/main.c ****   SystemInit();
  35              		.loc 1 14 0
  36 0004 FFF7FEFF 		bl	SystemInit
  37              	.LVL0:
  15:project/main.c ****   UserInit();
  38              		.loc 1 15 0
  39 0008 FFF7FEFF 		bl	UserInit
  40              	.LVL1:
  16:project/main.c **** 
  17:project/main.c **** 
ARM GAS  /tmp/ccBGe30t.s 			page 2


  18:project/main.c ****     DelayMs(1000);
  41              		.loc 1 18 0
  42 000c 4FF47A70 		mov	r0, #1000
  43 0010 FFF7FEFF 		bl	DelayMs
  44              	.LVL2:
  19:project/main.c ****   while (1) {
  20:project/main.c ****     DelayMs(1000);
  45              		.loc 1 20 0
  46 0014 4FF47A74 		mov	r4, #1000
  21:project/main.c ****     MPU6050_GetRawAccelGyro(AccelGyro);
  22:project/main.c ****     printf("height:%d\r\n", HCSR04_Get());
  47              		.loc 1 22 0
  48 0018 0D4E     		ldr	r6, .L4
  23:project/main.c ****     printf("string:%s\r\n", "Hello World.");
  49              		.loc 1 23 0
  50 001a 0E4D     		ldr	r5, .L4+4
  51              	.L2:
  20:project/main.c ****     MPU6050_GetRawAccelGyro(AccelGyro);
  52              		.loc 1 20 0 discriminator 1
  53 001c 2046     		mov	r0, r4
  54 001e FFF7FEFF 		bl	DelayMs
  55              	.LVL3:
  21:project/main.c ****     MPU6050_GetRawAccelGyro(AccelGyro);
  56              		.loc 1 21 0 discriminator 1
  57 0022 6846     		mov	r0, sp
  58 0024 FFF7FEFF 		bl	MPU6050_GetRawAccelGyro
  59              	.LVL4:
  22:project/main.c ****     printf("string:%s\r\n", "Hello World.");
  60              		.loc 1 22 0 discriminator 1
  61 0028 FFF7FEFF 		bl	HCSR04_Get
  62              	.LVL5:
  63 002c 0146     		mov	r1, r0
  64 002e 3046     		mov	r0, r6
  65 0030 FFF7FEFF 		bl	printf
  66              	.LVL6:
  67              		.loc 1 23 0 discriminator 1
  68 0034 2946     		mov	r1, r5
  69 0036 0848     		ldr	r0, .L4+8
  70 0038 FFF7FEFF 		bl	printf
  71              	.LVL7:
  24:project/main.c ****     printf("quad[0]:%d\r\n", AccelGyro[0]);
  72              		.loc 1 24 0 discriminator 1
  73 003c BDF90010 		ldrsh	r1, [sp]
  74 0040 0648     		ldr	r0, .L4+12
  75 0042 FFF7FEFF 		bl	printf
  76              	.LVL8:
  25:project/main.c ****     DelayMs(1000);
  77              		.loc 1 25 0 discriminator 1
  78 0046 2046     		mov	r0, r4
  79 0048 FFF7FEFF 		bl	DelayMs
  80              	.LVL9:
  81 004c E6E7     		b	.L2
  82              	.L5:
  83 004e 00BF     		.align	2
  84              	.L4:
  85 0050 00000000 		.word	.LC0
  86 0054 0C000000 		.word	.LC1
ARM GAS  /tmp/ccBGe30t.s 			page 3


  87 0058 1C000000 		.word	.LC2
  88 005c 28000000 		.word	.LC3
  89              		.cfi_endproc
  90              	.LFE64:
  91              		.size	main, .-main
  92              		.section	.rodata.str1.4,"aMS",%progbits,1
  93              		.align	2
  94              	.LC0:
  95 0000 68656967 		.ascii	"height:%d\015\012\000"
  95      68743A25 
  95      640D0A00 
  96              	.LC1:
  97 000c 48656C6C 		.ascii	"Hello World.\000"
  97      6F20576F 
  97      726C642E 
  97      00
  98 0019 000000   		.space	3
  99              	.LC2:
 100 001c 73747269 		.ascii	"string:%s\015\012\000"
 100      6E673A25 
 100      730D0A00 
 101              	.LC3:
 102 0028 71756164 		.ascii	"quad[0]:%d\015\012\000"
 102      5B305D3A 
 102      25640D0A 
 102      00
 103              		.text
 104              	.Letext0:
 105              		.file 2 "/usr/arm-none-eabi/include/machine/_default_types.h"
 106              		.file 3 "/usr/arm-none-eabi/include/sys/_stdint.h"
 107              		.file 4 "/home/faker/Documents/code/STM/stm32-quadrocopter/cmsis/core_cm3.h"
 108              		.file 5 "/home/faker/Documents/code/STM/stm32-quadrocopter/lib/inc/system_stm32f10x.h"
 109              		.file 6 "/usr/arm-none-eabi/include/sys/lock.h"
 110              		.file 7 "/usr/arm-none-eabi/include/sys/_types.h"
 111              		.file 8 "/usr/lib/gcc/arm-none-eabi/6.1.1/include/stddef.h"
 112              		.file 9 "/usr/arm-none-eabi/include/sys/reent.h"
 113              		.file 10 "/usr/arm-none-eabi/include/stdlib.h"
 114              		.file 11 "/usr/arm-none-eabi/include/math.h"
 115              		.file 12 "/usr/arm-none-eabi/include/sys/errno.h"
 116              		.file 13 "/home/faker/Documents/code/STM/stm32-quadrocopter/drivers/tools.h"
 117              		.file 14 "/home/faker/Documents/code/STM/stm32-quadrocopter/drivers/MPU6050.h"
 118              		.file 15 "/usr/arm-none-eabi/include/stdio.h"
 119              		.section	.debug_info,"",%progbits
 120              	.Ldebug_info0:
 121 0000 850A0000 		.4byte	0xa85
 122 0004 0400     		.2byte	0x4
 123 0006 00000000 		.4byte	.Ldebug_abbrev0
 124 000a 04       		.byte	0x4
 125 000b 01       		.uleb128 0x1
 126 000c BD000000 		.4byte	.LASF144
 127 0010 0C       		.byte	0xc
 128 0011 17020000 		.4byte	.LASF145
 129 0015 C2030000 		.4byte	.LASF146
 130 0019 00000000 		.4byte	.Ltext0
 131 001d 60000000 		.4byte	.Letext0-.Ltext0
 132 0021 00000000 		.4byte	.Ldebug_line0
 133 0025 02       		.uleb128 0x2
ARM GAS  /tmp/ccBGe30t.s 			page 4


 134 0026 01       		.byte	0x1
 135 0027 06       		.byte	0x6
 136 0028 5C010000 		.4byte	.LASF0
 137 002c 02       		.uleb128 0x2
 138 002d 01       		.byte	0x1
 139 002e 08       		.byte	0x8
 140 002f B4030000 		.4byte	.LASF1
 141 0033 03       		.uleb128 0x3
 142 0034 DF050000 		.4byte	.LASF4
 143 0038 02       		.byte	0x2
 144 0039 29       		.byte	0x29
 145 003a 3E000000 		.4byte	0x3e
 146 003e 02       		.uleb128 0x2
 147 003f 02       		.byte	0x2
 148 0040 05       		.byte	0x5
 149 0041 07000000 		.4byte	.LASF2
 150 0045 02       		.uleb128 0x2
 151 0046 02       		.byte	0x2
 152 0047 07       		.byte	0x7
 153 0048 2E050000 		.4byte	.LASF3
 154 004c 03       		.uleb128 0x3
 155 004d 08050000 		.4byte	.LASF5
 156 0051 02       		.byte	0x2
 157 0052 3F       		.byte	0x3f
 158 0053 57000000 		.4byte	0x57
 159 0057 02       		.uleb128 0x2
 160 0058 04       		.byte	0x4
 161 0059 05       		.byte	0x5
 162 005a A1010000 		.4byte	.LASF6
 163 005e 03       		.uleb128 0x3
 164 005f 39020000 		.4byte	.LASF7
 165 0063 02       		.byte	0x2
 166 0064 41       		.byte	0x41
 167 0065 69000000 		.4byte	0x69
 168 0069 02       		.uleb128 0x2
 169 006a 04       		.byte	0x4
 170 006b 07       		.byte	0x7
 171 006c 98020000 		.4byte	.LASF8
 172 0070 02       		.uleb128 0x2
 173 0071 08       		.byte	0x8
 174 0072 05       		.byte	0x5
 175 0073 D8010000 		.4byte	.LASF9
 176 0077 02       		.uleb128 0x2
 177 0078 08       		.byte	0x8
 178 0079 07       		.byte	0x7
 179 007a 71000000 		.4byte	.LASF10
 180 007e 04       		.uleb128 0x4
 181 007f 04       		.byte	0x4
 182 0080 05       		.byte	0x5
 183 0081 696E7400 		.ascii	"int\000"
 184 0085 02       		.uleb128 0x2
 185 0086 04       		.byte	0x4
 186 0087 07       		.byte	0x7
 187 0088 FB040000 		.4byte	.LASF11
 188 008c 03       		.uleb128 0x3
 189 008d 46010000 		.4byte	.LASF12
 190 0091 03       		.byte	0x3
ARM GAS  /tmp/ccBGe30t.s 			page 5


 191 0092 20       		.byte	0x20
 192 0093 33000000 		.4byte	0x33
 193 0097 03       		.uleb128 0x3
 194 0098 AC030000 		.4byte	.LASF13
 195 009c 03       		.byte	0x3
 196 009d 2C       		.byte	0x2c
 197 009e 4C000000 		.4byte	0x4c
 198 00a2 05       		.uleb128 0x5
 199 00a3 97000000 		.4byte	0x97
 200 00a7 03       		.uleb128 0x3
 201 00a8 37060000 		.4byte	.LASF14
 202 00ac 03       		.byte	0x3
 203 00ad 30       		.byte	0x30
 204 00ae 5E000000 		.4byte	0x5e
 205 00b2 02       		.uleb128 0x2
 206 00b3 04       		.byte	0x4
 207 00b4 07       		.byte	0x7
 208 00b5 33030000 		.4byte	.LASF15
 209 00b9 06       		.uleb128 0x6
 210 00ba A0000000 		.4byte	.LASF16
 211 00be 04       		.byte	0x4
 212 00bf 9606     		.2byte	0x696
 213 00c1 A2000000 		.4byte	0xa2
 214 00c5 07       		.uleb128 0x7
 215 00c6 78020000 		.4byte	.LASF17
 216 00ca 05       		.byte	0x5
 217 00cb 35       		.byte	0x35
 218 00cc A7000000 		.4byte	0xa7
 219 00d0 02       		.uleb128 0x2
 220 00d1 08       		.byte	0x8
 221 00d2 04       		.byte	0x4
 222 00d3 D4040000 		.4byte	.LASF18
 223 00d7 08       		.uleb128 0x8
 224 00d8 04       		.byte	0x4
 225 00d9 03       		.uleb128 0x3
 226 00da 8F030000 		.4byte	.LASF19
 227 00de 06       		.byte	0x6
 228 00df 07       		.byte	0x7
 229 00e0 7E000000 		.4byte	0x7e
 230 00e4 03       		.uleb128 0x3
 231 00e5 4E010000 		.4byte	.LASF20
 232 00e9 07       		.byte	0x7
 233 00ea 2C       		.byte	0x2c
 234 00eb 57000000 		.4byte	0x57
 235 00ef 03       		.uleb128 0x3
 236 00f0 CC040000 		.4byte	.LASF21
 237 00f4 07       		.byte	0x7
 238 00f5 72       		.byte	0x72
 239 00f6 57000000 		.4byte	0x57
 240 00fa 09       		.uleb128 0x9
 241 00fb 78030000 		.4byte	.LASF22
 242 00ff 08       		.byte	0x8
 243 0100 6501     		.2byte	0x165
 244 0102 85000000 		.4byte	0x85
 245 0106 0A       		.uleb128 0xa
 246 0107 04       		.byte	0x4
 247 0108 07       		.byte	0x7
ARM GAS  /tmp/ccBGe30t.s 			page 6


 248 0109 A6       		.byte	0xa6
 249 010a 25010000 		.4byte	0x125
 250 010e 0B       		.uleb128 0xb
 251 010f 01030000 		.4byte	.LASF23
 252 0113 07       		.byte	0x7
 253 0114 A8       		.byte	0xa8
 254 0115 FA000000 		.4byte	0xfa
 255 0119 0B       		.uleb128 0xb
 256 011a 71020000 		.4byte	.LASF24
 257 011e 07       		.byte	0x7
 258 011f A9       		.byte	0xa9
 259 0120 25010000 		.4byte	0x125
 260 0124 00       		.byte	0
 261 0125 0C       		.uleb128 0xc
 262 0126 2C000000 		.4byte	0x2c
 263 012a 35010000 		.4byte	0x135
 264 012e 0D       		.uleb128 0xd
 265 012f B2000000 		.4byte	0xb2
 266 0133 03       		.byte	0x3
 267 0134 00       		.byte	0
 268 0135 0E       		.uleb128 0xe
 269 0136 08       		.byte	0x8
 270 0137 07       		.byte	0x7
 271 0138 A3       		.byte	0xa3
 272 0139 56010000 		.4byte	0x156
 273 013d 0F       		.uleb128 0xf
 274 013e AC040000 		.4byte	.LASF25
 275 0142 07       		.byte	0x7
 276 0143 A5       		.byte	0xa5
 277 0144 7E000000 		.4byte	0x7e
 278 0148 00       		.byte	0
 279 0149 0F       		.uleb128 0xf
 280 014a B4040000 		.4byte	.LASF26
 281 014e 07       		.byte	0x7
 282 014f AA       		.byte	0xaa
 283 0150 06010000 		.4byte	0x106
 284 0154 04       		.byte	0x4
 285 0155 00       		.byte	0
 286 0156 03       		.uleb128 0x3
 287 0157 2C040000 		.4byte	.LASF27
 288 015b 07       		.byte	0x7
 289 015c AB       		.byte	0xab
 290 015d 35010000 		.4byte	0x135
 291 0161 03       		.uleb128 0x3
 292 0162 FD030000 		.4byte	.LASF28
 293 0166 07       		.byte	0x7
 294 0167 AF       		.byte	0xaf
 295 0168 D9000000 		.4byte	0xd9
 296 016c 03       		.uleb128 0x3
 297 016d 46050000 		.4byte	.LASF29
 298 0171 09       		.byte	0x9
 299 0172 16       		.byte	0x16
 300 0173 69000000 		.4byte	0x69
 301 0177 10       		.uleb128 0x10
 302 0178 5E020000 		.4byte	.LASF34
 303 017c 18       		.byte	0x18
 304 017d 09       		.byte	0x9
ARM GAS  /tmp/ccBGe30t.s 			page 7


 305 017e 2D       		.byte	0x2d
 306 017f CA010000 		.4byte	0x1ca
 307 0183 0F       		.uleb128 0xf
 308 0184 12050000 		.4byte	.LASF30
 309 0188 09       		.byte	0x9
 310 0189 2F       		.byte	0x2f
 311 018a CA010000 		.4byte	0x1ca
 312 018e 00       		.byte	0
 313 018f 11       		.uleb128 0x11
 314 0190 5F6B00   		.ascii	"_k\000"
 315 0193 09       		.byte	0x9
 316 0194 30       		.byte	0x30
 317 0195 7E000000 		.4byte	0x7e
 318 0199 04       		.byte	0x4
 319 019a 0F       		.uleb128 0xf
 320 019b 97040000 		.4byte	.LASF31
 321 019f 09       		.byte	0x9
 322 01a0 30       		.byte	0x30
 323 01a1 7E000000 		.4byte	0x7e
 324 01a5 08       		.byte	0x8
 325 01a6 0F       		.uleb128 0xf
 326 01a7 44020000 		.4byte	.LASF32
 327 01ab 09       		.byte	0x9
 328 01ac 30       		.byte	0x30
 329 01ad 7E000000 		.4byte	0x7e
 330 01b1 0C       		.byte	0xc
 331 01b2 0F       		.uleb128 0xf
 332 01b3 B7050000 		.4byte	.LASF33
 333 01b7 09       		.byte	0x9
 334 01b8 30       		.byte	0x30
 335 01b9 7E000000 		.4byte	0x7e
 336 01bd 10       		.byte	0x10
 337 01be 11       		.uleb128 0x11
 338 01bf 5F7800   		.ascii	"_x\000"
 339 01c2 09       		.byte	0x9
 340 01c3 31       		.byte	0x31
 341 01c4 D0010000 		.4byte	0x1d0
 342 01c8 14       		.byte	0x14
 343 01c9 00       		.byte	0
 344 01ca 12       		.uleb128 0x12
 345 01cb 04       		.byte	0x4
 346 01cc 77010000 		.4byte	0x177
 347 01d0 0C       		.uleb128 0xc
 348 01d1 6C010000 		.4byte	0x16c
 349 01d5 E0010000 		.4byte	0x1e0
 350 01d9 0D       		.uleb128 0xd
 351 01da B2000000 		.4byte	0xb2
 352 01de 00       		.byte	0
 353 01df 00       		.byte	0
 354 01e0 10       		.uleb128 0x10
 355 01e1 6C020000 		.4byte	.LASF35
 356 01e5 24       		.byte	0x24
 357 01e6 09       		.byte	0x9
 358 01e7 35       		.byte	0x35
 359 01e8 59020000 		.4byte	0x259
 360 01ec 0F       		.uleb128 0xf
 361 01ed 3D010000 		.4byte	.LASF36
ARM GAS  /tmp/ccBGe30t.s 			page 8


 362 01f1 09       		.byte	0x9
 363 01f2 37       		.byte	0x37
 364 01f3 7E000000 		.4byte	0x7e
 365 01f7 00       		.byte	0
 366 01f8 0F       		.uleb128 0xf
 367 01f9 11060000 		.4byte	.LASF37
 368 01fd 09       		.byte	0x9
 369 01fe 38       		.byte	0x38
 370 01ff 7E000000 		.4byte	0x7e
 371 0203 04       		.byte	0x4
 372 0204 0F       		.uleb128 0xf
 373 0205 74010000 		.4byte	.LASF38
 374 0209 09       		.byte	0x9
 375 020a 39       		.byte	0x39
 376 020b 7E000000 		.4byte	0x7e
 377 020f 08       		.byte	0x8
 378 0210 0F       		.uleb128 0xf
 379 0211 40060000 		.4byte	.LASF39
 380 0215 09       		.byte	0x9
 381 0216 3A       		.byte	0x3a
 382 0217 7E000000 		.4byte	0x7e
 383 021b 0C       		.byte	0xc
 384 021c 0F       		.uleb128 0xf
 385 021d 43030000 		.4byte	.LASF40
 386 0221 09       		.byte	0x9
 387 0222 3B       		.byte	0x3b
 388 0223 7E000000 		.4byte	0x7e
 389 0227 10       		.byte	0x10
 390 0228 0F       		.uleb128 0xf
 391 0229 29030000 		.4byte	.LASF41
 392 022d 09       		.byte	0x9
 393 022e 3C       		.byte	0x3c
 394 022f 7E000000 		.4byte	0x7e
 395 0233 14       		.byte	0x14
 396 0234 0F       		.uleb128 0xf
 397 0235 C2040000 		.4byte	.LASF42
 398 0239 09       		.byte	0x9
 399 023a 3D       		.byte	0x3d
 400 023b 7E000000 		.4byte	0x7e
 401 023f 18       		.byte	0x18
 402 0240 0F       		.uleb128 0xf
 403 0241 06040000 		.4byte	.LASF43
 404 0245 09       		.byte	0x9
 405 0246 3E       		.byte	0x3e
 406 0247 7E000000 		.4byte	0x7e
 407 024b 1C       		.byte	0x1c
 408 024c 0F       		.uleb128 0xf
 409 024d F7050000 		.4byte	.LASF44
 410 0251 09       		.byte	0x9
 411 0252 3F       		.byte	0x3f
 412 0253 7E000000 		.4byte	0x7e
 413 0257 20       		.byte	0x20
 414 0258 00       		.byte	0
 415 0259 13       		.uleb128 0x13
 416 025a 83010000 		.4byte	.LASF45
 417 025e 0801     		.2byte	0x108
 418 0260 09       		.byte	0x9
ARM GAS  /tmp/ccBGe30t.s 			page 9


 419 0261 48       		.byte	0x48
 420 0262 99020000 		.4byte	0x299
 421 0266 0F       		.uleb128 0xf
 422 0267 1E000000 		.4byte	.LASF46
 423 026b 09       		.byte	0x9
 424 026c 49       		.byte	0x49
 425 026d 99020000 		.4byte	0x299
 426 0271 00       		.byte	0
 427 0272 0F       		.uleb128 0xf
 428 0273 81040000 		.4byte	.LASF47
 429 0277 09       		.byte	0x9
 430 0278 4A       		.byte	0x4a
 431 0279 99020000 		.4byte	0x299
 432 027d 80       		.byte	0x80
 433 027e 14       		.uleb128 0x14
 434 027f 25050000 		.4byte	.LASF48
 435 0283 09       		.byte	0x9
 436 0284 4C       		.byte	0x4c
 437 0285 6C010000 		.4byte	0x16c
 438 0289 0001     		.2byte	0x100
 439 028b 14       		.uleb128 0x14
 440 028c B1010000 		.4byte	.LASF49
 441 0290 09       		.byte	0x9
 442 0291 4F       		.byte	0x4f
 443 0292 6C010000 		.4byte	0x16c
 444 0296 0401     		.2byte	0x104
 445 0298 00       		.byte	0
 446 0299 0C       		.uleb128 0xc
 447 029a D7000000 		.4byte	0xd7
 448 029e A9020000 		.4byte	0x2a9
 449 02a2 0D       		.uleb128 0xd
 450 02a3 B2000000 		.4byte	0xb2
 451 02a7 1F       		.byte	0x1f
 452 02a8 00       		.byte	0
 453 02a9 13       		.uleb128 0x13
 454 02aa 4C030000 		.4byte	.LASF50
 455 02ae 9001     		.2byte	0x190
 456 02b0 09       		.byte	0x9
 457 02b1 5B       		.byte	0x5b
 458 02b2 E7020000 		.4byte	0x2e7
 459 02b6 0F       		.uleb128 0xf
 460 02b7 12050000 		.4byte	.LASF30
 461 02bb 09       		.byte	0x9
 462 02bc 5C       		.byte	0x5c
 463 02bd E7020000 		.4byte	0x2e7
 464 02c1 00       		.byte	0
 465 02c2 0F       		.uleb128 0xf
 466 02c3 6C040000 		.4byte	.LASF51
 467 02c7 09       		.byte	0x9
 468 02c8 5D       		.byte	0x5d
 469 02c9 7E000000 		.4byte	0x7e
 470 02cd 04       		.byte	0x4
 471 02ce 0F       		.uleb128 0xf
 472 02cf 34020000 		.4byte	.LASF52
 473 02d3 09       		.byte	0x9
 474 02d4 5F       		.byte	0x5f
 475 02d5 ED020000 		.4byte	0x2ed
ARM GAS  /tmp/ccBGe30t.s 			page 10


 476 02d9 08       		.byte	0x8
 477 02da 0F       		.uleb128 0xf
 478 02db 83010000 		.4byte	.LASF45
 479 02df 09       		.byte	0x9
 480 02e0 60       		.byte	0x60
 481 02e1 59020000 		.4byte	0x259
 482 02e5 88       		.byte	0x88
 483 02e6 00       		.byte	0
 484 02e7 12       		.uleb128 0x12
 485 02e8 04       		.byte	0x4
 486 02e9 A9020000 		.4byte	0x2a9
 487 02ed 0C       		.uleb128 0xc
 488 02ee FD020000 		.4byte	0x2fd
 489 02f2 FD020000 		.4byte	0x2fd
 490 02f6 0D       		.uleb128 0xd
 491 02f7 B2000000 		.4byte	0xb2
 492 02fb 1F       		.byte	0x1f
 493 02fc 00       		.byte	0
 494 02fd 12       		.uleb128 0x12
 495 02fe 04       		.byte	0x4
 496 02ff 03030000 		.4byte	0x303
 497 0303 15       		.uleb128 0x15
 498 0304 10       		.uleb128 0x10
 499 0305 10040000 		.4byte	.LASF53
 500 0309 08       		.byte	0x8
 501 030a 09       		.byte	0x9
 502 030b 73       		.byte	0x73
 503 030c 29030000 		.4byte	0x329
 504 0310 0F       		.uleb128 0xf
 505 0311 6E010000 		.4byte	.LASF54
 506 0315 09       		.byte	0x9
 507 0316 74       		.byte	0x74
 508 0317 29030000 		.4byte	0x329
 509 031b 00       		.byte	0
 510 031c 0F       		.uleb128 0xf
 511 031d F5040000 		.4byte	.LASF55
 512 0321 09       		.byte	0x9
 513 0322 75       		.byte	0x75
 514 0323 7E000000 		.4byte	0x7e
 515 0327 04       		.byte	0x4
 516 0328 00       		.byte	0
 517 0329 12       		.uleb128 0x12
 518 032a 04       		.byte	0x4
 519 032b 2C000000 		.4byte	0x2c
 520 032f 10       		.uleb128 0x10
 521 0330 37040000 		.4byte	.LASF56
 522 0334 68       		.byte	0x68
 523 0335 09       		.byte	0x9
 524 0336 B3       		.byte	0xb3
 525 0337 59040000 		.4byte	0x459
 526 033b 11       		.uleb128 0x11
 527 033c 5F7000   		.ascii	"_p\000"
 528 033f 09       		.byte	0x9
 529 0340 B4       		.byte	0xb4
 530 0341 29030000 		.4byte	0x329
 531 0345 00       		.byte	0
 532 0346 11       		.uleb128 0x11
ARM GAS  /tmp/ccBGe30t.s 			page 11


 533 0347 5F7200   		.ascii	"_r\000"
 534 034a 09       		.byte	0x9
 535 034b B5       		.byte	0xb5
 536 034c 7E000000 		.4byte	0x7e
 537 0350 04       		.byte	0x4
 538 0351 11       		.uleb128 0x11
 539 0352 5F7700   		.ascii	"_w\000"
 540 0355 09       		.byte	0x9
 541 0356 B6       		.byte	0xb6
 542 0357 7E000000 		.4byte	0x7e
 543 035b 08       		.byte	0x8
 544 035c 0F       		.uleb128 0xf
 545 035d AA010000 		.4byte	.LASF57
 546 0361 09       		.byte	0x9
 547 0362 B7       		.byte	0xb7
 548 0363 3E000000 		.4byte	0x3e
 549 0367 0C       		.byte	0xc
 550 0368 0F       		.uleb128 0xf
 551 0369 AA020000 		.4byte	.LASF58
 552 036d 09       		.byte	0x9
 553 036e B8       		.byte	0xb8
 554 036f 3E000000 		.4byte	0x3e
 555 0373 0E       		.byte	0xe
 556 0374 11       		.uleb128 0x11
 557 0375 5F626600 		.ascii	"_bf\000"
 558 0379 09       		.byte	0x9
 559 037a B9       		.byte	0xb9
 560 037b 04030000 		.4byte	0x304
 561 037f 10       		.byte	0x10
 562 0380 0F       		.uleb128 0xf
 563 0381 97000000 		.4byte	.LASF59
 564 0385 09       		.byte	0x9
 565 0386 BA       		.byte	0xba
 566 0387 7E000000 		.4byte	0x7e
 567 038b 18       		.byte	0x18
 568 038c 0F       		.uleb128 0xf
 569 038d 91010000 		.4byte	.LASF60
 570 0391 09       		.byte	0x9
 571 0392 C1       		.byte	0xc1
 572 0393 D7000000 		.4byte	0xd7
 573 0397 1C       		.byte	0x1c
 574 0398 0F       		.uleb128 0xf
 575 0399 66020000 		.4byte	.LASF61
 576 039d 09       		.byte	0x9
 577 039e C3       		.byte	0xc3
 578 039f C6050000 		.4byte	0x5c6
 579 03a3 20       		.byte	0x20
 580 03a4 0F       		.uleb128 0xf
 581 03a5 22030000 		.4byte	.LASF62
 582 03a9 09       		.byte	0x9
 583 03aa C5       		.byte	0xc5
 584 03ab F5050000 		.4byte	0x5f5
 585 03af 24       		.byte	0x24
 586 03b0 0F       		.uleb128 0xf
 587 03b1 BC040000 		.4byte	.LASF63
 588 03b5 09       		.byte	0x9
 589 03b6 C8       		.byte	0xc8
ARM GAS  /tmp/ccBGe30t.s 			page 12


 590 03b7 19060000 		.4byte	0x619
 591 03bb 28       		.byte	0x28
 592 03bc 0F       		.uleb128 0xf
 593 03bd 55010000 		.4byte	.LASF64
 594 03c1 09       		.byte	0x9
 595 03c2 C9       		.byte	0xc9
 596 03c3 33060000 		.4byte	0x633
 597 03c7 2C       		.byte	0x2c
 598 03c8 11       		.uleb128 0x11
 599 03c9 5F756200 		.ascii	"_ub\000"
 600 03cd 09       		.byte	0x9
 601 03ce CC       		.byte	0xcc
 602 03cf 04030000 		.4byte	0x304
 603 03d3 30       		.byte	0x30
 604 03d4 11       		.uleb128 0x11
 605 03d5 5F757000 		.ascii	"_up\000"
 606 03d9 09       		.byte	0x9
 607 03da CD       		.byte	0xcd
 608 03db 29030000 		.4byte	0x329
 609 03df 38       		.byte	0x38
 610 03e0 11       		.uleb128 0x11
 611 03e1 5F757200 		.ascii	"_ur\000"
 612 03e5 09       		.byte	0x9
 613 03e6 CE       		.byte	0xce
 614 03e7 7E000000 		.4byte	0x7e
 615 03eb 3C       		.byte	0x3c
 616 03ec 0F       		.uleb128 0xf
 617 03ed 68010000 		.4byte	.LASF65
 618 03f1 09       		.byte	0x9
 619 03f2 D1       		.byte	0xd1
 620 03f3 39060000 		.4byte	0x639
 621 03f7 40       		.byte	0x40
 622 03f8 0F       		.uleb128 0xf
 623 03f9 E9050000 		.4byte	.LASF66
 624 03fd 09       		.byte	0x9
 625 03fe D2       		.byte	0xd2
 626 03ff 49060000 		.4byte	0x649
 627 0403 43       		.byte	0x43
 628 0404 11       		.uleb128 0x11
 629 0405 5F6C6200 		.ascii	"_lb\000"
 630 0409 09       		.byte	0x9
 631 040a D5       		.byte	0xd5
 632 040b 04030000 		.4byte	0x304
 633 040f 44       		.byte	0x44
 634 0410 0F       		.uleb128 0xf
 635 0411 EC040000 		.4byte	.LASF67
 636 0415 09       		.byte	0x9
 637 0416 D8       		.byte	0xd8
 638 0417 7E000000 		.4byte	0x7e
 639 041b 4C       		.byte	0x4c
 640 041c 0F       		.uleb128 0xf
 641 041d FE010000 		.4byte	.LASF68
 642 0421 09       		.byte	0x9
 643 0422 D9       		.byte	0xd9
 644 0423 E4000000 		.4byte	0xe4
 645 0427 50       		.byte	0x50
 646 0428 0F       		.uleb128 0xf
ARM GAS  /tmp/ccBGe30t.s 			page 13


 647 0429 B0020000 		.4byte	.LASF69
 648 042d 09       		.byte	0x9
 649 042e DC       		.byte	0xdc
 650 042f 77040000 		.4byte	0x477
 651 0433 54       		.byte	0x54
 652 0434 0F       		.uleb128 0xf
 653 0435 0C030000 		.4byte	.LASF70
 654 0439 09       		.byte	0x9
 655 043a E0       		.byte	0xe0
 656 043b 61010000 		.4byte	0x161
 657 043f 58       		.byte	0x58
 658 0440 0F       		.uleb128 0xf
 659 0441 49040000 		.4byte	.LASF71
 660 0445 09       		.byte	0x9
 661 0446 E2       		.byte	0xe2
 662 0447 56010000 		.4byte	0x156
 663 044b 5C       		.byte	0x5c
 664 044c 0F       		.uleb128 0xf
 665 044d 17040000 		.4byte	.LASF72
 666 0451 09       		.byte	0x9
 667 0452 E3       		.byte	0xe3
 668 0453 7E000000 		.4byte	0x7e
 669 0457 64       		.byte	0x64
 670 0458 00       		.byte	0
 671 0459 16       		.uleb128 0x16
 672 045a 7E000000 		.4byte	0x7e
 673 045e 77040000 		.4byte	0x477
 674 0462 17       		.uleb128 0x17
 675 0463 77040000 		.4byte	0x477
 676 0467 17       		.uleb128 0x17
 677 0468 D7000000 		.4byte	0xd7
 678 046c 17       		.uleb128 0x17
 679 046d B4050000 		.4byte	0x5b4
 680 0471 17       		.uleb128 0x17
 681 0472 7E000000 		.4byte	0x7e
 682 0476 00       		.byte	0
 683 0477 12       		.uleb128 0x12
 684 0478 04       		.byte	0x4
 685 0479 82040000 		.4byte	0x482
 686 047d 18       		.uleb128 0x18
 687 047e 77040000 		.4byte	0x477
 688 0482 19       		.uleb128 0x19
 689 0483 9F040000 		.4byte	.LASF73
 690 0487 2804     		.2byte	0x428
 691 0489 09       		.byte	0x9
 692 048a 3802     		.2byte	0x238
 693 048c B4050000 		.4byte	0x5b4
 694 0490 1A       		.uleb128 0x1a
 695 0491 E0040000 		.4byte	.LASF74
 696 0495 09       		.byte	0x9
 697 0496 3A02     		.2byte	0x23a
 698 0498 7E000000 		.4byte	0x7e
 699 049c 00       		.byte	0
 700 049d 1A       		.uleb128 0x1a
 701 049e B9010000 		.4byte	.LASF75
 702 04a2 09       		.byte	0x9
 703 04a3 3F02     		.2byte	0x23f
ARM GAS  /tmp/ccBGe30t.s 			page 14


 704 04a5 A0060000 		.4byte	0x6a0
 705 04a9 04       		.byte	0x4
 706 04aa 1A       		.uleb128 0x1a
 707 04ab 88020000 		.4byte	.LASF76
 708 04af 09       		.byte	0x9
 709 04b0 3F02     		.2byte	0x23f
 710 04b2 A0060000 		.4byte	0x6a0
 711 04b6 08       		.byte	0x8
 712 04b7 1A       		.uleb128 0x1a
 713 04b8 56020000 		.4byte	.LASF77
 714 04bc 09       		.byte	0x9
 715 04bd 3F02     		.2byte	0x23f
 716 04bf A0060000 		.4byte	0x6a0
 717 04c3 0C       		.byte	0xc
 718 04c4 1A       		.uleb128 0x1a
 719 04c5 67040000 		.4byte	.LASF78
 720 04c9 09       		.byte	0x9
 721 04ca 4102     		.2byte	0x241
 722 04cc 7E000000 		.4byte	0x7e
 723 04d0 10       		.byte	0x10
 724 04d1 1A       		.uleb128 0x1a
 725 04d2 3D000000 		.4byte	.LASF79
 726 04d6 09       		.byte	0x9
 727 04d7 4202     		.2byte	0x242
 728 04d9 82080000 		.4byte	0x882
 729 04dd 14       		.byte	0x14
 730 04de 1A       		.uleb128 0x1a
 731 04df 7F050000 		.4byte	.LASF80
 732 04e3 09       		.byte	0x9
 733 04e4 4402     		.2byte	0x244
 734 04e6 7E000000 		.4byte	0x7e
 735 04ea 30       		.byte	0x30
 736 04eb 1A       		.uleb128 0x1a
 737 04ec 71040000 		.4byte	.LASF81
 738 04f0 09       		.byte	0x9
 739 04f1 4502     		.2byte	0x245
 740 04f3 EA050000 		.4byte	0x5ea
 741 04f7 34       		.byte	0x34
 742 04f8 1A       		.uleb128 0x1a
 743 04f9 5E030000 		.4byte	.LASF82
 744 04fd 09       		.byte	0x9
 745 04fe 4702     		.2byte	0x247
 746 0500 7E000000 		.4byte	0x7e
 747 0504 38       		.byte	0x38
 748 0505 1A       		.uleb128 0x1a
 749 0506 8D040000 		.4byte	.LASF83
 750 050a 09       		.byte	0x9
 751 050b 4902     		.2byte	0x249
 752 050d 9D080000 		.4byte	0x89d
 753 0511 3C       		.byte	0x3c
 754 0512 1A       		.uleb128 0x1a
 755 0513 F9020000 		.4byte	.LASF84
 756 0517 09       		.byte	0x9
 757 0518 4C02     		.2byte	0x24c
 758 051a CA010000 		.4byte	0x1ca
 759 051e 40       		.byte	0x40
 760 051f 1A       		.uleb128 0x1a
ARM GAS  /tmp/ccBGe30t.s 			page 15


 761 0520 CE010000 		.4byte	.LASF85
 762 0524 09       		.byte	0x9
 763 0525 4D02     		.2byte	0x24d
 764 0527 7E000000 		.4byte	0x7e
 765 052b 44       		.byte	0x44
 766 052c 1A       		.uleb128 0x1a
 767 052d 2D060000 		.4byte	.LASF86
 768 0531 09       		.byte	0x9
 769 0532 4E02     		.2byte	0x24e
 770 0534 CA010000 		.4byte	0x1ca
 771 0538 48       		.byte	0x48
 772 0539 1A       		.uleb128 0x1a
 773 053a 85030000 		.4byte	.LASF87
 774 053e 09       		.byte	0x9
 775 053f 4F02     		.2byte	0x24f
 776 0541 A3080000 		.4byte	0x8a3
 777 0545 4C       		.byte	0x4c
 778 0546 1A       		.uleb128 0x1a
 779 0547 90020000 		.4byte	.LASF88
 780 054b 09       		.byte	0x9
 781 054c 5202     		.2byte	0x252
 782 054e 7E000000 		.4byte	0x7e
 783 0552 50       		.byte	0x50
 784 0553 1A       		.uleb128 0x1a
 785 0554 F6010000 		.4byte	.LASF89
 786 0558 09       		.byte	0x9
 787 0559 5302     		.2byte	0x253
 788 055b B4050000 		.4byte	0x5b4
 789 055f 54       		.byte	0x54
 790 0560 1A       		.uleb128 0x1a
 791 0561 07030000 		.4byte	.LASF90
 792 0565 09       		.byte	0x9
 793 0566 7602     		.2byte	0x276
 794 0568 60080000 		.4byte	0x860
 795 056c 58       		.byte	0x58
 796 056d 1B       		.uleb128 0x1b
 797 056e 4C030000 		.4byte	.LASF50
 798 0572 09       		.byte	0x9
 799 0573 7A02     		.2byte	0x27a
 800 0575 E7020000 		.4byte	0x2e7
 801 0579 4801     		.2byte	0x148
 802 057b 1B       		.uleb128 0x1b
 803 057c 48000000 		.4byte	.LASF91
 804 0580 09       		.byte	0x9
 805 0581 7B02     		.2byte	0x27b
 806 0583 A9020000 		.4byte	0x2a9
 807 0587 4C01     		.2byte	0x14c
 808 0589 1B       		.uleb128 0x1b
 809 058a D5050000 		.4byte	.LASF92
 810 058e 09       		.byte	0x9
 811 058f 7F02     		.2byte	0x27f
 812 0591 B4080000 		.4byte	0x8b4
 813 0595 DC02     		.2byte	0x2dc
 814 0597 1B       		.uleb128 0x1b
 815 0598 99010000 		.4byte	.LASF93
 816 059c 09       		.byte	0x9
 817 059d 8402     		.2byte	0x284
ARM GAS  /tmp/ccBGe30t.s 			page 16


 818 059f 65060000 		.4byte	0x665
 819 05a3 E002     		.2byte	0x2e0
 820 05a5 1B       		.uleb128 0x1b
 821 05a6 7E010000 		.4byte	.LASF94
 822 05aa 09       		.byte	0x9
 823 05ab 8502     		.2byte	0x285
 824 05ad C0080000 		.4byte	0x8c0
 825 05b1 EC02     		.2byte	0x2ec
 826 05b3 00       		.byte	0
 827 05b4 12       		.uleb128 0x12
 828 05b5 04       		.byte	0x4
 829 05b6 BA050000 		.4byte	0x5ba
 830 05ba 02       		.uleb128 0x2
 831 05bb 01       		.byte	0x1
 832 05bc 08       		.byte	0x8
 833 05bd E7040000 		.4byte	.LASF95
 834 05c1 18       		.uleb128 0x18
 835 05c2 BA050000 		.4byte	0x5ba
 836 05c6 12       		.uleb128 0x12
 837 05c7 04       		.byte	0x4
 838 05c8 59040000 		.4byte	0x459
 839 05cc 16       		.uleb128 0x16
 840 05cd 7E000000 		.4byte	0x7e
 841 05d1 EA050000 		.4byte	0x5ea
 842 05d5 17       		.uleb128 0x17
 843 05d6 77040000 		.4byte	0x477
 844 05da 17       		.uleb128 0x17
 845 05db D7000000 		.4byte	0xd7
 846 05df 17       		.uleb128 0x17
 847 05e0 EA050000 		.4byte	0x5ea
 848 05e4 17       		.uleb128 0x17
 849 05e5 7E000000 		.4byte	0x7e
 850 05e9 00       		.byte	0
 851 05ea 12       		.uleb128 0x12
 852 05eb 04       		.byte	0x4
 853 05ec C1050000 		.4byte	0x5c1
 854 05f0 18       		.uleb128 0x18
 855 05f1 EA050000 		.4byte	0x5ea
 856 05f5 12       		.uleb128 0x12
 857 05f6 04       		.byte	0x4
 858 05f7 CC050000 		.4byte	0x5cc
 859 05fb 16       		.uleb128 0x16
 860 05fc EF000000 		.4byte	0xef
 861 0600 19060000 		.4byte	0x619
 862 0604 17       		.uleb128 0x17
 863 0605 77040000 		.4byte	0x477
 864 0609 17       		.uleb128 0x17
 865 060a D7000000 		.4byte	0xd7
 866 060e 17       		.uleb128 0x17
 867 060f EF000000 		.4byte	0xef
 868 0613 17       		.uleb128 0x17
 869 0614 7E000000 		.4byte	0x7e
 870 0618 00       		.byte	0
 871 0619 12       		.uleb128 0x12
 872 061a 04       		.byte	0x4
 873 061b FB050000 		.4byte	0x5fb
 874 061f 16       		.uleb128 0x16
ARM GAS  /tmp/ccBGe30t.s 			page 17


 875 0620 7E000000 		.4byte	0x7e
 876 0624 33060000 		.4byte	0x633
 877 0628 17       		.uleb128 0x17
 878 0629 77040000 		.4byte	0x477
 879 062d 17       		.uleb128 0x17
 880 062e D7000000 		.4byte	0xd7
 881 0632 00       		.byte	0
 882 0633 12       		.uleb128 0x12
 883 0634 04       		.byte	0x4
 884 0635 1F060000 		.4byte	0x61f
 885 0639 0C       		.uleb128 0xc
 886 063a 2C000000 		.4byte	0x2c
 887 063e 49060000 		.4byte	0x649
 888 0642 0D       		.uleb128 0xd
 889 0643 B2000000 		.4byte	0xb2
 890 0647 02       		.byte	0x2
 891 0648 00       		.byte	0
 892 0649 0C       		.uleb128 0xc
 893 064a 2C000000 		.4byte	0x2c
 894 064e 59060000 		.4byte	0x659
 895 0652 0D       		.uleb128 0xd
 896 0653 B2000000 		.4byte	0xb2
 897 0657 00       		.byte	0
 898 0658 00       		.byte	0
 899 0659 09       		.uleb128 0x9
 900 065a 25040000 		.4byte	.LASF96
 901 065e 09       		.byte	0x9
 902 065f 1D01     		.2byte	0x11d
 903 0661 2F030000 		.4byte	0x32f
 904 0665 1C       		.uleb128 0x1c
 905 0666 BC050000 		.4byte	.LASF97
 906 066a 0C       		.byte	0xc
 907 066b 09       		.byte	0x9
 908 066c 2101     		.2byte	0x121
 909 066e 9A060000 		.4byte	0x69a
 910 0672 1A       		.uleb128 0x1a
 911 0673 12050000 		.4byte	.LASF30
 912 0677 09       		.byte	0x9
 913 0678 2301     		.2byte	0x123
 914 067a 9A060000 		.4byte	0x69a
 915 067e 00       		.byte	0
 916 067f 1A       		.uleb128 0x1a
 917 0680 B6020000 		.4byte	.LASF98
 918 0684 09       		.byte	0x9
 919 0685 2401     		.2byte	0x124
 920 0687 7E000000 		.4byte	0x7e
 921 068b 04       		.byte	0x4
 922 068c 1A       		.uleb128 0x1a
 923 068d 1F040000 		.4byte	.LASF99
 924 0691 09       		.byte	0x9
 925 0692 2501     		.2byte	0x125
 926 0694 A0060000 		.4byte	0x6a0
 927 0698 08       		.byte	0x8
 928 0699 00       		.byte	0
 929 069a 12       		.uleb128 0x12
 930 069b 04       		.byte	0x4
 931 069c 65060000 		.4byte	0x665
ARM GAS  /tmp/ccBGe30t.s 			page 18


 932 06a0 12       		.uleb128 0x12
 933 06a1 04       		.byte	0x4
 934 06a2 59060000 		.4byte	0x659
 935 06a6 1C       		.uleb128 0x1c
 936 06a7 26000000 		.4byte	.LASF100
 937 06ab 0E       		.byte	0xe
 938 06ac 09       		.byte	0x9
 939 06ad 3D01     		.2byte	0x13d
 940 06af DB060000 		.4byte	0x6db
 941 06b3 1A       		.uleb128 0x1a
 942 06b4 A6040000 		.4byte	.LASF101
 943 06b8 09       		.byte	0x9
 944 06b9 3E01     		.2byte	0x13e
 945 06bb DB060000 		.4byte	0x6db
 946 06bf 00       		.byte	0
 947 06c0 1A       		.uleb128 0x1a
 948 06c1 1C030000 		.4byte	.LASF102
 949 06c5 09       		.byte	0x9
 950 06c6 3F01     		.2byte	0x13f
 951 06c8 DB060000 		.4byte	0x6db
 952 06cc 06       		.byte	0x6
 953 06cd 1A       		.uleb128 0x1a
 954 06ce 41050000 		.4byte	.LASF103
 955 06d2 09       		.byte	0x9
 956 06d3 4001     		.2byte	0x140
 957 06d5 45000000 		.4byte	0x45
 958 06d9 0C       		.byte	0xc
 959 06da 00       		.byte	0
 960 06db 0C       		.uleb128 0xc
 961 06dc 45000000 		.4byte	0x45
 962 06e0 EB060000 		.4byte	0x6eb
 963 06e4 0D       		.uleb128 0xd
 964 06e5 B2000000 		.4byte	0xb2
 965 06e9 02       		.byte	0x2
 966 06ea 00       		.byte	0
 967 06eb 1D       		.uleb128 0x1d
 968 06ec D0       		.byte	0xd0
 969 06ed 09       		.byte	0x9
 970 06ee 5702     		.2byte	0x257
 971 06f0 EC070000 		.4byte	0x7ec
 972 06f4 1A       		.uleb128 0x1a
 973 06f5 AA050000 		.4byte	.LASF104
 974 06f9 09       		.byte	0x9
 975 06fa 5902     		.2byte	0x259
 976 06fc 85000000 		.4byte	0x85
 977 0700 00       		.byte	0
 978 0701 1A       		.uleb128 0x1a
 979 0702 18050000 		.4byte	.LASF105
 980 0706 09       		.byte	0x9
 981 0707 5A02     		.2byte	0x25a
 982 0709 B4050000 		.4byte	0x5b4
 983 070d 04       		.byte	0x4
 984 070e 1A       		.uleb128 0x1a
 985 070f EC020000 		.4byte	.LASF106
 986 0713 09       		.byte	0x9
 987 0714 5B02     		.2byte	0x25b
 988 0716 EC070000 		.4byte	0x7ec
ARM GAS  /tmp/ccBGe30t.s 			page 19


 989 071a 08       		.byte	0x8
 990 071b 1A       		.uleb128 0x1a
 991 071c 02060000 		.4byte	.LASF107
 992 0720 09       		.byte	0x9
 993 0721 5C02     		.2byte	0x25c
 994 0723 E0010000 		.4byte	0x1e0
 995 0727 24       		.byte	0x24
 996 0728 1A       		.uleb128 0x1a
 997 0729 69030000 		.4byte	.LASF108
 998 072d 09       		.byte	0x9
 999 072e 5D02     		.2byte	0x25d
 1000 0730 7E000000 		.4byte	0x7e
 1001 0734 48       		.byte	0x48
 1002 0735 1A       		.uleb128 0x1a
 1003 0736 D5020000 		.4byte	.LASF109
 1004 073a 09       		.byte	0x9
 1005 073b 5E02     		.2byte	0x25e
 1006 073d 77000000 		.4byte	0x77
 1007 0741 50       		.byte	0x50
 1008 0742 1A       		.uleb128 0x1a
 1009 0743 1A060000 		.4byte	.LASF110
 1010 0747 09       		.byte	0x9
 1011 0748 5F02     		.2byte	0x25f
 1012 074a A6060000 		.4byte	0x6a6
 1013 074e 58       		.byte	0x58
 1014 074f 1A       		.uleb128 0x1a
 1015 0750 5A040000 		.4byte	.LASF111
 1016 0754 09       		.byte	0x9
 1017 0755 6002     		.2byte	0x260
 1018 0757 56010000 		.4byte	0x156
 1019 075b 68       		.byte	0x68
 1020 075c 1A       		.uleb128 0x1a
 1021 075d 1F060000 		.4byte	.LASF112
 1022 0761 09       		.byte	0x9
 1023 0762 6102     		.2byte	0x261
 1024 0764 56010000 		.4byte	0x156
 1025 0768 70       		.byte	0x70
 1026 0769 1A       		.uleb128 0x1a
 1027 076a 2F010000 		.4byte	.LASF113
 1028 076e 09       		.byte	0x9
 1029 076f 6202     		.2byte	0x262
 1030 0771 56010000 		.4byte	0x156
 1031 0775 78       		.byte	0x78
 1032 0776 1A       		.uleb128 0x1a
 1033 0777 CB050000 		.4byte	.LASF114
 1034 077b 09       		.byte	0x9
 1035 077c 6302     		.2byte	0x263
 1036 077e FC070000 		.4byte	0x7fc
 1037 0782 80       		.byte	0x80
 1038 0783 1A       		.uleb128 0x1a
 1039 0784 E0020000 		.4byte	.LASF115
 1040 0788 09       		.byte	0x9
 1041 0789 6402     		.2byte	0x264
 1042 078b 0C080000 		.4byte	0x80c
 1043 078f 88       		.byte	0x88
 1044 0790 1A       		.uleb128 0x1a
 1045 0791 4E050000 		.4byte	.LASF116
ARM GAS  /tmp/ccBGe30t.s 			page 20


 1046 0795 09       		.byte	0x9
 1047 0796 6502     		.2byte	0x265
 1048 0798 7E000000 		.4byte	0x7e
 1049 079c A0       		.byte	0xa0
 1050 079d 1A       		.uleb128 0x1a
 1051 079e 26020000 		.4byte	.LASF117
 1052 07a2 09       		.byte	0x9
 1053 07a3 6602     		.2byte	0x266
 1054 07a5 56010000 		.4byte	0x156
 1055 07a9 A4       		.byte	0xa4
 1056 07aa 1A       		.uleb128 0x1a
 1057 07ab 20010000 		.4byte	.LASF118
 1058 07af 09       		.byte	0x9
 1059 07b0 6702     		.2byte	0x267
 1060 07b2 56010000 		.4byte	0x156
 1061 07b6 AC       		.byte	0xac
 1062 07b7 1A       		.uleb128 0x1a
 1063 07b8 06020000 		.4byte	.LASF119
 1064 07bc 09       		.byte	0x9
 1065 07bd 6802     		.2byte	0x268
 1066 07bf 56010000 		.4byte	0x156
 1067 07c3 B4       		.byte	0xb4
 1068 07c4 1A       		.uleb128 0x1a
 1069 07c5 51000000 		.4byte	.LASF120
 1070 07c9 09       		.byte	0x9
 1071 07ca 6902     		.2byte	0x269
 1072 07cc 56010000 		.4byte	0x156
 1073 07d0 BC       		.byte	0xbc
 1074 07d1 1A       		.uleb128 0x1a
 1075 07d2 60000000 		.4byte	.LASF121
 1076 07d6 09       		.byte	0x9
 1077 07d7 6A02     		.2byte	0x26a
 1078 07d9 56010000 		.4byte	0x156
 1079 07dd C4       		.byte	0xc4
 1080 07de 1A       		.uleb128 0x1a
 1081 07df F4030000 		.4byte	.LASF122
 1082 07e3 09       		.byte	0x9
 1083 07e4 6B02     		.2byte	0x26b
 1084 07e6 7E000000 		.4byte	0x7e
 1085 07ea CC       		.byte	0xcc
 1086 07eb 00       		.byte	0
 1087 07ec 0C       		.uleb128 0xc
 1088 07ed BA050000 		.4byte	0x5ba
 1089 07f1 FC070000 		.4byte	0x7fc
 1090 07f5 0D       		.uleb128 0xd
 1091 07f6 B2000000 		.4byte	0xb2
 1092 07fa 19       		.byte	0x19
 1093 07fb 00       		.byte	0
 1094 07fc 0C       		.uleb128 0xc
 1095 07fd BA050000 		.4byte	0x5ba
 1096 0801 0C080000 		.4byte	0x80c
 1097 0805 0D       		.uleb128 0xd
 1098 0806 B2000000 		.4byte	0xb2
 1099 080a 07       		.byte	0x7
 1100 080b 00       		.byte	0
 1101 080c 0C       		.uleb128 0xc
 1102 080d BA050000 		.4byte	0x5ba
ARM GAS  /tmp/ccBGe30t.s 			page 21


 1103 0811 1C080000 		.4byte	0x81c
 1104 0815 0D       		.uleb128 0xd
 1105 0816 B2000000 		.4byte	0xb2
 1106 081a 17       		.byte	0x17
 1107 081b 00       		.byte	0
 1108 081c 1D       		.uleb128 0x1d
 1109 081d F0       		.byte	0xf0
 1110 081e 09       		.byte	0x9
 1111 081f 7002     		.2byte	0x270
 1112 0821 40080000 		.4byte	0x840
 1113 0825 1A       		.uleb128 0x1a
 1114 0826 3C030000 		.4byte	.LASF123
 1115 082a 09       		.byte	0x9
 1116 082b 7302     		.2byte	0x273
 1117 082d 40080000 		.4byte	0x840
 1118 0831 00       		.byte	0
 1119 0832 1A       		.uleb128 0x1a
 1120 0833 C2050000 		.4byte	.LASF124
 1121 0837 09       		.byte	0x9
 1122 0838 7402     		.2byte	0x274
 1123 083a 50080000 		.4byte	0x850
 1124 083e 78       		.byte	0x78
 1125 083f 00       		.byte	0
 1126 0840 0C       		.uleb128 0xc
 1127 0841 29030000 		.4byte	0x329
 1128 0845 50080000 		.4byte	0x850
 1129 0849 0D       		.uleb128 0xd
 1130 084a B2000000 		.4byte	0xb2
 1131 084e 1D       		.byte	0x1d
 1132 084f 00       		.byte	0
 1133 0850 0C       		.uleb128 0xc
 1134 0851 85000000 		.4byte	0x85
 1135 0855 60080000 		.4byte	0x860
 1136 0859 0D       		.uleb128 0xd
 1137 085a B2000000 		.4byte	0xb2
 1138 085e 1D       		.byte	0x1d
 1139 085f 00       		.byte	0
 1140 0860 1E       		.uleb128 0x1e
 1141 0861 F0       		.byte	0xf0
 1142 0862 09       		.byte	0x9
 1143 0863 5502     		.2byte	0x255
 1144 0865 82080000 		.4byte	0x882
 1145 0869 1F       		.uleb128 0x1f
 1146 086a 9F040000 		.4byte	.LASF73
 1147 086e 09       		.byte	0x9
 1148 086f 6C02     		.2byte	0x26c
 1149 0871 EB060000 		.4byte	0x6eb
 1150 0875 1F       		.uleb128 0x1f
 1151 0876 EF050000 		.4byte	.LASF125
 1152 087a 09       		.byte	0x9
 1153 087b 7502     		.2byte	0x275
 1154 087d 1C080000 		.4byte	0x81c
 1155 0881 00       		.byte	0
 1156 0882 0C       		.uleb128 0xc
 1157 0883 BA050000 		.4byte	0x5ba
 1158 0887 92080000 		.4byte	0x892
 1159 088b 0D       		.uleb128 0xd
ARM GAS  /tmp/ccBGe30t.s 			page 22


 1160 088c B2000000 		.4byte	0xb2
 1161 0890 18       		.byte	0x18
 1162 0891 00       		.byte	0
 1163 0892 20       		.uleb128 0x20
 1164 0893 9D080000 		.4byte	0x89d
 1165 0897 17       		.uleb128 0x17
 1166 0898 77040000 		.4byte	0x477
 1167 089c 00       		.byte	0
 1168 089d 12       		.uleb128 0x12
 1169 089e 04       		.byte	0x4
 1170 089f 92080000 		.4byte	0x892
 1171 08a3 12       		.uleb128 0x12
 1172 08a4 04       		.byte	0x4
 1173 08a5 CA010000 		.4byte	0x1ca
 1174 08a9 20       		.uleb128 0x20
 1175 08aa B4080000 		.4byte	0x8b4
 1176 08ae 17       		.uleb128 0x17
 1177 08af 7E000000 		.4byte	0x7e
 1178 08b3 00       		.byte	0
 1179 08b4 12       		.uleb128 0x12
 1180 08b5 04       		.byte	0x4
 1181 08b6 BA080000 		.4byte	0x8ba
 1182 08ba 12       		.uleb128 0x12
 1183 08bb 04       		.byte	0x4
 1184 08bc A9080000 		.4byte	0x8a9
 1185 08c0 0C       		.uleb128 0xc
 1186 08c1 59060000 		.4byte	0x659
 1187 08c5 D0080000 		.4byte	0x8d0
 1188 08c9 0D       		.uleb128 0xd
 1189 08ca B2000000 		.4byte	0xb2
 1190 08ce 02       		.byte	0x2
 1191 08cf 00       		.byte	0
 1192 08d0 06       		.uleb128 0x6
 1193 08d1 4A020000 		.4byte	.LASF126
 1194 08d5 09       		.byte	0x9
 1195 08d6 FD02     		.2byte	0x2fd
 1196 08d8 77040000 		.4byte	0x477
 1197 08dc 06       		.uleb128 0x6
 1198 08dd 6C050000 		.4byte	.LASF127
 1199 08e1 09       		.byte	0x9
 1200 08e2 FE02     		.2byte	0x2fe
 1201 08e4 7D040000 		.4byte	0x47d
 1202 08e8 07       		.uleb128 0x7
 1203 08e9 54030000 		.4byte	.LASF128
 1204 08ed 0A       		.byte	0xa
 1205 08ee 5F       		.byte	0x5f
 1206 08ef B4050000 		.4byte	0x5b4
 1207 08f3 02       		.uleb128 0x2
 1208 08f4 08       		.byte	0x8
 1209 08f5 04       		.byte	0x4
 1210 08f6 EF010000 		.4byte	.LASF129
 1211 08fa 02       		.uleb128 0x2
 1212 08fb 04       		.byte	0x4
 1213 08fc 04       		.byte	0x4
 1214 08fd 7F030000 		.4byte	.LASF130
 1215 0901 21       		.uleb128 0x21
 1216 0902 5B050000 		.4byte	.LASF147
ARM GAS  /tmp/ccBGe30t.s 			page 23


 1217 0906 01       		.byte	0x1
 1218 0907 25000000 		.4byte	0x25
 1219 090b 0B       		.byte	0xb
 1220 090c 9902     		.2byte	0x299
 1221 090e 2B090000 		.4byte	0x92b
 1222 0912 22       		.uleb128 0x22
 1223 0913 91050000 		.4byte	.LASF131
 1224 0917 7F       		.sleb128 -1
 1225 0918 23       		.uleb128 0x23
 1226 0919 C0010000 		.4byte	.LASF132
 1227 091d 00       		.byte	0
 1228 091e 23       		.uleb128 0x23
 1229 091f 2E000000 		.4byte	.LASF133
 1230 0923 01       		.byte	0x1
 1231 0924 23       		.uleb128 0x23
 1232 0925 88000000 		.4byte	.LASF134
 1233 0929 02       		.byte	0x2
 1234 092a 00       		.byte	0
 1235 092b 06       		.uleb128 0x6
 1236 092c AD000000 		.4byte	.LASF135
 1237 0930 0B       		.byte	0xb
 1238 0931 A402     		.2byte	0x2a4
 1239 0933 01090000 		.4byte	0x901
 1240 0937 0C       		.uleb128 0xc
 1241 0938 F0050000 		.4byte	0x5f0
 1242 093c 42090000 		.4byte	0x942
 1243 0940 24       		.uleb128 0x24
 1244 0941 00       		.byte	0
 1245 0942 18       		.uleb128 0x18
 1246 0943 37090000 		.4byte	0x937
 1247 0947 07       		.uleb128 0x7
 1248 0948 11000000 		.4byte	.LASF136
 1249 094c 0C       		.byte	0xc
 1250 094d 14       		.byte	0x14
 1251 094e 42090000 		.4byte	0x942
 1252 0952 07       		.uleb128 0x7
 1253 0953 3F040000 		.4byte	.LASF137
 1254 0957 0C       		.byte	0xc
 1255 0958 15       		.byte	0x15
 1256 0959 7E000000 		.4byte	0x7e
 1257 095d 25       		.uleb128 0x25
 1258 095e 32060000 		.4byte	.LASF148
 1259 0962 01       		.byte	0x1
 1260 0963 0B       		.byte	0xb
 1261 0964 7E000000 		.4byte	0x7e
 1262 0968 00000000 		.4byte	.LFB64
 1263 096c 60000000 		.4byte	.LFE64-.LFB64
 1264 0970 01       		.uleb128 0x1
 1265 0971 9C       		.byte	0x9c
 1266 0972 350A0000 		.4byte	0xa35
 1267 0976 26       		.uleb128 0x26
 1268 0977 12030000 		.4byte	.LASF149
 1269 097b 01       		.byte	0x1
 1270 097c 0D       		.byte	0xd
 1271 097d 350A0000 		.4byte	0xa35
 1272 0981 02       		.uleb128 0x2
 1273 0982 91       		.byte	0x91
ARM GAS  /tmp/ccBGe30t.s 			page 24


 1274 0983 68       		.sleb128 -24
 1275 0984 27       		.uleb128 0x27
 1276 0985 08000000 		.4byte	.LVL0
 1277 0989 450A0000 		.4byte	0xa45
 1278 098d 27       		.uleb128 0x27
 1279 098e 0C000000 		.4byte	.LVL1
 1280 0992 500A0000 		.4byte	0xa50
 1281 0996 28       		.uleb128 0x28
 1282 0997 14000000 		.4byte	.LVL2
 1283 099b 5B0A0000 		.4byte	0xa5b
 1284 099f AB090000 		.4byte	0x9ab
 1285 09a3 29       		.uleb128 0x29
 1286 09a4 01       		.uleb128 0x1
 1287 09a5 50       		.byte	0x50
 1288 09a6 03       		.uleb128 0x3
 1289 09a7 0A       		.byte	0xa
 1290 09a8 E803     		.2byte	0x3e8
 1291 09aa 00       		.byte	0
 1292 09ab 28       		.uleb128 0x28
 1293 09ac 22000000 		.4byte	.LVL3
 1294 09b0 5B0A0000 		.4byte	0xa5b
 1295 09b4 BF090000 		.4byte	0x9bf
 1296 09b8 29       		.uleb128 0x29
 1297 09b9 01       		.uleb128 0x1
 1298 09ba 50       		.byte	0x50
 1299 09bb 02       		.uleb128 0x2
 1300 09bc 74       		.byte	0x74
 1301 09bd 00       		.sleb128 0
 1302 09be 00       		.byte	0
 1303 09bf 28       		.uleb128 0x28
 1304 09c0 28000000 		.4byte	.LVL4
 1305 09c4 660A0000 		.4byte	0xa66
 1306 09c8 D3090000 		.4byte	0x9d3
 1307 09cc 29       		.uleb128 0x29
 1308 09cd 01       		.uleb128 0x1
 1309 09ce 50       		.byte	0x50
 1310 09cf 02       		.uleb128 0x2
 1311 09d0 7D       		.byte	0x7d
 1312 09d1 00       		.sleb128 0
 1313 09d2 00       		.byte	0
 1314 09d3 27       		.uleb128 0x27
 1315 09d4 2C000000 		.4byte	.LVL5
 1316 09d8 720A0000 		.4byte	0xa72
 1317 09dc 28       		.uleb128 0x28
 1318 09dd 34000000 		.4byte	.LVL6
 1319 09e1 7D0A0000 		.4byte	0xa7d
 1320 09e5 F0090000 		.4byte	0x9f0
 1321 09e9 29       		.uleb128 0x29
 1322 09ea 01       		.uleb128 0x1
 1323 09eb 50       		.byte	0x50
 1324 09ec 02       		.uleb128 0x2
 1325 09ed 76       		.byte	0x76
 1326 09ee 00       		.sleb128 0
 1327 09ef 00       		.byte	0
 1328 09f0 28       		.uleb128 0x28
 1329 09f1 3C000000 		.4byte	.LVL7
 1330 09f5 7D0A0000 		.4byte	0xa7d
ARM GAS  /tmp/ccBGe30t.s 			page 25


 1331 09f9 0D0A0000 		.4byte	0xa0d
 1332 09fd 29       		.uleb128 0x29
 1333 09fe 01       		.uleb128 0x1
 1334 09ff 50       		.byte	0x50
 1335 0a00 05       		.uleb128 0x5
 1336 0a01 03       		.byte	0x3
 1337 0a02 1C000000 		.4byte	.LC2
 1338 0a06 29       		.uleb128 0x29
 1339 0a07 01       		.uleb128 0x1
 1340 0a08 51       		.byte	0x51
 1341 0a09 02       		.uleb128 0x2
 1342 0a0a 75       		.byte	0x75
 1343 0a0b 00       		.sleb128 0
 1344 0a0c 00       		.byte	0
 1345 0a0d 28       		.uleb128 0x28
 1346 0a0e 46000000 		.4byte	.LVL8
 1347 0a12 7D0A0000 		.4byte	0xa7d
 1348 0a16 240A0000 		.4byte	0xa24
 1349 0a1a 29       		.uleb128 0x29
 1350 0a1b 01       		.uleb128 0x1
 1351 0a1c 50       		.byte	0x50
 1352 0a1d 05       		.uleb128 0x5
 1353 0a1e 03       		.byte	0x3
 1354 0a1f 28000000 		.4byte	.LC3
 1355 0a23 00       		.byte	0
 1356 0a24 2A       		.uleb128 0x2a
 1357 0a25 4C000000 		.4byte	.LVL9
 1358 0a29 5B0A0000 		.4byte	0xa5b
 1359 0a2d 29       		.uleb128 0x29
 1360 0a2e 01       		.uleb128 0x1
 1361 0a2f 50       		.byte	0x50
 1362 0a30 02       		.uleb128 0x2
 1363 0a31 74       		.byte	0x74
 1364 0a32 00       		.sleb128 0
 1365 0a33 00       		.byte	0
 1366 0a34 00       		.byte	0
 1367 0a35 0C       		.uleb128 0xc
 1368 0a36 8C000000 		.4byte	0x8c
 1369 0a3a 450A0000 		.4byte	0xa45
 1370 0a3e 0D       		.uleb128 0xd
 1371 0a3f B2000000 		.4byte	0xb2
 1372 0a43 07       		.byte	0x7
 1373 0a44 00       		.byte	0
 1374 0a45 2B       		.uleb128 0x2b
 1375 0a46 A1030000 		.4byte	.LASF138
 1376 0a4a A1030000 		.4byte	.LASF138
 1377 0a4e 05       		.byte	0x5
 1378 0a4f 4F       		.byte	0x4f
 1379 0a50 2B       		.uleb128 0x2b
 1380 0a51 E6010000 		.4byte	.LASF139
 1381 0a55 E6010000 		.4byte	.LASF139
 1382 0a59 0D       		.byte	0xd
 1383 0a5a 0C       		.byte	0xc
 1384 0a5b 2B       		.uleb128 0x2b
 1385 0a5c 52040000 		.4byte	.LASF140
 1386 0a60 52040000 		.4byte	.LASF140
 1387 0a64 0D       		.byte	0xd
ARM GAS  /tmp/ccBGe30t.s 			page 26


 1388 0a65 0B       		.byte	0xb
 1389 0a66 2C       		.uleb128 0x2c
 1390 0a67 BD020000 		.4byte	.LASF141
 1391 0a6b BD020000 		.4byte	.LASF141
 1392 0a6f 0E       		.byte	0xe
 1393 0a70 9B01     		.2byte	0x19b
 1394 0a72 2B       		.uleb128 0x2b
 1395 0a73 9F050000 		.4byte	.LASF142
 1396 0a77 9F050000 		.4byte	.LASF142
 1397 0a7b 0D       		.byte	0xd
 1398 0a7c 06       		.byte	0x6
 1399 0a7d 2B       		.uleb128 0x2b
 1400 0a7e 00000000 		.4byte	.LASF143
 1401 0a82 00000000 		.4byte	.LASF143
 1402 0a86 0F       		.byte	0xf
 1403 0a87 BB       		.byte	0xbb
 1404 0a88 00       		.byte	0
 1405              		.section	.debug_abbrev,"",%progbits
 1406              	.Ldebug_abbrev0:
 1407 0000 01       		.uleb128 0x1
 1408 0001 11       		.uleb128 0x11
 1409 0002 01       		.byte	0x1
 1410 0003 25       		.uleb128 0x25
 1411 0004 0E       		.uleb128 0xe
 1412 0005 13       		.uleb128 0x13
 1413 0006 0B       		.uleb128 0xb
 1414 0007 03       		.uleb128 0x3
 1415 0008 0E       		.uleb128 0xe
 1416 0009 1B       		.uleb128 0x1b
 1417 000a 0E       		.uleb128 0xe
 1418 000b 11       		.uleb128 0x11
 1419 000c 01       		.uleb128 0x1
 1420 000d 12       		.uleb128 0x12
 1421 000e 06       		.uleb128 0x6
 1422 000f 10       		.uleb128 0x10
 1423 0010 17       		.uleb128 0x17
 1424 0011 00       		.byte	0
 1425 0012 00       		.byte	0
 1426 0013 02       		.uleb128 0x2
 1427 0014 24       		.uleb128 0x24
 1428 0015 00       		.byte	0
 1429 0016 0B       		.uleb128 0xb
 1430 0017 0B       		.uleb128 0xb
 1431 0018 3E       		.uleb128 0x3e
 1432 0019 0B       		.uleb128 0xb
 1433 001a 03       		.uleb128 0x3
 1434 001b 0E       		.uleb128 0xe
 1435 001c 00       		.byte	0
 1436 001d 00       		.byte	0
 1437 001e 03       		.uleb128 0x3
 1438 001f 16       		.uleb128 0x16
 1439 0020 00       		.byte	0
 1440 0021 03       		.uleb128 0x3
 1441 0022 0E       		.uleb128 0xe
 1442 0023 3A       		.uleb128 0x3a
 1443 0024 0B       		.uleb128 0xb
 1444 0025 3B       		.uleb128 0x3b
ARM GAS  /tmp/ccBGe30t.s 			page 27


 1445 0026 0B       		.uleb128 0xb
 1446 0027 49       		.uleb128 0x49
 1447 0028 13       		.uleb128 0x13
 1448 0029 00       		.byte	0
 1449 002a 00       		.byte	0
 1450 002b 04       		.uleb128 0x4
 1451 002c 24       		.uleb128 0x24
 1452 002d 00       		.byte	0
 1453 002e 0B       		.uleb128 0xb
 1454 002f 0B       		.uleb128 0xb
 1455 0030 3E       		.uleb128 0x3e
 1456 0031 0B       		.uleb128 0xb
 1457 0032 03       		.uleb128 0x3
 1458 0033 08       		.uleb128 0x8
 1459 0034 00       		.byte	0
 1460 0035 00       		.byte	0
 1461 0036 05       		.uleb128 0x5
 1462 0037 35       		.uleb128 0x35
 1463 0038 00       		.byte	0
 1464 0039 49       		.uleb128 0x49
 1465 003a 13       		.uleb128 0x13
 1466 003b 00       		.byte	0
 1467 003c 00       		.byte	0
 1468 003d 06       		.uleb128 0x6
 1469 003e 34       		.uleb128 0x34
 1470 003f 00       		.byte	0
 1471 0040 03       		.uleb128 0x3
 1472 0041 0E       		.uleb128 0xe
 1473 0042 3A       		.uleb128 0x3a
 1474 0043 0B       		.uleb128 0xb
 1475 0044 3B       		.uleb128 0x3b
 1476 0045 05       		.uleb128 0x5
 1477 0046 49       		.uleb128 0x49
 1478 0047 13       		.uleb128 0x13
 1479 0048 3F       		.uleb128 0x3f
 1480 0049 19       		.uleb128 0x19
 1481 004a 3C       		.uleb128 0x3c
 1482 004b 19       		.uleb128 0x19
 1483 004c 00       		.byte	0
 1484 004d 00       		.byte	0
 1485 004e 07       		.uleb128 0x7
 1486 004f 34       		.uleb128 0x34
 1487 0050 00       		.byte	0
 1488 0051 03       		.uleb128 0x3
 1489 0052 0E       		.uleb128 0xe
 1490 0053 3A       		.uleb128 0x3a
 1491 0054 0B       		.uleb128 0xb
 1492 0055 3B       		.uleb128 0x3b
 1493 0056 0B       		.uleb128 0xb
 1494 0057 49       		.uleb128 0x49
 1495 0058 13       		.uleb128 0x13
 1496 0059 3F       		.uleb128 0x3f
 1497 005a 19       		.uleb128 0x19
 1498 005b 3C       		.uleb128 0x3c
 1499 005c 19       		.uleb128 0x19
 1500 005d 00       		.byte	0
 1501 005e 00       		.byte	0
ARM GAS  /tmp/ccBGe30t.s 			page 28


 1502 005f 08       		.uleb128 0x8
 1503 0060 0F       		.uleb128 0xf
 1504 0061 00       		.byte	0
 1505 0062 0B       		.uleb128 0xb
 1506 0063 0B       		.uleb128 0xb
 1507 0064 00       		.byte	0
 1508 0065 00       		.byte	0
 1509 0066 09       		.uleb128 0x9
 1510 0067 16       		.uleb128 0x16
 1511 0068 00       		.byte	0
 1512 0069 03       		.uleb128 0x3
 1513 006a 0E       		.uleb128 0xe
 1514 006b 3A       		.uleb128 0x3a
 1515 006c 0B       		.uleb128 0xb
 1516 006d 3B       		.uleb128 0x3b
 1517 006e 05       		.uleb128 0x5
 1518 006f 49       		.uleb128 0x49
 1519 0070 13       		.uleb128 0x13
 1520 0071 00       		.byte	0
 1521 0072 00       		.byte	0
 1522 0073 0A       		.uleb128 0xa
 1523 0074 17       		.uleb128 0x17
 1524 0075 01       		.byte	0x1
 1525 0076 0B       		.uleb128 0xb
 1526 0077 0B       		.uleb128 0xb
 1527 0078 3A       		.uleb128 0x3a
 1528 0079 0B       		.uleb128 0xb
 1529 007a 3B       		.uleb128 0x3b
 1530 007b 0B       		.uleb128 0xb
 1531 007c 01       		.uleb128 0x1
 1532 007d 13       		.uleb128 0x13
 1533 007e 00       		.byte	0
 1534 007f 00       		.byte	0
 1535 0080 0B       		.uleb128 0xb
 1536 0081 0D       		.uleb128 0xd
 1537 0082 00       		.byte	0
 1538 0083 03       		.uleb128 0x3
 1539 0084 0E       		.uleb128 0xe
 1540 0085 3A       		.uleb128 0x3a
 1541 0086 0B       		.uleb128 0xb
 1542 0087 3B       		.uleb128 0x3b
 1543 0088 0B       		.uleb128 0xb
 1544 0089 49       		.uleb128 0x49
 1545 008a 13       		.uleb128 0x13
 1546 008b 00       		.byte	0
 1547 008c 00       		.byte	0
 1548 008d 0C       		.uleb128 0xc
 1549 008e 01       		.uleb128 0x1
 1550 008f 01       		.byte	0x1
 1551 0090 49       		.uleb128 0x49
 1552 0091 13       		.uleb128 0x13
 1553 0092 01       		.uleb128 0x1
 1554 0093 13       		.uleb128 0x13
 1555 0094 00       		.byte	0
 1556 0095 00       		.byte	0
 1557 0096 0D       		.uleb128 0xd
 1558 0097 21       		.uleb128 0x21
ARM GAS  /tmp/ccBGe30t.s 			page 29


 1559 0098 00       		.byte	0
 1560 0099 49       		.uleb128 0x49
 1561 009a 13       		.uleb128 0x13
 1562 009b 2F       		.uleb128 0x2f
 1563 009c 0B       		.uleb128 0xb
 1564 009d 00       		.byte	0
 1565 009e 00       		.byte	0
 1566 009f 0E       		.uleb128 0xe
 1567 00a0 13       		.uleb128 0x13
 1568 00a1 01       		.byte	0x1
 1569 00a2 0B       		.uleb128 0xb
 1570 00a3 0B       		.uleb128 0xb
 1571 00a4 3A       		.uleb128 0x3a
 1572 00a5 0B       		.uleb128 0xb
 1573 00a6 3B       		.uleb128 0x3b
 1574 00a7 0B       		.uleb128 0xb
 1575 00a8 01       		.uleb128 0x1
 1576 00a9 13       		.uleb128 0x13
 1577 00aa 00       		.byte	0
 1578 00ab 00       		.byte	0
 1579 00ac 0F       		.uleb128 0xf
 1580 00ad 0D       		.uleb128 0xd
 1581 00ae 00       		.byte	0
 1582 00af 03       		.uleb128 0x3
 1583 00b0 0E       		.uleb128 0xe
 1584 00b1 3A       		.uleb128 0x3a
 1585 00b2 0B       		.uleb128 0xb
 1586 00b3 3B       		.uleb128 0x3b
 1587 00b4 0B       		.uleb128 0xb
 1588 00b5 49       		.uleb128 0x49
 1589 00b6 13       		.uleb128 0x13
 1590 00b7 38       		.uleb128 0x38
 1591 00b8 0B       		.uleb128 0xb
 1592 00b9 00       		.byte	0
 1593 00ba 00       		.byte	0
 1594 00bb 10       		.uleb128 0x10
 1595 00bc 13       		.uleb128 0x13
 1596 00bd 01       		.byte	0x1
 1597 00be 03       		.uleb128 0x3
 1598 00bf 0E       		.uleb128 0xe
 1599 00c0 0B       		.uleb128 0xb
 1600 00c1 0B       		.uleb128 0xb
 1601 00c2 3A       		.uleb128 0x3a
 1602 00c3 0B       		.uleb128 0xb
 1603 00c4 3B       		.uleb128 0x3b
 1604 00c5 0B       		.uleb128 0xb
 1605 00c6 01       		.uleb128 0x1
 1606 00c7 13       		.uleb128 0x13
 1607 00c8 00       		.byte	0
 1608 00c9 00       		.byte	0
 1609 00ca 11       		.uleb128 0x11
 1610 00cb 0D       		.uleb128 0xd
 1611 00cc 00       		.byte	0
 1612 00cd 03       		.uleb128 0x3
 1613 00ce 08       		.uleb128 0x8
 1614 00cf 3A       		.uleb128 0x3a
 1615 00d0 0B       		.uleb128 0xb
ARM GAS  /tmp/ccBGe30t.s 			page 30


 1616 00d1 3B       		.uleb128 0x3b
 1617 00d2 0B       		.uleb128 0xb
 1618 00d3 49       		.uleb128 0x49
 1619 00d4 13       		.uleb128 0x13
 1620 00d5 38       		.uleb128 0x38
 1621 00d6 0B       		.uleb128 0xb
 1622 00d7 00       		.byte	0
 1623 00d8 00       		.byte	0
 1624 00d9 12       		.uleb128 0x12
 1625 00da 0F       		.uleb128 0xf
 1626 00db 00       		.byte	0
 1627 00dc 0B       		.uleb128 0xb
 1628 00dd 0B       		.uleb128 0xb
 1629 00de 49       		.uleb128 0x49
 1630 00df 13       		.uleb128 0x13
 1631 00e0 00       		.byte	0
 1632 00e1 00       		.byte	0
 1633 00e2 13       		.uleb128 0x13
 1634 00e3 13       		.uleb128 0x13
 1635 00e4 01       		.byte	0x1
 1636 00e5 03       		.uleb128 0x3
 1637 00e6 0E       		.uleb128 0xe
 1638 00e7 0B       		.uleb128 0xb
 1639 00e8 05       		.uleb128 0x5
 1640 00e9 3A       		.uleb128 0x3a
 1641 00ea 0B       		.uleb128 0xb
 1642 00eb 3B       		.uleb128 0x3b
 1643 00ec 0B       		.uleb128 0xb
 1644 00ed 01       		.uleb128 0x1
 1645 00ee 13       		.uleb128 0x13
 1646 00ef 00       		.byte	0
 1647 00f0 00       		.byte	0
 1648 00f1 14       		.uleb128 0x14
 1649 00f2 0D       		.uleb128 0xd
 1650 00f3 00       		.byte	0
 1651 00f4 03       		.uleb128 0x3
 1652 00f5 0E       		.uleb128 0xe
 1653 00f6 3A       		.uleb128 0x3a
 1654 00f7 0B       		.uleb128 0xb
 1655 00f8 3B       		.uleb128 0x3b
 1656 00f9 0B       		.uleb128 0xb
 1657 00fa 49       		.uleb128 0x49
 1658 00fb 13       		.uleb128 0x13
 1659 00fc 38       		.uleb128 0x38
 1660 00fd 05       		.uleb128 0x5
 1661 00fe 00       		.byte	0
 1662 00ff 00       		.byte	0
 1663 0100 15       		.uleb128 0x15
 1664 0101 15       		.uleb128 0x15
 1665 0102 00       		.byte	0
 1666 0103 27       		.uleb128 0x27
 1667 0104 19       		.uleb128 0x19
 1668 0105 00       		.byte	0
 1669 0106 00       		.byte	0
 1670 0107 16       		.uleb128 0x16
 1671 0108 15       		.uleb128 0x15
 1672 0109 01       		.byte	0x1
ARM GAS  /tmp/ccBGe30t.s 			page 31


 1673 010a 27       		.uleb128 0x27
 1674 010b 19       		.uleb128 0x19
 1675 010c 49       		.uleb128 0x49
 1676 010d 13       		.uleb128 0x13
 1677 010e 01       		.uleb128 0x1
 1678 010f 13       		.uleb128 0x13
 1679 0110 00       		.byte	0
 1680 0111 00       		.byte	0
 1681 0112 17       		.uleb128 0x17
 1682 0113 05       		.uleb128 0x5
 1683 0114 00       		.byte	0
 1684 0115 49       		.uleb128 0x49
 1685 0116 13       		.uleb128 0x13
 1686 0117 00       		.byte	0
 1687 0118 00       		.byte	0
 1688 0119 18       		.uleb128 0x18
 1689 011a 26       		.uleb128 0x26
 1690 011b 00       		.byte	0
 1691 011c 49       		.uleb128 0x49
 1692 011d 13       		.uleb128 0x13
 1693 011e 00       		.byte	0
 1694 011f 00       		.byte	0
 1695 0120 19       		.uleb128 0x19
 1696 0121 13       		.uleb128 0x13
 1697 0122 01       		.byte	0x1
 1698 0123 03       		.uleb128 0x3
 1699 0124 0E       		.uleb128 0xe
 1700 0125 0B       		.uleb128 0xb
 1701 0126 05       		.uleb128 0x5
 1702 0127 3A       		.uleb128 0x3a
 1703 0128 0B       		.uleb128 0xb
 1704 0129 3B       		.uleb128 0x3b
 1705 012a 05       		.uleb128 0x5
 1706 012b 01       		.uleb128 0x1
 1707 012c 13       		.uleb128 0x13
 1708 012d 00       		.byte	0
 1709 012e 00       		.byte	0
 1710 012f 1A       		.uleb128 0x1a
 1711 0130 0D       		.uleb128 0xd
 1712 0131 00       		.byte	0
 1713 0132 03       		.uleb128 0x3
 1714 0133 0E       		.uleb128 0xe
 1715 0134 3A       		.uleb128 0x3a
 1716 0135 0B       		.uleb128 0xb
 1717 0136 3B       		.uleb128 0x3b
 1718 0137 05       		.uleb128 0x5
 1719 0138 49       		.uleb128 0x49
 1720 0139 13       		.uleb128 0x13
 1721 013a 38       		.uleb128 0x38
 1722 013b 0B       		.uleb128 0xb
 1723 013c 00       		.byte	0
 1724 013d 00       		.byte	0
 1725 013e 1B       		.uleb128 0x1b
 1726 013f 0D       		.uleb128 0xd
 1727 0140 00       		.byte	0
 1728 0141 03       		.uleb128 0x3
 1729 0142 0E       		.uleb128 0xe
ARM GAS  /tmp/ccBGe30t.s 			page 32


 1730 0143 3A       		.uleb128 0x3a
 1731 0144 0B       		.uleb128 0xb
 1732 0145 3B       		.uleb128 0x3b
 1733 0146 05       		.uleb128 0x5
 1734 0147 49       		.uleb128 0x49
 1735 0148 13       		.uleb128 0x13
 1736 0149 38       		.uleb128 0x38
 1737 014a 05       		.uleb128 0x5
 1738 014b 00       		.byte	0
 1739 014c 00       		.byte	0
 1740 014d 1C       		.uleb128 0x1c
 1741 014e 13       		.uleb128 0x13
 1742 014f 01       		.byte	0x1
 1743 0150 03       		.uleb128 0x3
 1744 0151 0E       		.uleb128 0xe
 1745 0152 0B       		.uleb128 0xb
 1746 0153 0B       		.uleb128 0xb
 1747 0154 3A       		.uleb128 0x3a
 1748 0155 0B       		.uleb128 0xb
 1749 0156 3B       		.uleb128 0x3b
 1750 0157 05       		.uleb128 0x5
 1751 0158 01       		.uleb128 0x1
 1752 0159 13       		.uleb128 0x13
 1753 015a 00       		.byte	0
 1754 015b 00       		.byte	0
 1755 015c 1D       		.uleb128 0x1d
 1756 015d 13       		.uleb128 0x13
 1757 015e 01       		.byte	0x1
 1758 015f 0B       		.uleb128 0xb
 1759 0160 0B       		.uleb128 0xb
 1760 0161 3A       		.uleb128 0x3a
 1761 0162 0B       		.uleb128 0xb
 1762 0163 3B       		.uleb128 0x3b
 1763 0164 05       		.uleb128 0x5
 1764 0165 01       		.uleb128 0x1
 1765 0166 13       		.uleb128 0x13
 1766 0167 00       		.byte	0
 1767 0168 00       		.byte	0
 1768 0169 1E       		.uleb128 0x1e
 1769 016a 17       		.uleb128 0x17
 1770 016b 01       		.byte	0x1
 1771 016c 0B       		.uleb128 0xb
 1772 016d 0B       		.uleb128 0xb
 1773 016e 3A       		.uleb128 0x3a
 1774 016f 0B       		.uleb128 0xb
 1775 0170 3B       		.uleb128 0x3b
 1776 0171 05       		.uleb128 0x5
 1777 0172 01       		.uleb128 0x1
 1778 0173 13       		.uleb128 0x13
 1779 0174 00       		.byte	0
 1780 0175 00       		.byte	0
 1781 0176 1F       		.uleb128 0x1f
 1782 0177 0D       		.uleb128 0xd
 1783 0178 00       		.byte	0
 1784 0179 03       		.uleb128 0x3
 1785 017a 0E       		.uleb128 0xe
 1786 017b 3A       		.uleb128 0x3a
ARM GAS  /tmp/ccBGe30t.s 			page 33


 1787 017c 0B       		.uleb128 0xb
 1788 017d 3B       		.uleb128 0x3b
 1789 017e 05       		.uleb128 0x5
 1790 017f 49       		.uleb128 0x49
 1791 0180 13       		.uleb128 0x13
 1792 0181 00       		.byte	0
 1793 0182 00       		.byte	0
 1794 0183 20       		.uleb128 0x20
 1795 0184 15       		.uleb128 0x15
 1796 0185 01       		.byte	0x1
 1797 0186 27       		.uleb128 0x27
 1798 0187 19       		.uleb128 0x19
 1799 0188 01       		.uleb128 0x1
 1800 0189 13       		.uleb128 0x13
 1801 018a 00       		.byte	0
 1802 018b 00       		.byte	0
 1803 018c 21       		.uleb128 0x21
 1804 018d 04       		.uleb128 0x4
 1805 018e 01       		.byte	0x1
 1806 018f 03       		.uleb128 0x3
 1807 0190 0E       		.uleb128 0xe
 1808 0191 0B       		.uleb128 0xb
 1809 0192 0B       		.uleb128 0xb
 1810 0193 49       		.uleb128 0x49
 1811 0194 13       		.uleb128 0x13
 1812 0195 3A       		.uleb128 0x3a
 1813 0196 0B       		.uleb128 0xb
 1814 0197 3B       		.uleb128 0x3b
 1815 0198 05       		.uleb128 0x5
 1816 0199 01       		.uleb128 0x1
 1817 019a 13       		.uleb128 0x13
 1818 019b 00       		.byte	0
 1819 019c 00       		.byte	0
 1820 019d 22       		.uleb128 0x22
 1821 019e 28       		.uleb128 0x28
 1822 019f 00       		.byte	0
 1823 01a0 03       		.uleb128 0x3
 1824 01a1 0E       		.uleb128 0xe
 1825 01a2 1C       		.uleb128 0x1c
 1826 01a3 0D       		.uleb128 0xd
 1827 01a4 00       		.byte	0
 1828 01a5 00       		.byte	0
 1829 01a6 23       		.uleb128 0x23
 1830 01a7 28       		.uleb128 0x28
 1831 01a8 00       		.byte	0
 1832 01a9 03       		.uleb128 0x3
 1833 01aa 0E       		.uleb128 0xe
 1834 01ab 1C       		.uleb128 0x1c
 1835 01ac 0B       		.uleb128 0xb
 1836 01ad 00       		.byte	0
 1837 01ae 00       		.byte	0
 1838 01af 24       		.uleb128 0x24
 1839 01b0 21       		.uleb128 0x21
 1840 01b1 00       		.byte	0
 1841 01b2 00       		.byte	0
 1842 01b3 00       		.byte	0
 1843 01b4 25       		.uleb128 0x25
ARM GAS  /tmp/ccBGe30t.s 			page 34


 1844 01b5 2E       		.uleb128 0x2e
 1845 01b6 01       		.byte	0x1
 1846 01b7 3F       		.uleb128 0x3f
 1847 01b8 19       		.uleb128 0x19
 1848 01b9 03       		.uleb128 0x3
 1849 01ba 0E       		.uleb128 0xe
 1850 01bb 3A       		.uleb128 0x3a
 1851 01bc 0B       		.uleb128 0xb
 1852 01bd 3B       		.uleb128 0x3b
 1853 01be 0B       		.uleb128 0xb
 1854 01bf 27       		.uleb128 0x27
 1855 01c0 19       		.uleb128 0x19
 1856 01c1 49       		.uleb128 0x49
 1857 01c2 13       		.uleb128 0x13
 1858 01c3 11       		.uleb128 0x11
 1859 01c4 01       		.uleb128 0x1
 1860 01c5 12       		.uleb128 0x12
 1861 01c6 06       		.uleb128 0x6
 1862 01c7 40       		.uleb128 0x40
 1863 01c8 18       		.uleb128 0x18
 1864 01c9 9742     		.uleb128 0x2117
 1865 01cb 19       		.uleb128 0x19
 1866 01cc 01       		.uleb128 0x1
 1867 01cd 13       		.uleb128 0x13
 1868 01ce 00       		.byte	0
 1869 01cf 00       		.byte	0
 1870 01d0 26       		.uleb128 0x26
 1871 01d1 34       		.uleb128 0x34
 1872 01d2 00       		.byte	0
 1873 01d3 03       		.uleb128 0x3
 1874 01d4 0E       		.uleb128 0xe
 1875 01d5 3A       		.uleb128 0x3a
 1876 01d6 0B       		.uleb128 0xb
 1877 01d7 3B       		.uleb128 0x3b
 1878 01d8 0B       		.uleb128 0xb
 1879 01d9 49       		.uleb128 0x49
 1880 01da 13       		.uleb128 0x13
 1881 01db 02       		.uleb128 0x2
 1882 01dc 18       		.uleb128 0x18
 1883 01dd 00       		.byte	0
 1884 01de 00       		.byte	0
 1885 01df 27       		.uleb128 0x27
 1886 01e0 898201   		.uleb128 0x4109
 1887 01e3 00       		.byte	0
 1888 01e4 11       		.uleb128 0x11
 1889 01e5 01       		.uleb128 0x1
 1890 01e6 31       		.uleb128 0x31
 1891 01e7 13       		.uleb128 0x13
 1892 01e8 00       		.byte	0
 1893 01e9 00       		.byte	0
 1894 01ea 28       		.uleb128 0x28
 1895 01eb 898201   		.uleb128 0x4109
 1896 01ee 01       		.byte	0x1
 1897 01ef 11       		.uleb128 0x11
 1898 01f0 01       		.uleb128 0x1
 1899 01f1 31       		.uleb128 0x31
 1900 01f2 13       		.uleb128 0x13
ARM GAS  /tmp/ccBGe30t.s 			page 35


 1901 01f3 01       		.uleb128 0x1
 1902 01f4 13       		.uleb128 0x13
 1903 01f5 00       		.byte	0
 1904 01f6 00       		.byte	0
 1905 01f7 29       		.uleb128 0x29
 1906 01f8 8A8201   		.uleb128 0x410a
 1907 01fb 00       		.byte	0
 1908 01fc 02       		.uleb128 0x2
 1909 01fd 18       		.uleb128 0x18
 1910 01fe 9142     		.uleb128 0x2111
 1911 0200 18       		.uleb128 0x18
 1912 0201 00       		.byte	0
 1913 0202 00       		.byte	0
 1914 0203 2A       		.uleb128 0x2a
 1915 0204 898201   		.uleb128 0x4109
 1916 0207 01       		.byte	0x1
 1917 0208 11       		.uleb128 0x11
 1918 0209 01       		.uleb128 0x1
 1919 020a 31       		.uleb128 0x31
 1920 020b 13       		.uleb128 0x13
 1921 020c 00       		.byte	0
 1922 020d 00       		.byte	0
 1923 020e 2B       		.uleb128 0x2b
 1924 020f 2E       		.uleb128 0x2e
 1925 0210 00       		.byte	0
 1926 0211 3F       		.uleb128 0x3f
 1927 0212 19       		.uleb128 0x19
 1928 0213 3C       		.uleb128 0x3c
 1929 0214 19       		.uleb128 0x19
 1930 0215 6E       		.uleb128 0x6e
 1931 0216 0E       		.uleb128 0xe
 1932 0217 03       		.uleb128 0x3
 1933 0218 0E       		.uleb128 0xe
 1934 0219 3A       		.uleb128 0x3a
 1935 021a 0B       		.uleb128 0xb
 1936 021b 3B       		.uleb128 0x3b
 1937 021c 0B       		.uleb128 0xb
 1938 021d 00       		.byte	0
 1939 021e 00       		.byte	0
 1940 021f 2C       		.uleb128 0x2c
 1941 0220 2E       		.uleb128 0x2e
 1942 0221 00       		.byte	0
 1943 0222 3F       		.uleb128 0x3f
 1944 0223 19       		.uleb128 0x19
 1945 0224 3C       		.uleb128 0x3c
 1946 0225 19       		.uleb128 0x19
 1947 0226 6E       		.uleb128 0x6e
 1948 0227 0E       		.uleb128 0xe
 1949 0228 03       		.uleb128 0x3
 1950 0229 0E       		.uleb128 0xe
 1951 022a 3A       		.uleb128 0x3a
 1952 022b 0B       		.uleb128 0xb
 1953 022c 3B       		.uleb128 0x3b
 1954 022d 05       		.uleb128 0x5
 1955 022e 00       		.byte	0
 1956 022f 00       		.byte	0
 1957 0230 00       		.byte	0
ARM GAS  /tmp/ccBGe30t.s 			page 36


 1958              		.section	.debug_aranges,"",%progbits
 1959 0000 1C000000 		.4byte	0x1c
 1960 0004 0200     		.2byte	0x2
 1961 0006 00000000 		.4byte	.Ldebug_info0
 1962 000a 04       		.byte	0x4
 1963 000b 00       		.byte	0
 1964 000c 0000     		.2byte	0
 1965 000e 0000     		.2byte	0
 1966 0010 00000000 		.4byte	.Ltext0
 1967 0014 60000000 		.4byte	.Letext0-.Ltext0
 1968 0018 00000000 		.4byte	0
 1969 001c 00000000 		.4byte	0
 1970              		.section	.debug_line,"",%progbits
 1971              	.Ldebug_line0:
 1972 0000 46020000 		.section	.debug_str,"MS",%progbits,1
 1972      02000D02 
 1972      00000201 
 1972      FB0E0D00 
 1972      01010101 
 1973              	.LASF143:
 1974 0000 7072696E 		.ascii	"printf\000"
 1974      746600
 1975              	.LASF2:
 1976 0007 73686F72 		.ascii	"short int\000"
 1976      7420696E 
 1976      7400
 1977              	.LASF136:
 1978 0011 5F737973 		.ascii	"_sys_errlist\000"
 1978      5F657272 
 1978      6C697374 
 1978      00
 1979              	.LASF46:
 1980 001e 5F666E61 		.ascii	"_fnargs\000"
 1980      72677300 
 1981              	.LASF100:
 1982 0026 5F72616E 		.ascii	"_rand48\000"
 1982      64343800 
 1983              	.LASF133:
 1984 002e 5F5F6664 		.ascii	"__fdlibm_xopen\000"
 1984      6C69626D 
 1984      5F786F70 
 1984      656E00
 1985              	.LASF79:
 1986 003d 5F656D65 		.ascii	"_emergency\000"
 1986      7267656E 
 1986      637900
 1987              	.LASF91:
 1988 0048 5F617465 		.ascii	"_atexit0\000"
 1988      78697430 
 1988      00
 1989              	.LASF120:
 1990 0051 5F776372 		.ascii	"_wcrtomb_state\000"
 1990      746F6D62 
 1990      5F737461 
 1990      746500
 1991              	.LASF121:
 1992 0060 5F776373 		.ascii	"_wcsrtombs_state\000"
ARM GAS  /tmp/ccBGe30t.s 			page 37


 1992      72746F6D 
 1992      62735F73 
 1992      74617465 
 1992      00
 1993              	.LASF10:
 1994 0071 6C6F6E67 		.ascii	"long long unsigned int\000"
 1994      206C6F6E 
 1994      6720756E 
 1994      7369676E 
 1994      65642069 
 1995              	.LASF134:
 1996 0088 5F5F6664 		.ascii	"__fdlibm_posix\000"
 1996      6C69626D 
 1996      5F706F73 
 1996      697800
 1997              	.LASF59:
 1998 0097 5F6C6266 		.ascii	"_lbfsize\000"
 1998      73697A65 
 1998      00
 1999              	.LASF16:
 2000 00a0 49544D5F 		.ascii	"ITM_RxBuffer\000"
 2000      52784275 
 2000      66666572 
 2000      00
 2001              	.LASF135:
 2002 00ad 5F5F6664 		.ascii	"__fdlib_version\000"
 2002      6C69625F 
 2002      76657273 
 2002      696F6E00 
 2003              	.LASF144:
 2004 00bd 474E5520 		.ascii	"GNU C11 6.1.1 20160526 -mcpu=cortex-m3 -mthumb -mfl"
 2004      43313120 
 2004      362E312E 
 2004      31203230 
 2004      31363035 
 2005 00f0 6F61742D 		.ascii	"oat-abi=soft -g -O1 -fno-common -fno-math-errno\000"
 2005      6162693D 
 2005      736F6674 
 2005      202D6720 
 2005      2D4F3120 
 2006              	.LASF118:
 2007 0120 5F6D6272 		.ascii	"_mbrtowc_state\000"
 2007      746F7763 
 2007      5F737461 
 2007      746500
 2008              	.LASF113:
 2009 012f 5F776374 		.ascii	"_wctomb_state\000"
 2009      6F6D625F 
 2009      73746174 
 2009      6500
 2010              	.LASF36:
 2011 013d 5F5F746D 		.ascii	"__tm_sec\000"
 2011      5F736563 
 2011      00
 2012              	.LASF12:
 2013 0146 696E7431 		.ascii	"int16_t\000"
 2013      365F7400 
ARM GAS  /tmp/ccBGe30t.s 			page 38


 2014              	.LASF20:
 2015 014e 5F6F6666 		.ascii	"_off_t\000"
 2015      5F7400
 2016              	.LASF64:
 2017 0155 5F636C6F 		.ascii	"_close\000"
 2017      736500
 2018              	.LASF0:
 2019 015c 7369676E 		.ascii	"signed char\000"
 2019      65642063 
 2019      68617200 
 2020              	.LASF65:
 2021 0168 5F756275 		.ascii	"_ubuf\000"
 2021      6600
 2022              	.LASF54:
 2023 016e 5F626173 		.ascii	"_base\000"
 2023      6500
 2024              	.LASF38:
 2025 0174 5F5F746D 		.ascii	"__tm_hour\000"
 2025      5F686F75 
 2025      7200
 2026              	.LASF94:
 2027 017e 5F5F7366 		.ascii	"__sf\000"
 2027      00
 2028              	.LASF45:
 2029 0183 5F6F6E5F 		.ascii	"_on_exit_args\000"
 2029      65786974 
 2029      5F617267 
 2029      7300
 2030              	.LASF60:
 2031 0191 5F636F6F 		.ascii	"_cookie\000"
 2031      6B696500 
 2032              	.LASF93:
 2033 0199 5F5F7367 		.ascii	"__sglue\000"
 2033      6C756500 
 2034              	.LASF6:
 2035 01a1 6C6F6E67 		.ascii	"long int\000"
 2035      20696E74 
 2035      00
 2036              	.LASF57:
 2037 01aa 5F666C61 		.ascii	"_flags\000"
 2037      677300
 2038              	.LASF49:
 2039 01b1 5F69735F 		.ascii	"_is_cxa\000"
 2039      63786100 
 2040              	.LASF75:
 2041 01b9 5F737464 		.ascii	"_stdin\000"
 2041      696E00
 2042              	.LASF132:
 2043 01c0 5F5F6664 		.ascii	"__fdlibm_svid\000"
 2043      6C69626D 
 2043      5F737669 
 2043      6400
 2044              	.LASF85:
 2045 01ce 5F726573 		.ascii	"_result_k\000"
 2045      756C745F 
 2045      6B00
 2046              	.LASF9:
ARM GAS  /tmp/ccBGe30t.s 			page 39


 2047 01d8 6C6F6E67 		.ascii	"long long int\000"
 2047      206C6F6E 
 2047      6720696E 
 2047      7400
 2048              	.LASF139:
 2049 01e6 55736572 		.ascii	"UserInit\000"
 2049      496E6974 
 2049      00
 2050              	.LASF129:
 2051 01ef 646F7562 		.ascii	"double\000"
 2051      6C6500
 2052              	.LASF89:
 2053 01f6 5F637674 		.ascii	"_cvtbuf\000"
 2053      62756600 
 2054              	.LASF68:
 2055 01fe 5F6F6666 		.ascii	"_offset\000"
 2055      73657400 
 2056              	.LASF119:
 2057 0206 5F6D6273 		.ascii	"_mbsrtowcs_state\000"
 2057      72746F77 
 2057      63735F73 
 2057      74617465 
 2057      00
 2058              	.LASF145:
 2059 0217 70726F6A 		.ascii	"project/main.c\000"
 2059      6563742F 
 2059      6D61696E 
 2059      2E6300
 2060              	.LASF117:
 2061 0226 5F6D6272 		.ascii	"_mbrlen_state\000"
 2061      6C656E5F 
 2061      73746174 
 2061      6500
 2062              	.LASF52:
 2063 0234 5F666E73 		.ascii	"_fns\000"
 2063      00
 2064              	.LASF7:
 2065 0239 5F5F7569 		.ascii	"__uint32_t\000"
 2065      6E743332 
 2065      5F7400
 2066              	.LASF32:
 2067 0244 5F736967 		.ascii	"_sign\000"
 2067      6E00
 2068              	.LASF126:
 2069 024a 5F696D70 		.ascii	"_impure_ptr\000"
 2069      7572655F 
 2069      70747200 
 2070              	.LASF77:
 2071 0256 5F737464 		.ascii	"_stderr\000"
 2071      65727200 
 2072              	.LASF34:
 2073 025e 5F426967 		.ascii	"_Bigint\000"
 2073      696E7400 
 2074              	.LASF61:
 2075 0266 5F726561 		.ascii	"_read\000"
 2075      6400
 2076              	.LASF35:
ARM GAS  /tmp/ccBGe30t.s 			page 40


 2077 026c 5F5F746D 		.ascii	"__tm\000"
 2077      00
 2078              	.LASF24:
 2079 0271 5F5F7763 		.ascii	"__wchb\000"
 2079      686200
 2080              	.LASF17:
 2081 0278 53797374 		.ascii	"SystemCoreClock\000"
 2081      656D436F 
 2081      7265436C 
 2081      6F636B00 
 2082              	.LASF76:
 2083 0288 5F737464 		.ascii	"_stdout\000"
 2083      6F757400 
 2084              	.LASF88:
 2085 0290 5F637674 		.ascii	"_cvtlen\000"
 2085      6C656E00 
 2086              	.LASF8:
 2087 0298 6C6F6E67 		.ascii	"long unsigned int\000"
 2087      20756E73 
 2087      69676E65 
 2087      6420696E 
 2087      7400
 2088              	.LASF58:
 2089 02aa 5F66696C 		.ascii	"_file\000"
 2089      6500
 2090              	.LASF69:
 2091 02b0 5F646174 		.ascii	"_data\000"
 2091      6100
 2092              	.LASF98:
 2093 02b6 5F6E696F 		.ascii	"_niobs\000"
 2093      627300
 2094              	.LASF141:
 2095 02bd 4D505536 		.ascii	"MPU6050_GetRawAccelGyro\000"
 2095      3035305F 
 2095      47657452 
 2095      61774163 
 2095      63656C47 
 2096              	.LASF109:
 2097 02d5 5F72616E 		.ascii	"_rand_next\000"
 2097      645F6E65 
 2097      787400
 2098              	.LASF115:
 2099 02e0 5F736967 		.ascii	"_signal_buf\000"
 2099      6E616C5F 
 2099      62756600 
 2100              	.LASF106:
 2101 02ec 5F617363 		.ascii	"_asctime_buf\000"
 2101      74696D65 
 2101      5F627566 
 2101      00
 2102              	.LASF84:
 2103 02f9 5F726573 		.ascii	"_result\000"
 2103      756C7400 
 2104              	.LASF23:
 2105 0301 5F5F7763 		.ascii	"__wch\000"
 2105      6800
 2106              	.LASF90:
ARM GAS  /tmp/ccBGe30t.s 			page 41


 2107 0307 5F6E6577 		.ascii	"_new\000"
 2107      00
 2108              	.LASF70:
 2109 030c 5F6C6F63 		.ascii	"_lock\000"
 2109      6B00
 2110              	.LASF149:
 2111 0312 41636365 		.ascii	"AccelGyro\000"
 2111      6C477972 
 2111      6F00
 2112              	.LASF102:
 2113 031c 5F6D756C 		.ascii	"_mult\000"
 2113      7400
 2114              	.LASF62:
 2115 0322 5F777269 		.ascii	"_write\000"
 2115      746500
 2116              	.LASF41:
 2117 0329 5F5F746D 		.ascii	"__tm_year\000"
 2117      5F796561 
 2117      7200
 2118              	.LASF15:
 2119 0333 73697A65 		.ascii	"sizetype\000"
 2119      74797065 
 2119      00
 2120              	.LASF123:
 2121 033c 5F6E6578 		.ascii	"_nextf\000"
 2121      746600
 2122              	.LASF40:
 2123 0343 5F5F746D 		.ascii	"__tm_mon\000"
 2123      5F6D6F6E 
 2123      00
 2124              	.LASF50:
 2125 034c 5F617465 		.ascii	"_atexit\000"
 2125      78697400 
 2126              	.LASF128:
 2127 0354 7375626F 		.ascii	"suboptarg\000"
 2127      70746172 
 2127      6700
 2128              	.LASF82:
 2129 035e 5F5F7364 		.ascii	"__sdidinit\000"
 2129      6964696E 
 2129      697400
 2130              	.LASF108:
 2131 0369 5F67616D 		.ascii	"_gamma_signgam\000"
 2131      6D615F73 
 2131      69676E67 
 2131      616D00
 2132              	.LASF22:
 2133 0378 77696E74 		.ascii	"wint_t\000"
 2133      5F7400
 2134              	.LASF130:
 2135 037f 666C6F61 		.ascii	"float\000"
 2135      7400
 2136              	.LASF87:
 2137 0385 5F667265 		.ascii	"_freelist\000"
 2137      656C6973 
 2137      7400
 2138              	.LASF19:
ARM GAS  /tmp/ccBGe30t.s 			page 42


 2139 038f 5F4C4F43 		.ascii	"_LOCK_RECURSIVE_T\000"
 2139      4B5F5245 
 2139      43555253 
 2139      4956455F 
 2139      5400
 2140              	.LASF138:
 2141 03a1 53797374 		.ascii	"SystemInit\000"
 2141      656D496E 
 2141      697400
 2142              	.LASF13:
 2143 03ac 696E7433 		.ascii	"int32_t\000"
 2143      325F7400 
 2144              	.LASF1:
 2145 03b4 756E7369 		.ascii	"unsigned char\000"
 2145      676E6564 
 2145      20636861 
 2145      7200
 2146              	.LASF146:
 2147 03c2 2F686F6D 		.ascii	"/home/faker/Documents/code/STM/stm32-quadrocopter\000"
 2147      652F6661 
 2147      6B65722F 
 2147      446F6375 
 2147      6D656E74 
 2148              	.LASF122:
 2149 03f4 5F685F65 		.ascii	"_h_errno\000"
 2149      72726E6F 
 2149      00
 2150              	.LASF28:
 2151 03fd 5F666C6F 		.ascii	"_flock_t\000"
 2151      636B5F74 
 2151      00
 2152              	.LASF43:
 2153 0406 5F5F746D 		.ascii	"__tm_yday\000"
 2153      5F796461 
 2153      7900
 2154              	.LASF53:
 2155 0410 5F5F7362 		.ascii	"__sbuf\000"
 2155      756600
 2156              	.LASF72:
 2157 0417 5F666C61 		.ascii	"_flags2\000"
 2157      67733200 
 2158              	.LASF99:
 2159 041f 5F696F62 		.ascii	"_iobs\000"
 2159      7300
 2160              	.LASF96:
 2161 0425 5F5F4649 		.ascii	"__FILE\000"
 2161      4C4500
 2162              	.LASF27:
 2163 042c 5F6D6273 		.ascii	"_mbstate_t\000"
 2163      74617465 
 2163      5F7400
 2164              	.LASF56:
 2165 0437 5F5F7346 		.ascii	"__sFILE\000"
 2165      494C4500 
 2166              	.LASF137:
 2167 043f 5F737973 		.ascii	"_sys_nerr\000"
 2167      5F6E6572 
ARM GAS  /tmp/ccBGe30t.s 			page 43


 2167      7200
 2168              	.LASF71:
 2169 0449 5F6D6273 		.ascii	"_mbstate\000"
 2169      74617465 
 2169      00
 2170              	.LASF140:
 2171 0452 44656C61 		.ascii	"DelayMs\000"
 2171      794D7300 
 2172              	.LASF111:
 2173 045a 5F6D626C 		.ascii	"_mblen_state\000"
 2173      656E5F73 
 2173      74617465 
 2173      00
 2174              	.LASF78:
 2175 0467 5F696E63 		.ascii	"_inc\000"
 2175      00
 2176              	.LASF51:
 2177 046c 5F696E64 		.ascii	"_ind\000"
 2177      00
 2178              	.LASF81:
 2179 0471 5F637572 		.ascii	"_current_locale\000"
 2179      72656E74 
 2179      5F6C6F63 
 2179      616C6500 
 2180              	.LASF47:
 2181 0481 5F64736F 		.ascii	"_dso_handle\000"
 2181      5F68616E 
 2181      646C6500 
 2182              	.LASF83:
 2183 048d 5F5F636C 		.ascii	"__cleanup\000"
 2183      65616E75 
 2183      7000
 2184              	.LASF31:
 2185 0497 5F6D6178 		.ascii	"_maxwds\000"
 2185      77647300 
 2186              	.LASF73:
 2187 049f 5F726565 		.ascii	"_reent\000"
 2187      6E7400
 2188              	.LASF101:
 2189 04a6 5F736565 		.ascii	"_seed\000"
 2189      6400
 2190              	.LASF25:
 2191 04ac 5F5F636F 		.ascii	"__count\000"
 2191      756E7400 
 2192              	.LASF26:
 2193 04b4 5F5F7661 		.ascii	"__value\000"
 2193      6C756500 
 2194              	.LASF63:
 2195 04bc 5F736565 		.ascii	"_seek\000"
 2195      6B00
 2196              	.LASF42:
 2197 04c2 5F5F746D 		.ascii	"__tm_wday\000"
 2197      5F776461 
 2197      7900
 2198              	.LASF21:
 2199 04cc 5F66706F 		.ascii	"_fpos_t\000"
 2199      735F7400 
ARM GAS  /tmp/ccBGe30t.s 			page 44


 2200              	.LASF18:
 2201 04d4 6C6F6E67 		.ascii	"long double\000"
 2201      20646F75 
 2201      626C6500 
 2202              	.LASF74:
 2203 04e0 5F657272 		.ascii	"_errno\000"
 2203      6E6F00
 2204              	.LASF95:
 2205 04e7 63686172 		.ascii	"char\000"
 2205      00
 2206              	.LASF67:
 2207 04ec 5F626C6B 		.ascii	"_blksize\000"
 2207      73697A65 
 2207      00
 2208              	.LASF55:
 2209 04f5 5F73697A 		.ascii	"_size\000"
 2209      6500
 2210              	.LASF11:
 2211 04fb 756E7369 		.ascii	"unsigned int\000"
 2211      676E6564 
 2211      20696E74 
 2211      00
 2212              	.LASF5:
 2213 0508 5F5F696E 		.ascii	"__int32_t\000"
 2213      7433325F 
 2213      7400
 2214              	.LASF30:
 2215 0512 5F6E6578 		.ascii	"_next\000"
 2215      7400
 2216              	.LASF105:
 2217 0518 5F737472 		.ascii	"_strtok_last\000"
 2217      746F6B5F 
 2217      6C617374 
 2217      00
 2218              	.LASF48:
 2219 0525 5F666E74 		.ascii	"_fntypes\000"
 2219      79706573 
 2219      00
 2220              	.LASF3:
 2221 052e 73686F72 		.ascii	"short unsigned int\000"
 2221      7420756E 
 2221      7369676E 
 2221      65642069 
 2221      6E7400
 2222              	.LASF103:
 2223 0541 5F616464 		.ascii	"_add\000"
 2223      00
 2224              	.LASF29:
 2225 0546 5F5F554C 		.ascii	"__ULong\000"
 2225      6F6E6700 
 2226              	.LASF116:
 2227 054e 5F676574 		.ascii	"_getdate_err\000"
 2227      64617465 
 2227      5F657272 
 2227      00
 2228              	.LASF147:
 2229 055b 5F5F6664 		.ascii	"__fdlibm_version\000"
ARM GAS  /tmp/ccBGe30t.s 			page 45


 2229      6C69626D 
 2229      5F766572 
 2229      73696F6E 
 2229      00
 2230              	.LASF127:
 2231 056c 5F676C6F 		.ascii	"_global_impure_ptr\000"
 2231      62616C5F 
 2231      696D7075 
 2231      72655F70 
 2231      747200
 2232              	.LASF80:
 2233 057f 5F637572 		.ascii	"_current_category\000"
 2233      72656E74 
 2233      5F636174 
 2233      65676F72 
 2233      7900
 2234              	.LASF131:
 2235 0591 5F5F6664 		.ascii	"__fdlibm_ieee\000"
 2235      6C69626D 
 2235      5F696565 
 2235      6500
 2236              	.LASF142:
 2237 059f 48435352 		.ascii	"HCSR04_Get\000"
 2237      30345F47 
 2237      657400
 2238              	.LASF104:
 2239 05aa 5F756E75 		.ascii	"_unused_rand\000"
 2239      7365645F 
 2239      72616E64 
 2239      00
 2240              	.LASF33:
 2241 05b7 5F776473 		.ascii	"_wds\000"
 2241      00
 2242              	.LASF97:
 2243 05bc 5F676C75 		.ascii	"_glue\000"
 2243      6500
 2244              	.LASF124:
 2245 05c2 5F6E6D61 		.ascii	"_nmalloc\000"
 2245      6C6C6F63 
 2245      00
 2246              	.LASF114:
 2247 05cb 5F6C3634 		.ascii	"_l64a_buf\000"
 2247      615F6275 
 2247      6600
 2248              	.LASF92:
 2249 05d5 5F736967 		.ascii	"_sig_func\000"
 2249      5F66756E 
 2249      6300
 2250              	.LASF4:
 2251 05df 5F5F696E 		.ascii	"__int16_t\000"
 2251      7431365F 
 2251      7400
 2252              	.LASF66:
 2253 05e9 5F6E6275 		.ascii	"_nbuf\000"
 2253      6600
 2254              	.LASF125:
 2255 05ef 5F756E75 		.ascii	"_unused\000"
ARM GAS  /tmp/ccBGe30t.s 			page 46


 2255      73656400 
 2256              	.LASF44:
 2257 05f7 5F5F746D 		.ascii	"__tm_isdst\000"
 2257      5F697364 
 2257      737400
 2258              	.LASF107:
 2259 0602 5F6C6F63 		.ascii	"_localtime_buf\000"
 2259      616C7469 
 2259      6D655F62 
 2259      756600
 2260              	.LASF37:
 2261 0611 5F5F746D 		.ascii	"__tm_min\000"
 2261      5F6D696E 
 2261      00
 2262              	.LASF110:
 2263 061a 5F723438 		.ascii	"_r48\000"
 2263      00
 2264              	.LASF112:
 2265 061f 5F6D6274 		.ascii	"_mbtowc_state\000"
 2265      6F77635F 
 2265      73746174 
 2265      6500
 2266              	.LASF86:
 2267 062d 5F703573 		.ascii	"_p5s\000"
 2267      00
 2268              	.LASF148:
 2269 0632 6D61696E 		.ascii	"main\000"
 2269      00
 2270              	.LASF14:
 2271 0637 75696E74 		.ascii	"uint32_t\000"
 2271      33325F74 
 2271      00
 2272              	.LASF39:
 2273 0640 5F5F746D 		.ascii	"__tm_mday\000"
 2273      5F6D6461 
 2273      7900
 2274              		.ident	"GCC: (Arch Repository) 6.1.1 20160526"
ARM GAS  /tmp/ccBGe30t.s 			page 47


DEFINED SYMBOLS
                            *ABS*:0000000000000000 main.c
     /tmp/ccBGe30t.s:15     .text:0000000000000000 $t
     /tmp/ccBGe30t.s:22     .text:0000000000000000 main
     /tmp/ccBGe30t.s:85     .text:0000000000000050 $d
     /tmp/ccBGe30t.s:93     .rodata.str1.4:0000000000000000 $d
                     .debug_frame:0000000000000010 $d

UNDEFINED SYMBOLS
SystemInit
UserInit
DelayMs
MPU6050_GetRawAccelGyro
HCSR04_Get
printf
