ARM GAS  /tmp/ccPGBCUW.s 			page 1


   1              		.cpu cortex-m3
   2              		.eabi_attribute 20, 1
   3              		.eabi_attribute 21, 1
   4              		.eabi_attribute 23, 3
   5              		.eabi_attribute 24, 1
   6              		.eabi_attribute 25, 1
   7              		.eabi_attribute 26, 1
   8              		.eabi_attribute 30, 1
   9              		.eabi_attribute 34, 1
  10              		.eabi_attribute 18, 4
  11              		.file	"misc.c"
  12              		.text
  13              	.Ltext0:
  14              		.cfi_sections	.debug_frame
  15              		.align	1
  16              		.global	NVIC_PriorityGroupConfig
  17              		.syntax unified
  18              		.thumb
  19              		.thumb_func
  20              		.fpu softvfp
  21              		.type	NVIC_PriorityGroupConfig, %function
  22              	NVIC_PriorityGroupConfig:
  23              	.LFB64:
  24              		.file 1 "lib/src/misc.c"
   1:lib/src/misc.c **** /**
   2:lib/src/misc.c ****   ******************************************************************************
   3:lib/src/misc.c ****   * @file    misc.c
   4:lib/src/misc.c ****   * @author  MCD Application Team
   5:lib/src/misc.c ****   * @version V3.5.0
   6:lib/src/misc.c ****   * @date    11-March-2011
   7:lib/src/misc.c ****   * @brief   This file provides all the miscellaneous firmware functions (add-on
   8:lib/src/misc.c ****   *          to CMSIS functions).
   9:lib/src/misc.c ****   ******************************************************************************
  10:lib/src/misc.c ****   * @attention
  11:lib/src/misc.c ****   *
  12:lib/src/misc.c ****   * THE PRESENT FIRMWARE WHICH IS FOR GUIDANCE ONLY AIMS AT PROVIDING CUSTOMERS
  13:lib/src/misc.c ****   * WITH CODING INFORMATION REGARDING THEIR PRODUCTS IN ORDER FOR THEM TO SAVE
  14:lib/src/misc.c ****   * TIME. AS A RESULT, STMICROELECTRONICS SHALL NOT BE HELD LIABLE FOR ANY
  15:lib/src/misc.c ****   * DIRECT, INDIRECT OR CONSEQUENTIAL DAMAGES WITH RESPECT TO ANY CLAIMS ARISING
  16:lib/src/misc.c ****   * FROM THE CONTENT OF SUCH FIRMWARE AND/OR THE USE MADE BY CUSTOMERS OF THE
  17:lib/src/misc.c ****   * CODING INFORMATION CONTAINED HEREIN IN CONNECTION WITH THEIR PRODUCTS.
  18:lib/src/misc.c ****   *
  19:lib/src/misc.c ****   * <h2><center>&copy; COPYRIGHT 2011 STMicroelectronics</center></h2>
  20:lib/src/misc.c ****   ******************************************************************************
  21:lib/src/misc.c ****   */
  22:lib/src/misc.c **** 
  23:lib/src/misc.c **** /* Includes ------------------------------------------------------------------*/
  24:lib/src/misc.c **** #include "misc.h"
  25:lib/src/misc.c **** #include "conf.h"
  26:lib/src/misc.c **** 
  27:lib/src/misc.c **** /** @addtogroup STM32F10x_StdPeriph_Driver
  28:lib/src/misc.c ****   * @{
  29:lib/src/misc.c ****   */
  30:lib/src/misc.c **** 
  31:lib/src/misc.c **** /** @defgroup MISC 
  32:lib/src/misc.c ****   * @brief MISC driver modules
  33:lib/src/misc.c ****   * @{
ARM GAS  /tmp/ccPGBCUW.s 			page 2


  34:lib/src/misc.c ****   */
  35:lib/src/misc.c **** 
  36:lib/src/misc.c **** /** @defgroup MISC_Private_TypesDefinitions
  37:lib/src/misc.c ****   * @{
  38:lib/src/misc.c ****   */
  39:lib/src/misc.c **** 
  40:lib/src/misc.c **** /**
  41:lib/src/misc.c ****   * @}
  42:lib/src/misc.c ****   */ 
  43:lib/src/misc.c **** 
  44:lib/src/misc.c **** /** @defgroup MISC_Private_Defines
  45:lib/src/misc.c ****   * @{
  46:lib/src/misc.c ****   */
  47:lib/src/misc.c **** 
  48:lib/src/misc.c **** #define AIRCR_VECTKEY_MASK    ((uint32_t)0x05FA0000)
  49:lib/src/misc.c **** /**
  50:lib/src/misc.c ****   * @}
  51:lib/src/misc.c ****   */
  52:lib/src/misc.c **** 
  53:lib/src/misc.c **** /** @defgroup MISC_Private_Macros
  54:lib/src/misc.c ****   * @{
  55:lib/src/misc.c ****   */
  56:lib/src/misc.c **** 
  57:lib/src/misc.c **** /**
  58:lib/src/misc.c ****   * @}
  59:lib/src/misc.c ****   */
  60:lib/src/misc.c **** 
  61:lib/src/misc.c **** /** @defgroup MISC_Private_Variables
  62:lib/src/misc.c ****   * @{
  63:lib/src/misc.c ****   */
  64:lib/src/misc.c **** 
  65:lib/src/misc.c **** /**
  66:lib/src/misc.c ****   * @}
  67:lib/src/misc.c ****   */
  68:lib/src/misc.c **** 
  69:lib/src/misc.c **** /** @defgroup MISC_Private_FunctionPrototypes
  70:lib/src/misc.c ****   * @{
  71:lib/src/misc.c ****   */
  72:lib/src/misc.c **** 
  73:lib/src/misc.c **** /**
  74:lib/src/misc.c ****   * @}
  75:lib/src/misc.c ****   */
  76:lib/src/misc.c **** 
  77:lib/src/misc.c **** /** @defgroup MISC_Private_Functions
  78:lib/src/misc.c ****   * @{
  79:lib/src/misc.c ****   */
  80:lib/src/misc.c **** 
  81:lib/src/misc.c **** /**
  82:lib/src/misc.c ****   * @brief  Configures the priority grouping: pre-emption priority and subpriority.
  83:lib/src/misc.c ****   * @param  NVIC_PriorityGroup: specifies the priority grouping bits length. 
  84:lib/src/misc.c ****   *   This parameter can be one of the following values:
  85:lib/src/misc.c ****   *     @arg NVIC_PriorityGroup_0: 0 bits for pre-emption priority
  86:lib/src/misc.c ****   *                                4 bits for subpriority
  87:lib/src/misc.c ****   *     @arg NVIC_PriorityGroup_1: 1 bits for pre-emption priority
  88:lib/src/misc.c ****   *                                3 bits for subpriority
  89:lib/src/misc.c ****   *     @arg NVIC_PriorityGroup_2: 2 bits for pre-emption priority
  90:lib/src/misc.c ****   *                                2 bits for subpriority
ARM GAS  /tmp/ccPGBCUW.s 			page 3


  91:lib/src/misc.c ****   *     @arg NVIC_PriorityGroup_3: 3 bits for pre-emption priority
  92:lib/src/misc.c ****   *                                1 bits for subpriority
  93:lib/src/misc.c ****   *     @arg NVIC_PriorityGroup_4: 4 bits for pre-emption priority
  94:lib/src/misc.c ****   *                                0 bits for subpriority
  95:lib/src/misc.c ****   * @retval None
  96:lib/src/misc.c ****   */
  97:lib/src/misc.c **** void NVIC_PriorityGroupConfig(uint32_t NVIC_PriorityGroup)
  98:lib/src/misc.c **** {
  25              		.loc 1 98 0
  26              		.cfi_startproc
  27              		@ args = 0, pretend = 0, frame = 0
  28              		@ frame_needed = 0, uses_anonymous_args = 0
  29              		@ link register save eliminated.
  30              	.LVL0:
  99:lib/src/misc.c ****   /* Check the parameters */
 100:lib/src/misc.c ****   assert_param(IS_NVIC_PRIORITY_GROUP(NVIC_PriorityGroup));
 101:lib/src/misc.c ****   
 102:lib/src/misc.c ****   /* Set the PRIGROUP[10:8] bits according to NVIC_PriorityGroup value */
 103:lib/src/misc.c ****   SCB->AIRCR = AIRCR_VECTKEY_MASK | NVIC_PriorityGroup;
  31              		.loc 1 103 0
  32 0000 40F0BF60 		orr	r0, r0, #100139008
  33              	.LVL1:
  34 0004 40F40030 		orr	r0, r0, #131072
  35 0008 014B     		ldr	r3, .L2
  36 000a D860     		str	r0, [r3, #12]
  37 000c 7047     		bx	lr
  38              	.L3:
  39 000e 00BF     		.align	2
  40              	.L2:
  41 0010 00ED00E0 		.word	-536810240
  42              		.cfi_endproc
  43              	.LFE64:
  44              		.size	NVIC_PriorityGroupConfig, .-NVIC_PriorityGroupConfig
  45              		.align	1
  46              		.global	NVIC_Init
  47              		.syntax unified
  48              		.thumb
  49              		.thumb_func
  50              		.fpu softvfp
  51              		.type	NVIC_Init, %function
  52              	NVIC_Init:
  53              	.LFB65:
 104:lib/src/misc.c **** }
 105:lib/src/misc.c **** 
 106:lib/src/misc.c **** /**
 107:lib/src/misc.c ****   * @brief  Initializes the NVIC peripheral according to the specified
 108:lib/src/misc.c ****   *         parameters in the NVIC_InitStruct.
 109:lib/src/misc.c ****   * @param  NVIC_InitStruct: pointer to a NVIC_InitTypeDef structure that contains
 110:lib/src/misc.c ****   *         the configuration information for the specified NVIC peripheral.
 111:lib/src/misc.c ****   * @retval None
 112:lib/src/misc.c ****   */
 113:lib/src/misc.c **** void NVIC_Init(NVIC_InitTypeDef* NVIC_InitStruct)
 114:lib/src/misc.c **** {
  54              		.loc 1 114 0
  55              		.cfi_startproc
  56              		@ args = 0, pretend = 0, frame = 0
  57              		@ frame_needed = 0, uses_anonymous_args = 0
ARM GAS  /tmp/ccPGBCUW.s 			page 4


  58              		@ link register save eliminated.
  59              	.LVL2:
 115:lib/src/misc.c ****   uint32_t tmppriority = 0x00, tmppre = 0x00, tmpsub = 0x0F;
 116:lib/src/misc.c ****   
 117:lib/src/misc.c ****   /* Check the parameters */
 118:lib/src/misc.c ****   assert_param(IS_FUNCTIONAL_STATE(NVIC_InitStruct->NVIC_IRQChannelCmd));
 119:lib/src/misc.c ****   assert_param(IS_NVIC_PREEMPTION_PRIORITY(NVIC_InitStruct->NVIC_IRQChannelPreemptionPriority));  
 120:lib/src/misc.c ****   assert_param(IS_NVIC_SUB_PRIORITY(NVIC_InitStruct->NVIC_IRQChannelSubPriority));
 121:lib/src/misc.c ****     
 122:lib/src/misc.c ****   if (NVIC_InitStruct->NVIC_IRQChannelCmd != DISABLE)
  60              		.loc 1 122 0
  61 0014 C378     		ldrb	r3, [r0, #3]	@ zero_extendqisi2
  62 0016 5BB9     		cbnz	r3, .L7
 123:lib/src/misc.c ****   {
 124:lib/src/misc.c ****     /* Compute the Corresponding IRQ Priority --------------------------------*/    
 125:lib/src/misc.c ****     tmppriority = (0x700 - ((SCB->AIRCR) & (uint32_t)0x700))>> 0x08;
 126:lib/src/misc.c ****     tmppre = (0x4 - tmppriority);
 127:lib/src/misc.c ****     tmpsub = tmpsub >> tmppriority;
 128:lib/src/misc.c **** 
 129:lib/src/misc.c ****     tmppriority = (uint32_t)NVIC_InitStruct->NVIC_IRQChannelPreemptionPriority << tmppre;
 130:lib/src/misc.c ****     tmppriority |=  NVIC_InitStruct->NVIC_IRQChannelSubPriority & tmpsub;
 131:lib/src/misc.c ****     tmppriority = tmppriority << 0x04;
 132:lib/src/misc.c ****         
 133:lib/src/misc.c ****     NVIC->IP[NVIC_InitStruct->NVIC_IRQChannel] = tmppriority;
 134:lib/src/misc.c ****     
 135:lib/src/misc.c ****     /* Enable the Selected IRQ Channels --------------------------------------*/
 136:lib/src/misc.c ****     NVIC->ISER[NVIC_InitStruct->NVIC_IRQChannel >> 0x05] =
 137:lib/src/misc.c ****       (uint32_t)0x01 << (NVIC_InitStruct->NVIC_IRQChannel & (uint8_t)0x1F);
 138:lib/src/misc.c ****   }
 139:lib/src/misc.c ****   else
 140:lib/src/misc.c ****   {
 141:lib/src/misc.c ****     /* Disable the Selected IRQ Channels -------------------------------------*/
 142:lib/src/misc.c ****     NVIC->ICER[NVIC_InitStruct->NVIC_IRQChannel >> 0x05] =
  63              		.loc 1 142 0
  64 0018 0378     		ldrb	r3, [r0]	@ zero_extendqisi2
  65 001a 5A09     		lsrs	r2, r3, #5
 143:lib/src/misc.c ****       (uint32_t)0x01 << (NVIC_InitStruct->NVIC_IRQChannel & (uint8_t)0x1F);
  66              		.loc 1 143 0
  67 001c 03F01F03 		and	r3, r3, #31
  68 0020 0121     		movs	r1, #1
  69 0022 01FA03F3 		lsl	r3, r1, r3
 142:lib/src/misc.c ****       (uint32_t)0x01 << (NVIC_InitStruct->NVIC_IRQChannel & (uint8_t)0x1F);
  70              		.loc 1 142 0
  71 0026 2032     		adds	r2, r2, #32
  72 0028 1149     		ldr	r1, .L8
  73 002a 41F82230 		str	r3, [r1, r2, lsl #2]
  74 002e 7047     		bx	lr
  75              	.L7:
 125:lib/src/misc.c ****     tmppre = (0x4 - tmppriority);
  76              		.loc 1 125 0
  77 0030 104B     		ldr	r3, .L8+4
  78 0032 DA68     		ldr	r2, [r3, #12]
  79 0034 D243     		mvns	r2, r2
  80 0036 C2F30222 		ubfx	r2, r2, #8, #3
  81              	.LVL3:
 126:lib/src/misc.c ****     tmpsub = tmpsub >> tmppriority;
  82              		.loc 1 126 0
ARM GAS  /tmp/ccPGBCUW.s 			page 5


  83 003a C2F10401 		rsb	r1, r2, #4
  84              	.LVL4:
 129:lib/src/misc.c ****     tmppriority |=  NVIC_InitStruct->NVIC_IRQChannelSubPriority & tmpsub;
  85              		.loc 1 129 0
  86 003e 4378     		ldrb	r3, [r0, #1]	@ zero_extendqisi2
  87 0040 8B40     		lsls	r3, r3, r1
  88              	.LVL5:
 127:lib/src/misc.c **** 
  89              		.loc 1 127 0
  90 0042 0F21     		movs	r1, #15
  91              	.LVL6:
  92 0044 21FA02F2 		lsr	r2, r1, r2
  93              	.LVL7:
 130:lib/src/misc.c ****     tmppriority = tmppriority << 0x04;
  94              		.loc 1 130 0
  95 0048 8178     		ldrb	r1, [r0, #2]	@ zero_extendqisi2
  96 004a 0A40     		ands	r2, r2, r1
  97              	.LVL8:
  98 004c 1343     		orrs	r3, r3, r2
  99              	.LVL9:
 133:lib/src/misc.c ****     
 100              		.loc 1 133 0
 101 004e 0278     		ldrb	r2, [r0]	@ zero_extendqisi2
 131:lib/src/misc.c ****         
 102              		.loc 1 131 0
 103 0050 1B01     		lsls	r3, r3, #4
 104              	.LVL10:
 133:lib/src/misc.c ****     
 105              		.loc 1 133 0
 106 0052 DBB2     		uxtb	r3, r3
 107              	.LVL11:
 108 0054 0649     		ldr	r1, .L8
 109 0056 0A44     		add	r2, r2, r1
 110 0058 82F80033 		strb	r3, [r2, #768]
 136:lib/src/misc.c ****       (uint32_t)0x01 << (NVIC_InitStruct->NVIC_IRQChannel & (uint8_t)0x1F);
 111              		.loc 1 136 0
 112 005c 0378     		ldrb	r3, [r0]	@ zero_extendqisi2
 113 005e 5809     		lsrs	r0, r3, #5
 114              	.LVL12:
 137:lib/src/misc.c ****   }
 115              		.loc 1 137 0
 116 0060 03F01F03 		and	r3, r3, #31
 117 0064 0122     		movs	r2, #1
 118 0066 02FA03F3 		lsl	r3, r2, r3
 136:lib/src/misc.c ****       (uint32_t)0x01 << (NVIC_InitStruct->NVIC_IRQChannel & (uint8_t)0x1F);
 119              		.loc 1 136 0
 120 006a 41F82030 		str	r3, [r1, r0, lsl #2]
 121 006e 7047     		bx	lr
 122              	.L9:
 123              		.align	2
 124              	.L8:
 125 0070 00E100E0 		.word	-536813312
 126 0074 00ED00E0 		.word	-536810240
 127              		.cfi_endproc
 128              	.LFE65:
 129              		.size	NVIC_Init, .-NVIC_Init
 130              		.align	1
ARM GAS  /tmp/ccPGBCUW.s 			page 6


 131              		.global	NVIC_SetVectorTable
 132              		.syntax unified
 133              		.thumb
 134              		.thumb_func
 135              		.fpu softvfp
 136              		.type	NVIC_SetVectorTable, %function
 137              	NVIC_SetVectorTable:
 138              	.LFB66:
 144:lib/src/misc.c ****   }
 145:lib/src/misc.c **** }
 146:lib/src/misc.c **** 
 147:lib/src/misc.c **** /**
 148:lib/src/misc.c ****   * @brief  Sets the vector table location and Offset.
 149:lib/src/misc.c ****   * @param  NVIC_VectTab: specifies if the vector table is in RAM or FLASH memory.
 150:lib/src/misc.c ****   *   This parameter can be one of the following values:
 151:lib/src/misc.c ****   *     @arg NVIC_VectTab_RAM
 152:lib/src/misc.c ****   *     @arg NVIC_VectTab_FLASH
 153:lib/src/misc.c ****   * @param  Offset: Vector Table base offset field. This value must be a multiple 
 154:lib/src/misc.c ****   *         of 0x200.
 155:lib/src/misc.c ****   * @retval None
 156:lib/src/misc.c ****   */
 157:lib/src/misc.c **** void NVIC_SetVectorTable(uint32_t NVIC_VectTab, uint32_t Offset)
 158:lib/src/misc.c **** { 
 139              		.loc 1 158 0
 140              		.cfi_startproc
 141              		@ args = 0, pretend = 0, frame = 0
 142              		@ frame_needed = 0, uses_anonymous_args = 0
 143              		@ link register save eliminated.
 144              	.LVL13:
 159:lib/src/misc.c ****   /* Check the parameters */
 160:lib/src/misc.c ****   assert_param(IS_NVIC_VECTTAB(NVIC_VectTab));
 161:lib/src/misc.c ****   assert_param(IS_NVIC_OFFSET(Offset));  
 162:lib/src/misc.c ****    
 163:lib/src/misc.c ****   SCB->VTOR = NVIC_VectTab | (Offset & (uint32_t)0x1FFFFF80);
 145              		.loc 1 163 0
 146 0078 21F06041 		bic	r1, r1, #-536870912
 147              	.LVL14:
 148 007c 21F07F01 		bic	r1, r1, #127
 149 0080 0143     		orrs	r1, r1, r0
 150 0082 014B     		ldr	r3, .L11
 151 0084 9960     		str	r1, [r3, #8]
 152 0086 7047     		bx	lr
 153              	.L12:
 154              		.align	2
 155              	.L11:
 156 0088 00ED00E0 		.word	-536810240
 157              		.cfi_endproc
 158              	.LFE66:
 159              		.size	NVIC_SetVectorTable, .-NVIC_SetVectorTable
 160              		.align	1
 161              		.global	NVIC_SystemLPConfig
 162              		.syntax unified
 163              		.thumb
 164              		.thumb_func
 165              		.fpu softvfp
 166              		.type	NVIC_SystemLPConfig, %function
 167              	NVIC_SystemLPConfig:
ARM GAS  /tmp/ccPGBCUW.s 			page 7


 168              	.LFB67:
 164:lib/src/misc.c **** }
 165:lib/src/misc.c **** 
 166:lib/src/misc.c **** /**
 167:lib/src/misc.c ****   * @brief  Selects the condition for the system to enter low power mode.
 168:lib/src/misc.c ****   * @param  LowPowerMode: Specifies the new mode for the system to enter low power mode.
 169:lib/src/misc.c ****   *   This parameter can be one of the following values:
 170:lib/src/misc.c ****   *     @arg NVIC_LP_SEVONPEND
 171:lib/src/misc.c ****   *     @arg NVIC_LP_SLEEPDEEP
 172:lib/src/misc.c ****   *     @arg NVIC_LP_SLEEPONEXIT
 173:lib/src/misc.c ****   * @param  NewState: new state of LP condition. This parameter can be: ENABLE or DISABLE.
 174:lib/src/misc.c ****   * @retval None
 175:lib/src/misc.c ****   */
 176:lib/src/misc.c **** void NVIC_SystemLPConfig(uint8_t LowPowerMode, FunctionalState NewState)
 177:lib/src/misc.c **** {
 169              		.loc 1 177 0
 170              		.cfi_startproc
 171              		@ args = 0, pretend = 0, frame = 0
 172              		@ frame_needed = 0, uses_anonymous_args = 0
 173              		@ link register save eliminated.
 174              	.LVL15:
 178:lib/src/misc.c ****   /* Check the parameters */
 179:lib/src/misc.c ****   assert_param(IS_NVIC_LP(LowPowerMode));
 180:lib/src/misc.c ****   assert_param(IS_FUNCTIONAL_STATE(NewState));  
 181:lib/src/misc.c ****   
 182:lib/src/misc.c ****   if (NewState != DISABLE)
 175              		.loc 1 182 0
 176 008c 29B9     		cbnz	r1, .L16
 183:lib/src/misc.c ****   {
 184:lib/src/misc.c ****     SCB->SCR |= LowPowerMode;
 185:lib/src/misc.c ****   }
 186:lib/src/misc.c ****   else
 187:lib/src/misc.c ****   {
 188:lib/src/misc.c ****     SCB->SCR &= (uint32_t)(~(uint32_t)LowPowerMode);
 177              		.loc 1 188 0
 178 008e 054A     		ldr	r2, .L17
 179 0090 1369     		ldr	r3, [r2, #16]
 180 0092 23EA0000 		bic	r0, r3, r0
 181              	.LVL16:
 182 0096 1061     		str	r0, [r2, #16]
 183 0098 7047     		bx	lr
 184              	.LVL17:
 185              	.L16:
 184:lib/src/misc.c ****   }
 186              		.loc 1 184 0
 187 009a 024B     		ldr	r3, .L17
 188 009c 1A69     		ldr	r2, [r3, #16]
 189 009e 1043     		orrs	r0, r0, r2
 190              	.LVL18:
 191 00a0 1861     		str	r0, [r3, #16]
 192 00a2 7047     		bx	lr
 193              	.L18:
 194              		.align	2
 195              	.L17:
 196 00a4 00ED00E0 		.word	-536810240
 197              		.cfi_endproc
 198              	.LFE67:
ARM GAS  /tmp/ccPGBCUW.s 			page 8


 199              		.size	NVIC_SystemLPConfig, .-NVIC_SystemLPConfig
 200              		.align	1
 201              		.global	SysTick_CLKSourceConfig
 202              		.syntax unified
 203              		.thumb
 204              		.thumb_func
 205              		.fpu softvfp
 206              		.type	SysTick_CLKSourceConfig, %function
 207              	SysTick_CLKSourceConfig:
 208              	.LFB68:
 189:lib/src/misc.c ****   }
 190:lib/src/misc.c **** }
 191:lib/src/misc.c **** 
 192:lib/src/misc.c **** /**
 193:lib/src/misc.c ****   * @brief  Configures the SysTick clock source.
 194:lib/src/misc.c ****   * @param  SysTick_CLKSource: specifies the SysTick clock source.
 195:lib/src/misc.c ****   *   This parameter can be one of the following values:
 196:lib/src/misc.c ****   *     @arg SysTick_CLKSource_HCLK_Div8: AHB clock divided by 8 selected as SysTick clock source.
 197:lib/src/misc.c ****   *     @arg SysTick_CLKSource_HCLK: AHB clock selected as SysTick clock source.
 198:lib/src/misc.c ****   * @retval None
 199:lib/src/misc.c ****   */
 200:lib/src/misc.c **** void SysTick_CLKSourceConfig(uint32_t SysTick_CLKSource)
 201:lib/src/misc.c **** {
 209              		.loc 1 201 0
 210              		.cfi_startproc
 211              		@ args = 0, pretend = 0, frame = 0
 212              		@ frame_needed = 0, uses_anonymous_args = 0
 213              		@ link register save eliminated.
 214              	.LVL19:
 202:lib/src/misc.c ****   /* Check the parameters */
 203:lib/src/misc.c ****   assert_param(IS_SYSTICK_CLK_SOURCE(SysTick_CLKSource));
 204:lib/src/misc.c ****   if (SysTick_CLKSource == SysTick_CLKSource_HCLK)
 215              		.loc 1 204 0
 216 00a8 0428     		cmp	r0, #4
 205:lib/src/misc.c ****   {
 206:lib/src/misc.c ****     SysTick->CTRL |= SysTick_CLKSource_HCLK;
 217              		.loc 1 206 0
 218 00aa 044A     		ldr	r2, .L22
 219 00ac 1368     		ldr	r3, [r2]
 220 00ae 0CBF     		ite	eq
 221 00b0 43F00403 		orreq	r3, r3, #4
 207:lib/src/misc.c ****   }
 208:lib/src/misc.c ****   else
 209:lib/src/misc.c ****   {
 210:lib/src/misc.c ****     SysTick->CTRL &= SysTick_CLKSource_HCLK_Div8;
 222              		.loc 1 210 0
 223 00b4 23F00403 		bicne	r3, r3, #4
 224 00b8 1360     		str	r3, [r2]
 225 00ba 7047     		bx	lr
 226              	.L23:
 227              		.align	2
 228              	.L22:
 229 00bc 10E000E0 		.word	-536813552
 230              		.cfi_endproc
 231              	.LFE68:
 232              		.size	SysTick_CLKSourceConfig, .-SysTick_CLKSourceConfig
 233              	.Letext0:
ARM GAS  /tmp/ccPGBCUW.s 			page 9


 234              		.file 2 "/usr/arm-none-eabi/include/machine/_default_types.h"
 235              		.file 3 "/usr/arm-none-eabi/include/sys/_stdint.h"
 236              		.file 4 "/home/enbin/Documents/code/STM/stm32-quadrocopter/cmsis/core_cm3.h"
 237              		.file 5 "/home/enbin/Documents/code/STM/stm32-quadrocopter/lib/inc/system_stm32f10x.h"
 238              		.file 6 "/home/enbin/Documents/code/STM/stm32-quadrocopter/lib/inc/stm32f10x.h"
 239              		.file 7 "/home/enbin/Documents/code/STM/stm32-quadrocopter/lib/inc/misc.h"
 240              		.file 8 "/home/enbin/Documents/code/STM/stm32-quadrocopter/drivers/MPU6050.h"
 241              		.file 9 "/usr/arm-none-eabi/include/sys/lock.h"
 242              		.file 10 "/usr/arm-none-eabi/include/sys/_types.h"
 243              		.file 11 "/usr/lib/gcc/arm-none-eabi/6.1.1/include/stddef.h"
 244              		.file 12 "/usr/arm-none-eabi/include/sys/reent.h"
 245              		.file 13 "/usr/arm-none-eabi/include/stdlib.h"
 246              		.file 14 "/usr/arm-none-eabi/include/math.h"
 247              		.file 15 "/usr/arm-none-eabi/include/sys/errno.h"
 248              		.section	.debug_info,"",%progbits
 249              	.Ldebug_info0:
 250 0000 560E0000 		.4byte	0xe56
 251 0004 0400     		.2byte	0x4
 252 0006 00000000 		.4byte	.Ldebug_abbrev0
 253 000a 04       		.byte	0x4
 254 000b 01       		.uleb128 0x1
 255 000c 5E050000 		.4byte	.LASF200
 256 0010 01       		.byte	0x1
 257 0011 E9070000 		.4byte	.LASF201
 258 0015 92010000 		.4byte	.LASF202
 259 0019 00000000 		.4byte	.Ltext0
 260 001d C0000000 		.4byte	.Letext0-.Ltext0
 261 0021 00000000 		.4byte	.Ldebug_line0
 262 0025 02       		.uleb128 0x2
 263 0026 01       		.byte	0x1
 264 0027 06       		.byte	0x6
 265 0028 19010000 		.4byte	.LASF0
 266 002c 03       		.uleb128 0x3
 267 002d 60000000 		.4byte	.LASF4
 268 0031 02       		.byte	0x2
 269 0032 1D       		.byte	0x1d
 270 0033 37000000 		.4byte	0x37
 271 0037 02       		.uleb128 0x2
 272 0038 01       		.byte	0x1
 273 0039 08       		.byte	0x8
 274 003a CB040000 		.4byte	.LASF1
 275 003e 02       		.uleb128 0x2
 276 003f 02       		.byte	0x2
 277 0040 05       		.byte	0x5
 278 0041 AF060000 		.4byte	.LASF2
 279 0045 02       		.uleb128 0x2
 280 0046 02       		.byte	0x2
 281 0047 07       		.byte	0x7
 282 0048 EA060000 		.4byte	.LASF3
 283 004c 03       		.uleb128 0x3
 284 004d B9060000 		.4byte	.LASF5
 285 0051 02       		.byte	0x2
 286 0052 3F       		.byte	0x3f
 287 0053 57000000 		.4byte	0x57
 288 0057 02       		.uleb128 0x2
 289 0058 04       		.byte	0x4
 290 0059 05       		.byte	0x5
ARM GAS  /tmp/ccPGBCUW.s 			page 10


 291 005a 89010000 		.4byte	.LASF6
 292 005e 03       		.uleb128 0x3
 293 005f 5F020000 		.4byte	.LASF7
 294 0063 02       		.byte	0x2
 295 0064 41       		.byte	0x41
 296 0065 69000000 		.4byte	0x69
 297 0069 02       		.uleb128 0x2
 298 006a 04       		.byte	0x4
 299 006b 07       		.byte	0x7
 300 006c F1020000 		.4byte	.LASF8
 301 0070 02       		.uleb128 0x2
 302 0071 08       		.byte	0x8
 303 0072 05       		.byte	0x5
 304 0073 F7010000 		.4byte	.LASF9
 305 0077 02       		.uleb128 0x2
 306 0078 08       		.byte	0x8
 307 0079 07       		.byte	0x7
 308 007a 9A000000 		.4byte	.LASF10
 309 007e 04       		.uleb128 0x4
 310 007f 04       		.byte	0x4
 311 0080 05       		.byte	0x5
 312 0081 696E7400 		.ascii	"int\000"
 313 0085 02       		.uleb128 0x2
 314 0086 04       		.byte	0x4
 315 0087 07       		.byte	0x7
 316 0088 A2060000 		.4byte	.LASF11
 317 008c 03       		.uleb128 0x3
 318 008d 7E070000 		.4byte	.LASF12
 319 0091 03       		.byte	0x3
 320 0092 18       		.byte	0x18
 321 0093 2C000000 		.4byte	0x2c
 322 0097 05       		.uleb128 0x5
 323 0098 8C000000 		.4byte	0x8c
 324 009c 03       		.uleb128 0x3
 325 009d C3040000 		.4byte	.LASF13
 326 00a1 03       		.byte	0x3
 327 00a2 2C       		.byte	0x2c
 328 00a3 4C000000 		.4byte	0x4c
 329 00a7 05       		.uleb128 0x5
 330 00a8 9C000000 		.4byte	0x9c
 331 00ac 03       		.uleb128 0x3
 332 00ad 5D080000 		.4byte	.LASF14
 333 00b1 03       		.byte	0x3
 334 00b2 30       		.byte	0x30
 335 00b3 5E000000 		.4byte	0x5e
 336 00b7 05       		.uleb128 0x5
 337 00b8 AC000000 		.4byte	0xac
 338 00bc 06       		.uleb128 0x6
 339 00bd B7000000 		.4byte	0xb7
 340 00c1 07       		.uleb128 0x7
 341 00c2 040E     		.2byte	0xe04
 342 00c4 04       		.byte	0x4
 343 00c5 7F01     		.2byte	0x17f
 344 00c7 7D010000 		.4byte	0x17d
 345 00cb 08       		.uleb128 0x8
 346 00cc F2010000 		.4byte	.LASF15
 347 00d0 04       		.byte	0x4
ARM GAS  /tmp/ccPGBCUW.s 			page 11


 348 00d1 8101     		.2byte	0x181
 349 00d3 8D010000 		.4byte	0x18d
 350 00d7 00       		.byte	0
 351 00d8 08       		.uleb128 0x8
 352 00d9 91040000 		.4byte	.LASF16
 353 00dd 04       		.byte	0x4
 354 00de 8201     		.2byte	0x182
 355 00e0 99010000 		.4byte	0x199
 356 00e4 20       		.byte	0x20
 357 00e5 08       		.uleb128 0x8
 358 00e6 31040000 		.4byte	.LASF17
 359 00ea 04       		.byte	0x4
 360 00eb 8301     		.2byte	0x183
 361 00ed 8D010000 		.4byte	0x18d
 362 00f1 80       		.byte	0x80
 363 00f2 08       		.uleb128 0x8
 364 00f3 B5070000 		.4byte	.LASF18
 365 00f7 04       		.byte	0x4
 366 00f8 8401     		.2byte	0x184
 367 00fa 99010000 		.4byte	0x199
 368 00fe A0       		.byte	0xa0
 369 00ff 09       		.uleb128 0x9
 370 0100 F1000000 		.4byte	.LASF19
 371 0104 04       		.byte	0x4
 372 0105 8501     		.2byte	0x185
 373 0107 8D010000 		.4byte	0x18d
 374 010b 0001     		.2byte	0x100
 375 010d 09       		.uleb128 0x9
 376 010e 9B040000 		.4byte	.LASF20
 377 0112 04       		.byte	0x4
 378 0113 8601     		.2byte	0x186
 379 0115 99010000 		.4byte	0x199
 380 0119 2001     		.2byte	0x120
 381 011b 09       		.uleb128 0x9
 382 011c 15000000 		.4byte	.LASF21
 383 0120 04       		.byte	0x4
 384 0121 8701     		.2byte	0x187
 385 0123 8D010000 		.4byte	0x18d
 386 0127 8001     		.2byte	0x180
 387 0129 09       		.uleb128 0x9
 388 012a A5040000 		.4byte	.LASF22
 389 012e 04       		.byte	0x4
 390 012f 8801     		.2byte	0x188
 391 0131 99010000 		.4byte	0x199
 392 0135 A001     		.2byte	0x1a0
 393 0137 09       		.uleb128 0x9
 394 0138 F2030000 		.4byte	.LASF23
 395 013c 04       		.byte	0x4
 396 013d 8901     		.2byte	0x189
 397 013f 8D010000 		.4byte	0x18d
 398 0143 0002     		.2byte	0x200
 399 0145 09       		.uleb128 0x9
 400 0146 AF040000 		.4byte	.LASF24
 401 014a 04       		.byte	0x4
 402 014b 8A01     		.2byte	0x18a
 403 014d A9010000 		.4byte	0x1a9
 404 0151 2002     		.2byte	0x220
ARM GAS  /tmp/ccPGBCUW.s 			page 12


 405 0153 0A       		.uleb128 0xa
 406 0154 495000   		.ascii	"IP\000"
 407 0157 04       		.byte	0x4
 408 0158 8B01     		.2byte	0x18b
 409 015a C9010000 		.4byte	0x1c9
 410 015e 0003     		.2byte	0x300
 411 0160 09       		.uleb128 0x9
 412 0161 B9040000 		.4byte	.LASF25
 413 0165 04       		.byte	0x4
 414 0166 8C01     		.2byte	0x18c
 415 0168 CE010000 		.4byte	0x1ce
 416 016c F003     		.2byte	0x3f0
 417 016e 09       		.uleb128 0x9
 418 016f BE070000 		.4byte	.LASF26
 419 0173 04       		.byte	0x4
 420 0174 8D01     		.2byte	0x18d
 421 0176 B7000000 		.4byte	0xb7
 422 017a 000E     		.2byte	0xe00
 423 017c 00       		.byte	0
 424 017d 0B       		.uleb128 0xb
 425 017e B7000000 		.4byte	0xb7
 426 0182 8D010000 		.4byte	0x18d
 427 0186 0C       		.uleb128 0xc
 428 0187 92010000 		.4byte	0x192
 429 018b 07       		.byte	0x7
 430 018c 00       		.byte	0
 431 018d 05       		.uleb128 0x5
 432 018e 7D010000 		.4byte	0x17d
 433 0192 02       		.uleb128 0x2
 434 0193 04       		.byte	0x4
 435 0194 07       		.byte	0x7
 436 0195 DF030000 		.4byte	.LASF27
 437 0199 0B       		.uleb128 0xb
 438 019a AC000000 		.4byte	0xac
 439 019e A9010000 		.4byte	0x1a9
 440 01a2 0C       		.uleb128 0xc
 441 01a3 92010000 		.4byte	0x192
 442 01a7 17       		.byte	0x17
 443 01a8 00       		.byte	0
 444 01a9 0B       		.uleb128 0xb
 445 01aa AC000000 		.4byte	0xac
 446 01ae B9010000 		.4byte	0x1b9
 447 01b2 0C       		.uleb128 0xc
 448 01b3 92010000 		.4byte	0x192
 449 01b7 37       		.byte	0x37
 450 01b8 00       		.byte	0
 451 01b9 0B       		.uleb128 0xb
 452 01ba 97000000 		.4byte	0x97
 453 01be C9010000 		.4byte	0x1c9
 454 01c2 0C       		.uleb128 0xc
 455 01c3 92010000 		.4byte	0x192
 456 01c7 EF       		.byte	0xef
 457 01c8 00       		.byte	0
 458 01c9 05       		.uleb128 0x5
 459 01ca B9010000 		.4byte	0x1b9
 460 01ce 0B       		.uleb128 0xb
 461 01cf AC000000 		.4byte	0xac
ARM GAS  /tmp/ccPGBCUW.s 			page 13


 462 01d3 DF010000 		.4byte	0x1df
 463 01d7 0D       		.uleb128 0xd
 464 01d8 92010000 		.4byte	0x192
 465 01dc 8302     		.2byte	0x283
 466 01de 00       		.byte	0
 467 01df 0E       		.uleb128 0xe
 468 01e0 08050000 		.4byte	.LASF28
 469 01e4 04       		.byte	0x4
 470 01e5 8E01     		.2byte	0x18e
 471 01e7 C1000000 		.4byte	0xc1
 472 01eb 0F       		.uleb128 0xf
 473 01ec 8C       		.byte	0x8c
 474 01ed 04       		.byte	0x4
 475 01ee A101     		.2byte	0x1a1
 476 01f0 06030000 		.4byte	0x306
 477 01f4 08       		.uleb128 0x8
 478 01f5 C7000000 		.4byte	.LASF29
 479 01f9 04       		.byte	0x4
 480 01fa A301     		.2byte	0x1a3
 481 01fc BC000000 		.4byte	0xbc
 482 0200 00       		.byte	0
 483 0201 08       		.uleb128 0x8
 484 0202 35030000 		.4byte	.LASF30
 485 0206 04       		.byte	0x4
 486 0207 A401     		.2byte	0x1a4
 487 0209 B7000000 		.4byte	0xb7
 488 020d 04       		.byte	0x4
 489 020e 08       		.uleb128 0x8
 490 020f 0F030000 		.4byte	.LASF31
 491 0213 04       		.byte	0x4
 492 0214 A501     		.2byte	0x1a5
 493 0216 B7000000 		.4byte	0xb7
 494 021a 08       		.byte	0x8
 495 021b 08       		.uleb128 0x8
 496 021c 47030000 		.4byte	.LASF32
 497 0220 04       		.byte	0x4
 498 0221 A601     		.2byte	0x1a6
 499 0223 B7000000 		.4byte	0xb7
 500 0227 0C       		.byte	0xc
 501 0228 10       		.uleb128 0x10
 502 0229 53435200 		.ascii	"SCR\000"
 503 022d 04       		.byte	0x4
 504 022e A701     		.2byte	0x1a7
 505 0230 B7000000 		.4byte	0xb7
 506 0234 10       		.byte	0x10
 507 0235 10       		.uleb128 0x10
 508 0236 43435200 		.ascii	"CCR\000"
 509 023a 04       		.byte	0x4
 510 023b A801     		.2byte	0x1a8
 511 023d B7000000 		.4byte	0xb7
 512 0241 14       		.byte	0x14
 513 0242 10       		.uleb128 0x10
 514 0243 53485000 		.ascii	"SHP\000"
 515 0247 04       		.byte	0x4
 516 0248 A901     		.2byte	0x1a9
 517 024a 16030000 		.4byte	0x316
 518 024e 18       		.byte	0x18
ARM GAS  /tmp/ccPGBCUW.s 			page 14


 519 024f 08       		.uleb128 0x8
 520 0250 D9040000 		.4byte	.LASF33
 521 0254 04       		.byte	0x4
 522 0255 AA01     		.2byte	0x1aa
 523 0257 B7000000 		.4byte	0xb7
 524 025b 24       		.byte	0x24
 525 025c 08       		.uleb128 0x8
 526 025d ED030000 		.4byte	.LASF34
 527 0261 04       		.byte	0x4
 528 0262 AB01     		.2byte	0x1ab
 529 0264 B7000000 		.4byte	0xb7
 530 0268 28       		.byte	0x28
 531 0269 08       		.uleb128 0x8
 532 026a 3E080000 		.4byte	.LASF35
 533 026e 04       		.byte	0x4
 534 026f AC01     		.2byte	0x1ac
 535 0271 B7000000 		.4byte	0xb7
 536 0275 2C       		.byte	0x2c
 537 0276 08       		.uleb128 0x8
 538 0277 4D030000 		.4byte	.LASF36
 539 027b 04       		.byte	0x4
 540 027c AD01     		.2byte	0x1ad
 541 027e B7000000 		.4byte	0xb7
 542 0282 30       		.byte	0x30
 543 0283 08       		.uleb128 0x8
 544 0284 60030000 		.4byte	.LASF37
 545 0288 04       		.byte	0x4
 546 0289 AE01     		.2byte	0x1ae
 547 028b B7000000 		.4byte	0xb7
 548 028f 34       		.byte	0x34
 549 0290 08       		.uleb128 0x8
 550 0291 48020000 		.4byte	.LASF38
 551 0295 04       		.byte	0x4
 552 0296 AF01     		.2byte	0x1af
 553 0298 B7000000 		.4byte	0xb7
 554 029c 38       		.byte	0x38
 555 029d 08       		.uleb128 0x8
 556 029e 53060000 		.4byte	.LASF39
 557 02a2 04       		.byte	0x4
 558 02a3 B001     		.2byte	0x1b0
 559 02a5 B7000000 		.4byte	0xb7
 560 02a9 3C       		.byte	0x3c
 561 02aa 10       		.uleb128 0x10
 562 02ab 50465200 		.ascii	"PFR\000"
 563 02af 04       		.byte	0x4
 564 02b0 B101     		.2byte	0x1b1
 565 02b2 30030000 		.4byte	0x330
 566 02b6 40       		.byte	0x40
 567 02b7 10       		.uleb128 0x10
 568 02b8 44465200 		.ascii	"DFR\000"
 569 02bc 04       		.byte	0x4
 570 02bd B201     		.2byte	0x1b2
 571 02bf BC000000 		.4byte	0xbc
 572 02c3 48       		.byte	0x48
 573 02c4 10       		.uleb128 0x10
 574 02c5 41445200 		.ascii	"ADR\000"
 575 02c9 04       		.byte	0x4
ARM GAS  /tmp/ccPGBCUW.s 			page 15


 576 02ca B301     		.2byte	0x1b3
 577 02cc BC000000 		.4byte	0xbc
 578 02d0 4C       		.byte	0x4c
 579 02d1 08       		.uleb128 0x8
 580 02d2 71030000 		.4byte	.LASF40
 581 02d6 04       		.byte	0x4
 582 02d7 B401     		.2byte	0x1b4
 583 02d9 4A030000 		.4byte	0x34a
 584 02dd 50       		.byte	0x50
 585 02de 08       		.uleb128 0x8
 586 02df 0D010000 		.4byte	.LASF41
 587 02e3 04       		.byte	0x4
 588 02e4 B501     		.2byte	0x1b5
 589 02e6 64030000 		.4byte	0x364
 590 02ea 60       		.byte	0x60
 591 02eb 08       		.uleb128 0x8
 592 02ec 91040000 		.4byte	.LASF16
 593 02f0 04       		.byte	0x4
 594 02f1 B601     		.2byte	0x1b6
 595 02f3 69030000 		.4byte	0x369
 596 02f7 74       		.byte	0x74
 597 02f8 08       		.uleb128 0x8
 598 02f9 38080000 		.4byte	.LASF42
 599 02fd 04       		.byte	0x4
 600 02fe B701     		.2byte	0x1b7
 601 0300 B7000000 		.4byte	0xb7
 602 0304 88       		.byte	0x88
 603 0305 00       		.byte	0
 604 0306 0B       		.uleb128 0xb
 605 0307 97000000 		.4byte	0x97
 606 030b 16030000 		.4byte	0x316
 607 030f 0C       		.uleb128 0xc
 608 0310 92010000 		.4byte	0x192
 609 0314 0B       		.byte	0xb
 610 0315 00       		.byte	0
 611 0316 05       		.uleb128 0x5
 612 0317 06030000 		.4byte	0x306
 613 031b 0B       		.uleb128 0xb
 614 031c BC000000 		.4byte	0xbc
 615 0320 2B030000 		.4byte	0x32b
 616 0324 0C       		.uleb128 0xc
 617 0325 92010000 		.4byte	0x192
 618 0329 01       		.byte	0x1
 619 032a 00       		.byte	0
 620 032b 06       		.uleb128 0x6
 621 032c 1B030000 		.4byte	0x31b
 622 0330 05       		.uleb128 0x5
 623 0331 2B030000 		.4byte	0x32b
 624 0335 0B       		.uleb128 0xb
 625 0336 BC000000 		.4byte	0xbc
 626 033a 45030000 		.4byte	0x345
 627 033e 0C       		.uleb128 0xc
 628 033f 92010000 		.4byte	0x192
 629 0343 03       		.byte	0x3
 630 0344 00       		.byte	0
 631 0345 06       		.uleb128 0x6
 632 0346 35030000 		.4byte	0x335
ARM GAS  /tmp/ccPGBCUW.s 			page 16


 633 034a 05       		.uleb128 0x5
 634 034b 45030000 		.4byte	0x345
 635 034f 0B       		.uleb128 0xb
 636 0350 BC000000 		.4byte	0xbc
 637 0354 5F030000 		.4byte	0x35f
 638 0358 0C       		.uleb128 0xc
 639 0359 92010000 		.4byte	0x192
 640 035d 04       		.byte	0x4
 641 035e 00       		.byte	0
 642 035f 06       		.uleb128 0x6
 643 0360 4F030000 		.4byte	0x34f
 644 0364 05       		.uleb128 0x5
 645 0365 5F030000 		.4byte	0x35f
 646 0369 0B       		.uleb128 0xb
 647 036a AC000000 		.4byte	0xac
 648 036e 79030000 		.4byte	0x379
 649 0372 0C       		.uleb128 0xc
 650 0373 92010000 		.4byte	0x192
 651 0377 04       		.byte	0x4
 652 0378 00       		.byte	0
 653 0379 0E       		.uleb128 0xe
 654 037a 70020000 		.4byte	.LASF43
 655 037e 04       		.byte	0x4
 656 037f B801     		.2byte	0x1b8
 657 0381 EB010000 		.4byte	0x1eb
 658 0385 0F       		.uleb128 0xf
 659 0386 10       		.byte	0x10
 660 0387 04       		.byte	0x4
 661 0388 AB02     		.2byte	0x2ab
 662 038a C3030000 		.4byte	0x3c3
 663 038e 08       		.uleb128 0x8
 664 038f 17070000 		.4byte	.LASF44
 665 0393 04       		.byte	0x4
 666 0394 AD02     		.2byte	0x2ad
 667 0396 B7000000 		.4byte	0xb7
 668 039a 00       		.byte	0
 669 039b 08       		.uleb128 0x8
 670 039c E8030000 		.4byte	.LASF45
 671 03a0 04       		.byte	0x4
 672 03a1 AE02     		.2byte	0x2ae
 673 03a3 B7000000 		.4byte	0xb7
 674 03a7 04       		.byte	0x4
 675 03a8 10       		.uleb128 0x10
 676 03a9 56414C00 		.ascii	"VAL\000"
 677 03ad 04       		.byte	0x4
 678 03ae AF02     		.2byte	0x2af
 679 03b0 B7000000 		.4byte	0xb7
 680 03b4 08       		.byte	0x8
 681 03b5 08       		.uleb128 0x8
 682 03b6 52070000 		.4byte	.LASF46
 683 03ba 04       		.byte	0x4
 684 03bb B002     		.2byte	0x2b0
 685 03bd BC000000 		.4byte	0xbc
 686 03c1 0C       		.byte	0xc
 687 03c2 00       		.byte	0
 688 03c3 0E       		.uleb128 0xe
 689 03c4 4D020000 		.4byte	.LASF47
ARM GAS  /tmp/ccPGBCUW.s 			page 17


 690 03c8 04       		.byte	0x4
 691 03c9 B102     		.2byte	0x2b1
 692 03cb 85030000 		.4byte	0x385
 693 03cf 11       		.uleb128 0x11
 694 03d0 DF040000 		.4byte	.LASF48
 695 03d4 04       		.byte	0x4
 696 03d5 9606     		.2byte	0x696
 697 03d7 A7000000 		.4byte	0xa7
 698 03db 12       		.uleb128 0x12
 699 03dc C4020000 		.4byte	.LASF49
 700 03e0 05       		.byte	0x5
 701 03e1 35       		.byte	0x35
 702 03e2 AC000000 		.4byte	0xac
 703 03e6 13       		.uleb128 0x13
 704 03e7 01       		.byte	0x1
 705 03e8 37000000 		.4byte	0x37
 706 03ec 06       		.byte	0x6
 707 03ed 0902     		.2byte	0x209
 708 03ef 00040000 		.4byte	0x400
 709 03f3 14       		.uleb128 0x14
 710 03f4 EE050000 		.4byte	.LASF50
 711 03f8 00       		.byte	0
 712 03f9 14       		.uleb128 0x14
 713 03fa EB010000 		.4byte	.LASF51
 714 03fe 01       		.byte	0x1
 715 03ff 00       		.byte	0
 716 0400 0E       		.uleb128 0xe
 717 0401 18040000 		.4byte	.LASF52
 718 0405 06       		.byte	0x6
 719 0406 0902     		.2byte	0x209
 720 0408 E6030000 		.4byte	0x3e6
 721 040c 15       		.uleb128 0x15
 722 040d 04       		.byte	0x4
 723 040e 07       		.byte	0x7
 724 040f 32       		.byte	0x32
 725 0410 45040000 		.4byte	0x445
 726 0414 16       		.uleb128 0x16
 727 0415 76030000 		.4byte	.LASF53
 728 0419 07       		.byte	0x7
 729 041a 34       		.byte	0x34
 730 041b 8C000000 		.4byte	0x8c
 731 041f 00       		.byte	0
 732 0420 16       		.uleb128 0x16
 733 0421 86030000 		.4byte	.LASF54
 734 0425 07       		.byte	0x7
 735 0426 39       		.byte	0x39
 736 0427 8C000000 		.4byte	0x8c
 737 042b 01       		.byte	0x1
 738 042c 16       		.uleb128 0x16
 739 042d 32060000 		.4byte	.LASF55
 740 0431 07       		.byte	0x7
 741 0432 3D       		.byte	0x3d
 742 0433 8C000000 		.4byte	0x8c
 743 0437 02       		.byte	0x2
 744 0438 16       		.uleb128 0x16
 745 0439 1A000000 		.4byte	.LASF56
 746 043d 07       		.byte	0x7
ARM GAS  /tmp/ccPGBCUW.s 			page 18


 747 043e 41       		.byte	0x41
 748 043f 00040000 		.4byte	0x400
 749 0443 03       		.byte	0x3
 750 0444 00       		.byte	0
 751 0445 03       		.uleb128 0x3
 752 0446 70080000 		.4byte	.LASF57
 753 044a 07       		.byte	0x7
 754 044b 44       		.byte	0x44
 755 044c 0C040000 		.4byte	0x40c
 756 0450 17       		.uleb128 0x17
 757 0451 18       		.uleb128 0x18
 758 0452 04       		.byte	0x4
 759 0453 50040000 		.4byte	0x450
 760 0457 0B       		.uleb128 0xb
 761 0458 3E000000 		.4byte	0x3e
 762 045c 67040000 		.4byte	0x467
 763 0460 0C       		.uleb128 0xc
 764 0461 92010000 		.4byte	0x192
 765 0465 02       		.byte	0x2
 766 0466 00       		.byte	0
 767 0467 11       		.uleb128 0x11
 768 0468 DD000000 		.4byte	.LASF58
 769 046c 08       		.byte	0x8
 770 046d 6601     		.2byte	0x166
 771 046f 57040000 		.4byte	0x457
 772 0473 11       		.uleb128 0x11
 773 0474 08040000 		.4byte	.LASF59
 774 0478 08       		.byte	0x8
 775 0479 6601     		.2byte	0x166
 776 047b 57040000 		.4byte	0x457
 777 047f 11       		.uleb128 0x11
 778 0480 3F010000 		.4byte	.LASF60
 779 0484 08       		.byte	0x8
 780 0485 6701     		.2byte	0x167
 781 0487 7E000000 		.4byte	0x7e
 782 048b 11       		.uleb128 0x11
 783 048c F7030000 		.4byte	.LASF61
 784 0490 08       		.byte	0x8
 785 0491 6701     		.2byte	0x167
 786 0493 7E000000 		.4byte	0x7e
 787 0497 11       		.uleb128 0x11
 788 0498 0E040000 		.4byte	.LASF62
 789 049c 08       		.byte	0x8
 790 049d 6701     		.2byte	0x167
 791 049f 7E000000 		.4byte	0x7e
 792 04a3 11       		.uleb128 0x11
 793 04a4 6C010000 		.4byte	.LASF63
 794 04a8 08       		.byte	0x8
 795 04a9 6801     		.2byte	0x168
 796 04ab AF040000 		.4byte	0x4af
 797 04af 02       		.uleb128 0x2
 798 04b0 04       		.byte	0x4
 799 04b1 04       		.byte	0x4
 800 04b2 7B040000 		.4byte	.LASF64
 801 04b6 11       		.uleb128 0x11
 802 04b7 8B040000 		.4byte	.LASF65
 803 04bb 08       		.byte	0x8
ARM GAS  /tmp/ccPGBCUW.s 			page 19


 804 04bc 6901     		.2byte	0x169
 805 04be AF040000 		.4byte	0x4af
 806 04c2 11       		.uleb128 0x11
 807 04c3 C9060000 		.4byte	.LASF66
 808 04c7 08       		.byte	0x8
 809 04c8 6901     		.2byte	0x169
 810 04ca AF040000 		.4byte	0x4af
 811 04ce 19       		.uleb128 0x19
 812 04cf 59617700 		.ascii	"Yaw\000"
 813 04d3 08       		.byte	0x8
 814 04d4 6901     		.2byte	0x169
 815 04d6 AF040000 		.4byte	0x4af
 816 04da 1A       		.uleb128 0x1a
 817 04db 04       		.byte	0x4
 818 04dc 03       		.uleb128 0x3
 819 04dd CD030000 		.4byte	.LASF67
 820 04e1 09       		.byte	0x9
 821 04e2 07       		.byte	0x7
 822 04e3 7E000000 		.4byte	0x7e
 823 04e7 03       		.uleb128 0x3
 824 04e8 73000000 		.4byte	.LASF68
 825 04ec 0A       		.byte	0xa
 826 04ed 2C       		.byte	0x2c
 827 04ee 57000000 		.4byte	0x57
 828 04f2 03       		.uleb128 0x3
 829 04f3 62060000 		.4byte	.LASF69
 830 04f7 0A       		.byte	0xa
 831 04f8 72       		.byte	0x72
 832 04f9 57000000 		.4byte	0x57
 833 04fd 0E       		.uleb128 0xe
 834 04fe 62040000 		.4byte	.LASF70
 835 0502 0B       		.byte	0xb
 836 0503 6501     		.2byte	0x165
 837 0505 85000000 		.4byte	0x85
 838 0509 1B       		.uleb128 0x1b
 839 050a 04       		.byte	0x4
 840 050b 0A       		.byte	0xa
 841 050c A6       		.byte	0xa6
 842 050d 28050000 		.4byte	0x528
 843 0511 1C       		.uleb128 0x1c
 844 0512 5A030000 		.4byte	.LASF71
 845 0516 0A       		.byte	0xa
 846 0517 A8       		.byte	0xa8
 847 0518 FD040000 		.4byte	0x4fd
 848 051c 1C       		.uleb128 0x1c
 849 051d BD020000 		.4byte	.LASF72
 850 0521 0A       		.byte	0xa
 851 0522 A9       		.byte	0xa9
 852 0523 28050000 		.4byte	0x528
 853 0527 00       		.byte	0
 854 0528 0B       		.uleb128 0xb
 855 0529 37000000 		.4byte	0x37
 856 052d 38050000 		.4byte	0x538
 857 0531 0C       		.uleb128 0xc
 858 0532 92010000 		.4byte	0x192
 859 0536 03       		.byte	0x3
 860 0537 00       		.byte	0
ARM GAS  /tmp/ccPGBCUW.s 			page 20


 861 0538 15       		.uleb128 0x15
 862 0539 08       		.byte	0x8
 863 053a 0A       		.byte	0xa
 864 053b A3       		.byte	0xa3
 865 053c 59050000 		.4byte	0x559
 866 0540 16       		.uleb128 0x16
 867 0541 15060000 		.4byte	.LASF73
 868 0545 0A       		.byte	0xa
 869 0546 A5       		.byte	0xa5
 870 0547 7E000000 		.4byte	0x7e
 871 054b 00       		.byte	0
 872 054c 16       		.uleb128 0x16
 873 054d 2A060000 		.4byte	.LASF74
 874 0551 0A       		.byte	0xa
 875 0552 AA       		.byte	0xaa
 876 0553 09050000 		.4byte	0x509
 877 0557 04       		.byte	0x4
 878 0558 00       		.byte	0
 879 0559 03       		.uleb128 0x3
 880 055a 2E050000 		.4byte	.LASF75
 881 055e 0A       		.byte	0xa
 882 055f AB       		.byte	0xab
 883 0560 38050000 		.4byte	0x538
 884 0564 03       		.uleb128 0x3
 885 0565 F5040000 		.4byte	.LASF76
 886 0569 0A       		.byte	0xa
 887 056a AF       		.byte	0xaf
 888 056b DC040000 		.4byte	0x4dc
 889 056f 03       		.uleb128 0x3
 890 0570 02070000 		.4byte	.LASF77
 891 0574 0C       		.byte	0xc
 892 0575 16       		.byte	0x16
 893 0576 69000000 		.4byte	0x69
 894 057a 1D       		.uleb128 0x1d
 895 057b 8D020000 		.4byte	.LASF82
 896 057f 18       		.byte	0x18
 897 0580 0C       		.byte	0xc
 898 0581 2D       		.byte	0x2d
 899 0582 CD050000 		.4byte	0x5cd
 900 0586 16       		.uleb128 0x16
 901 0587 CE060000 		.4byte	.LASF78
 902 058b 0C       		.byte	0xc
 903 058c 2F       		.byte	0x2f
 904 058d CD050000 		.4byte	0x5cd
 905 0591 00       		.byte	0
 906 0592 1E       		.uleb128 0x1e
 907 0593 5F6B00   		.ascii	"_k\000"
 908 0596 0C       		.byte	0xc
 909 0597 30       		.byte	0x30
 910 0598 7E000000 		.4byte	0x7e
 911 059c 04       		.byte	0x4
 912 059d 16       		.uleb128 0x16
 913 059e 00060000 		.4byte	.LASF79
 914 05a2 0C       		.byte	0xc
 915 05a3 30       		.byte	0x30
 916 05a4 7E000000 		.4byte	0x7e
 917 05a8 08       		.byte	0x8
ARM GAS  /tmp/ccPGBCUW.s 			page 21


 918 05a9 16       		.uleb128 0x16
 919 05aa 6A020000 		.4byte	.LASF80
 920 05ae 0C       		.byte	0xc
 921 05af 30       		.byte	0x30
 922 05b0 7E000000 		.4byte	0x7e
 923 05b4 0C       		.byte	0xc
 924 05b5 16       		.uleb128 0x16
 925 05b6 65070000 		.4byte	.LASF81
 926 05ba 0C       		.byte	0xc
 927 05bb 30       		.byte	0x30
 928 05bc 7E000000 		.4byte	0x7e
 929 05c0 10       		.byte	0x10
 930 05c1 1E       		.uleb128 0x1e
 931 05c2 5F7800   		.ascii	"_x\000"
 932 05c5 0C       		.byte	0xc
 933 05c6 31       		.byte	0x31
 934 05c7 D3050000 		.4byte	0x5d3
 935 05cb 14       		.byte	0x14
 936 05cc 00       		.byte	0
 937 05cd 18       		.uleb128 0x18
 938 05ce 04       		.byte	0x4
 939 05cf 7A050000 		.4byte	0x57a
 940 05d3 0B       		.uleb128 0xb
 941 05d4 6F050000 		.4byte	0x56f
 942 05d8 E3050000 		.4byte	0x5e3
 943 05dc 0C       		.uleb128 0xc
 944 05dd 92010000 		.4byte	0x192
 945 05e1 00       		.byte	0
 946 05e2 00       		.byte	0
 947 05e3 1D       		.uleb128 0x1d
 948 05e4 B8020000 		.4byte	.LASF83
 949 05e8 24       		.byte	0x24
 950 05e9 0C       		.byte	0xc
 951 05ea 35       		.byte	0x35
 952 05eb 5C060000 		.4byte	0x65c
 953 05ef 16       		.uleb128 0x16
 954 05f0 04010000 		.4byte	.LASF84
 955 05f4 0C       		.byte	0xc
 956 05f5 37       		.byte	0x37
 957 05f6 7E000000 		.4byte	0x7e
 958 05fa 00       		.byte	0
 959 05fb 16       		.uleb128 0x16
 960 05fc 07080000 		.4byte	.LASF85
 961 0600 0C       		.byte	0xc
 962 0601 38       		.byte	0x38
 963 0602 7E000000 		.4byte	0x7e
 964 0606 04       		.byte	0x4
 965 0607 16       		.uleb128 0x16
 966 0608 4F010000 		.4byte	.LASF86
 967 060c 0C       		.byte	0xc
 968 060d 39       		.byte	0x39
 969 060e 7E000000 		.4byte	0x7e
 970 0612 08       		.byte	0x8
 971 0613 16       		.uleb128 0x16
 972 0614 66080000 		.4byte	.LASF87
 973 0618 0C       		.byte	0xc
 974 0619 3A       		.byte	0x3a
ARM GAS  /tmp/ccPGBCUW.s 			page 22


 975 061a 7E000000 		.4byte	0x7e
 976 061e 0C       		.byte	0xc
 977 061f 16       		.uleb128 0x16
 978 0620 28040000 		.4byte	.LASF88
 979 0624 0C       		.byte	0xc
 980 0625 3B       		.byte	0x3b
 981 0626 7E000000 		.4byte	0x7e
 982 062a 10       		.byte	0x10
 983 062b 16       		.uleb128 0x16
 984 062c AF030000 		.4byte	.LASF89
 985 0630 0C       		.byte	0xc
 986 0631 3C       		.byte	0x3c
 987 0632 7E000000 		.4byte	0x7e
 988 0636 14       		.byte	0x14
 989 0637 16       		.uleb128 0x16
 990 0638 58060000 		.4byte	.LASF90
 991 063c 0C       		.byte	0xc
 992 063d 3D       		.byte	0x3d
 993 063e 7E000000 		.4byte	0x7e
 994 0642 18       		.byte	0x18
 995 0643 16       		.uleb128 0x16
 996 0644 FE040000 		.4byte	.LASF91
 997 0648 0C       		.byte	0xc
 998 0649 3E       		.byte	0x3e
 999 064a 7E000000 		.4byte	0x7e
 1000 064e 1C       		.byte	0x1c
 1001 064f 16       		.uleb128 0x16
 1002 0650 C2030000 		.4byte	.LASF92
 1003 0654 0C       		.byte	0xc
 1004 0655 3F       		.byte	0x3f
 1005 0656 7E000000 		.4byte	0x7e
 1006 065a 20       		.byte	0x20
 1007 065b 00       		.byte	0
 1008 065c 1F       		.uleb128 0x1f
 1009 065d 5E010000 		.4byte	.LASF93
 1010 0661 0801     		.2byte	0x108
 1011 0663 0C       		.byte	0xc
 1012 0664 48       		.byte	0x48
 1013 0665 9C060000 		.4byte	0x69c
 1014 0669 16       		.uleb128 0x16
 1015 066a 2D000000 		.4byte	.LASF94
 1016 066e 0C       		.byte	0xc
 1017 066f 49       		.byte	0x49
 1018 0670 9C060000 		.4byte	0x69c
 1019 0674 00       		.byte	0
 1020 0675 16       		.uleb128 0x16
 1021 0676 00000000 		.4byte	.LASF95
 1022 067a 0C       		.byte	0xc
 1023 067b 4A       		.byte	0x4a
 1024 067c 9C060000 		.4byte	0x69c
 1025 0680 80       		.byte	0x80
 1026 0681 20       		.uleb128 0x20
 1027 0682 E1060000 		.4byte	.LASF96
 1028 0686 0C       		.byte	0xc
 1029 0687 4C       		.byte	0x4c
 1030 0688 6F050000 		.4byte	0x56f
 1031 068c 0001     		.2byte	0x100
ARM GAS  /tmp/ccPGBCUW.s 			page 23


 1032 068e 20       		.uleb128 0x20
 1033 068f C4010000 		.4byte	.LASF97
 1034 0693 0C       		.byte	0xc
 1035 0694 4F       		.byte	0x4f
 1036 0695 6F050000 		.4byte	0x56f
 1037 0699 0401     		.2byte	0x104
 1038 069b 00       		.byte	0
 1039 069c 0B       		.uleb128 0xb
 1040 069d DA040000 		.4byte	0x4da
 1041 06a1 AC060000 		.4byte	0x6ac
 1042 06a5 0C       		.uleb128 0xc
 1043 06a6 92010000 		.4byte	0x192
 1044 06aa 1F       		.byte	0x1f
 1045 06ab 00       		.byte	0
 1046 06ac 1F       		.uleb128 0x1f
 1047 06ad 36040000 		.4byte	.LASF98
 1048 06b1 9001     		.2byte	0x190
 1049 06b3 0C       		.byte	0xc
 1050 06b4 5B       		.byte	0x5b
 1051 06b5 EA060000 		.4byte	0x6ea
 1052 06b9 16       		.uleb128 0x16
 1053 06ba CE060000 		.4byte	.LASF78
 1054 06be 0C       		.byte	0xc
 1055 06bf 5C       		.byte	0x5c
 1056 06c0 EA060000 		.4byte	0x6ea
 1057 06c4 00       		.byte	0
 1058 06c5 16       		.uleb128 0x16
 1059 06c6 E9050000 		.4byte	.LASF99
 1060 06ca 0C       		.byte	0xc
 1061 06cb 5D       		.byte	0x5d
 1062 06cc 7E000000 		.4byte	0x7e
 1063 06d0 04       		.byte	0x4
 1064 06d1 16       		.uleb128 0x16
 1065 06d2 5A020000 		.4byte	.LASF100
 1066 06d6 0C       		.byte	0xc
 1067 06d7 5F       		.byte	0x5f
 1068 06d8 F0060000 		.4byte	0x6f0
 1069 06dc 08       		.byte	0x8
 1070 06dd 16       		.uleb128 0x16
 1071 06de 5E010000 		.4byte	.LASF93
 1072 06e2 0C       		.byte	0xc
 1073 06e3 60       		.byte	0x60
 1074 06e4 5C060000 		.4byte	0x65c
 1075 06e8 88       		.byte	0x88
 1076 06e9 00       		.byte	0
 1077 06ea 18       		.uleb128 0x18
 1078 06eb 04       		.byte	0x4
 1079 06ec AC060000 		.4byte	0x6ac
 1080 06f0 0B       		.uleb128 0xb
 1081 06f1 51040000 		.4byte	0x451
 1082 06f5 00070000 		.4byte	0x700
 1083 06f9 0C       		.uleb128 0xc
 1084 06fa 92010000 		.4byte	0x192
 1085 06fe 1F       		.byte	0x1f
 1086 06ff 00       		.byte	0
 1087 0700 1D       		.uleb128 0x1d
 1088 0701 12050000 		.4byte	.LASF101
ARM GAS  /tmp/ccPGBCUW.s 			page 24


 1089 0705 08       		.byte	0x8
 1090 0706 0C       		.byte	0xc
 1091 0707 73       		.byte	0x73
 1092 0708 25070000 		.4byte	0x725
 1093 070c 16       		.uleb128 0x16
 1094 070d 49010000 		.4byte	.LASF102
 1095 0711 0C       		.byte	0xc
 1096 0712 74       		.byte	0x74
 1097 0713 25070000 		.4byte	0x725
 1098 0717 00       		.byte	0
 1099 0718 16       		.uleb128 0x16
 1100 0719 9C060000 		.4byte	.LASF103
 1101 071d 0C       		.byte	0xc
 1102 071e 75       		.byte	0x75
 1103 071f 7E000000 		.4byte	0x7e
 1104 0723 04       		.byte	0x4
 1105 0724 00       		.byte	0
 1106 0725 18       		.uleb128 0x18
 1107 0726 04       		.byte	0x4
 1108 0727 37000000 		.4byte	0x37
 1109 072b 1D       		.uleb128 0x1d
 1110 072c 4C050000 		.4byte	.LASF104
 1111 0730 68       		.byte	0x68
 1112 0731 0C       		.byte	0xc
 1113 0732 B3       		.byte	0xb3
 1114 0733 55080000 		.4byte	0x855
 1115 0737 1E       		.uleb128 0x1e
 1116 0738 5F7000   		.ascii	"_p\000"
 1117 073b 0C       		.byte	0xc
 1118 073c B4       		.byte	0xb4
 1119 073d 25070000 		.4byte	0x725
 1120 0741 00       		.byte	0
 1121 0742 1E       		.uleb128 0x1e
 1122 0743 5F7200   		.ascii	"_r\000"
 1123 0746 0C       		.byte	0xc
 1124 0747 B5       		.byte	0xb5
 1125 0748 7E000000 		.4byte	0x7e
 1126 074c 04       		.byte	0x4
 1127 074d 1E       		.uleb128 0x1e
 1128 074e 5F7700   		.ascii	"_w\000"
 1129 0751 0C       		.byte	0xc
 1130 0752 B6       		.byte	0xb6
 1131 0753 7E000000 		.4byte	0x7e
 1132 0757 08       		.byte	0x8
 1133 0758 16       		.uleb128 0x16
 1134 0759 77070000 		.4byte	.LASF105
 1135 075d 0C       		.byte	0xc
 1136 075e B7       		.byte	0xb7
 1137 075f 3E000000 		.4byte	0x3e
 1138 0763 0C       		.byte	0xc
 1139 0764 16       		.uleb128 0x16
 1140 0765 03030000 		.4byte	.LASF106
 1141 0769 0C       		.byte	0xc
 1142 076a B8       		.byte	0xb8
 1143 076b 3E000000 		.4byte	0x3e
 1144 076f 0E       		.byte	0xe
 1145 0770 1E       		.uleb128 0x1e
ARM GAS  /tmp/ccPGBCUW.s 			page 25


 1146 0771 5F626600 		.ascii	"_bf\000"
 1147 0775 0C       		.byte	0xc
 1148 0776 B9       		.byte	0xb9
 1149 0777 00070000 		.4byte	0x700
 1150 077b 10       		.byte	0x10
 1151 077c 16       		.uleb128 0x16
 1152 077d 43080000 		.4byte	.LASF107
 1153 0781 0C       		.byte	0xc
 1154 0782 BA       		.byte	0xba
 1155 0783 7E000000 		.4byte	0x7e
 1156 0787 18       		.byte	0x18
 1157 0788 16       		.uleb128 0x16
 1158 0789 79010000 		.4byte	.LASF108
 1159 078d 0C       		.byte	0xc
 1160 078e C1       		.byte	0xc1
 1161 078f DA040000 		.4byte	0x4da
 1162 0793 1C       		.byte	0x1c
 1163 0794 16       		.uleb128 0x16
 1164 0795 B2020000 		.4byte	.LASF109
 1165 0799 0C       		.byte	0xc
 1166 079a C3       		.byte	0xc3
 1167 079b C2090000 		.4byte	0x9c2
 1168 079f 20       		.byte	0x20
 1169 07a0 16       		.uleb128 0x16
 1170 07a1 A8030000 		.4byte	.LASF110
 1171 07a5 0C       		.byte	0xc
 1172 07a6 C5       		.byte	0xc5
 1173 07a7 F1090000 		.4byte	0x9f1
 1174 07ab 24       		.byte	0x24
 1175 07ac 16       		.uleb128 0x16
 1176 07ad 4D060000 		.4byte	.LASF111
 1177 07b1 0C       		.byte	0xc
 1178 07b2 C8       		.byte	0xc8
 1179 07b3 150A0000 		.4byte	0xa15
 1180 07b7 28       		.byte	0x28
 1181 07b8 16       		.uleb128 0x16
 1182 07b9 12010000 		.4byte	.LASF112
 1183 07bd 0C       		.byte	0xc
 1184 07be C9       		.byte	0xc9
 1185 07bf 2F0A0000 		.4byte	0xa2f
 1186 07c3 2C       		.byte	0x2c
 1187 07c4 1E       		.uleb128 0x1e
 1188 07c5 5F756200 		.ascii	"_ub\000"
 1189 07c9 0C       		.byte	0xc
 1190 07ca CC       		.byte	0xcc
 1191 07cb 00070000 		.4byte	0x700
 1192 07cf 30       		.byte	0x30
 1193 07d0 1E       		.uleb128 0x1e
 1194 07d1 5F757000 		.ascii	"_up\000"
 1195 07d5 0C       		.byte	0xc
 1196 07d6 CD       		.byte	0xcd
 1197 07d7 25070000 		.4byte	0x725
 1198 07db 38       		.byte	0x38
 1199 07dc 1E       		.uleb128 0x1e
 1200 07dd 5F757200 		.ascii	"_ur\000"
 1201 07e1 0C       		.byte	0xc
 1202 07e2 CE       		.byte	0xce
ARM GAS  /tmp/ccPGBCUW.s 			page 26


 1203 07e3 7E000000 		.4byte	0x7e
 1204 07e7 3C       		.byte	0x3c
 1205 07e8 16       		.uleb128 0x16
 1206 07e9 39010000 		.4byte	.LASF113
 1207 07ed 0C       		.byte	0xc
 1208 07ee D1       		.byte	0xd1
 1209 07ef 350A0000 		.4byte	0xa35
 1210 07f3 40       		.byte	0x40
 1211 07f4 16       		.uleb128 0x16
 1212 07f5 C3070000 		.4byte	.LASF114
 1213 07f9 0C       		.byte	0xc
 1214 07fa D2       		.byte	0xd2
 1215 07fb 450A0000 		.4byte	0xa45
 1216 07ff 43       		.byte	0x43
 1217 0800 1E       		.uleb128 0x1e
 1218 0801 5F6C6200 		.ascii	"_lb\000"
 1219 0805 0C       		.byte	0xc
 1220 0806 D5       		.byte	0xd5
 1221 0807 00070000 		.4byte	0x700
 1222 080b 44       		.byte	0x44
 1223 080c 16       		.uleb128 0x16
 1224 080d A9020000 		.4byte	.LASF115
 1225 0811 0C       		.byte	0xc
 1226 0812 D8       		.byte	0xd8
 1227 0813 7E000000 		.4byte	0x7e
 1228 0817 4C       		.byte	0x4c
 1229 0818 16       		.uleb128 0x16
 1230 0819 1A020000 		.4byte	.LASF116
 1231 081d 0C       		.byte	0xc
 1232 081e D9       		.byte	0xd9
 1233 081f E7040000 		.4byte	0x4e7
 1234 0823 50       		.byte	0x50
 1235 0824 16       		.uleb128 0x16
 1236 0825 09030000 		.4byte	.LASF117
 1237 0829 0C       		.byte	0xc
 1238 082a DC       		.byte	0xdc
 1239 082b 73080000 		.4byte	0x873
 1240 082f 54       		.byte	0x54
 1241 0830 16       		.uleb128 0x16
 1242 0831 6B030000 		.4byte	.LASF118
 1243 0835 0C       		.byte	0xc
 1244 0836 E0       		.byte	0xe0
 1245 0837 64050000 		.4byte	0x564
 1246 083b 58       		.byte	0x58
 1247 083c 16       		.uleb128 0x16
 1248 083d 57000000 		.4byte	.LASF119
 1249 0841 0C       		.byte	0xc
 1250 0842 E2       		.byte	0xe2
 1251 0843 59050000 		.4byte	0x559
 1252 0847 5C       		.byte	0x5c
 1253 0848 16       		.uleb128 0x16
 1254 0849 19050000 		.4byte	.LASF120
 1255 084d 0C       		.byte	0xc
 1256 084e E3       		.byte	0xe3
 1257 084f 7E000000 		.4byte	0x7e
 1258 0853 64       		.byte	0x64
 1259 0854 00       		.byte	0
ARM GAS  /tmp/ccPGBCUW.s 			page 27


 1260 0855 21       		.uleb128 0x21
 1261 0856 7E000000 		.4byte	0x7e
 1262 085a 73080000 		.4byte	0x873
 1263 085e 22       		.uleb128 0x22
 1264 085f 73080000 		.4byte	0x873
 1265 0863 22       		.uleb128 0x22
 1266 0864 DA040000 		.4byte	0x4da
 1267 0868 22       		.uleb128 0x22
 1268 0869 B0090000 		.4byte	0x9b0
 1269 086d 22       		.uleb128 0x22
 1270 086e 7E000000 		.4byte	0x7e
 1271 0872 00       		.byte	0
 1272 0873 18       		.uleb128 0x18
 1273 0874 04       		.byte	0x4
 1274 0875 7E080000 		.4byte	0x87e
 1275 0879 06       		.uleb128 0x6
 1276 087a 73080000 		.4byte	0x873
 1277 087e 23       		.uleb128 0x23
 1278 087f 08060000 		.4byte	.LASF121
 1279 0883 2804     		.2byte	0x428
 1280 0885 0C       		.byte	0xc
 1281 0886 3802     		.2byte	0x238
 1282 0888 B0090000 		.4byte	0x9b0
 1283 088c 08       		.uleb128 0x8
 1284 088d 76060000 		.4byte	.LASF122
 1285 0891 0C       		.byte	0xc
 1286 0892 3A02     		.2byte	0x23a
 1287 0894 7E000000 		.4byte	0x7e
 1288 0898 00       		.byte	0
 1289 0899 08       		.uleb128 0x8
 1290 089a CC010000 		.4byte	.LASF123
 1291 089e 0C       		.byte	0xc
 1292 089f 3F02     		.2byte	0x23f
 1293 08a1 9C0A0000 		.4byte	0xa9c
 1294 08a5 04       		.byte	0x4
 1295 08a6 08       		.uleb128 0x8
 1296 08a7 E1020000 		.4byte	.LASF124
 1297 08ab 0C       		.byte	0xc
 1298 08ac 3F02     		.2byte	0x23f
 1299 08ae 9C0A0000 		.4byte	0xa9c
 1300 08b2 08       		.byte	0x8
 1301 08b3 08       		.uleb128 0x8
 1302 08b4 85020000 		.4byte	.LASF125
 1303 08b8 0C       		.byte	0xc
 1304 08b9 3F02     		.2byte	0x23f
 1305 08bb 9C0A0000 		.4byte	0xa9c
 1306 08bf 0C       		.byte	0xc
 1307 08c0 08       		.uleb128 0x8
 1308 08c1 E4050000 		.4byte	.LASF126
 1309 08c5 0C       		.byte	0xc
 1310 08c6 4102     		.2byte	0x241
 1311 08c8 7E000000 		.4byte	0x7e
 1312 08cc 10       		.byte	0x10
 1313 08cd 08       		.uleb128 0x8
 1314 08ce 4C000000 		.4byte	.LASF127
 1315 08d2 0C       		.byte	0xc
 1316 08d3 4202     		.2byte	0x242
ARM GAS  /tmp/ccPGBCUW.s 			page 28


 1317 08d5 7E0C0000 		.4byte	0xc7e
 1318 08d9 14       		.byte	0x14
 1319 08da 08       		.uleb128 0x8
 1320 08db 40070000 		.4byte	.LASF128
 1321 08df 0C       		.byte	0xc
 1322 08e0 4402     		.2byte	0x244
 1323 08e2 7E000000 		.4byte	0x7e
 1324 08e6 30       		.byte	0x30
 1325 08e7 08       		.uleb128 0x8
 1326 08e8 15080000 		.4byte	.LASF129
 1327 08ec 0C       		.byte	0xc
 1328 08ed 4502     		.2byte	0x245
 1329 08ef E6090000 		.4byte	0x9e6
 1330 08f3 34       		.byte	0x34
 1331 08f4 08       		.uleb128 0x8
 1332 08f5 48040000 		.4byte	.LASF130
 1333 08f9 0C       		.byte	0xc
 1334 08fa 4702     		.2byte	0x247
 1335 08fc 7E000000 		.4byte	0x7e
 1336 0900 38       		.byte	0x38
 1337 0901 08       		.uleb128 0x8
 1338 0902 F6050000 		.4byte	.LASF131
 1339 0906 0C       		.byte	0xc
 1340 0907 4902     		.2byte	0x249
 1341 0909 990C0000 		.4byte	0xc99
 1342 090d 3C       		.byte	0x3c
 1343 090e 08       		.uleb128 0x8
 1344 090f 52030000 		.4byte	.LASF132
 1345 0913 0C       		.byte	0xc
 1346 0914 4C02     		.2byte	0x24c
 1347 0916 CD050000 		.4byte	0x5cd
 1348 091a 40       		.byte	0x40
 1349 091b 08       		.uleb128 0x8
 1350 091c E1010000 		.4byte	.LASF133
 1351 0920 0C       		.byte	0xc
 1352 0921 4D02     		.2byte	0x24d
 1353 0923 7E000000 		.4byte	0x7e
 1354 0927 44       		.byte	0x44
 1355 0928 08       		.uleb128 0x8
 1356 0929 33080000 		.4byte	.LASF134
 1357 092d 0C       		.byte	0xc
 1358 092e 4E02     		.2byte	0x24e
 1359 0930 CD050000 		.4byte	0x5cd
 1360 0934 48       		.byte	0x48
 1361 0935 08       		.uleb128 0x8
 1362 0936 81040000 		.4byte	.LASF135
 1363 093a 0C       		.byte	0xc
 1364 093b 4F02     		.2byte	0x24f
 1365 093d 9F0C0000 		.4byte	0xc9f
 1366 0941 4C       		.byte	0x4c
 1367 0942 08       		.uleb128 0x8
 1368 0943 E9020000 		.4byte	.LASF136
 1369 0947 0C       		.byte	0xc
 1370 0948 5202     		.2byte	0x252
 1371 094a 7E000000 		.4byte	0x7e
 1372 094e 50       		.byte	0x50
 1373 094f 08       		.uleb128 0x8
ARM GAS  /tmp/ccPGBCUW.s 			page 29


 1374 0950 12020000 		.4byte	.LASF137
 1375 0954 0C       		.byte	0xc
 1376 0955 5302     		.2byte	0x253
 1377 0957 B0090000 		.4byte	0x9b0
 1378 095b 54       		.byte	0x54
 1379 095c 08       		.uleb128 0x8
 1380 095d 66030000 		.4byte	.LASF138
 1381 0961 0C       		.byte	0xc
 1382 0962 7602     		.2byte	0x276
 1383 0964 5C0C0000 		.4byte	0xc5c
 1384 0968 58       		.byte	0x58
 1385 0969 09       		.uleb128 0x9
 1386 096a 36040000 		.4byte	.LASF98
 1387 096e 0C       		.byte	0xc
 1388 096f 7A02     		.2byte	0x27a
 1389 0971 EA060000 		.4byte	0x6ea
 1390 0975 4801     		.2byte	0x148
 1391 0977 09       		.uleb128 0x9
 1392 0978 6A000000 		.4byte	.LASF139
 1393 097c 0C       		.byte	0xc
 1394 097d 7B02     		.2byte	0x27b
 1395 097f AC060000 		.4byte	0x6ac
 1396 0983 4C01     		.2byte	0x14c
 1397 0985 09       		.uleb128 0x9
 1398 0986 1B030000 		.4byte	.LASF140
 1399 098a 0C       		.byte	0xc
 1400 098b 7F02     		.2byte	0x27f
 1401 098d B00C0000 		.4byte	0xcb0
 1402 0991 DC02     		.2byte	0x2dc
 1403 0993 09       		.uleb128 0x9
 1404 0994 81010000 		.4byte	.LASF141
 1405 0998 0C       		.byte	0xc
 1406 0999 8402     		.2byte	0x284
 1407 099b 610A0000 		.4byte	0xa61
 1408 099f E002     		.2byte	0x2e0
 1409 09a1 09       		.uleb128 0x9
 1410 09a2 59010000 		.4byte	.LASF142
 1411 09a6 0C       		.byte	0xc
 1412 09a7 8502     		.2byte	0x285
 1413 09a9 BC0C0000 		.4byte	0xcbc
 1414 09ad EC02     		.2byte	0x2ec
 1415 09af 00       		.byte	0
 1416 09b0 18       		.uleb128 0x18
 1417 09b1 04       		.byte	0x4
 1418 09b2 B6090000 		.4byte	0x9b6
 1419 09b6 02       		.uleb128 0x2
 1420 09b7 01       		.byte	0x1
 1421 09b8 08       		.byte	0x8
 1422 09b9 7D060000 		.4byte	.LASF143
 1423 09bd 06       		.uleb128 0x6
 1424 09be B6090000 		.4byte	0x9b6
 1425 09c2 18       		.uleb128 0x18
 1426 09c3 04       		.byte	0x4
 1427 09c4 55080000 		.4byte	0x855
 1428 09c8 21       		.uleb128 0x21
 1429 09c9 7E000000 		.4byte	0x7e
 1430 09cd E6090000 		.4byte	0x9e6
ARM GAS  /tmp/ccPGBCUW.s 			page 30


 1431 09d1 22       		.uleb128 0x22
 1432 09d2 73080000 		.4byte	0x873
 1433 09d6 22       		.uleb128 0x22
 1434 09d7 DA040000 		.4byte	0x4da
 1435 09db 22       		.uleb128 0x22
 1436 09dc E6090000 		.4byte	0x9e6
 1437 09e0 22       		.uleb128 0x22
 1438 09e1 7E000000 		.4byte	0x7e
 1439 09e5 00       		.byte	0
 1440 09e6 18       		.uleb128 0x18
 1441 09e7 04       		.byte	0x4
 1442 09e8 BD090000 		.4byte	0x9bd
 1443 09ec 06       		.uleb128 0x6
 1444 09ed E6090000 		.4byte	0x9e6
 1445 09f1 18       		.uleb128 0x18
 1446 09f2 04       		.byte	0x4
 1447 09f3 C8090000 		.4byte	0x9c8
 1448 09f7 21       		.uleb128 0x21
 1449 09f8 F2040000 		.4byte	0x4f2
 1450 09fc 150A0000 		.4byte	0xa15
 1451 0a00 22       		.uleb128 0x22
 1452 0a01 73080000 		.4byte	0x873
 1453 0a05 22       		.uleb128 0x22
 1454 0a06 DA040000 		.4byte	0x4da
 1455 0a0a 22       		.uleb128 0x22
 1456 0a0b F2040000 		.4byte	0x4f2
 1457 0a0f 22       		.uleb128 0x22
 1458 0a10 7E000000 		.4byte	0x7e
 1459 0a14 00       		.byte	0
 1460 0a15 18       		.uleb128 0x18
 1461 0a16 04       		.byte	0x4
 1462 0a17 F7090000 		.4byte	0x9f7
 1463 0a1b 21       		.uleb128 0x21
 1464 0a1c 7E000000 		.4byte	0x7e
 1465 0a20 2F0A0000 		.4byte	0xa2f
 1466 0a24 22       		.uleb128 0x22
 1467 0a25 73080000 		.4byte	0x873
 1468 0a29 22       		.uleb128 0x22
 1469 0a2a DA040000 		.4byte	0x4da
 1470 0a2e 00       		.byte	0
 1471 0a2f 18       		.uleb128 0x18
 1472 0a30 04       		.byte	0x4
 1473 0a31 1B0A0000 		.4byte	0xa1b
 1474 0a35 0B       		.uleb128 0xb
 1475 0a36 37000000 		.4byte	0x37
 1476 0a3a 450A0000 		.4byte	0xa45
 1477 0a3e 0C       		.uleb128 0xc
 1478 0a3f 92010000 		.4byte	0x192
 1479 0a43 02       		.byte	0x2
 1480 0a44 00       		.byte	0
 1481 0a45 0B       		.uleb128 0xb
 1482 0a46 37000000 		.4byte	0x37
 1483 0a4a 550A0000 		.4byte	0xa55
 1484 0a4e 0C       		.uleb128 0xc
 1485 0a4f 92010000 		.4byte	0x192
 1486 0a53 00       		.byte	0
 1487 0a54 00       		.byte	0
ARM GAS  /tmp/ccPGBCUW.s 			page 31


 1488 0a55 0E       		.uleb128 0xe
 1489 0a56 27050000 		.4byte	.LASF144
 1490 0a5a 0C       		.byte	0xc
 1491 0a5b 1D01     		.2byte	0x11d
 1492 0a5d 2B070000 		.4byte	0x72b
 1493 0a61 24       		.uleb128 0x24
 1494 0a62 6A070000 		.4byte	.LASF145
 1495 0a66 0C       		.byte	0xc
 1496 0a67 0C       		.byte	0xc
 1497 0a68 2101     		.2byte	0x121
 1498 0a6a 960A0000 		.4byte	0xa96
 1499 0a6e 08       		.uleb128 0x8
 1500 0a6f CE060000 		.4byte	.LASF78
 1501 0a73 0C       		.byte	0xc
 1502 0a74 2301     		.2byte	0x123
 1503 0a76 960A0000 		.4byte	0xa96
 1504 0a7a 00       		.byte	0
 1505 0a7b 08       		.uleb128 0x8
 1506 0a7c 14030000 		.4byte	.LASF146
 1507 0a80 0C       		.byte	0xc
 1508 0a81 2401     		.2byte	0x124
 1509 0a83 7E000000 		.4byte	0x7e
 1510 0a87 04       		.byte	0x4
 1511 0a88 08       		.uleb128 0x8
 1512 0a89 21050000 		.4byte	.LASF147
 1513 0a8d 0C       		.byte	0xc
 1514 0a8e 2501     		.2byte	0x125
 1515 0a90 9C0A0000 		.4byte	0xa9c
 1516 0a94 08       		.byte	0x8
 1517 0a95 00       		.byte	0
 1518 0a96 18       		.uleb128 0x18
 1519 0a97 04       		.byte	0x4
 1520 0a98 610A0000 		.4byte	0xa61
 1521 0a9c 18       		.uleb128 0x18
 1522 0a9d 04       		.byte	0x4
 1523 0a9e 550A0000 		.4byte	0xa55
 1524 0aa2 24       		.uleb128 0x24
 1525 0aa3 35000000 		.4byte	.LASF148
 1526 0aa7 0E       		.byte	0xe
 1527 0aa8 0C       		.byte	0xc
 1528 0aa9 3D01     		.2byte	0x13d
 1529 0aab D70A0000 		.4byte	0xad7
 1530 0aaf 08       		.uleb128 0x8
 1531 0ab0 0F060000 		.4byte	.LASF149
 1532 0ab4 0C       		.byte	0xc
 1533 0ab5 3E01     		.2byte	0x13e
 1534 0ab7 D70A0000 		.4byte	0xad7
 1535 0abb 00       		.byte	0
 1536 0abc 08       		.uleb128 0x8
 1537 0abd C3060000 		.4byte	.LASF150
 1538 0ac1 0C       		.byte	0xc
 1539 0ac2 3F01     		.2byte	0x13f
 1540 0ac4 D70A0000 		.4byte	0xad7
 1541 0ac8 06       		.byte	0x6
 1542 0ac9 08       		.uleb128 0x8
 1543 0aca FD060000 		.4byte	.LASF151
 1544 0ace 0C       		.byte	0xc
ARM GAS  /tmp/ccPGBCUW.s 			page 32


 1545 0acf 4001     		.2byte	0x140
 1546 0ad1 45000000 		.4byte	0x45
 1547 0ad5 0C       		.byte	0xc
 1548 0ad6 00       		.byte	0
 1549 0ad7 0B       		.uleb128 0xb
 1550 0ad8 45000000 		.4byte	0x45
 1551 0adc E70A0000 		.4byte	0xae7
 1552 0ae0 0C       		.uleb128 0xc
 1553 0ae1 92010000 		.4byte	0x192
 1554 0ae5 02       		.byte	0x2
 1555 0ae6 00       		.byte	0
 1556 0ae7 0F       		.uleb128 0xf
 1557 0ae8 D0       		.byte	0xd0
 1558 0ae9 0C       		.byte	0xc
 1559 0aea 5702     		.2byte	0x257
 1560 0aec E80B0000 		.4byte	0xbe8
 1561 0af0 08       		.uleb128 0x8
 1562 0af1 58070000 		.4byte	.LASF152
 1563 0af5 0C       		.byte	0xc
 1564 0af6 5902     		.2byte	0x259
 1565 0af8 85000000 		.4byte	0x85
 1566 0afc 00       		.byte	0
 1567 0afd 08       		.uleb128 0x8
 1568 0afe D4060000 		.4byte	.LASF153
 1569 0b02 0C       		.byte	0xc
 1570 0b03 5A02     		.2byte	0x25a
 1571 0b05 B0090000 		.4byte	0x9b0
 1572 0b09 04       		.byte	0x4
 1573 0b0a 08       		.uleb128 0x8
 1574 0b0b 3A030000 		.4byte	.LASF154
 1575 0b0f 0C       		.byte	0xc
 1576 0b10 5B02     		.2byte	0x25b
 1577 0b12 E80B0000 		.4byte	0xbe8
 1578 0b16 08       		.byte	0x8
 1579 0b17 08       		.uleb128 0x8
 1580 0b18 F8070000 		.4byte	.LASF155
 1581 0b1c 0C       		.byte	0xc
 1582 0b1d 5C02     		.2byte	0x25c
 1583 0b1f E3050000 		.4byte	0x5e3
 1584 0b23 24       		.byte	0x24
 1585 0b24 08       		.uleb128 0x8
 1586 0b25 53040000 		.4byte	.LASF156
 1587 0b29 0C       		.byte	0xc
 1588 0b2a 5D02     		.2byte	0x25d
 1589 0b2c 7E000000 		.4byte	0x7e
 1590 0b30 48       		.byte	0x48
 1591 0b31 08       		.uleb128 0x8
 1592 0b32 CC050000 		.4byte	.LASF157
 1593 0b36 0C       		.byte	0xc
 1594 0b37 5E02     		.2byte	0x25e
 1595 0b39 77000000 		.4byte	0x77
 1596 0b3d 50       		.byte	0x50
 1597 0b3e 08       		.uleb128 0x8
 1598 0b3f 10080000 		.4byte	.LASF158
 1599 0b43 0C       		.byte	0xc
 1600 0b44 5F02     		.2byte	0x25f
 1601 0b46 A20A0000 		.4byte	0xaa2
ARM GAS  /tmp/ccPGBCUW.s 			page 33


 1602 0b4a 58       		.byte	0x58
 1603 0b4b 08       		.uleb128 0x8
 1604 0b4c D7050000 		.4byte	.LASF159
 1605 0b50 0C       		.byte	0xc
 1606 0b51 6002     		.2byte	0x260
 1607 0b53 59050000 		.4byte	0x559
 1608 0b57 68       		.byte	0x68
 1609 0b58 08       		.uleb128 0x8
 1610 0b59 25080000 		.4byte	.LASF160
 1611 0b5d 0C       		.byte	0xc
 1612 0b5e 6102     		.2byte	0x261
 1613 0b60 59050000 		.4byte	0x559
 1614 0b64 70       		.byte	0x70
 1615 0b65 08       		.uleb128 0x8
 1616 0b66 F6000000 		.4byte	.LASF161
 1617 0b6a 0C       		.byte	0xc
 1618 0b6b 6202     		.2byte	0x262
 1619 0b6d 59050000 		.4byte	0x559
 1620 0b71 78       		.byte	0x78
 1621 0b72 08       		.uleb128 0x8
 1622 0b73 86070000 		.4byte	.LASF162
 1623 0b77 0C       		.byte	0xc
 1624 0b78 6302     		.2byte	0x263
 1625 0b7a F80B0000 		.4byte	0xbf8
 1626 0b7e 80       		.byte	0x80
 1627 0b7f 08       		.uleb128 0x8
 1628 0b80 82060000 		.4byte	.LASF163
 1629 0b84 0C       		.byte	0xc
 1630 0b85 6402     		.2byte	0x264
 1631 0b87 080C0000 		.4byte	0xc08
 1632 0b8b 88       		.byte	0x88
 1633 0b8c 08       		.uleb128 0x8
 1634 0b8d 0A070000 		.4byte	.LASF164
 1635 0b91 0C       		.byte	0xc
 1636 0b92 6502     		.2byte	0x265
 1637 0b94 7E000000 		.4byte	0x7e
 1638 0b98 A0       		.byte	0xa0
 1639 0b99 08       		.uleb128 0x8
 1640 0b9a 3A020000 		.4byte	.LASF165
 1641 0b9e 0C       		.byte	0xc
 1642 0b9f 6602     		.2byte	0x266
 1643 0ba1 59050000 		.4byte	0x559
 1644 0ba5 A4       		.byte	0xa4
 1645 0ba6 08       		.uleb128 0x8
 1646 0ba7 E2000000 		.4byte	.LASF166
 1647 0bab 0C       		.byte	0xc
 1648 0bac 6702     		.2byte	0x267
 1649 0bae 59050000 		.4byte	0x559
 1650 0bb2 AC       		.byte	0xac
 1651 0bb3 08       		.uleb128 0x8
 1652 0bb4 29020000 		.4byte	.LASF167
 1653 0bb8 0C       		.byte	0xc
 1654 0bb9 6802     		.2byte	0x268
 1655 0bbb 59050000 		.4byte	0x559
 1656 0bbf B4       		.byte	0xb4
 1657 0bc0 08       		.uleb128 0x8
 1658 0bc1 7A000000 		.4byte	.LASF168
ARM GAS  /tmp/ccPGBCUW.s 			page 34


 1659 0bc5 0C       		.byte	0xc
 1660 0bc6 6902     		.2byte	0x269
 1661 0bc8 59050000 		.4byte	0x559
 1662 0bcc BC       		.byte	0xbc
 1663 0bcd 08       		.uleb128 0x8
 1664 0bce 89000000 		.4byte	.LASF169
 1665 0bd2 0C       		.byte	0xc
 1666 0bd3 6A02     		.2byte	0x26a
 1667 0bd5 59050000 		.4byte	0x559
 1668 0bd9 C4       		.byte	0xc4
 1669 0bda 08       		.uleb128 0x8
 1670 0bdb EC040000 		.4byte	.LASF170
 1671 0bdf 0C       		.byte	0xc
 1672 0be0 6B02     		.2byte	0x26b
 1673 0be2 7E000000 		.4byte	0x7e
 1674 0be6 CC       		.byte	0xcc
 1675 0be7 00       		.byte	0
 1676 0be8 0B       		.uleb128 0xb
 1677 0be9 B6090000 		.4byte	0x9b6
 1678 0bed F80B0000 		.4byte	0xbf8
 1679 0bf1 0C       		.uleb128 0xc
 1680 0bf2 92010000 		.4byte	0x192
 1681 0bf6 19       		.byte	0x19
 1682 0bf7 00       		.byte	0
 1683 0bf8 0B       		.uleb128 0xb
 1684 0bf9 B6090000 		.4byte	0x9b6
 1685 0bfd 080C0000 		.4byte	0xc08
 1686 0c01 0C       		.uleb128 0xc
 1687 0c02 92010000 		.4byte	0x192
 1688 0c06 07       		.byte	0x7
 1689 0c07 00       		.byte	0
 1690 0c08 0B       		.uleb128 0xb
 1691 0c09 B6090000 		.4byte	0x9b6
 1692 0c0d 180C0000 		.4byte	0xc18
 1693 0c11 0C       		.uleb128 0xc
 1694 0c12 92010000 		.4byte	0x192
 1695 0c16 17       		.byte	0x17
 1696 0c17 00       		.byte	0
 1697 0c18 0F       		.uleb128 0xf
 1698 0c19 F0       		.byte	0xf0
 1699 0c1a 0C       		.byte	0xc
 1700 0c1b 7002     		.2byte	0x270
 1701 0c1d 3C0C0000 		.4byte	0xc3c
 1702 0c21 08       		.uleb128 0x8
 1703 0c22 01040000 		.4byte	.LASF171
 1704 0c26 0C       		.byte	0xc
 1705 0c27 7302     		.2byte	0x273
 1706 0c29 3C0C0000 		.4byte	0xc3c
 1707 0c2d 00       		.byte	0
 1708 0c2e 08       		.uleb128 0x8
 1709 0c2f B9030000 		.4byte	.LASF172
 1710 0c33 0C       		.byte	0xc
 1711 0c34 7402     		.2byte	0x274
 1712 0c36 4C0C0000 		.4byte	0xc4c
 1713 0c3a 78       		.byte	0x78
 1714 0c3b 00       		.byte	0
 1715 0c3c 0B       		.uleb128 0xb
ARM GAS  /tmp/ccPGBCUW.s 			page 35


 1716 0c3d 25070000 		.4byte	0x725
 1717 0c41 4C0C0000 		.4byte	0xc4c
 1718 0c45 0C       		.uleb128 0xc
 1719 0c46 92010000 		.4byte	0x192
 1720 0c4a 1D       		.byte	0x1d
 1721 0c4b 00       		.byte	0
 1722 0c4c 0B       		.uleb128 0xb
 1723 0c4d 85000000 		.4byte	0x85
 1724 0c51 5C0C0000 		.4byte	0xc5c
 1725 0c55 0C       		.uleb128 0xc
 1726 0c56 92010000 		.4byte	0x192
 1727 0c5a 1D       		.byte	0x1d
 1728 0c5b 00       		.byte	0
 1729 0c5c 25       		.uleb128 0x25
 1730 0c5d F0       		.byte	0xf0
 1731 0c5e 0C       		.byte	0xc
 1732 0c5f 5502     		.2byte	0x255
 1733 0c61 7E0C0000 		.4byte	0xc7e
 1734 0c65 26       		.uleb128 0x26
 1735 0c66 08060000 		.4byte	.LASF121
 1736 0c6a 0C       		.byte	0xc
 1737 0c6b 6C02     		.2byte	0x26c
 1738 0c6d E70A0000 		.4byte	0xae7
 1739 0c71 26       		.uleb128 0x26
 1740 0c72 C9070000 		.4byte	.LASF173
 1741 0c76 0C       		.byte	0xc
 1742 0c77 7502     		.2byte	0x275
 1743 0c79 180C0000 		.4byte	0xc18
 1744 0c7d 00       		.byte	0
 1745 0c7e 0B       		.uleb128 0xb
 1746 0c7f B6090000 		.4byte	0x9b6
 1747 0c83 8E0C0000 		.4byte	0xc8e
 1748 0c87 0C       		.uleb128 0xc
 1749 0c88 92010000 		.4byte	0x192
 1750 0c8c 18       		.byte	0x18
 1751 0c8d 00       		.byte	0
 1752 0c8e 27       		.uleb128 0x27
 1753 0c8f 990C0000 		.4byte	0xc99
 1754 0c93 22       		.uleb128 0x22
 1755 0c94 73080000 		.4byte	0x873
 1756 0c98 00       		.byte	0
 1757 0c99 18       		.uleb128 0x18
 1758 0c9a 04       		.byte	0x4
 1759 0c9b 8E0C0000 		.4byte	0xc8e
 1760 0c9f 18       		.uleb128 0x18
 1761 0ca0 04       		.byte	0x4
 1762 0ca1 CD050000 		.4byte	0x5cd
 1763 0ca5 27       		.uleb128 0x27
 1764 0ca6 B00C0000 		.4byte	0xcb0
 1765 0caa 22       		.uleb128 0x22
 1766 0cab 7E000000 		.4byte	0x7e
 1767 0caf 00       		.byte	0
 1768 0cb0 18       		.uleb128 0x18
 1769 0cb1 04       		.byte	0x4
 1770 0cb2 B60C0000 		.4byte	0xcb6
 1771 0cb6 18       		.uleb128 0x18
 1772 0cb7 04       		.byte	0x4
ARM GAS  /tmp/ccPGBCUW.s 			page 36


 1773 0cb8 A50C0000 		.4byte	0xca5
 1774 0cbc 0B       		.uleb128 0xb
 1775 0cbd 550A0000 		.4byte	0xa55
 1776 0cc1 CC0C0000 		.4byte	0xccc
 1777 0cc5 0C       		.uleb128 0xc
 1778 0cc6 92010000 		.4byte	0x192
 1779 0cca 02       		.byte	0x2
 1780 0ccb 00       		.byte	0
 1781 0ccc 11       		.uleb128 0x11
 1782 0ccd 79020000 		.4byte	.LASF174
 1783 0cd1 0C       		.byte	0xc
 1784 0cd2 FD02     		.2byte	0x2fd
 1785 0cd4 73080000 		.4byte	0x873
 1786 0cd8 11       		.uleb128 0x11
 1787 0cd9 2D070000 		.4byte	.LASF175
 1788 0cdd 0C       		.byte	0xc
 1789 0cde FE02     		.2byte	0x2fe
 1790 0ce0 79080000 		.4byte	0x879
 1791 0ce4 12       		.uleb128 0x12
 1792 0ce5 3E040000 		.4byte	.LASF176
 1793 0ce9 0D       		.byte	0xd
 1794 0cea 5F       		.byte	0x5f
 1795 0ceb B0090000 		.4byte	0x9b0
 1796 0cef 02       		.uleb128 0x2
 1797 0cf0 08       		.byte	0x8
 1798 0cf1 04       		.byte	0x4
 1799 0cf2 56080000 		.4byte	.LASF177
 1800 0cf6 02       		.uleb128 0x2
 1801 0cf7 08       		.byte	0x8
 1802 0cf8 04       		.byte	0x4
 1803 0cf9 6A060000 		.4byte	.LASF178
 1804 0cfd 28       		.uleb128 0x28
 1805 0cfe 1C070000 		.4byte	.LASF203
 1806 0d02 01       		.byte	0x1
 1807 0d03 25000000 		.4byte	0x25
 1808 0d07 0E       		.byte	0xe
 1809 0d08 9902     		.2byte	0x299
 1810 0d0a 270D0000 		.4byte	0xd27
 1811 0d0e 29       		.uleb128 0x29
 1812 0d0f 8E060000 		.4byte	.LASF179
 1813 0d13 7F       		.sleb128 -1
 1814 0d14 14       		.uleb128 0x14
 1815 0d15 D3010000 		.4byte	.LASF180
 1816 0d19 00       		.byte	0
 1817 0d1a 14       		.uleb128 0x14
 1818 0d1b 3D000000 		.4byte	.LASF181
 1819 0d1f 01       		.byte	0x1
 1820 0d20 14       		.uleb128 0x14
 1821 0d21 B1000000 		.4byte	.LASF182
 1822 0d25 02       		.byte	0x2
 1823 0d26 00       		.byte	0
 1824 0d27 11       		.uleb128 0x11
 1825 0d28 CD000000 		.4byte	.LASF183
 1826 0d2c 0E       		.byte	0xe
 1827 0d2d A402     		.2byte	0x2a4
 1828 0d2f FD0C0000 		.4byte	0xcfd
 1829 0d33 0B       		.uleb128 0xb
ARM GAS  /tmp/ccPGBCUW.s 			page 37


 1830 0d34 EC090000 		.4byte	0x9ec
 1831 0d38 3E0D0000 		.4byte	0xd3e
 1832 0d3c 2A       		.uleb128 0x2a
 1833 0d3d 00       		.byte	0
 1834 0d3e 06       		.uleb128 0x6
 1835 0d3f 330D0000 		.4byte	0xd33
 1836 0d43 12       		.uleb128 0x12
 1837 0d44 05020000 		.4byte	.LASF184
 1838 0d48 0F       		.byte	0xf
 1839 0d49 14       		.byte	0x14
 1840 0d4a 3E0D0000 		.4byte	0xd3e
 1841 0d4e 12       		.uleb128 0x12
 1842 0d4f 54050000 		.4byte	.LASF185
 1843 0d53 0F       		.byte	0xf
 1844 0d54 15       		.byte	0x15
 1845 0d55 7E000000 		.4byte	0x7e
 1846 0d59 2B       		.uleb128 0x2b
 1847 0d5a D1070000 		.4byte	.LASF186
 1848 0d5e 07       		.byte	0x7
 1849 0d5f C8       		.byte	0xc8
 1850 0d60 A8000000 		.4byte	.LFB68
 1851 0d64 18000000 		.4byte	.LFE68-.LFB68
 1852 0d68 01       		.uleb128 0x1
 1853 0d69 9C       		.byte	0x9c
 1854 0d6a 7C0D0000 		.4byte	0xd7c
 1855 0d6e 2C       		.uleb128 0x2c
 1856 0d6f 69040000 		.4byte	.LASF188
 1857 0d73 01       		.byte	0x1
 1858 0d74 C8       		.byte	0xc8
 1859 0d75 AC000000 		.4byte	0xac
 1860 0d79 01       		.uleb128 0x1
 1861 0d7a 50       		.byte	0x50
 1862 0d7b 00       		.byte	0
 1863 0d7c 2B       		.uleb128 0x2b
 1864 0d7d 25010000 		.4byte	.LASF187
 1865 0d81 07       		.byte	0x7
 1866 0d82 C7       		.byte	0xc7
 1867 0d83 8C000000 		.4byte	.LFB67
 1868 0d87 1C000000 		.4byte	.LFE67-.LFB67
 1869 0d8b 01       		.uleb128 0x1
 1870 0d8c 9C       		.byte	0x9c
 1871 0d8d AE0D0000 		.4byte	0xdae
 1872 0d91 2D       		.uleb128 0x2d
 1873 0d92 1D060000 		.4byte	.LASF189
 1874 0d96 01       		.byte	0x1
 1875 0d97 B0       		.byte	0xb0
 1876 0d98 8C000000 		.4byte	0x8c
 1877 0d9c 00000000 		.4byte	.LLST6
 1878 0da0 2C       		.uleb128 0x2c
 1879 0da1 0C000000 		.4byte	.LASF190
 1880 0da5 01       		.byte	0x1
 1881 0da6 B0       		.byte	0xb0
 1882 0da7 00040000 		.4byte	0x400
 1883 0dab 01       		.uleb128 0x1
 1884 0dac 51       		.byte	0x51
 1885 0dad 00       		.byte	0
 1886 0dae 2B       		.uleb128 0x2b
ARM GAS  /tmp/ccPGBCUW.s 			page 38


 1887 0daf 95020000 		.4byte	.LASF191
 1888 0db3 07       		.byte	0x7
 1889 0db4 C6       		.byte	0xc6
 1890 0db5 78000000 		.4byte	.LFB66
 1891 0db9 14000000 		.4byte	.LFE66-.LFB66
 1892 0dbd 01       		.uleb128 0x1
 1893 0dbe 9C       		.byte	0x9c
 1894 0dbf E00D0000 		.4byte	0xde0
 1895 0dc3 2C       		.uleb128 0x2c
 1896 0dc4 D4020000 		.4byte	.LASF192
 1897 0dc8 01       		.byte	0x1
 1898 0dc9 9D       		.byte	0x9d
 1899 0dca AC000000 		.4byte	0xac
 1900 0dce 01       		.uleb128 0x1
 1901 0dcf 50       		.byte	0x50
 1902 0dd0 2D       		.uleb128 0x2d
 1903 0dd1 70070000 		.4byte	.LASF193
 1904 0dd5 01       		.byte	0x1
 1905 0dd6 9D       		.byte	0x9d
 1906 0dd7 AC000000 		.4byte	0xac
 1907 0ddb 3A000000 		.4byte	.LLST5
 1908 0ddf 00       		.byte	0
 1909 0de0 2B       		.uleb128 0x2b
 1910 0de1 4C080000 		.4byte	.LASF194
 1911 0de5 07       		.byte	0x7
 1912 0de6 C5       		.byte	0xc5
 1913 0de7 14000000 		.4byte	.LFB65
 1914 0deb 64000000 		.4byte	.LFE65-.LFB65
 1915 0def 01       		.uleb128 0x1
 1916 0df0 9C       		.byte	0x9c
 1917 0df1 320E0000 		.4byte	0xe32
 1918 0df5 2D       		.uleb128 0x2d
 1919 0df6 25030000 		.4byte	.LASF195
 1920 0dfa 01       		.byte	0x1
 1921 0dfb 71       		.byte	0x71
 1922 0dfc 320E0000 		.4byte	0xe32
 1923 0e00 5B000000 		.4byte	.LLST1
 1924 0e04 2E       		.uleb128 0x2e
 1925 0e05 90070000 		.4byte	.LASF196
 1926 0e09 01       		.byte	0x1
 1927 0e0a 73       		.byte	0x73
 1928 0e0b AC000000 		.4byte	0xac
 1929 0e0f 7C000000 		.4byte	.LLST2
 1930 0e13 2E       		.uleb128 0x2e
 1931 0e14 22020000 		.4byte	.LASF197
 1932 0e18 01       		.byte	0x1
 1933 0e19 73       		.byte	0x73
 1934 0e1a AC000000 		.4byte	0xac
 1935 0e1e C0000000 		.4byte	.LLST3
 1936 0e22 2E       		.uleb128 0x2e
 1937 0e23 C0000000 		.4byte	.LASF198
 1938 0e27 01       		.byte	0x1
 1939 0e28 73       		.byte	0x73
 1940 0e29 AC000000 		.4byte	0xac
 1941 0e2d EE000000 		.4byte	.LLST4
 1942 0e31 00       		.byte	0
 1943 0e32 18       		.uleb128 0x18
ARM GAS  /tmp/ccPGBCUW.s 			page 39


 1944 0e33 04       		.byte	0x4
 1945 0e34 45040000 		.4byte	0x445
 1946 0e38 2F       		.uleb128 0x2f
 1947 0e39 9C070000 		.4byte	.LASF204
 1948 0e3d 07       		.byte	0x7
 1949 0e3e C4       		.byte	0xc4
 1950 0e3f 00000000 		.4byte	.LFB64
 1951 0e43 14000000 		.4byte	.LFE64-.LFB64
 1952 0e47 01       		.uleb128 0x1
 1953 0e48 9C       		.byte	0x9c
 1954 0e49 2D       		.uleb128 0x2d
 1955 0e4a 39050000 		.4byte	.LASF199
 1956 0e4e 01       		.byte	0x1
 1957 0e4f 61       		.byte	0x61
 1958 0e50 AC000000 		.4byte	0xac
 1959 0e54 1C010000 		.4byte	.LLST0
 1960 0e58 00       		.byte	0
 1961 0e59 00       		.byte	0
 1962              		.section	.debug_abbrev,"",%progbits
 1963              	.Ldebug_abbrev0:
 1964 0000 01       		.uleb128 0x1
 1965 0001 11       		.uleb128 0x11
 1966 0002 01       		.byte	0x1
 1967 0003 25       		.uleb128 0x25
 1968 0004 0E       		.uleb128 0xe
 1969 0005 13       		.uleb128 0x13
 1970 0006 0B       		.uleb128 0xb
 1971 0007 03       		.uleb128 0x3
 1972 0008 0E       		.uleb128 0xe
 1973 0009 1B       		.uleb128 0x1b
 1974 000a 0E       		.uleb128 0xe
 1975 000b 11       		.uleb128 0x11
 1976 000c 01       		.uleb128 0x1
 1977 000d 12       		.uleb128 0x12
 1978 000e 06       		.uleb128 0x6
 1979 000f 10       		.uleb128 0x10
 1980 0010 17       		.uleb128 0x17
 1981 0011 00       		.byte	0
 1982 0012 00       		.byte	0
 1983 0013 02       		.uleb128 0x2
 1984 0014 24       		.uleb128 0x24
 1985 0015 00       		.byte	0
 1986 0016 0B       		.uleb128 0xb
 1987 0017 0B       		.uleb128 0xb
 1988 0018 3E       		.uleb128 0x3e
 1989 0019 0B       		.uleb128 0xb
 1990 001a 03       		.uleb128 0x3
 1991 001b 0E       		.uleb128 0xe
 1992 001c 00       		.byte	0
 1993 001d 00       		.byte	0
 1994 001e 03       		.uleb128 0x3
 1995 001f 16       		.uleb128 0x16
 1996 0020 00       		.byte	0
 1997 0021 03       		.uleb128 0x3
 1998 0022 0E       		.uleb128 0xe
 1999 0023 3A       		.uleb128 0x3a
 2000 0024 0B       		.uleb128 0xb
ARM GAS  /tmp/ccPGBCUW.s 			page 40


 2001 0025 3B       		.uleb128 0x3b
 2002 0026 0B       		.uleb128 0xb
 2003 0027 49       		.uleb128 0x49
 2004 0028 13       		.uleb128 0x13
 2005 0029 00       		.byte	0
 2006 002a 00       		.byte	0
 2007 002b 04       		.uleb128 0x4
 2008 002c 24       		.uleb128 0x24
 2009 002d 00       		.byte	0
 2010 002e 0B       		.uleb128 0xb
 2011 002f 0B       		.uleb128 0xb
 2012 0030 3E       		.uleb128 0x3e
 2013 0031 0B       		.uleb128 0xb
 2014 0032 03       		.uleb128 0x3
 2015 0033 08       		.uleb128 0x8
 2016 0034 00       		.byte	0
 2017 0035 00       		.byte	0
 2018 0036 05       		.uleb128 0x5
 2019 0037 35       		.uleb128 0x35
 2020 0038 00       		.byte	0
 2021 0039 49       		.uleb128 0x49
 2022 003a 13       		.uleb128 0x13
 2023 003b 00       		.byte	0
 2024 003c 00       		.byte	0
 2025 003d 06       		.uleb128 0x6
 2026 003e 26       		.uleb128 0x26
 2027 003f 00       		.byte	0
 2028 0040 49       		.uleb128 0x49
 2029 0041 13       		.uleb128 0x13
 2030 0042 00       		.byte	0
 2031 0043 00       		.byte	0
 2032 0044 07       		.uleb128 0x7
 2033 0045 13       		.uleb128 0x13
 2034 0046 01       		.byte	0x1
 2035 0047 0B       		.uleb128 0xb
 2036 0048 05       		.uleb128 0x5
 2037 0049 3A       		.uleb128 0x3a
 2038 004a 0B       		.uleb128 0xb
 2039 004b 3B       		.uleb128 0x3b
 2040 004c 05       		.uleb128 0x5
 2041 004d 01       		.uleb128 0x1
 2042 004e 13       		.uleb128 0x13
 2043 004f 00       		.byte	0
 2044 0050 00       		.byte	0
 2045 0051 08       		.uleb128 0x8
 2046 0052 0D       		.uleb128 0xd
 2047 0053 00       		.byte	0
 2048 0054 03       		.uleb128 0x3
 2049 0055 0E       		.uleb128 0xe
 2050 0056 3A       		.uleb128 0x3a
 2051 0057 0B       		.uleb128 0xb
 2052 0058 3B       		.uleb128 0x3b
 2053 0059 05       		.uleb128 0x5
 2054 005a 49       		.uleb128 0x49
 2055 005b 13       		.uleb128 0x13
 2056 005c 38       		.uleb128 0x38
 2057 005d 0B       		.uleb128 0xb
ARM GAS  /tmp/ccPGBCUW.s 			page 41


 2058 005e 00       		.byte	0
 2059 005f 00       		.byte	0
 2060 0060 09       		.uleb128 0x9
 2061 0061 0D       		.uleb128 0xd
 2062 0062 00       		.byte	0
 2063 0063 03       		.uleb128 0x3
 2064 0064 0E       		.uleb128 0xe
 2065 0065 3A       		.uleb128 0x3a
 2066 0066 0B       		.uleb128 0xb
 2067 0067 3B       		.uleb128 0x3b
 2068 0068 05       		.uleb128 0x5
 2069 0069 49       		.uleb128 0x49
 2070 006a 13       		.uleb128 0x13
 2071 006b 38       		.uleb128 0x38
 2072 006c 05       		.uleb128 0x5
 2073 006d 00       		.byte	0
 2074 006e 00       		.byte	0
 2075 006f 0A       		.uleb128 0xa
 2076 0070 0D       		.uleb128 0xd
 2077 0071 00       		.byte	0
 2078 0072 03       		.uleb128 0x3
 2079 0073 08       		.uleb128 0x8
 2080 0074 3A       		.uleb128 0x3a
 2081 0075 0B       		.uleb128 0xb
 2082 0076 3B       		.uleb128 0x3b
 2083 0077 05       		.uleb128 0x5
 2084 0078 49       		.uleb128 0x49
 2085 0079 13       		.uleb128 0x13
 2086 007a 38       		.uleb128 0x38
 2087 007b 05       		.uleb128 0x5
 2088 007c 00       		.byte	0
 2089 007d 00       		.byte	0
 2090 007e 0B       		.uleb128 0xb
 2091 007f 01       		.uleb128 0x1
 2092 0080 01       		.byte	0x1
 2093 0081 49       		.uleb128 0x49
 2094 0082 13       		.uleb128 0x13
 2095 0083 01       		.uleb128 0x1
 2096 0084 13       		.uleb128 0x13
 2097 0085 00       		.byte	0
 2098 0086 00       		.byte	0
 2099 0087 0C       		.uleb128 0xc
 2100 0088 21       		.uleb128 0x21
 2101 0089 00       		.byte	0
 2102 008a 49       		.uleb128 0x49
 2103 008b 13       		.uleb128 0x13
 2104 008c 2F       		.uleb128 0x2f
 2105 008d 0B       		.uleb128 0xb
 2106 008e 00       		.byte	0
 2107 008f 00       		.byte	0
 2108 0090 0D       		.uleb128 0xd
 2109 0091 21       		.uleb128 0x21
 2110 0092 00       		.byte	0
 2111 0093 49       		.uleb128 0x49
 2112 0094 13       		.uleb128 0x13
 2113 0095 2F       		.uleb128 0x2f
 2114 0096 05       		.uleb128 0x5
ARM GAS  /tmp/ccPGBCUW.s 			page 42


 2115 0097 00       		.byte	0
 2116 0098 00       		.byte	0
 2117 0099 0E       		.uleb128 0xe
 2118 009a 16       		.uleb128 0x16
 2119 009b 00       		.byte	0
 2120 009c 03       		.uleb128 0x3
 2121 009d 0E       		.uleb128 0xe
 2122 009e 3A       		.uleb128 0x3a
 2123 009f 0B       		.uleb128 0xb
 2124 00a0 3B       		.uleb128 0x3b
 2125 00a1 05       		.uleb128 0x5
 2126 00a2 49       		.uleb128 0x49
 2127 00a3 13       		.uleb128 0x13
 2128 00a4 00       		.byte	0
 2129 00a5 00       		.byte	0
 2130 00a6 0F       		.uleb128 0xf
 2131 00a7 13       		.uleb128 0x13
 2132 00a8 01       		.byte	0x1
 2133 00a9 0B       		.uleb128 0xb
 2134 00aa 0B       		.uleb128 0xb
 2135 00ab 3A       		.uleb128 0x3a
 2136 00ac 0B       		.uleb128 0xb
 2137 00ad 3B       		.uleb128 0x3b
 2138 00ae 05       		.uleb128 0x5
 2139 00af 01       		.uleb128 0x1
 2140 00b0 13       		.uleb128 0x13
 2141 00b1 00       		.byte	0
 2142 00b2 00       		.byte	0
 2143 00b3 10       		.uleb128 0x10
 2144 00b4 0D       		.uleb128 0xd
 2145 00b5 00       		.byte	0
 2146 00b6 03       		.uleb128 0x3
 2147 00b7 08       		.uleb128 0x8
 2148 00b8 3A       		.uleb128 0x3a
 2149 00b9 0B       		.uleb128 0xb
 2150 00ba 3B       		.uleb128 0x3b
 2151 00bb 05       		.uleb128 0x5
 2152 00bc 49       		.uleb128 0x49
 2153 00bd 13       		.uleb128 0x13
 2154 00be 38       		.uleb128 0x38
 2155 00bf 0B       		.uleb128 0xb
 2156 00c0 00       		.byte	0
 2157 00c1 00       		.byte	0
 2158 00c2 11       		.uleb128 0x11
 2159 00c3 34       		.uleb128 0x34
 2160 00c4 00       		.byte	0
 2161 00c5 03       		.uleb128 0x3
 2162 00c6 0E       		.uleb128 0xe
 2163 00c7 3A       		.uleb128 0x3a
 2164 00c8 0B       		.uleb128 0xb
 2165 00c9 3B       		.uleb128 0x3b
 2166 00ca 05       		.uleb128 0x5
 2167 00cb 49       		.uleb128 0x49
 2168 00cc 13       		.uleb128 0x13
 2169 00cd 3F       		.uleb128 0x3f
 2170 00ce 19       		.uleb128 0x19
 2171 00cf 3C       		.uleb128 0x3c
ARM GAS  /tmp/ccPGBCUW.s 			page 43


 2172 00d0 19       		.uleb128 0x19
 2173 00d1 00       		.byte	0
 2174 00d2 00       		.byte	0
 2175 00d3 12       		.uleb128 0x12
 2176 00d4 34       		.uleb128 0x34
 2177 00d5 00       		.byte	0
 2178 00d6 03       		.uleb128 0x3
 2179 00d7 0E       		.uleb128 0xe
 2180 00d8 3A       		.uleb128 0x3a
 2181 00d9 0B       		.uleb128 0xb
 2182 00da 3B       		.uleb128 0x3b
 2183 00db 0B       		.uleb128 0xb
 2184 00dc 49       		.uleb128 0x49
 2185 00dd 13       		.uleb128 0x13
 2186 00de 3F       		.uleb128 0x3f
 2187 00df 19       		.uleb128 0x19
 2188 00e0 3C       		.uleb128 0x3c
 2189 00e1 19       		.uleb128 0x19
 2190 00e2 00       		.byte	0
 2191 00e3 00       		.byte	0
 2192 00e4 13       		.uleb128 0x13
 2193 00e5 04       		.uleb128 0x4
 2194 00e6 01       		.byte	0x1
 2195 00e7 0B       		.uleb128 0xb
 2196 00e8 0B       		.uleb128 0xb
 2197 00e9 49       		.uleb128 0x49
 2198 00ea 13       		.uleb128 0x13
 2199 00eb 3A       		.uleb128 0x3a
 2200 00ec 0B       		.uleb128 0xb
 2201 00ed 3B       		.uleb128 0x3b
 2202 00ee 05       		.uleb128 0x5
 2203 00ef 01       		.uleb128 0x1
 2204 00f0 13       		.uleb128 0x13
 2205 00f1 00       		.byte	0
 2206 00f2 00       		.byte	0
 2207 00f3 14       		.uleb128 0x14
 2208 00f4 28       		.uleb128 0x28
 2209 00f5 00       		.byte	0
 2210 00f6 03       		.uleb128 0x3
 2211 00f7 0E       		.uleb128 0xe
 2212 00f8 1C       		.uleb128 0x1c
 2213 00f9 0B       		.uleb128 0xb
 2214 00fa 00       		.byte	0
 2215 00fb 00       		.byte	0
 2216 00fc 15       		.uleb128 0x15
 2217 00fd 13       		.uleb128 0x13
 2218 00fe 01       		.byte	0x1
 2219 00ff 0B       		.uleb128 0xb
 2220 0100 0B       		.uleb128 0xb
 2221 0101 3A       		.uleb128 0x3a
 2222 0102 0B       		.uleb128 0xb
 2223 0103 3B       		.uleb128 0x3b
 2224 0104 0B       		.uleb128 0xb
 2225 0105 01       		.uleb128 0x1
 2226 0106 13       		.uleb128 0x13
 2227 0107 00       		.byte	0
 2228 0108 00       		.byte	0
ARM GAS  /tmp/ccPGBCUW.s 			page 44


 2229 0109 16       		.uleb128 0x16
 2230 010a 0D       		.uleb128 0xd
 2231 010b 00       		.byte	0
 2232 010c 03       		.uleb128 0x3
 2233 010d 0E       		.uleb128 0xe
 2234 010e 3A       		.uleb128 0x3a
 2235 010f 0B       		.uleb128 0xb
 2236 0110 3B       		.uleb128 0x3b
 2237 0111 0B       		.uleb128 0xb
 2238 0112 49       		.uleb128 0x49
 2239 0113 13       		.uleb128 0x13
 2240 0114 38       		.uleb128 0x38
 2241 0115 0B       		.uleb128 0xb
 2242 0116 00       		.byte	0
 2243 0117 00       		.byte	0
 2244 0118 17       		.uleb128 0x17
 2245 0119 15       		.uleb128 0x15
 2246 011a 00       		.byte	0
 2247 011b 27       		.uleb128 0x27
 2248 011c 19       		.uleb128 0x19
 2249 011d 00       		.byte	0
 2250 011e 00       		.byte	0
 2251 011f 18       		.uleb128 0x18
 2252 0120 0F       		.uleb128 0xf
 2253 0121 00       		.byte	0
 2254 0122 0B       		.uleb128 0xb
 2255 0123 0B       		.uleb128 0xb
 2256 0124 49       		.uleb128 0x49
 2257 0125 13       		.uleb128 0x13
 2258 0126 00       		.byte	0
 2259 0127 00       		.byte	0
 2260 0128 19       		.uleb128 0x19
 2261 0129 34       		.uleb128 0x34
 2262 012a 00       		.byte	0
 2263 012b 03       		.uleb128 0x3
 2264 012c 08       		.uleb128 0x8
 2265 012d 3A       		.uleb128 0x3a
 2266 012e 0B       		.uleb128 0xb
 2267 012f 3B       		.uleb128 0x3b
 2268 0130 05       		.uleb128 0x5
 2269 0131 49       		.uleb128 0x49
 2270 0132 13       		.uleb128 0x13
 2271 0133 3F       		.uleb128 0x3f
 2272 0134 19       		.uleb128 0x19
 2273 0135 3C       		.uleb128 0x3c
 2274 0136 19       		.uleb128 0x19
 2275 0137 00       		.byte	0
 2276 0138 00       		.byte	0
 2277 0139 1A       		.uleb128 0x1a
 2278 013a 0F       		.uleb128 0xf
 2279 013b 00       		.byte	0
 2280 013c 0B       		.uleb128 0xb
 2281 013d 0B       		.uleb128 0xb
 2282 013e 00       		.byte	0
 2283 013f 00       		.byte	0
 2284 0140 1B       		.uleb128 0x1b
 2285 0141 17       		.uleb128 0x17
ARM GAS  /tmp/ccPGBCUW.s 			page 45


 2286 0142 01       		.byte	0x1
 2287 0143 0B       		.uleb128 0xb
 2288 0144 0B       		.uleb128 0xb
 2289 0145 3A       		.uleb128 0x3a
 2290 0146 0B       		.uleb128 0xb
 2291 0147 3B       		.uleb128 0x3b
 2292 0148 0B       		.uleb128 0xb
 2293 0149 01       		.uleb128 0x1
 2294 014a 13       		.uleb128 0x13
 2295 014b 00       		.byte	0
 2296 014c 00       		.byte	0
 2297 014d 1C       		.uleb128 0x1c
 2298 014e 0D       		.uleb128 0xd
 2299 014f 00       		.byte	0
 2300 0150 03       		.uleb128 0x3
 2301 0151 0E       		.uleb128 0xe
 2302 0152 3A       		.uleb128 0x3a
 2303 0153 0B       		.uleb128 0xb
 2304 0154 3B       		.uleb128 0x3b
 2305 0155 0B       		.uleb128 0xb
 2306 0156 49       		.uleb128 0x49
 2307 0157 13       		.uleb128 0x13
 2308 0158 00       		.byte	0
 2309 0159 00       		.byte	0
 2310 015a 1D       		.uleb128 0x1d
 2311 015b 13       		.uleb128 0x13
 2312 015c 01       		.byte	0x1
 2313 015d 03       		.uleb128 0x3
 2314 015e 0E       		.uleb128 0xe
 2315 015f 0B       		.uleb128 0xb
 2316 0160 0B       		.uleb128 0xb
 2317 0161 3A       		.uleb128 0x3a
 2318 0162 0B       		.uleb128 0xb
 2319 0163 3B       		.uleb128 0x3b
 2320 0164 0B       		.uleb128 0xb
 2321 0165 01       		.uleb128 0x1
 2322 0166 13       		.uleb128 0x13
 2323 0167 00       		.byte	0
 2324 0168 00       		.byte	0
 2325 0169 1E       		.uleb128 0x1e
 2326 016a 0D       		.uleb128 0xd
 2327 016b 00       		.byte	0
 2328 016c 03       		.uleb128 0x3
 2329 016d 08       		.uleb128 0x8
 2330 016e 3A       		.uleb128 0x3a
 2331 016f 0B       		.uleb128 0xb
 2332 0170 3B       		.uleb128 0x3b
 2333 0171 0B       		.uleb128 0xb
 2334 0172 49       		.uleb128 0x49
 2335 0173 13       		.uleb128 0x13
 2336 0174 38       		.uleb128 0x38
 2337 0175 0B       		.uleb128 0xb
 2338 0176 00       		.byte	0
 2339 0177 00       		.byte	0
 2340 0178 1F       		.uleb128 0x1f
 2341 0179 13       		.uleb128 0x13
 2342 017a 01       		.byte	0x1
ARM GAS  /tmp/ccPGBCUW.s 			page 46


 2343 017b 03       		.uleb128 0x3
 2344 017c 0E       		.uleb128 0xe
 2345 017d 0B       		.uleb128 0xb
 2346 017e 05       		.uleb128 0x5
 2347 017f 3A       		.uleb128 0x3a
 2348 0180 0B       		.uleb128 0xb
 2349 0181 3B       		.uleb128 0x3b
 2350 0182 0B       		.uleb128 0xb
 2351 0183 01       		.uleb128 0x1
 2352 0184 13       		.uleb128 0x13
 2353 0185 00       		.byte	0
 2354 0186 00       		.byte	0
 2355 0187 20       		.uleb128 0x20
 2356 0188 0D       		.uleb128 0xd
 2357 0189 00       		.byte	0
 2358 018a 03       		.uleb128 0x3
 2359 018b 0E       		.uleb128 0xe
 2360 018c 3A       		.uleb128 0x3a
 2361 018d 0B       		.uleb128 0xb
 2362 018e 3B       		.uleb128 0x3b
 2363 018f 0B       		.uleb128 0xb
 2364 0190 49       		.uleb128 0x49
 2365 0191 13       		.uleb128 0x13
 2366 0192 38       		.uleb128 0x38
 2367 0193 05       		.uleb128 0x5
 2368 0194 00       		.byte	0
 2369 0195 00       		.byte	0
 2370 0196 21       		.uleb128 0x21
 2371 0197 15       		.uleb128 0x15
 2372 0198 01       		.byte	0x1
 2373 0199 27       		.uleb128 0x27
 2374 019a 19       		.uleb128 0x19
 2375 019b 49       		.uleb128 0x49
 2376 019c 13       		.uleb128 0x13
 2377 019d 01       		.uleb128 0x1
 2378 019e 13       		.uleb128 0x13
 2379 019f 00       		.byte	0
 2380 01a0 00       		.byte	0
 2381 01a1 22       		.uleb128 0x22
 2382 01a2 05       		.uleb128 0x5
 2383 01a3 00       		.byte	0
 2384 01a4 49       		.uleb128 0x49
 2385 01a5 13       		.uleb128 0x13
 2386 01a6 00       		.byte	0
 2387 01a7 00       		.byte	0
 2388 01a8 23       		.uleb128 0x23
 2389 01a9 13       		.uleb128 0x13
 2390 01aa 01       		.byte	0x1
 2391 01ab 03       		.uleb128 0x3
 2392 01ac 0E       		.uleb128 0xe
 2393 01ad 0B       		.uleb128 0xb
 2394 01ae 05       		.uleb128 0x5
 2395 01af 3A       		.uleb128 0x3a
 2396 01b0 0B       		.uleb128 0xb
 2397 01b1 3B       		.uleb128 0x3b
 2398 01b2 05       		.uleb128 0x5
 2399 01b3 01       		.uleb128 0x1
ARM GAS  /tmp/ccPGBCUW.s 			page 47


 2400 01b4 13       		.uleb128 0x13
 2401 01b5 00       		.byte	0
 2402 01b6 00       		.byte	0
 2403 01b7 24       		.uleb128 0x24
 2404 01b8 13       		.uleb128 0x13
 2405 01b9 01       		.byte	0x1
 2406 01ba 03       		.uleb128 0x3
 2407 01bb 0E       		.uleb128 0xe
 2408 01bc 0B       		.uleb128 0xb
 2409 01bd 0B       		.uleb128 0xb
 2410 01be 3A       		.uleb128 0x3a
 2411 01bf 0B       		.uleb128 0xb
 2412 01c0 3B       		.uleb128 0x3b
 2413 01c1 05       		.uleb128 0x5
 2414 01c2 01       		.uleb128 0x1
 2415 01c3 13       		.uleb128 0x13
 2416 01c4 00       		.byte	0
 2417 01c5 00       		.byte	0
 2418 01c6 25       		.uleb128 0x25
 2419 01c7 17       		.uleb128 0x17
 2420 01c8 01       		.byte	0x1
 2421 01c9 0B       		.uleb128 0xb
 2422 01ca 0B       		.uleb128 0xb
 2423 01cb 3A       		.uleb128 0x3a
 2424 01cc 0B       		.uleb128 0xb
 2425 01cd 3B       		.uleb128 0x3b
 2426 01ce 05       		.uleb128 0x5
 2427 01cf 01       		.uleb128 0x1
 2428 01d0 13       		.uleb128 0x13
 2429 01d1 00       		.byte	0
 2430 01d2 00       		.byte	0
 2431 01d3 26       		.uleb128 0x26
 2432 01d4 0D       		.uleb128 0xd
 2433 01d5 00       		.byte	0
 2434 01d6 03       		.uleb128 0x3
 2435 01d7 0E       		.uleb128 0xe
 2436 01d8 3A       		.uleb128 0x3a
 2437 01d9 0B       		.uleb128 0xb
 2438 01da 3B       		.uleb128 0x3b
 2439 01db 05       		.uleb128 0x5
 2440 01dc 49       		.uleb128 0x49
 2441 01dd 13       		.uleb128 0x13
 2442 01de 00       		.byte	0
 2443 01df 00       		.byte	0
 2444 01e0 27       		.uleb128 0x27
 2445 01e1 15       		.uleb128 0x15
 2446 01e2 01       		.byte	0x1
 2447 01e3 27       		.uleb128 0x27
 2448 01e4 19       		.uleb128 0x19
 2449 01e5 01       		.uleb128 0x1
 2450 01e6 13       		.uleb128 0x13
 2451 01e7 00       		.byte	0
 2452 01e8 00       		.byte	0
 2453 01e9 28       		.uleb128 0x28
 2454 01ea 04       		.uleb128 0x4
 2455 01eb 01       		.byte	0x1
 2456 01ec 03       		.uleb128 0x3
ARM GAS  /tmp/ccPGBCUW.s 			page 48


 2457 01ed 0E       		.uleb128 0xe
 2458 01ee 0B       		.uleb128 0xb
 2459 01ef 0B       		.uleb128 0xb
 2460 01f0 49       		.uleb128 0x49
 2461 01f1 13       		.uleb128 0x13
 2462 01f2 3A       		.uleb128 0x3a
 2463 01f3 0B       		.uleb128 0xb
 2464 01f4 3B       		.uleb128 0x3b
 2465 01f5 05       		.uleb128 0x5
 2466 01f6 01       		.uleb128 0x1
 2467 01f7 13       		.uleb128 0x13
 2468 01f8 00       		.byte	0
 2469 01f9 00       		.byte	0
 2470 01fa 29       		.uleb128 0x29
 2471 01fb 28       		.uleb128 0x28
 2472 01fc 00       		.byte	0
 2473 01fd 03       		.uleb128 0x3
 2474 01fe 0E       		.uleb128 0xe
 2475 01ff 1C       		.uleb128 0x1c
 2476 0200 0D       		.uleb128 0xd
 2477 0201 00       		.byte	0
 2478 0202 00       		.byte	0
 2479 0203 2A       		.uleb128 0x2a
 2480 0204 21       		.uleb128 0x21
 2481 0205 00       		.byte	0
 2482 0206 00       		.byte	0
 2483 0207 00       		.byte	0
 2484 0208 2B       		.uleb128 0x2b
 2485 0209 2E       		.uleb128 0x2e
 2486 020a 01       		.byte	0x1
 2487 020b 3F       		.uleb128 0x3f
 2488 020c 19       		.uleb128 0x19
 2489 020d 03       		.uleb128 0x3
 2490 020e 0E       		.uleb128 0xe
 2491 020f 3A       		.uleb128 0x3a
 2492 0210 0B       		.uleb128 0xb
 2493 0211 3B       		.uleb128 0x3b
 2494 0212 0B       		.uleb128 0xb
 2495 0213 27       		.uleb128 0x27
 2496 0214 19       		.uleb128 0x19
 2497 0215 11       		.uleb128 0x11
 2498 0216 01       		.uleb128 0x1
 2499 0217 12       		.uleb128 0x12
 2500 0218 06       		.uleb128 0x6
 2501 0219 40       		.uleb128 0x40
 2502 021a 18       		.uleb128 0x18
 2503 021b 9742     		.uleb128 0x2117
 2504 021d 19       		.uleb128 0x19
 2505 021e 01       		.uleb128 0x1
 2506 021f 13       		.uleb128 0x13
 2507 0220 00       		.byte	0
 2508 0221 00       		.byte	0
 2509 0222 2C       		.uleb128 0x2c
 2510 0223 05       		.uleb128 0x5
 2511 0224 00       		.byte	0
 2512 0225 03       		.uleb128 0x3
 2513 0226 0E       		.uleb128 0xe
ARM GAS  /tmp/ccPGBCUW.s 			page 49


 2514 0227 3A       		.uleb128 0x3a
 2515 0228 0B       		.uleb128 0xb
 2516 0229 3B       		.uleb128 0x3b
 2517 022a 0B       		.uleb128 0xb
 2518 022b 49       		.uleb128 0x49
 2519 022c 13       		.uleb128 0x13
 2520 022d 02       		.uleb128 0x2
 2521 022e 18       		.uleb128 0x18
 2522 022f 00       		.byte	0
 2523 0230 00       		.byte	0
 2524 0231 2D       		.uleb128 0x2d
 2525 0232 05       		.uleb128 0x5
 2526 0233 00       		.byte	0
 2527 0234 03       		.uleb128 0x3
 2528 0235 0E       		.uleb128 0xe
 2529 0236 3A       		.uleb128 0x3a
 2530 0237 0B       		.uleb128 0xb
 2531 0238 3B       		.uleb128 0x3b
 2532 0239 0B       		.uleb128 0xb
 2533 023a 49       		.uleb128 0x49
 2534 023b 13       		.uleb128 0x13
 2535 023c 02       		.uleb128 0x2
 2536 023d 17       		.uleb128 0x17
 2537 023e 00       		.byte	0
 2538 023f 00       		.byte	0
 2539 0240 2E       		.uleb128 0x2e
 2540 0241 34       		.uleb128 0x34
 2541 0242 00       		.byte	0
 2542 0243 03       		.uleb128 0x3
 2543 0244 0E       		.uleb128 0xe
 2544 0245 3A       		.uleb128 0x3a
 2545 0246 0B       		.uleb128 0xb
 2546 0247 3B       		.uleb128 0x3b
 2547 0248 0B       		.uleb128 0xb
 2548 0249 49       		.uleb128 0x49
 2549 024a 13       		.uleb128 0x13
 2550 024b 02       		.uleb128 0x2
 2551 024c 17       		.uleb128 0x17
 2552 024d 00       		.byte	0
 2553 024e 00       		.byte	0
 2554 024f 2F       		.uleb128 0x2f
 2555 0250 2E       		.uleb128 0x2e
 2556 0251 01       		.byte	0x1
 2557 0252 3F       		.uleb128 0x3f
 2558 0253 19       		.uleb128 0x19
 2559 0254 03       		.uleb128 0x3
 2560 0255 0E       		.uleb128 0xe
 2561 0256 3A       		.uleb128 0x3a
 2562 0257 0B       		.uleb128 0xb
 2563 0258 3B       		.uleb128 0x3b
 2564 0259 0B       		.uleb128 0xb
 2565 025a 27       		.uleb128 0x27
 2566 025b 19       		.uleb128 0x19
 2567 025c 11       		.uleb128 0x11
 2568 025d 01       		.uleb128 0x1
 2569 025e 12       		.uleb128 0x12
 2570 025f 06       		.uleb128 0x6
ARM GAS  /tmp/ccPGBCUW.s 			page 50


 2571 0260 40       		.uleb128 0x40
 2572 0261 18       		.uleb128 0x18
 2573 0262 9742     		.uleb128 0x2117
 2574 0264 19       		.uleb128 0x19
 2575 0265 00       		.byte	0
 2576 0266 00       		.byte	0
 2577 0267 00       		.byte	0
 2578              		.section	.debug_loc,"",%progbits
 2579              	.Ldebug_loc0:
 2580              	.LLST6:
 2581 0000 8C000000 		.4byte	.LVL15-.Ltext0
 2582 0004 96000000 		.4byte	.LVL16-.Ltext0
 2583 0008 0100     		.2byte	0x1
 2584 000a 50       		.byte	0x50
 2585 000b 96000000 		.4byte	.LVL16-.Ltext0
 2586 000f 9A000000 		.4byte	.LVL17-.Ltext0
 2587 0013 0400     		.2byte	0x4
 2588 0015 F3       		.byte	0xf3
 2589 0016 01       		.uleb128 0x1
 2590 0017 50       		.byte	0x50
 2591 0018 9F       		.byte	0x9f
 2592 0019 9A000000 		.4byte	.LVL17-.Ltext0
 2593 001d A0000000 		.4byte	.LVL18-.Ltext0
 2594 0021 0100     		.2byte	0x1
 2595 0023 50       		.byte	0x50
 2596 0024 A0000000 		.4byte	.LVL18-.Ltext0
 2597 0028 A8000000 		.4byte	.LFE67-.Ltext0
 2598 002c 0400     		.2byte	0x4
 2599 002e F3       		.byte	0xf3
 2600 002f 01       		.uleb128 0x1
 2601 0030 50       		.byte	0x50
 2602 0031 9F       		.byte	0x9f
 2603 0032 00000000 		.4byte	0
 2604 0036 00000000 		.4byte	0
 2605              	.LLST5:
 2606 003a 78000000 		.4byte	.LVL13-.Ltext0
 2607 003e 7C000000 		.4byte	.LVL14-.Ltext0
 2608 0042 0100     		.2byte	0x1
 2609 0044 51       		.byte	0x51
 2610 0045 7C000000 		.4byte	.LVL14-.Ltext0
 2611 0049 8C000000 		.4byte	.LFE66-.Ltext0
 2612 004d 0400     		.2byte	0x4
 2613 004f F3       		.byte	0xf3
 2614 0050 01       		.uleb128 0x1
 2615 0051 51       		.byte	0x51
 2616 0052 9F       		.byte	0x9f
 2617 0053 00000000 		.4byte	0
 2618 0057 00000000 		.4byte	0
 2619              	.LLST1:
 2620 005b 14000000 		.4byte	.LVL2-.Ltext0
 2621 005f 60000000 		.4byte	.LVL12-.Ltext0
 2622 0063 0100     		.2byte	0x1
 2623 0065 50       		.byte	0x50
 2624 0066 60000000 		.4byte	.LVL12-.Ltext0
 2625 006a 78000000 		.4byte	.LFE65-.Ltext0
 2626 006e 0400     		.2byte	0x4
 2627 0070 F3       		.byte	0xf3
ARM GAS  /tmp/ccPGBCUW.s 			page 51


 2628 0071 01       		.uleb128 0x1
 2629 0072 50       		.byte	0x50
 2630 0073 9F       		.byte	0x9f
 2631 0074 00000000 		.4byte	0
 2632 0078 00000000 		.4byte	0
 2633              	.LLST2:
 2634 007c 14000000 		.4byte	.LVL2-.Ltext0
 2635 0080 3A000000 		.4byte	.LVL3-.Ltext0
 2636 0084 0200     		.2byte	0x2
 2637 0086 30       		.byte	0x30
 2638 0087 9F       		.byte	0x9f
 2639 0088 3A000000 		.4byte	.LVL3-.Ltext0
 2640 008c 42000000 		.4byte	.LVL5-.Ltext0
 2641 0090 0100     		.2byte	0x1
 2642 0092 52       		.byte	0x52
 2643 0093 42000000 		.4byte	.LVL5-.Ltext0
 2644 0097 4E000000 		.4byte	.LVL9-.Ltext0
 2645 009b 0100     		.2byte	0x1
 2646 009d 53       		.byte	0x53
 2647 009e 4E000000 		.4byte	.LVL9-.Ltext0
 2648 00a2 52000000 		.4byte	.LVL10-.Ltext0
 2649 00a6 0500     		.2byte	0x5
 2650 00a8 73       		.byte	0x73
 2651 00a9 00       		.sleb128 0
 2652 00aa 34       		.byte	0x34
 2653 00ab 24       		.byte	0x24
 2654 00ac 9F       		.byte	0x9f
 2655 00ad 52000000 		.4byte	.LVL10-.Ltext0
 2656 00b1 54000000 		.4byte	.LVL11-.Ltext0
 2657 00b5 0100     		.2byte	0x1
 2658 00b7 53       		.byte	0x53
 2659 00b8 00000000 		.4byte	0
 2660 00bc 00000000 		.4byte	0
 2661              	.LLST3:
 2662 00c0 14000000 		.4byte	.LVL2-.Ltext0
 2663 00c4 3E000000 		.4byte	.LVL4-.Ltext0
 2664 00c8 0200     		.2byte	0x2
 2665 00ca 30       		.byte	0x30
 2666 00cb 9F       		.byte	0x9f
 2667 00cc 3E000000 		.4byte	.LVL4-.Ltext0
 2668 00d0 44000000 		.4byte	.LVL6-.Ltext0
 2669 00d4 0100     		.2byte	0x1
 2670 00d6 51       		.byte	0x51
 2671 00d7 44000000 		.4byte	.LVL6-.Ltext0
 2672 00db 48000000 		.4byte	.LVL7-.Ltext0
 2673 00df 0500     		.2byte	0x5
 2674 00e1 34       		.byte	0x34
 2675 00e2 72       		.byte	0x72
 2676 00e3 00       		.sleb128 0
 2677 00e4 1C       		.byte	0x1c
 2678 00e5 9F       		.byte	0x9f
 2679 00e6 00000000 		.4byte	0
 2680 00ea 00000000 		.4byte	0
 2681              	.LLST4:
 2682 00ee 14000000 		.4byte	.LVL2-.Ltext0
 2683 00f2 3E000000 		.4byte	.LVL4-.Ltext0
 2684 00f6 0200     		.2byte	0x2
ARM GAS  /tmp/ccPGBCUW.s 			page 52


 2685 00f8 3F       		.byte	0x3f
 2686 00f9 9F       		.byte	0x9f
 2687 00fa 3E000000 		.4byte	.LVL4-.Ltext0
 2688 00fe 48000000 		.4byte	.LVL7-.Ltext0
 2689 0102 0500     		.2byte	0x5
 2690 0104 3F       		.byte	0x3f
 2691 0105 72       		.byte	0x72
 2692 0106 00       		.sleb128 0
 2693 0107 25       		.byte	0x25
 2694 0108 9F       		.byte	0x9f
 2695 0109 48000000 		.4byte	.LVL7-.Ltext0
 2696 010d 4C000000 		.4byte	.LVL8-.Ltext0
 2697 0111 0100     		.2byte	0x1
 2698 0113 52       		.byte	0x52
 2699 0114 00000000 		.4byte	0
 2700 0118 00000000 		.4byte	0
 2701              	.LLST0:
 2702 011c 00000000 		.4byte	.LVL0-.Ltext0
 2703 0120 04000000 		.4byte	.LVL1-.Ltext0
 2704 0124 0100     		.2byte	0x1
 2705 0126 50       		.byte	0x50
 2706 0127 04000000 		.4byte	.LVL1-.Ltext0
 2707 012b 14000000 		.4byte	.LFE64-.Ltext0
 2708 012f 0400     		.2byte	0x4
 2709 0131 F3       		.byte	0xf3
 2710 0132 01       		.uleb128 0x1
 2711 0133 50       		.byte	0x50
 2712 0134 9F       		.byte	0x9f
 2713 0135 00000000 		.4byte	0
 2714 0139 00000000 		.4byte	0
 2715              		.section	.debug_aranges,"",%progbits
 2716 0000 1C000000 		.4byte	0x1c
 2717 0004 0200     		.2byte	0x2
 2718 0006 00000000 		.4byte	.Ldebug_info0
 2719 000a 04       		.byte	0x4
 2720 000b 00       		.byte	0
 2721 000c 0000     		.2byte	0
 2722 000e 0000     		.2byte	0
 2723 0010 00000000 		.4byte	.Ltext0
 2724 0014 C0000000 		.4byte	.Letext0-.Ltext0
 2725 0018 00000000 		.4byte	0
 2726 001c 00000000 		.4byte	0
 2727              		.section	.debug_line,"",%progbits
 2728              	.Ldebug_line0:
 2729 0000 4D020000 		.section	.debug_str,"MS",%progbits,1
 2729      02001002 
 2729      00000201 
 2729      FB0E0D00 
 2729      01010101 
 2730              	.LASF95:
 2731 0000 5F64736F 		.ascii	"_dso_handle\000"
 2731      5F68616E 
 2731      646C6500 
 2732              	.LASF190:
 2733 000c 4E657753 		.ascii	"NewState\000"
 2733      74617465 
 2733      00
ARM GAS  /tmp/ccPGBCUW.s 			page 53


 2734              	.LASF21:
 2735 0015 49435052 		.ascii	"ICPR\000"
 2735      00
 2736              	.LASF56:
 2737 001a 4E564943 		.ascii	"NVIC_IRQChannelCmd\000"
 2737      5F495251 
 2737      4368616E 
 2737      6E656C43 
 2737      6D6400
 2738              	.LASF94:
 2739 002d 5F666E61 		.ascii	"_fnargs\000"
 2739      72677300 
 2740              	.LASF148:
 2741 0035 5F72616E 		.ascii	"_rand48\000"
 2741      64343800 
 2742              	.LASF181:
 2743 003d 5F5F6664 		.ascii	"__fdlibm_xopen\000"
 2743      6C69626D 
 2743      5F786F70 
 2743      656E00
 2744              	.LASF127:
 2745 004c 5F656D65 		.ascii	"_emergency\000"
 2745      7267656E 
 2745      637900
 2746              	.LASF119:
 2747 0057 5F6D6273 		.ascii	"_mbstate\000"
 2747      74617465 
 2747      00
 2748              	.LASF4:
 2749 0060 5F5F7569 		.ascii	"__uint8_t\000"
 2749      6E74385F 
 2749      7400
 2750              	.LASF139:
 2751 006a 5F617465 		.ascii	"_atexit0\000"
 2751      78697430 
 2751      00
 2752              	.LASF68:
 2753 0073 5F6F6666 		.ascii	"_off_t\000"
 2753      5F7400
 2754              	.LASF168:
 2755 007a 5F776372 		.ascii	"_wcrtomb_state\000"
 2755      746F6D62 
 2755      5F737461 
 2755      746500
 2756              	.LASF169:
 2757 0089 5F776373 		.ascii	"_wcsrtombs_state\000"
 2757      72746F6D 
 2757      62735F73 
 2757      74617465 
 2757      00
 2758              	.LASF10:
 2759 009a 6C6F6E67 		.ascii	"long long unsigned int\000"
 2759      206C6F6E 
 2759      6720756E 
 2759      7369676E 
 2759      65642069 
 2760              	.LASF182:
ARM GAS  /tmp/ccPGBCUW.s 			page 54


 2761 00b1 5F5F6664 		.ascii	"__fdlibm_posix\000"
 2761      6C69626D 
 2761      5F706F73 
 2761      697800
 2762              	.LASF198:
 2763 00c0 746D7073 		.ascii	"tmpsub\000"
 2763      756200
 2764              	.LASF29:
 2765 00c7 43505549 		.ascii	"CPUID\000"
 2765      4400
 2766              	.LASF183:
 2767 00cd 5F5F6664 		.ascii	"__fdlib_version\000"
 2767      6C69625F 
 2767      76657273 
 2767      696F6E00 
 2768              	.LASF58:
 2769 00dd 6779726F 		.ascii	"gyro\000"
 2769      00
 2770              	.LASF166:
 2771 00e2 5F6D6272 		.ascii	"_mbrtowc_state\000"
 2771      746F7763 
 2771      5F737461 
 2771      746500
 2772              	.LASF19:
 2773 00f1 49535052 		.ascii	"ISPR\000"
 2773      00
 2774              	.LASF161:
 2775 00f6 5F776374 		.ascii	"_wctomb_state\000"
 2775      6F6D625F 
 2775      73746174 
 2775      6500
 2776              	.LASF84:
 2777 0104 5F5F746D 		.ascii	"__tm_sec\000"
 2777      5F736563 
 2777      00
 2778              	.LASF41:
 2779 010d 49534152 		.ascii	"ISAR\000"
 2779      00
 2780              	.LASF112:
 2781 0112 5F636C6F 		.ascii	"_close\000"
 2781      736500
 2782              	.LASF0:
 2783 0119 7369676E 		.ascii	"signed char\000"
 2783      65642063 
 2783      68617200 
 2784              	.LASF187:
 2785 0125 4E564943 		.ascii	"NVIC_SystemLPConfig\000"
 2785      5F537973 
 2785      74656D4C 
 2785      50436F6E 
 2785      66696700 
 2786              	.LASF113:
 2787 0139 5F756275 		.ascii	"_ubuf\000"
 2787      6600
 2788              	.LASF60:
 2789 013f 47785F6F 		.ascii	"Gx_offset\000"
 2789      66667365 
ARM GAS  /tmp/ccPGBCUW.s 			page 55


 2789      7400
 2790              	.LASF102:
 2791 0149 5F626173 		.ascii	"_base\000"
 2791      6500
 2792              	.LASF86:
 2793 014f 5F5F746D 		.ascii	"__tm_hour\000"
 2793      5F686F75 
 2793      7200
 2794              	.LASF142:
 2795 0159 5F5F7366 		.ascii	"__sf\000"
 2795      00
 2796              	.LASF93:
 2797 015e 5F6F6E5F 		.ascii	"_on_exit_args\000"
 2797      65786974 
 2797      5F617267 
 2797      7300
 2798              	.LASF63:
 2799 016c 41636331 		.ascii	"Acc1G_Values\000"
 2799      475F5661 
 2799      6C756573 
 2799      00
 2800              	.LASF108:
 2801 0179 5F636F6F 		.ascii	"_cookie\000"
 2801      6B696500 
 2802              	.LASF141:
 2803 0181 5F5F7367 		.ascii	"__sglue\000"
 2803      6C756500 
 2804              	.LASF6:
 2805 0189 6C6F6E67 		.ascii	"long int\000"
 2805      20696E74 
 2805      00
 2806              	.LASF202:
 2807 0192 2F686F6D 		.ascii	"/home/enbin/Documents/code/STM/stm32-quadrocopter\000"
 2807      652F656E 
 2807      62696E2F 
 2807      446F6375 
 2807      6D656E74 
 2808              	.LASF97:
 2809 01c4 5F69735F 		.ascii	"_is_cxa\000"
 2809      63786100 
 2810              	.LASF123:
 2811 01cc 5F737464 		.ascii	"_stdin\000"
 2811      696E00
 2812              	.LASF180:
 2813 01d3 5F5F6664 		.ascii	"__fdlibm_svid\000"
 2813      6C69626D 
 2813      5F737669 
 2813      6400
 2814              	.LASF133:
 2815 01e1 5F726573 		.ascii	"_result_k\000"
 2815      756C745F 
 2815      6B00
 2816              	.LASF51:
 2817 01eb 454E4142 		.ascii	"ENABLE\000"
 2817      4C4500
 2818              	.LASF15:
 2819 01f2 49534552 		.ascii	"ISER\000"
ARM GAS  /tmp/ccPGBCUW.s 			page 56


 2819      00
 2820              	.LASF9:
 2821 01f7 6C6F6E67 		.ascii	"long long int\000"
 2821      206C6F6E 
 2821      6720696E 
 2821      7400
 2822              	.LASF184:
 2823 0205 5F737973 		.ascii	"_sys_errlist\000"
 2823      5F657272 
 2823      6C697374 
 2823      00
 2824              	.LASF137:
 2825 0212 5F637674 		.ascii	"_cvtbuf\000"
 2825      62756600 
 2826              	.LASF116:
 2827 021a 5F6F6666 		.ascii	"_offset\000"
 2827      73657400 
 2828              	.LASF197:
 2829 0222 746D7070 		.ascii	"tmppre\000"
 2829      726500
 2830              	.LASF167:
 2831 0229 5F6D6273 		.ascii	"_mbsrtowcs_state\000"
 2831      72746F77 
 2831      63735F73 
 2831      74617465 
 2831      00
 2832              	.LASF165:
 2833 023a 5F6D6272 		.ascii	"_mbrlen_state\000"
 2833      6C656E5F 
 2833      73746174 
 2833      6500
 2834              	.LASF38:
 2835 0248 42464152 		.ascii	"BFAR\000"
 2835      00
 2836              	.LASF47:
 2837 024d 53797354 		.ascii	"SysTick_Type\000"
 2837      69636B5F 
 2837      54797065 
 2837      00
 2838              	.LASF100:
 2839 025a 5F666E73 		.ascii	"_fns\000"
 2839      00
 2840              	.LASF7:
 2841 025f 5F5F7569 		.ascii	"__uint32_t\000"
 2841      6E743332 
 2841      5F7400
 2842              	.LASF80:
 2843 026a 5F736967 		.ascii	"_sign\000"
 2843      6E00
 2844              	.LASF43:
 2845 0270 5343425F 		.ascii	"SCB_Type\000"
 2845      54797065 
 2845      00
 2846              	.LASF174:
 2847 0279 5F696D70 		.ascii	"_impure_ptr\000"
 2847      7572655F 
 2847      70747200 
ARM GAS  /tmp/ccPGBCUW.s 			page 57


 2848              	.LASF125:
 2849 0285 5F737464 		.ascii	"_stderr\000"
 2849      65727200 
 2850              	.LASF82:
 2851 028d 5F426967 		.ascii	"_Bigint\000"
 2851      696E7400 
 2852              	.LASF191:
 2853 0295 4E564943 		.ascii	"NVIC_SetVectorTable\000"
 2853      5F536574 
 2853      56656374 
 2853      6F725461 
 2853      626C6500 
 2854              	.LASF115:
 2855 02a9 5F626C6B 		.ascii	"_blksize\000"
 2855      73697A65 
 2855      00
 2856              	.LASF109:
 2857 02b2 5F726561 		.ascii	"_read\000"
 2857      6400
 2858              	.LASF83:
 2859 02b8 5F5F746D 		.ascii	"__tm\000"
 2859      00
 2860              	.LASF72:
 2861 02bd 5F5F7763 		.ascii	"__wchb\000"
 2861      686200
 2862              	.LASF49:
 2863 02c4 53797374 		.ascii	"SystemCoreClock\000"
 2863      656D436F 
 2863      7265436C 
 2863      6F636B00 
 2864              	.LASF192:
 2865 02d4 4E564943 		.ascii	"NVIC_VectTab\000"
 2865      5F566563 
 2865      74546162 
 2865      00
 2866              	.LASF124:
 2867 02e1 5F737464 		.ascii	"_stdout\000"
 2867      6F757400 
 2868              	.LASF136:
 2869 02e9 5F637674 		.ascii	"_cvtlen\000"
 2869      6C656E00 
 2870              	.LASF8:
 2871 02f1 6C6F6E67 		.ascii	"long unsigned int\000"
 2871      20756E73 
 2871      69676E65 
 2871      6420696E 
 2871      7400
 2872              	.LASF106:
 2873 0303 5F66696C 		.ascii	"_file\000"
 2873      6500
 2874              	.LASF117:
 2875 0309 5F646174 		.ascii	"_data\000"
 2875      6100
 2876              	.LASF31:
 2877 030f 56544F52 		.ascii	"VTOR\000"
 2877      00
 2878              	.LASF146:
ARM GAS  /tmp/ccPGBCUW.s 			page 58


 2879 0314 5F6E696F 		.ascii	"_niobs\000"
 2879      627300
 2880              	.LASF140:
 2881 031b 5F736967 		.ascii	"_sig_func\000"
 2881      5F66756E 
 2881      6300
 2882              	.LASF195:
 2883 0325 4E564943 		.ascii	"NVIC_InitStruct\000"
 2883      5F496E69 
 2883      74537472 
 2883      75637400 
 2884              	.LASF30:
 2885 0335 49435352 		.ascii	"ICSR\000"
 2885      00
 2886              	.LASF154:
 2887 033a 5F617363 		.ascii	"_asctime_buf\000"
 2887      74696D65 
 2887      5F627566 
 2887      00
 2888              	.LASF32:
 2889 0347 41495243 		.ascii	"AIRCR\000"
 2889      5200
 2890              	.LASF36:
 2891 034d 44465352 		.ascii	"DFSR\000"
 2891      00
 2892              	.LASF132:
 2893 0352 5F726573 		.ascii	"_result\000"
 2893      756C7400 
 2894              	.LASF71:
 2895 035a 5F5F7763 		.ascii	"__wch\000"
 2895      6800
 2896              	.LASF37:
 2897 0360 4D4D4641 		.ascii	"MMFAR\000"
 2897      5200
 2898              	.LASF138:
 2899 0366 5F6E6577 		.ascii	"_new\000"
 2899      00
 2900              	.LASF118:
 2901 036b 5F6C6F63 		.ascii	"_lock\000"
 2901      6B00
 2902              	.LASF40:
 2903 0371 4D4D4652 		.ascii	"MMFR\000"
 2903      00
 2904              	.LASF53:
 2905 0376 4E564943 		.ascii	"NVIC_IRQChannel\000"
 2905      5F495251 
 2905      4368616E 
 2905      6E656C00 
 2906              	.LASF54:
 2907 0386 4E564943 		.ascii	"NVIC_IRQChannelPreemptionPriority\000"
 2907      5F495251 
 2907      4368616E 
 2907      6E656C50 
 2907      7265656D 
 2908              	.LASF110:
 2909 03a8 5F777269 		.ascii	"_write\000"
 2909      746500
ARM GAS  /tmp/ccPGBCUW.s 			page 59


 2910              	.LASF89:
 2911 03af 5F5F746D 		.ascii	"__tm_year\000"
 2911      5F796561 
 2911      7200
 2912              	.LASF172:
 2913 03b9 5F6E6D61 		.ascii	"_nmalloc\000"
 2913      6C6C6F63 
 2913      00
 2914              	.LASF92:
 2915 03c2 5F5F746D 		.ascii	"__tm_isdst\000"
 2915      5F697364 
 2915      737400
 2916              	.LASF67:
 2917 03cd 5F4C4F43 		.ascii	"_LOCK_RECURSIVE_T\000"
 2917      4B5F5245 
 2917      43555253 
 2917      4956455F 
 2917      5400
 2918              	.LASF27:
 2919 03df 73697A65 		.ascii	"sizetype\000"
 2919      74797065 
 2919      00
 2920              	.LASF45:
 2921 03e8 4C4F4144 		.ascii	"LOAD\000"
 2921      00
 2922              	.LASF34:
 2923 03ed 43465352 		.ascii	"CFSR\000"
 2923      00
 2924              	.LASF23:
 2925 03f2 49414252 		.ascii	"IABR\000"
 2925      00
 2926              	.LASF61:
 2927 03f7 47795F6F 		.ascii	"Gy_offset\000"
 2927      66667365 
 2927      7400
 2928              	.LASF171:
 2929 0401 5F6E6578 		.ascii	"_nextf\000"
 2929      746600
 2930              	.LASF59:
 2931 0408 61636365 		.ascii	"accel\000"
 2931      6C00
 2932              	.LASF62:
 2933 040e 477A5F6F 		.ascii	"Gz_offset\000"
 2933      66667365 
 2933      7400
 2934              	.LASF52:
 2935 0418 46756E63 		.ascii	"FunctionalState\000"
 2935      74696F6E 
 2935      616C5374 
 2935      61746500 
 2936              	.LASF88:
 2937 0428 5F5F746D 		.ascii	"__tm_mon\000"
 2937      5F6D6F6E 
 2937      00
 2938              	.LASF17:
 2939 0431 49434552 		.ascii	"ICER\000"
 2939      00
ARM GAS  /tmp/ccPGBCUW.s 			page 60


 2940              	.LASF98:
 2941 0436 5F617465 		.ascii	"_atexit\000"
 2941      78697400 
 2942              	.LASF176:
 2943 043e 7375626F 		.ascii	"suboptarg\000"
 2943      70746172 
 2943      6700
 2944              	.LASF130:
 2945 0448 5F5F7364 		.ascii	"__sdidinit\000"
 2945      6964696E 
 2945      697400
 2946              	.LASF156:
 2947 0453 5F67616D 		.ascii	"_gamma_signgam\000"
 2947      6D615F73 
 2947      69676E67 
 2947      616D00
 2948              	.LASF70:
 2949 0462 77696E74 		.ascii	"wint_t\000"
 2949      5F7400
 2950              	.LASF188:
 2951 0469 53797354 		.ascii	"SysTick_CLKSource\000"
 2951      69636B5F 
 2951      434C4B53 
 2951      6F757263 
 2951      6500
 2952              	.LASF64:
 2953 047b 666C6F61 		.ascii	"float\000"
 2953      7400
 2954              	.LASF135:
 2955 0481 5F667265 		.ascii	"_freelist\000"
 2955      656C6973 
 2955      7400
 2956              	.LASF65:
 2957 048b 50697463 		.ascii	"Pitch\000"
 2957      6800
 2958              	.LASF16:
 2959 0491 52455345 		.ascii	"RESERVED0\000"
 2959      52564544 
 2959      3000
 2960              	.LASF20:
 2961 049b 52455345 		.ascii	"RESERVED2\000"
 2961      52564544 
 2961      3200
 2962              	.LASF22:
 2963 04a5 52455345 		.ascii	"RESERVED3\000"
 2963      52564544 
 2963      3300
 2964              	.LASF24:
 2965 04af 52455345 		.ascii	"RESERVED4\000"
 2965      52564544 
 2965      3400
 2966              	.LASF25:
 2967 04b9 52455345 		.ascii	"RESERVED5\000"
 2967      52564544 
 2967      3500
 2968              	.LASF13:
 2969 04c3 696E7433 		.ascii	"int32_t\000"
ARM GAS  /tmp/ccPGBCUW.s 			page 61


 2969      325F7400 
 2970              	.LASF1:
 2971 04cb 756E7369 		.ascii	"unsigned char\000"
 2971      676E6564 
 2971      20636861 
 2971      7200
 2972              	.LASF33:
 2973 04d9 53484353 		.ascii	"SHCSR\000"
 2973      5200
 2974              	.LASF48:
 2975 04df 49544D5F 		.ascii	"ITM_RxBuffer\000"
 2975      52784275 
 2975      66666572 
 2975      00
 2976              	.LASF170:
 2977 04ec 5F685F65 		.ascii	"_h_errno\000"
 2977      72726E6F 
 2977      00
 2978              	.LASF76:
 2979 04f5 5F666C6F 		.ascii	"_flock_t\000"
 2979      636B5F74 
 2979      00
 2980              	.LASF91:
 2981 04fe 5F5F746D 		.ascii	"__tm_yday\000"
 2981      5F796461 
 2981      7900
 2982              	.LASF28:
 2983 0508 4E564943 		.ascii	"NVIC_Type\000"
 2983      5F547970 
 2983      6500
 2984              	.LASF101:
 2985 0512 5F5F7362 		.ascii	"__sbuf\000"
 2985      756600
 2986              	.LASF120:
 2987 0519 5F666C61 		.ascii	"_flags2\000"
 2987      67733200 
 2988              	.LASF147:
 2989 0521 5F696F62 		.ascii	"_iobs\000"
 2989      7300
 2990              	.LASF144:
 2991 0527 5F5F4649 		.ascii	"__FILE\000"
 2991      4C4500
 2992              	.LASF75:
 2993 052e 5F6D6273 		.ascii	"_mbstate_t\000"
 2993      74617465 
 2993      5F7400
 2994              	.LASF199:
 2995 0539 4E564943 		.ascii	"NVIC_PriorityGroup\000"
 2995      5F507269 
 2995      6F726974 
 2995      7947726F 
 2995      757000
 2996              	.LASF104:
 2997 054c 5F5F7346 		.ascii	"__sFILE\000"
 2997      494C4500 
 2998              	.LASF185:
 2999 0554 5F737973 		.ascii	"_sys_nerr\000"
ARM GAS  /tmp/ccPGBCUW.s 			page 62


 2999      5F6E6572 
 2999      7200
 3000              	.LASF200:
 3001 055e 474E5520 		.ascii	"GNU C89 6.1.1 20160526 -mcpu=cortex-m3 -mthumb -mfl"
 3001      43383920 
 3001      362E312E 
 3001      31203230 
 3001      31363035 
 3002 0591 6F61742D 		.ascii	"oat-abi=soft -g -O1 -std=gnu90 -fno-common -fno-mat"
 3002      6162693D 
 3002      736F6674 
 3002      202D6720 
 3002      2D4F3120 
 3003 05c4 682D6572 		.ascii	"h-errno\000"
 3003      726E6F00 
 3004              	.LASF157:
 3005 05cc 5F72616E 		.ascii	"_rand_next\000"
 3005      645F6E65 
 3005      787400
 3006              	.LASF159:
 3007 05d7 5F6D626C 		.ascii	"_mblen_state\000"
 3007      656E5F73 
 3007      74617465 
 3007      00
 3008              	.LASF126:
 3009 05e4 5F696E63 		.ascii	"_inc\000"
 3009      00
 3010              	.LASF99:
 3011 05e9 5F696E64 		.ascii	"_ind\000"
 3011      00
 3012              	.LASF50:
 3013 05ee 44495341 		.ascii	"DISABLE\000"
 3013      424C4500 
 3014              	.LASF131:
 3015 05f6 5F5F636C 		.ascii	"__cleanup\000"
 3015      65616E75 
 3015      7000
 3016              	.LASF79:
 3017 0600 5F6D6178 		.ascii	"_maxwds\000"
 3017      77647300 
 3018              	.LASF121:
 3019 0608 5F726565 		.ascii	"_reent\000"
 3019      6E7400
 3020              	.LASF149:
 3021 060f 5F736565 		.ascii	"_seed\000"
 3021      6400
 3022              	.LASF73:
 3023 0615 5F5F636F 		.ascii	"__count\000"
 3023      756E7400 
 3024              	.LASF189:
 3025 061d 4C6F7750 		.ascii	"LowPowerMode\000"
 3025      6F776572 
 3025      4D6F6465 
 3025      00
 3026              	.LASF74:
 3027 062a 5F5F7661 		.ascii	"__value\000"
 3027      6C756500 
ARM GAS  /tmp/ccPGBCUW.s 			page 63


 3028              	.LASF55:
 3029 0632 4E564943 		.ascii	"NVIC_IRQChannelSubPriority\000"
 3029      5F495251 
 3029      4368616E 
 3029      6E656C53 
 3029      75625072 
 3030              	.LASF111:
 3031 064d 5F736565 		.ascii	"_seek\000"
 3031      6B00
 3032              	.LASF39:
 3033 0653 41465352 		.ascii	"AFSR\000"
 3033      00
 3034              	.LASF90:
 3035 0658 5F5F746D 		.ascii	"__tm_wday\000"
 3035      5F776461 
 3035      7900
 3036              	.LASF69:
 3037 0662 5F66706F 		.ascii	"_fpos_t\000"
 3037      735F7400 
 3038              	.LASF178:
 3039 066a 6C6F6E67 		.ascii	"long double\000"
 3039      20646F75 
 3039      626C6500 
 3040              	.LASF122:
 3041 0676 5F657272 		.ascii	"_errno\000"
 3041      6E6F00
 3042              	.LASF143:
 3043 067d 63686172 		.ascii	"char\000"
 3043      00
 3044              	.LASF163:
 3045 0682 5F736967 		.ascii	"_signal_buf\000"
 3045      6E616C5F 
 3045      62756600 
 3046              	.LASF179:
 3047 068e 5F5F6664 		.ascii	"__fdlibm_ieee\000"
 3047      6C69626D 
 3047      5F696565 
 3047      6500
 3048              	.LASF103:
 3049 069c 5F73697A 		.ascii	"_size\000"
 3049      6500
 3050              	.LASF11:
 3051 06a2 756E7369 		.ascii	"unsigned int\000"
 3051      676E6564 
 3051      20696E74 
 3051      00
 3052              	.LASF2:
 3053 06af 73686F72 		.ascii	"short int\000"
 3053      7420696E 
 3053      7400
 3054              	.LASF5:
 3055 06b9 5F5F696E 		.ascii	"__int32_t\000"
 3055      7433325F 
 3055      7400
 3056              	.LASF150:
 3057 06c3 5F6D756C 		.ascii	"_mult\000"
 3057      7400
ARM GAS  /tmp/ccPGBCUW.s 			page 64


 3058              	.LASF66:
 3059 06c9 526F6C6C 		.ascii	"Roll\000"
 3059      00
 3060              	.LASF78:
 3061 06ce 5F6E6578 		.ascii	"_next\000"
 3061      7400
 3062              	.LASF153:
 3063 06d4 5F737472 		.ascii	"_strtok_last\000"
 3063      746F6B5F 
 3063      6C617374 
 3063      00
 3064              	.LASF96:
 3065 06e1 5F666E74 		.ascii	"_fntypes\000"
 3065      79706573 
 3065      00
 3066              	.LASF3:
 3067 06ea 73686F72 		.ascii	"short unsigned int\000"
 3067      7420756E 
 3067      7369676E 
 3067      65642069 
 3067      6E7400
 3068              	.LASF151:
 3069 06fd 5F616464 		.ascii	"_add\000"
 3069      00
 3070              	.LASF77:
 3071 0702 5F5F554C 		.ascii	"__ULong\000"
 3071      6F6E6700 
 3072              	.LASF164:
 3073 070a 5F676574 		.ascii	"_getdate_err\000"
 3073      64617465 
 3073      5F657272 
 3073      00
 3074              	.LASF44:
 3075 0717 4354524C 		.ascii	"CTRL\000"
 3075      00
 3076              	.LASF203:
 3077 071c 5F5F6664 		.ascii	"__fdlibm_version\000"
 3077      6C69626D 
 3077      5F766572 
 3077      73696F6E 
 3077      00
 3078              	.LASF175:
 3079 072d 5F676C6F 		.ascii	"_global_impure_ptr\000"
 3079      62616C5F 
 3079      696D7075 
 3079      72655F70 
 3079      747200
 3080              	.LASF128:
 3081 0740 5F637572 		.ascii	"_current_category\000"
 3081      72656E74 
 3081      5F636174 
 3081      65676F72 
 3081      7900
 3082              	.LASF46:
 3083 0752 43414C49 		.ascii	"CALIB\000"
 3083      4200
 3084              	.LASF152:
ARM GAS  /tmp/ccPGBCUW.s 			page 65


 3085 0758 5F756E75 		.ascii	"_unused_rand\000"
 3085      7365645F 
 3085      72616E64 
 3085      00
 3086              	.LASF81:
 3087 0765 5F776473 		.ascii	"_wds\000"
 3087      00
 3088              	.LASF145:
 3089 076a 5F676C75 		.ascii	"_glue\000"
 3089      6500
 3090              	.LASF193:
 3091 0770 4F666673 		.ascii	"Offset\000"
 3091      657400
 3092              	.LASF105:
 3093 0777 5F666C61 		.ascii	"_flags\000"
 3093      677300
 3094              	.LASF12:
 3095 077e 75696E74 		.ascii	"uint8_t\000"
 3095      385F7400 
 3096              	.LASF162:
 3097 0786 5F6C3634 		.ascii	"_l64a_buf\000"
 3097      615F6275 
 3097      6600
 3098              	.LASF196:
 3099 0790 746D7070 		.ascii	"tmppriority\000"
 3099      72696F72 
 3099      69747900 
 3100              	.LASF204:
 3101 079c 4E564943 		.ascii	"NVIC_PriorityGroupConfig\000"
 3101      5F507269 
 3101      6F726974 
 3101      7947726F 
 3101      7570436F 
 3102              	.LASF18:
 3103 07b5 52534552 		.ascii	"RSERVED1\000"
 3103      56454431 
 3103      00
 3104              	.LASF26:
 3105 07be 53544952 		.ascii	"STIR\000"
 3105      00
 3106              	.LASF114:
 3107 07c3 5F6E6275 		.ascii	"_nbuf\000"
 3107      6600
 3108              	.LASF173:
 3109 07c9 5F756E75 		.ascii	"_unused\000"
 3109      73656400 
 3110              	.LASF186:
 3111 07d1 53797354 		.ascii	"SysTick_CLKSourceConfig\000"
 3111      69636B5F 
 3111      434C4B53 
 3111      6F757263 
 3111      65436F6E 
 3112              	.LASF201:
 3113 07e9 6C69622F 		.ascii	"lib/src/misc.c\000"
 3113      7372632F 
 3113      6D697363 
 3113      2E6300
ARM GAS  /tmp/ccPGBCUW.s 			page 66


 3114              	.LASF155:
 3115 07f8 5F6C6F63 		.ascii	"_localtime_buf\000"
 3115      616C7469 
 3115      6D655F62 
 3115      756600
 3116              	.LASF85:
 3117 0807 5F5F746D 		.ascii	"__tm_min\000"
 3117      5F6D696E 
 3117      00
 3118              	.LASF158:
 3119 0810 5F723438 		.ascii	"_r48\000"
 3119      00
 3120              	.LASF129:
 3121 0815 5F637572 		.ascii	"_current_locale\000"
 3121      72656E74 
 3121      5F6C6F63 
 3121      616C6500 
 3122              	.LASF160:
 3123 0825 5F6D6274 		.ascii	"_mbtowc_state\000"
 3123      6F77635F 
 3123      73746174 
 3123      6500
 3124              	.LASF134:
 3125 0833 5F703573 		.ascii	"_p5s\000"
 3125      00
 3126              	.LASF42:
 3127 0838 43504143 		.ascii	"CPACR\000"
 3127      5200
 3128              	.LASF35:
 3129 083e 48465352 		.ascii	"HFSR\000"
 3129      00
 3130              	.LASF107:
 3131 0843 5F6C6266 		.ascii	"_lbfsize\000"
 3131      73697A65 
 3131      00
 3132              	.LASF194:
 3133 084c 4E564943 		.ascii	"NVIC_Init\000"
 3133      5F496E69 
 3133      7400
 3134              	.LASF177:
 3135 0856 646F7562 		.ascii	"double\000"
 3135      6C6500
 3136              	.LASF14:
 3137 085d 75696E74 		.ascii	"uint32_t\000"
 3137      33325F74 
 3137      00
 3138              	.LASF87:
 3139 0866 5F5F746D 		.ascii	"__tm_mday\000"
 3139      5F6D6461 
 3139      7900
 3140              	.LASF57:
 3141 0870 4E564943 		.ascii	"NVIC_InitTypeDef\000"
 3141      5F496E69 
 3141      74547970 
 3141      65446566 
 3141      00
 3142              		.ident	"GCC: (Arch Repository) 6.1.1 20160526"
ARM GAS  /tmp/ccPGBCUW.s 			page 67


ARM GAS  /tmp/ccPGBCUW.s 			page 68


DEFINED SYMBOLS
                            *ABS*:0000000000000000 misc.c
     /tmp/ccPGBCUW.s:15     .text:0000000000000000 $t
     /tmp/ccPGBCUW.s:22     .text:0000000000000000 NVIC_PriorityGroupConfig
     /tmp/ccPGBCUW.s:41     .text:0000000000000010 $d
     /tmp/ccPGBCUW.s:45     .text:0000000000000014 $t
     /tmp/ccPGBCUW.s:52     .text:0000000000000014 NVIC_Init
     /tmp/ccPGBCUW.s:125    .text:0000000000000070 $d
     /tmp/ccPGBCUW.s:130    .text:0000000000000078 $t
     /tmp/ccPGBCUW.s:137    .text:0000000000000078 NVIC_SetVectorTable
     /tmp/ccPGBCUW.s:156    .text:0000000000000088 $d
     /tmp/ccPGBCUW.s:160    .text:000000000000008c $t
     /tmp/ccPGBCUW.s:167    .text:000000000000008c NVIC_SystemLPConfig
     /tmp/ccPGBCUW.s:196    .text:00000000000000a4 $d
     /tmp/ccPGBCUW.s:200    .text:00000000000000a8 $t
     /tmp/ccPGBCUW.s:207    .text:00000000000000a8 SysTick_CLKSourceConfig
     /tmp/ccPGBCUW.s:229    .text:00000000000000bc $d
                     .debug_frame:0000000000000010 $d

NO UNDEFINED SYMBOLS
