ARM GAS  /tmp/ccUNhkLT.s 			page 1


   1              		.cpu cortex-m3
   2              		.eabi_attribute 20, 1
   3              		.eabi_attribute 21, 1
   4              		.eabi_attribute 23, 3
   5              		.eabi_attribute 24, 1
   6              		.eabi_attribute 25, 1
   7              		.eabi_attribute 26, 1
   8              		.eabi_attribute 30, 1
   9              		.eabi_attribute 34, 1
  10              		.eabi_attribute 18, 4
  11              		.file	"misc.c"
  12              		.text
  13              	.Ltext0:
  14              		.cfi_sections	.debug_frame
  15              		.align	1
  16              		.global	NVIC_PriorityGroupConfig
  17              		.syntax unified
  18              		.thumb
  19              		.thumb_func
  20              		.fpu softvfp
  21              		.type	NVIC_PriorityGroupConfig, %function
  22              	NVIC_PriorityGroupConfig:
  23              	.LFB64:
  24              		.file 1 "lib/src/misc.c"
   1:lib/src/misc.c **** /**
   2:lib/src/misc.c ****   ******************************************************************************
   3:lib/src/misc.c ****   * @file    misc.c
   4:lib/src/misc.c ****   * @author  MCD Application Team
   5:lib/src/misc.c ****   * @version V3.5.0
   6:lib/src/misc.c ****   * @date    11-March-2011
   7:lib/src/misc.c ****   * @brief   This file provides all the miscellaneous firmware functions (add-on
   8:lib/src/misc.c ****   *          to CMSIS functions).
   9:lib/src/misc.c ****   ******************************************************************************
  10:lib/src/misc.c ****   * @attention
  11:lib/src/misc.c ****   *
  12:lib/src/misc.c ****   * THE PRESENT FIRMWARE WHICH IS FOR GUIDANCE ONLY AIMS AT PROVIDING CUSTOMERS
  13:lib/src/misc.c ****   * WITH CODING INFORMATION REGARDING THEIR PRODUCTS IN ORDER FOR THEM TO SAVE
  14:lib/src/misc.c ****   * TIME. AS A RESULT, STMICROELECTRONICS SHALL NOT BE HELD LIABLE FOR ANY
  15:lib/src/misc.c ****   * DIRECT, INDIRECT OR CONSEQUENTIAL DAMAGES WITH RESPECT TO ANY CLAIMS ARISING
  16:lib/src/misc.c ****   * FROM THE CONTENT OF SUCH FIRMWARE AND/OR THE USE MADE BY CUSTOMERS OF THE
  17:lib/src/misc.c ****   * CODING INFORMATION CONTAINED HEREIN IN CONNECTION WITH THEIR PRODUCTS.
  18:lib/src/misc.c ****   *
  19:lib/src/misc.c ****   * <h2><center>&copy; COPYRIGHT 2011 STMicroelectronics</center></h2>
  20:lib/src/misc.c ****   ******************************************************************************
  21:lib/src/misc.c ****   */
  22:lib/src/misc.c **** 
  23:lib/src/misc.c **** /* Includes ------------------------------------------------------------------*/
  24:lib/src/misc.c **** #include "misc.h"
  25:lib/src/misc.c **** #include "conf.h"
  26:lib/src/misc.c **** 
  27:lib/src/misc.c **** /** @addtogroup STM32F10x_StdPeriph_Driver
  28:lib/src/misc.c ****   * @{
  29:lib/src/misc.c ****   */
  30:lib/src/misc.c **** 
  31:lib/src/misc.c **** /** @defgroup MISC 
  32:lib/src/misc.c ****   * @brief MISC driver modules
  33:lib/src/misc.c ****   * @{
ARM GAS  /tmp/ccUNhkLT.s 			page 2


  34:lib/src/misc.c ****   */
  35:lib/src/misc.c **** 
  36:lib/src/misc.c **** /** @defgroup MISC_Private_TypesDefinitions
  37:lib/src/misc.c ****   * @{
  38:lib/src/misc.c ****   */
  39:lib/src/misc.c **** 
  40:lib/src/misc.c **** /**
  41:lib/src/misc.c ****   * @}
  42:lib/src/misc.c ****   */ 
  43:lib/src/misc.c **** 
  44:lib/src/misc.c **** /** @defgroup MISC_Private_Defines
  45:lib/src/misc.c ****   * @{
  46:lib/src/misc.c ****   */
  47:lib/src/misc.c **** 
  48:lib/src/misc.c **** #define AIRCR_VECTKEY_MASK    ((uint32_t)0x05FA0000)
  49:lib/src/misc.c **** /**
  50:lib/src/misc.c ****   * @}
  51:lib/src/misc.c ****   */
  52:lib/src/misc.c **** 
  53:lib/src/misc.c **** /** @defgroup MISC_Private_Macros
  54:lib/src/misc.c ****   * @{
  55:lib/src/misc.c ****   */
  56:lib/src/misc.c **** 
  57:lib/src/misc.c **** /**
  58:lib/src/misc.c ****   * @}
  59:lib/src/misc.c ****   */
  60:lib/src/misc.c **** 
  61:lib/src/misc.c **** /** @defgroup MISC_Private_Variables
  62:lib/src/misc.c ****   * @{
  63:lib/src/misc.c ****   */
  64:lib/src/misc.c **** 
  65:lib/src/misc.c **** /**
  66:lib/src/misc.c ****   * @}
  67:lib/src/misc.c ****   */
  68:lib/src/misc.c **** 
  69:lib/src/misc.c **** /** @defgroup MISC_Private_FunctionPrototypes
  70:lib/src/misc.c ****   * @{
  71:lib/src/misc.c ****   */
  72:lib/src/misc.c **** 
  73:lib/src/misc.c **** /**
  74:lib/src/misc.c ****   * @}
  75:lib/src/misc.c ****   */
  76:lib/src/misc.c **** 
  77:lib/src/misc.c **** /** @defgroup MISC_Private_Functions
  78:lib/src/misc.c ****   * @{
  79:lib/src/misc.c ****   */
  80:lib/src/misc.c **** 
  81:lib/src/misc.c **** /**
  82:lib/src/misc.c ****   * @brief  Configures the priority grouping: pre-emption priority and subpriority.
  83:lib/src/misc.c ****   * @param  NVIC_PriorityGroup: specifies the priority grouping bits length. 
  84:lib/src/misc.c ****   *   This parameter can be one of the following values:
  85:lib/src/misc.c ****   *     @arg NVIC_PriorityGroup_0: 0 bits for pre-emption priority
  86:lib/src/misc.c ****   *                                4 bits for subpriority
  87:lib/src/misc.c ****   *     @arg NVIC_PriorityGroup_1: 1 bits for pre-emption priority
  88:lib/src/misc.c ****   *                                3 bits for subpriority
  89:lib/src/misc.c ****   *     @arg NVIC_PriorityGroup_2: 2 bits for pre-emption priority
  90:lib/src/misc.c ****   *                                2 bits for subpriority
ARM GAS  /tmp/ccUNhkLT.s 			page 3


  91:lib/src/misc.c ****   *     @arg NVIC_PriorityGroup_3: 3 bits for pre-emption priority
  92:lib/src/misc.c ****   *                                1 bits for subpriority
  93:lib/src/misc.c ****   *     @arg NVIC_PriorityGroup_4: 4 bits for pre-emption priority
  94:lib/src/misc.c ****   *                                0 bits for subpriority
  95:lib/src/misc.c ****   * @retval None
  96:lib/src/misc.c ****   */
  97:lib/src/misc.c **** void NVIC_PriorityGroupConfig(uint32_t NVIC_PriorityGroup)
  98:lib/src/misc.c **** {
  25              		.loc 1 98 0
  26              		.cfi_startproc
  27              		@ args = 0, pretend = 0, frame = 0
  28              		@ frame_needed = 0, uses_anonymous_args = 0
  29              		@ link register save eliminated.
  30              	.LVL0:
  99:lib/src/misc.c ****   /* Check the parameters */
 100:lib/src/misc.c ****   assert_param(IS_NVIC_PRIORITY_GROUP(NVIC_PriorityGroup));
 101:lib/src/misc.c ****   
 102:lib/src/misc.c ****   /* Set the PRIGROUP[10:8] bits according to NVIC_PriorityGroup value */
 103:lib/src/misc.c ****   SCB->AIRCR = AIRCR_VECTKEY_MASK | NVIC_PriorityGroup;
  31              		.loc 1 103 0
  32 0000 40F0BF60 		orr	r0, r0, #100139008
  33              	.LVL1:
  34 0004 40F40030 		orr	r0, r0, #131072
  35 0008 014B     		ldr	r3, .L2
  36 000a D860     		str	r0, [r3, #12]
  37 000c 7047     		bx	lr
  38              	.L3:
  39 000e 00BF     		.align	2
  40              	.L2:
  41 0010 00ED00E0 		.word	-536810240
  42              		.cfi_endproc
  43              	.LFE64:
  44              		.size	NVIC_PriorityGroupConfig, .-NVIC_PriorityGroupConfig
  45              		.align	1
  46              		.global	NVIC_Init
  47              		.syntax unified
  48              		.thumb
  49              		.thumb_func
  50              		.fpu softvfp
  51              		.type	NVIC_Init, %function
  52              	NVIC_Init:
  53              	.LFB65:
 104:lib/src/misc.c **** }
 105:lib/src/misc.c **** 
 106:lib/src/misc.c **** /**
 107:lib/src/misc.c ****   * @brief  Initializes the NVIC peripheral according to the specified
 108:lib/src/misc.c ****   *         parameters in the NVIC_InitStruct.
 109:lib/src/misc.c ****   * @param  NVIC_InitStruct: pointer to a NVIC_InitTypeDef structure that contains
 110:lib/src/misc.c ****   *         the configuration information for the specified NVIC peripheral.
 111:lib/src/misc.c ****   * @retval None
 112:lib/src/misc.c ****   */
 113:lib/src/misc.c **** void NVIC_Init(NVIC_InitTypeDef* NVIC_InitStruct)
 114:lib/src/misc.c **** {
  54              		.loc 1 114 0
  55              		.cfi_startproc
  56              		@ args = 0, pretend = 0, frame = 0
  57              		@ frame_needed = 0, uses_anonymous_args = 0
ARM GAS  /tmp/ccUNhkLT.s 			page 4


  58              		@ link register save eliminated.
  59              	.LVL2:
 115:lib/src/misc.c ****   uint32_t tmppriority = 0x00, tmppre = 0x00, tmpsub = 0x0F;
 116:lib/src/misc.c ****   
 117:lib/src/misc.c ****   /* Check the parameters */
 118:lib/src/misc.c ****   assert_param(IS_FUNCTIONAL_STATE(NVIC_InitStruct->NVIC_IRQChannelCmd));
 119:lib/src/misc.c ****   assert_param(IS_NVIC_PREEMPTION_PRIORITY(NVIC_InitStruct->NVIC_IRQChannelPreemptionPriority));  
 120:lib/src/misc.c ****   assert_param(IS_NVIC_SUB_PRIORITY(NVIC_InitStruct->NVIC_IRQChannelSubPriority));
 121:lib/src/misc.c ****     
 122:lib/src/misc.c ****   if (NVIC_InitStruct->NVIC_IRQChannelCmd != DISABLE)
  60              		.loc 1 122 0
  61 0014 C378     		ldrb	r3, [r0, #3]	@ zero_extendqisi2
  62 0016 5BB9     		cbnz	r3, .L7
 123:lib/src/misc.c ****   {
 124:lib/src/misc.c ****     /* Compute the Corresponding IRQ Priority --------------------------------*/    
 125:lib/src/misc.c ****     tmppriority = (0x700 - ((SCB->AIRCR) & (uint32_t)0x700))>> 0x08;
 126:lib/src/misc.c ****     tmppre = (0x4 - tmppriority);
 127:lib/src/misc.c ****     tmpsub = tmpsub >> tmppriority;
 128:lib/src/misc.c **** 
 129:lib/src/misc.c ****     tmppriority = (uint32_t)NVIC_InitStruct->NVIC_IRQChannelPreemptionPriority << tmppre;
 130:lib/src/misc.c ****     tmppriority |=  NVIC_InitStruct->NVIC_IRQChannelSubPriority & tmpsub;
 131:lib/src/misc.c ****     tmppriority = tmppriority << 0x04;
 132:lib/src/misc.c ****         
 133:lib/src/misc.c ****     NVIC->IP[NVIC_InitStruct->NVIC_IRQChannel] = tmppriority;
 134:lib/src/misc.c ****     
 135:lib/src/misc.c ****     /* Enable the Selected IRQ Channels --------------------------------------*/
 136:lib/src/misc.c ****     NVIC->ISER[NVIC_InitStruct->NVIC_IRQChannel >> 0x05] =
 137:lib/src/misc.c ****       (uint32_t)0x01 << (NVIC_InitStruct->NVIC_IRQChannel & (uint8_t)0x1F);
 138:lib/src/misc.c ****   }
 139:lib/src/misc.c ****   else
 140:lib/src/misc.c ****   {
 141:lib/src/misc.c ****     /* Disable the Selected IRQ Channels -------------------------------------*/
 142:lib/src/misc.c ****     NVIC->ICER[NVIC_InitStruct->NVIC_IRQChannel >> 0x05] =
  63              		.loc 1 142 0
  64 0018 0378     		ldrb	r3, [r0]	@ zero_extendqisi2
  65 001a 5A09     		lsrs	r2, r3, #5
 143:lib/src/misc.c ****       (uint32_t)0x01 << (NVIC_InitStruct->NVIC_IRQChannel & (uint8_t)0x1F);
  66              		.loc 1 143 0
  67 001c 03F01F03 		and	r3, r3, #31
  68 0020 0121     		movs	r1, #1
  69 0022 01FA03F3 		lsl	r3, r1, r3
 142:lib/src/misc.c ****       (uint32_t)0x01 << (NVIC_InitStruct->NVIC_IRQChannel & (uint8_t)0x1F);
  70              		.loc 1 142 0
  71 0026 2032     		adds	r2, r2, #32
  72 0028 1149     		ldr	r1, .L8
  73 002a 41F82230 		str	r3, [r1, r2, lsl #2]
  74 002e 7047     		bx	lr
  75              	.L7:
 125:lib/src/misc.c ****     tmppre = (0x4 - tmppriority);
  76              		.loc 1 125 0
  77 0030 104B     		ldr	r3, .L8+4
  78 0032 DA68     		ldr	r2, [r3, #12]
  79 0034 D243     		mvns	r2, r2
  80 0036 C2F30222 		ubfx	r2, r2, #8, #3
  81              	.LVL3:
 126:lib/src/misc.c ****     tmpsub = tmpsub >> tmppriority;
  82              		.loc 1 126 0
ARM GAS  /tmp/ccUNhkLT.s 			page 5


  83 003a C2F10401 		rsb	r1, r2, #4
  84              	.LVL4:
 129:lib/src/misc.c ****     tmppriority |=  NVIC_InitStruct->NVIC_IRQChannelSubPriority & tmpsub;
  85              		.loc 1 129 0
  86 003e 4378     		ldrb	r3, [r0, #1]	@ zero_extendqisi2
  87 0040 8B40     		lsls	r3, r3, r1
  88              	.LVL5:
 127:lib/src/misc.c **** 
  89              		.loc 1 127 0
  90 0042 0F21     		movs	r1, #15
  91              	.LVL6:
  92 0044 21FA02F2 		lsr	r2, r1, r2
  93              	.LVL7:
 130:lib/src/misc.c ****     tmppriority = tmppriority << 0x04;
  94              		.loc 1 130 0
  95 0048 8178     		ldrb	r1, [r0, #2]	@ zero_extendqisi2
  96 004a 0A40     		ands	r2, r2, r1
  97              	.LVL8:
  98 004c 1343     		orrs	r3, r3, r2
  99              	.LVL9:
 133:lib/src/misc.c ****     
 100              		.loc 1 133 0
 101 004e 0278     		ldrb	r2, [r0]	@ zero_extendqisi2
 131:lib/src/misc.c ****         
 102              		.loc 1 131 0
 103 0050 1B01     		lsls	r3, r3, #4
 104              	.LVL10:
 133:lib/src/misc.c ****     
 105              		.loc 1 133 0
 106 0052 DBB2     		uxtb	r3, r3
 107              	.LVL11:
 108 0054 0649     		ldr	r1, .L8
 109 0056 0A44     		add	r2, r2, r1
 110 0058 82F80033 		strb	r3, [r2, #768]
 136:lib/src/misc.c ****       (uint32_t)0x01 << (NVIC_InitStruct->NVIC_IRQChannel & (uint8_t)0x1F);
 111              		.loc 1 136 0
 112 005c 0378     		ldrb	r3, [r0]	@ zero_extendqisi2
 113 005e 5809     		lsrs	r0, r3, #5
 114              	.LVL12:
 137:lib/src/misc.c ****   }
 115              		.loc 1 137 0
 116 0060 03F01F03 		and	r3, r3, #31
 117 0064 0122     		movs	r2, #1
 118 0066 02FA03F3 		lsl	r3, r2, r3
 136:lib/src/misc.c ****       (uint32_t)0x01 << (NVIC_InitStruct->NVIC_IRQChannel & (uint8_t)0x1F);
 119              		.loc 1 136 0
 120 006a 41F82030 		str	r3, [r1, r0, lsl #2]
 121 006e 7047     		bx	lr
 122              	.L9:
 123              		.align	2
 124              	.L8:
 125 0070 00E100E0 		.word	-536813312
 126 0074 00ED00E0 		.word	-536810240
 127              		.cfi_endproc
 128              	.LFE65:
 129              		.size	NVIC_Init, .-NVIC_Init
 130              		.align	1
ARM GAS  /tmp/ccUNhkLT.s 			page 6


 131              		.global	NVIC_SetVectorTable
 132              		.syntax unified
 133              		.thumb
 134              		.thumb_func
 135              		.fpu softvfp
 136              		.type	NVIC_SetVectorTable, %function
 137              	NVIC_SetVectorTable:
 138              	.LFB66:
 144:lib/src/misc.c ****   }
 145:lib/src/misc.c **** }
 146:lib/src/misc.c **** 
 147:lib/src/misc.c **** /**
 148:lib/src/misc.c ****   * @brief  Sets the vector table location and Offset.
 149:lib/src/misc.c ****   * @param  NVIC_VectTab: specifies if the vector table is in RAM or FLASH memory.
 150:lib/src/misc.c ****   *   This parameter can be one of the following values:
 151:lib/src/misc.c ****   *     @arg NVIC_VectTab_RAM
 152:lib/src/misc.c ****   *     @arg NVIC_VectTab_FLASH
 153:lib/src/misc.c ****   * @param  Offset: Vector Table base offset field. This value must be a multiple 
 154:lib/src/misc.c ****   *         of 0x200.
 155:lib/src/misc.c ****   * @retval None
 156:lib/src/misc.c ****   */
 157:lib/src/misc.c **** void NVIC_SetVectorTable(uint32_t NVIC_VectTab, uint32_t Offset)
 158:lib/src/misc.c **** { 
 139              		.loc 1 158 0
 140              		.cfi_startproc
 141              		@ args = 0, pretend = 0, frame = 0
 142              		@ frame_needed = 0, uses_anonymous_args = 0
 143              		@ link register save eliminated.
 144              	.LVL13:
 159:lib/src/misc.c ****   /* Check the parameters */
 160:lib/src/misc.c ****   assert_param(IS_NVIC_VECTTAB(NVIC_VectTab));
 161:lib/src/misc.c ****   assert_param(IS_NVIC_OFFSET(Offset));  
 162:lib/src/misc.c ****    
 163:lib/src/misc.c ****   SCB->VTOR = NVIC_VectTab | (Offset & (uint32_t)0x1FFFFF80);
 145              		.loc 1 163 0
 146 0078 21F06041 		bic	r1, r1, #-536870912
 147              	.LVL14:
 148 007c 21F07F01 		bic	r1, r1, #127
 149 0080 0143     		orrs	r1, r1, r0
 150 0082 014B     		ldr	r3, .L11
 151 0084 9960     		str	r1, [r3, #8]
 152 0086 7047     		bx	lr
 153              	.L12:
 154              		.align	2
 155              	.L11:
 156 0088 00ED00E0 		.word	-536810240
 157              		.cfi_endproc
 158              	.LFE66:
 159              		.size	NVIC_SetVectorTable, .-NVIC_SetVectorTable
 160              		.align	1
 161              		.global	NVIC_SystemLPConfig
 162              		.syntax unified
 163              		.thumb
 164              		.thumb_func
 165              		.fpu softvfp
 166              		.type	NVIC_SystemLPConfig, %function
 167              	NVIC_SystemLPConfig:
ARM GAS  /tmp/ccUNhkLT.s 			page 7


 168              	.LFB67:
 164:lib/src/misc.c **** }
 165:lib/src/misc.c **** 
 166:lib/src/misc.c **** /**
 167:lib/src/misc.c ****   * @brief  Selects the condition for the system to enter low power mode.
 168:lib/src/misc.c ****   * @param  LowPowerMode: Specifies the new mode for the system to enter low power mode.
 169:lib/src/misc.c ****   *   This parameter can be one of the following values:
 170:lib/src/misc.c ****   *     @arg NVIC_LP_SEVONPEND
 171:lib/src/misc.c ****   *     @arg NVIC_LP_SLEEPDEEP
 172:lib/src/misc.c ****   *     @arg NVIC_LP_SLEEPONEXIT
 173:lib/src/misc.c ****   * @param  NewState: new state of LP condition. This parameter can be: ENABLE or DISABLE.
 174:lib/src/misc.c ****   * @retval None
 175:lib/src/misc.c ****   */
 176:lib/src/misc.c **** void NVIC_SystemLPConfig(uint8_t LowPowerMode, FunctionalState NewState)
 177:lib/src/misc.c **** {
 169              		.loc 1 177 0
 170              		.cfi_startproc
 171              		@ args = 0, pretend = 0, frame = 0
 172              		@ frame_needed = 0, uses_anonymous_args = 0
 173              		@ link register save eliminated.
 174              	.LVL15:
 178:lib/src/misc.c ****   /* Check the parameters */
 179:lib/src/misc.c ****   assert_param(IS_NVIC_LP(LowPowerMode));
 180:lib/src/misc.c ****   assert_param(IS_FUNCTIONAL_STATE(NewState));  
 181:lib/src/misc.c ****   
 182:lib/src/misc.c ****   if (NewState != DISABLE)
 175              		.loc 1 182 0
 176 008c 29B9     		cbnz	r1, .L16
 183:lib/src/misc.c ****   {
 184:lib/src/misc.c ****     SCB->SCR |= LowPowerMode;
 185:lib/src/misc.c ****   }
 186:lib/src/misc.c ****   else
 187:lib/src/misc.c ****   {
 188:lib/src/misc.c ****     SCB->SCR &= (uint32_t)(~(uint32_t)LowPowerMode);
 177              		.loc 1 188 0
 178 008e 054A     		ldr	r2, .L17
 179 0090 1369     		ldr	r3, [r2, #16]
 180 0092 23EA0000 		bic	r0, r3, r0
 181              	.LVL16:
 182 0096 1061     		str	r0, [r2, #16]
 183 0098 7047     		bx	lr
 184              	.LVL17:
 185              	.L16:
 184:lib/src/misc.c ****   }
 186              		.loc 1 184 0
 187 009a 024B     		ldr	r3, .L17
 188 009c 1A69     		ldr	r2, [r3, #16]
 189 009e 1043     		orrs	r0, r0, r2
 190              	.LVL18:
 191 00a0 1861     		str	r0, [r3, #16]
 192 00a2 7047     		bx	lr
 193              	.L18:
 194              		.align	2
 195              	.L17:
 196 00a4 00ED00E0 		.word	-536810240
 197              		.cfi_endproc
 198              	.LFE67:
ARM GAS  /tmp/ccUNhkLT.s 			page 8


 199              		.size	NVIC_SystemLPConfig, .-NVIC_SystemLPConfig
 200              		.align	1
 201              		.global	SysTick_CLKSourceConfig
 202              		.syntax unified
 203              		.thumb
 204              		.thumb_func
 205              		.fpu softvfp
 206              		.type	SysTick_CLKSourceConfig, %function
 207              	SysTick_CLKSourceConfig:
 208              	.LFB68:
 189:lib/src/misc.c ****   }
 190:lib/src/misc.c **** }
 191:lib/src/misc.c **** 
 192:lib/src/misc.c **** /**
 193:lib/src/misc.c ****   * @brief  Configures the SysTick clock source.
 194:lib/src/misc.c ****   * @param  SysTick_CLKSource: specifies the SysTick clock source.
 195:lib/src/misc.c ****   *   This parameter can be one of the following values:
 196:lib/src/misc.c ****   *     @arg SysTick_CLKSource_HCLK_Div8: AHB clock divided by 8 selected as SysTick clock source.
 197:lib/src/misc.c ****   *     @arg SysTick_CLKSource_HCLK: AHB clock selected as SysTick clock source.
 198:lib/src/misc.c ****   * @retval None
 199:lib/src/misc.c ****   */
 200:lib/src/misc.c **** void SysTick_CLKSourceConfig(uint32_t SysTick_CLKSource)
 201:lib/src/misc.c **** {
 209              		.loc 1 201 0
 210              		.cfi_startproc
 211              		@ args = 0, pretend = 0, frame = 0
 212              		@ frame_needed = 0, uses_anonymous_args = 0
 213              		@ link register save eliminated.
 214              	.LVL19:
 202:lib/src/misc.c ****   /* Check the parameters */
 203:lib/src/misc.c ****   assert_param(IS_SYSTICK_CLK_SOURCE(SysTick_CLKSource));
 204:lib/src/misc.c ****   if (SysTick_CLKSource == SysTick_CLKSource_HCLK)
 215              		.loc 1 204 0
 216 00a8 0428     		cmp	r0, #4
 205:lib/src/misc.c ****   {
 206:lib/src/misc.c ****     SysTick->CTRL |= SysTick_CLKSource_HCLK;
 217              		.loc 1 206 0
 218 00aa 044A     		ldr	r2, .L22
 219 00ac 1368     		ldr	r3, [r2]
 220 00ae 0CBF     		ite	eq
 221 00b0 43F00403 		orreq	r3, r3, #4
 207:lib/src/misc.c ****   }
 208:lib/src/misc.c ****   else
 209:lib/src/misc.c ****   {
 210:lib/src/misc.c ****     SysTick->CTRL &= SysTick_CLKSource_HCLK_Div8;
 222              		.loc 1 210 0
 223 00b4 23F00403 		bicne	r3, r3, #4
 224 00b8 1360     		str	r3, [r2]
 225 00ba 7047     		bx	lr
 226              	.L23:
 227              		.align	2
 228              	.L22:
 229 00bc 10E000E0 		.word	-536813552
 230              		.cfi_endproc
 231              	.LFE68:
 232              		.size	SysTick_CLKSourceConfig, .-SysTick_CLKSourceConfig
 233              	.Letext0:
ARM GAS  /tmp/ccUNhkLT.s 			page 9


 234              		.file 2 "/usr/arm-none-eabi/include/machine/_default_types.h"
 235              		.file 3 "/usr/arm-none-eabi/include/sys/_stdint.h"
 236              		.file 4 "/home/enbin/Documents/code/STM/stm32-quadrocopter/cmsis/core_cm3.h"
 237              		.file 5 "/home/enbin/Documents/code/STM/stm32-quadrocopter/lib/inc/system_stm32f10x.h"
 238              		.file 6 "/home/enbin/Documents/code/STM/stm32-quadrocopter/lib/inc/stm32f10x.h"
 239              		.file 7 "/home/enbin/Documents/code/STM/stm32-quadrocopter/lib/inc/misc.h"
 240              		.file 8 "/home/enbin/Documents/code/STM/stm32-quadrocopter/drivers/MPU6050.h"
 241              		.file 9 "/usr/arm-none-eabi/include/sys/lock.h"
 242              		.file 10 "/usr/arm-none-eabi/include/sys/_types.h"
 243              		.file 11 "/usr/lib/gcc/arm-none-eabi/6.1.1/include/stddef.h"
 244              		.file 12 "/usr/arm-none-eabi/include/sys/reent.h"
 245              		.file 13 "/usr/arm-none-eabi/include/stdlib.h"
 246              		.file 14 "/usr/arm-none-eabi/include/math.h"
 247              		.file 15 "/usr/arm-none-eabi/include/sys/errno.h"