ARM GAS  /tmp/ccMB938d.s 			page 1


   1              		.cpu cortex-m3
   2              		.eabi_attribute 20, 1
   3              		.eabi_attribute 21, 1
   4              		.eabi_attribute 23, 3
   5              		.eabi_attribute 24, 1
   6              		.eabi_attribute 25, 1
   7              		.eabi_attribute 26, 1
   8              		.eabi_attribute 30, 6
   9              		.eabi_attribute 34, 1
  10              		.eabi_attribute 18, 4
  11              		.file	"misc.c"
  12              		.text
  13              	.Ltext0:
  14              		.cfi_sections	.debug_frame
  15              		.align	1
  16              		.global	NVIC_PriorityGroupConfig
  17              		.syntax unified
  18              		.thumb
  19              		.thumb_func
  20              		.fpu softvfp
  21              		.type	NVIC_PriorityGroupConfig, %function
  22              	NVIC_PriorityGroupConfig:
  23              	.LFB63:
  24              		.file 1 "common/misc.c"
   1:common/misc.c **** // 系统硬件控制
   2:common/misc.c **** 
   3:common/misc.c **** /* Includes ------------------------------------------------------------------*/
   4:common/misc.c **** #include "../include/STM32/misc.h"
   5:common/misc.c **** #include "../src/conf.h"
   6:common/misc.c **** 
   7:common/misc.c **** 
   8:common/misc.c **** #define AIRCR_VECTKEY_MASK    ((uint32_t)0x05FA0000)
   9:common/misc.c **** 
  10:common/misc.c **** // 系统中断控制器 
  11:common/misc.c **** // 分组抢占优先级 
  12:common/misc.c **** void NVIC_PriorityGroupConfig(uint32_t NVIC_PriorityGroup)
  13:common/misc.c **** {
  25              		.loc 1 13 0
  26              		.cfi_startproc
  27              		@ args = 0, pretend = 0, frame = 8
  28              		@ frame_needed = 1, uses_anonymous_args = 0
  29              		@ link register save eliminated.
  30 0000 80B4     		push	{r7}
  31              		.cfi_def_cfa_offset 4
  32              		.cfi_offset 7, -4
  33 0002 83B0     		sub	sp, sp, #12
  34              		.cfi_def_cfa_offset 16
  35 0004 00AF     		add	r7, sp, #0
  36              		.cfi_def_cfa_register 7
  37 0006 7860     		str	r0, [r7, #4]
  14:common/misc.c ****   // 检查参数
  15:common/misc.c ****   assert_param(IS_NVIC_PRIORITY_GROUP(NVIC_PriorityGroup));
  16:common/misc.c ****   
  17:common/misc.c ****   // 根据参数设置组优先级寄存器中的10-8位
  18:common/misc.c ****   SCB->AIRCR = AIRCR_VECTKEY_MASK | NVIC_PriorityGroup;
  38              		.loc 1 18 0
  39 0008 054A     		ldr	r2, .L2
ARM GAS  /tmp/ccMB938d.s 			page 2


  40 000a 7B68     		ldr	r3, [r7, #4]
  41 000c 43F0BF63 		orr	r3, r3, #100139008
  42 0010 43F40033 		orr	r3, r3, #131072
  43 0014 D360     		str	r3, [r2, #12]
  19:common/misc.c **** }
  44              		.loc 1 19 0
  45 0016 00BF     		nop
  46 0018 0C37     		adds	r7, r7, #12
  47              		.cfi_def_cfa_offset 4
  48 001a BD46     		mov	sp, r7
  49              		.cfi_def_cfa_register 13
  50              		@ sp needed
  51 001c 80BC     		pop	{r7}
  52              		.cfi_restore 7
  53              		.cfi_def_cfa_offset 0
  54 001e 7047     		bx	lr
  55              	.L3:
  56              		.align	2
  57              	.L2:
  58 0020 00ED00E0 		.word	-536810240
  59              		.cfi_endproc
  60              	.LFE63:
  61              		.size	NVIC_PriorityGroupConfig, .-NVIC_PriorityGroupConfig
  62              		.align	1
  63              		.global	NVIC_Init
  64              		.syntax unified
  65              		.thumb
  66              		.thumb_func
  67              		.fpu softvfp
  68              		.type	NVIC_Init, %function
  69              	NVIC_Init:
  70              	.LFB64:
  20:common/misc.c **** 
  21:common/misc.c **** // 系统中断控制器初始化
  22:common/misc.c **** void NVIC_Init(NVIC_InitTypeDef* NVIC_InitStruct)
  23:common/misc.c **** {
  71              		.loc 1 23 0
  72              		.cfi_startproc
  73              		@ args = 0, pretend = 0, frame = 24
  74              		@ frame_needed = 1, uses_anonymous_args = 0
  75              		@ link register save eliminated.
  76 0024 80B4     		push	{r7}
  77              		.cfi_def_cfa_offset 4
  78              		.cfi_offset 7, -4
  79 0026 87B0     		sub	sp, sp, #28
  80              		.cfi_def_cfa_offset 32
  81 0028 00AF     		add	r7, sp, #0
  82              		.cfi_def_cfa_register 7
  83 002a 7860     		str	r0, [r7, #4]
  24:common/misc.c ****   uint32_t tmppriority = 0x00, tmppre = 0x00, tmpsub = 0x0F;
  84              		.loc 1 24 0
  85 002c 0023     		movs	r3, #0
  86 002e 7B61     		str	r3, [r7, #20]
  87 0030 0023     		movs	r3, #0
  88 0032 3B61     		str	r3, [r7, #16]
  89 0034 0F23     		movs	r3, #15
  90 0036 FB60     		str	r3, [r7, #12]
ARM GAS  /tmp/ccMB938d.s 			page 3


  25:common/misc.c ****   
  26:common/misc.c ****   // 检查参数
  27:common/misc.c ****   assert_param(IS_FUNCTIONAL_STATE(NVIC_InitStruct->NVIC_IRQChannelCmd));
  28:common/misc.c ****   assert_param(IS_NVIC_PREEMPTION_PRIORITY(NVIC_InitStruct->NVIC_IRQChannelPreemptionPriority));  
  29:common/misc.c ****   assert_param(IS_NVIC_SUB_PRIORITY(NVIC_InitStruct->NVIC_IRQChannelSubPriority));
  30:common/misc.c ****     
  31:common/misc.c ****   if (NVIC_InitStruct->NVIC_IRQChannelCmd != DISABLE) {
  91              		.loc 1 31 0
  92 0038 7B68     		ldr	r3, [r7, #4]
  93 003a DB78     		ldrb	r3, [r3, #3]	@ zero_extendqisi2
  94 003c 002B     		cmp	r3, #0
  95 003e 3AD0     		beq	.L5
  32:common/misc.c ****     // 计算 IRQ 访问优先级
  33:common/misc.c ****     tmppriority = (0x700 - ((SCB->AIRCR) & (uint32_t)0x700))>> 0x08;
  96              		.loc 1 33 0
  97 0040 274B     		ldr	r3, .L8
  98 0042 DB68     		ldr	r3, [r3, #12]
  99 0044 DB43     		mvns	r3, r3
 100 0046 1B0A     		lsrs	r3, r3, #8
 101 0048 03F00703 		and	r3, r3, #7
 102 004c 7B61     		str	r3, [r7, #20]
  34:common/misc.c ****     tmppre = (0x4 - tmppriority);
 103              		.loc 1 34 0
 104 004e 7B69     		ldr	r3, [r7, #20]
 105 0050 C3F10403 		rsb	r3, r3, #4
 106 0054 3B61     		str	r3, [r7, #16]
  35:common/misc.c ****     tmpsub = tmpsub >> tmppriority;
 107              		.loc 1 35 0
 108 0056 FA68     		ldr	r2, [r7, #12]
 109 0058 7B69     		ldr	r3, [r7, #20]
 110 005a 22FA03F3 		lsr	r3, r2, r3
 111 005e FB60     		str	r3, [r7, #12]
  36:common/misc.c **** 
  37:common/misc.c ****     tmppriority = (uint32_t)NVIC_InitStruct->NVIC_IRQChannelPreemptionPriority << tmppre;
 112              		.loc 1 37 0
 113 0060 7B68     		ldr	r3, [r7, #4]
 114 0062 5B78     		ldrb	r3, [r3, #1]	@ zero_extendqisi2
 115 0064 1A46     		mov	r2, r3
 116 0066 3B69     		ldr	r3, [r7, #16]
 117 0068 02FA03F3 		lsl	r3, r2, r3
 118 006c 7B61     		str	r3, [r7, #20]
  38:common/misc.c ****     tmppriority |=  NVIC_InitStruct->NVIC_IRQChannelSubPriority & tmpsub;
 119              		.loc 1 38 0
 120 006e 7B68     		ldr	r3, [r7, #4]
 121 0070 9B78     		ldrb	r3, [r3, #2]	@ zero_extendqisi2
 122 0072 1A46     		mov	r2, r3
 123 0074 FB68     		ldr	r3, [r7, #12]
 124 0076 1340     		ands	r3, r3, r2
 125 0078 7A69     		ldr	r2, [r7, #20]
 126 007a 1343     		orrs	r3, r3, r2
 127 007c 7B61     		str	r3, [r7, #20]
  39:common/misc.c ****     tmppriority = tmppriority << 0x04;
 128              		.loc 1 39 0
 129 007e 7B69     		ldr	r3, [r7, #20]
 130 0080 1B01     		lsls	r3, r3, #4
 131 0082 7B61     		str	r3, [r7, #20]
  40:common/misc.c ****         
ARM GAS  /tmp/ccMB938d.s 			page 4


  41:common/misc.c ****     NVIC->IP[NVIC_InitStruct->NVIC_IRQChannel] = tmppriority;
 132              		.loc 1 41 0
 133 0084 174A     		ldr	r2, .L8+4
 134 0086 7B68     		ldr	r3, [r7, #4]
 135 0088 1B78     		ldrb	r3, [r3]	@ zero_extendqisi2
 136 008a 7969     		ldr	r1, [r7, #20]
 137 008c C9B2     		uxtb	r1, r1
 138 008e 1344     		add	r3, r3, r2
 139 0090 0A46     		mov	r2, r1
 140 0092 83F80023 		strb	r2, [r3, #768]
  42:common/misc.c ****     
  43:common/misc.c ****     // 使能IRQ通道
  44:common/misc.c ****     NVIC->ISER[NVIC_InitStruct->NVIC_IRQChannel >> 0x05] =
 141              		.loc 1 44 0
 142 0096 134A     		ldr	r2, .L8+4
 143 0098 7B68     		ldr	r3, [r7, #4]
 144 009a 1B78     		ldrb	r3, [r3]	@ zero_extendqisi2
 145 009c 5B09     		lsrs	r3, r3, #5
 146 009e DBB2     		uxtb	r3, r3
 147 00a0 1846     		mov	r0, r3
  45:common/misc.c ****       (uint32_t)0x01 << (NVIC_InitStruct->NVIC_IRQChannel & (uint8_t)0x1F);
 148              		.loc 1 45 0
 149 00a2 7B68     		ldr	r3, [r7, #4]
 150 00a4 1B78     		ldrb	r3, [r3]	@ zero_extendqisi2
 151 00a6 03F01F03 		and	r3, r3, #31
 152 00aa 0121     		movs	r1, #1
 153 00ac 01FA03F3 		lsl	r3, r1, r3
  44:common/misc.c ****       (uint32_t)0x01 << (NVIC_InitStruct->NVIC_IRQChannel & (uint8_t)0x1F);
 154              		.loc 1 44 0
 155 00b0 42F82030 		str	r3, [r2, r0, lsl #2]
  46:common/misc.c ****   } else {
  47:common/misc.c ****     // 关闭IRQ通道
  48:common/misc.c ****     NVIC->ICER[NVIC_InitStruct->NVIC_IRQChannel >> 0x05] =
  49:common/misc.c ****       (uint32_t)0x01 << (NVIC_InitStruct->NVIC_IRQChannel & (uint8_t)0x1F);
  50:common/misc.c ****   }
  51:common/misc.c **** }
 156              		.loc 1 51 0
 157 00b4 0FE0     		b	.L7
 158              	.L5:
  48:common/misc.c ****       (uint32_t)0x01 << (NVIC_InitStruct->NVIC_IRQChannel & (uint8_t)0x1F);
 159              		.loc 1 48 0
 160 00b6 0B49     		ldr	r1, .L8+4
 161 00b8 7B68     		ldr	r3, [r7, #4]
 162 00ba 1B78     		ldrb	r3, [r3]	@ zero_extendqisi2
 163 00bc 5B09     		lsrs	r3, r3, #5
 164 00be DBB2     		uxtb	r3, r3
 165 00c0 1846     		mov	r0, r3
  49:common/misc.c ****   }
 166              		.loc 1 49 0
 167 00c2 7B68     		ldr	r3, [r7, #4]
 168 00c4 1B78     		ldrb	r3, [r3]	@ zero_extendqisi2
 169 00c6 03F01F03 		and	r3, r3, #31
 170 00ca 0122     		movs	r2, #1
 171 00cc 9A40     		lsls	r2, r2, r3
  48:common/misc.c ****       (uint32_t)0x01 << (NVIC_InitStruct->NVIC_IRQChannel & (uint8_t)0x1F);
 172              		.loc 1 48 0
 173 00ce 00F12003 		add	r3, r0, #32
ARM GAS  /tmp/ccMB938d.s 			page 5


 174 00d2 41F82320 		str	r2, [r1, r3, lsl #2]
 175              	.L7:
 176              		.loc 1 51 0
 177 00d6 00BF     		nop
 178 00d8 1C37     		adds	r7, r7, #28
 179              		.cfi_def_cfa_offset 4
 180 00da BD46     		mov	sp, r7
 181              		.cfi_def_cfa_register 13
 182              		@ sp needed
 183 00dc 80BC     		pop	{r7}
 184              		.cfi_restore 7
 185              		.cfi_def_cfa_offset 0
 186 00de 7047     		bx	lr
 187              	.L9:
 188              		.align	2
 189              	.L8:
 190 00e0 00ED00E0 		.word	-536810240
 191 00e4 00E100E0 		.word	-536813312
 192              		.cfi_endproc
 193              	.LFE64:
 194              		.size	NVIC_Init, .-NVIC_Init
 195              		.align	1
 196              		.global	NVIC_SetVectorTable
 197              		.syntax unified
 198              		.thumb
 199              		.thumb_func
 200              		.fpu softvfp
 201              		.type	NVIC_SetVectorTable, %function
 202              	NVIC_SetVectorTable:
 203              	.LFB65:
  52:common/misc.c **** 
  53:common/misc.c **** // 设置中断向量表位置
  54:common/misc.c **** // 参数1 定义向量表的位置NVIC_VectTab_RAM或者NVIC_VectTab_FLASH
  55:common/misc.c **** // 参数2 中断向量表起始偏移 这个值会乘以0x200
  56:common/misc.c **** void NVIC_SetVectorTable(uint32_t NVIC_VectTab, uint32_t Offset)
  57:common/misc.c **** { 
 204              		.loc 1 57 0
 205              		.cfi_startproc
 206              		@ args = 0, pretend = 0, frame = 8
 207              		@ frame_needed = 1, uses_anonymous_args = 0
 208              		@ link register save eliminated.
 209 00e8 80B4     		push	{r7}
 210              		.cfi_def_cfa_offset 4
 211              		.cfi_offset 7, -4
 212 00ea 83B0     		sub	sp, sp, #12
 213              		.cfi_def_cfa_offset 16
 214 00ec 00AF     		add	r7, sp, #0
 215              		.cfi_def_cfa_register 7
 216 00ee 7860     		str	r0, [r7, #4]
 217 00f0 3960     		str	r1, [r7]
  58:common/misc.c ****   // 检查参数
  59:common/misc.c ****   assert_param(IS_NVIC_VECTTAB(NVIC_VectTab));
  60:common/misc.c ****   assert_param(IS_NVIC_OFFSET(Offset));  
  61:common/misc.c ****    
  62:common/misc.c ****   SCB->VTOR = NVIC_VectTab | (Offset & (uint32_t)0x1FFFFF80);
 218              		.loc 1 62 0
 219 00f2 0749     		ldr	r1, .L11
ARM GAS  /tmp/ccMB938d.s 			page 6


 220 00f4 3B68     		ldr	r3, [r7]
 221 00f6 23F06043 		bic	r3, r3, #-536870912
 222 00fa 23F07F03 		bic	r3, r3, #127
 223 00fe 7A68     		ldr	r2, [r7, #4]
 224 0100 1343     		orrs	r3, r3, r2
 225 0102 8B60     		str	r3, [r1, #8]
  63:common/misc.c **** }
 226              		.loc 1 63 0
 227 0104 00BF     		nop
 228 0106 0C37     		adds	r7, r7, #12
 229              		.cfi_def_cfa_offset 4
 230 0108 BD46     		mov	sp, r7
 231              		.cfi_def_cfa_register 13
 232              		@ sp needed
 233 010a 80BC     		pop	{r7}
 234              		.cfi_restore 7
 235              		.cfi_def_cfa_offset 0
 236 010c 7047     		bx	lr
 237              	.L12:
 238 010e 00BF     		.align	2
 239              	.L11:
 240 0110 00ED00E0 		.word	-536810240
 241              		.cfi_endproc
 242              	.LFE65:
 243              		.size	NVIC_SetVectorTable, .-NVIC_SetVectorTable
 244              		.align	1
 245              		.global	NVIC_SystemLPConfig
 246              		.syntax unified
 247              		.thumb
 248              		.thumb_func
 249              		.fpu softvfp
 250              		.type	NVIC_SystemLPConfig, %function
 251              	NVIC_SystemLPConfig:
 252              	.LFB66:
  64:common/misc.c **** 
  65:common/misc.c **** // 系统进入节能模式的条件
  66:common/misc.c **** // 参数1 选择不同节能模式NVIC_LP_SEVONPEND NVIC_LP_SLEEPDEEP NVIC_LP_SLEEPONEXIT
  67:common/misc.c **** // 参数2 ENABLE DISABLE.
  68:common/misc.c **** void NVIC_SystemLPConfig(uint8_t LowPowerMode, FunctionalState NewState)
  69:common/misc.c **** {
 253              		.loc 1 69 0
 254              		.cfi_startproc
 255              		@ args = 0, pretend = 0, frame = 8
 256              		@ frame_needed = 1, uses_anonymous_args = 0
 257              		@ link register save eliminated.
 258 0114 80B4     		push	{r7}
 259              		.cfi_def_cfa_offset 4
 260              		.cfi_offset 7, -4
 261 0116 83B0     		sub	sp, sp, #12
 262              		.cfi_def_cfa_offset 16
 263 0118 00AF     		add	r7, sp, #0
 264              		.cfi_def_cfa_register 7
 265 011a 0346     		mov	r3, r0
 266 011c 0A46     		mov	r2, r1
 267 011e FB71     		strb	r3, [r7, #7]
 268 0120 1346     		mov	r3, r2
 269 0122 BB71     		strb	r3, [r7, #6]
ARM GAS  /tmp/ccMB938d.s 			page 7


  70:common/misc.c ****   // 检查参数
  71:common/misc.c ****   assert_param(IS_NVIC_LP(LowPowerMode));
  72:common/misc.c ****   assert_param(IS_FUNCTIONAL_STATE(NewState));  
  73:common/misc.c ****   
  74:common/misc.c ****   if (NewState != DISABLE) {
 270              		.loc 1 74 0
 271 0124 BB79     		ldrb	r3, [r7, #6]	@ zero_extendqisi2
 272 0126 002B     		cmp	r3, #0
 273 0128 06D0     		beq	.L14
  75:common/misc.c ****     SCB->SCR |= LowPowerMode;
 274              		.loc 1 75 0
 275 012a 0949     		ldr	r1, .L17
 276 012c 084B     		ldr	r3, .L17
 277 012e 1A69     		ldr	r2, [r3, #16]
 278 0130 FB79     		ldrb	r3, [r7, #7]	@ zero_extendqisi2
 279 0132 1343     		orrs	r3, r3, r2
 280 0134 0B61     		str	r3, [r1, #16]
  76:common/misc.c ****   } else {
  77:common/misc.c ****     SCB->SCR &= (uint32_t)(~(uint32_t)LowPowerMode);
  78:common/misc.c ****   }
  79:common/misc.c **** }
 281              		.loc 1 79 0
 282 0136 06E0     		b	.L16
 283              	.L14:
  77:common/misc.c ****   }
 284              		.loc 1 77 0
 285 0138 0549     		ldr	r1, .L17
 286 013a 054B     		ldr	r3, .L17
 287 013c 1A69     		ldr	r2, [r3, #16]
 288 013e FB79     		ldrb	r3, [r7, #7]	@ zero_extendqisi2
 289 0140 DB43     		mvns	r3, r3
 290 0142 1340     		ands	r3, r3, r2
 291 0144 0B61     		str	r3, [r1, #16]
 292              	.L16:
 293              		.loc 1 79 0
 294 0146 00BF     		nop
 295 0148 0C37     		adds	r7, r7, #12
 296              		.cfi_def_cfa_offset 4
 297 014a BD46     		mov	sp, r7
 298              		.cfi_def_cfa_register 13
 299              		@ sp needed
 300 014c 80BC     		pop	{r7}
 301              		.cfi_restore 7
 302              		.cfi_def_cfa_offset 0
 303 014e 7047     		bx	lr
 304              	.L18:
 305              		.align	2
 306              	.L17:
 307 0150 00ED00E0 		.word	-536810240
 308              		.cfi_endproc
 309              	.LFE66:
 310              		.size	NVIC_SystemLPConfig, .-NVIC_SystemLPConfig
 311              		.align	1
 312              		.global	SysTick_CLKSourceConfig
 313              		.syntax unified
 314              		.thumb
 315              		.thumb_func
ARM GAS  /tmp/ccMB938d.s 			page 8


 316              		.fpu softvfp
 317              		.type	SysTick_CLKSourceConfig, %function
 318              	SysTick_CLKSourceConfig:
 319              	.LFB67:
  80:common/misc.c **** 
  81:common/misc.c **** // 设置系统定时器的信号源
  82:common/misc.c **** // 参数 一般是HCLK时钟 SysTick_CLKSource_HCLK_Div8  SysTick_CLKSource_HCLK 
  83:common/misc.c **** void SysTick_CLKSourceConfig(uint32_t SysTick_CLKSource)
  84:common/misc.c **** {
 320              		.loc 1 84 0
 321              		.cfi_startproc
 322              		@ args = 0, pretend = 0, frame = 8
 323              		@ frame_needed = 1, uses_anonymous_args = 0
 324              		@ link register save eliminated.
 325 0154 80B4     		push	{r7}
 326              		.cfi_def_cfa_offset 4
 327              		.cfi_offset 7, -4
 328 0156 83B0     		sub	sp, sp, #12
 329              		.cfi_def_cfa_offset 16
 330 0158 00AF     		add	r7, sp, #0
 331              		.cfi_def_cfa_register 7
 332 015a 7860     		str	r0, [r7, #4]
  85:common/misc.c ****   // 检查参数
  86:common/misc.c ****   assert_param(IS_SYSTICK_CLK_SOURCE(SysTick_CLKSource));
  87:common/misc.c ****   if (SysTick_CLKSource == SysTick_CLKSource_HCLK) {
 333              		.loc 1 87 0
 334 015c 7B68     		ldr	r3, [r7, #4]
 335 015e 042B     		cmp	r3, #4
 336 0160 06D1     		bne	.L20
  88:common/misc.c ****     SysTick->CTRL |= SysTick_CLKSource_HCLK;
 337              		.loc 1 88 0
 338 0162 094A     		ldr	r2, .L23
 339 0164 084B     		ldr	r3, .L23
 340 0166 1B68     		ldr	r3, [r3]
 341 0168 43F00403 		orr	r3, r3, #4
 342 016c 1360     		str	r3, [r2]
  89:common/misc.c ****   } else {
  90:common/misc.c ****     SysTick->CTRL &= SysTick_CLKSource_HCLK_Div8;
  91:common/misc.c ****   }
  92:common/misc.c **** }
 343              		.loc 1 92 0
 344 016e 05E0     		b	.L22
 345              	.L20:
  90:common/misc.c ****   }
 346              		.loc 1 90 0
 347 0170 054A     		ldr	r2, .L23
 348 0172 054B     		ldr	r3, .L23
 349 0174 1B68     		ldr	r3, [r3]
 350 0176 23F00403 		bic	r3, r3, #4
 351 017a 1360     		str	r3, [r2]
 352              	.L22:
 353              		.loc 1 92 0
 354 017c 00BF     		nop
 355 017e 0C37     		adds	r7, r7, #12
 356              		.cfi_def_cfa_offset 4
 357 0180 BD46     		mov	sp, r7
 358              		.cfi_def_cfa_register 13
ARM GAS  /tmp/ccMB938d.s 			page 9


 359              		@ sp needed
 360 0182 80BC     		pop	{r7}
 361              		.cfi_restore 7
 362              		.cfi_def_cfa_offset 0
 363 0184 7047     		bx	lr
 364              	.L24:
 365 0186 00BF     		.align	2
 366              	.L23:
 367 0188 10E000E0 		.word	-536813552
 368              		.cfi_endproc
 369              	.LFE67:
 370              		.size	SysTick_CLKSourceConfig, .-SysTick_CLKSourceConfig
 371              	.Letext0:
 372              		.file 2 "/usr/arm-none-eabi/include/machine/_default_types.h"
 373              		.file 3 "/usr/arm-none-eabi/include/sys/_stdint.h"
 374              		.file 4 "common/../include/STM32/../CMSIS/core_cm3.h"
 375              		.file 5 "common/../include/STM32/system_stm32f10x.h"
 376              		.file 6 "common/../include/STM32/stm32f10x.h"
 377              		.file 7 "common/../include/STM32/misc.h"
 378              		.file 8 "common/../src/../include/MPU6050/mpu6050.h"
 379              		.file 9 "/usr/arm-none-eabi/include/sys/lock.h"
 380              		.file 10 "/usr/arm-none-eabi/include/sys/_types.h"
 381              		.file 11 "/usr/lib/gcc/arm-none-eabi/6.1.1/include/stddef.h"
 382              		.file 12 "/usr/arm-none-eabi/include/sys/reent.h"
 383              		.file 13 "/usr/arm-none-eabi/include/math.h"
 384              		.section	.debug_info,"",%progbits
 385              	.Ldebug_info0:
 386 0000 320E0000 		.4byte	0xe32
 387 0004 0400     		.2byte	0x4
 388 0006 00000000 		.4byte	.Ldebug_abbrev0
 389 000a 04       		.byte	0x4
 390 000b 01       		.uleb128 0x1
 391 000c 64060000 		.4byte	.LASF199
 392 0010 0C       		.byte	0xc
 393 0011 CE070000 		.4byte	.LASF200
 394 0015 91010000 		.4byte	.LASF201
 395 0019 00000000 		.4byte	.Ltext0
 396 001d 8C010000 		.4byte	.Letext0-.Ltext0
 397 0021 00000000 		.4byte	.Ldebug_line0
 398 0025 02       		.uleb128 0x2
 399 0026 01       		.byte	0x1
 400 0027 06       		.byte	0x6
 401 0028 18010000 		.4byte	.LASF0
 402 002c 03       		.uleb128 0x3
 403 002d 57000000 		.4byte	.LASF2
 404 0031 02       		.byte	0x2
 405 0032 1D       		.byte	0x1d
 406 0033 37000000 		.4byte	0x37
 407 0037 02       		.uleb128 0x2
 408 0038 01       		.byte	0x1
 409 0039 08       		.byte	0x8
 410 003a B4040000 		.4byte	.LASF1
 411 003e 03       		.uleb128 0x3
 412 003f 7B070000 		.4byte	.LASF3
 413 0043 02       		.byte	0x2
 414 0044 29       		.byte	0x29
 415 0045 49000000 		.4byte	0x49
ARM GAS  /tmp/ccMB938d.s 			page 10


 416 0049 02       		.uleb128 0x2
 417 004a 02       		.byte	0x2
 418 004b 05       		.byte	0x5
 419 004c 29060000 		.4byte	.LASF4
 420 0050 02       		.uleb128 0x2
 421 0051 02       		.byte	0x2
 422 0052 07       		.byte	0x7
 423 0053 A2060000 		.4byte	.LASF5
 424 0057 03       		.uleb128 0x3
 425 0058 33060000 		.4byte	.LASF6
 426 005c 02       		.byte	0x2
 427 005d 3F       		.byte	0x3f
 428 005e 62000000 		.4byte	0x62
 429 0062 02       		.uleb128 0x2
 430 0063 04       		.byte	0x4
 431 0064 05       		.byte	0x5
 432 0065 88010000 		.4byte	.LASF7
 433 0069 03       		.uleb128 0x3
 434 006a 58020000 		.4byte	.LASF8
 435 006e 02       		.byte	0x2
 436 006f 41       		.byte	0x41
 437 0070 74000000 		.4byte	0x74
 438 0074 02       		.uleb128 0x2
 439 0075 04       		.byte	0x4
 440 0076 07       		.byte	0x7
 441 0077 EA020000 		.4byte	.LASF9
 442 007b 02       		.uleb128 0x2
 443 007c 08       		.byte	0x8
 444 007d 05       		.byte	0x5
 445 007e F6010000 		.4byte	.LASF10
 446 0082 02       		.uleb128 0x2
 447 0083 08       		.byte	0x8
 448 0084 07       		.byte	0x7
 449 0085 91000000 		.4byte	.LASF11
 450 0089 04       		.uleb128 0x4
 451 008a 04       		.byte	0x4
 452 008b 05       		.byte	0x5
 453 008c 696E7400 		.ascii	"int\000"
 454 0090 02       		.uleb128 0x2
 455 0091 04       		.byte	0x4
 456 0092 07       		.byte	0x7
 457 0093 1C060000 		.4byte	.LASF12
 458 0097 03       		.uleb128 0x3
 459 0098 36070000 		.4byte	.LASF13
 460 009c 03       		.byte	0x3
 461 009d 18       		.byte	0x18
 462 009e 2C000000 		.4byte	0x2c
 463 00a2 05       		.uleb128 0x5
 464 00a3 97000000 		.4byte	0x97
 465 00a7 03       		.uleb128 0x3
 466 00a8 04010000 		.4byte	.LASF14
 467 00ac 03       		.byte	0x3
 468 00ad 20       		.byte	0x20
 469 00ae 3E000000 		.4byte	0x3e
 470 00b2 03       		.uleb128 0x3
 471 00b3 AC040000 		.4byte	.LASF15
 472 00b7 03       		.byte	0x3
ARM GAS  /tmp/ccMB938d.s 			page 11


 473 00b8 2C       		.byte	0x2c
 474 00b9 57000000 		.4byte	0x57
 475 00bd 05       		.uleb128 0x5
 476 00be B2000000 		.4byte	0xb2
 477 00c2 03       		.uleb128 0x3
 478 00c3 1D080000 		.4byte	.LASF16
 479 00c7 03       		.byte	0x3
 480 00c8 30       		.byte	0x30
 481 00c9 69000000 		.4byte	0x69
 482 00cd 05       		.uleb128 0x5
 483 00ce C2000000 		.4byte	0xc2
 484 00d2 06       		.uleb128 0x6
 485 00d3 CD000000 		.4byte	0xcd
 486 00d7 07       		.uleb128 0x7
 487 00d8 040E     		.2byte	0xe04
 488 00da 04       		.byte	0x4
 489 00db 7F01     		.2byte	0x17f
 490 00dd 93010000 		.4byte	0x193
 491 00e1 08       		.uleb128 0x8
 492 00e2 F1010000 		.4byte	.LASF17
 493 00e6 04       		.byte	0x4
 494 00e7 8101     		.2byte	0x181
 495 00e9 A3010000 		.4byte	0x1a3
 496 00ed 00       		.byte	0
 497 00ee 08       		.uleb128 0x8
 498 00ef 7A040000 		.4byte	.LASF18
 499 00f3 04       		.byte	0x4
 500 00f4 8201     		.2byte	0x182
 501 00f6 AF010000 		.4byte	0x1af
 502 00fa 20       		.byte	0x20
 503 00fb 08       		.uleb128 0x8
 504 00fc 24040000 		.4byte	.LASF19
 505 0100 04       		.byte	0x4
 506 0101 8301     		.2byte	0x183
 507 0103 A3010000 		.4byte	0x1a3
 508 0107 80       		.byte	0x80
 509 0108 08       		.uleb128 0x8
 510 0109 6D070000 		.4byte	.LASF20
 511 010d 04       		.byte	0x4
 512 010e 8401     		.2byte	0x184
 513 0110 AF010000 		.4byte	0x1af
 514 0114 A0       		.byte	0xa0
 515 0115 09       		.uleb128 0x9
 516 0116 E8000000 		.4byte	.LASF21
 517 011a 04       		.byte	0x4
 518 011b 8501     		.2byte	0x185
 519 011d A3010000 		.4byte	0x1a3
 520 0121 0001     		.2byte	0x100
 521 0123 09       		.uleb128 0x9
 522 0124 84040000 		.4byte	.LASF22
 523 0128 04       		.byte	0x4
 524 0129 8601     		.2byte	0x186
 525 012b AF010000 		.4byte	0x1af
 526 012f 2001     		.2byte	0x120
 527 0131 09       		.uleb128 0x9
 528 0132 15000000 		.4byte	.LASF23
 529 0136 04       		.byte	0x4
ARM GAS  /tmp/ccMB938d.s 			page 12


 530 0137 8701     		.2byte	0x187
 531 0139 A3010000 		.4byte	0x1a3
 532 013d 8001     		.2byte	0x180
 533 013f 09       		.uleb128 0x9
 534 0140 8E040000 		.4byte	.LASF24
 535 0144 04       		.byte	0x4
 536 0145 8801     		.2byte	0x188
 537 0147 AF010000 		.4byte	0x1af
 538 014b A001     		.2byte	0x1a0
 539 014d 09       		.uleb128 0x9
 540 014e E0030000 		.4byte	.LASF25
 541 0152 04       		.byte	0x4
 542 0153 8901     		.2byte	0x189
 543 0155 A3010000 		.4byte	0x1a3
 544 0159 0002     		.2byte	0x200
 545 015b 09       		.uleb128 0x9
 546 015c 98040000 		.4byte	.LASF26
 547 0160 04       		.byte	0x4
 548 0161 8A01     		.2byte	0x18a
 549 0163 BF010000 		.4byte	0x1bf
 550 0167 2002     		.2byte	0x220
 551 0169 0A       		.uleb128 0xa
 552 016a 495000   		.ascii	"IP\000"
 553 016d 04       		.byte	0x4
 554 016e 8B01     		.2byte	0x18b
 555 0170 DF010000 		.4byte	0x1df
 556 0174 0003     		.2byte	0x300
 557 0176 09       		.uleb128 0x9
 558 0177 A2040000 		.4byte	.LASF27
 559 017b 04       		.byte	0x4
 560 017c 8C01     		.2byte	0x18c
 561 017e E4010000 		.4byte	0x1e4
 562 0182 F003     		.2byte	0x3f0
 563 0184 09       		.uleb128 0x9
 564 0185 76070000 		.4byte	.LASF28
 565 0189 04       		.byte	0x4
 566 018a 8D01     		.2byte	0x18d
 567 018c CD000000 		.4byte	0xcd
 568 0190 000E     		.2byte	0xe00
 569 0192 00       		.byte	0
 570 0193 0B       		.uleb128 0xb
 571 0194 CD000000 		.4byte	0xcd
 572 0198 A3010000 		.4byte	0x1a3
 573 019c 0C       		.uleb128 0xc
 574 019d A8010000 		.4byte	0x1a8
 575 01a1 07       		.byte	0x7
 576 01a2 00       		.byte	0
 577 01a3 05       		.uleb128 0x5
 578 01a4 93010000 		.4byte	0x193
 579 01a8 02       		.uleb128 0x2
 580 01a9 04       		.byte	0x4
 581 01aa 07       		.byte	0x7
 582 01ab CD030000 		.4byte	.LASF29
 583 01af 0B       		.uleb128 0xb
 584 01b0 C2000000 		.4byte	0xc2
 585 01b4 BF010000 		.4byte	0x1bf
 586 01b8 0C       		.uleb128 0xc
ARM GAS  /tmp/ccMB938d.s 			page 13


 587 01b9 A8010000 		.4byte	0x1a8
 588 01bd 17       		.byte	0x17
 589 01be 00       		.byte	0
 590 01bf 0B       		.uleb128 0xb
 591 01c0 C2000000 		.4byte	0xc2
 592 01c4 CF010000 		.4byte	0x1cf
 593 01c8 0C       		.uleb128 0xc
 594 01c9 A8010000 		.4byte	0x1a8
 595 01cd 37       		.byte	0x37
 596 01ce 00       		.byte	0
 597 01cf 0B       		.uleb128 0xb
 598 01d0 A2000000 		.4byte	0xa2
 599 01d4 DF010000 		.4byte	0x1df
 600 01d8 0C       		.uleb128 0xc
 601 01d9 A8010000 		.4byte	0x1a8
 602 01dd EF       		.byte	0xef
 603 01de 00       		.byte	0
 604 01df 05       		.uleb128 0x5
 605 01e0 CF010000 		.4byte	0x1cf
 606 01e4 0B       		.uleb128 0xb
 607 01e5 C2000000 		.4byte	0xc2
 608 01e9 F5010000 		.4byte	0x1f5
 609 01ed 0D       		.uleb128 0xd
 610 01ee A8010000 		.4byte	0x1a8
 611 01f2 8302     		.2byte	0x283
 612 01f4 00       		.byte	0
 613 01f5 0E       		.uleb128 0xe
 614 01f6 F1040000 		.4byte	.LASF30
 615 01fa 04       		.byte	0x4
 616 01fb 8E01     		.2byte	0x18e
 617 01fd D7000000 		.4byte	0xd7
 618 0201 0F       		.uleb128 0xf
 619 0202 8C       		.byte	0x8c
 620 0203 04       		.byte	0x4
 621 0204 A101     		.2byte	0x1a1
 622 0206 1C030000 		.4byte	0x31c
 623 020a 08       		.uleb128 0x8
 624 020b BE000000 		.4byte	.LASF31
 625 020f 04       		.byte	0x4
 626 0210 A301     		.2byte	0x1a3
 627 0212 D2000000 		.4byte	0xd2
 628 0216 00       		.byte	0
 629 0217 08       		.uleb128 0x8
 630 0218 2E030000 		.4byte	.LASF32
 631 021c 04       		.byte	0x4
 632 021d A401     		.2byte	0x1a4
 633 021f CD000000 		.4byte	0xcd
 634 0223 04       		.byte	0x4
 635 0224 08       		.uleb128 0x8
 636 0225 08030000 		.4byte	.LASF33
 637 0229 04       		.byte	0x4
 638 022a A501     		.2byte	0x1a5
 639 022c CD000000 		.4byte	0xcd
 640 0230 08       		.byte	0x8
 641 0231 08       		.uleb128 0x8
 642 0232 40030000 		.4byte	.LASF34
 643 0236 04       		.byte	0x4
ARM GAS  /tmp/ccMB938d.s 			page 14


 644 0237 A601     		.2byte	0x1a6
 645 0239 CD000000 		.4byte	0xcd
 646 023d 0C       		.byte	0xc
 647 023e 10       		.uleb128 0x10
 648 023f 53435200 		.ascii	"SCR\000"
 649 0243 04       		.byte	0x4
 650 0244 A701     		.2byte	0x1a7
 651 0246 CD000000 		.4byte	0xcd
 652 024a 10       		.byte	0x10
 653 024b 10       		.uleb128 0x10
 654 024c 43435200 		.ascii	"CCR\000"
 655 0250 04       		.byte	0x4
 656 0251 A801     		.2byte	0x1a8
 657 0253 CD000000 		.4byte	0xcd
 658 0257 14       		.byte	0x14
 659 0258 10       		.uleb128 0x10
 660 0259 53485000 		.ascii	"SHP\000"
 661 025d 04       		.byte	0x4
 662 025e A901     		.2byte	0x1a9
 663 0260 2C030000 		.4byte	0x32c
 664 0264 18       		.byte	0x18
 665 0265 08       		.uleb128 0x8
 666 0266 C2040000 		.4byte	.LASF35
 667 026a 04       		.byte	0x4
 668 026b AA01     		.2byte	0x1aa
 669 026d CD000000 		.4byte	0xcd
 670 0271 24       		.byte	0x24
 671 0272 08       		.uleb128 0x8
 672 0273 DB030000 		.4byte	.LASF36
 673 0277 04       		.byte	0x4
 674 0278 AB01     		.2byte	0x1ab
 675 027a CD000000 		.4byte	0xcd
 676 027e 28       		.byte	0x28
 677 027f 08       		.uleb128 0x8
 678 0280 05080000 		.4byte	.LASF37
 679 0284 04       		.byte	0x4
 680 0285 AC01     		.2byte	0x1ac
 681 0287 CD000000 		.4byte	0xcd
 682 028b 2C       		.byte	0x2c
 683 028c 08       		.uleb128 0x8
 684 028d 46030000 		.4byte	.LASF38
 685 0291 04       		.byte	0x4
 686 0292 AD01     		.2byte	0x1ad
 687 0294 CD000000 		.4byte	0xcd
 688 0298 30       		.byte	0x30
 689 0299 08       		.uleb128 0x8
 690 029a 59030000 		.4byte	.LASF39
 691 029e 04       		.byte	0x4
 692 029f AE01     		.2byte	0x1ae
 693 02a1 CD000000 		.4byte	0xcd
 694 02a5 34       		.byte	0x34
 695 02a6 08       		.uleb128 0x8
 696 02a7 41020000 		.4byte	.LASF40
 697 02ab 04       		.byte	0x4
 698 02ac AF01     		.2byte	0x1af
 699 02ae CD000000 		.4byte	0xcd
 700 02b2 38       		.byte	0x38
ARM GAS  /tmp/ccMB938d.s 			page 15


 701 02b3 08       		.uleb128 0x8
 702 02b4 CD050000 		.4byte	.LASF41
 703 02b8 04       		.byte	0x4
 704 02b9 B001     		.2byte	0x1b0
 705 02bb CD000000 		.4byte	0xcd
 706 02bf 3C       		.byte	0x3c
 707 02c0 10       		.uleb128 0x10
 708 02c1 50465200 		.ascii	"PFR\000"
 709 02c5 04       		.byte	0x4
 710 02c6 B101     		.2byte	0x1b1
 711 02c8 46030000 		.4byte	0x346
 712 02cc 40       		.byte	0x40
 713 02cd 10       		.uleb128 0x10
 714 02ce 44465200 		.ascii	"DFR\000"
 715 02d2 04       		.byte	0x4
 716 02d3 B201     		.2byte	0x1b2
 717 02d5 D2000000 		.4byte	0xd2
 718 02d9 48       		.byte	0x48
 719 02da 10       		.uleb128 0x10
 720 02db 41445200 		.ascii	"ADR\000"
 721 02df 04       		.byte	0x4
 722 02e0 B301     		.2byte	0x1b3
 723 02e2 D2000000 		.4byte	0xd2
 724 02e6 4C       		.byte	0x4c
 725 02e7 08       		.uleb128 0x8
 726 02e8 6A030000 		.4byte	.LASF42
 727 02ec 04       		.byte	0x4
 728 02ed B401     		.2byte	0x1b4
 729 02ef 60030000 		.4byte	0x360
 730 02f3 50       		.byte	0x50
 731 02f4 08       		.uleb128 0x8
 732 02f5 0C010000 		.4byte	.LASF43
 733 02f9 04       		.byte	0x4
 734 02fa B501     		.2byte	0x1b5
 735 02fc 7A030000 		.4byte	0x37a
 736 0300 60       		.byte	0x60
 737 0301 08       		.uleb128 0x8
 738 0302 7A040000 		.4byte	.LASF18
 739 0306 04       		.byte	0x4
 740 0307 B601     		.2byte	0x1b6
 741 0309 7F030000 		.4byte	0x37f
 742 030d 74       		.byte	0x74
 743 030e 08       		.uleb128 0x8
 744 030f FF070000 		.4byte	.LASF44
 745 0313 04       		.byte	0x4
 746 0314 B701     		.2byte	0x1b7
 747 0316 CD000000 		.4byte	0xcd
 748 031a 88       		.byte	0x88
 749 031b 00       		.byte	0
 750 031c 0B       		.uleb128 0xb
 751 031d A2000000 		.4byte	0xa2
 752 0321 2C030000 		.4byte	0x32c
 753 0325 0C       		.uleb128 0xc
 754 0326 A8010000 		.4byte	0x1a8
 755 032a 0B       		.byte	0xb
 756 032b 00       		.byte	0
 757 032c 05       		.uleb128 0x5
ARM GAS  /tmp/ccMB938d.s 			page 16


 758 032d 1C030000 		.4byte	0x31c
 759 0331 0B       		.uleb128 0xb
 760 0332 D2000000 		.4byte	0xd2
 761 0336 41030000 		.4byte	0x341
 762 033a 0C       		.uleb128 0xc
 763 033b A8010000 		.4byte	0x1a8
 764 033f 01       		.byte	0x1
 765 0340 00       		.byte	0
 766 0341 06       		.uleb128 0x6
 767 0342 31030000 		.4byte	0x331
 768 0346 05       		.uleb128 0x5
 769 0347 41030000 		.4byte	0x341
 770 034b 0B       		.uleb128 0xb
 771 034c D2000000 		.4byte	0xd2
 772 0350 5B030000 		.4byte	0x35b
 773 0354 0C       		.uleb128 0xc
 774 0355 A8010000 		.4byte	0x1a8
 775 0359 03       		.byte	0x3
 776 035a 00       		.byte	0
 777 035b 06       		.uleb128 0x6
 778 035c 4B030000 		.4byte	0x34b
 779 0360 05       		.uleb128 0x5
 780 0361 5B030000 		.4byte	0x35b
 781 0365 0B       		.uleb128 0xb
 782 0366 D2000000 		.4byte	0xd2
 783 036a 75030000 		.4byte	0x375
 784 036e 0C       		.uleb128 0xc
 785 036f A8010000 		.4byte	0x1a8
 786 0373 04       		.byte	0x4
 787 0374 00       		.byte	0
 788 0375 06       		.uleb128 0x6
 789 0376 65030000 		.4byte	0x365
 790 037a 05       		.uleb128 0x5
 791 037b 75030000 		.4byte	0x375
 792 037f 0B       		.uleb128 0xb
 793 0380 C2000000 		.4byte	0xc2
 794 0384 8F030000 		.4byte	0x38f
 795 0388 0C       		.uleb128 0xc
 796 0389 A8010000 		.4byte	0x1a8
 797 038d 04       		.byte	0x4
 798 038e 00       		.byte	0
 799 038f 0E       		.uleb128 0xe
 800 0390 69020000 		.4byte	.LASF45
 801 0394 04       		.byte	0x4
 802 0395 B801     		.2byte	0x1b8
 803 0397 01020000 		.4byte	0x201
 804 039b 0F       		.uleb128 0xf
 805 039c 10       		.byte	0x10
 806 039d 04       		.byte	0x4
 807 039e AB02     		.2byte	0x2ab
 808 03a0 D9030000 		.4byte	0x3d9
 809 03a4 08       		.uleb128 0x8
 810 03a5 CF060000 		.4byte	.LASF46
 811 03a9 04       		.byte	0x4
 812 03aa AD02     		.2byte	0x2ad
 813 03ac CD000000 		.4byte	0xcd
 814 03b0 00       		.byte	0
ARM GAS  /tmp/ccMB938d.s 			page 17


 815 03b1 08       		.uleb128 0x8
 816 03b2 D6030000 		.4byte	.LASF47
 817 03b6 04       		.byte	0x4
 818 03b7 AE02     		.2byte	0x2ae
 819 03b9 CD000000 		.4byte	0xcd
 820 03bd 04       		.byte	0x4
 821 03be 10       		.uleb128 0x10
 822 03bf 56414C00 		.ascii	"VAL\000"
 823 03c3 04       		.byte	0x4
 824 03c4 AF02     		.2byte	0x2af
 825 03c6 CD000000 		.4byte	0xcd
 826 03ca 08       		.byte	0x8
 827 03cb 08       		.uleb128 0x8
 828 03cc 0A070000 		.4byte	.LASF48
 829 03d0 04       		.byte	0x4
 830 03d1 B002     		.2byte	0x2b0
 831 03d3 D2000000 		.4byte	0xd2
 832 03d7 0C       		.byte	0xc
 833 03d8 00       		.byte	0
 834 03d9 0E       		.uleb128 0xe
 835 03da 46020000 		.4byte	.LASF49
 836 03de 04       		.byte	0x4
 837 03df B102     		.2byte	0x2b1
 838 03e1 9B030000 		.4byte	0x39b
 839 03e5 11       		.uleb128 0x11
 840 03e6 C8040000 		.4byte	.LASF50
 841 03ea 04       		.byte	0x4
 842 03eb 9606     		.2byte	0x696
 843 03ed BD000000 		.4byte	0xbd
 844 03f1 12       		.uleb128 0x12
 845 03f2 BD020000 		.4byte	.LASF51
 846 03f6 05       		.byte	0x5
 847 03f7 35       		.byte	0x35
 848 03f8 C2000000 		.4byte	0xc2
 849 03fc 13       		.uleb128 0x13
 850 03fd 01       		.byte	0x1
 851 03fe 37000000 		.4byte	0x37
 852 0402 06       		.byte	0x6
 853 0403 9201     		.2byte	0x192
 854 0405 16040000 		.4byte	0x416
 855 0409 14       		.uleb128 0x14
 856 040a 68050000 		.4byte	.LASF52
 857 040e 00       		.byte	0
 858 040f 14       		.uleb128 0x14
 859 0410 EA010000 		.4byte	.LASF53
 860 0414 01       		.byte	0x1
 861 0415 00       		.byte	0
 862 0416 0E       		.uleb128 0xe
 863 0417 0B040000 		.4byte	.LASF54
 864 041b 06       		.byte	0x6
 865 041c 9201     		.2byte	0x192
 866 041e FC030000 		.4byte	0x3fc
 867 0422 15       		.uleb128 0x15
 868 0423 04       		.byte	0x4
 869 0424 07       		.byte	0x7
 870 0425 08       		.byte	0x8
 871 0426 5B040000 		.4byte	0x45b
ARM GAS  /tmp/ccMB938d.s 			page 18


 872 042a 16       		.uleb128 0x16
 873 042b 6F030000 		.4byte	.LASF55
 874 042f 07       		.byte	0x7
 875 0430 0A       		.byte	0xa
 876 0431 97000000 		.4byte	0x97
 877 0435 00       		.byte	0
 878 0436 16       		.uleb128 0x16
 879 0437 7F030000 		.4byte	.LASF56
 880 043b 07       		.byte	0x7
 881 043c 0F       		.byte	0xf
 882 043d 97000000 		.4byte	0x97
 883 0441 01       		.byte	0x1
 884 0442 16       		.uleb128 0x16
 885 0443 AC050000 		.4byte	.LASF57
 886 0447 07       		.byte	0x7
 887 0448 13       		.byte	0x13
 888 0449 97000000 		.4byte	0x97
 889 044d 02       		.byte	0x2
 890 044e 16       		.uleb128 0x16
 891 044f 1A000000 		.4byte	.LASF58
 892 0453 07       		.byte	0x7
 893 0454 17       		.byte	0x17
 894 0455 16040000 		.4byte	0x416
 895 0459 03       		.byte	0x3
 896 045a 00       		.byte	0
 897 045b 03       		.uleb128 0x3
 898 045c 30080000 		.4byte	.LASF59
 899 0460 07       		.byte	0x7
 900 0461 1A       		.byte	0x1a
 901 0462 22040000 		.4byte	0x422
 902 0466 17       		.uleb128 0x17
 903 0467 18       		.uleb128 0x18
 904 0468 04       		.byte	0x4
 905 0469 66040000 		.4byte	0x466
 906 046d 0B       		.uleb128 0xb
 907 046e 49000000 		.4byte	0x49
 908 0472 7D040000 		.4byte	0x47d
 909 0476 0C       		.uleb128 0xc
 910 0477 A8010000 		.4byte	0x1a8
 911 047b 02       		.byte	0x2
 912 047c 00       		.byte	0
 913 047d 11       		.uleb128 0x11
 914 047e D4000000 		.4byte	.LASF60
 915 0482 08       		.byte	0x8
 916 0483 6301     		.2byte	0x163
 917 0485 6D040000 		.4byte	0x46d
 918 0489 11       		.uleb128 0x11
 919 048a FB030000 		.4byte	.LASF61
 920 048e 08       		.byte	0x8
 921 048f 6301     		.2byte	0x163
 922 0491 6D040000 		.4byte	0x46d
 923 0495 11       		.uleb128 0x11
 924 0496 3E010000 		.4byte	.LASF62
 925 049a 08       		.byte	0x8
 926 049b 6401     		.2byte	0x164
 927 049d A7000000 		.4byte	0xa7
 928 04a1 11       		.uleb128 0x11
ARM GAS  /tmp/ccMB938d.s 			page 19


 929 04a2 E5030000 		.4byte	.LASF63
 930 04a6 08       		.byte	0x8
 931 04a7 6401     		.2byte	0x164
 932 04a9 A7000000 		.4byte	0xa7
 933 04ad 11       		.uleb128 0x11
 934 04ae 01040000 		.4byte	.LASF64
 935 04b2 08       		.byte	0x8
 936 04b3 6401     		.2byte	0x164
 937 04b5 A7000000 		.4byte	0xa7
 938 04b9 11       		.uleb128 0x11
 939 04ba 6B010000 		.4byte	.LASF65
 940 04be 08       		.byte	0x8
 941 04bf 6501     		.2byte	0x165
 942 04c1 C5040000 		.4byte	0x4c5
 943 04c5 02       		.uleb128 0x2
 944 04c6 04       		.byte	0x4
 945 04c7 04       		.byte	0x4
 946 04c8 64040000 		.4byte	.LASF66
 947 04cc 11       		.uleb128 0x11
 948 04cd 74040000 		.4byte	.LASF67
 949 04d1 08       		.byte	0x8
 950 04d2 6601     		.2byte	0x166
 951 04d4 C5040000 		.4byte	0x4c5
 952 04d8 11       		.uleb128 0x11
 953 04d9 43060000 		.4byte	.LASF68
 954 04dd 08       		.byte	0x8
 955 04de 6601     		.2byte	0x166
 956 04e0 C5040000 		.4byte	0x4c5
 957 04e4 19       		.uleb128 0x19
 958 04e5 59617700 		.ascii	"Yaw\000"
 959 04e9 08       		.byte	0x8
 960 04ea 6601     		.2byte	0x166
 961 04ec C5040000 		.4byte	0x4c5
 962 04f0 02       		.uleb128 0x2
 963 04f1 08       		.byte	0x8
 964 04f2 04       		.byte	0x4
 965 04f3 E4050000 		.4byte	.LASF69
 966 04f7 03       		.uleb128 0x3
 967 04f8 BB030000 		.4byte	.LASF70
 968 04fc 09       		.byte	0x9
 969 04fd 07       		.byte	0x7
 970 04fe 89000000 		.4byte	0x89
 971 0502 03       		.uleb128 0x3
 972 0503 6A000000 		.4byte	.LASF71
 973 0507 0A       		.byte	0xa
 974 0508 2C       		.byte	0x2c
 975 0509 62000000 		.4byte	0x62
 976 050d 03       		.uleb128 0x3
 977 050e DC050000 		.4byte	.LASF72
 978 0512 0A       		.byte	0xa
 979 0513 72       		.byte	0x72
 980 0514 62000000 		.4byte	0x62
 981 0518 0E       		.uleb128 0xe
 982 0519 4B040000 		.4byte	.LASF73
 983 051d 0B       		.byte	0xb
 984 051e 6501     		.2byte	0x165
 985 0520 90000000 		.4byte	0x90
ARM GAS  /tmp/ccMB938d.s 			page 20


 986 0524 1A       		.uleb128 0x1a
 987 0525 04       		.byte	0x4
 988 0526 0A       		.byte	0xa
 989 0527 A6       		.byte	0xa6
 990 0528 43050000 		.4byte	0x543
 991 052c 1B       		.uleb128 0x1b
 992 052d 53030000 		.4byte	.LASF74
 993 0531 0A       		.byte	0xa
 994 0532 A8       		.byte	0xa8
 995 0533 18050000 		.4byte	0x518
 996 0537 1B       		.uleb128 0x1b
 997 0538 B6020000 		.4byte	.LASF75
 998 053c 0A       		.byte	0xa
 999 053d A9       		.byte	0xa9
 1000 053e 43050000 		.4byte	0x543
 1001 0542 00       		.byte	0
 1002 0543 0B       		.uleb128 0xb
 1003 0544 37000000 		.4byte	0x37
 1004 0548 53050000 		.4byte	0x553
 1005 054c 0C       		.uleb128 0xc
 1006 054d A8010000 		.4byte	0x1a8
 1007 0551 03       		.byte	0x3
 1008 0552 00       		.byte	0
 1009 0553 15       		.uleb128 0x15
 1010 0554 08       		.byte	0x8
 1011 0555 0A       		.byte	0xa
 1012 0556 A3       		.byte	0xa3
 1013 0557 74050000 		.4byte	0x574
 1014 055b 16       		.uleb128 0x16
 1015 055c 8F050000 		.4byte	.LASF76
 1016 0560 0A       		.byte	0xa
 1017 0561 A5       		.byte	0xa5
 1018 0562 89000000 		.4byte	0x89
 1019 0566 00       		.byte	0
 1020 0567 16       		.uleb128 0x16
 1021 0568 A4050000 		.4byte	.LASF77
 1022 056c 0A       		.byte	0xa
 1023 056d AA       		.byte	0xaa
 1024 056e 24050000 		.4byte	0x524
 1025 0572 04       		.byte	0x4
 1026 0573 00       		.byte	0
 1027 0574 03       		.uleb128 0x3
 1028 0575 17050000 		.4byte	.LASF78
 1029 0579 0A       		.byte	0xa
 1030 057a AB       		.byte	0xab
 1031 057b 53050000 		.4byte	0x553
 1032 057f 03       		.uleb128 0x3
 1033 0580 DE040000 		.4byte	.LASF79
 1034 0584 0A       		.byte	0xa
 1035 0585 AF       		.byte	0xaf
 1036 0586 F7040000 		.4byte	0x4f7
 1037 058a 1C       		.uleb128 0x1c
 1038 058b 04       		.byte	0x4
 1039 058c 18       		.uleb128 0x18
 1040 058d 04       		.byte	0x4
 1041 058e 92050000 		.4byte	0x592
 1042 0592 02       		.uleb128 0x2
ARM GAS  /tmp/ccMB938d.s 			page 21


 1043 0593 01       		.byte	0x1
 1044 0594 08       		.byte	0x8
 1045 0595 F7050000 		.4byte	.LASF80
 1046 0599 06       		.uleb128 0x6
 1047 059a 92050000 		.4byte	0x592
 1048 059e 03       		.uleb128 0x3
 1049 059f BA060000 		.4byte	.LASF81
 1050 05a3 0C       		.byte	0xc
 1051 05a4 16       		.byte	0x16
 1052 05a5 74000000 		.4byte	0x74
 1053 05a9 1D       		.uleb128 0x1d
 1054 05aa 86020000 		.4byte	.LASF86
 1055 05ae 18       		.byte	0x18
 1056 05af 0C       		.byte	0xc
 1057 05b0 2D       		.byte	0x2d
 1058 05b1 FC050000 		.4byte	0x5fc
 1059 05b5 16       		.uleb128 0x16
 1060 05b6 48060000 		.4byte	.LASF82
 1061 05ba 0C       		.byte	0xc
 1062 05bb 2F       		.byte	0x2f
 1063 05bc FC050000 		.4byte	0x5fc
 1064 05c0 00       		.byte	0
 1065 05c1 1E       		.uleb128 0x1e
 1066 05c2 5F6B00   		.ascii	"_k\000"
 1067 05c5 0C       		.byte	0xc
 1068 05c6 30       		.byte	0x30
 1069 05c7 89000000 		.4byte	0x89
 1070 05cb 04       		.byte	0x4
 1071 05cc 16       		.uleb128 0x16
 1072 05cd 7A050000 		.4byte	.LASF83
 1073 05d1 0C       		.byte	0xc
 1074 05d2 30       		.byte	0x30
 1075 05d3 89000000 		.4byte	0x89
 1076 05d7 08       		.byte	0x8
 1077 05d8 16       		.uleb128 0x16
 1078 05d9 63020000 		.4byte	.LASF84
 1079 05dd 0C       		.byte	0xc
 1080 05de 30       		.byte	0x30
 1081 05df 89000000 		.4byte	0x89
 1082 05e3 0C       		.byte	0xc
 1083 05e4 16       		.uleb128 0x16
 1084 05e5 1D070000 		.4byte	.LASF85
 1085 05e9 0C       		.byte	0xc
 1086 05ea 30       		.byte	0x30
 1087 05eb 89000000 		.4byte	0x89
 1088 05ef 10       		.byte	0x10
 1089 05f0 1E       		.uleb128 0x1e
 1090 05f1 5F7800   		.ascii	"_x\000"
 1091 05f4 0C       		.byte	0xc
 1092 05f5 31       		.byte	0x31
 1093 05f6 02060000 		.4byte	0x602
 1094 05fa 14       		.byte	0x14
 1095 05fb 00       		.byte	0
 1096 05fc 18       		.uleb128 0x18
 1097 05fd 04       		.byte	0x4
 1098 05fe A9050000 		.4byte	0x5a9
 1099 0602 0B       		.uleb128 0xb
ARM GAS  /tmp/ccMB938d.s 			page 22


 1100 0603 9E050000 		.4byte	0x59e
 1101 0607 12060000 		.4byte	0x612
 1102 060b 0C       		.uleb128 0xc
 1103 060c A8010000 		.4byte	0x1a8
 1104 0610 00       		.byte	0
 1105 0611 00       		.byte	0
 1106 0612 1D       		.uleb128 0x1d
 1107 0613 B1020000 		.4byte	.LASF87
 1108 0617 24       		.byte	0x24
 1109 0618 0C       		.byte	0xc
 1110 0619 35       		.byte	0x35
 1111 061a 8B060000 		.4byte	0x68b
 1112 061e 16       		.uleb128 0x16
 1113 061f FB000000 		.4byte	.LASF88
 1114 0623 0C       		.byte	0xc
 1115 0624 37       		.byte	0x37
 1116 0625 89000000 		.4byte	0x89
 1117 0629 00       		.byte	0
 1118 062a 16       		.uleb128 0x16
 1119 062b C5070000 		.4byte	.LASF89
 1120 062f 0C       		.byte	0xc
 1121 0630 38       		.byte	0x38
 1122 0631 89000000 		.4byte	0x89
 1123 0635 04       		.byte	0x4
 1124 0636 16       		.uleb128 0x16
 1125 0637 4E010000 		.4byte	.LASF90
 1126 063b 0C       		.byte	0xc
 1127 063c 39       		.byte	0x39
 1128 063d 89000000 		.4byte	0x89
 1129 0641 08       		.byte	0x8
 1130 0642 16       		.uleb128 0x16
 1131 0643 26080000 		.4byte	.LASF91
 1132 0647 0C       		.byte	0xc
 1133 0648 3A       		.byte	0x3a
 1134 0649 89000000 		.4byte	0x89
 1135 064d 0C       		.byte	0xc
 1136 064e 16       		.uleb128 0x16
 1137 064f 1B040000 		.4byte	.LASF92
 1138 0653 0C       		.byte	0xc
 1139 0654 3B       		.byte	0x3b
 1140 0655 89000000 		.4byte	0x89
 1141 0659 10       		.byte	0x10
 1142 065a 16       		.uleb128 0x16
 1143 065b A8030000 		.4byte	.LASF93
 1144 065f 0C       		.byte	0xc
 1145 0660 3C       		.byte	0x3c
 1146 0661 89000000 		.4byte	0x89
 1147 0665 14       		.byte	0x14
 1148 0666 16       		.uleb128 0x16
 1149 0667 D2050000 		.4byte	.LASF94
 1150 066b 0C       		.byte	0xc
 1151 066c 3D       		.byte	0x3d
 1152 066d 89000000 		.4byte	0x89
 1153 0671 18       		.byte	0x18
 1154 0672 16       		.uleb128 0x16
 1155 0673 E7040000 		.4byte	.LASF95
 1156 0677 0C       		.byte	0xc
ARM GAS  /tmp/ccMB938d.s 			page 23


 1157 0678 3E       		.byte	0x3e
 1158 0679 89000000 		.4byte	0x89
 1159 067d 1C       		.byte	0x1c
 1160 067e 16       		.uleb128 0x16
 1161 067f AB070000 		.4byte	.LASF96
 1162 0683 0C       		.byte	0xc
 1163 0684 3F       		.byte	0x3f
 1164 0685 89000000 		.4byte	0x89
 1165 0689 20       		.byte	0x20
 1166 068a 00       		.byte	0
 1167 068b 1F       		.uleb128 0x1f
 1168 068c 5D010000 		.4byte	.LASF97
 1169 0690 0801     		.2byte	0x108
 1170 0692 0C       		.byte	0xc
 1171 0693 48       		.byte	0x48
 1172 0694 CB060000 		.4byte	0x6cb
 1173 0698 16       		.uleb128 0x16
 1174 0699 2D000000 		.4byte	.LASF98
 1175 069d 0C       		.byte	0xc
 1176 069e 49       		.byte	0x49
 1177 069f CB060000 		.4byte	0x6cb
 1178 06a3 00       		.byte	0
 1179 06a4 16       		.uleb128 0x16
 1180 06a5 00000000 		.4byte	.LASF99
 1181 06a9 0C       		.byte	0xc
 1182 06aa 4A       		.byte	0x4a
 1183 06ab CB060000 		.4byte	0x6cb
 1184 06af 80       		.byte	0x80
 1185 06b0 20       		.uleb128 0x20
 1186 06b1 5B060000 		.4byte	.LASF100
 1187 06b5 0C       		.byte	0xc
 1188 06b6 4C       		.byte	0x4c
 1189 06b7 9E050000 		.4byte	0x59e
 1190 06bb 0001     		.2byte	0x100
 1191 06bd 20       		.uleb128 0x20
 1192 06be C3010000 		.4byte	.LASF101
 1193 06c2 0C       		.byte	0xc
 1194 06c3 4F       		.byte	0x4f
 1195 06c4 9E050000 		.4byte	0x59e
 1196 06c8 0401     		.2byte	0x104
 1197 06ca 00       		.byte	0
 1198 06cb 0B       		.uleb128 0xb
 1199 06cc 8A050000 		.4byte	0x58a
 1200 06d0 DB060000 		.4byte	0x6db
 1201 06d4 0C       		.uleb128 0xc
 1202 06d5 A8010000 		.4byte	0x1a8
 1203 06d9 1F       		.byte	0x1f
 1204 06da 00       		.byte	0
 1205 06db 1F       		.uleb128 0x1f
 1206 06dc 29040000 		.4byte	.LASF102
 1207 06e0 9001     		.2byte	0x190
 1208 06e2 0C       		.byte	0xc
 1209 06e3 5B       		.byte	0x5b
 1210 06e4 19070000 		.4byte	0x719
 1211 06e8 16       		.uleb128 0x16
 1212 06e9 48060000 		.4byte	.LASF82
 1213 06ed 0C       		.byte	0xc
ARM GAS  /tmp/ccMB938d.s 			page 24


 1214 06ee 5C       		.byte	0x5c
 1215 06ef 19070000 		.4byte	0x719
 1216 06f3 00       		.byte	0
 1217 06f4 16       		.uleb128 0x16
 1218 06f5 63050000 		.4byte	.LASF103
 1219 06f9 0C       		.byte	0xc
 1220 06fa 5D       		.byte	0x5d
 1221 06fb 89000000 		.4byte	0x89
 1222 06ff 04       		.byte	0x4
 1223 0700 16       		.uleb128 0x16
 1224 0701 53020000 		.4byte	.LASF104
 1225 0705 0C       		.byte	0xc
 1226 0706 5F       		.byte	0x5f
 1227 0707 1F070000 		.4byte	0x71f
 1228 070b 08       		.byte	0x8
 1229 070c 16       		.uleb128 0x16
 1230 070d 5D010000 		.4byte	.LASF97
 1231 0711 0C       		.byte	0xc
 1232 0712 60       		.byte	0x60
 1233 0713 8B060000 		.4byte	0x68b
 1234 0717 88       		.byte	0x88
 1235 0718 00       		.byte	0
 1236 0719 18       		.uleb128 0x18
 1237 071a 04       		.byte	0x4
 1238 071b DB060000 		.4byte	0x6db
 1239 071f 0B       		.uleb128 0xb
 1240 0720 67040000 		.4byte	0x467
 1241 0724 2F070000 		.4byte	0x72f
 1242 0728 0C       		.uleb128 0xc
 1243 0729 A8010000 		.4byte	0x1a8
 1244 072d 1F       		.byte	0x1f
 1245 072e 00       		.byte	0
 1246 072f 1D       		.uleb128 0x1d
 1247 0730 FB040000 		.4byte	.LASF105
 1248 0734 08       		.byte	0x8
 1249 0735 0C       		.byte	0xc
 1250 0736 73       		.byte	0x73
 1251 0737 54070000 		.4byte	0x754
 1252 073b 16       		.uleb128 0x16
 1253 073c 48010000 		.4byte	.LASF106
 1254 0740 0C       		.byte	0xc
 1255 0741 74       		.byte	0x74
 1256 0742 54070000 		.4byte	0x754
 1257 0746 00       		.byte	0
 1258 0747 16       		.uleb128 0x16
 1259 0748 16060000 		.4byte	.LASF107
 1260 074c 0C       		.byte	0xc
 1261 074d 75       		.byte	0x75
 1262 074e 89000000 		.4byte	0x89
 1263 0752 04       		.byte	0x4
 1264 0753 00       		.byte	0
 1265 0754 18       		.uleb128 0x18
 1266 0755 04       		.byte	0x4
 1267 0756 37000000 		.4byte	0x37
 1268 075a 1D       		.uleb128 0x1d
 1269 075b 35050000 		.4byte	.LASF108
 1270 075f 68       		.byte	0x68
ARM GAS  /tmp/ccMB938d.s 			page 25


 1271 0760 0C       		.byte	0xc
 1272 0761 B3       		.byte	0xb3
 1273 0762 84080000 		.4byte	0x884
 1274 0766 1E       		.uleb128 0x1e
 1275 0767 5F7000   		.ascii	"_p\000"
 1276 076a 0C       		.byte	0xc
 1277 076b B4       		.byte	0xb4
 1278 076c 54070000 		.4byte	0x754
 1279 0770 00       		.byte	0
 1280 0771 1E       		.uleb128 0x1e
 1281 0772 5F7200   		.ascii	"_r\000"
 1282 0775 0C       		.byte	0xc
 1283 0776 B5       		.byte	0xb5
 1284 0777 89000000 		.4byte	0x89
 1285 077b 04       		.byte	0x4
 1286 077c 1E       		.uleb128 0x1e
 1287 077d 5F7700   		.ascii	"_w\000"
 1288 0780 0C       		.byte	0xc
 1289 0781 B6       		.byte	0xb6
 1290 0782 89000000 		.4byte	0x89
 1291 0786 08       		.byte	0x8
 1292 0787 16       		.uleb128 0x16
 1293 0788 2F070000 		.4byte	.LASF109
 1294 078c 0C       		.byte	0xc
 1295 078d B7       		.byte	0xb7
 1296 078e 49000000 		.4byte	0x49
 1297 0792 0C       		.byte	0xc
 1298 0793 16       		.uleb128 0x16
 1299 0794 FC020000 		.4byte	.LASF110
 1300 0798 0C       		.byte	0xc
 1301 0799 B8       		.byte	0xb8
 1302 079a 49000000 		.4byte	0x49
 1303 079e 0E       		.byte	0xe
 1304 079f 1E       		.uleb128 0x1e
 1305 07a0 5F626600 		.ascii	"_bf\000"
 1306 07a4 0C       		.byte	0xc
 1307 07a5 B9       		.byte	0xb9
 1308 07a6 2F070000 		.4byte	0x72f
 1309 07aa 10       		.byte	0x10
 1310 07ab 16       		.uleb128 0x16
 1311 07ac 0A080000 		.4byte	.LASF111
 1312 07b0 0C       		.byte	0xc
 1313 07b1 BA       		.byte	0xba
 1314 07b2 89000000 		.4byte	0x89
 1315 07b6 18       		.byte	0x18
 1316 07b7 16       		.uleb128 0x16
 1317 07b8 78010000 		.4byte	.LASF112
 1318 07bc 0C       		.byte	0xc
 1319 07bd C1       		.byte	0xc1
 1320 07be 8A050000 		.4byte	0x58a
 1321 07c2 1C       		.byte	0x1c
 1322 07c3 16       		.uleb128 0x16
 1323 07c4 AB020000 		.4byte	.LASF113
 1324 07c8 0C       		.byte	0xc
 1325 07c9 C3       		.byte	0xc3
 1326 07ca DF090000 		.4byte	0x9df
 1327 07ce 20       		.byte	0x20
ARM GAS  /tmp/ccMB938d.s 			page 26


 1328 07cf 16       		.uleb128 0x16
 1329 07d0 A1030000 		.4byte	.LASF114
 1330 07d4 0C       		.byte	0xc
 1331 07d5 C5       		.byte	0xc5
 1332 07d6 090A0000 		.4byte	0xa09
 1333 07da 24       		.byte	0x24
 1334 07db 16       		.uleb128 0x16
 1335 07dc C7050000 		.4byte	.LASF115
 1336 07e0 0C       		.byte	0xc
 1337 07e1 C8       		.byte	0xc8
 1338 07e2 2D0A0000 		.4byte	0xa2d
 1339 07e6 28       		.byte	0x28
 1340 07e7 16       		.uleb128 0x16
 1341 07e8 11010000 		.4byte	.LASF116
 1342 07ec 0C       		.byte	0xc
 1343 07ed C9       		.byte	0xc9
 1344 07ee 470A0000 		.4byte	0xa47
 1345 07f2 2C       		.byte	0x2c
 1346 07f3 1E       		.uleb128 0x1e
 1347 07f4 5F756200 		.ascii	"_ub\000"
 1348 07f8 0C       		.byte	0xc
 1349 07f9 CC       		.byte	0xcc
 1350 07fa 2F070000 		.4byte	0x72f
 1351 07fe 30       		.byte	0x30
 1352 07ff 1E       		.uleb128 0x1e
 1353 0800 5F757000 		.ascii	"_up\000"
 1354 0804 0C       		.byte	0xc
 1355 0805 CD       		.byte	0xcd
 1356 0806 54070000 		.4byte	0x754
 1357 080a 38       		.byte	0x38
 1358 080b 1E       		.uleb128 0x1e
 1359 080c 5F757200 		.ascii	"_ur\000"
 1360 0810 0C       		.byte	0xc
 1361 0811 CE       		.byte	0xce
 1362 0812 89000000 		.4byte	0x89
 1363 0816 3C       		.byte	0x3c
 1364 0817 16       		.uleb128 0x16
 1365 0818 38010000 		.4byte	.LASF117
 1366 081c 0C       		.byte	0xc
 1367 081d D1       		.byte	0xd1
 1368 081e 4D0A0000 		.4byte	0xa4d
 1369 0822 40       		.byte	0x40
 1370 0823 16       		.uleb128 0x16
 1371 0824 85070000 		.4byte	.LASF118
 1372 0828 0C       		.byte	0xc
 1373 0829 D2       		.byte	0xd2
 1374 082a 5D0A0000 		.4byte	0xa5d
 1375 082e 43       		.byte	0x43
 1376 082f 1E       		.uleb128 0x1e
 1377 0830 5F6C6200 		.ascii	"_lb\000"
 1378 0834 0C       		.byte	0xc
 1379 0835 D5       		.byte	0xd5
 1380 0836 2F070000 		.4byte	0x72f
 1381 083a 44       		.byte	0x44
 1382 083b 16       		.uleb128 0x16
 1383 083c A2020000 		.4byte	.LASF119
 1384 0840 0C       		.byte	0xc
ARM GAS  /tmp/ccMB938d.s 			page 27


 1385 0841 D8       		.byte	0xd8
 1386 0842 89000000 		.4byte	0x89
 1387 0846 4C       		.byte	0x4c
 1388 0847 16       		.uleb128 0x16
 1389 0848 13020000 		.4byte	.LASF120
 1390 084c 0C       		.byte	0xc
 1391 084d D9       		.byte	0xd9
 1392 084e 02050000 		.4byte	0x502
 1393 0852 50       		.byte	0x50
 1394 0853 16       		.uleb128 0x16
 1395 0854 02030000 		.4byte	.LASF121
 1396 0858 0C       		.byte	0xc
 1397 0859 DC       		.byte	0xdc
 1398 085a A2080000 		.4byte	0x8a2
 1399 085e 54       		.byte	0x54
 1400 085f 16       		.uleb128 0x16
 1401 0860 64030000 		.4byte	.LASF122
 1402 0864 0C       		.byte	0xc
 1403 0865 E0       		.byte	0xe0
 1404 0866 7F050000 		.4byte	0x57f
 1405 086a 58       		.byte	0x58
 1406 086b 16       		.uleb128 0x16
 1407 086c 3D050000 		.4byte	.LASF123
 1408 0870 0C       		.byte	0xc
 1409 0871 E2       		.byte	0xe2
 1410 0872 74050000 		.4byte	0x574
 1411 0876 5C       		.byte	0x5c
 1412 0877 16       		.uleb128 0x16
 1413 0878 02050000 		.4byte	.LASF124
 1414 087c 0C       		.byte	0xc
 1415 087d E3       		.byte	0xe3
 1416 087e 89000000 		.4byte	0x89
 1417 0882 64       		.byte	0x64
 1418 0883 00       		.byte	0
 1419 0884 21       		.uleb128 0x21
 1420 0885 89000000 		.4byte	0x89
 1421 0889 A2080000 		.4byte	0x8a2
 1422 088d 22       		.uleb128 0x22
 1423 088e A2080000 		.4byte	0x8a2
 1424 0892 22       		.uleb128 0x22
 1425 0893 8A050000 		.4byte	0x58a
 1426 0897 22       		.uleb128 0x22
 1427 0898 8C050000 		.4byte	0x58c
 1428 089c 22       		.uleb128 0x22
 1429 089d 89000000 		.4byte	0x89
 1430 08a1 00       		.byte	0
 1431 08a2 18       		.uleb128 0x18
 1432 08a3 04       		.byte	0x4
 1433 08a4 AD080000 		.4byte	0x8ad
 1434 08a8 06       		.uleb128 0x6
 1435 08a9 A2080000 		.4byte	0x8a2
 1436 08ad 23       		.uleb128 0x23
 1437 08ae 82050000 		.4byte	.LASF125
 1438 08b2 2804     		.2byte	0x428
 1439 08b4 0C       		.byte	0xc
 1440 08b5 3802     		.2byte	0x238
 1441 08b7 DF090000 		.4byte	0x9df
ARM GAS  /tmp/ccMB938d.s 			page 28


 1442 08bb 08       		.uleb128 0x8
 1443 08bc F0050000 		.4byte	.LASF126
 1444 08c0 0C       		.byte	0xc
 1445 08c1 3A02     		.2byte	0x23a
 1446 08c3 89000000 		.4byte	0x89
 1447 08c7 00       		.byte	0
 1448 08c8 08       		.uleb128 0x8
 1449 08c9 CB010000 		.4byte	.LASF127
 1450 08cd 0C       		.byte	0xc
 1451 08ce 3F02     		.2byte	0x23f
 1452 08d0 B40A0000 		.4byte	0xab4
 1453 08d4 04       		.byte	0x4
 1454 08d5 08       		.uleb128 0x8
 1455 08d6 DA020000 		.4byte	.LASF128
 1456 08da 0C       		.byte	0xc
 1457 08db 3F02     		.2byte	0x23f
 1458 08dd B40A0000 		.4byte	0xab4
 1459 08e1 08       		.byte	0x8
 1460 08e2 08       		.uleb128 0x8
 1461 08e3 7E020000 		.4byte	.LASF129
 1462 08e7 0C       		.byte	0xc
 1463 08e8 3F02     		.2byte	0x23f
 1464 08ea B40A0000 		.4byte	0xab4
 1465 08ee 0C       		.byte	0xc
 1466 08ef 08       		.uleb128 0x8
 1467 08f0 5E050000 		.4byte	.LASF130
 1468 08f4 0C       		.byte	0xc
 1469 08f5 4102     		.2byte	0x241
 1470 08f7 89000000 		.4byte	0x89
 1471 08fb 10       		.byte	0x10
 1472 08fc 08       		.uleb128 0x8
 1473 08fd 4C000000 		.4byte	.LASF131
 1474 0901 0C       		.byte	0xc
 1475 0902 4202     		.2byte	0x242
 1476 0904 960C0000 		.4byte	0xc96
 1477 0908 14       		.byte	0x14
 1478 0909 08       		.uleb128 0x8
 1479 090a F8060000 		.4byte	.LASF132
 1480 090e 0C       		.byte	0xc
 1481 090f 4402     		.2byte	0x244
 1482 0911 89000000 		.4byte	0x89
 1483 0915 30       		.byte	0x30
 1484 0916 08       		.uleb128 0x8
 1485 0917 DC070000 		.4byte	.LASF133
 1486 091b 0C       		.byte	0xc
 1487 091c 4502     		.2byte	0x245
 1488 091e 030A0000 		.4byte	0xa03
 1489 0922 34       		.byte	0x34
 1490 0923 08       		.uleb128 0x8
 1491 0924 31040000 		.4byte	.LASF134
 1492 0928 0C       		.byte	0xc
 1493 0929 4702     		.2byte	0x247
 1494 092b 89000000 		.4byte	0x89
 1495 092f 38       		.byte	0x38
 1496 0930 08       		.uleb128 0x8
 1497 0931 70050000 		.4byte	.LASF135
 1498 0935 0C       		.byte	0xc
ARM GAS  /tmp/ccMB938d.s 			page 29


 1499 0936 4902     		.2byte	0x249
 1500 0938 B10C0000 		.4byte	0xcb1
 1501 093c 3C       		.byte	0x3c
 1502 093d 08       		.uleb128 0x8
 1503 093e 4B030000 		.4byte	.LASF136
 1504 0942 0C       		.byte	0xc
 1505 0943 4C02     		.2byte	0x24c
 1506 0945 FC050000 		.4byte	0x5fc
 1507 0949 40       		.byte	0x40
 1508 094a 08       		.uleb128 0x8
 1509 094b E0010000 		.4byte	.LASF137
 1510 094f 0C       		.byte	0xc
 1511 0950 4D02     		.2byte	0x24d
 1512 0952 89000000 		.4byte	0x89
 1513 0956 44       		.byte	0x44
 1514 0957 08       		.uleb128 0x8
 1515 0958 FA070000 		.4byte	.LASF138
 1516 095c 0C       		.byte	0xc
 1517 095d 4E02     		.2byte	0x24e
 1518 095f FC050000 		.4byte	0x5fc
 1519 0963 48       		.byte	0x48
 1520 0964 08       		.uleb128 0x8
 1521 0965 6A040000 		.4byte	.LASF139
 1522 0969 0C       		.byte	0xc
 1523 096a 4F02     		.2byte	0x24f
 1524 096c B70C0000 		.4byte	0xcb7
 1525 0970 4C       		.byte	0x4c
 1526 0971 08       		.uleb128 0x8
 1527 0972 E2020000 		.4byte	.LASF140
 1528 0976 0C       		.byte	0xc
 1529 0977 5202     		.2byte	0x252
 1530 0979 89000000 		.4byte	0x89
 1531 097d 50       		.byte	0x50
 1532 097e 08       		.uleb128 0x8
 1533 097f 0B020000 		.4byte	.LASF141
 1534 0983 0C       		.byte	0xc
 1535 0984 5302     		.2byte	0x253
 1536 0986 8C050000 		.4byte	0x58c
 1537 098a 54       		.byte	0x54
 1538 098b 08       		.uleb128 0x8
 1539 098c 5F030000 		.4byte	.LASF142
 1540 0990 0C       		.byte	0xc
 1541 0991 7602     		.2byte	0x276
 1542 0993 740C0000 		.4byte	0xc74
 1543 0997 58       		.byte	0x58
 1544 0998 09       		.uleb128 0x9
 1545 0999 29040000 		.4byte	.LASF102
 1546 099d 0C       		.byte	0xc
 1547 099e 7A02     		.2byte	0x27a
 1548 09a0 19070000 		.4byte	0x719
 1549 09a4 4801     		.2byte	0x148
 1550 09a6 09       		.uleb128 0x9
 1551 09a7 61000000 		.4byte	.LASF143
 1552 09ab 0C       		.byte	0xc
 1553 09ac 7B02     		.2byte	0x27b
 1554 09ae DB060000 		.4byte	0x6db
 1555 09b2 4C01     		.2byte	0x14c
ARM GAS  /tmp/ccMB938d.s 			page 30


 1556 09b4 09       		.uleb128 0x9
 1557 09b5 14030000 		.4byte	.LASF144
 1558 09b9 0C       		.byte	0xc
 1559 09ba 7F02     		.2byte	0x27f
 1560 09bc C80C0000 		.4byte	0xcc8
 1561 09c0 DC02     		.2byte	0x2dc
 1562 09c2 09       		.uleb128 0x9
 1563 09c3 80010000 		.4byte	.LASF145
 1564 09c7 0C       		.byte	0xc
 1565 09c8 8402     		.2byte	0x284
 1566 09ca 790A0000 		.4byte	0xa79
 1567 09ce E002     		.2byte	0x2e0
 1568 09d0 09       		.uleb128 0x9
 1569 09d1 58010000 		.4byte	.LASF146
 1570 09d5 0C       		.byte	0xc
 1571 09d6 8502     		.2byte	0x285
 1572 09d8 D40C0000 		.4byte	0xcd4
 1573 09dc EC02     		.2byte	0x2ec
 1574 09de 00       		.byte	0
 1575 09df 18       		.uleb128 0x18
 1576 09e0 04       		.byte	0x4
 1577 09e1 84080000 		.4byte	0x884
 1578 09e5 21       		.uleb128 0x21
 1579 09e6 89000000 		.4byte	0x89
 1580 09ea 030A0000 		.4byte	0xa03
 1581 09ee 22       		.uleb128 0x22
 1582 09ef A2080000 		.4byte	0x8a2
 1583 09f3 22       		.uleb128 0x22
 1584 09f4 8A050000 		.4byte	0x58a
 1585 09f8 22       		.uleb128 0x22
 1586 09f9 030A0000 		.4byte	0xa03
 1587 09fd 22       		.uleb128 0x22
 1588 09fe 89000000 		.4byte	0x89
 1589 0a02 00       		.byte	0
 1590 0a03 18       		.uleb128 0x18
 1591 0a04 04       		.byte	0x4
 1592 0a05 99050000 		.4byte	0x599
 1593 0a09 18       		.uleb128 0x18
 1594 0a0a 04       		.byte	0x4
 1595 0a0b E5090000 		.4byte	0x9e5
 1596 0a0f 21       		.uleb128 0x21
 1597 0a10 0D050000 		.4byte	0x50d
 1598 0a14 2D0A0000 		.4byte	0xa2d
 1599 0a18 22       		.uleb128 0x22
 1600 0a19 A2080000 		.4byte	0x8a2
 1601 0a1d 22       		.uleb128 0x22
 1602 0a1e 8A050000 		.4byte	0x58a
 1603 0a22 22       		.uleb128 0x22
 1604 0a23 0D050000 		.4byte	0x50d
 1605 0a27 22       		.uleb128 0x22
 1606 0a28 89000000 		.4byte	0x89
 1607 0a2c 00       		.byte	0
 1608 0a2d 18       		.uleb128 0x18
 1609 0a2e 04       		.byte	0x4
 1610 0a2f 0F0A0000 		.4byte	0xa0f
 1611 0a33 21       		.uleb128 0x21
 1612 0a34 89000000 		.4byte	0x89
ARM GAS  /tmp/ccMB938d.s 			page 31


 1613 0a38 470A0000 		.4byte	0xa47
 1614 0a3c 22       		.uleb128 0x22
 1615 0a3d A2080000 		.4byte	0x8a2
 1616 0a41 22       		.uleb128 0x22
 1617 0a42 8A050000 		.4byte	0x58a
 1618 0a46 00       		.byte	0
 1619 0a47 18       		.uleb128 0x18
 1620 0a48 04       		.byte	0x4
 1621 0a49 330A0000 		.4byte	0xa33
 1622 0a4d 0B       		.uleb128 0xb
 1623 0a4e 37000000 		.4byte	0x37
 1624 0a52 5D0A0000 		.4byte	0xa5d
 1625 0a56 0C       		.uleb128 0xc
 1626 0a57 A8010000 		.4byte	0x1a8
 1627 0a5b 02       		.byte	0x2
 1628 0a5c 00       		.byte	0
 1629 0a5d 0B       		.uleb128 0xb
 1630 0a5e 37000000 		.4byte	0x37
 1631 0a62 6D0A0000 		.4byte	0xa6d
 1632 0a66 0C       		.uleb128 0xc
 1633 0a67 A8010000 		.4byte	0x1a8
 1634 0a6b 00       		.byte	0
 1635 0a6c 00       		.byte	0
 1636 0a6d 0E       		.uleb128 0xe
 1637 0a6e 10050000 		.4byte	.LASF147
 1638 0a72 0C       		.byte	0xc
 1639 0a73 1D01     		.2byte	0x11d
 1640 0a75 5A070000 		.4byte	0x75a
 1641 0a79 24       		.uleb128 0x24
 1642 0a7a 22070000 		.4byte	.LASF148
 1643 0a7e 0C       		.byte	0xc
 1644 0a7f 0C       		.byte	0xc
 1645 0a80 2101     		.2byte	0x121
 1646 0a82 AE0A0000 		.4byte	0xaae
 1647 0a86 08       		.uleb128 0x8
 1648 0a87 48060000 		.4byte	.LASF82
 1649 0a8b 0C       		.byte	0xc
 1650 0a8c 2301     		.2byte	0x123
 1651 0a8e AE0A0000 		.4byte	0xaae
 1652 0a92 00       		.byte	0
 1653 0a93 08       		.uleb128 0x8
 1654 0a94 0D030000 		.4byte	.LASF149
 1655 0a98 0C       		.byte	0xc
 1656 0a99 2401     		.2byte	0x124
 1657 0a9b 89000000 		.4byte	0x89
 1658 0a9f 04       		.byte	0x4
 1659 0aa0 08       		.uleb128 0x8
 1660 0aa1 0A050000 		.4byte	.LASF150
 1661 0aa5 0C       		.byte	0xc
 1662 0aa6 2501     		.2byte	0x125
 1663 0aa8 B40A0000 		.4byte	0xab4
 1664 0aac 08       		.byte	0x8
 1665 0aad 00       		.byte	0
 1666 0aae 18       		.uleb128 0x18
 1667 0aaf 04       		.byte	0x4
 1668 0ab0 790A0000 		.4byte	0xa79
 1669 0ab4 18       		.uleb128 0x18
ARM GAS  /tmp/ccMB938d.s 			page 32


 1670 0ab5 04       		.byte	0x4
 1671 0ab6 6D0A0000 		.4byte	0xa6d
 1672 0aba 24       		.uleb128 0x24
 1673 0abb 35000000 		.4byte	.LASF151
 1674 0abf 0E       		.byte	0xe
 1675 0ac0 0C       		.byte	0xc
 1676 0ac1 3D01     		.2byte	0x13d
 1677 0ac3 EF0A0000 		.4byte	0xaef
 1678 0ac7 08       		.uleb128 0x8
 1679 0ac8 89050000 		.4byte	.LASF152
 1680 0acc 0C       		.byte	0xc
 1681 0acd 3E01     		.2byte	0x13e
 1682 0acf EF0A0000 		.4byte	0xaef
 1683 0ad3 00       		.byte	0
 1684 0ad4 08       		.uleb128 0x8
 1685 0ad5 3D060000 		.4byte	.LASF153
 1686 0ad9 0C       		.byte	0xc
 1687 0ada 3F01     		.2byte	0x13f
 1688 0adc EF0A0000 		.4byte	0xaef
 1689 0ae0 06       		.byte	0x6
 1690 0ae1 08       		.uleb128 0x8
 1691 0ae2 B5060000 		.4byte	.LASF154
 1692 0ae6 0C       		.byte	0xc
 1693 0ae7 4001     		.2byte	0x140
 1694 0ae9 50000000 		.4byte	0x50
 1695 0aed 0C       		.byte	0xc
 1696 0aee 00       		.byte	0
 1697 0aef 0B       		.uleb128 0xb
 1698 0af0 50000000 		.4byte	0x50
 1699 0af4 FF0A0000 		.4byte	0xaff
 1700 0af8 0C       		.uleb128 0xc
 1701 0af9 A8010000 		.4byte	0x1a8
 1702 0afd 02       		.byte	0x2
 1703 0afe 00       		.byte	0
 1704 0aff 0F       		.uleb128 0xf
 1705 0b00 D0       		.byte	0xd0
 1706 0b01 0C       		.byte	0xc
 1707 0b02 5702     		.2byte	0x257
 1708 0b04 000C0000 		.4byte	0xc00
 1709 0b08 08       		.uleb128 0x8
 1710 0b09 10070000 		.4byte	.LASF155
 1711 0b0d 0C       		.byte	0xc
 1712 0b0e 5902     		.2byte	0x259
 1713 0b10 90000000 		.4byte	0x90
 1714 0b14 00       		.byte	0
 1715 0b15 08       		.uleb128 0x8
 1716 0b16 4E060000 		.4byte	.LASF156
 1717 0b1a 0C       		.byte	0xc
 1718 0b1b 5A02     		.2byte	0x25a
 1719 0b1d 8C050000 		.4byte	0x58c
 1720 0b21 04       		.byte	0x4
 1721 0b22 08       		.uleb128 0x8
 1722 0b23 33030000 		.4byte	.LASF157
 1723 0b27 0C       		.byte	0xc
 1724 0b28 5B02     		.2byte	0x25b
 1725 0b2a 000C0000 		.4byte	0xc00
 1726 0b2e 08       		.byte	0x8
ARM GAS  /tmp/ccMB938d.s 			page 33


 1727 0b2f 08       		.uleb128 0x8
 1728 0b30 B6070000 		.4byte	.LASF158
 1729 0b34 0C       		.byte	0xc
 1730 0b35 5C02     		.2byte	0x25c
 1731 0b37 12060000 		.4byte	0x612
 1732 0b3b 24       		.byte	0x24
 1733 0b3c 08       		.uleb128 0x8
 1734 0b3d 3C040000 		.4byte	.LASF159
 1735 0b41 0C       		.byte	0xc
 1736 0b42 5D02     		.2byte	0x25d
 1737 0b44 89000000 		.4byte	0x89
 1738 0b48 48       		.byte	0x48
 1739 0b49 08       		.uleb128 0x8
 1740 0b4a 46050000 		.4byte	.LASF160
 1741 0b4e 0C       		.byte	0xc
 1742 0b4f 5E02     		.2byte	0x25e
 1743 0b51 82000000 		.4byte	0x82
 1744 0b55 50       		.byte	0x50
 1745 0b56 08       		.uleb128 0x8
 1746 0b57 F6030000 		.4byte	.LASF161
 1747 0b5b 0C       		.byte	0xc
 1748 0b5c 5F02     		.2byte	0x25f
 1749 0b5e BA0A0000 		.4byte	0xaba
 1750 0b62 58       		.byte	0x58
 1751 0b63 08       		.uleb128 0x8
 1752 0b64 51050000 		.4byte	.LASF162
 1753 0b68 0C       		.byte	0xc
 1754 0b69 6002     		.2byte	0x260
 1755 0b6b 74050000 		.4byte	0x574
 1756 0b6f 68       		.byte	0x68
 1757 0b70 08       		.uleb128 0x8
 1758 0b71 EC070000 		.4byte	.LASF163
 1759 0b75 0C       		.byte	0xc
 1760 0b76 6102     		.2byte	0x261
 1761 0b78 74050000 		.4byte	0x574
 1762 0b7c 70       		.byte	0x70
 1763 0b7d 08       		.uleb128 0x8
 1764 0b7e ED000000 		.4byte	.LASF164
 1765 0b82 0C       		.byte	0xc
 1766 0b83 6202     		.2byte	0x262
 1767 0b85 74050000 		.4byte	0x574
 1768 0b89 78       		.byte	0x78
 1769 0b8a 08       		.uleb128 0x8
 1770 0b8b 3E070000 		.4byte	.LASF165
 1771 0b8f 0C       		.byte	0xc
 1772 0b90 6302     		.2byte	0x263
 1773 0b92 100C0000 		.4byte	0xc10
 1774 0b96 80       		.byte	0x80
 1775 0b97 08       		.uleb128 0x8
 1776 0b98 FC050000 		.4byte	.LASF166
 1777 0b9c 0C       		.byte	0xc
 1778 0b9d 6402     		.2byte	0x264
 1779 0b9f 200C0000 		.4byte	0xc20
 1780 0ba3 88       		.byte	0x88
 1781 0ba4 08       		.uleb128 0x8
 1782 0ba5 C2060000 		.4byte	.LASF167
 1783 0ba9 0C       		.byte	0xc
ARM GAS  /tmp/ccMB938d.s 			page 34


 1784 0baa 6502     		.2byte	0x265
 1785 0bac 89000000 		.4byte	0x89
 1786 0bb0 A0       		.byte	0xa0
 1787 0bb1 08       		.uleb128 0x8
 1788 0bb2 33020000 		.4byte	.LASF168
 1789 0bb6 0C       		.byte	0xc
 1790 0bb7 6602     		.2byte	0x266
 1791 0bb9 74050000 		.4byte	0x574
 1792 0bbd A4       		.byte	0xa4
 1793 0bbe 08       		.uleb128 0x8
 1794 0bbf D9000000 		.4byte	.LASF169
 1795 0bc3 0C       		.byte	0xc
 1796 0bc4 6702     		.2byte	0x267
 1797 0bc6 74050000 		.4byte	0x574
 1798 0bca AC       		.byte	0xac
 1799 0bcb 08       		.uleb128 0x8
 1800 0bcc 22020000 		.4byte	.LASF170
 1801 0bd0 0C       		.byte	0xc
 1802 0bd1 6802     		.2byte	0x268
 1803 0bd3 74050000 		.4byte	0x574
 1804 0bd7 B4       		.byte	0xb4
 1805 0bd8 08       		.uleb128 0x8
 1806 0bd9 71000000 		.4byte	.LASF171
 1807 0bdd 0C       		.byte	0xc
 1808 0bde 6902     		.2byte	0x269
 1809 0be0 74050000 		.4byte	0x574
 1810 0be4 BC       		.byte	0xbc
 1811 0be5 08       		.uleb128 0x8
 1812 0be6 80000000 		.4byte	.LASF172
 1813 0bea 0C       		.byte	0xc
 1814 0beb 6A02     		.2byte	0x26a
 1815 0bed 74050000 		.4byte	0x574
 1816 0bf1 C4       		.byte	0xc4
 1817 0bf2 08       		.uleb128 0x8
 1818 0bf3 D5040000 		.4byte	.LASF173
 1819 0bf7 0C       		.byte	0xc
 1820 0bf8 6B02     		.2byte	0x26b
 1821 0bfa 89000000 		.4byte	0x89
 1822 0bfe CC       		.byte	0xcc
 1823 0bff 00       		.byte	0
 1824 0c00 0B       		.uleb128 0xb
 1825 0c01 92050000 		.4byte	0x592
 1826 0c05 100C0000 		.4byte	0xc10
 1827 0c09 0C       		.uleb128 0xc
 1828 0c0a A8010000 		.4byte	0x1a8
 1829 0c0e 19       		.byte	0x19
 1830 0c0f 00       		.byte	0
 1831 0c10 0B       		.uleb128 0xb
 1832 0c11 92050000 		.4byte	0x592
 1833 0c15 200C0000 		.4byte	0xc20
 1834 0c19 0C       		.uleb128 0xc
 1835 0c1a A8010000 		.4byte	0x1a8
 1836 0c1e 07       		.byte	0x7
 1837 0c1f 00       		.byte	0
 1838 0c20 0B       		.uleb128 0xb
 1839 0c21 92050000 		.4byte	0x592
 1840 0c25 300C0000 		.4byte	0xc30
ARM GAS  /tmp/ccMB938d.s 			page 35


 1841 0c29 0C       		.uleb128 0xc
 1842 0c2a A8010000 		.4byte	0x1a8
 1843 0c2e 17       		.byte	0x17
 1844 0c2f 00       		.byte	0
 1845 0c30 0F       		.uleb128 0xf
 1846 0c31 F0       		.byte	0xf0
 1847 0c32 0C       		.byte	0xc
 1848 0c33 7002     		.2byte	0x270
 1849 0c35 540C0000 		.4byte	0xc54
 1850 0c39 08       		.uleb128 0x8
 1851 0c3a EF030000 		.4byte	.LASF174
 1852 0c3e 0C       		.byte	0xc
 1853 0c3f 7302     		.2byte	0x273
 1854 0c41 540C0000 		.4byte	0xc54
 1855 0c45 00       		.byte	0
 1856 0c46 08       		.uleb128 0x8
 1857 0c47 B2030000 		.4byte	.LASF175
 1858 0c4b 0C       		.byte	0xc
 1859 0c4c 7402     		.2byte	0x274
 1860 0c4e 640C0000 		.4byte	0xc64
 1861 0c52 78       		.byte	0x78
 1862 0c53 00       		.byte	0
 1863 0c54 0B       		.uleb128 0xb
 1864 0c55 54070000 		.4byte	0x754
 1865 0c59 640C0000 		.4byte	0xc64
 1866 0c5d 0C       		.uleb128 0xc
 1867 0c5e A8010000 		.4byte	0x1a8
 1868 0c62 1D       		.byte	0x1d
 1869 0c63 00       		.byte	0
 1870 0c64 0B       		.uleb128 0xb
 1871 0c65 90000000 		.4byte	0x90
 1872 0c69 740C0000 		.4byte	0xc74
 1873 0c6d 0C       		.uleb128 0xc
 1874 0c6e A8010000 		.4byte	0x1a8
 1875 0c72 1D       		.byte	0x1d
 1876 0c73 00       		.byte	0
 1877 0c74 25       		.uleb128 0x25
 1878 0c75 F0       		.byte	0xf0
 1879 0c76 0C       		.byte	0xc
 1880 0c77 5502     		.2byte	0x255
 1881 0c79 960C0000 		.4byte	0xc96
 1882 0c7d 26       		.uleb128 0x26
 1883 0c7e 82050000 		.4byte	.LASF125
 1884 0c82 0C       		.byte	0xc
 1885 0c83 6C02     		.2byte	0x26c
 1886 0c85 FF0A0000 		.4byte	0xaff
 1887 0c89 26       		.uleb128 0x26
 1888 0c8a 8B070000 		.4byte	.LASF176
 1889 0c8e 0C       		.byte	0xc
 1890 0c8f 7502     		.2byte	0x275
 1891 0c91 300C0000 		.4byte	0xc30
 1892 0c95 00       		.byte	0
 1893 0c96 0B       		.uleb128 0xb
 1894 0c97 92050000 		.4byte	0x592
 1895 0c9b A60C0000 		.4byte	0xca6
 1896 0c9f 0C       		.uleb128 0xc
 1897 0ca0 A8010000 		.4byte	0x1a8
ARM GAS  /tmp/ccMB938d.s 			page 36


 1898 0ca4 18       		.byte	0x18
 1899 0ca5 00       		.byte	0
 1900 0ca6 27       		.uleb128 0x27
 1901 0ca7 B10C0000 		.4byte	0xcb1
 1902 0cab 22       		.uleb128 0x22
 1903 0cac A2080000 		.4byte	0x8a2
 1904 0cb0 00       		.byte	0
 1905 0cb1 18       		.uleb128 0x18
 1906 0cb2 04       		.byte	0x4
 1907 0cb3 A60C0000 		.4byte	0xca6
 1908 0cb7 18       		.uleb128 0x18
 1909 0cb8 04       		.byte	0x4
 1910 0cb9 FC050000 		.4byte	0x5fc
 1911 0cbd 27       		.uleb128 0x27
 1912 0cbe C80C0000 		.4byte	0xcc8
 1913 0cc2 22       		.uleb128 0x22
 1914 0cc3 89000000 		.4byte	0x89
 1915 0cc7 00       		.byte	0
 1916 0cc8 18       		.uleb128 0x18
 1917 0cc9 04       		.byte	0x4
 1918 0cca CE0C0000 		.4byte	0xcce
 1919 0cce 18       		.uleb128 0x18
 1920 0ccf 04       		.byte	0x4
 1921 0cd0 BD0C0000 		.4byte	0xcbd
 1922 0cd4 0B       		.uleb128 0xb
 1923 0cd5 6D0A0000 		.4byte	0xa6d
 1924 0cd9 E40C0000 		.4byte	0xce4
 1925 0cdd 0C       		.uleb128 0xc
 1926 0cde A8010000 		.4byte	0x1a8
 1927 0ce2 02       		.byte	0x2
 1928 0ce3 00       		.byte	0
 1929 0ce4 11       		.uleb128 0x11
 1930 0ce5 72020000 		.4byte	.LASF177
 1931 0ce9 0C       		.byte	0xc
 1932 0cea FD02     		.2byte	0x2fd
 1933 0cec A2080000 		.4byte	0x8a2
 1934 0cf0 11       		.uleb128 0x11
 1935 0cf1 E5060000 		.4byte	.LASF178
 1936 0cf5 0C       		.byte	0xc
 1937 0cf6 FE02     		.2byte	0x2fe
 1938 0cf8 A8080000 		.4byte	0x8a8
 1939 0cfc 02       		.uleb128 0x2
 1940 0cfd 08       		.byte	0x8
 1941 0cfe 04       		.byte	0x4
 1942 0cff 04020000 		.4byte	.LASF179
 1943 0d03 28       		.uleb128 0x28
 1944 0d04 D4060000 		.4byte	.LASF202
 1945 0d08 01       		.byte	0x1
 1946 0d09 25000000 		.4byte	0x25
 1947 0d0d 0D       		.byte	0xd
 1948 0d0e 9902     		.2byte	0x299
 1949 0d10 2D0D0000 		.4byte	0xd2d
 1950 0d14 29       		.uleb128 0x29
 1951 0d15 08060000 		.4byte	.LASF180
 1952 0d19 7F       		.sleb128 -1
 1953 0d1a 14       		.uleb128 0x14
 1954 0d1b D2010000 		.4byte	.LASF181
ARM GAS  /tmp/ccMB938d.s 			page 37


 1955 0d1f 00       		.byte	0
 1956 0d20 14       		.uleb128 0x14
 1957 0d21 3D000000 		.4byte	.LASF182
 1958 0d25 01       		.byte	0x1
 1959 0d26 14       		.uleb128 0x14
 1960 0d27 A8000000 		.4byte	.LASF183
 1961 0d2b 02       		.byte	0x2
 1962 0d2c 00       		.byte	0
 1963 0d2d 11       		.uleb128 0x11
 1964 0d2e C4000000 		.4byte	.LASF184
 1965 0d32 0D       		.byte	0xd
 1966 0d33 A402     		.2byte	0x2a4
 1967 0d35 030D0000 		.4byte	0xd03
 1968 0d39 2A       		.uleb128 0x2a
 1969 0d3a 93070000 		.4byte	.LASF185
 1970 0d3e 01       		.byte	0x1
 1971 0d3f 53       		.byte	0x53
 1972 0d40 54010000 		.4byte	.LFB67
 1973 0d44 38000000 		.4byte	.LFE67-.LFB67
 1974 0d48 01       		.uleb128 0x1
 1975 0d49 9C       		.byte	0x9c
 1976 0d4a 5D0D0000 		.4byte	0xd5d
 1977 0d4e 2B       		.uleb128 0x2b
 1978 0d4f 52040000 		.4byte	.LASF187
 1979 0d53 01       		.byte	0x1
 1980 0d54 53       		.byte	0x53
 1981 0d55 C2000000 		.4byte	0xc2
 1982 0d59 02       		.uleb128 0x2
 1983 0d5a 91       		.byte	0x91
 1984 0d5b 74       		.sleb128 -12
 1985 0d5c 00       		.byte	0
 1986 0d5d 2A       		.uleb128 0x2a
 1987 0d5e 24010000 		.4byte	.LASF186
 1988 0d62 01       		.byte	0x1
 1989 0d63 44       		.byte	0x44
 1990 0d64 14010000 		.4byte	.LFB66
 1991 0d68 40000000 		.4byte	.LFE66-.LFB66
 1992 0d6c 01       		.uleb128 0x1
 1993 0d6d 9C       		.byte	0x9c
 1994 0d6e 8F0D0000 		.4byte	0xd8f
 1995 0d72 2B       		.uleb128 0x2b
 1996 0d73 97050000 		.4byte	.LASF188
 1997 0d77 01       		.byte	0x1
 1998 0d78 44       		.byte	0x44
 1999 0d79 97000000 		.4byte	0x97
 2000 0d7d 02       		.uleb128 0x2
 2001 0d7e 91       		.byte	0x91
 2002 0d7f 77       		.sleb128 -9
 2003 0d80 2B       		.uleb128 0x2b
 2004 0d81 0C000000 		.4byte	.LASF189
 2005 0d85 01       		.byte	0x1
 2006 0d86 44       		.byte	0x44
 2007 0d87 16040000 		.4byte	0x416
 2008 0d8b 02       		.uleb128 0x2
 2009 0d8c 91       		.byte	0x91
 2010 0d8d 76       		.sleb128 -10
 2011 0d8e 00       		.byte	0
ARM GAS  /tmp/ccMB938d.s 			page 38


 2012 0d8f 2A       		.uleb128 0x2a
 2013 0d90 8E020000 		.4byte	.LASF190
 2014 0d94 01       		.byte	0x1
 2015 0d95 38       		.byte	0x38
 2016 0d96 E8000000 		.4byte	.LFB65
 2017 0d9a 2C000000 		.4byte	.LFE65-.LFB65
 2018 0d9e 01       		.uleb128 0x1
 2019 0d9f 9C       		.byte	0x9c
 2020 0da0 C10D0000 		.4byte	0xdc1
 2021 0da4 2B       		.uleb128 0x2b
 2022 0da5 CD020000 		.4byte	.LASF191
 2023 0da9 01       		.byte	0x1
 2024 0daa 38       		.byte	0x38
 2025 0dab C2000000 		.4byte	0xc2
 2026 0daf 02       		.uleb128 0x2
 2027 0db0 91       		.byte	0x91
 2028 0db1 74       		.sleb128 -12
 2029 0db2 2B       		.uleb128 0x2b
 2030 0db3 28070000 		.4byte	.LASF192
 2031 0db7 01       		.byte	0x1
 2032 0db8 38       		.byte	0x38
 2033 0db9 C2000000 		.4byte	0xc2
 2034 0dbd 02       		.uleb128 0x2
 2035 0dbe 91       		.byte	0x91
 2036 0dbf 70       		.sleb128 -16
 2037 0dc0 00       		.byte	0
 2038 0dc1 2A       		.uleb128 0x2a
 2039 0dc2 13080000 		.4byte	.LASF193
 2040 0dc6 01       		.byte	0x1
 2041 0dc7 16       		.byte	0x16
 2042 0dc8 24000000 		.4byte	.LFB64
 2043 0dcc C4000000 		.4byte	.LFE64-.LFB64
 2044 0dd0 01       		.uleb128 0x1
 2045 0dd1 9C       		.byte	0x9c
 2046 0dd2 0F0E0000 		.4byte	0xe0f
 2047 0dd6 2B       		.uleb128 0x2b
 2048 0dd7 1E030000 		.4byte	.LASF194
 2049 0ddb 01       		.byte	0x1
 2050 0ddc 16       		.byte	0x16
 2051 0ddd 0F0E0000 		.4byte	0xe0f
 2052 0de1 02       		.uleb128 0x2
 2053 0de2 91       		.byte	0x91
 2054 0de3 64       		.sleb128 -28
 2055 0de4 2C       		.uleb128 0x2c
 2056 0de5 48070000 		.4byte	.LASF195
 2057 0de9 01       		.byte	0x1
 2058 0dea 18       		.byte	0x18
 2059 0deb C2000000 		.4byte	0xc2
 2060 0def 02       		.uleb128 0x2
 2061 0df0 91       		.byte	0x91
 2062 0df1 74       		.sleb128 -12
 2063 0df2 2C       		.uleb128 0x2c
 2064 0df3 1B020000 		.4byte	.LASF196
 2065 0df7 01       		.byte	0x1
 2066 0df8 18       		.byte	0x18
 2067 0df9 C2000000 		.4byte	0xc2
 2068 0dfd 02       		.uleb128 0x2
ARM GAS  /tmp/ccMB938d.s 			page 39


 2069 0dfe 91       		.byte	0x91
 2070 0dff 70       		.sleb128 -16
 2071 0e00 2C       		.uleb128 0x2c
 2072 0e01 B7000000 		.4byte	.LASF197
 2073 0e05 01       		.byte	0x1
 2074 0e06 18       		.byte	0x18
 2075 0e07 C2000000 		.4byte	0xc2
 2076 0e0b 02       		.uleb128 0x2
 2077 0e0c 91       		.byte	0x91
 2078 0e0d 6C       		.sleb128 -20
 2079 0e0e 00       		.byte	0
 2080 0e0f 18       		.uleb128 0x18
 2081 0e10 04       		.byte	0x4
 2082 0e11 5B040000 		.4byte	0x45b
 2083 0e15 2D       		.uleb128 0x2d
 2084 0e16 54070000 		.4byte	.LASF203
 2085 0e1a 01       		.byte	0x1
 2086 0e1b 0C       		.byte	0xc
 2087 0e1c 00000000 		.4byte	.LFB63
 2088 0e20 24000000 		.4byte	.LFE63-.LFB63
 2089 0e24 01       		.uleb128 0x1
 2090 0e25 9C       		.byte	0x9c
 2091 0e26 2B       		.uleb128 0x2b
 2092 0e27 22050000 		.4byte	.LASF198
 2093 0e2b 01       		.byte	0x1
 2094 0e2c 0C       		.byte	0xc
 2095 0e2d C2000000 		.4byte	0xc2
 2096 0e31 02       		.uleb128 0x2
 2097 0e32 91       		.byte	0x91
 2098 0e33 74       		.sleb128 -12
 2099 0e34 00       		.byte	0
 2100 0e35 00       		.byte	0
 2101              		.section	.debug_abbrev,"",%progbits
 2102              	.Ldebug_abbrev0:
 2103 0000 01       		.uleb128 0x1
 2104 0001 11       		.uleb128 0x11
 2105 0002 01       		.byte	0x1
 2106 0003 25       		.uleb128 0x25
 2107 0004 0E       		.uleb128 0xe
 2108 0005 13       		.uleb128 0x13
 2109 0006 0B       		.uleb128 0xb
 2110 0007 03       		.uleb128 0x3
 2111 0008 0E       		.uleb128 0xe
 2112 0009 1B       		.uleb128 0x1b
 2113 000a 0E       		.uleb128 0xe
 2114 000b 11       		.uleb128 0x11
 2115 000c 01       		.uleb128 0x1
 2116 000d 12       		.uleb128 0x12
 2117 000e 06       		.uleb128 0x6
 2118 000f 10       		.uleb128 0x10
 2119 0010 17       		.uleb128 0x17
 2120 0011 00       		.byte	0
 2121 0012 00       		.byte	0
 2122 0013 02       		.uleb128 0x2
 2123 0014 24       		.uleb128 0x24
 2124 0015 00       		.byte	0
 2125 0016 0B       		.uleb128 0xb
ARM GAS  /tmp/ccMB938d.s 			page 40


 2126 0017 0B       		.uleb128 0xb
 2127 0018 3E       		.uleb128 0x3e
 2128 0019 0B       		.uleb128 0xb
 2129 001a 03       		.uleb128 0x3
 2130 001b 0E       		.uleb128 0xe
 2131 001c 00       		.byte	0
 2132 001d 00       		.byte	0
 2133 001e 03       		.uleb128 0x3
 2134 001f 16       		.uleb128 0x16
 2135 0020 00       		.byte	0
 2136 0021 03       		.uleb128 0x3
 2137 0022 0E       		.uleb128 0xe
 2138 0023 3A       		.uleb128 0x3a
 2139 0024 0B       		.uleb128 0xb
 2140 0025 3B       		.uleb128 0x3b
 2141 0026 0B       		.uleb128 0xb
 2142 0027 49       		.uleb128 0x49
 2143 0028 13       		.uleb128 0x13
 2144 0029 00       		.byte	0
 2145 002a 00       		.byte	0
 2146 002b 04       		.uleb128 0x4
 2147 002c 24       		.uleb128 0x24
 2148 002d 00       		.byte	0
 2149 002e 0B       		.uleb128 0xb
 2150 002f 0B       		.uleb128 0xb
 2151 0030 3E       		.uleb128 0x3e
 2152 0031 0B       		.uleb128 0xb
 2153 0032 03       		.uleb128 0x3
 2154 0033 08       		.uleb128 0x8
 2155 0034 00       		.byte	0
 2156 0035 00       		.byte	0
 2157 0036 05       		.uleb128 0x5
 2158 0037 35       		.uleb128 0x35
 2159 0038 00       		.byte	0
 2160 0039 49       		.uleb128 0x49
 2161 003a 13       		.uleb128 0x13
 2162 003b 00       		.byte	0
 2163 003c 00       		.byte	0
 2164 003d 06       		.uleb128 0x6
 2165 003e 26       		.uleb128 0x26
 2166 003f 00       		.byte	0
 2167 0040 49       		.uleb128 0x49
 2168 0041 13       		.uleb128 0x13
 2169 0042 00       		.byte	0
 2170 0043 00       		.byte	0
 2171 0044 07       		.uleb128 0x7
 2172 0045 13       		.uleb128 0x13
 2173 0046 01       		.byte	0x1
 2174 0047 0B       		.uleb128 0xb
 2175 0048 05       		.uleb128 0x5
 2176 0049 3A       		.uleb128 0x3a
 2177 004a 0B       		.uleb128 0xb
 2178 004b 3B       		.uleb128 0x3b
 2179 004c 05       		.uleb128 0x5
 2180 004d 01       		.uleb128 0x1
 2181 004e 13       		.uleb128 0x13
 2182 004f 00       		.byte	0
ARM GAS  /tmp/ccMB938d.s 			page 41


 2183 0050 00       		.byte	0
 2184 0051 08       		.uleb128 0x8
 2185 0052 0D       		.uleb128 0xd
 2186 0053 00       		.byte	0
 2187 0054 03       		.uleb128 0x3
 2188 0055 0E       		.uleb128 0xe
 2189 0056 3A       		.uleb128 0x3a
 2190 0057 0B       		.uleb128 0xb
 2191 0058 3B       		.uleb128 0x3b
 2192 0059 05       		.uleb128 0x5
 2193 005a 49       		.uleb128 0x49
 2194 005b 13       		.uleb128 0x13
 2195 005c 38       		.uleb128 0x38
 2196 005d 0B       		.uleb128 0xb
 2197 005e 00       		.byte	0
 2198 005f 00       		.byte	0
 2199 0060 09       		.uleb128 0x9
 2200 0061 0D       		.uleb128 0xd
 2201 0062 00       		.byte	0
 2202 0063 03       		.uleb128 0x3
 2203 0064 0E       		.uleb128 0xe
 2204 0065 3A       		.uleb128 0x3a
 2205 0066 0B       		.uleb128 0xb
 2206 0067 3B       		.uleb128 0x3b
 2207 0068 05       		.uleb128 0x5
 2208 0069 49       		.uleb128 0x49
 2209 006a 13       		.uleb128 0x13
 2210 006b 38       		.uleb128 0x38
 2211 006c 05       		.uleb128 0x5
 2212 006d 00       		.byte	0
 2213 006e 00       		.byte	0
 2214 006f 0A       		.uleb128 0xa
 2215 0070 0D       		.uleb128 0xd
 2216 0071 00       		.byte	0
 2217 0072 03       		.uleb128 0x3
 2218 0073 08       		.uleb128 0x8
 2219 0074 3A       		.uleb128 0x3a
 2220 0075 0B       		.uleb128 0xb
 2221 0076 3B       		.uleb128 0x3b
 2222 0077 05       		.uleb128 0x5
 2223 0078 49       		.uleb128 0x49
 2224 0079 13       		.uleb128 0x13
 2225 007a 38       		.uleb128 0x38
 2226 007b 05       		.uleb128 0x5
 2227 007c 00       		.byte	0
 2228 007d 00       		.byte	0
 2229 007e 0B       		.uleb128 0xb
 2230 007f 01       		.uleb128 0x1
 2231 0080 01       		.byte	0x1
 2232 0081 49       		.uleb128 0x49
 2233 0082 13       		.uleb128 0x13
 2234 0083 01       		.uleb128 0x1
 2235 0084 13       		.uleb128 0x13
 2236 0085 00       		.byte	0
 2237 0086 00       		.byte	0
 2238 0087 0C       		.uleb128 0xc
 2239 0088 21       		.uleb128 0x21
ARM GAS  /tmp/ccMB938d.s 			page 42


 2240 0089 00       		.byte	0
 2241 008a 49       		.uleb128 0x49
 2242 008b 13       		.uleb128 0x13
 2243 008c 2F       		.uleb128 0x2f
 2244 008d 0B       		.uleb128 0xb
 2245 008e 00       		.byte	0
 2246 008f 00       		.byte	0
 2247 0090 0D       		.uleb128 0xd
 2248 0091 21       		.uleb128 0x21
 2249 0092 00       		.byte	0
 2250 0093 49       		.uleb128 0x49
 2251 0094 13       		.uleb128 0x13
 2252 0095 2F       		.uleb128 0x2f
 2253 0096 05       		.uleb128 0x5
 2254 0097 00       		.byte	0
 2255 0098 00       		.byte	0
 2256 0099 0E       		.uleb128 0xe
 2257 009a 16       		.uleb128 0x16
 2258 009b 00       		.byte	0
 2259 009c 03       		.uleb128 0x3
 2260 009d 0E       		.uleb128 0xe
 2261 009e 3A       		.uleb128 0x3a
 2262 009f 0B       		.uleb128 0xb
 2263 00a0 3B       		.uleb128 0x3b
 2264 00a1 05       		.uleb128 0x5
 2265 00a2 49       		.uleb128 0x49
 2266 00a3 13       		.uleb128 0x13
 2267 00a4 00       		.byte	0
 2268 00a5 00       		.byte	0
 2269 00a6 0F       		.uleb128 0xf
 2270 00a7 13       		.uleb128 0x13
 2271 00a8 01       		.byte	0x1
 2272 00a9 0B       		.uleb128 0xb
 2273 00aa 0B       		.uleb128 0xb
 2274 00ab 3A       		.uleb128 0x3a
 2275 00ac 0B       		.uleb128 0xb
 2276 00ad 3B       		.uleb128 0x3b
 2277 00ae 05       		.uleb128 0x5
 2278 00af 01       		.uleb128 0x1
 2279 00b0 13       		.uleb128 0x13
 2280 00b1 00       		.byte	0
 2281 00b2 00       		.byte	0
 2282 00b3 10       		.uleb128 0x10
 2283 00b4 0D       		.uleb128 0xd
 2284 00b5 00       		.byte	0
 2285 00b6 03       		.uleb128 0x3
 2286 00b7 08       		.uleb128 0x8
 2287 00b8 3A       		.uleb128 0x3a
 2288 00b9 0B       		.uleb128 0xb
 2289 00ba 3B       		.uleb128 0x3b
 2290 00bb 05       		.uleb128 0x5
 2291 00bc 49       		.uleb128 0x49
 2292 00bd 13       		.uleb128 0x13
 2293 00be 38       		.uleb128 0x38
 2294 00bf 0B       		.uleb128 0xb
 2295 00c0 00       		.byte	0
 2296 00c1 00       		.byte	0
ARM GAS  /tmp/ccMB938d.s 			page 43


 2297 00c2 11       		.uleb128 0x11
 2298 00c3 34       		.uleb128 0x34
 2299 00c4 00       		.byte	0
 2300 00c5 03       		.uleb128 0x3
 2301 00c6 0E       		.uleb128 0xe
 2302 00c7 3A       		.uleb128 0x3a
 2303 00c8 0B       		.uleb128 0xb
 2304 00c9 3B       		.uleb128 0x3b
 2305 00ca 05       		.uleb128 0x5
 2306 00cb 49       		.uleb128 0x49
 2307 00cc 13       		.uleb128 0x13
 2308 00cd 3F       		.uleb128 0x3f
 2309 00ce 19       		.uleb128 0x19
 2310 00cf 3C       		.uleb128 0x3c
 2311 00d0 19       		.uleb128 0x19
 2312 00d1 00       		.byte	0
 2313 00d2 00       		.byte	0
 2314 00d3 12       		.uleb128 0x12
 2315 00d4 34       		.uleb128 0x34
 2316 00d5 00       		.byte	0
 2317 00d6 03       		.uleb128 0x3
 2318 00d7 0E       		.uleb128 0xe
 2319 00d8 3A       		.uleb128 0x3a
 2320 00d9 0B       		.uleb128 0xb
 2321 00da 3B       		.uleb128 0x3b
 2322 00db 0B       		.uleb128 0xb
 2323 00dc 49       		.uleb128 0x49
 2324 00dd 13       		.uleb128 0x13
 2325 00de 3F       		.uleb128 0x3f
 2326 00df 19       		.uleb128 0x19
 2327 00e0 3C       		.uleb128 0x3c
 2328 00e1 19       		.uleb128 0x19
 2329 00e2 00       		.byte	0
 2330 00e3 00       		.byte	0
 2331 00e4 13       		.uleb128 0x13
 2332 00e5 04       		.uleb128 0x4
 2333 00e6 01       		.byte	0x1
 2334 00e7 0B       		.uleb128 0xb
 2335 00e8 0B       		.uleb128 0xb
 2336 00e9 49       		.uleb128 0x49
 2337 00ea 13       		.uleb128 0x13
 2338 00eb 3A       		.uleb128 0x3a
 2339 00ec 0B       		.uleb128 0xb
 2340 00ed 3B       		.uleb128 0x3b
 2341 00ee 05       		.uleb128 0x5
 2342 00ef 01       		.uleb128 0x1
 2343 00f0 13       		.uleb128 0x13
 2344 00f1 00       		.byte	0
 2345 00f2 00       		.byte	0
 2346 00f3 14       		.uleb128 0x14
 2347 00f4 28       		.uleb128 0x28
 2348 00f5 00       		.byte	0
 2349 00f6 03       		.uleb128 0x3
 2350 00f7 0E       		.uleb128 0xe
 2351 00f8 1C       		.uleb128 0x1c
 2352 00f9 0B       		.uleb128 0xb
 2353 00fa 00       		.byte	0
ARM GAS  /tmp/ccMB938d.s 			page 44


 2354 00fb 00       		.byte	0
 2355 00fc 15       		.uleb128 0x15
 2356 00fd 13       		.uleb128 0x13
 2357 00fe 01       		.byte	0x1
 2358 00ff 0B       		.uleb128 0xb
 2359 0100 0B       		.uleb128 0xb
 2360 0101 3A       		.uleb128 0x3a
 2361 0102 0B       		.uleb128 0xb
 2362 0103 3B       		.uleb128 0x3b
 2363 0104 0B       		.uleb128 0xb
 2364 0105 01       		.uleb128 0x1
 2365 0106 13       		.uleb128 0x13
 2366 0107 00       		.byte	0
 2367 0108 00       		.byte	0
 2368 0109 16       		.uleb128 0x16
 2369 010a 0D       		.uleb128 0xd
 2370 010b 00       		.byte	0
 2371 010c 03       		.uleb128 0x3
 2372 010d 0E       		.uleb128 0xe
 2373 010e 3A       		.uleb128 0x3a
 2374 010f 0B       		.uleb128 0xb
 2375 0110 3B       		.uleb128 0x3b
 2376 0111 0B       		.uleb128 0xb
 2377 0112 49       		.uleb128 0x49
 2378 0113 13       		.uleb128 0x13
 2379 0114 38       		.uleb128 0x38
 2380 0115 0B       		.uleb128 0xb
 2381 0116 00       		.byte	0
 2382 0117 00       		.byte	0
 2383 0118 17       		.uleb128 0x17
 2384 0119 15       		.uleb128 0x15
 2385 011a 00       		.byte	0
 2386 011b 27       		.uleb128 0x27
 2387 011c 19       		.uleb128 0x19
 2388 011d 00       		.byte	0
 2389 011e 00       		.byte	0
 2390 011f 18       		.uleb128 0x18
 2391 0120 0F       		.uleb128 0xf
 2392 0121 00       		.byte	0
 2393 0122 0B       		.uleb128 0xb
 2394 0123 0B       		.uleb128 0xb
 2395 0124 49       		.uleb128 0x49
 2396 0125 13       		.uleb128 0x13
 2397 0126 00       		.byte	0
 2398 0127 00       		.byte	0
 2399 0128 19       		.uleb128 0x19
 2400 0129 34       		.uleb128 0x34
 2401 012a 00       		.byte	0
 2402 012b 03       		.uleb128 0x3
 2403 012c 08       		.uleb128 0x8
 2404 012d 3A       		.uleb128 0x3a
 2405 012e 0B       		.uleb128 0xb
 2406 012f 3B       		.uleb128 0x3b
 2407 0130 05       		.uleb128 0x5
 2408 0131 49       		.uleb128 0x49
 2409 0132 13       		.uleb128 0x13
 2410 0133 3F       		.uleb128 0x3f
ARM GAS  /tmp/ccMB938d.s 			page 45


 2411 0134 19       		.uleb128 0x19
 2412 0135 3C       		.uleb128 0x3c
 2413 0136 19       		.uleb128 0x19
 2414 0137 00       		.byte	0
 2415 0138 00       		.byte	0
 2416 0139 1A       		.uleb128 0x1a
 2417 013a 17       		.uleb128 0x17
 2418 013b 01       		.byte	0x1
 2419 013c 0B       		.uleb128 0xb
 2420 013d 0B       		.uleb128 0xb
 2421 013e 3A       		.uleb128 0x3a
 2422 013f 0B       		.uleb128 0xb
 2423 0140 3B       		.uleb128 0x3b
 2424 0141 0B       		.uleb128 0xb
 2425 0142 01       		.uleb128 0x1
 2426 0143 13       		.uleb128 0x13
 2427 0144 00       		.byte	0
 2428 0145 00       		.byte	0
 2429 0146 1B       		.uleb128 0x1b
 2430 0147 0D       		.uleb128 0xd
 2431 0148 00       		.byte	0
 2432 0149 03       		.uleb128 0x3
 2433 014a 0E       		.uleb128 0xe
 2434 014b 3A       		.uleb128 0x3a
 2435 014c 0B       		.uleb128 0xb
 2436 014d 3B       		.uleb128 0x3b
 2437 014e 0B       		.uleb128 0xb
 2438 014f 49       		.uleb128 0x49
 2439 0150 13       		.uleb128 0x13
 2440 0151 00       		.byte	0
 2441 0152 00       		.byte	0
 2442 0153 1C       		.uleb128 0x1c
 2443 0154 0F       		.uleb128 0xf
 2444 0155 00       		.byte	0
 2445 0156 0B       		.uleb128 0xb
 2446 0157 0B       		.uleb128 0xb
 2447 0158 00       		.byte	0
 2448 0159 00       		.byte	0
 2449 015a 1D       		.uleb128 0x1d
 2450 015b 13       		.uleb128 0x13
 2451 015c 01       		.byte	0x1
 2452 015d 03       		.uleb128 0x3
 2453 015e 0E       		.uleb128 0xe
 2454 015f 0B       		.uleb128 0xb
 2455 0160 0B       		.uleb128 0xb
 2456 0161 3A       		.uleb128 0x3a
 2457 0162 0B       		.uleb128 0xb
 2458 0163 3B       		.uleb128 0x3b
 2459 0164 0B       		.uleb128 0xb
 2460 0165 01       		.uleb128 0x1
 2461 0166 13       		.uleb128 0x13
 2462 0167 00       		.byte	0
 2463 0168 00       		.byte	0
 2464 0169 1E       		.uleb128 0x1e
 2465 016a 0D       		.uleb128 0xd
 2466 016b 00       		.byte	0
 2467 016c 03       		.uleb128 0x3
ARM GAS  /tmp/ccMB938d.s 			page 46


 2468 016d 08       		.uleb128 0x8
 2469 016e 3A       		.uleb128 0x3a
 2470 016f 0B       		.uleb128 0xb
 2471 0170 3B       		.uleb128 0x3b
 2472 0171 0B       		.uleb128 0xb
 2473 0172 49       		.uleb128 0x49
 2474 0173 13       		.uleb128 0x13
 2475 0174 38       		.uleb128 0x38
 2476 0175 0B       		.uleb128 0xb
 2477 0176 00       		.byte	0
 2478 0177 00       		.byte	0
 2479 0178 1F       		.uleb128 0x1f
 2480 0179 13       		.uleb128 0x13
 2481 017a 01       		.byte	0x1
 2482 017b 03       		.uleb128 0x3
 2483 017c 0E       		.uleb128 0xe
 2484 017d 0B       		.uleb128 0xb
 2485 017e 05       		.uleb128 0x5
 2486 017f 3A       		.uleb128 0x3a
 2487 0180 0B       		.uleb128 0xb
 2488 0181 3B       		.uleb128 0x3b
 2489 0182 0B       		.uleb128 0xb
 2490 0183 01       		.uleb128 0x1
 2491 0184 13       		.uleb128 0x13
 2492 0185 00       		.byte	0
 2493 0186 00       		.byte	0
 2494 0187 20       		.uleb128 0x20
 2495 0188 0D       		.uleb128 0xd
 2496 0189 00       		.byte	0
 2497 018a 03       		.uleb128 0x3
 2498 018b 0E       		.uleb128 0xe
 2499 018c 3A       		.uleb128 0x3a
 2500 018d 0B       		.uleb128 0xb
 2501 018e 3B       		.uleb128 0x3b
 2502 018f 0B       		.uleb128 0xb
 2503 0190 49       		.uleb128 0x49
 2504 0191 13       		.uleb128 0x13
 2505 0192 38       		.uleb128 0x38
 2506 0193 05       		.uleb128 0x5
 2507 0194 00       		.byte	0
 2508 0195 00       		.byte	0
 2509 0196 21       		.uleb128 0x21
 2510 0197 15       		.uleb128 0x15
 2511 0198 01       		.byte	0x1
 2512 0199 27       		.uleb128 0x27
 2513 019a 19       		.uleb128 0x19
 2514 019b 49       		.uleb128 0x49
 2515 019c 13       		.uleb128 0x13
 2516 019d 01       		.uleb128 0x1
 2517 019e 13       		.uleb128 0x13
 2518 019f 00       		.byte	0
 2519 01a0 00       		.byte	0
 2520 01a1 22       		.uleb128 0x22
 2521 01a2 05       		.uleb128 0x5
 2522 01a3 00       		.byte	0
 2523 01a4 49       		.uleb128 0x49
 2524 01a5 13       		.uleb128 0x13
ARM GAS  /tmp/ccMB938d.s 			page 47


 2525 01a6 00       		.byte	0
 2526 01a7 00       		.byte	0
 2527 01a8 23       		.uleb128 0x23
 2528 01a9 13       		.uleb128 0x13
 2529 01aa 01       		.byte	0x1
 2530 01ab 03       		.uleb128 0x3
 2531 01ac 0E       		.uleb128 0xe
 2532 01ad 0B       		.uleb128 0xb
 2533 01ae 05       		.uleb128 0x5
 2534 01af 3A       		.uleb128 0x3a
 2535 01b0 0B       		.uleb128 0xb
 2536 01b1 3B       		.uleb128 0x3b
 2537 01b2 05       		.uleb128 0x5
 2538 01b3 01       		.uleb128 0x1
 2539 01b4 13       		.uleb128 0x13
 2540 01b5 00       		.byte	0
 2541 01b6 00       		.byte	0
 2542 01b7 24       		.uleb128 0x24
 2543 01b8 13       		.uleb128 0x13
 2544 01b9 01       		.byte	0x1
 2545 01ba 03       		.uleb128 0x3
 2546 01bb 0E       		.uleb128 0xe
 2547 01bc 0B       		.uleb128 0xb
 2548 01bd 0B       		.uleb128 0xb
 2549 01be 3A       		.uleb128 0x3a
 2550 01bf 0B       		.uleb128 0xb
 2551 01c0 3B       		.uleb128 0x3b
 2552 01c1 05       		.uleb128 0x5
 2553 01c2 01       		.uleb128 0x1
 2554 01c3 13       		.uleb128 0x13
 2555 01c4 00       		.byte	0
 2556 01c5 00       		.byte	0
 2557 01c6 25       		.uleb128 0x25
 2558 01c7 17       		.uleb128 0x17
 2559 01c8 01       		.byte	0x1
 2560 01c9 0B       		.uleb128 0xb
 2561 01ca 0B       		.uleb128 0xb
 2562 01cb 3A       		.uleb128 0x3a
 2563 01cc 0B       		.uleb128 0xb
 2564 01cd 3B       		.uleb128 0x3b
 2565 01ce 05       		.uleb128 0x5
 2566 01cf 01       		.uleb128 0x1
 2567 01d0 13       		.uleb128 0x13
 2568 01d1 00       		.byte	0
 2569 01d2 00       		.byte	0
 2570 01d3 26       		.uleb128 0x26
 2571 01d4 0D       		.uleb128 0xd
 2572 01d5 00       		.byte	0
 2573 01d6 03       		.uleb128 0x3
 2574 01d7 0E       		.uleb128 0xe
 2575 01d8 3A       		.uleb128 0x3a
 2576 01d9 0B       		.uleb128 0xb
 2577 01da 3B       		.uleb128 0x3b
 2578 01db 05       		.uleb128 0x5
 2579 01dc 49       		.uleb128 0x49
 2580 01dd 13       		.uleb128 0x13
 2581 01de 00       		.byte	0
ARM GAS  /tmp/ccMB938d.s 			page 48


 2582 01df 00       		.byte	0
 2583 01e0 27       		.uleb128 0x27
 2584 01e1 15       		.uleb128 0x15
 2585 01e2 01       		.byte	0x1
 2586 01e3 27       		.uleb128 0x27
 2587 01e4 19       		.uleb128 0x19
 2588 01e5 01       		.uleb128 0x1
 2589 01e6 13       		.uleb128 0x13
 2590 01e7 00       		.byte	0
 2591 01e8 00       		.byte	0
 2592 01e9 28       		.uleb128 0x28
 2593 01ea 04       		.uleb128 0x4
 2594 01eb 01       		.byte	0x1
 2595 01ec 03       		.uleb128 0x3
 2596 01ed 0E       		.uleb128 0xe
 2597 01ee 0B       		.uleb128 0xb
 2598 01ef 0B       		.uleb128 0xb
 2599 01f0 49       		.uleb128 0x49
 2600 01f1 13       		.uleb128 0x13
 2601 01f2 3A       		.uleb128 0x3a
 2602 01f3 0B       		.uleb128 0xb
 2603 01f4 3B       		.uleb128 0x3b
 2604 01f5 05       		.uleb128 0x5
 2605 01f6 01       		.uleb128 0x1
 2606 01f7 13       		.uleb128 0x13
 2607 01f8 00       		.byte	0
 2608 01f9 00       		.byte	0
 2609 01fa 29       		.uleb128 0x29
 2610 01fb 28       		.uleb128 0x28
 2611 01fc 00       		.byte	0
 2612 01fd 03       		.uleb128 0x3
 2613 01fe 0E       		.uleb128 0xe
 2614 01ff 1C       		.uleb128 0x1c
 2615 0200 0D       		.uleb128 0xd
 2616 0201 00       		.byte	0
 2617 0202 00       		.byte	0
 2618 0203 2A       		.uleb128 0x2a
 2619 0204 2E       		.uleb128 0x2e
 2620 0205 01       		.byte	0x1
 2621 0206 3F       		.uleb128 0x3f
 2622 0207 19       		.uleb128 0x19
 2623 0208 03       		.uleb128 0x3
 2624 0209 0E       		.uleb128 0xe
 2625 020a 3A       		.uleb128 0x3a
 2626 020b 0B       		.uleb128 0xb
 2627 020c 3B       		.uleb128 0x3b
 2628 020d 0B       		.uleb128 0xb
 2629 020e 27       		.uleb128 0x27
 2630 020f 19       		.uleb128 0x19
 2631 0210 11       		.uleb128 0x11
 2632 0211 01       		.uleb128 0x1
 2633 0212 12       		.uleb128 0x12
 2634 0213 06       		.uleb128 0x6
 2635 0214 40       		.uleb128 0x40
 2636 0215 18       		.uleb128 0x18
 2637 0216 9742     		.uleb128 0x2117
 2638 0218 19       		.uleb128 0x19
ARM GAS  /tmp/ccMB938d.s 			page 49


 2639 0219 01       		.uleb128 0x1
 2640 021a 13       		.uleb128 0x13
 2641 021b 00       		.byte	0
 2642 021c 00       		.byte	0
 2643 021d 2B       		.uleb128 0x2b
 2644 021e 05       		.uleb128 0x5
 2645 021f 00       		.byte	0
 2646 0220 03       		.uleb128 0x3
 2647 0221 0E       		.uleb128 0xe
 2648 0222 3A       		.uleb128 0x3a
 2649 0223 0B       		.uleb128 0xb
 2650 0224 3B       		.uleb128 0x3b
 2651 0225 0B       		.uleb128 0xb
 2652 0226 49       		.uleb128 0x49
 2653 0227 13       		.uleb128 0x13
 2654 0228 02       		.uleb128 0x2
 2655 0229 18       		.uleb128 0x18
 2656 022a 00       		.byte	0
 2657 022b 00       		.byte	0
 2658 022c 2C       		.uleb128 0x2c
 2659 022d 34       		.uleb128 0x34
 2660 022e 00       		.byte	0
 2661 022f 03       		.uleb128 0x3
 2662 0230 0E       		.uleb128 0xe
 2663 0231 3A       		.uleb128 0x3a
 2664 0232 0B       		.uleb128 0xb
 2665 0233 3B       		.uleb128 0x3b
 2666 0234 0B       		.uleb128 0xb
 2667 0235 49       		.uleb128 0x49
 2668 0236 13       		.uleb128 0x13
 2669 0237 02       		.uleb128 0x2
 2670 0238 18       		.uleb128 0x18
 2671 0239 00       		.byte	0
 2672 023a 00       		.byte	0
 2673 023b 2D       		.uleb128 0x2d
 2674 023c 2E       		.uleb128 0x2e
 2675 023d 01       		.byte	0x1
 2676 023e 3F       		.uleb128 0x3f
 2677 023f 19       		.uleb128 0x19
 2678 0240 03       		.uleb128 0x3
 2679 0241 0E       		.uleb128 0xe
 2680 0242 3A       		.uleb128 0x3a
 2681 0243 0B       		.uleb128 0xb
 2682 0244 3B       		.uleb128 0x3b
 2683 0245 0B       		.uleb128 0xb
 2684 0246 27       		.uleb128 0x27
 2685 0247 19       		.uleb128 0x19
 2686 0248 11       		.uleb128 0x11
 2687 0249 01       		.uleb128 0x1
 2688 024a 12       		.uleb128 0x12
 2689 024b 06       		.uleb128 0x6
 2690 024c 40       		.uleb128 0x40
 2691 024d 18       		.uleb128 0x18
 2692 024e 9742     		.uleb128 0x2117
 2693 0250 19       		.uleb128 0x19
 2694 0251 00       		.byte	0
 2695 0252 00       		.byte	0
ARM GAS  /tmp/ccMB938d.s 			page 50


 2696 0253 00       		.byte	0
 2697              		.section	.debug_aranges,"",%progbits
 2698 0000 1C000000 		.4byte	0x1c
 2699 0004 0200     		.2byte	0x2
 2700 0006 00000000 		.4byte	.Ldebug_info0
 2701 000a 04       		.byte	0x4
 2702 000b 00       		.byte	0
 2703 000c 0000     		.2byte	0
 2704 000e 0000     		.2byte	0
 2705 0010 00000000 		.4byte	.Ltext0
 2706 0014 8C010000 		.4byte	.Letext0-.Ltext0
 2707 0018 00000000 		.4byte	0
 2708 001c 00000000 		.4byte	0
 2709              		.section	.debug_line,"",%progbits
 2710              	.Ldebug_line0:
 2711 0000 DE010000 		.section	.debug_str,"MS",%progbits,1
 2711      0200A601 
 2711      00000201 
 2711      FB0E0D00 
 2711      01010101 
 2712              	.LASF99:
 2713 0000 5F64736F 		.ascii	"_dso_handle\000"
 2713      5F68616E 
 2713      646C6500 
 2714              	.LASF189:
 2715 000c 4E657753 		.ascii	"NewState\000"
 2715      74617465 
 2715      00
 2716              	.LASF23:
 2717 0015 49435052 		.ascii	"ICPR\000"
 2717      00
 2718              	.LASF58:
 2719 001a 4E564943 		.ascii	"NVIC_IRQChannelCmd\000"
 2719      5F495251 
 2719      4368616E 
 2719      6E656C43 
 2719      6D6400
 2720              	.LASF98:
 2721 002d 5F666E61 		.ascii	"_fnargs\000"
 2721      72677300 
 2722              	.LASF151:
 2723 0035 5F72616E 		.ascii	"_rand48\000"
 2723      64343800 
 2724              	.LASF182:
 2725 003d 5F5F6664 		.ascii	"__fdlibm_xopen\000"
 2725      6C69626D 
 2725      5F786F70 
 2725      656E00
 2726              	.LASF131:
 2727 004c 5F656D65 		.ascii	"_emergency\000"
 2727      7267656E 
 2727      637900
 2728              	.LASF2:
 2729 0057 5F5F7569 		.ascii	"__uint8_t\000"
 2729      6E74385F 
 2729      7400
 2730              	.LASF143:
ARM GAS  /tmp/ccMB938d.s 			page 51


 2731 0061 5F617465 		.ascii	"_atexit0\000"
 2731      78697430 
 2731      00
 2732              	.LASF71:
 2733 006a 5F6F6666 		.ascii	"_off_t\000"
 2733      5F7400
 2734              	.LASF171:
 2735 0071 5F776372 		.ascii	"_wcrtomb_state\000"
 2735      746F6D62 
 2735      5F737461 
 2735      746500
 2736              	.LASF172:
 2737 0080 5F776373 		.ascii	"_wcsrtombs_state\000"
 2737      72746F6D 
 2737      62735F73 
 2737      74617465 
 2737      00
 2738              	.LASF11:
 2739 0091 6C6F6E67 		.ascii	"long long unsigned int\000"
 2739      206C6F6E 
 2739      6720756E 
 2739      7369676E 
 2739      65642069 
 2740              	.LASF183:
 2741 00a8 5F5F6664 		.ascii	"__fdlibm_posix\000"
 2741      6C69626D 
 2741      5F706F73 
 2741      697800
 2742              	.LASF197:
 2743 00b7 746D7073 		.ascii	"tmpsub\000"
 2743      756200
 2744              	.LASF31:
 2745 00be 43505549 		.ascii	"CPUID\000"
 2745      4400
 2746              	.LASF184:
 2747 00c4 5F5F6664 		.ascii	"__fdlib_version\000"
 2747      6C69625F 
 2747      76657273 
 2747      696F6E00 
 2748              	.LASF60:
 2749 00d4 6779726F 		.ascii	"gyro\000"
 2749      00
 2750              	.LASF169:
 2751 00d9 5F6D6272 		.ascii	"_mbrtowc_state\000"
 2751      746F7763 
 2751      5F737461 
 2751      746500
 2752              	.LASF21:
 2753 00e8 49535052 		.ascii	"ISPR\000"
 2753      00
 2754              	.LASF164:
 2755 00ed 5F776374 		.ascii	"_wctomb_state\000"
 2755      6F6D625F 
 2755      73746174 
 2755      6500
 2756              	.LASF88:
 2757 00fb 5F5F746D 		.ascii	"__tm_sec\000"
ARM GAS  /tmp/ccMB938d.s 			page 52


 2757      5F736563 
 2757      00
 2758              	.LASF14:
 2759 0104 696E7431 		.ascii	"int16_t\000"
 2759      365F7400 
 2760              	.LASF43:
 2761 010c 49534152 		.ascii	"ISAR\000"
 2761      00
 2762              	.LASF116:
 2763 0111 5F636C6F 		.ascii	"_close\000"
 2763      736500
 2764              	.LASF0:
 2765 0118 7369676E 		.ascii	"signed char\000"
 2765      65642063 
 2765      68617200 
 2766              	.LASF186:
 2767 0124 4E564943 		.ascii	"NVIC_SystemLPConfig\000"
 2767      5F537973 
 2767      74656D4C 
 2767      50436F6E 
 2767      66696700 
 2768              	.LASF117:
 2769 0138 5F756275 		.ascii	"_ubuf\000"
 2769      6600
 2770              	.LASF62:
 2771 013e 47785F6F 		.ascii	"Gx_offset\000"
 2771      66667365 
 2771      7400
 2772              	.LASF106:
 2773 0148 5F626173 		.ascii	"_base\000"
 2773      6500
 2774              	.LASF90:
 2775 014e 5F5F746D 		.ascii	"__tm_hour\000"
 2775      5F686F75 
 2775      7200
 2776              	.LASF146:
 2777 0158 5F5F7366 		.ascii	"__sf\000"
 2777      00
 2778              	.LASF97:
 2779 015d 5F6F6E5F 		.ascii	"_on_exit_args\000"
 2779      65786974 
 2779      5F617267 
 2779      7300
 2780              	.LASF65:
 2781 016b 41636331 		.ascii	"Acc1G_Values\000"
 2781      475F5661 
 2781      6C756573 
 2781      00
 2782              	.LASF112:
 2783 0178 5F636F6F 		.ascii	"_cookie\000"
 2783      6B696500 
 2784              	.LASF145:
 2785 0180 5F5F7367 		.ascii	"__sglue\000"
 2785      6C756500 
 2786              	.LASF7:
 2787 0188 6C6F6E67 		.ascii	"long int\000"
 2787      20696E74 
ARM GAS  /tmp/ccMB938d.s 			page 53


 2787      00
 2788              	.LASF201:
 2789 0191 2F686F6D 		.ascii	"/home/enbin/Documents/code/STM/stm32-quadrocopter\000"
 2789      652F656E 
 2789      62696E2F 
 2789      446F6375 
 2789      6D656E74 
 2790              	.LASF101:
 2791 01c3 5F69735F 		.ascii	"_is_cxa\000"
 2791      63786100 
 2792              	.LASF127:
 2793 01cb 5F737464 		.ascii	"_stdin\000"
 2793      696E00
 2794              	.LASF181:
 2795 01d2 5F5F6664 		.ascii	"__fdlibm_svid\000"
 2795      6C69626D 
 2795      5F737669 
 2795      6400
 2796              	.LASF137:
 2797 01e0 5F726573 		.ascii	"_result_k\000"
 2797      756C745F 
 2797      6B00
 2798              	.LASF53:
 2799 01ea 454E4142 		.ascii	"ENABLE\000"
 2799      4C4500
 2800              	.LASF17:
 2801 01f1 49534552 		.ascii	"ISER\000"
 2801      00
 2802              	.LASF10:
 2803 01f6 6C6F6E67 		.ascii	"long long int\000"
 2803      206C6F6E 
 2803      6720696E 
 2803      7400
 2804              	.LASF179:
 2805 0204 646F7562 		.ascii	"double\000"
 2805      6C6500
 2806              	.LASF141:
 2807 020b 5F637674 		.ascii	"_cvtbuf\000"
 2807      62756600 
 2808              	.LASF120:
 2809 0213 5F6F6666 		.ascii	"_offset\000"
 2809      73657400 
 2810              	.LASF196:
 2811 021b 746D7070 		.ascii	"tmppre\000"
 2811      726500
 2812              	.LASF170:
 2813 0222 5F6D6273 		.ascii	"_mbsrtowcs_state\000"
 2813      72746F77 
 2813      63735F73 
 2813      74617465 
 2813      00
 2814              	.LASF168:
 2815 0233 5F6D6272 		.ascii	"_mbrlen_state\000"
 2815      6C656E5F 
 2815      73746174 
 2815      6500
 2816              	.LASF40:
ARM GAS  /tmp/ccMB938d.s 			page 54


 2817 0241 42464152 		.ascii	"BFAR\000"
 2817      00
 2818              	.LASF49:
 2819 0246 53797354 		.ascii	"SysTick_Type\000"
 2819      69636B5F 
 2819      54797065 
 2819      00
 2820              	.LASF104:
 2821 0253 5F666E73 		.ascii	"_fns\000"
 2821      00
 2822              	.LASF8:
 2823 0258 5F5F7569 		.ascii	"__uint32_t\000"
 2823      6E743332 
 2823      5F7400
 2824              	.LASF84:
 2825 0263 5F736967 		.ascii	"_sign\000"
 2825      6E00
 2826              	.LASF45:
 2827 0269 5343425F 		.ascii	"SCB_Type\000"
 2827      54797065 
 2827      00
 2828              	.LASF177:
 2829 0272 5F696D70 		.ascii	"_impure_ptr\000"
 2829      7572655F 
 2829      70747200 
 2830              	.LASF129:
 2831 027e 5F737464 		.ascii	"_stderr\000"
 2831      65727200 
 2832              	.LASF86:
 2833 0286 5F426967 		.ascii	"_Bigint\000"
 2833      696E7400 
 2834              	.LASF190:
 2835 028e 4E564943 		.ascii	"NVIC_SetVectorTable\000"
 2835      5F536574 
 2835      56656374 
 2835      6F725461 
 2835      626C6500 
 2836              	.LASF119:
 2837 02a2 5F626C6B 		.ascii	"_blksize\000"
 2837      73697A65 
 2837      00
 2838              	.LASF113:
 2839 02ab 5F726561 		.ascii	"_read\000"
 2839      6400
 2840              	.LASF87:
 2841 02b1 5F5F746D 		.ascii	"__tm\000"
 2841      00
 2842              	.LASF75:
 2843 02b6 5F5F7763 		.ascii	"__wchb\000"
 2843      686200
 2844              	.LASF51:
 2845 02bd 53797374 		.ascii	"SystemCoreClock\000"
 2845      656D436F 
 2845      7265436C 
 2845      6F636B00 
 2846              	.LASF191:
 2847 02cd 4E564943 		.ascii	"NVIC_VectTab\000"
ARM GAS  /tmp/ccMB938d.s 			page 55


 2847      5F566563 
 2847      74546162 
 2847      00
 2848              	.LASF128:
 2849 02da 5F737464 		.ascii	"_stdout\000"
 2849      6F757400 
 2850              	.LASF140:
 2851 02e2 5F637674 		.ascii	"_cvtlen\000"
 2851      6C656E00 
 2852              	.LASF9:
 2853 02ea 6C6F6E67 		.ascii	"long unsigned int\000"
 2853      20756E73 
 2853      69676E65 
 2853      6420696E 
 2853      7400
 2854              	.LASF110:
 2855 02fc 5F66696C 		.ascii	"_file\000"
 2855      6500
 2856              	.LASF121:
 2857 0302 5F646174 		.ascii	"_data\000"
 2857      6100
 2858              	.LASF33:
 2859 0308 56544F52 		.ascii	"VTOR\000"
 2859      00
 2860              	.LASF149:
 2861 030d 5F6E696F 		.ascii	"_niobs\000"
 2861      627300
 2862              	.LASF144:
 2863 0314 5F736967 		.ascii	"_sig_func\000"
 2863      5F66756E 
 2863      6300
 2864              	.LASF194:
 2865 031e 4E564943 		.ascii	"NVIC_InitStruct\000"
 2865      5F496E69 
 2865      74537472 
 2865      75637400 
 2866              	.LASF32:
 2867 032e 49435352 		.ascii	"ICSR\000"
 2867      00
 2868              	.LASF157:
 2869 0333 5F617363 		.ascii	"_asctime_buf\000"
 2869      74696D65 
 2869      5F627566 
 2869      00
 2870              	.LASF34:
 2871 0340 41495243 		.ascii	"AIRCR\000"
 2871      5200
 2872              	.LASF38:
 2873 0346 44465352 		.ascii	"DFSR\000"
 2873      00
 2874              	.LASF136:
 2875 034b 5F726573 		.ascii	"_result\000"
 2875      756C7400 
 2876              	.LASF74:
 2877 0353 5F5F7763 		.ascii	"__wch\000"
 2877      6800
 2878              	.LASF39:
ARM GAS  /tmp/ccMB938d.s 			page 56


 2879 0359 4D4D4641 		.ascii	"MMFAR\000"
 2879      5200
 2880              	.LASF142:
 2881 035f 5F6E6577 		.ascii	"_new\000"
 2881      00
 2882              	.LASF122:
 2883 0364 5F6C6F63 		.ascii	"_lock\000"
 2883      6B00
 2884              	.LASF42:
 2885 036a 4D4D4652 		.ascii	"MMFR\000"
 2885      00
 2886              	.LASF55:
 2887 036f 4E564943 		.ascii	"NVIC_IRQChannel\000"
 2887      5F495251 
 2887      4368616E 
 2887      6E656C00 
 2888              	.LASF56:
 2889 037f 4E564943 		.ascii	"NVIC_IRQChannelPreemptionPriority\000"
 2889      5F495251 
 2889      4368616E 
 2889      6E656C50 
 2889      7265656D 
 2890              	.LASF114:
 2891 03a1 5F777269 		.ascii	"_write\000"
 2891      746500
 2892              	.LASF93:
 2893 03a8 5F5F746D 		.ascii	"__tm_year\000"
 2893      5F796561 
 2893      7200
 2894              	.LASF175:
 2895 03b2 5F6E6D61 		.ascii	"_nmalloc\000"
 2895      6C6C6F63 
 2895      00
 2896              	.LASF70:
 2897 03bb 5F4C4F43 		.ascii	"_LOCK_RECURSIVE_T\000"
 2897      4B5F5245 
 2897      43555253 
 2897      4956455F 
 2897      5400
 2898              	.LASF29:
 2899 03cd 73697A65 		.ascii	"sizetype\000"
 2899      74797065 
 2899      00
 2900              	.LASF47:
 2901 03d6 4C4F4144 		.ascii	"LOAD\000"
 2901      00
 2902              	.LASF36:
 2903 03db 43465352 		.ascii	"CFSR\000"
 2903      00
 2904              	.LASF25:
 2905 03e0 49414252 		.ascii	"IABR\000"
 2905      00
 2906              	.LASF63:
 2907 03e5 47795F6F 		.ascii	"Gy_offset\000"
 2907      66667365 
 2907      7400
 2908              	.LASF174:
ARM GAS  /tmp/ccMB938d.s 			page 57


 2909 03ef 5F6E6578 		.ascii	"_nextf\000"
 2909      746600
 2910              	.LASF161:
 2911 03f6 5F723438 		.ascii	"_r48\000"
 2911      00
 2912              	.LASF61:
 2913 03fb 61636365 		.ascii	"accel\000"
 2913      6C00
 2914              	.LASF64:
 2915 0401 477A5F6F 		.ascii	"Gz_offset\000"
 2915      66667365 
 2915      7400
 2916              	.LASF54:
 2917 040b 46756E63 		.ascii	"FunctionalState\000"
 2917      74696F6E 
 2917      616C5374 
 2917      61746500 
 2918              	.LASF92:
 2919 041b 5F5F746D 		.ascii	"__tm_mon\000"
 2919      5F6D6F6E 
 2919      00
 2920              	.LASF19:
 2921 0424 49434552 		.ascii	"ICER\000"
 2921      00
 2922              	.LASF102:
 2923 0429 5F617465 		.ascii	"_atexit\000"
 2923      78697400 
 2924              	.LASF134:
 2925 0431 5F5F7364 		.ascii	"__sdidinit\000"
 2925      6964696E 
 2925      697400
 2926              	.LASF159:
 2927 043c 5F67616D 		.ascii	"_gamma_signgam\000"
 2927      6D615F73 
 2927      69676E67 
 2927      616D00
 2928              	.LASF73:
 2929 044b 77696E74 		.ascii	"wint_t\000"
 2929      5F7400
 2930              	.LASF187:
 2931 0452 53797354 		.ascii	"SysTick_CLKSource\000"
 2931      69636B5F 
 2931      434C4B53 
 2931      6F757263 
 2931      6500
 2932              	.LASF66:
 2933 0464 666C6F61 		.ascii	"float\000"
 2933      7400
 2934              	.LASF139:
 2935 046a 5F667265 		.ascii	"_freelist\000"
 2935      656C6973 
 2935      7400
 2936              	.LASF67:
 2937 0474 50697463 		.ascii	"Pitch\000"
 2937      6800
 2938              	.LASF18:
 2939 047a 52455345 		.ascii	"RESERVED0\000"
ARM GAS  /tmp/ccMB938d.s 			page 58


 2939      52564544 
 2939      3000
 2940              	.LASF22:
 2941 0484 52455345 		.ascii	"RESERVED2\000"
 2941      52564544 
 2941      3200
 2942              	.LASF24:
 2943 048e 52455345 		.ascii	"RESERVED3\000"
 2943      52564544 
 2943      3300
 2944              	.LASF26:
 2945 0498 52455345 		.ascii	"RESERVED4\000"
 2945      52564544 
 2945      3400
 2946              	.LASF27:
 2947 04a2 52455345 		.ascii	"RESERVED5\000"
 2947      52564544 
 2947      3500
 2948              	.LASF15:
 2949 04ac 696E7433 		.ascii	"int32_t\000"
 2949      325F7400 
 2950              	.LASF1:
 2951 04b4 756E7369 		.ascii	"unsigned char\000"
 2951      676E6564 
 2951      20636861 
 2951      7200
 2952              	.LASF35:
 2953 04c2 53484353 		.ascii	"SHCSR\000"
 2953      5200
 2954              	.LASF50:
 2955 04c8 49544D5F 		.ascii	"ITM_RxBuffer\000"
 2955      52784275 
 2955      66666572 
 2955      00
 2956              	.LASF173:
 2957 04d5 5F685F65 		.ascii	"_h_errno\000"
 2957      72726E6F 
 2957      00
 2958              	.LASF79:
 2959 04de 5F666C6F 		.ascii	"_flock_t\000"
 2959      636B5F74 
 2959      00
 2960              	.LASF95:
 2961 04e7 5F5F746D 		.ascii	"__tm_yday\000"
 2961      5F796461 
 2961      7900
 2962              	.LASF30:
 2963 04f1 4E564943 		.ascii	"NVIC_Type\000"
 2963      5F547970 
 2963      6500
 2964              	.LASF105:
 2965 04fb 5F5F7362 		.ascii	"__sbuf\000"
 2965      756600
 2966              	.LASF124:
 2967 0502 5F666C61 		.ascii	"_flags2\000"
 2967      67733200 
 2968              	.LASF150:
ARM GAS  /tmp/ccMB938d.s 			page 59


 2969 050a 5F696F62 		.ascii	"_iobs\000"
 2969      7300
 2970              	.LASF147:
 2971 0510 5F5F4649 		.ascii	"__FILE\000"
 2971      4C4500
 2972              	.LASF78:
 2973 0517 5F6D6273 		.ascii	"_mbstate_t\000"
 2973      74617465 
 2973      5F7400
 2974              	.LASF198:
 2975 0522 4E564943 		.ascii	"NVIC_PriorityGroup\000"
 2975      5F507269 
 2975      6F726974 
 2975      7947726F 
 2975      757000
 2976              	.LASF108:
 2977 0535 5F5F7346 		.ascii	"__sFILE\000"
 2977      494C4500 
 2978              	.LASF123:
 2979 053d 5F6D6273 		.ascii	"_mbstate\000"
 2979      74617465 
 2979      00
 2980              	.LASF160:
 2981 0546 5F72616E 		.ascii	"_rand_next\000"
 2981      645F6E65 
 2981      787400
 2982              	.LASF162:
 2983 0551 5F6D626C 		.ascii	"_mblen_state\000"
 2983      656E5F73 
 2983      74617465 
 2983      00
 2984              	.LASF130:
 2985 055e 5F696E63 		.ascii	"_inc\000"
 2985      00
 2986              	.LASF103:
 2987 0563 5F696E64 		.ascii	"_ind\000"
 2987      00
 2988              	.LASF52:
 2989 0568 44495341 		.ascii	"DISABLE\000"
 2989      424C4500 
 2990              	.LASF135:
 2991 0570 5F5F636C 		.ascii	"__cleanup\000"
 2991      65616E75 
 2991      7000
 2992              	.LASF83:
 2993 057a 5F6D6178 		.ascii	"_maxwds\000"
 2993      77647300 
 2994              	.LASF125:
 2995 0582 5F726565 		.ascii	"_reent\000"
 2995      6E7400
 2996              	.LASF152:
 2997 0589 5F736565 		.ascii	"_seed\000"
 2997      6400
 2998              	.LASF76:
 2999 058f 5F5F636F 		.ascii	"__count\000"
 2999      756E7400 
 3000              	.LASF188:
ARM GAS  /tmp/ccMB938d.s 			page 60


 3001 0597 4C6F7750 		.ascii	"LowPowerMode\000"
 3001      6F776572 
 3001      4D6F6465 
 3001      00
 3002              	.LASF77:
 3003 05a4 5F5F7661 		.ascii	"__value\000"
 3003      6C756500 
 3004              	.LASF57:
 3005 05ac 4E564943 		.ascii	"NVIC_IRQChannelSubPriority\000"
 3005      5F495251 
 3005      4368616E 
 3005      6E656C53 
 3005      75625072 
 3006              	.LASF115:
 3007 05c7 5F736565 		.ascii	"_seek\000"
 3007      6B00
 3008              	.LASF41:
 3009 05cd 41465352 		.ascii	"AFSR\000"
 3009      00
 3010              	.LASF94:
 3011 05d2 5F5F746D 		.ascii	"__tm_wday\000"
 3011      5F776461 
 3011      7900
 3012              	.LASF72:
 3013 05dc 5F66706F 		.ascii	"_fpos_t\000"
 3013      735F7400 
 3014              	.LASF69:
 3015 05e4 6C6F6E67 		.ascii	"long double\000"
 3015      20646F75 
 3015      626C6500 
 3016              	.LASF126:
 3017 05f0 5F657272 		.ascii	"_errno\000"
 3017      6E6F00
 3018              	.LASF80:
 3019 05f7 63686172 		.ascii	"char\000"
 3019      00
 3020              	.LASF166:
 3021 05fc 5F736967 		.ascii	"_signal_buf\000"
 3021      6E616C5F 
 3021      62756600 
 3022              	.LASF180:
 3023 0608 5F5F6664 		.ascii	"__fdlibm_ieee\000"
 3023      6C69626D 
 3023      5F696565 
 3023      6500
 3024              	.LASF107:
 3025 0616 5F73697A 		.ascii	"_size\000"
 3025      6500
 3026              	.LASF12:
 3027 061c 756E7369 		.ascii	"unsigned int\000"
 3027      676E6564 
 3027      20696E74 
 3027      00
 3028              	.LASF4:
 3029 0629 73686F72 		.ascii	"short int\000"
 3029      7420696E 
 3029      7400
ARM GAS  /tmp/ccMB938d.s 			page 61


 3030              	.LASF6:
 3031 0633 5F5F696E 		.ascii	"__int32_t\000"
 3031      7433325F 
 3031      7400
 3032              	.LASF153:
 3033 063d 5F6D756C 		.ascii	"_mult\000"
 3033      7400
 3034              	.LASF68:
 3035 0643 526F6C6C 		.ascii	"Roll\000"
 3035      00
 3036              	.LASF82:
 3037 0648 5F6E6578 		.ascii	"_next\000"
 3037      7400
 3038              	.LASF156:
 3039 064e 5F737472 		.ascii	"_strtok_last\000"
 3039      746F6B5F 
 3039      6C617374 
 3039      00
 3040              	.LASF100:
 3041 065b 5F666E74 		.ascii	"_fntypes\000"
 3041      79706573 
 3041      00
 3042              	.LASF199:
 3043 0664 474E5520 		.ascii	"GNU C11 6.1.1 20160526 -mcpu=cortex-m3 -mthumb -g -"
 3043      43313120 
 3043      362E312E 
 3043      31203230 
 3043      31363035 
 3044 0697 666E6F2D 		.ascii	"fno-common\000"
 3044      636F6D6D 
 3044      6F6E00
 3045              	.LASF5:
 3046 06a2 73686F72 		.ascii	"short unsigned int\000"
 3046      7420756E 
 3046      7369676E 
 3046      65642069 
 3046      6E7400
 3047              	.LASF154:
 3048 06b5 5F616464 		.ascii	"_add\000"
 3048      00
 3049              	.LASF81:
 3050 06ba 5F5F554C 		.ascii	"__ULong\000"
 3050      6F6E6700 
 3051              	.LASF167:
 3052 06c2 5F676574 		.ascii	"_getdate_err\000"
 3052      64617465 
 3052      5F657272 
 3052      00
 3053              	.LASF46:
 3054 06cf 4354524C 		.ascii	"CTRL\000"
 3054      00
 3055              	.LASF202:
 3056 06d4 5F5F6664 		.ascii	"__fdlibm_version\000"
 3056      6C69626D 
 3056      5F766572 
 3056      73696F6E 
 3056      00
ARM GAS  /tmp/ccMB938d.s 			page 62


 3057              	.LASF178:
 3058 06e5 5F676C6F 		.ascii	"_global_impure_ptr\000"
 3058      62616C5F 
 3058      696D7075 
 3058      72655F70 
 3058      747200
 3059              	.LASF132:
 3060 06f8 5F637572 		.ascii	"_current_category\000"
 3060      72656E74 
 3060      5F636174 
 3060      65676F72 
 3060      7900
 3061              	.LASF48:
 3062 070a 43414C49 		.ascii	"CALIB\000"
 3062      4200
 3063              	.LASF155:
 3064 0710 5F756E75 		.ascii	"_unused_rand\000"
 3064      7365645F 
 3064      72616E64 
 3064      00
 3065              	.LASF85:
 3066 071d 5F776473 		.ascii	"_wds\000"
 3066      00
 3067              	.LASF148:
 3068 0722 5F676C75 		.ascii	"_glue\000"
 3068      6500
 3069              	.LASF192:
 3070 0728 4F666673 		.ascii	"Offset\000"
 3070      657400
 3071              	.LASF109:
 3072 072f 5F666C61 		.ascii	"_flags\000"
 3072      677300
 3073              	.LASF13:
 3074 0736 75696E74 		.ascii	"uint8_t\000"
 3074      385F7400 
 3075              	.LASF165:
 3076 073e 5F6C3634 		.ascii	"_l64a_buf\000"
 3076      615F6275 
 3076      6600
 3077              	.LASF195:
 3078 0748 746D7070 		.ascii	"tmppriority\000"
 3078      72696F72 
 3078      69747900 
 3079              	.LASF203:
 3080 0754 4E564943 		.ascii	"NVIC_PriorityGroupConfig\000"
 3080      5F507269 
 3080      6F726974 
 3080      7947726F 
 3080      7570436F 
 3081              	.LASF20:
 3082 076d 52534552 		.ascii	"RSERVED1\000"
 3082      56454431 
 3082      00
 3083              	.LASF28:
 3084 0776 53544952 		.ascii	"STIR\000"
 3084      00
 3085              	.LASF3:
ARM GAS  /tmp/ccMB938d.s 			page 63


 3086 077b 5F5F696E 		.ascii	"__int16_t\000"
 3086      7431365F 
 3086      7400
 3087              	.LASF118:
 3088 0785 5F6E6275 		.ascii	"_nbuf\000"
 3088      6600
 3089              	.LASF176:
 3090 078b 5F756E75 		.ascii	"_unused\000"
 3090      73656400 
 3091              	.LASF185:
 3092 0793 53797354 		.ascii	"SysTick_CLKSourceConfig\000"
 3092      69636B5F 
 3092      434C4B53 
 3092      6F757263 
 3092      65436F6E 
 3093              	.LASF96:
 3094 07ab 5F5F746D 		.ascii	"__tm_isdst\000"
 3094      5F697364 
 3094      737400
 3095              	.LASF158:
 3096 07b6 5F6C6F63 		.ascii	"_localtime_buf\000"
 3096      616C7469 
 3096      6D655F62 
 3096      756600
 3097              	.LASF89:
 3098 07c5 5F5F746D 		.ascii	"__tm_min\000"
 3098      5F6D696E 
 3098      00
 3099              	.LASF200:
 3100 07ce 636F6D6D 		.ascii	"common/misc.c\000"
 3100      6F6E2F6D 
 3100      6973632E 
 3100      6300
 3101              	.LASF133:
 3102 07dc 5F637572 		.ascii	"_current_locale\000"
 3102      72656E74 
 3102      5F6C6F63 
 3102      616C6500 
 3103              	.LASF163:
 3104 07ec 5F6D6274 		.ascii	"_mbtowc_state\000"
 3104      6F77635F 
 3104      73746174 
 3104      6500
 3105              	.LASF138:
 3106 07fa 5F703573 		.ascii	"_p5s\000"
 3106      00
 3107              	.LASF44:
 3108 07ff 43504143 		.ascii	"CPACR\000"
 3108      5200
 3109              	.LASF37:
 3110 0805 48465352 		.ascii	"HFSR\000"
 3110      00
 3111              	.LASF111:
 3112 080a 5F6C6266 		.ascii	"_lbfsize\000"
 3112      73697A65 
 3112      00
 3113              	.LASF193:
ARM GAS  /tmp/ccMB938d.s 			page 64


 3114 0813 4E564943 		.ascii	"NVIC_Init\000"
 3114      5F496E69 
 3114      7400
 3115              	.LASF16:
 3116 081d 75696E74 		.ascii	"uint32_t\000"
 3116      33325F74 
 3116      00
 3117              	.LASF91:
 3118 0826 5F5F746D 		.ascii	"__tm_mday\000"
 3118      5F6D6461 
 3118      7900
 3119              	.LASF59:
 3120 0830 4E564943 		.ascii	"NVIC_InitTypeDef\000"
 3120      5F496E69 
 3120      74547970 
 3120      65446566 
 3120      00
 3121              		.ident	"GCC: (Arch Repository) 6.1.1 20160526"
ARM GAS  /tmp/ccMB938d.s 			page 65


DEFINED SYMBOLS
                            *ABS*:0000000000000000 misc.c
     /tmp/ccMB938d.s:15     .text:0000000000000000 $t
     /tmp/ccMB938d.s:22     .text:0000000000000000 NVIC_PriorityGroupConfig
     /tmp/ccMB938d.s:58     .text:0000000000000020 $d
     /tmp/ccMB938d.s:62     .text:0000000000000024 $t
     /tmp/ccMB938d.s:69     .text:0000000000000024 NVIC_Init
     /tmp/ccMB938d.s:190    .text:00000000000000e0 $d
     /tmp/ccMB938d.s:195    .text:00000000000000e8 $t
     /tmp/ccMB938d.s:202    .text:00000000000000e8 NVIC_SetVectorTable
     /tmp/ccMB938d.s:240    .text:0000000000000110 $d
     /tmp/ccMB938d.s:244    .text:0000000000000114 $t
     /tmp/ccMB938d.s:251    .text:0000000000000114 NVIC_SystemLPConfig
     /tmp/ccMB938d.s:307    .text:0000000000000150 $d
     /tmp/ccMB938d.s:311    .text:0000000000000154 $t
     /tmp/ccMB938d.s:318    .text:0000000000000154 SysTick_CLKSourceConfig
     /tmp/ccMB938d.s:367    .text:0000000000000188 $d
                     .debug_frame:0000000000000010 $d

NO UNDEFINED SYMBOLS
