ARM GAS  /tmp/ccUNhkLT.s 			page 1


   1              		.cpu cortex-m3
   2              		.eabi_attribute 20, 1
   3              		.eabi_attribute 21, 1
   4              		.eabi_attribute 23, 3
   5              		.eabi_attribute 24, 1
   6              		.eabi_attribute 25, 1
   7              		.eabi_attribute 26, 1
   8              		.eabi_attribute 30, 1
   9              		.eabi_attribute 34, 1
  10              		.eabi_attribute 18, 4
  11              		.file	"misc.c"
  12              		.text
  13              	.Ltext0:
  14              		.cfi_sections	.debug_frame
  15              		.align	1
  16              		.global	NVIC_PriorityGroupConfig
  17              		.syntax unified
  18              		.thumb
  19              		.thumb_func
  20              		.fpu softvfp
  21              		.type	NVIC_PriorityGroupConfig, %function
  22              	NVIC_PriorityGroupConfig:
  23              	.LFB64:
  24              		.file 1 "lib/src/misc.c"
   1:lib/src/misc.c **** /**
   2:lib/src/misc.c ****   ******************************************************************************
   3:lib/src/misc.c ****   * @file    misc.c
   4:lib/src/misc.c ****   * @author  MCD Application Team
   5:lib/src/misc.c ****   * @version V3.5.0
   6:lib/src/misc.c ****   * @date    11-March-2011
   7:lib/src/misc.c ****   * @brief   This file provides all the miscellaneous firmware functions (add-on
   8:lib/src/misc.c ****   *          to CMSIS functions).
   9:lib/src/misc.c ****   ******************************************************************************
  10:lib/src/misc.c ****   * @attention
  11:lib/src/misc.c ****   *
  12:lib/src/misc.c ****   * THE PRESENT FIRMWARE WHICH IS FOR GUIDANCE ONLY AIMS AT PROVIDING CUSTOMERS
  13:lib/src/misc.c ****   * WITH CODING INFORMATION REGARDING THEIR PRODUCTS IN ORDER FOR THEM TO SAVE
  14:lib/src/misc.c ****   * TIME. AS A RESULT, STMICROELECTRONICS SHALL NOT BE HELD LIABLE FOR ANY
  15:lib/src/misc.c ****   * DIRECT, INDIRECT OR CONSEQUENTIAL DAMAGES WITH RESPECT TO ANY CLAIMS ARISING
  16:lib/src/misc.c ****   * FROM THE CONTENT OF SUCH FIRMWARE AND/OR THE USE MADE BY CUSTOMERS OF THE
  17:lib/src/misc.c ****   * CODING INFORMATION CONTAINED HEREIN IN CONNECTION WITH THEIR PRODUCTS.
  18:lib/src/misc.c ****   *
  19:lib/src/misc.c ****   * <h2><center>&copy; COPYRIGHT 2011 STMicroelectronics</center></h2>
  20:lib/src/misc.c ****   ******************************************************************************
  21:lib/src/misc.c ****   */
  22:lib/src/misc.c **** 
  23:lib/src/misc.c **** /* Includes ------------------------------------------------------------------*/
  24:lib/src/misc.c **** #include "misc.h"
  25:lib/src/misc.c **** #include "conf.h"
  26:lib/src/misc.c **** 
  27:lib/src/misc.c **** /** @addtogroup STM32F10x_StdPeriph_Driver
  28:lib/src/misc.c ****   * @{
  29:lib/src/misc.c ****   */
  30:lib/src/misc.c **** 
  31:lib/src/misc.c **** /** @defgroup MISC 
  32:lib/src/misc.c ****   * @brief MISC driver modules
  33:lib/src/misc.c ****   * @{
ARM GAS  /tmp/ccUNhkLT.s 			page 2


  34:lib/src/misc.c ****   */
  35:lib/src/misc.c **** 
  36:lib/src/misc.c **** /** @defgroup MISC_Private_TypesDefinitions
  37:lib/src/misc.c ****   * @{
  38:lib/src/misc.c ****   */
  39:lib/src/misc.c **** 
  40:lib/src/misc.c **** /**
  41:lib/src/misc.c ****   * @}
  42:lib/src/misc.c ****   */ 
  43:lib/src/misc.c **** 
  44:lib/src/misc.c **** /** @defgroup MISC_Private_Defines
  45:lib/src/misc.c ****   * @{
  46:lib/src/misc.c ****   */
  47:lib/src/misc.c **** 
  48:lib/src/misc.c **** #define AIRCR_VECTKEY_MASK    ((uint32_t)0x05FA0000)
  49:lib/src/misc.c **** /**
  50:lib/src/misc.c ****   * @}
  51:lib/src/misc.c ****   */
  52:lib/src/misc.c **** 
  53:lib/src/misc.c **** /** @defgroup MISC_Private_Macros
  54:lib/src/misc.c ****   * @{
  55:lib/src/misc.c ****   */
  56:lib/src/misc.c **** 
  57:lib/src/misc.c **** /**
  58:lib/src/misc.c ****   * @}
  59:lib/src/misc.c ****   */
  60:lib/src/misc.c **** 
  61:lib/src/misc.c **** /** @defgroup MISC_Private_Variables
  62:lib/src/misc.c ****   * @{
  63:lib/src/misc.c ****   */
  64:lib/src/misc.c **** 
  65:lib/src/misc.c **** /**
  66:lib/src/misc.c ****   * @}
  67:lib/src/misc.c ****   */
  68:lib/src/misc.c **** 
  69:lib/src/misc.c **** /** @defgroup MISC_Private_FunctionPrototypes
  70:lib/src/misc.c ****   * @{
  71:lib/src/misc.c ****   */
  72:lib/src/misc.c **** 
  73:lib/src/misc.c **** /**
  74:lib/src/misc.c ****   * @}
  75:lib/src/misc.c ****   */
  76:lib/src/misc.c **** 
  77:lib/src/misc.c **** /** @defgroup MISC_Private_Functions
  78:lib/src/misc.c ****   * @{
  79:lib/src/misc.c ****   */
  80:lib/src/misc.c **** 
  81:lib/src/misc.c **** /**
  82:lib/src/misc.c ****   * @brief  Configures the priority grouping: pre-emption priority and subpriority.
  83:lib/src/misc.c ****   * @param  NVIC_PriorityGroup: specifies the priority grouping bits length. 
  84:lib/src/misc.c ****   *   This parameter can be one of the following values:
  85:lib/src/misc.c ****   *     @arg NVIC_PriorityGroup_0: 0 bits for pre-emption priority
  86:lib/src/misc.c ****   *                                4 bits for subpriority
  87:lib/src/misc.c ****   *     @arg NVIC_PriorityGroup_1: 1 bits for pre-emption priority
  88:lib/src/misc.c ****   *                                3 bits for subpriority
  89:lib/src/misc.c ****   *     @arg NVIC_PriorityGroup_2: 2 bits for pre-emption priority
  90:lib/src/misc.c ****   *                                2 bits for subpriority
ARM GAS  /tmp/ccUNhkLT.s 			page 3


  91:lib/src/misc.c ****   *     @arg NVIC_PriorityGroup_3: 3 bits for pre-emption priority
  92:lib/src/misc.c ****   *                                1 bits for subpriority
  93:lib/src/misc.c ****   *     @arg NVIC_PriorityGroup_4: 4 bits for pre-emption priority
  94:lib/src/misc.c ****   *                                0 bits for subpriority
  95:lib/src/misc.c ****   * @retval None
  96:lib/src/misc.c ****   */
  97:lib/src/misc.c **** void NVIC_PriorityGroupConfig(uint32_t NVIC_PriorityGroup)
  98:lib/src/misc.c **** {
  25              		.loc 1 98 0
  26              		.cfi_startproc
  27              		@ args = 0, pretend = 0, frame = 0
  28              		@ frame_needed = 0, uses_anonymous_args = 0
  29              		@ link register save eliminated.
  30              	.LVL0:
  99:lib/src/misc.c ****   /* Check the parameters */
 100:lib/src/misc.c ****   assert_param(IS_NVIC_PRIORITY_GROUP(NVIC_PriorityGroup));
 101:lib/src/misc.c ****   
 102:lib/src/misc.c ****   /* Set the PRIGROUP[10:8] bits according to NVIC_PriorityGroup value */
 103:lib/src/misc.c ****   SCB->AIRCR = AIRCR_VECTKEY_MASK | NVIC_PriorityGroup;
  31              		.loc 1 103 0
  32 0000 40F0BF60 		orr	r0, r0, #100139008
  33              	.LVL1:
  34 0004 40F40030 		orr	r0, r0, #131072
  35 0008 014B     		ldr	r3, .L2
  36 000a D860     		str	r0, [r3, #12]
  37 000c 7047     		bx	lr
  38              	.L3:
  39 000e 00BF     		.align	2
  40              	.L2:
  41 0010 00ED00E0 		.word	-536810240
  42              		.cfi_endproc
  43              	.LFE64:
  44              		.size	NVIC_PriorityGroupConfig, .-NVIC_PriorityGroupConfig
  45              		.align	1
  46              		.global	NVIC_Init
  47              		.syntax unified
  48              		.thumb
  49              		.thumb_func
  50              		.fpu softvfp
  51              		.type	NVIC_Init, %function
  52              	NVIC_Init:
  53              	.LFB65:
 104:lib/src/misc.c **** }
 105:lib/src/misc.c **** 
 106:lib/src/misc.c **** /**
 107:lib/src/misc.c ****   * @brief  Initializes the NVIC peripheral according to the specified
 108:lib/src/misc.c ****   *         parameters in the NVIC_InitStruct.
 109:lib/src/misc.c ****   * @param  NVIC_InitStruct: pointer to a NVIC_InitTypeDef structure that contains
 110:lib/src/misc.c ****   *         the configuration information for the specified NVIC peripheral.
 111:lib/src/misc.c ****   * @retval None
 112:lib/src/misc.c ****   */
 113:lib/src/misc.c **** void NVIC_Init(NVIC_InitTypeDef* NVIC_InitStruct)
 114:lib/src/misc.c **** {
  54              		.loc 1 114 0
  55              		.cfi_startproc
  56              		@ args = 0, pretend = 0, frame = 0
  57              		@ frame_needed = 0, uses_anonymous_args = 0
ARM GAS  /tmp/ccUNhkLT.s 			page 4


  58              		@ link register save eliminated.
  59              	.LVL2:
 115:lib/src/misc.c ****   uint32_t tmppriority = 0x00, tmppre = 0x00, tmpsub = 0x0F;
 116:lib/src/misc.c ****   
 117:lib/src/misc.c ****   /* Check the parameters */
 118:lib/src/misc.c ****   assert_param(IS_FUNCTIONAL_STATE(NVIC_InitStruct->NVIC_IRQChannelCmd));
 119:lib/src/misc.c ****   assert_param(IS_NVIC_PREEMPTION_PRIORITY(NVIC_InitStruct->NVIC_IRQChannelPreemptionPriority));  
 120:lib/src/misc.c ****   assert_param(IS_NVIC_SUB_PRIORITY(NVIC_InitStruct->NVIC_IRQChannelSubPriority));
 121:lib/src/misc.c ****     
 122:lib/src/misc.c ****   if (NVIC_InitStruct->NVIC_IRQChannelCmd != DISABLE)
  60              		.loc 1 122 0
  61 0014 C378     		ldrb	r3, [r0, #3]	@ zero_extendqisi2
  62 0016 5BB9     		cbnz	r3, .L7
 123:lib/src/misc.c ****   {
 124:lib/src/misc.c ****     /* Compute the Corresponding IRQ Priority --------------------------------*/    
 125:lib/src/misc.c ****     tmppriority = (0x700 - ((SCB->AIRCR) & (uint32_t)0x700))>> 0x08;
 126:lib/src/misc.c ****     tmppre = (0x4 - tmppriority);
 127:lib/src/misc.c ****     tmpsub = tmpsub >> tmppriority;
 128:lib/src/misc.c **** 
 129:lib/src/misc.c ****     tmppriority = (uint32_t)NVIC_InitStruct->NVIC_IRQChannelPreemptionPriority << tmppre;
 130:lib/src/misc.c ****     tmppriority |=  NVIC_InitStruct->NVIC_IRQChannelSubPriority & tmpsub;
 131:lib/src/misc.c ****     tmppriority = tmppriority << 0x04;
 132:lib/src/misc.c ****         
 133:lib/src/misc.c ****     NVIC->IP[NVIC_InitStruct->NVIC_IRQChannel] = tmppriority;
 134:lib/src/misc.c ****     
 135:lib/src/misc.c ****     /* Enable the Selected IRQ Channels --------------------------------------*/
 136:lib/src/misc.c ****     NVIC->ISER[NVIC_InitStruct->NVIC_IRQChannel >> 0x05] =
 137:lib/src/misc.c ****       (uint32_t)0x01 << (NVIC_InitStruct->NVIC_IRQChannel & (uint8_t)0x1F);
 138:lib/src/misc.c ****   }
 139:lib/src/misc.c ****   else
 140:lib/src/misc.c ****   {
 141:lib/src/misc.c ****     /* Disable the Selected IRQ Channels -------------------------------------*/
 142:lib/src/misc.c ****     NVIC->ICER[NVIC_InitStruct->NVIC_IRQChannel >> 0x05] =
  63              		.loc 1 142 0
  64 0018 0378     		ldrb	r3, [r0]	@ zero_extendqisi2
  65 001a 5A09     		lsrs	r2, r3, #5
 143:lib/src/misc.c ****       (uint32_t)0x01 << (NVIC_InitStruct->NVIC_IRQChannel & (uint8_t)0x1F);
  66              		.loc 1 143 0
  67 001c 03F01F03 		and	r3, r3, #31
  68 0020 0121     		movs	r1, #1
  69 0022 01FA03F3 		lsl	r3, r1, r3
 142:lib/src/misc.c ****       (uint32_t)0x01 << (NVIC_InitStruct->NVIC_IRQChannel & (uint8_t)0x1F);
  70              		.loc 1 142 0
  71 0026 2032     		adds	r2, r2, #32
  72 0028 1149     		ldr	r1, .L8
  73 002a 41F82230 		str	r3, [r1, r2, lsl #2]
  74 002e 7047     		bx	lr
  75              	.L7:
 125:lib/src/misc.c ****     tmppre = (0x4 - tmppriority);
  76              		.loc 1 125 0
  77 0030 104B     		ldr	r3, .L8+4
  78 0032 DA68     		ldr	r2, [r3, #12]
  79 0034 D243     		mvns	r2, r2
  80 0036 C2F30222 		ubfx	r2, r2, #8, #3
  81              	.LVL3:
 126:lib/src/misc.c ****     tmpsub = tmpsub >> tmppriority;
  82              		.loc 1 126 0
ARM GAS  /tmp/ccUNhkLT.s 			page 5


  83 003a C2F10401 		rsb	r1, r2, #4
  84              	.LVL4:
 129:lib/src/misc.c ****     tmppriority |=  NVIC_InitStruct->NVIC_IRQChannelSubPriority & tmpsub;
  85              		.loc 1 129 0
  86 003e 4378     		ldrb	r3, [r0, #1]	@ zero_extendqisi2
  87 0040 8B40     		lsls	r3, r3, r1
  88              	.LVL5:
 127:lib/src/misc.c **** 
  89              		.loc 1 127 0
  90 0042 0F21     		movs	r1, #15
  91              	.LVL6:
  92 0044 21FA02F2 		lsr	r2, r1, r2
  93              	.LVL7:
 130:lib/src/misc.c ****     tmppriority = tmppriority << 0x04;
  94              		.loc 1 130 0
  95 0048 8178     		ldrb	r1, [r0, #2]	@ zero_extendqisi2
  96 004a 0A40     		ands	r2, r2, r1
  97              	.LVL8:
  98 004c 1343     		orrs	r3, r3, r2
  99              	.LVL9:
 133:lib/src/misc.c ****     
 100              		.loc 1 133 0
 101 004e 0278     		ldrb	r2, [r0]	@ zero_extendqisi2
 131:lib/src/misc.c ****         
 102              		.loc 1 131 0
 103 0050 1B01     		lsls	r3, r3, #4
 104              	.LVL10:
 133:lib/src/misc.c ****     
 105              		.loc 1 133 0
 106 0052 DBB2     		uxtb	r3, r3
 107              	.LVL11:
 108 0054 0649     		ldr	r1, .L8
 109 0056 0A44     		add	r2, r2, r1
 110 0058 82F80033 		strb	r3, [r2, #768]
 136:lib/src/misc.c ****       (uint32_t)0x01 << (NVIC_InitStruct->NVIC_IRQChannel & (uint8_t)0x1F);
 111              		.loc 1 136 0
 112 005c 0378     		ldrb	r3, [r0]	@ zero_extendqisi2
 113 005e 5809     		lsrs	r0, r3, #5
 114              	.LVL12:
 137:lib/src/misc.c ****   }
 115              		.loc 1 137 0
 116 0060 03F01F03 		and	r3, r3, #31
 117 0064 0122     		movs	r2, #1
 118 0066 02FA03F3 		lsl	r3, r2, r3
 136:lib/src/misc.c ****       (uint32_t)0x01 << (NVIC_InitStruct->NVIC_IRQChannel & (uint8_t)0x1F);
 119              		.loc 1 136 0
 120 006a 41F82030 		str	r3, [r1, r0, lsl #2]
 121 006e 7047     		bx	lr
 122              	.L9:
 123              		.align	2
 124              	.L8:
 125 0070 00E100E0 		.word	-536813312
 126 0074 00ED00E0 		.word	-536810240
 127              		.cfi_endproc
 128              	.LFE65:
 129              		.size	NVIC_Init, .-NVIC_Init
 130              		.align	1
ARM GAS  /tmp/ccUNhkLT.s 			page 6


 131              		.global	NVIC_SetVectorTable
 132              		.syntax unified
 133              		.thumb
 134              		.thumb_func
 135              		.fpu softvfp
 136              		.type	NVIC_SetVectorTable, %function
 137              	NVIC_SetVectorTable:
 138              	.LFB66:
 144:lib/src/misc.c ****   }
 145:lib/src/misc.c **** }
 146:lib/src/misc.c **** 
 147:lib/src/misc.c **** /**
 148:lib/src/misc.c ****   * @brief  Sets the vector table location and Offset.
 149:lib/src/misc.c ****   * @param  NVIC_VectTab: specifies if the vector table is in RAM or FLASH memory.
 150:lib/src/misc.c ****   *   This parameter can be one of the following values:
 151:lib/src/misc.c ****   *     @arg NVIC_VectTab_RAM
 152:lib/src/misc.c ****   *     @arg NVIC_VectTab_FLASH
 153:lib/src/misc.c ****   * @param  Offset: Vector Table base offset field. This value must be a multiple 
 154:lib/src/misc.c ****   *         of 0x200.
 155:lib/src/misc.c ****   * @retval None
 156:lib/src/misc.c ****   */
 157:lib/src/misc.c **** void NVIC_SetVectorTable(uint32_t NVIC_VectTab, uint32_t Offset)
 158:lib/src/misc.c **** { 
 139              		.loc 1 158 0
 140              		.cfi_startproc
 141              		@ args = 0, pretend = 0, frame = 0
 142              		@ frame_needed = 0, uses_anonymous_args = 0
 143              		@ link register save eliminated.
 144              	.LVL13:
 159:lib/src/misc.c ****   /* Check the parameters */
 160:lib/src/misc.c ****   assert_param(IS_NVIC_VECTTAB(NVIC_VectTab));
 161:lib/src/misc.c ****   assert_param(IS_NVIC_OFFSET(Offset));  
 162:lib/src/misc.c ****    
 163:lib/src/misc.c ****   SCB->VTOR = NVIC_VectTab | (Offset & (uint32_t)0x1FFFFF80);
 145              		.loc 1 163 0
 146 0078 21F06041 		bic	r1, r1, #-536870912
 147              	.LVL14:
 148 007c 21F07F01 		bic	r1, r1, #127
 149 0080 0143     		orrs	r1, r1, r0
 150 0082 014B     		ldr	r3, .L11
 151 0084 9960     		str	r1, [r3, #8]
 152 0086 7047     		bx	lr
 153              	.L12:
 154              		.align	2
 155              	.L11:
 156 0088 00ED00E0 		.word	-536810240
 157              		.cfi_endproc
 158              	.LFE66:
 159              		.size	NVIC_SetVectorTable, .-NVIC_SetVectorTable
 160              		.align	1
 161              		.global	NVIC_SystemLPConfig
 162              		.syntax unified
 163              		.thumb
 164              		.thumb_func
 165              		.fpu softvfp
 166              		.type	NVIC_SystemLPConfig, %function
 167              	NVIC_SystemLPConfig:
ARM GAS  /tmp/ccUNhkLT.s 			page 7


 168              	.LFB67:
 164:lib/src/misc.c **** }
 165:lib/src/misc.c **** 
 166:lib/src/misc.c **** /**
 167:lib/src/misc.c ****   * @brief  Selects the condition for the system to enter low power mode.
 168:lib/src/misc.c ****   * @param  LowPowerMode: Specifies the new mode for the system to enter low power mode.
 169:lib/src/misc.c ****   *   This parameter can be one of the following values:
 170:lib/src/misc.c ****   *     @arg NVIC_LP_SEVONPEND
 171:lib/src/misc.c ****   *     @arg NVIC_LP_SLEEPDEEP
 172:lib/src/misc.c ****   *     @arg NVIC_LP_SLEEPONEXIT
 173:lib/src/misc.c ****   * @param  NewState: new state of LP condition. This parameter can be: ENABLE or DISABLE.
 174:lib/src/misc.c ****   * @retval None
 175:lib/src/misc.c ****   */
 176:lib/src/misc.c **** void NVIC_SystemLPConfig(uint8_t LowPowerMode, FunctionalState NewState)
 177:lib/src/misc.c **** {
 169              		.loc 1 177 0
 170              		.cfi_startproc
 171              		@ args = 0, pretend = 0, frame = 0
 172              		@ frame_needed = 0, uses_anonymous_args = 0
 173              		@ link register save eliminated.
 174              	.LVL15:
 178:lib/src/misc.c ****   /* Check the parameters */
 179:lib/src/misc.c ****   assert_param(IS_NVIC_LP(LowPowerMode));
 180:lib/src/misc.c ****   assert_param(IS_FUNCTIONAL_STATE(NewState));  
 181:lib/src/misc.c ****   
 182:lib/src/misc.c ****   if (NewState != DISABLE)
 175              		.loc 1 182 0
 176 008c 29B9     		cbnz	r1, .L16
 183:lib/src/misc.c ****   {
 184:lib/src/misc.c ****     SCB->SCR |= LowPowerMode;
 185:lib/src/misc.c ****   }
 186:lib/src/misc.c ****   else
 187:lib/src/misc.c ****   {
 188:lib/src/misc.c ****     SCB->SCR &= (uint32_t)(~(uint32_t)LowPowerMode);
 177              		.loc 1 188 0
 178 008e 054A     		ldr	r2, .L17
 179 0090 1369     		ldr	r3, [r2, #16]
 180 0092 23EA0000 		bic	r0, r3, r0
 181              	.LVL16:
 182 0096 1061     		str	r0, [r2, #16]
 183 0098 7047     		bx	lr
 184              	.LVL17:
 185              	.L16:
 184:lib/src/misc.c ****   }
 186              		.loc 1 184 0
 187 009a 024B     		ldr	r3, .L17
 188 009c 1A69     		ldr	r2, [r3, #16]
 189 009e 1043     		orrs	r0, r0, r2
 190              	.LVL18:
 191 00a0 1861     		str	r0, [r3, #16]
 192 00a2 7047     		bx	lr
 193              	.L18:
 194              		.align	2
 195              	.L17:
 196 00a4 00ED00E0 		.word	-536810240
 197              		.cfi_endproc
 198              	.LFE67:
ARM GAS  /tmp/ccUNhkLT.s 			page 8


 199              		.size	NVIC_SystemLPConfig, .-NVIC_SystemLPConfig
 200              		.align	1
 201              		.global	SysTick_CLKSourceConfig
 202              		.syntax unified
 203              		.thumb
 204              		.thumb_func
 205              		.fpu softvfp
 206              		.type	SysTick_CLKSourceConfig, %function
 207              	SysTick_CLKSourceConfig:
 208              	.LFB68:
 189:lib/src/misc.c ****   }
 190:lib/src/misc.c **** }
 191:lib/src/misc.c **** 
 192:lib/src/misc.c **** /**
 193:lib/src/misc.c ****   * @brief  Configures the SysTick clock source.
 194:lib/src/misc.c ****   * @param  SysTick_CLKSource: specifies the SysTick clock source.
 195:lib/src/misc.c ****   *   This parameter can be one of the following values:
 196:lib/src/misc.c ****   *     @arg SysTick_CLKSource_HCLK_Div8: AHB clock divided by 8 selected as SysTick clock source.
 197:lib/src/misc.c ****   *     @arg SysTick_CLKSource_HCLK: AHB clock selected as SysTick clock source.
 198:lib/src/misc.c ****   * @retval None
 199:lib/src/misc.c ****   */
 200:lib/src/misc.c **** void SysTick_CLKSourceConfig(uint32_t SysTick_CLKSource)
 201:lib/src/misc.c **** {
 209              		.loc 1 201 0
 210              		.cfi_startproc
 211              		@ args = 0, pretend = 0, frame = 0
 212              		@ frame_needed = 0, uses_anonymous_args = 0
 213              		@ link register save eliminated.
 214              	.LVL19:
 202:lib/src/misc.c ****   /* Check the parameters */
 203:lib/src/misc.c ****   assert_param(IS_SYSTICK_CLK_SOURCE(SysTick_CLKSource));
 204:lib/src/misc.c ****   if (SysTick_CLKSource == SysTick_CLKSource_HCLK)
 215              		.loc 1 204 0
 216 00a8 0428     		cmp	r0, #4
 205:lib/src/misc.c ****   {
 206:lib/src/misc.c ****     SysTick->CTRL |= SysTick_CLKSource_HCLK;
 217              		.loc 1 206 0
 218 00aa 044A     		ldr	r2, .L22
 219 00ac 1368     		ldr	r3, [r2]
 220 00ae 0CBF     		ite	eq
 221 00b0 43F00403 		orreq	r3, r3, #4
 207:lib/src/misc.c ****   }
 208:lib/src/misc.c ****   else
 209:lib/src/misc.c ****   {
 210:lib/src/misc.c ****     SysTick->CTRL &= SysTick_CLKSource_HCLK_Div8;
 222              		.loc 1 210 0
 223 00b4 23F00403 		bicne	r3, r3, #4
 224 00b8 1360     		str	r3, [r2]
 225 00ba 7047     		bx	lr
 226              	.L23:
 227              		.align	2
 228              	.L22:
 229 00bc 10E000E0 		.word	-536813552
 230              		.cfi_endproc
 231              	.LFE68:
 232              		.size	SysTick_CLKSourceConfig, .-SysTick_CLKSourceConfig
 233              	.Letext0:
ARM GAS  /tmp/ccUNhkLT.s 			page 9


 234              		.file 2 "/usr/arm-none-eabi/include/machine/_default_types.h"
 235              		.file 3 "/usr/arm-none-eabi/include/sys/_stdint.h"
 236              		.file 4 "/home/enbin/Documents/code/STM/stm32-quadrocopter/cmsis/core_cm3.h"
 237              		.file 5 "/home/enbin/Documents/code/STM/stm32-quadrocopter/lib/inc/system_stm32f10x.h"
 238              		.file 6 "/home/enbin/Documents/code/STM/stm32-quadrocopter/lib/inc/stm32f10x.h"
 239              		.file 7 "/home/enbin/Documents/code/STM/stm32-quadrocopter/lib/inc/misc.h"
 240              		.file 8 "/home/enbin/Documents/code/STM/stm32-quadrocopter/drivers/MPU6050.h"
 241              		.file 9 "/usr/arm-none-eabi/include/sys/lock.h"
 242              		.file 10 "/usr/arm-none-eabi/include/sys/_types.h"
 243              		.file 11 "/usr/lib/gcc/arm-none-eabi/6.1.1/include/stddef.h"
 244              		.file 12 "/usr/arm-none-eabi/include/sys/reent.h"
 245              		.file 13 "/usr/arm-none-eabi/include/stdlib.h"
 246              		.file 14 "/usr/arm-none-eabi/include/math.h"
 247              		.file 15 "/usr/arm-none-eabi/include/sys/errno.h"
 248              		.section	.debug_info,"",%progbits
 249              	.Ldebug_info0:
 250 0000 760E0000 		.4byte	0xe76
 251 0004 0400     		.2byte	0x4
 252 0006 00000000 		.4byte	.Ldebug_abbrev0
 253 000a 04       		.byte	0x4
 254 000b 01       		.uleb128 0x1
 255 000c 80050000 		.4byte	.LASF204
 256 0010 01       		.byte	0x1
 257 0011 11080000 		.4byte	.LASF205
 258 0015 9A010000 		.4byte	.LASF206
 259 0019 00000000 		.4byte	.Ltext0
 260 001d C0000000 		.4byte	.Letext0-.Ltext0
 261 0021 00000000 		.4byte	.Ldebug_line0
 262 0025 02       		.uleb128 0x2
 263 0026 01       		.byte	0x1
 264 0027 06       		.byte	0x6
 265 0028 21010000 		.4byte	.LASF0
 266 002c 03       		.uleb128 0x3
 267 002d 60000000 		.4byte	.LASF2
 268 0031 02       		.byte	0x2
 269 0032 1D       		.byte	0x1d
 270 0033 37000000 		.4byte	0x37
 271 0037 02       		.uleb128 0x2
 272 0038 01       		.byte	0x1
 273 0039 08       		.byte	0x8
 274 003a ED040000 		.4byte	.LASF1
 275 003e 03       		.uleb128 0x3
 276 003f E1070000 		.4byte	.LASF3
 277 0043 02       		.byte	0x2
 278 0044 29       		.byte	0x29
 279 0045 49000000 		.4byte	0x49
 280 0049 02       		.uleb128 0x2
 281 004a 02       		.byte	0x2
 282 004b 05       		.byte	0x5
 283 004c DC060000 		.4byte	.LASF4
 284 0050 03       		.uleb128 0x3
 285 0051 D1060000 		.4byte	.LASF5
 286 0055 02       		.byte	0x2
 287 0056 2B       		.byte	0x2b
 288 0057 5B000000 		.4byte	0x5b
 289 005b 02       		.uleb128 0x2
 290 005c 02       		.byte	0x2
ARM GAS  /tmp/ccUNhkLT.s 			page 10


 291 005d 07       		.byte	0x7
 292 005e 12070000 		.4byte	.LASF6
 293 0062 03       		.uleb128 0x3
 294 0063 E6060000 		.4byte	.LASF7
 295 0067 02       		.byte	0x2
 296 0068 3F       		.byte	0x3f
 297 0069 6D000000 		.4byte	0x6d
 298 006d 02       		.uleb128 0x2
 299 006e 04       		.byte	0x4
 300 006f 05       		.byte	0x5
 301 0070 91010000 		.4byte	.LASF8
 302 0074 03       		.uleb128 0x3
 303 0075 70020000 		.4byte	.LASF9
 304 0079 02       		.byte	0x2
 305 007a 41       		.byte	0x41
 306 007b 7F000000 		.4byte	0x7f
 307 007f 02       		.uleb128 0x2
 308 0080 04       		.byte	0x4
 309 0081 07       		.byte	0x7
 310 0082 02030000 		.4byte	.LASF10
 311 0086 02       		.uleb128 0x2
 312 0087 08       		.byte	0x8
 313 0088 05       		.byte	0x5
 314 0089 FF010000 		.4byte	.LASF11
 315 008d 02       		.uleb128 0x2
 316 008e 08       		.byte	0x8
 317 008f 07       		.byte	0x7
 318 0090 9A000000 		.4byte	.LASF12
 319 0094 04       		.uleb128 0x4
 320 0095 04       		.byte	0x4
 321 0096 05       		.byte	0x5
 322 0097 696E7400 		.ascii	"int\000"
 323 009b 02       		.uleb128 0x2
 324 009c 04       		.byte	0x4
 325 009d 07       		.byte	0x7
 326 009e C4060000 		.4byte	.LASF13
 327 00a2 03       		.uleb128 0x3
 328 00a3 9C070000 		.4byte	.LASF14
 329 00a7 03       		.byte	0x3
 330 00a8 18       		.byte	0x18
 331 00a9 2C000000 		.4byte	0x2c
 332 00ad 05       		.uleb128 0x5
 333 00ae A2000000 		.4byte	0xa2
 334 00b2 03       		.uleb128 0x3
 335 00b3 0D010000 		.4byte	.LASF15
 336 00b7 03       		.byte	0x3
 337 00b8 20       		.byte	0x20
 338 00b9 3E000000 		.4byte	0x3e
 339 00bd 03       		.uleb128 0x3
 340 00be 0D020000 		.4byte	.LASF16
 341 00c2 03       		.byte	0x3
 342 00c3 24       		.byte	0x24
 343 00c4 50000000 		.4byte	0x50
 344 00c8 03       		.uleb128 0x3
 345 00c9 E5040000 		.4byte	.LASF17
 346 00cd 03       		.byte	0x3
 347 00ce 2C       		.byte	0x2c
ARM GAS  /tmp/ccUNhkLT.s 			page 11


 348 00cf 62000000 		.4byte	0x62
 349 00d3 05       		.uleb128 0x5
 350 00d4 C8000000 		.4byte	0xc8
 351 00d8 03       		.uleb128 0x3
 352 00d9 85080000 		.4byte	.LASF18
 353 00dd 03       		.byte	0x3
 354 00de 30       		.byte	0x30
 355 00df 74000000 		.4byte	0x74
 356 00e3 05       		.uleb128 0x5
 357 00e4 D8000000 		.4byte	0xd8
 358 00e8 06       		.uleb128 0x6
 359 00e9 E3000000 		.4byte	0xe3
 360 00ed 07       		.uleb128 0x7
 361 00ee 040E     		.2byte	0xe04
 362 00f0 04       		.byte	0x4
 363 00f1 7F01     		.2byte	0x17f
 364 00f3 A9010000 		.4byte	0x1a9
 365 00f7 08       		.uleb128 0x8
 366 00f8 FA010000 		.4byte	.LASF19
 367 00fc 04       		.byte	0x4
 368 00fd 8101     		.2byte	0x181
 369 00ff B9010000 		.4byte	0x1b9
 370 0103 00       		.byte	0
 371 0104 08       		.uleb128 0x8
 372 0105 B3040000 		.4byte	.LASF20
 373 0109 04       		.byte	0x4
 374 010a 8201     		.2byte	0x182
 375 010c C5010000 		.4byte	0x1c5
 376 0110 20       		.byte	0x20
 377 0111 08       		.uleb128 0x8
 378 0112 53040000 		.4byte	.LASF21
 379 0116 04       		.byte	0x4
 380 0117 8301     		.2byte	0x183
 381 0119 B9010000 		.4byte	0x1b9
 382 011d 80       		.byte	0x80
 383 011e 08       		.uleb128 0x8
 384 011f D3070000 		.4byte	.LASF22
 385 0123 04       		.byte	0x4
 386 0124 8401     		.2byte	0x184
 387 0126 C5010000 		.4byte	0x1c5
 388 012a A0       		.byte	0xa0
 389 012b 09       		.uleb128 0x9
 390 012c F1000000 		.4byte	.LASF23
 391 0130 04       		.byte	0x4
 392 0131 8501     		.2byte	0x185
 393 0133 B9010000 		.4byte	0x1b9
 394 0137 0001     		.2byte	0x100
 395 0139 09       		.uleb128 0x9
 396 013a BD040000 		.4byte	.LASF24
 397 013e 04       		.byte	0x4
 398 013f 8601     		.2byte	0x186
 399 0141 C5010000 		.4byte	0x1c5
 400 0145 2001     		.2byte	0x120
 401 0147 09       		.uleb128 0x9
 402 0148 15000000 		.4byte	.LASF25
 403 014c 04       		.byte	0x4
 404 014d 8701     		.2byte	0x187
ARM GAS  /tmp/ccUNhkLT.s 			page 12


 405 014f B9010000 		.4byte	0x1b9
 406 0153 8001     		.2byte	0x180
 407 0155 09       		.uleb128 0x9
 408 0156 C7040000 		.4byte	.LASF26
 409 015a 04       		.byte	0x4
 410 015b 8801     		.2byte	0x188
 411 015d C5010000 		.4byte	0x1c5
 412 0161 A001     		.2byte	0x1a0
 413 0163 09       		.uleb128 0x9
 414 0164 14040000 		.4byte	.LASF27
 415 0168 04       		.byte	0x4
 416 0169 8901     		.2byte	0x189
 417 016b B9010000 		.4byte	0x1b9
 418 016f 0002     		.2byte	0x200
 419 0171 09       		.uleb128 0x9
 420 0172 D1040000 		.4byte	.LASF28
 421 0176 04       		.byte	0x4
 422 0177 8A01     		.2byte	0x18a
 423 0179 D5010000 		.4byte	0x1d5
 424 017d 2002     		.2byte	0x220
 425 017f 0A       		.uleb128 0xa
 426 0180 495000   		.ascii	"IP\000"
 427 0183 04       		.byte	0x4
 428 0184 8B01     		.2byte	0x18b
 429 0186 F5010000 		.4byte	0x1f5
 430 018a 0003     		.2byte	0x300
 431 018c 09       		.uleb128 0x9
 432 018d DB040000 		.4byte	.LASF29
 433 0191 04       		.byte	0x4
 434 0192 8C01     		.2byte	0x18c
 435 0194 FA010000 		.4byte	0x1fa
 436 0198 F003     		.2byte	0x3f0
 437 019a 09       		.uleb128 0x9
 438 019b DC070000 		.4byte	.LASF30
 439 019f 04       		.byte	0x4
 440 01a0 8D01     		.2byte	0x18d
 441 01a2 E3000000 		.4byte	0xe3
 442 01a6 000E     		.2byte	0xe00
 443 01a8 00       		.byte	0
 444 01a9 0B       		.uleb128 0xb
 445 01aa E3000000 		.4byte	0xe3
 446 01ae B9010000 		.4byte	0x1b9
 447 01b2 0C       		.uleb128 0xc
 448 01b3 BE010000 		.4byte	0x1be
 449 01b7 07       		.byte	0x7
 450 01b8 00       		.byte	0
 451 01b9 05       		.uleb128 0x5
 452 01ba A9010000 		.4byte	0x1a9
 453 01be 02       		.uleb128 0x2
 454 01bf 04       		.byte	0x4
 455 01c0 07       		.byte	0x7
 456 01c1 01040000 		.4byte	.LASF31
 457 01c5 0B       		.uleb128 0xb
 458 01c6 D8000000 		.4byte	0xd8
 459 01ca D5010000 		.4byte	0x1d5
 460 01ce 0C       		.uleb128 0xc
 461 01cf BE010000 		.4byte	0x1be
ARM GAS  /tmp/ccUNhkLT.s 			page 13


 462 01d3 17       		.byte	0x17
 463 01d4 00       		.byte	0
 464 01d5 0B       		.uleb128 0xb
 465 01d6 D8000000 		.4byte	0xd8
 466 01da E5010000 		.4byte	0x1e5
 467 01de 0C       		.uleb128 0xc
 468 01df BE010000 		.4byte	0x1be
 469 01e3 37       		.byte	0x37
 470 01e4 00       		.byte	0
 471 01e5 0B       		.uleb128 0xb
 472 01e6 AD000000 		.4byte	0xad
 473 01ea F5010000 		.4byte	0x1f5
 474 01ee 0C       		.uleb128 0xc
 475 01ef BE010000 		.4byte	0x1be
 476 01f3 EF       		.byte	0xef
 477 01f4 00       		.byte	0
 478 01f5 05       		.uleb128 0x5
 479 01f6 E5010000 		.4byte	0x1e5
 480 01fa 0B       		.uleb128 0xb
 481 01fb D8000000 		.4byte	0xd8
 482 01ff 0B020000 		.4byte	0x20b
 483 0203 0D       		.uleb128 0xd
 484 0204 BE010000 		.4byte	0x1be
 485 0208 8302     		.2byte	0x283
 486 020a 00       		.byte	0
 487 020b 0E       		.uleb128 0xe
 488 020c 2A050000 		.4byte	.LASF32
 489 0210 04       		.byte	0x4
 490 0211 8E01     		.2byte	0x18e
 491 0213 ED000000 		.4byte	0xed
 492 0217 0F       		.uleb128 0xf
 493 0218 8C       		.byte	0x8c
 494 0219 04       		.byte	0x4
 495 021a A101     		.2byte	0x1a1
 496 021c 32030000 		.4byte	0x332
 497 0220 08       		.uleb128 0x8
 498 0221 C7000000 		.4byte	.LASF33
 499 0225 04       		.byte	0x4
 500 0226 A301     		.2byte	0x1a3
 501 0228 E8000000 		.4byte	0xe8
 502 022c 00       		.byte	0
 503 022d 08       		.uleb128 0x8
 504 022e 46030000 		.4byte	.LASF34
 505 0232 04       		.byte	0x4
 506 0233 A401     		.2byte	0x1a4
 507 0235 E3000000 		.4byte	0xe3
 508 0239 04       		.byte	0x4
 509 023a 08       		.uleb128 0x8
 510 023b 20030000 		.4byte	.LASF35
 511 023f 04       		.byte	0x4
 512 0240 A501     		.2byte	0x1a5
 513 0242 E3000000 		.4byte	0xe3
 514 0246 08       		.byte	0x8
 515 0247 08       		.uleb128 0x8
 516 0248 58030000 		.4byte	.LASF36
 517 024c 04       		.byte	0x4
 518 024d A601     		.2byte	0x1a6
ARM GAS  /tmp/ccUNhkLT.s 			page 14


 519 024f E3000000 		.4byte	0xe3
 520 0253 0C       		.byte	0xc
 521 0254 10       		.uleb128 0x10
 522 0255 53435200 		.ascii	"SCR\000"
 523 0259 04       		.byte	0x4
 524 025a A701     		.2byte	0x1a7
 525 025c E3000000 		.4byte	0xe3
 526 0260 10       		.byte	0x10
 527 0261 10       		.uleb128 0x10
 528 0262 43435200 		.ascii	"CCR\000"
 529 0266 04       		.byte	0x4
 530 0267 A801     		.2byte	0x1a8
 531 0269 E3000000 		.4byte	0xe3
 532 026d 14       		.byte	0x14
 533 026e 10       		.uleb128 0x10
 534 026f 53485000 		.ascii	"SHP\000"
 535 0273 04       		.byte	0x4
 536 0274 A901     		.2byte	0x1a9
 537 0276 42030000 		.4byte	0x342
 538 027a 18       		.byte	0x18
 539 027b 08       		.uleb128 0x8
 540 027c FB040000 		.4byte	.LASF37
 541 0280 04       		.byte	0x4
 542 0281 AA01     		.2byte	0x1aa
 543 0283 E3000000 		.4byte	0xe3
 544 0287 24       		.byte	0x24
 545 0288 08       		.uleb128 0x8
 546 0289 0F040000 		.4byte	.LASF38
 547 028d 04       		.byte	0x4
 548 028e AB01     		.2byte	0x1ab
 549 0290 E3000000 		.4byte	0xe3
 550 0294 28       		.byte	0x28
 551 0295 08       		.uleb128 0x8
 552 0296 66080000 		.4byte	.LASF39
 553 029a 04       		.byte	0x4
 554 029b AC01     		.2byte	0x1ac
 555 029d E3000000 		.4byte	0xe3
 556 02a1 2C       		.byte	0x2c
 557 02a2 08       		.uleb128 0x8
 558 02a3 5E030000 		.4byte	.LASF40
 559 02a7 04       		.byte	0x4
 560 02a8 AD01     		.2byte	0x1ad
 561 02aa E3000000 		.4byte	0xe3
 562 02ae 30       		.byte	0x30
 563 02af 08       		.uleb128 0x8
 564 02b0 71030000 		.4byte	.LASF41
 565 02b4 04       		.byte	0x4
 566 02b5 AE01     		.2byte	0x1ae
 567 02b7 E3000000 		.4byte	0xe3
 568 02bb 34       		.byte	0x34
 569 02bc 08       		.uleb128 0x8
 570 02bd 59020000 		.4byte	.LASF42
 571 02c1 04       		.byte	0x4
 572 02c2 AF01     		.2byte	0x1af
 573 02c4 E3000000 		.4byte	0xe3
 574 02c8 38       		.byte	0x38
 575 02c9 08       		.uleb128 0x8
ARM GAS  /tmp/ccUNhkLT.s 			page 15


 576 02ca 75060000 		.4byte	.LASF43
 577 02ce 04       		.byte	0x4
 578 02cf B001     		.2byte	0x1b0
 579 02d1 E3000000 		.4byte	0xe3
 580 02d5 3C       		.byte	0x3c
 581 02d6 10       		.uleb128 0x10
 582 02d7 50465200 		.ascii	"PFR\000"
 583 02db 04       		.byte	0x4
 584 02dc B101     		.2byte	0x1b1
 585 02de 5C030000 		.4byte	0x35c
 586 02e2 40       		.byte	0x40
 587 02e3 10       		.uleb128 0x10
 588 02e4 44465200 		.ascii	"DFR\000"
 589 02e8 04       		.byte	0x4
 590 02e9 B201     		.2byte	0x1b2
 591 02eb E8000000 		.4byte	0xe8
 592 02ef 48       		.byte	0x48
 593 02f0 10       		.uleb128 0x10
 594 02f1 41445200 		.ascii	"ADR\000"
 595 02f5 04       		.byte	0x4
 596 02f6 B301     		.2byte	0x1b3
 597 02f8 E8000000 		.4byte	0xe8
 598 02fc 4C       		.byte	0x4c
 599 02fd 08       		.uleb128 0x8
 600 02fe 82030000 		.4byte	.LASF44
 601 0302 04       		.byte	0x4
 602 0303 B401     		.2byte	0x1b4
 603 0305 76030000 		.4byte	0x376
 604 0309 50       		.byte	0x50
 605 030a 08       		.uleb128 0x8
 606 030b 15010000 		.4byte	.LASF45
 607 030f 04       		.byte	0x4
 608 0310 B501     		.2byte	0x1b5
 609 0312 90030000 		.4byte	0x390
 610 0316 60       		.byte	0x60
 611 0317 08       		.uleb128 0x8
 612 0318 B3040000 		.4byte	.LASF20
 613 031c 04       		.byte	0x4
 614 031d B601     		.2byte	0x1b6
 615 031f 95030000 		.4byte	0x395
 616 0323 74       		.byte	0x74
 617 0324 08       		.uleb128 0x8
 618 0325 60080000 		.4byte	.LASF46
 619 0329 04       		.byte	0x4
 620 032a B701     		.2byte	0x1b7
 621 032c E3000000 		.4byte	0xe3
 622 0330 88       		.byte	0x88
 623 0331 00       		.byte	0
 624 0332 0B       		.uleb128 0xb
 625 0333 AD000000 		.4byte	0xad
 626 0337 42030000 		.4byte	0x342
 627 033b 0C       		.uleb128 0xc
 628 033c BE010000 		.4byte	0x1be
 629 0340 0B       		.byte	0xb
 630 0341 00       		.byte	0
 631 0342 05       		.uleb128 0x5
 632 0343 32030000 		.4byte	0x332
ARM GAS  /tmp/ccUNhkLT.s 			page 16


 633 0347 0B       		.uleb128 0xb
 634 0348 E8000000 		.4byte	0xe8
 635 034c 57030000 		.4byte	0x357
 636 0350 0C       		.uleb128 0xc
 637 0351 BE010000 		.4byte	0x1be
 638 0355 01       		.byte	0x1
 639 0356 00       		.byte	0
 640 0357 06       		.uleb128 0x6
 641 0358 47030000 		.4byte	0x347
 642 035c 05       		.uleb128 0x5
 643 035d 57030000 		.4byte	0x357
 644 0361 0B       		.uleb128 0xb
 645 0362 E8000000 		.4byte	0xe8
 646 0366 71030000 		.4byte	0x371
 647 036a 0C       		.uleb128 0xc
 648 036b BE010000 		.4byte	0x1be
 649 036f 03       		.byte	0x3
 650 0370 00       		.byte	0
 651 0371 06       		.uleb128 0x6
 652 0372 61030000 		.4byte	0x361
 653 0376 05       		.uleb128 0x5
 654 0377 71030000 		.4byte	0x371
 655 037b 0B       		.uleb128 0xb
 656 037c E8000000 		.4byte	0xe8
 657 0380 8B030000 		.4byte	0x38b
 658 0384 0C       		.uleb128 0xc
 659 0385 BE010000 		.4byte	0x1be
 660 0389 04       		.byte	0x4
 661 038a 00       		.byte	0
 662 038b 06       		.uleb128 0x6
 663 038c 7B030000 		.4byte	0x37b
 664 0390 05       		.uleb128 0x5
 665 0391 8B030000 		.4byte	0x38b
 666 0395 0B       		.uleb128 0xb
 667 0396 D8000000 		.4byte	0xd8
 668 039a A5030000 		.4byte	0x3a5
 669 039e 0C       		.uleb128 0xc
 670 039f BE010000 		.4byte	0x1be
 671 03a3 04       		.byte	0x4
 672 03a4 00       		.byte	0
 673 03a5 0E       		.uleb128 0xe
 674 03a6 81020000 		.4byte	.LASF47
 675 03aa 04       		.byte	0x4
 676 03ab B801     		.2byte	0x1b8
 677 03ad 17020000 		.4byte	0x217
 678 03b1 0F       		.uleb128 0xf
 679 03b2 10       		.byte	0x10
 680 03b3 04       		.byte	0x4
 681 03b4 AB02     		.2byte	0x2ab
 682 03b6 EF030000 		.4byte	0x3ef
 683 03ba 08       		.uleb128 0x8
 684 03bb 3F070000 		.4byte	.LASF48
 685 03bf 04       		.byte	0x4
 686 03c0 AD02     		.2byte	0x2ad
 687 03c2 E3000000 		.4byte	0xe3
 688 03c6 00       		.byte	0
 689 03c7 08       		.uleb128 0x8
ARM GAS  /tmp/ccUNhkLT.s 			page 17


 690 03c8 0A040000 		.4byte	.LASF49
 691 03cc 04       		.byte	0x4
 692 03cd AE02     		.2byte	0x2ae
 693 03cf E3000000 		.4byte	0xe3
 694 03d3 04       		.byte	0x4
 695 03d4 10       		.uleb128 0x10
 696 03d5 56414C00 		.ascii	"VAL\000"
 697 03d9 04       		.byte	0x4
 698 03da AF02     		.2byte	0x2af
 699 03dc E3000000 		.4byte	0xe3
 700 03e0 08       		.byte	0x8
 701 03e1 08       		.uleb128 0x8
 702 03e2 70070000 		.4byte	.LASF50
 703 03e6 04       		.byte	0x4
 704 03e7 B002     		.2byte	0x2b0
 705 03e9 E8000000 		.4byte	0xe8
 706 03ed 0C       		.byte	0xc
 707 03ee 00       		.byte	0
 708 03ef 0E       		.uleb128 0xe
 709 03f0 5E020000 		.4byte	.LASF51
 710 03f4 04       		.byte	0x4
 711 03f5 B102     		.2byte	0x2b1
 712 03f7 B1030000 		.4byte	0x3b1
 713 03fb 11       		.uleb128 0x11
 714 03fc 01050000 		.4byte	.LASF52
 715 0400 04       		.byte	0x4
 716 0401 9606     		.2byte	0x696
 717 0403 D3000000 		.4byte	0xd3
 718 0407 12       		.uleb128 0x12
 719 0408 D5020000 		.4byte	.LASF53
 720 040c 05       		.byte	0x5
 721 040d 35       		.byte	0x35
 722 040e D8000000 		.4byte	0xd8
 723 0412 13       		.uleb128 0x13
 724 0413 01       		.byte	0x1
 725 0414 37000000 		.4byte	0x37
 726 0418 06       		.byte	0x6
 727 0419 0902     		.2byte	0x209
 728 041b 2C040000 		.4byte	0x42c
 729 041f 14       		.uleb128 0x14
 730 0420 10060000 		.4byte	.LASF54
 731 0424 00       		.byte	0
 732 0425 14       		.uleb128 0x14
 733 0426 F3010000 		.4byte	.LASF55
 734 042a 01       		.byte	0x1
 735 042b 00       		.byte	0
 736 042c 0E       		.uleb128 0xe
 737 042d 3A040000 		.4byte	.LASF56
 738 0431 06       		.byte	0x6
 739 0432 0902     		.2byte	0x209
 740 0434 12040000 		.4byte	0x412
 741 0438 15       		.uleb128 0x15
 742 0439 04       		.byte	0x4
 743 043a 07       		.byte	0x7
 744 043b 32       		.byte	0x32
 745 043c 71040000 		.4byte	0x471
 746 0440 16       		.uleb128 0x16
ARM GAS  /tmp/ccUNhkLT.s 			page 18


 747 0441 87030000 		.4byte	.LASF57
 748 0445 07       		.byte	0x7
 749 0446 34       		.byte	0x34
 750 0447 A2000000 		.4byte	0xa2
 751 044b 00       		.byte	0
 752 044c 16       		.uleb128 0x16
 753 044d 97030000 		.4byte	.LASF58
 754 0451 07       		.byte	0x7
 755 0452 39       		.byte	0x39
 756 0453 A2000000 		.4byte	0xa2
 757 0457 01       		.byte	0x1
 758 0458 16       		.uleb128 0x16
 759 0459 54060000 		.4byte	.LASF59
 760 045d 07       		.byte	0x7
 761 045e 3D       		.byte	0x3d
 762 045f A2000000 		.4byte	0xa2
 763 0463 02       		.byte	0x2
 764 0464 16       		.uleb128 0x16
 765 0465 1A000000 		.4byte	.LASF60
 766 0469 07       		.byte	0x7
 767 046a 41       		.byte	0x41
 768 046b 2C040000 		.4byte	0x42c
 769 046f 03       		.byte	0x3
 770 0470 00       		.byte	0
 771 0471 03       		.uleb128 0x3
 772 0472 98080000 		.4byte	.LASF61
 773 0476 07       		.byte	0x7
 774 0477 44       		.byte	0x44
 775 0478 38040000 		.4byte	0x438
 776 047c 17       		.uleb128 0x17
 777 047d 18       		.uleb128 0x18
 778 047e 04       		.byte	0x4
 779 047f 7C040000 		.4byte	0x47c
 780 0483 0B       		.uleb128 0xb
 781 0484 49000000 		.4byte	0x49
 782 0488 93040000 		.4byte	0x493
 783 048c 0C       		.uleb128 0xc
 784 048d BE010000 		.4byte	0x1be
 785 0491 02       		.byte	0x2
 786 0492 00       		.byte	0
 787 0493 11       		.uleb128 0x11
 788 0494 DD000000 		.4byte	.LASF62
 789 0498 08       		.byte	0x8
 790 0499 6401     		.2byte	0x164
 791 049b 83040000 		.4byte	0x483
 792 049f 11       		.uleb128 0x11
 793 04a0 2A040000 		.4byte	.LASF63
 794 04a4 08       		.byte	0x8
 795 04a5 6401     		.2byte	0x164
 796 04a7 83040000 		.4byte	0x483
 797 04ab 11       		.uleb128 0x11
 798 04ac 47010000 		.4byte	.LASF64
 799 04b0 08       		.byte	0x8
 800 04b1 6501     		.2byte	0x165
 801 04b3 B2000000 		.4byte	0xb2
 802 04b7 11       		.uleb128 0x11
 803 04b8 19040000 		.4byte	.LASF65
ARM GAS  /tmp/ccUNhkLT.s 			page 19


 804 04bc 08       		.byte	0x8
 805 04bd 6501     		.2byte	0x165
 806 04bf B2000000 		.4byte	0xb2
 807 04c3 11       		.uleb128 0x11
 808 04c4 30040000 		.4byte	.LASF66
 809 04c8 08       		.byte	0x8
 810 04c9 6501     		.2byte	0x165
 811 04cb B2000000 		.4byte	0xb2
 812 04cf 11       		.uleb128 0x11
 813 04d0 74010000 		.4byte	.LASF67
 814 04d4 08       		.byte	0x8
 815 04d5 6601     		.2byte	0x166
 816 04d7 DB040000 		.4byte	0x4db
 817 04db 02       		.uleb128 0x2
 818 04dc 04       		.byte	0x4
 819 04dd 04       		.byte	0x4
 820 04de 9D040000 		.4byte	.LASF68
 821 04e2 11       		.uleb128 0x11
 822 04e3 AD040000 		.4byte	.LASF69
 823 04e7 08       		.byte	0x8
 824 04e8 6701     		.2byte	0x167
 825 04ea DB040000 		.4byte	0x4db
 826 04ee 11       		.uleb128 0x11
 827 04ef 44070000 		.4byte	.LASF70
 828 04f3 08       		.byte	0x8
 829 04f4 6801     		.2byte	0x168
 830 04f6 BD000000 		.4byte	0xbd
 831 04fa 19       		.uleb128 0x19
 832 04fb 04       		.byte	0x4
 833 04fc 03       		.uleb128 0x3
 834 04fd EF030000 		.4byte	.LASF71
 835 0501 09       		.byte	0x9
 836 0502 07       		.byte	0x7
 837 0503 94000000 		.4byte	0x94
 838 0507 03       		.uleb128 0x3
 839 0508 73000000 		.4byte	.LASF72
 840 050c 0A       		.byte	0xa
 841 050d 2C       		.byte	0x2c
 842 050e 6D000000 		.4byte	0x6d
 843 0512 03       		.uleb128 0x3
 844 0513 84060000 		.4byte	.LASF73
 845 0517 0A       		.byte	0xa
 846 0518 72       		.byte	0x72
 847 0519 6D000000 		.4byte	0x6d
 848 051d 0E       		.uleb128 0xe
 849 051e 84040000 		.4byte	.LASF74
 850 0522 0B       		.byte	0xb
 851 0523 6501     		.2byte	0x165
 852 0525 9B000000 		.4byte	0x9b
 853 0529 1A       		.uleb128 0x1a
 854 052a 04       		.byte	0x4
 855 052b 0A       		.byte	0xa
 856 052c A6       		.byte	0xa6
 857 052d 48050000 		.4byte	0x548
 858 0531 1B       		.uleb128 0x1b
 859 0532 6B030000 		.4byte	.LASF75
 860 0536 0A       		.byte	0xa
ARM GAS  /tmp/ccUNhkLT.s 			page 20


 861 0537 A8       		.byte	0xa8
 862 0538 1D050000 		.4byte	0x51d
 863 053c 1B       		.uleb128 0x1b
 864 053d CE020000 		.4byte	.LASF76
 865 0541 0A       		.byte	0xa
 866 0542 A9       		.byte	0xa9
 867 0543 48050000 		.4byte	0x548
 868 0547 00       		.byte	0
 869 0548 0B       		.uleb128 0xb
 870 0549 37000000 		.4byte	0x37
 871 054d 58050000 		.4byte	0x558
 872 0551 0C       		.uleb128 0xc
 873 0552 BE010000 		.4byte	0x1be
 874 0556 03       		.byte	0x3
 875 0557 00       		.byte	0
 876 0558 15       		.uleb128 0x15
 877 0559 08       		.byte	0x8
 878 055a 0A       		.byte	0xa
 879 055b A3       		.byte	0xa3
 880 055c 79050000 		.4byte	0x579
 881 0560 16       		.uleb128 0x16
 882 0561 37060000 		.4byte	.LASF77
 883 0565 0A       		.byte	0xa
 884 0566 A5       		.byte	0xa5
 885 0567 94000000 		.4byte	0x94
 886 056b 00       		.byte	0
 887 056c 16       		.uleb128 0x16
 888 056d 4C060000 		.4byte	.LASF78
 889 0571 0A       		.byte	0xa
 890 0572 AA       		.byte	0xaa
 891 0573 29050000 		.4byte	0x529
 892 0577 04       		.byte	0x4
 893 0578 00       		.byte	0
 894 0579 03       		.uleb128 0x3
 895 057a 50050000 		.4byte	.LASF79
 896 057e 0A       		.byte	0xa
 897 057f AB       		.byte	0xab
 898 0580 58050000 		.4byte	0x558
 899 0584 03       		.uleb128 0x3
 900 0585 17050000 		.4byte	.LASF80
 901 0589 0A       		.byte	0xa
 902 058a AF       		.byte	0xaf
 903 058b FC040000 		.4byte	0x4fc
 904 058f 03       		.uleb128 0x3
 905 0590 2A070000 		.4byte	.LASF81
 906 0594 0C       		.byte	0xc
 907 0595 16       		.byte	0x16
 908 0596 7F000000 		.4byte	0x7f
 909 059a 1C       		.uleb128 0x1c
 910 059b 9E020000 		.4byte	.LASF86
 911 059f 18       		.byte	0x18
 912 05a0 0C       		.byte	0xc
 913 05a1 2D       		.byte	0x2d
 914 05a2 ED050000 		.4byte	0x5ed
 915 05a6 16       		.uleb128 0x16
 916 05a7 F6060000 		.4byte	.LASF82
 917 05ab 0C       		.byte	0xc
ARM GAS  /tmp/ccUNhkLT.s 			page 21


 918 05ac 2F       		.byte	0x2f
 919 05ad ED050000 		.4byte	0x5ed
 920 05b1 00       		.byte	0
 921 05b2 1D       		.uleb128 0x1d
 922 05b3 5F6B00   		.ascii	"_k\000"
 923 05b6 0C       		.byte	0xc
 924 05b7 30       		.byte	0x30
 925 05b8 94000000 		.4byte	0x94
 926 05bc 04       		.byte	0x4
 927 05bd 16       		.uleb128 0x16
 928 05be 22060000 		.4byte	.LASF83
 929 05c2 0C       		.byte	0xc
 930 05c3 30       		.byte	0x30
 931 05c4 94000000 		.4byte	0x94
 932 05c8 08       		.byte	0x8
 933 05c9 16       		.uleb128 0x16
 934 05ca 7B020000 		.4byte	.LASF84
 935 05ce 0C       		.byte	0xc
 936 05cf 30       		.byte	0x30
 937 05d0 94000000 		.4byte	0x94
 938 05d4 0C       		.byte	0xc
 939 05d5 16       		.uleb128 0x16
 940 05d6 83070000 		.4byte	.LASF85
 941 05da 0C       		.byte	0xc
 942 05db 30       		.byte	0x30
 943 05dc 94000000 		.4byte	0x94
 944 05e0 10       		.byte	0x10
 945 05e1 1D       		.uleb128 0x1d
 946 05e2 5F7800   		.ascii	"_x\000"
 947 05e5 0C       		.byte	0xc
 948 05e6 31       		.byte	0x31
 949 05e7 F3050000 		.4byte	0x5f3
 950 05eb 14       		.byte	0x14
 951 05ec 00       		.byte	0
 952 05ed 18       		.uleb128 0x18
 953 05ee 04       		.byte	0x4
 954 05ef 9A050000 		.4byte	0x59a
 955 05f3 0B       		.uleb128 0xb
 956 05f4 8F050000 		.4byte	0x58f
 957 05f8 03060000 		.4byte	0x603
 958 05fc 0C       		.uleb128 0xc
 959 05fd BE010000 		.4byte	0x1be
 960 0601 00       		.byte	0
 961 0602 00       		.byte	0
 962 0603 1C       		.uleb128 0x1c
 963 0604 C9020000 		.4byte	.LASF87
 964 0608 24       		.byte	0x24
 965 0609 0C       		.byte	0xc
 966 060a 35       		.byte	0x35
 967 060b 7C060000 		.4byte	0x67c
 968 060f 16       		.uleb128 0x16
 969 0610 04010000 		.4byte	.LASF88
 970 0614 0C       		.byte	0xc
 971 0615 37       		.byte	0x37
 972 0616 94000000 		.4byte	0x94
 973 061a 00       		.byte	0
 974 061b 16       		.uleb128 0x16
ARM GAS  /tmp/ccUNhkLT.s 			page 22


 975 061c 2F080000 		.4byte	.LASF89
 976 0620 0C       		.byte	0xc
 977 0621 38       		.byte	0x38
 978 0622 94000000 		.4byte	0x94
 979 0626 04       		.byte	0x4
 980 0627 16       		.uleb128 0x16
 981 0628 57010000 		.4byte	.LASF90
 982 062c 0C       		.byte	0xc
 983 062d 39       		.byte	0x39
 984 062e 94000000 		.4byte	0x94
 985 0632 08       		.byte	0x8
 986 0633 16       		.uleb128 0x16
 987 0634 8E080000 		.4byte	.LASF91
 988 0638 0C       		.byte	0xc
 989 0639 3A       		.byte	0x3a
 990 063a 94000000 		.4byte	0x94
 991 063e 0C       		.byte	0xc
 992 063f 16       		.uleb128 0x16
 993 0640 4A040000 		.4byte	.LASF92
 994 0644 0C       		.byte	0xc
 995 0645 3B       		.byte	0x3b
 996 0646 94000000 		.4byte	0x94
 997 064a 10       		.byte	0x10
 998 064b 16       		.uleb128 0x16
 999 064c C0030000 		.4byte	.LASF93
 1000 0650 0C       		.byte	0xc
 1001 0651 3C       		.byte	0x3c
 1002 0652 94000000 		.4byte	0x94
 1003 0656 14       		.byte	0x14
 1004 0657 16       		.uleb128 0x16
 1005 0658 7A060000 		.4byte	.LASF94
 1006 065c 0C       		.byte	0xc
 1007 065d 3D       		.byte	0x3d
 1008 065e 94000000 		.4byte	0x94
 1009 0662 18       		.byte	0x18
 1010 0663 16       		.uleb128 0x16
 1011 0664 20050000 		.4byte	.LASF95
 1012 0668 0C       		.byte	0xc
 1013 0669 3E       		.byte	0x3e
 1014 066a 94000000 		.4byte	0x94
 1015 066e 1C       		.byte	0x1c
 1016 066f 16       		.uleb128 0x16
 1017 0670 D3030000 		.4byte	.LASF96
 1018 0674 0C       		.byte	0xc
 1019 0675 3F       		.byte	0x3f
 1020 0676 94000000 		.4byte	0x94
 1021 067a 20       		.byte	0x20
 1022 067b 00       		.byte	0
 1023 067c 1E       		.uleb128 0x1e
 1024 067d 66010000 		.4byte	.LASF97
 1025 0681 0801     		.2byte	0x108
 1026 0683 0C       		.byte	0xc
 1027 0684 48       		.byte	0x48
 1028 0685 BC060000 		.4byte	0x6bc
 1029 0689 16       		.uleb128 0x16
 1030 068a 2D000000 		.4byte	.LASF98
 1031 068e 0C       		.byte	0xc
ARM GAS  /tmp/ccUNhkLT.s 			page 23


 1032 068f 49       		.byte	0x49
 1033 0690 BC060000 		.4byte	0x6bc
 1034 0694 00       		.byte	0
 1035 0695 16       		.uleb128 0x16
 1036 0696 00000000 		.4byte	.LASF99
 1037 069a 0C       		.byte	0xc
 1038 069b 4A       		.byte	0x4a
 1039 069c BC060000 		.4byte	0x6bc
 1040 06a0 80       		.byte	0x80
 1041 06a1 1F       		.uleb128 0x1f
 1042 06a2 09070000 		.4byte	.LASF100
 1043 06a6 0C       		.byte	0xc
 1044 06a7 4C       		.byte	0x4c
 1045 06a8 8F050000 		.4byte	0x58f
 1046 06ac 0001     		.2byte	0x100
 1047 06ae 1F       		.uleb128 0x1f
 1048 06af CC010000 		.4byte	.LASF101
 1049 06b3 0C       		.byte	0xc
 1050 06b4 4F       		.byte	0x4f
 1051 06b5 8F050000 		.4byte	0x58f
 1052 06b9 0401     		.2byte	0x104
 1053 06bb 00       		.byte	0
 1054 06bc 0B       		.uleb128 0xb
 1055 06bd FA040000 		.4byte	0x4fa
 1056 06c1 CC060000 		.4byte	0x6cc
 1057 06c5 0C       		.uleb128 0xc
 1058 06c6 BE010000 		.4byte	0x1be
 1059 06ca 1F       		.byte	0x1f
 1060 06cb 00       		.byte	0
 1061 06cc 1E       		.uleb128 0x1e
 1062 06cd 58040000 		.4byte	.LASF102
 1063 06d1 9001     		.2byte	0x190
 1064 06d3 0C       		.byte	0xc
 1065 06d4 5B       		.byte	0x5b
 1066 06d5 0A070000 		.4byte	0x70a
 1067 06d9 16       		.uleb128 0x16
 1068 06da F6060000 		.4byte	.LASF82
 1069 06de 0C       		.byte	0xc
 1070 06df 5C       		.byte	0x5c
 1071 06e0 0A070000 		.4byte	0x70a
 1072 06e4 00       		.byte	0
 1073 06e5 16       		.uleb128 0x16
 1074 06e6 0B060000 		.4byte	.LASF103
 1075 06ea 0C       		.byte	0xc
 1076 06eb 5D       		.byte	0x5d
 1077 06ec 94000000 		.4byte	0x94
 1078 06f0 04       		.byte	0x4
 1079 06f1 16       		.uleb128 0x16
 1080 06f2 6B020000 		.4byte	.LASF104
 1081 06f6 0C       		.byte	0xc
 1082 06f7 5F       		.byte	0x5f
 1083 06f8 10070000 		.4byte	0x710
 1084 06fc 08       		.byte	0x8
 1085 06fd 16       		.uleb128 0x16
 1086 06fe 66010000 		.4byte	.LASF97
 1087 0702 0C       		.byte	0xc
 1088 0703 60       		.byte	0x60
ARM GAS  /tmp/ccUNhkLT.s 			page 24


 1089 0704 7C060000 		.4byte	0x67c
 1090 0708 88       		.byte	0x88
 1091 0709 00       		.byte	0
 1092 070a 18       		.uleb128 0x18
 1093 070b 04       		.byte	0x4
 1094 070c CC060000 		.4byte	0x6cc
 1095 0710 0B       		.uleb128 0xb
 1096 0711 7D040000 		.4byte	0x47d
 1097 0715 20070000 		.4byte	0x720
 1098 0719 0C       		.uleb128 0xc
 1099 071a BE010000 		.4byte	0x1be
 1100 071e 1F       		.byte	0x1f
 1101 071f 00       		.byte	0
 1102 0720 1C       		.uleb128 0x1c
 1103 0721 34050000 		.4byte	.LASF105
 1104 0725 08       		.byte	0x8
 1105 0726 0C       		.byte	0xc
 1106 0727 73       		.byte	0x73
 1107 0728 45070000 		.4byte	0x745
 1108 072c 16       		.uleb128 0x16
 1109 072d 51010000 		.4byte	.LASF106
 1110 0731 0C       		.byte	0xc
 1111 0732 74       		.byte	0x74
 1112 0733 45070000 		.4byte	0x745
 1113 0737 00       		.byte	0
 1114 0738 16       		.uleb128 0x16
 1115 0739 BE060000 		.4byte	.LASF107
 1116 073d 0C       		.byte	0xc
 1117 073e 75       		.byte	0x75
 1118 073f 94000000 		.4byte	0x94
 1119 0743 04       		.byte	0x4
 1120 0744 00       		.byte	0
 1121 0745 18       		.uleb128 0x18
 1122 0746 04       		.byte	0x4
 1123 0747 37000000 		.4byte	0x37
 1124 074b 1C       		.uleb128 0x1c
 1125 074c 6E050000 		.4byte	.LASF108
 1126 0750 68       		.byte	0x68
 1127 0751 0C       		.byte	0xc
 1128 0752 B3       		.byte	0xb3
 1129 0753 75080000 		.4byte	0x875
 1130 0757 1D       		.uleb128 0x1d
 1131 0758 5F7000   		.ascii	"_p\000"
 1132 075b 0C       		.byte	0xc
 1133 075c B4       		.byte	0xb4
 1134 075d 45070000 		.4byte	0x745
 1135 0761 00       		.byte	0
 1136 0762 1D       		.uleb128 0x1d
 1137 0763 5F7200   		.ascii	"_r\000"
 1138 0766 0C       		.byte	0xc
 1139 0767 B5       		.byte	0xb5
 1140 0768 94000000 		.4byte	0x94
 1141 076c 04       		.byte	0x4
 1142 076d 1D       		.uleb128 0x1d
 1143 076e 5F7700   		.ascii	"_w\000"
 1144 0771 0C       		.byte	0xc
 1145 0772 B6       		.byte	0xb6
ARM GAS  /tmp/ccUNhkLT.s 			page 25


 1146 0773 94000000 		.4byte	0x94
 1147 0777 08       		.byte	0x8
 1148 0778 16       		.uleb128 0x16
 1149 0779 95070000 		.4byte	.LASF109
 1150 077d 0C       		.byte	0xc
 1151 077e B7       		.byte	0xb7
 1152 077f 49000000 		.4byte	0x49
 1153 0783 0C       		.byte	0xc
 1154 0784 16       		.uleb128 0x16
 1155 0785 14030000 		.4byte	.LASF110
 1156 0789 0C       		.byte	0xc
 1157 078a B8       		.byte	0xb8
 1158 078b 49000000 		.4byte	0x49
 1159 078f 0E       		.byte	0xe
 1160 0790 1D       		.uleb128 0x1d
 1161 0791 5F626600 		.ascii	"_bf\000"
 1162 0795 0C       		.byte	0xc
 1163 0796 B9       		.byte	0xb9
 1164 0797 20070000 		.4byte	0x720
 1165 079b 10       		.byte	0x10
 1166 079c 16       		.uleb128 0x16
 1167 079d 6B080000 		.4byte	.LASF111
 1168 07a1 0C       		.byte	0xc
 1169 07a2 BA       		.byte	0xba
 1170 07a3 94000000 		.4byte	0x94
 1171 07a7 18       		.byte	0x18
 1172 07a8 16       		.uleb128 0x16
 1173 07a9 81010000 		.4byte	.LASF112
 1174 07ad 0C       		.byte	0xc
 1175 07ae C1       		.byte	0xc1
 1176 07af FA040000 		.4byte	0x4fa
 1177 07b3 1C       		.byte	0x1c
 1178 07b4 16       		.uleb128 0x16
 1179 07b5 C3020000 		.4byte	.LASF113
 1180 07b9 0C       		.byte	0xc
 1181 07ba C3       		.byte	0xc3
 1182 07bb E2090000 		.4byte	0x9e2
 1183 07bf 20       		.byte	0x20
 1184 07c0 16       		.uleb128 0x16
 1185 07c1 B9030000 		.4byte	.LASF114
 1186 07c5 0C       		.byte	0xc
 1187 07c6 C5       		.byte	0xc5
 1188 07c7 110A0000 		.4byte	0xa11
 1189 07cb 24       		.byte	0x24
 1190 07cc 16       		.uleb128 0x16
 1191 07cd 6F060000 		.4byte	.LASF115
 1192 07d1 0C       		.byte	0xc
 1193 07d2 C8       		.byte	0xc8
 1194 07d3 350A0000 		.4byte	0xa35
 1195 07d7 28       		.byte	0x28
 1196 07d8 16       		.uleb128 0x16
 1197 07d9 1A010000 		.4byte	.LASF116
 1198 07dd 0C       		.byte	0xc
 1199 07de C9       		.byte	0xc9
 1200 07df 4F0A0000 		.4byte	0xa4f
 1201 07e3 2C       		.byte	0x2c
 1202 07e4 1D       		.uleb128 0x1d
ARM GAS  /tmp/ccUNhkLT.s 			page 26


 1203 07e5 5F756200 		.ascii	"_ub\000"
 1204 07e9 0C       		.byte	0xc
 1205 07ea CC       		.byte	0xcc
 1206 07eb 20070000 		.4byte	0x720
 1207 07ef 30       		.byte	0x30
 1208 07f0 1D       		.uleb128 0x1d
 1209 07f1 5F757000 		.ascii	"_up\000"
 1210 07f5 0C       		.byte	0xc
 1211 07f6 CD       		.byte	0xcd
 1212 07f7 45070000 		.4byte	0x745
 1213 07fb 38       		.byte	0x38
 1214 07fc 1D       		.uleb128 0x1d
 1215 07fd 5F757200 		.ascii	"_ur\000"
 1216 0801 0C       		.byte	0xc
 1217 0802 CE       		.byte	0xce
 1218 0803 94000000 		.4byte	0x94
 1219 0807 3C       		.byte	0x3c
 1220 0808 16       		.uleb128 0x16
 1221 0809 41010000 		.4byte	.LASF117
 1222 080d 0C       		.byte	0xc
 1223 080e D1       		.byte	0xd1
 1224 080f 550A0000 		.4byte	0xa55
 1225 0813 40       		.byte	0x40
 1226 0814 16       		.uleb128 0x16
 1227 0815 EB070000 		.4byte	.LASF118
 1228 0819 0C       		.byte	0xc
 1229 081a D2       		.byte	0xd2
 1230 081b 650A0000 		.4byte	0xa65
 1231 081f 43       		.byte	0x43
 1232 0820 1D       		.uleb128 0x1d
 1233 0821 5F6C6200 		.ascii	"_lb\000"
 1234 0825 0C       		.byte	0xc
 1235 0826 D5       		.byte	0xd5
 1236 0827 20070000 		.4byte	0x720
 1237 082b 44       		.byte	0x44
 1238 082c 16       		.uleb128 0x16
 1239 082d BA020000 		.4byte	.LASF119
 1240 0831 0C       		.byte	0xc
 1241 0832 D8       		.byte	0xd8
 1242 0833 94000000 		.4byte	0x94
 1243 0837 4C       		.byte	0x4c
 1244 0838 16       		.uleb128 0x16
 1245 0839 2B020000 		.4byte	.LASF120
 1246 083d 0C       		.byte	0xc
 1247 083e D9       		.byte	0xd9
 1248 083f 07050000 		.4byte	0x507
 1249 0843 50       		.byte	0x50
 1250 0844 16       		.uleb128 0x16
 1251 0845 1A030000 		.4byte	.LASF121
 1252 0849 0C       		.byte	0xc
 1253 084a DC       		.byte	0xdc
 1254 084b 93080000 		.4byte	0x893
 1255 084f 54       		.byte	0x54
 1256 0850 16       		.uleb128 0x16
 1257 0851 7C030000 		.4byte	.LASF122
 1258 0855 0C       		.byte	0xc
 1259 0856 E0       		.byte	0xe0
ARM GAS  /tmp/ccUNhkLT.s 			page 27


 1260 0857 84050000 		.4byte	0x584
 1261 085b 58       		.byte	0x58
 1262 085c 16       		.uleb128 0x16
 1263 085d 57000000 		.4byte	.LASF123
 1264 0861 0C       		.byte	0xc
 1265 0862 E2       		.byte	0xe2
 1266 0863 79050000 		.4byte	0x579
 1267 0867 5C       		.byte	0x5c
 1268 0868 16       		.uleb128 0x16
 1269 0869 3B050000 		.4byte	.LASF124
 1270 086d 0C       		.byte	0xc
 1271 086e E3       		.byte	0xe3
 1272 086f 94000000 		.4byte	0x94
 1273 0873 64       		.byte	0x64
 1274 0874 00       		.byte	0
 1275 0875 20       		.uleb128 0x20
 1276 0876 94000000 		.4byte	0x94
 1277 087a 93080000 		.4byte	0x893
 1278 087e 21       		.uleb128 0x21
 1279 087f 93080000 		.4byte	0x893
 1280 0883 21       		.uleb128 0x21
 1281 0884 FA040000 		.4byte	0x4fa
 1282 0888 21       		.uleb128 0x21
 1283 0889 D0090000 		.4byte	0x9d0
 1284 088d 21       		.uleb128 0x21
 1285 088e 94000000 		.4byte	0x94
 1286 0892 00       		.byte	0
 1287 0893 18       		.uleb128 0x18
 1288 0894 04       		.byte	0x4
 1289 0895 9E080000 		.4byte	0x89e
 1290 0899 06       		.uleb128 0x6
 1291 089a 93080000 		.4byte	0x893
 1292 089e 22       		.uleb128 0x22
 1293 089f 2A060000 		.4byte	.LASF125
 1294 08a3 2804     		.2byte	0x428
 1295 08a5 0C       		.byte	0xc
 1296 08a6 3802     		.2byte	0x238
 1297 08a8 D0090000 		.4byte	0x9d0
 1298 08ac 08       		.uleb128 0x8
 1299 08ad 98060000 		.4byte	.LASF126
 1300 08b1 0C       		.byte	0xc
 1301 08b2 3A02     		.2byte	0x23a
 1302 08b4 94000000 		.4byte	0x94
 1303 08b8 00       		.byte	0
 1304 08b9 08       		.uleb128 0x8
 1305 08ba D4010000 		.4byte	.LASF127
 1306 08be 0C       		.byte	0xc
 1307 08bf 3F02     		.2byte	0x23f
 1308 08c1 BC0A0000 		.4byte	0xabc
 1309 08c5 04       		.byte	0x4
 1310 08c6 08       		.uleb128 0x8
 1311 08c7 F2020000 		.4byte	.LASF128
 1312 08cb 0C       		.byte	0xc
 1313 08cc 3F02     		.2byte	0x23f
 1314 08ce BC0A0000 		.4byte	0xabc
 1315 08d2 08       		.byte	0x8
 1316 08d3 08       		.uleb128 0x8
ARM GAS  /tmp/ccUNhkLT.s 			page 28


 1317 08d4 96020000 		.4byte	.LASF129
 1318 08d8 0C       		.byte	0xc
 1319 08d9 3F02     		.2byte	0x23f
 1320 08db BC0A0000 		.4byte	0xabc
 1321 08df 0C       		.byte	0xc
 1322 08e0 08       		.uleb128 0x8
 1323 08e1 06060000 		.4byte	.LASF130
 1324 08e5 0C       		.byte	0xc
 1325 08e6 4102     		.2byte	0x241
 1326 08e8 94000000 		.4byte	0x94
 1327 08ec 10       		.byte	0x10
 1328 08ed 08       		.uleb128 0x8
 1329 08ee 4C000000 		.4byte	.LASF131
 1330 08f2 0C       		.byte	0xc
 1331 08f3 4202     		.2byte	0x242
 1332 08f5 9E0C0000 		.4byte	0xc9e
 1333 08f9 14       		.byte	0x14
 1334 08fa 08       		.uleb128 0x8
 1335 08fb 5E070000 		.4byte	.LASF132
 1336 08ff 0C       		.byte	0xc
 1337 0900 4402     		.2byte	0x244
 1338 0902 94000000 		.4byte	0x94
 1339 0906 30       		.byte	0x30
 1340 0907 08       		.uleb128 0x8
 1341 0908 3D080000 		.4byte	.LASF133
 1342 090c 0C       		.byte	0xc
 1343 090d 4502     		.2byte	0x245
 1344 090f 060A0000 		.4byte	0xa06
 1345 0913 34       		.byte	0x34
 1346 0914 08       		.uleb128 0x8
 1347 0915 6A040000 		.4byte	.LASF134
 1348 0919 0C       		.byte	0xc
 1349 091a 4702     		.2byte	0x247
 1350 091c 94000000 		.4byte	0x94
 1351 0920 38       		.byte	0x38
 1352 0921 08       		.uleb128 0x8
 1353 0922 18060000 		.4byte	.LASF135
 1354 0926 0C       		.byte	0xc
 1355 0927 4902     		.2byte	0x249
 1356 0929 B90C0000 		.4byte	0xcb9
 1357 092d 3C       		.byte	0x3c
 1358 092e 08       		.uleb128 0x8
 1359 092f 63030000 		.4byte	.LASF136
 1360 0933 0C       		.byte	0xc
 1361 0934 4C02     		.2byte	0x24c
 1362 0936 ED050000 		.4byte	0x5ed
 1363 093a 40       		.byte	0x40
 1364 093b 08       		.uleb128 0x8
 1365 093c E9010000 		.4byte	.LASF137
 1366 0940 0C       		.byte	0xc
 1367 0941 4D02     		.2byte	0x24d
 1368 0943 94000000 		.4byte	0x94
 1369 0947 44       		.byte	0x44
 1370 0948 08       		.uleb128 0x8
 1371 0949 5B080000 		.4byte	.LASF138
 1372 094d 0C       		.byte	0xc
 1373 094e 4E02     		.2byte	0x24e
ARM GAS  /tmp/ccUNhkLT.s 			page 29


 1374 0950 ED050000 		.4byte	0x5ed
 1375 0954 48       		.byte	0x48
 1376 0955 08       		.uleb128 0x8
 1377 0956 A3040000 		.4byte	.LASF139
 1378 095a 0C       		.byte	0xc
 1379 095b 4F02     		.2byte	0x24f
 1380 095d BF0C0000 		.4byte	0xcbf
 1381 0961 4C       		.byte	0x4c
 1382 0962 08       		.uleb128 0x8
 1383 0963 FA020000 		.4byte	.LASF140
 1384 0967 0C       		.byte	0xc
 1385 0968 5202     		.2byte	0x252
 1386 096a 94000000 		.4byte	0x94
 1387 096e 50       		.byte	0x50
 1388 096f 08       		.uleb128 0x8
 1389 0970 23020000 		.4byte	.LASF141
 1390 0974 0C       		.byte	0xc
 1391 0975 5302     		.2byte	0x253
 1392 0977 D0090000 		.4byte	0x9d0
 1393 097b 54       		.byte	0x54
 1394 097c 08       		.uleb128 0x8
 1395 097d 77030000 		.4byte	.LASF142
 1396 0981 0C       		.byte	0xc
 1397 0982 7602     		.2byte	0x276
 1398 0984 7C0C0000 		.4byte	0xc7c
 1399 0988 58       		.byte	0x58
 1400 0989 09       		.uleb128 0x9
 1401 098a 58040000 		.4byte	.LASF102
 1402 098e 0C       		.byte	0xc
 1403 098f 7A02     		.2byte	0x27a
 1404 0991 0A070000 		.4byte	0x70a
 1405 0995 4801     		.2byte	0x148
 1406 0997 09       		.uleb128 0x9
 1407 0998 6A000000 		.4byte	.LASF143
 1408 099c 0C       		.byte	0xc
 1409 099d 7B02     		.2byte	0x27b
 1410 099f CC060000 		.4byte	0x6cc
 1411 09a3 4C01     		.2byte	0x14c
 1412 09a5 09       		.uleb128 0x9
 1413 09a6 2C030000 		.4byte	.LASF144
 1414 09aa 0C       		.byte	0xc
 1415 09ab 7F02     		.2byte	0x27f
 1416 09ad D00C0000 		.4byte	0xcd0
 1417 09b1 DC02     		.2byte	0x2dc
 1418 09b3 09       		.uleb128 0x9
 1419 09b4 89010000 		.4byte	.LASF145
 1420 09b8 0C       		.byte	0xc
 1421 09b9 8402     		.2byte	0x284
 1422 09bb 810A0000 		.4byte	0xa81
 1423 09bf E002     		.2byte	0x2e0
 1424 09c1 09       		.uleb128 0x9
 1425 09c2 61010000 		.4byte	.LASF146
 1426 09c6 0C       		.byte	0xc
 1427 09c7 8502     		.2byte	0x285
 1428 09c9 DC0C0000 		.4byte	0xcdc
 1429 09cd EC02     		.2byte	0x2ec
 1430 09cf 00       		.byte	0
ARM GAS  /tmp/ccUNhkLT.s 			page 30


 1431 09d0 18       		.uleb128 0x18
 1432 09d1 04       		.byte	0x4
 1433 09d2 D6090000 		.4byte	0x9d6
 1434 09d6 02       		.uleb128 0x2
 1435 09d7 01       		.byte	0x1
 1436 09d8 08       		.byte	0x8
 1437 09d9 9F060000 		.4byte	.LASF147
 1438 09dd 06       		.uleb128 0x6
 1439 09de D6090000 		.4byte	0x9d6
 1440 09e2 18       		.uleb128 0x18
 1441 09e3 04       		.byte	0x4
 1442 09e4 75080000 		.4byte	0x875
 1443 09e8 20       		.uleb128 0x20
 1444 09e9 94000000 		.4byte	0x94
 1445 09ed 060A0000 		.4byte	0xa06
 1446 09f1 21       		.uleb128 0x21
 1447 09f2 93080000 		.4byte	0x893
 1448 09f6 21       		.uleb128 0x21
 1449 09f7 FA040000 		.4byte	0x4fa
 1450 09fb 21       		.uleb128 0x21
 1451 09fc 060A0000 		.4byte	0xa06
 1452 0a00 21       		.uleb128 0x21
 1453 0a01 94000000 		.4byte	0x94
 1454 0a05 00       		.byte	0
 1455 0a06 18       		.uleb128 0x18
 1456 0a07 04       		.byte	0x4
 1457 0a08 DD090000 		.4byte	0x9dd
 1458 0a0c 06       		.uleb128 0x6
 1459 0a0d 060A0000 		.4byte	0xa06
 1460 0a11 18       		.uleb128 0x18
 1461 0a12 04       		.byte	0x4
 1462 0a13 E8090000 		.4byte	0x9e8
 1463 0a17 20       		.uleb128 0x20
 1464 0a18 12050000 		.4byte	0x512
 1465 0a1c 350A0000 		.4byte	0xa35
 1466 0a20 21       		.uleb128 0x21
 1467 0a21 93080000 		.4byte	0x893
 1468 0a25 21       		.uleb128 0x21
 1469 0a26 FA040000 		.4byte	0x4fa
 1470 0a2a 21       		.uleb128 0x21
 1471 0a2b 12050000 		.4byte	0x512
 1472 0a2f 21       		.uleb128 0x21
 1473 0a30 94000000 		.4byte	0x94
 1474 0a34 00       		.byte	0
 1475 0a35 18       		.uleb128 0x18
 1476 0a36 04       		.byte	0x4
 1477 0a37 170A0000 		.4byte	0xa17
 1478 0a3b 20       		.uleb128 0x20
 1479 0a3c 94000000 		.4byte	0x94
 1480 0a40 4F0A0000 		.4byte	0xa4f
 1481 0a44 21       		.uleb128 0x21
 1482 0a45 93080000 		.4byte	0x893
 1483 0a49 21       		.uleb128 0x21
 1484 0a4a FA040000 		.4byte	0x4fa
 1485 0a4e 00       		.byte	0
 1486 0a4f 18       		.uleb128 0x18
 1487 0a50 04       		.byte	0x4
ARM GAS  /tmp/ccUNhkLT.s 			page 31


 1488 0a51 3B0A0000 		.4byte	0xa3b
 1489 0a55 0B       		.uleb128 0xb
 1490 0a56 37000000 		.4byte	0x37
 1491 0a5a 650A0000 		.4byte	0xa65
 1492 0a5e 0C       		.uleb128 0xc
 1493 0a5f BE010000 		.4byte	0x1be
 1494 0a63 02       		.byte	0x2
 1495 0a64 00       		.byte	0
 1496 0a65 0B       		.uleb128 0xb
 1497 0a66 37000000 		.4byte	0x37
 1498 0a6a 750A0000 		.4byte	0xa75
 1499 0a6e 0C       		.uleb128 0xc
 1500 0a6f BE010000 		.4byte	0x1be
 1501 0a73 00       		.byte	0
 1502 0a74 00       		.byte	0
 1503 0a75 0E       		.uleb128 0xe
 1504 0a76 49050000 		.4byte	.LASF148
 1505 0a7a 0C       		.byte	0xc
 1506 0a7b 1D01     		.2byte	0x11d
 1507 0a7d 4B070000 		.4byte	0x74b
 1508 0a81 23       		.uleb128 0x23
 1509 0a82 88070000 		.4byte	.LASF149
 1510 0a86 0C       		.byte	0xc
 1511 0a87 0C       		.byte	0xc
 1512 0a88 2101     		.2byte	0x121
 1513 0a8a B60A0000 		.4byte	0xab6
 1514 0a8e 08       		.uleb128 0x8
 1515 0a8f F6060000 		.4byte	.LASF82
 1516 0a93 0C       		.byte	0xc
 1517 0a94 2301     		.2byte	0x123
 1518 0a96 B60A0000 		.4byte	0xab6
 1519 0a9a 00       		.byte	0
 1520 0a9b 08       		.uleb128 0x8
 1521 0a9c 25030000 		.4byte	.LASF150
 1522 0aa0 0C       		.byte	0xc
 1523 0aa1 2401     		.2byte	0x124
 1524 0aa3 94000000 		.4byte	0x94
 1525 0aa7 04       		.byte	0x4
 1526 0aa8 08       		.uleb128 0x8
 1527 0aa9 43050000 		.4byte	.LASF151
 1528 0aad 0C       		.byte	0xc
 1529 0aae 2501     		.2byte	0x125
 1530 0ab0 BC0A0000 		.4byte	0xabc
 1531 0ab4 08       		.byte	0x8
 1532 0ab5 00       		.byte	0
 1533 0ab6 18       		.uleb128 0x18
 1534 0ab7 04       		.byte	0x4
 1535 0ab8 810A0000 		.4byte	0xa81
 1536 0abc 18       		.uleb128 0x18
 1537 0abd 04       		.byte	0x4
 1538 0abe 750A0000 		.4byte	0xa75
 1539 0ac2 23       		.uleb128 0x23
 1540 0ac3 35000000 		.4byte	.LASF152
 1541 0ac7 0E       		.byte	0xe
 1542 0ac8 0C       		.byte	0xc
 1543 0ac9 3D01     		.2byte	0x13d
 1544 0acb F70A0000 		.4byte	0xaf7
ARM GAS  /tmp/ccUNhkLT.s 			page 32


 1545 0acf 08       		.uleb128 0x8
 1546 0ad0 31060000 		.4byte	.LASF153
 1547 0ad4 0C       		.byte	0xc
 1548 0ad5 3E01     		.2byte	0x13e
 1549 0ad7 F70A0000 		.4byte	0xaf7
 1550 0adb 00       		.byte	0
 1551 0adc 08       		.uleb128 0x8
 1552 0add F0060000 		.4byte	.LASF154
 1553 0ae1 0C       		.byte	0xc
 1554 0ae2 3F01     		.2byte	0x13f
 1555 0ae4 F70A0000 		.4byte	0xaf7
 1556 0ae8 06       		.byte	0x6
 1557 0ae9 08       		.uleb128 0x8
 1558 0aea 25070000 		.4byte	.LASF155
 1559 0aee 0C       		.byte	0xc
 1560 0aef 4001     		.2byte	0x140
 1561 0af1 5B000000 		.4byte	0x5b
 1562 0af5 0C       		.byte	0xc
 1563 0af6 00       		.byte	0
 1564 0af7 0B       		.uleb128 0xb
 1565 0af8 5B000000 		.4byte	0x5b
 1566 0afc 070B0000 		.4byte	0xb07
 1567 0b00 0C       		.uleb128 0xc
 1568 0b01 BE010000 		.4byte	0x1be
 1569 0b05 02       		.byte	0x2
 1570 0b06 00       		.byte	0
 1571 0b07 0F       		.uleb128 0xf
 1572 0b08 D0       		.byte	0xd0
 1573 0b09 0C       		.byte	0xc
 1574 0b0a 5702     		.2byte	0x257
 1575 0b0c 080C0000 		.4byte	0xc08
 1576 0b10 08       		.uleb128 0x8
 1577 0b11 76070000 		.4byte	.LASF156
 1578 0b15 0C       		.byte	0xc
 1579 0b16 5902     		.2byte	0x259
 1580 0b18 9B000000 		.4byte	0x9b
 1581 0b1c 00       		.byte	0
 1582 0b1d 08       		.uleb128 0x8
 1583 0b1e FC060000 		.4byte	.LASF157
 1584 0b22 0C       		.byte	0xc
 1585 0b23 5A02     		.2byte	0x25a
 1586 0b25 D0090000 		.4byte	0x9d0
 1587 0b29 04       		.byte	0x4
 1588 0b2a 08       		.uleb128 0x8
 1589 0b2b 4B030000 		.4byte	.LASF158
 1590 0b2f 0C       		.byte	0xc
 1591 0b30 5B02     		.2byte	0x25b
 1592 0b32 080C0000 		.4byte	0xc08
 1593 0b36 08       		.byte	0x8
 1594 0b37 08       		.uleb128 0x8
 1595 0b38 20080000 		.4byte	.LASF159
 1596 0b3c 0C       		.byte	0xc
 1597 0b3d 5C02     		.2byte	0x25c
 1598 0b3f 03060000 		.4byte	0x603
 1599 0b43 24       		.byte	0x24
 1600 0b44 08       		.uleb128 0x8
 1601 0b45 75040000 		.4byte	.LASF160
ARM GAS  /tmp/ccUNhkLT.s 			page 33


 1602 0b49 0C       		.byte	0xc
 1603 0b4a 5D02     		.2byte	0x25d
 1604 0b4c 94000000 		.4byte	0x94
 1605 0b50 48       		.byte	0x48
 1606 0b51 08       		.uleb128 0x8
 1607 0b52 EE050000 		.4byte	.LASF161
 1608 0b56 0C       		.byte	0xc
 1609 0b57 5E02     		.2byte	0x25e
 1610 0b59 8D000000 		.4byte	0x8d
 1611 0b5d 50       		.byte	0x50
 1612 0b5e 08       		.uleb128 0x8
 1613 0b5f 38080000 		.4byte	.LASF162
 1614 0b63 0C       		.byte	0xc
 1615 0b64 5F02     		.2byte	0x25f
 1616 0b66 C20A0000 		.4byte	0xac2
 1617 0b6a 58       		.byte	0x58
 1618 0b6b 08       		.uleb128 0x8
 1619 0b6c F9050000 		.4byte	.LASF163
 1620 0b70 0C       		.byte	0xc
 1621 0b71 6002     		.2byte	0x260
 1622 0b73 79050000 		.4byte	0x579
 1623 0b77 68       		.byte	0x68
 1624 0b78 08       		.uleb128 0x8
 1625 0b79 4D080000 		.4byte	.LASF164
 1626 0b7d 0C       		.byte	0xc
 1627 0b7e 6102     		.2byte	0x261
 1628 0b80 79050000 		.4byte	0x579
 1629 0b84 70       		.byte	0x70
 1630 0b85 08       		.uleb128 0x8
 1631 0b86 F6000000 		.4byte	.LASF165
 1632 0b8a 0C       		.byte	0xc
 1633 0b8b 6202     		.2byte	0x262
 1634 0b8d 79050000 		.4byte	0x579
 1635 0b91 78       		.byte	0x78
 1636 0b92 08       		.uleb128 0x8
 1637 0b93 A4070000 		.4byte	.LASF166
 1638 0b97 0C       		.byte	0xc
 1639 0b98 6302     		.2byte	0x263
 1640 0b9a 180C0000 		.4byte	0xc18
 1641 0b9e 80       		.byte	0x80
 1642 0b9f 08       		.uleb128 0x8
 1643 0ba0 A4060000 		.4byte	.LASF167
 1644 0ba4 0C       		.byte	0xc
 1645 0ba5 6402     		.2byte	0x264
 1646 0ba7 280C0000 		.4byte	0xc28
 1647 0bab 88       		.byte	0x88
 1648 0bac 08       		.uleb128 0x8
 1649 0bad 32070000 		.4byte	.LASF168
 1650 0bb1 0C       		.byte	0xc
 1651 0bb2 6502     		.2byte	0x265
 1652 0bb4 94000000 		.4byte	0x94
 1653 0bb8 A0       		.byte	0xa0
 1654 0bb9 08       		.uleb128 0x8
 1655 0bba 4B020000 		.4byte	.LASF169
 1656 0bbe 0C       		.byte	0xc
 1657 0bbf 6602     		.2byte	0x266
 1658 0bc1 79050000 		.4byte	0x579
ARM GAS  /tmp/ccUNhkLT.s 			page 34


 1659 0bc5 A4       		.byte	0xa4
 1660 0bc6 08       		.uleb128 0x8
 1661 0bc7 E2000000 		.4byte	.LASF170
 1662 0bcb 0C       		.byte	0xc
 1663 0bcc 6702     		.2byte	0x267
 1664 0bce 79050000 		.4byte	0x579
 1665 0bd2 AC       		.byte	0xac
 1666 0bd3 08       		.uleb128 0x8
 1667 0bd4 3A020000 		.4byte	.LASF171
 1668 0bd8 0C       		.byte	0xc
 1669 0bd9 6802     		.2byte	0x268
 1670 0bdb 79050000 		.4byte	0x579
 1671 0bdf B4       		.byte	0xb4
 1672 0be0 08       		.uleb128 0x8
 1673 0be1 7A000000 		.4byte	.LASF172
 1674 0be5 0C       		.byte	0xc
 1675 0be6 6902     		.2byte	0x269
 1676 0be8 79050000 		.4byte	0x579
 1677 0bec BC       		.byte	0xbc
 1678 0bed 08       		.uleb128 0x8
 1679 0bee 89000000 		.4byte	.LASF173
 1680 0bf2 0C       		.byte	0xc
 1681 0bf3 6A02     		.2byte	0x26a
 1682 0bf5 79050000 		.4byte	0x579
 1683 0bf9 C4       		.byte	0xc4
 1684 0bfa 08       		.uleb128 0x8
 1685 0bfb 0E050000 		.4byte	.LASF174
 1686 0bff 0C       		.byte	0xc
 1687 0c00 6B02     		.2byte	0x26b
 1688 0c02 94000000 		.4byte	0x94
 1689 0c06 CC       		.byte	0xcc
 1690 0c07 00       		.byte	0
 1691 0c08 0B       		.uleb128 0xb
 1692 0c09 D6090000 		.4byte	0x9d6
 1693 0c0d 180C0000 		.4byte	0xc18
 1694 0c11 0C       		.uleb128 0xc
 1695 0c12 BE010000 		.4byte	0x1be
 1696 0c16 19       		.byte	0x19
 1697 0c17 00       		.byte	0
 1698 0c18 0B       		.uleb128 0xb
 1699 0c19 D6090000 		.4byte	0x9d6
 1700 0c1d 280C0000 		.4byte	0xc28
 1701 0c21 0C       		.uleb128 0xc
 1702 0c22 BE010000 		.4byte	0x1be
 1703 0c26 07       		.byte	0x7
 1704 0c27 00       		.byte	0
 1705 0c28 0B       		.uleb128 0xb
 1706 0c29 D6090000 		.4byte	0x9d6
 1707 0c2d 380C0000 		.4byte	0xc38
 1708 0c31 0C       		.uleb128 0xc
 1709 0c32 BE010000 		.4byte	0x1be
 1710 0c36 17       		.byte	0x17
 1711 0c37 00       		.byte	0
 1712 0c38 0F       		.uleb128 0xf
 1713 0c39 F0       		.byte	0xf0
 1714 0c3a 0C       		.byte	0xc
 1715 0c3b 7002     		.2byte	0x270
ARM GAS  /tmp/ccUNhkLT.s 			page 35


 1716 0c3d 5C0C0000 		.4byte	0xc5c
 1717 0c41 08       		.uleb128 0x8
 1718 0c42 23040000 		.4byte	.LASF175
 1719 0c46 0C       		.byte	0xc
 1720 0c47 7302     		.2byte	0x273
 1721 0c49 5C0C0000 		.4byte	0xc5c
 1722 0c4d 00       		.byte	0
 1723 0c4e 08       		.uleb128 0x8
 1724 0c4f CA030000 		.4byte	.LASF176
 1725 0c53 0C       		.byte	0xc
 1726 0c54 7402     		.2byte	0x274
 1727 0c56 6C0C0000 		.4byte	0xc6c
 1728 0c5a 78       		.byte	0x78
 1729 0c5b 00       		.byte	0
 1730 0c5c 0B       		.uleb128 0xb
 1731 0c5d 45070000 		.4byte	0x745
 1732 0c61 6C0C0000 		.4byte	0xc6c
 1733 0c65 0C       		.uleb128 0xc
 1734 0c66 BE010000 		.4byte	0x1be
 1735 0c6a 1D       		.byte	0x1d
 1736 0c6b 00       		.byte	0
 1737 0c6c 0B       		.uleb128 0xb
 1738 0c6d 9B000000 		.4byte	0x9b
 1739 0c71 7C0C0000 		.4byte	0xc7c
 1740 0c75 0C       		.uleb128 0xc
 1741 0c76 BE010000 		.4byte	0x1be
 1742 0c7a 1D       		.byte	0x1d
 1743 0c7b 00       		.byte	0
 1744 0c7c 24       		.uleb128 0x24
 1745 0c7d F0       		.byte	0xf0
 1746 0c7e 0C       		.byte	0xc
 1747 0c7f 5502     		.2byte	0x255
 1748 0c81 9E0C0000 		.4byte	0xc9e
 1749 0c85 25       		.uleb128 0x25
 1750 0c86 2A060000 		.4byte	.LASF125
 1751 0c8a 0C       		.byte	0xc
 1752 0c8b 6C02     		.2byte	0x26c
 1753 0c8d 070B0000 		.4byte	0xb07
 1754 0c91 25       		.uleb128 0x25
 1755 0c92 F1070000 		.4byte	.LASF177
 1756 0c96 0C       		.byte	0xc
 1757 0c97 7502     		.2byte	0x275
 1758 0c99 380C0000 		.4byte	0xc38
 1759 0c9d 00       		.byte	0
 1760 0c9e 0B       		.uleb128 0xb
 1761 0c9f D6090000 		.4byte	0x9d6
 1762 0ca3 AE0C0000 		.4byte	0xcae
 1763 0ca7 0C       		.uleb128 0xc
 1764 0ca8 BE010000 		.4byte	0x1be
 1765 0cac 18       		.byte	0x18
 1766 0cad 00       		.byte	0
 1767 0cae 26       		.uleb128 0x26
 1768 0caf B90C0000 		.4byte	0xcb9
 1769 0cb3 21       		.uleb128 0x21
 1770 0cb4 93080000 		.4byte	0x893
 1771 0cb8 00       		.byte	0
 1772 0cb9 18       		.uleb128 0x18
ARM GAS  /tmp/ccUNhkLT.s 			page 36


 1773 0cba 04       		.byte	0x4
 1774 0cbb AE0C0000 		.4byte	0xcae
 1775 0cbf 18       		.uleb128 0x18
 1776 0cc0 04       		.byte	0x4
 1777 0cc1 ED050000 		.4byte	0x5ed
 1778 0cc5 26       		.uleb128 0x26
 1779 0cc6 D00C0000 		.4byte	0xcd0
 1780 0cca 21       		.uleb128 0x21
 1781 0ccb 94000000 		.4byte	0x94
 1782 0ccf 00       		.byte	0
 1783 0cd0 18       		.uleb128 0x18
 1784 0cd1 04       		.byte	0x4
 1785 0cd2 D60C0000 		.4byte	0xcd6
 1786 0cd6 18       		.uleb128 0x18
 1787 0cd7 04       		.byte	0x4
 1788 0cd8 C50C0000 		.4byte	0xcc5
 1789 0cdc 0B       		.uleb128 0xb
 1790 0cdd 750A0000 		.4byte	0xa75
 1791 0ce1 EC0C0000 		.4byte	0xcec
 1792 0ce5 0C       		.uleb128 0xc
 1793 0ce6 BE010000 		.4byte	0x1be
 1794 0cea 02       		.byte	0x2
 1795 0ceb 00       		.byte	0
 1796 0cec 11       		.uleb128 0x11
 1797 0ced 8A020000 		.4byte	.LASF178
 1798 0cf1 0C       		.byte	0xc
 1799 0cf2 FD02     		.2byte	0x2fd
 1800 0cf4 93080000 		.4byte	0x893
 1801 0cf8 11       		.uleb128 0x11
 1802 0cf9 4B070000 		.4byte	.LASF179
 1803 0cfd 0C       		.byte	0xc
 1804 0cfe FE02     		.2byte	0x2fe
 1805 0d00 99080000 		.4byte	0x899
 1806 0d04 12       		.uleb128 0x12
 1807 0d05 60040000 		.4byte	.LASF180
 1808 0d09 0D       		.byte	0xd
 1809 0d0a 5F       		.byte	0x5f
 1810 0d0b D0090000 		.4byte	0x9d0
 1811 0d0f 02       		.uleb128 0x2
 1812 0d10 08       		.byte	0x8
 1813 0d11 04       		.byte	0x4
 1814 0d12 7E080000 		.4byte	.LASF181
 1815 0d16 02       		.uleb128 0x2
 1816 0d17 08       		.byte	0x8
 1817 0d18 04       		.byte	0x4
 1818 0d19 8C060000 		.4byte	.LASF182
 1819 0d1d 27       		.uleb128 0x27
 1820 0d1e DE030000 		.4byte	.LASF207
 1821 0d22 01       		.byte	0x1
 1822 0d23 25000000 		.4byte	0x25
 1823 0d27 0E       		.byte	0xe
 1824 0d28 9902     		.2byte	0x299
 1825 0d2a 470D0000 		.4byte	0xd47
 1826 0d2e 28       		.uleb128 0x28
 1827 0d2f B0060000 		.4byte	.LASF183
 1828 0d33 7F       		.sleb128 -1
 1829 0d34 14       		.uleb128 0x14
ARM GAS  /tmp/ccUNhkLT.s 			page 37


 1830 0d35 DB010000 		.4byte	.LASF184
 1831 0d39 00       		.byte	0
 1832 0d3a 14       		.uleb128 0x14
 1833 0d3b 3D000000 		.4byte	.LASF185
 1834 0d3f 01       		.byte	0x1
 1835 0d40 14       		.uleb128 0x14
 1836 0d41 B1000000 		.4byte	.LASF186
 1837 0d45 02       		.byte	0x2
 1838 0d46 00       		.byte	0
 1839 0d47 11       		.uleb128 0x11
 1840 0d48 CD000000 		.4byte	.LASF187
 1841 0d4c 0E       		.byte	0xe
 1842 0d4d A402     		.2byte	0x2a4
 1843 0d4f 1D0D0000 		.4byte	0xd1d
 1844 0d53 0B       		.uleb128 0xb
 1845 0d54 0C0A0000 		.4byte	0xa0c
 1846 0d58 5E0D0000 		.4byte	0xd5e
 1847 0d5c 29       		.uleb128 0x29
 1848 0d5d 00       		.byte	0
 1849 0d5e 06       		.uleb128 0x6
 1850 0d5f 530D0000 		.4byte	0xd53
 1851 0d63 12       		.uleb128 0x12
 1852 0d64 16020000 		.4byte	.LASF188
 1853 0d68 0F       		.byte	0xf
 1854 0d69 14       		.byte	0x14
 1855 0d6a 5E0D0000 		.4byte	0xd5e
 1856 0d6e 12       		.uleb128 0x12
 1857 0d6f 76050000 		.4byte	.LASF189
 1858 0d73 0F       		.byte	0xf
 1859 0d74 15       		.byte	0x15
 1860 0d75 94000000 		.4byte	0x94
 1861 0d79 2A       		.uleb128 0x2a
 1862 0d7a F9070000 		.4byte	.LASF190
 1863 0d7e 07       		.byte	0x7
 1864 0d7f C8       		.byte	0xc8
 1865 0d80 A8000000 		.4byte	.LFB68
 1866 0d84 18000000 		.4byte	.LFE68-.LFB68
 1867 0d88 01       		.uleb128 0x1
 1868 0d89 9C       		.byte	0x9c
 1869 0d8a 9C0D0000 		.4byte	0xd9c
 1870 0d8e 2B       		.uleb128 0x2b
 1871 0d8f 8B040000 		.4byte	.LASF192
 1872 0d93 01       		.byte	0x1
 1873 0d94 C8       		.byte	0xc8
 1874 0d95 D8000000 		.4byte	0xd8
 1875 0d99 01       		.uleb128 0x1
 1876 0d9a 50       		.byte	0x50
 1877 0d9b 00       		.byte	0
 1878 0d9c 2A       		.uleb128 0x2a
 1879 0d9d 2D010000 		.4byte	.LASF191
 1880 0da1 07       		.byte	0x7
 1881 0da2 C7       		.byte	0xc7
 1882 0da3 8C000000 		.4byte	.LFB67
 1883 0da7 1C000000 		.4byte	.LFE67-.LFB67
 1884 0dab 01       		.uleb128 0x1
 1885 0dac 9C       		.byte	0x9c
 1886 0dad CE0D0000 		.4byte	0xdce
ARM GAS  /tmp/ccUNhkLT.s 			page 38


 1887 0db1 2C       		.uleb128 0x2c
 1888 0db2 3F060000 		.4byte	.LASF193
 1889 0db6 01       		.byte	0x1
 1890 0db7 B0       		.byte	0xb0
 1891 0db8 A2000000 		.4byte	0xa2
 1892 0dbc 00000000 		.4byte	.LLST6
 1893 0dc0 2B       		.uleb128 0x2b
 1894 0dc1 0C000000 		.4byte	.LASF194
 1895 0dc5 01       		.byte	0x1
 1896 0dc6 B0       		.byte	0xb0
 1897 0dc7 2C040000 		.4byte	0x42c
 1898 0dcb 01       		.uleb128 0x1
 1899 0dcc 51       		.byte	0x51
 1900 0dcd 00       		.byte	0
 1901 0dce 2A       		.uleb128 0x2a
 1902 0dcf A6020000 		.4byte	.LASF195
 1903 0dd3 07       		.byte	0x7
 1904 0dd4 C6       		.byte	0xc6
 1905 0dd5 78000000 		.4byte	.LFB66
 1906 0dd9 14000000 		.4byte	.LFE66-.LFB66
 1907 0ddd 01       		.uleb128 0x1
 1908 0dde 9C       		.byte	0x9c
 1909 0ddf 000E0000 		.4byte	0xe00
 1910 0de3 2B       		.uleb128 0x2b
 1911 0de4 E5020000 		.4byte	.LASF196
 1912 0de8 01       		.byte	0x1
 1913 0de9 9D       		.byte	0x9d
 1914 0dea D8000000 		.4byte	0xd8
 1915 0dee 01       		.uleb128 0x1
 1916 0def 50       		.byte	0x50
 1917 0df0 2C       		.uleb128 0x2c
 1918 0df1 8E070000 		.4byte	.LASF197
 1919 0df5 01       		.byte	0x1
 1920 0df6 9D       		.byte	0x9d
 1921 0df7 D8000000 		.4byte	0xd8
 1922 0dfb 3A000000 		.4byte	.LLST5
 1923 0dff 00       		.byte	0
 1924 0e00 2A       		.uleb128 0x2a
 1925 0e01 74080000 		.4byte	.LASF198
 1926 0e05 07       		.byte	0x7
 1927 0e06 C5       		.byte	0xc5
 1928 0e07 14000000 		.4byte	.LFB65
 1929 0e0b 64000000 		.4byte	.LFE65-.LFB65
 1930 0e0f 01       		.uleb128 0x1
 1931 0e10 9C       		.byte	0x9c
 1932 0e11 520E0000 		.4byte	0xe52
 1933 0e15 2C       		.uleb128 0x2c
 1934 0e16 36030000 		.4byte	.LASF199
 1935 0e1a 01       		.byte	0x1
 1936 0e1b 71       		.byte	0x71
 1937 0e1c 520E0000 		.4byte	0xe52
 1938 0e20 5B000000 		.4byte	.LLST1
 1939 0e24 2D       		.uleb128 0x2d
 1940 0e25 AE070000 		.4byte	.LASF200
 1941 0e29 01       		.byte	0x1
 1942 0e2a 73       		.byte	0x73
 1943 0e2b D8000000 		.4byte	0xd8
ARM GAS  /tmp/ccUNhkLT.s 			page 39


 1944 0e2f 7C000000 		.4byte	.LLST2
 1945 0e33 2D       		.uleb128 0x2d
 1946 0e34 33020000 		.4byte	.LASF201
 1947 0e38 01       		.byte	0x1
 1948 0e39 73       		.byte	0x73
 1949 0e3a D8000000 		.4byte	0xd8
 1950 0e3e C0000000 		.4byte	.LLST3
 1951 0e42 2D       		.uleb128 0x2d
 1952 0e43 C0000000 		.4byte	.LASF202
 1953 0e47 01       		.byte	0x1
 1954 0e48 73       		.byte	0x73
 1955 0e49 D8000000 		.4byte	0xd8
 1956 0e4d EE000000 		.4byte	.LLST4
 1957 0e51 00       		.byte	0
 1958 0e52 18       		.uleb128 0x18
 1959 0e53 04       		.byte	0x4
 1960 0e54 71040000 		.4byte	0x471
 1961 0e58 2E       		.uleb128 0x2e
 1962 0e59 BA070000 		.4byte	.LASF208
 1963 0e5d 07       		.byte	0x7
 1964 0e5e C4       		.byte	0xc4
 1965 0e5f 00000000 		.4byte	.LFB64
 1966 0e63 14000000 		.4byte	.LFE64-.LFB64
 1967 0e67 01       		.uleb128 0x1
 1968 0e68 9C       		.byte	0x9c
 1969 0e69 2C       		.uleb128 0x2c
 1970 0e6a 5B050000 		.4byte	.LASF203
 1971 0e6e 01       		.byte	0x1
 1972 0e6f 61       		.byte	0x61
 1973 0e70 D8000000 		.4byte	0xd8
 1974 0e74 1C010000 		.4byte	.LLST0
 1975 0e78 00       		.byte	0
 1976 0e79 00       		.byte	0
 1977              		.section	.debug_abbrev,"",%progbits
 1978              	.Ldebug_abbrev0:
 1979 0000 01       		.uleb128 0x1
 1980 0001 11       		.uleb128 0x11
 1981 0002 01       		.byte	0x1
 1982 0003 25       		.uleb128 0x25
 1983 0004 0E       		.uleb128 0xe
 1984 0005 13       		.uleb128 0x13
 1985 0006 0B       		.uleb128 0xb
 1986 0007 03       		.uleb128 0x3
 1987 0008 0E       		.uleb128 0xe
 1988 0009 1B       		.uleb128 0x1b
 1989 000a 0E       		.uleb128 0xe
 1990 000b 11       		.uleb128 0x11
 1991 000c 01       		.uleb128 0x1
 1992 000d 12       		.uleb128 0x12
 1993 000e 06       		.uleb128 0x6
 1994 000f 10       		.uleb128 0x10
 1995 0010 17       		.uleb128 0x17
 1996 0011 00       		.byte	0
 1997 0012 00       		.byte	0
 1998 0013 02       		.uleb128 0x2
 1999 0014 24       		.uleb128 0x24
 2000 0015 00       		.byte	0
ARM GAS  /tmp/ccUNhkLT.s 			page 40


 2001 0016 0B       		.uleb128 0xb
 2002 0017 0B       		.uleb128 0xb
 2003 0018 3E       		.uleb128 0x3e
 2004 0019 0B       		.uleb128 0xb
 2005 001a 03       		.uleb128 0x3
 2006 001b 0E       		.uleb128 0xe
 2007 001c 00       		.byte	0
 2008 001d 00       		.byte	0
 2009 001e 03       		.uleb128 0x3
 2010 001f 16       		.uleb128 0x16
 2011 0020 00       		.byte	0
 2012 0021 03       		.uleb128 0x3
 2013 0022 0E       		.uleb128 0xe
 2014 0023 3A       		.uleb128 0x3a
 2015 0024 0B       		.uleb128 0xb
 2016 0025 3B       		.uleb128 0x3b
 2017 0026 0B       		.uleb128 0xb
 2018 0027 49       		.uleb128 0x49
 2019 0028 13       		.uleb128 0x13
 2020 0029 00       		.byte	0
 2021 002a 00       		.byte	0
 2022 002b 04       		.uleb128 0x4
 2023 002c 24       		.uleb128 0x24
 2024 002d 00       		.byte	0
 2025 002e 0B       		.uleb128 0xb
 2026 002f 0B       		.uleb128 0xb
 2027 0030 3E       		.uleb128 0x3e
 2028 0031 0B       		.uleb128 0xb
 2029 0032 03       		.uleb128 0x3
 2030 0033 08       		.uleb128 0x8
 2031 0034 00       		.byte	0
 2032 0035 00       		.byte	0
 2033 0036 05       		.uleb128 0x5
 2034 0037 35       		.uleb128 0x35
 2035 0038 00       		.byte	0
 2036 0039 49       		.uleb128 0x49
 2037 003a 13       		.uleb128 0x13
 2038 003b 00       		.byte	0
 2039 003c 00       		.byte	0
 2040 003d 06       		.uleb128 0x6
 2041 003e 26       		.uleb128 0x26
 2042 003f 00       		.byte	0
 2043 0040 49       		.uleb128 0x49
 2044 0041 13       		.uleb128 0x13
 2045 0042 00       		.byte	0
 2046 0043 00       		.byte	0
 2047 0044 07       		.uleb128 0x7
 2048 0045 13       		.uleb128 0x13
 2049 0046 01       		.byte	0x1
 2050 0047 0B       		.uleb128 0xb
 2051 0048 05       		.uleb128 0x5
 2052 0049 3A       		.uleb128 0x3a
 2053 004a 0B       		.uleb128 0xb
 2054 004b 3B       		.uleb128 0x3b
 2055 004c 05       		.uleb128 0x5
 2056 004d 01       		.uleb128 0x1
 2057 004e 13       		.uleb128 0x13
ARM GAS  /tmp/ccUNhkLT.s 			page 41


 2058 004f 00       		.byte	0
 2059 0050 00       		.byte	0
 2060 0051 08       		.uleb128 0x8
 2061 0052 0D       		.uleb128 0xd
 2062 0053 00       		.byte	0
 2063 0054 03       		.uleb128 0x3
 2064 0055 0E       		.uleb128 0xe
 2065 0056 3A       		.uleb128 0x3a
 2066 0057 0B       		.uleb128 0xb
 2067 0058 3B       		.uleb128 0x3b
 2068 0059 05       		.uleb128 0x5
 2069 005a 49       		.uleb128 0x49
 2070 005b 13       		.uleb128 0x13
 2071 005c 38       		.uleb128 0x38
 2072 005d 0B       		.uleb128 0xb
 2073 005e 00       		.byte	0
 2074 005f 00       		.byte	0
 2075 0060 09       		.uleb128 0x9
 2076 0061 0D       		.uleb128 0xd
 2077 0062 00       		.byte	0
 2078 0063 03       		.uleb128 0x3
 2079 0064 0E       		.uleb128 0xe
 2080 0065 3A       		.uleb128 0x3a
 2081 0066 0B       		.uleb128 0xb
 2082 0067 3B       		.uleb128 0x3b
 2083 0068 05       		.uleb128 0x5
 2084 0069 49       		.uleb128 0x49
 2085 006a 13       		.uleb128 0x13
 2086 006b 38       		.uleb128 0x38
 2087 006c 05       		.uleb128 0x5
 2088 006d 00       		.byte	0
 2089 006e 00       		.byte	0
 2090 006f 0A       		.uleb128 0xa
 2091 0070 0D       		.uleb128 0xd
 2092 0071 00       		.byte	0
 2093 0072 03       		.uleb128 0x3
 2094 0073 08       		.uleb128 0x8
 2095 0074 3A       		.uleb128 0x3a
 2096 0075 0B       		.uleb128 0xb
 2097 0076 3B       		.uleb128 0x3b
 2098 0077 05       		.uleb128 0x5
 2099 0078 49       		.uleb128 0x49
 2100 0079 13       		.uleb128 0x13
 2101 007a 38       		.uleb128 0x38
 2102 007b 05       		.uleb128 0x5
 2103 007c 00       		.byte	0
 2104 007d 00       		.byte	0
 2105 007e 0B       		.uleb128 0xb
 2106 007f 01       		.uleb128 0x1
 2107 0080 01       		.byte	0x1
 2108 0081 49       		.uleb128 0x49
 2109 0082 13       		.uleb128 0x13
 2110 0083 01       		.uleb128 0x1
 2111 0084 13       		.uleb128 0x13
 2112 0085 00       		.byte	0
 2113 0086 00       		.byte	0
 2114 0087 0C       		.uleb128 0xc
ARM GAS  /tmp/ccUNhkLT.s 			page 42


 2115 0088 21       		.uleb128 0x21
 2116 0089 00       		.byte	0
 2117 008a 49       		.uleb128 0x49
 2118 008b 13       		.uleb128 0x13
 2119 008c 2F       		.uleb128 0x2f
 2120 008d 0B       		.uleb128 0xb
 2121 008e 00       		.byte	0
 2122 008f 00       		.byte	0
 2123 0090 0D       		.uleb128 0xd
 2124 0091 21       		.uleb128 0x21
 2125 0092 00       		.byte	0
 2126 0093 49       		.uleb128 0x49
 2127 0094 13       		.uleb128 0x13
 2128 0095 2F       		.uleb128 0x2f
 2129 0096 05       		.uleb128 0x5
 2130 0097 00       		.byte	0
 2131 0098 00       		.byte	0
 2132 0099 0E       		.uleb128 0xe
 2133 009a 16       		.uleb128 0x16
 2134 009b 00       		.byte	0
 2135 009c 03       		.uleb128 0x3
 2136 009d 0E       		.uleb128 0xe
 2137 009e 3A       		.uleb128 0x3a
 2138 009f 0B       		.uleb128 0xb
 2139 00a0 3B       		.uleb128 0x3b
 2140 00a1 05       		.uleb128 0x5
 2141 00a2 49       		.uleb128 0x49
 2142 00a3 13       		.uleb128 0x13
 2143 00a4 00       		.byte	0
 2144 00a5 00       		.byte	0
 2145 00a6 0F       		.uleb128 0xf
 2146 00a7 13       		.uleb128 0x13
 2147 00a8 01       		.byte	0x1
 2148 00a9 0B       		.uleb128 0xb
 2149 00aa 0B       		.uleb128 0xb
 2150 00ab 3A       		.uleb128 0x3a
 2151 00ac 0B       		.uleb128 0xb
 2152 00ad 3B       		.uleb128 0x3b
 2153 00ae 05       		.uleb128 0x5
 2154 00af 01       		.uleb128 0x1
 2155 00b0 13       		.uleb128 0x13
 2156 00b1 00       		.byte	0
 2157 00b2 00       		.byte	0
 2158 00b3 10       		.uleb128 0x10
 2159 00b4 0D       		.uleb128 0xd
 2160 00b5 00       		.byte	0
 2161 00b6 03       		.uleb128 0x3
 2162 00b7 08       		.uleb128 0x8
 2163 00b8 3A       		.uleb128 0x3a
 2164 00b9 0B       		.uleb128 0xb
 2165 00ba 3B       		.uleb128 0x3b
 2166 00bb 05       		.uleb128 0x5
 2167 00bc 49       		.uleb128 0x49
 2168 00bd 13       		.uleb128 0x13
 2169 00be 38       		.uleb128 0x38
 2170 00bf 0B       		.uleb128 0xb
 2171 00c0 00       		.byte	0
ARM GAS  /tmp/ccUNhkLT.s 			page 43


 2172 00c1 00       		.byte	0
 2173 00c2 11       		.uleb128 0x11
 2174 00c3 34       		.uleb128 0x34
 2175 00c4 00       		.byte	0
 2176 00c5 03       		.uleb128 0x3
 2177 00c6 0E       		.uleb128 0xe
 2178 00c7 3A       		.uleb128 0x3a
 2179 00c8 0B       		.uleb128 0xb
 2180 00c9 3B       		.uleb128 0x3b
 2181 00ca 05       		.uleb128 0x5
 2182 00cb 49       		.uleb128 0x49
 2183 00cc 13       		.uleb128 0x13
 2184 00cd 3F       		.uleb128 0x3f
 2185 00ce 19       		.uleb128 0x19
 2186 00cf 3C       		.uleb128 0x3c
 2187 00d0 19       		.uleb128 0x19
 2188 00d1 00       		.byte	0
 2189 00d2 00       		.byte	0
 2190 00d3 12       		.uleb128 0x12
 2191 00d4 34       		.uleb128 0x34
 2192 00d5 00       		.byte	0
 2193 00d6 03       		.uleb128 0x3
 2194 00d7 0E       		.uleb128 0xe
 2195 00d8 3A       		.uleb128 0x3a
 2196 00d9 0B       		.uleb128 0xb
 2197 00da 3B       		.uleb128 0x3b
 2198 00db 0B       		.uleb128 0xb
 2199 00dc 49       		.uleb128 0x49
 2200 00dd 13       		.uleb128 0x13
 2201 00de 3F       		.uleb128 0x3f
 2202 00df 19       		.uleb128 0x19
 2203 00e0 3C       		.uleb128 0x3c
 2204 00e1 19       		.uleb128 0x19
 2205 00e2 00       		.byte	0
 2206 00e3 00       		.byte	0
 2207 00e4 13       		.uleb128 0x13
 2208 00e5 04       		.uleb128 0x4
 2209 00e6 01       		.byte	0x1
 2210 00e7 0B       		.uleb128 0xb
 2211 00e8 0B       		.uleb128 0xb
 2212 00e9 49       		.uleb128 0x49
 2213 00ea 13       		.uleb128 0x13
 2214 00eb 3A       		.uleb128 0x3a
 2215 00ec 0B       		.uleb128 0xb
 2216 00ed 3B       		.uleb128 0x3b
 2217 00ee 05       		.uleb128 0x5
 2218 00ef 01       		.uleb128 0x1
 2219 00f0 13       		.uleb128 0x13
 2220 00f1 00       		.byte	0
 2221 00f2 00       		.byte	0
 2222 00f3 14       		.uleb128 0x14
 2223 00f4 28       		.uleb128 0x28
 2224 00f5 00       		.byte	0
 2225 00f6 03       		.uleb128 0x3
 2226 00f7 0E       		.uleb128 0xe
 2227 00f8 1C       		.uleb128 0x1c
 2228 00f9 0B       		.uleb128 0xb
ARM GAS  /tmp/ccUNhkLT.s 			page 44


 2229 00fa 00       		.byte	0
 2230 00fb 00       		.byte	0
 2231 00fc 15       		.uleb128 0x15
 2232 00fd 13       		.uleb128 0x13
 2233 00fe 01       		.byte	0x1
 2234 00ff 0B       		.uleb128 0xb
 2235 0100 0B       		.uleb128 0xb
 2236 0101 3A       		.uleb128 0x3a
 2237 0102 0B       		.uleb128 0xb
 2238 0103 3B       		.uleb128 0x3b
 2239 0104 0B       		.uleb128 0xb
 2240 0105 01       		.uleb128 0x1
 2241 0106 13       		.uleb128 0x13
 2242 0107 00       		.byte	0
 2243 0108 00       		.byte	0
 2244 0109 16       		.uleb128 0x16
 2245 010a 0D       		.uleb128 0xd
 2246 010b 00       		.byte	0
 2247 010c 03       		.uleb128 0x3
 2248 010d 0E       		.uleb128 0xe
 2249 010e 3A       		.uleb128 0x3a
 2250 010f 0B       		.uleb128 0xb
 2251 0110 3B       		.uleb128 0x3b
 2252 0111 0B       		.uleb128 0xb
 2253 0112 49       		.uleb128 0x49
 2254 0113 13       		.uleb128 0x13
 2255 0114 38       		.uleb128 0x38
 2256 0115 0B       		.uleb128 0xb
 2257 0116 00       		.byte	0
 2258 0117 00       		.byte	0
 2259 0118 17       		.uleb128 0x17
 2260 0119 15       		.uleb128 0x15
 2261 011a 00       		.byte	0
 2262 011b 27       		.uleb128 0x27
 2263 011c 19       		.uleb128 0x19
 2264 011d 00       		.byte	0
 2265 011e 00       		.byte	0
 2266 011f 18       		.uleb128 0x18
 2267 0120 0F       		.uleb128 0xf
 2268 0121 00       		.byte	0
 2269 0122 0B       		.uleb128 0xb
 2270 0123 0B       		.uleb128 0xb
 2271 0124 49       		.uleb128 0x49
 2272 0125 13       		.uleb128 0x13
 2273 0126 00       		.byte	0
 2274 0127 00       		.byte	0
 2275 0128 19       		.uleb128 0x19
 2276 0129 0F       		.uleb128 0xf
 2277 012a 00       		.byte	0
 2278 012b 0B       		.uleb128 0xb
 2279 012c 0B       		.uleb128 0xb
 2280 012d 00       		.byte	0
 2281 012e 00       		.byte	0
 2282 012f 1A       		.uleb128 0x1a
 2283 0130 17       		.uleb128 0x17
 2284 0131 01       		.byte	0x1
 2285 0132 0B       		.uleb128 0xb
ARM GAS  /tmp/ccUNhkLT.s 			page 45


 2286 0133 0B       		.uleb128 0xb
 2287 0134 3A       		.uleb128 0x3a
 2288 0135 0B       		.uleb128 0xb
 2289 0136 3B       		.uleb128 0x3b
 2290 0137 0B       		.uleb128 0xb
 2291 0138 01       		.uleb128 0x1
 2292 0139 13       		.uleb128 0x13
 2293 013a 00       		.byte	0
 2294 013b 00       		.byte	0
 2295 013c 1B       		.uleb128 0x1b
 2296 013d 0D       		.uleb128 0xd
 2297 013e 00       		.byte	0
 2298 013f 03       		.uleb128 0x3
 2299 0140 0E       		.uleb128 0xe
 2300 0141 3A       		.uleb128 0x3a
 2301 0142 0B       		.uleb128 0xb
 2302 0143 3B       		.uleb128 0x3b
 2303 0144 0B       		.uleb128 0xb
 2304 0145 49       		.uleb128 0x49
 2305 0146 13       		.uleb128 0x13
 2306 0147 00       		.byte	0
 2307 0148 00       		.byte	0
 2308 0149 1C       		.uleb128 0x1c
 2309 014a 13       		.uleb128 0x13
 2310 014b 01       		.byte	0x1
 2311 014c 03       		.uleb128 0x3
 2312 014d 0E       		.uleb128 0xe
 2313 014e 0B       		.uleb128 0xb
 2314 014f 0B       		.uleb128 0xb
 2315 0150 3A       		.uleb128 0x3a
 2316 0151 0B       		.uleb128 0xb
 2317 0152 3B       		.uleb128 0x3b
 2318 0153 0B       		.uleb128 0xb
 2319 0154 01       		.uleb128 0x1
 2320 0155 13       		.uleb128 0x13
 2321 0156 00       		.byte	0
 2322 0157 00       		.byte	0
 2323 0158 1D       		.uleb128 0x1d
 2324 0159 0D       		.uleb128 0xd
 2325 015a 00       		.byte	0
 2326 015b 03       		.uleb128 0x3
 2327 015c 08       		.uleb128 0x8
 2328 015d 3A       		.uleb128 0x3a
 2329 015e 0B       		.uleb128 0xb
 2330 015f 3B       		.uleb128 0x3b
 2331 0160 0B       		.uleb128 0xb
 2332 0161 49       		.uleb128 0x49
 2333 0162 13       		.uleb128 0x13
 2334 0163 38       		.uleb128 0x38
 2335 0164 0B       		.uleb128 0xb
 2336 0165 00       		.byte	0
 2337 0166 00       		.byte	0
 2338 0167 1E       		.uleb128 0x1e
 2339 0168 13       		.uleb128 0x13
 2340 0169 01       		.byte	0x1
 2341 016a 03       		.uleb128 0x3
 2342 016b 0E       		.uleb128 0xe
ARM GAS  /tmp/ccUNhkLT.s 			page 46


 2343 016c 0B       		.uleb128 0xb
 2344 016d 05       		.uleb128 0x5
 2345 016e 3A       		.uleb128 0x3a
 2346 016f 0B       		.uleb128 0xb
 2347 0170 3B       		.uleb128 0x3b
 2348 0171 0B       		.uleb128 0xb
 2349 0172 01       		.uleb128 0x1
 2350 0173 13       		.uleb128 0x13
 2351 0174 00       		.byte	0
 2352 0175 00       		.byte	0
 2353 0176 1F       		.uleb128 0x1f
 2354 0177 0D       		.uleb128 0xd
 2355 0178 00       		.byte	0
 2356 0179 03       		.uleb128 0x3
 2357 017a 0E       		.uleb128 0xe
 2358 017b 3A       		.uleb128 0x3a
 2359 017c 0B       		.uleb128 0xb
 2360 017d 3B       		.uleb128 0x3b
 2361 017e 0B       		.uleb128 0xb
 2362 017f 49       		.uleb128 0x49
 2363 0180 13       		.uleb128 0x13
 2364 0181 38       		.uleb128 0x38
 2365 0182 05       		.uleb128 0x5
 2366 0183 00       		.byte	0
 2367 0184 00       		.byte	0
 2368 0185 20       		.uleb128 0x20
 2369 0186 15       		.uleb128 0x15
 2370 0187 01       		.byte	0x1
 2371 0188 27       		.uleb128 0x27
 2372 0189 19       		.uleb128 0x19
 2373 018a 49       		.uleb128 0x49
 2374 018b 13       		.uleb128 0x13
 2375 018c 01       		.uleb128 0x1
 2376 018d 13       		.uleb128 0x13
 2377 018e 00       		.byte	0
 2378 018f 00       		.byte	0
 2379 0190 21       		.uleb128 0x21
 2380 0191 05       		.uleb128 0x5
 2381 0192 00       		.byte	0
 2382 0193 49       		.uleb128 0x49
 2383 0194 13       		.uleb128 0x13
 2384 0195 00       		.byte	0
 2385 0196 00       		.byte	0
 2386 0197 22       		.uleb128 0x22
 2387 0198 13       		.uleb128 0x13
 2388 0199 01       		.byte	0x1
 2389 019a 03       		.uleb128 0x3
 2390 019b 0E       		.uleb128 0xe
 2391 019c 0B       		.uleb128 0xb
 2392 019d 05       		.uleb128 0x5
 2393 019e 3A       		.uleb128 0x3a
 2394 019f 0B       		.uleb128 0xb
 2395 01a0 3B       		.uleb128 0x3b
 2396 01a1 05       		.uleb128 0x5
 2397 01a2 01       		.uleb128 0x1
 2398 01a3 13       		.uleb128 0x13
 2399 01a4 00       		.byte	0
ARM GAS  /tmp/ccUNhkLT.s 			page 47


 2400 01a5 00       		.byte	0
 2401 01a6 23       		.uleb128 0x23
 2402 01a7 13       		.uleb128 0x13
 2403 01a8 01       		.byte	0x1
 2404 01a9 03       		.uleb128 0x3
 2405 01aa 0E       		.uleb128 0xe
 2406 01ab 0B       		.uleb128 0xb
 2407 01ac 0B       		.uleb128 0xb
 2408 01ad 3A       		.uleb128 0x3a
 2409 01ae 0B       		.uleb128 0xb
 2410 01af 3B       		.uleb128 0x3b
 2411 01b0 05       		.uleb128 0x5
 2412 01b1 01       		.uleb128 0x1
 2413 01b2 13       		.uleb128 0x13
 2414 01b3 00       		.byte	0
 2415 01b4 00       		.byte	0
 2416 01b5 24       		.uleb128 0x24
 2417 01b6 17       		.uleb128 0x17
 2418 01b7 01       		.byte	0x1
 2419 01b8 0B       		.uleb128 0xb
 2420 01b9 0B       		.uleb128 0xb
 2421 01ba 3A       		.uleb128 0x3a
 2422 01bb 0B       		.uleb128 0xb
 2423 01bc 3B       		.uleb128 0x3b
 2424 01bd 05       		.uleb128 0x5
 2425 01be 01       		.uleb128 0x1
 2426 01bf 13       		.uleb128 0x13
 2427 01c0 00       		.byte	0
 2428 01c1 00       		.byte	0
 2429 01c2 25       		.uleb128 0x25
 2430 01c3 0D       		.uleb128 0xd
 2431 01c4 00       		.byte	0
 2432 01c5 03       		.uleb128 0x3
 2433 01c6 0E       		.uleb128 0xe
 2434 01c7 3A       		.uleb128 0x3a
 2435 01c8 0B       		.uleb128 0xb
 2436 01c9 3B       		.uleb128 0x3b
 2437 01ca 05       		.uleb128 0x5
 2438 01cb 49       		.uleb128 0x49
 2439 01cc 13       		.uleb128 0x13
 2440 01cd 00       		.byte	0
 2441 01ce 00       		.byte	0
 2442 01cf 26       		.uleb128 0x26
 2443 01d0 15       		.uleb128 0x15
 2444 01d1 01       		.byte	0x1
 2445 01d2 27       		.uleb128 0x27
 2446 01d3 19       		.uleb128 0x19
 2447 01d4 01       		.uleb128 0x1
 2448 01d5 13       		.uleb128 0x13
 2449 01d6 00       		.byte	0
 2450 01d7 00       		.byte	0
 2451 01d8 27       		.uleb128 0x27
 2452 01d9 04       		.uleb128 0x4
 2453 01da 01       		.byte	0x1
 2454 01db 03       		.uleb128 0x3
 2455 01dc 0E       		.uleb128 0xe
 2456 01dd 0B       		.uleb128 0xb
ARM GAS  /tmp/ccUNhkLT.s 			page 48


 2457 01de 0B       		.uleb128 0xb
 2458 01df 49       		.uleb128 0x49
 2459 01e0 13       		.uleb128 0x13
 2460 01e1 3A       		.uleb128 0x3a
 2461 01e2 0B       		.uleb128 0xb
 2462 01e3 3B       		.uleb128 0x3b
 2463 01e4 05       		.uleb128 0x5
 2464 01e5 01       		.uleb128 0x1
 2465 01e6 13       		.uleb128 0x13
 2466 01e7 00       		.byte	0
 2467 01e8 00       		.byte	0
 2468 01e9 28       		.uleb128 0x28
 2469 01ea 28       		.uleb128 0x28
 2470 01eb 00       		.byte	0
 2471 01ec 03       		.uleb128 0x3
 2472 01ed 0E       		.uleb128 0xe
 2473 01ee 1C       		.uleb128 0x1c
 2474 01ef 0D       		.uleb128 0xd
 2475 01f0 00       		.byte	0
 2476 01f1 00       		.byte	0
 2477 01f2 29       		.uleb128 0x29
 2478 01f3 21       		.uleb128 0x21
 2479 01f4 00       		.byte	0
 2480 01f5 00       		.byte	0
 2481 01f6 00       		.byte	0
 2482 01f7 2A       		.uleb128 0x2a
 2483 01f8 2E       		.uleb128 0x2e
 2484 01f9 01       		.byte	0x1
 2485 01fa 3F       		.uleb128 0x3f
 2486 01fb 19       		.uleb128 0x19
 2487 01fc 03       		.uleb128 0x3
 2488 01fd 0E       		.uleb128 0xe
 2489 01fe 3A       		.uleb128 0x3a
 2490 01ff 0B       		.uleb128 0xb
 2491 0200 3B       		.uleb128 0x3b
 2492 0201 0B       		.uleb128 0xb
 2493 0202 27       		.uleb128 0x27
 2494 0203 19       		.uleb128 0x19
 2495 0204 11       		.uleb128 0x11
 2496 0205 01       		.uleb128 0x1
 2497 0206 12       		.uleb128 0x12
 2498 0207 06       		.uleb128 0x6
 2499 0208 40       		.uleb128 0x40
 2500 0209 18       		.uleb128 0x18
 2501 020a 9742     		.uleb128 0x2117
 2502 020c 19       		.uleb128 0x19
 2503 020d 01       		.uleb128 0x1
 2504 020e 13       		.uleb128 0x13
 2505 020f 00       		.byte	0
 2506 0210 00       		.byte	0
 2507 0211 2B       		.uleb128 0x2b
 2508 0212 05       		.uleb128 0x5
 2509 0213 00       		.byte	0
 2510 0214 03       		.uleb128 0x3
 2511 0215 0E       		.uleb128 0xe
 2512 0216 3A       		.uleb128 0x3a
 2513 0217 0B       		.uleb128 0xb
ARM GAS  /tmp/ccUNhkLT.s 			page 49


 2514 0218 3B       		.uleb128 0x3b
 2515 0219 0B       		.uleb128 0xb
 2516 021a 49       		.uleb128 0x49
 2517 021b 13       		.uleb128 0x13
 2518 021c 02       		.uleb128 0x2
 2519 021d 18       		.uleb128 0x18
 2520 021e 00       		.byte	0
 2521 021f 00       		.byte	0
 2522 0220 2C       		.uleb128 0x2c
 2523 0221 05       		.uleb128 0x5
 2524 0222 00       		.byte	0
 2525 0223 03       		.uleb128 0x3
 2526 0224 0E       		.uleb128 0xe
 2527 0225 3A       		.uleb128 0x3a
 2528 0226 0B       		.uleb128 0xb
 2529 0227 3B       		.uleb128 0x3b
 2530 0228 0B       		.uleb128 0xb
 2531 0229 49       		.uleb128 0x49
 2532 022a 13       		.uleb128 0x13
 2533 022b 02       		.uleb128 0x2
 2534 022c 17       		.uleb128 0x17
 2535 022d 00       		.byte	0
 2536 022e 00       		.byte	0
 2537 022f 2D       		.uleb128 0x2d
 2538 0230 34       		.uleb128 0x34
 2539 0231 00       		.byte	0
 2540 0232 03       		.uleb128 0x3
 2541 0233 0E       		.uleb128 0xe
 2542 0234 3A       		.uleb128 0x3a
 2543 0235 0B       		.uleb128 0xb
 2544 0236 3B       		.uleb128 0x3b
 2545 0237 0B       		.uleb128 0xb
 2546 0238 49       		.uleb128 0x49
 2547 0239 13       		.uleb128 0x13
 2548 023a 02       		.uleb128 0x2
 2549 023b 17       		.uleb128 0x17
 2550 023c 00       		.byte	0
 2551 023d 00       		.byte	0
 2552 023e 2E       		.uleb128 0x2e
 2553 023f 2E       		.uleb128 0x2e
 2554 0240 01       		.byte	0x1
 2555 0241 3F       		.uleb128 0x3f
 2556 0242 19       		.uleb128 0x19
 2557 0243 03       		.uleb128 0x3
 2558 0244 0E       		.uleb128 0xe
 2559 0245 3A       		.uleb128 0x3a
 2560 0246 0B       		.uleb128 0xb
 2561 0247 3B       		.uleb128 0x3b
 2562 0248 0B       		.uleb128 0xb
 2563 0249 27       		.uleb128 0x27
 2564 024a 19       		.uleb128 0x19
 2565 024b 11       		.uleb128 0x11
 2566 024c 01       		.uleb128 0x1
 2567 024d 12       		.uleb128 0x12
 2568 024e 06       		.uleb128 0x6
 2569 024f 40       		.uleb128 0x40
 2570 0250 18       		.uleb128 0x18
ARM GAS  /tmp/ccUNhkLT.s 			page 50


 2571 0251 9742     		.uleb128 0x2117
 2572 0253 19       		.uleb128 0x19
 2573 0254 00       		.byte	0
 2574 0255 00       		.byte	0
 2575 0256 00       		.byte	0
 2576              		.section	.debug_loc,"",%progbits
 2577              	.Ldebug_loc0:
 2578              	.LLST6:
 2579 0000 8C000000 		.4byte	.LVL15-.Ltext0
 2580 0004 96000000 		.4byte	.LVL16-.Ltext0
 2581 0008 0100     		.2byte	0x1
 2582 000a 50       		.byte	0x50
 2583 000b 96000000 		.4byte	.LVL16-.Ltext0
 2584 000f 9A000000 		.4byte	.LVL17-.Ltext0
 2585 0013 0400     		.2byte	0x4
 2586 0015 F3       		.byte	0xf3
 2587 0016 01       		.uleb128 0x1
 2588 0017 50       		.byte	0x50
 2589 0018 9F       		.byte	0x9f
 2590 0019 9A000000 		.4byte	.LVL17-.Ltext0
 2591 001d A0000000 		.4byte	.LVL18-.Ltext0
 2592 0021 0100     		.2byte	0x1
 2593 0023 50       		.byte	0x50
 2594 0024 A0000000 		.4byte	.LVL18-.Ltext0
 2595 0028 A8000000 		.4byte	.LFE67-.Ltext0
 2596 002c 0400     		.2byte	0x4
 2597 002e F3       		.byte	0xf3
 2598 002f 01       		.uleb128 0x1
 2599 0030 50       		.byte	0x50
 2600 0031 9F       		.byte	0x9f
 2601 0032 00000000 		.4byte	0
 2602 0036 00000000 		.4byte	0
 2603              	.LLST5:
 2604 003a 78000000 		.4byte	.LVL13-.Ltext0
 2605 003e 7C000000 		.4byte	.LVL14-.Ltext0
 2606 0042 0100     		.2byte	0x1
 2607 0044 51       		.byte	0x51
 2608 0045 7C000000 		.4byte	.LVL14-.Ltext0
 2609 0049 8C000000 		.4byte	.LFE66-.Ltext0
 2610 004d 0400     		.2byte	0x4
 2611 004f F3       		.byte	0xf3
 2612 0050 01       		.uleb128 0x1
 2613 0051 51       		.byte	0x51
 2614 0052 9F       		.byte	0x9f
 2615 0053 00000000 		.4byte	0
 2616 0057 00000000 		.4byte	0
 2617              	.LLST1:
 2618 005b 14000000 		.4byte	.LVL2-.Ltext0
 2619 005f 60000000 		.4byte	.LVL12-.Ltext0
 2620 0063 0100     		.2byte	0x1
 2621 0065 50       		.byte	0x50
 2622 0066 60000000 		.4byte	.LVL12-.Ltext0
 2623 006a 78000000 		.4byte	.LFE65-.Ltext0
 2624 006e 0400     		.2byte	0x4
 2625 0070 F3       		.byte	0xf3
 2626 0071 01       		.uleb128 0x1
 2627 0072 50       		.byte	0x50
ARM GAS  /tmp/ccUNhkLT.s 			page 51


 2628 0073 9F       		.byte	0x9f
 2629 0074 00000000 		.4byte	0
 2630 0078 00000000 		.4byte	0
 2631              	.LLST2:
 2632 007c 14000000 		.4byte	.LVL2-.Ltext0
 2633 0080 3A000000 		.4byte	.LVL3-.Ltext0
 2634 0084 0200     		.2byte	0x2
 2635 0086 30       		.byte	0x30
 2636 0087 9F       		.byte	0x9f
 2637 0088 3A000000 		.4byte	.LVL3-.Ltext0
 2638 008c 42000000 		.4byte	.LVL5-.Ltext0
 2639 0090 0100     		.2byte	0x1
 2640 0092 52       		.byte	0x52
 2641 0093 42000000 		.4byte	.LVL5-.Ltext0
 2642 0097 4E000000 		.4byte	.LVL9-.Ltext0
 2643 009b 0100     		.2byte	0x1
 2644 009d 53       		.byte	0x53
 2645 009e 4E000000 		.4byte	.LVL9-.Ltext0
 2646 00a2 52000000 		.4byte	.LVL10-.Ltext0
 2647 00a6 0500     		.2byte	0x5
 2648 00a8 73       		.byte	0x73
 2649 00a9 00       		.sleb128 0
 2650 00aa 34       		.byte	0x34
 2651 00ab 24       		.byte	0x24
 2652 00ac 9F       		.byte	0x9f
 2653 00ad 52000000 		.4byte	.LVL10-.Ltext0
 2654 00b1 54000000 		.4byte	.LVL11-.Ltext0
 2655 00b5 0100     		.2byte	0x1
 2656 00b7 53       		.byte	0x53
 2657 00b8 00000000 		.4byte	0
 2658 00bc 00000000 		.4byte	0
 2659              	.LLST3:
 2660 00c0 14000000 		.4byte	.LVL2-.Ltext0
 2661 00c4 3E000000 		.4byte	.LVL4-.Ltext0
 2662 00c8 0200     		.2byte	0x2
 2663 00ca 30       		.byte	0x30
 2664 00cb 9F       		.byte	0x9f
 2665 00cc 3E000000 		.4byte	.LVL4-.Ltext0
 2666 00d0 44000000 		.4byte	.LVL6-.Ltext0
 2667 00d4 0100     		.2byte	0x1
 2668 00d6 51       		.byte	0x51
 2669 00d7 44000000 		.4byte	.LVL6-.Ltext0
 2670 00db 48000000 		.4byte	.LVL7-.Ltext0
 2671 00df 0500     		.2byte	0x5
 2672 00e1 34       		.byte	0x34
 2673 00e2 72       		.byte	0x72
 2674 00e3 00       		.sleb128 0
 2675 00e4 1C       		.byte	0x1c
 2676 00e5 9F       		.byte	0x9f
 2677 00e6 00000000 		.4byte	0
 2678 00ea 00000000 		.4byte	0
 2679              	.LLST4:
 2680 00ee 14000000 		.4byte	.LVL2-.Ltext0
 2681 00f2 3E000000 		.4byte	.LVL4-.Ltext0
 2682 00f6 0200     		.2byte	0x2
 2683 00f8 3F       		.byte	0x3f
 2684 00f9 9F       		.byte	0x9f
ARM GAS  /tmp/ccUNhkLT.s 			page 52


 2685 00fa 3E000000 		.4byte	.LVL4-.Ltext0
 2686 00fe 48000000 		.4byte	.LVL7-.Ltext0
 2687 0102 0500     		.2byte	0x5
 2688 0104 3F       		.byte	0x3f
 2689 0105 72       		.byte	0x72
 2690 0106 00       		.sleb128 0
 2691 0107 25       		.byte	0x25
 2692 0108 9F       		.byte	0x9f
 2693 0109 48000000 		.4byte	.LVL7-.Ltext0
 2694 010d 4C000000 		.4byte	.LVL8-.Ltext0
 2695 0111 0100     		.2byte	0x1
 2696 0113 52       		.byte	0x52
 2697 0114 00000000 		.4byte	0
 2698 0118 00000000 		.4byte	0
 2699              	.LLST0:
 2700 011c 00000000 		.4byte	.LVL0-.Ltext0
 2701 0120 04000000 		.4byte	.LVL1-.Ltext0
 2702 0124 0100     		.2byte	0x1
 2703 0126 50       		.byte	0x50
 2704 0127 04000000 		.4byte	.LVL1-.Ltext0
 2705 012b 14000000 		.4byte	.LFE64-.Ltext0
 2706 012f 0400     		.2byte	0x4
 2707 0131 F3       		.byte	0xf3
 2708 0132 01       		.uleb128 0x1
 2709 0133 50       		.byte	0x50
 2710 0134 9F       		.byte	0x9f
 2711 0135 00000000 		.4byte	0
 2712 0139 00000000 		.4byte	0
 2713              		.section	.debug_aranges,"",%progbits
 2714 0000 1C000000 		.4byte	0x1c
 2715 0004 0200     		.2byte	0x2
 2716 0006 00000000 		.4byte	.Ldebug_info0
 2717 000a 04       		.byte	0x4
 2718 000b 00       		.byte	0
 2719 000c 0000     		.2byte	0
 2720 000e 0000     		.2byte	0
 2721 0010 00000000 		.4byte	.Ltext0
 2722 0014 C0000000 		.4byte	.Letext0-.Ltext0
 2723 0018 00000000 		.4byte	0
 2724 001c 00000000 		.4byte	0
 2725              		.section	.debug_line,"",%progbits
 2726              	.Ldebug_line0:
 2727 0000 4D020000 		.section	.debug_str,"MS",%progbits,1
 2727      02001002 
 2727      00000201 
 2727      FB0E0D00 
 2727      01010101 
 2728              	.LASF99:
 2729 0000 5F64736F 		.ascii	"_dso_handle\000"
 2729      5F68616E 
 2729      646C6500 
 2730              	.LASF194:
 2731 000c 4E657753 		.ascii	"NewState\000"
 2731      74617465 
 2731      00
 2732              	.LASF25:
 2733 0015 49435052 		.ascii	"ICPR\000"
ARM GAS  /tmp/ccUNhkLT.s 			page 53


 2733      00
 2734              	.LASF60:
 2735 001a 4E564943 		.ascii	"NVIC_IRQChannelCmd\000"
 2735      5F495251 
 2735      4368616E 
 2735      6E656C43 
 2735      6D6400
 2736              	.LASF98:
 2737 002d 5F666E61 		.ascii	"_fnargs\000"
 2737      72677300 
 2738              	.LASF152:
 2739 0035 5F72616E 		.ascii	"_rand48\000"
 2739      64343800 
 2740              	.LASF185:
 2741 003d 5F5F6664 		.ascii	"__fdlibm_xopen\000"
 2741      6C69626D 
 2741      5F786F70 
 2741      656E00
 2742              	.LASF131:
 2743 004c 5F656D65 		.ascii	"_emergency\000"
 2743      7267656E 
 2743      637900
 2744              	.LASF123:
 2745 0057 5F6D6273 		.ascii	"_mbstate\000"
 2745      74617465 
 2745      00
 2746              	.LASF2:
 2747 0060 5F5F7569 		.ascii	"__uint8_t\000"
 2747      6E74385F 
 2747      7400
 2748              	.LASF143:
 2749 006a 5F617465 		.ascii	"_atexit0\000"
 2749      78697430 
 2749      00
 2750              	.LASF72:
 2751 0073 5F6F6666 		.ascii	"_off_t\000"
 2751      5F7400
 2752              	.LASF172:
 2753 007a 5F776372 		.ascii	"_wcrtomb_state\000"
 2753      746F6D62 
 2753      5F737461 
 2753      746500
 2754              	.LASF173:
 2755 0089 5F776373 		.ascii	"_wcsrtombs_state\000"
 2755      72746F6D 
 2755      62735F73 
 2755      74617465 
 2755      00
 2756              	.LASF12:
 2757 009a 6C6F6E67 		.ascii	"long long unsigned int\000"
 2757      206C6F6E 
 2757      6720756E 
 2757      7369676E 
 2757      65642069 
 2758              	.LASF186:
 2759 00b1 5F5F6664 		.ascii	"__fdlibm_posix\000"
 2759      6C69626D 
ARM GAS  /tmp/ccUNhkLT.s 			page 54


 2759      5F706F73 
 2759      697800
 2760              	.LASF202:
 2761 00c0 746D7073 		.ascii	"tmpsub\000"
 2761      756200
 2762              	.LASF33:
 2763 00c7 43505549 		.ascii	"CPUID\000"
 2763      4400
 2764              	.LASF187:
 2765 00cd 5F5F6664 		.ascii	"__fdlib_version\000"
 2765      6C69625F 
 2765      76657273 
 2765      696F6E00 
 2766              	.LASF62:
 2767 00dd 6779726F 		.ascii	"gyro\000"
 2767      00
 2768              	.LASF170:
 2769 00e2 5F6D6272 		.ascii	"_mbrtowc_state\000"
 2769      746F7763 
 2769      5F737461 
 2769      746500
 2770              	.LASF23:
 2771 00f1 49535052 		.ascii	"ISPR\000"
 2771      00
 2772              	.LASF165:
 2773 00f6 5F776374 		.ascii	"_wctomb_state\000"
 2773      6F6D625F 
 2773      73746174 
 2773      6500
 2774              	.LASF88:
 2775 0104 5F5F746D 		.ascii	"__tm_sec\000"
 2775      5F736563 
 2775      00
 2776              	.LASF15:
 2777 010d 696E7431 		.ascii	"int16_t\000"
 2777      365F7400 
 2778              	.LASF45:
 2779 0115 49534152 		.ascii	"ISAR\000"
 2779      00
 2780              	.LASF116:
 2781 011a 5F636C6F 		.ascii	"_close\000"
 2781      736500
 2782              	.LASF0:
 2783 0121 7369676E 		.ascii	"signed char\000"
 2783      65642063 
 2783      68617200 
 2784              	.LASF191:
 2785 012d 4E564943 		.ascii	"NVIC_SystemLPConfig\000"
 2785      5F537973 
 2785      74656D4C 
 2785      50436F6E 
 2785      66696700 
 2786              	.LASF117:
 2787 0141 5F756275 		.ascii	"_ubuf\000"
 2787      6600
 2788              	.LASF64:
 2789 0147 47785F6F 		.ascii	"Gx_offset\000"
ARM GAS  /tmp/ccUNhkLT.s 			page 55


 2789      66667365 
 2789      7400
 2790              	.LASF106:
 2791 0151 5F626173 		.ascii	"_base\000"
 2791      6500
 2792              	.LASF90:
 2793 0157 5F5F746D 		.ascii	"__tm_hour\000"
 2793      5F686F75 
 2793      7200
 2794              	.LASF146:
 2795 0161 5F5F7366 		.ascii	"__sf\000"
 2795      00
 2796              	.LASF97:
 2797 0166 5F6F6E5F 		.ascii	"_on_exit_args\000"
 2797      65786974 
 2797      5F617267 
 2797      7300
 2798              	.LASF67:
 2799 0174 41636331 		.ascii	"Acc1G_Values\000"
 2799      475F5661 
 2799      6C756573 
 2799      00
 2800              	.LASF112:
 2801 0181 5F636F6F 		.ascii	"_cookie\000"
 2801      6B696500 
 2802              	.LASF145:
 2803 0189 5F5F7367 		.ascii	"__sglue\000"
 2803      6C756500 
 2804              	.LASF8:
 2805 0191 6C6F6E67 		.ascii	"long int\000"
 2805      20696E74 
 2805      00
 2806              	.LASF206:
 2807 019a 2F686F6D 		.ascii	"/home/enbin/Documents/code/STM/stm32-quadrocopter\000"
 2807      652F656E 
 2807      62696E2F 
 2807      446F6375 
 2807      6D656E74 
 2808              	.LASF101:
 2809 01cc 5F69735F 		.ascii	"_is_cxa\000"
 2809      63786100 
 2810              	.LASF127:
 2811 01d4 5F737464 		.ascii	"_stdin\000"
 2811      696E00
 2812              	.LASF184:
 2813 01db 5F5F6664 		.ascii	"__fdlibm_svid\000"
 2813      6C69626D 
 2813      5F737669 
 2813      6400
 2814              	.LASF137:
 2815 01e9 5F726573 		.ascii	"_result_k\000"
 2815      756C745F 
 2815      6B00
 2816              	.LASF55:
 2817 01f3 454E4142 		.ascii	"ENABLE\000"
 2817      4C4500
 2818              	.LASF19:
ARM GAS  /tmp/ccUNhkLT.s 			page 56


 2819 01fa 49534552 		.ascii	"ISER\000"
 2819      00
 2820              	.LASF11:
 2821 01ff 6C6F6E67 		.ascii	"long long int\000"
 2821      206C6F6E 
 2821      6720696E 
 2821      7400
 2822              	.LASF16:
 2823 020d 75696E74 		.ascii	"uint16_t\000"
 2823      31365F74 
 2823      00
 2824              	.LASF188:
 2825 0216 5F737973 		.ascii	"_sys_errlist\000"
 2825      5F657272 
 2825      6C697374 
 2825      00
 2826              	.LASF141:
 2827 0223 5F637674 		.ascii	"_cvtbuf\000"
 2827      62756600 
 2828              	.LASF120:
 2829 022b 5F6F6666 		.ascii	"_offset\000"
 2829      73657400 
 2830              	.LASF201:
 2831 0233 746D7070 		.ascii	"tmppre\000"
 2831      726500
 2832              	.LASF171:
 2833 023a 5F6D6273 		.ascii	"_mbsrtowcs_state\000"
 2833      72746F77 
 2833      63735F73 
 2833      74617465 
 2833      00
 2834              	.LASF169:
 2835 024b 5F6D6272 		.ascii	"_mbrlen_state\000"
 2835      6C656E5F 
 2835      73746174 
 2835      6500
 2836              	.LASF42:
 2837 0259 42464152 		.ascii	"BFAR\000"
 2837      00
 2838              	.LASF51:
 2839 025e 53797354 		.ascii	"SysTick_Type\000"
 2839      69636B5F 
 2839      54797065 
 2839      00
 2840              	.LASF104:
 2841 026b 5F666E73 		.ascii	"_fns\000"
 2841      00
 2842              	.LASF9:
 2843 0270 5F5F7569 		.ascii	"__uint32_t\000"
 2843      6E743332 
 2843      5F7400
 2844              	.LASF84:
 2845 027b 5F736967 		.ascii	"_sign\000"
 2845      6E00
 2846              	.LASF47:
 2847 0281 5343425F 		.ascii	"SCB_Type\000"
 2847      54797065 
ARM GAS  /tmp/ccUNhkLT.s 			page 57


 2847      00
 2848              	.LASF178:
 2849 028a 5F696D70 		.ascii	"_impure_ptr\000"
 2849      7572655F 
 2849      70747200 
 2850              	.LASF129:
 2851 0296 5F737464 		.ascii	"_stderr\000"
 2851      65727200 
 2852              	.LASF86:
 2853 029e 5F426967 		.ascii	"_Bigint\000"
 2853      696E7400 
 2854              	.LASF195:
 2855 02a6 4E564943 		.ascii	"NVIC_SetVectorTable\000"
 2855      5F536574 
 2855      56656374 
 2855      6F725461 
 2855      626C6500 
 2856              	.LASF119:
 2857 02ba 5F626C6B 		.ascii	"_blksize\000"
 2857      73697A65 
 2857      00
 2858              	.LASF113:
 2859 02c3 5F726561 		.ascii	"_read\000"
 2859      6400
 2860              	.LASF87:
 2861 02c9 5F5F746D 		.ascii	"__tm\000"
 2861      00
 2862              	.LASF76:
 2863 02ce 5F5F7763 		.ascii	"__wchb\000"
 2863      686200
 2864              	.LASF53:
 2865 02d5 53797374 		.ascii	"SystemCoreClock\000"
 2865      656D436F 
 2865      7265436C 
 2865      6F636B00 
 2866              	.LASF196:
 2867 02e5 4E564943 		.ascii	"NVIC_VectTab\000"
 2867      5F566563 
 2867      74546162 
 2867      00
 2868              	.LASF128:
 2869 02f2 5F737464 		.ascii	"_stdout\000"
 2869      6F757400 
 2870              	.LASF140:
 2871 02fa 5F637674 		.ascii	"_cvtlen\000"
 2871      6C656E00 
 2872              	.LASF10:
 2873 0302 6C6F6E67 		.ascii	"long unsigned int\000"
 2873      20756E73 
 2873      69676E65 
 2873      6420696E 
 2873      7400
 2874              	.LASF110:
 2875 0314 5F66696C 		.ascii	"_file\000"
 2875      6500
 2876              	.LASF121:
 2877 031a 5F646174 		.ascii	"_data\000"
ARM GAS  /tmp/ccUNhkLT.s 			page 58


 2877      6100
 2878              	.LASF35:
 2879 0320 56544F52 		.ascii	"VTOR\000"
 2879      00
 2880              	.LASF150:
 2881 0325 5F6E696F 		.ascii	"_niobs\000"
 2881      627300
 2882              	.LASF144:
 2883 032c 5F736967 		.ascii	"_sig_func\000"
 2883      5F66756E 
 2883      6300
 2884              	.LASF199:
 2885 0336 4E564943 		.ascii	"NVIC_InitStruct\000"
 2885      5F496E69 
 2885      74537472 
 2885      75637400 
 2886              	.LASF34:
 2887 0346 49435352 		.ascii	"ICSR\000"
 2887      00
 2888              	.LASF158:
 2889 034b 5F617363 		.ascii	"_asctime_buf\000"
 2889      74696D65 
 2889      5F627566 
 2889      00
 2890              	.LASF36:
 2891 0358 41495243 		.ascii	"AIRCR\000"
 2891      5200
 2892              	.LASF40:
 2893 035e 44465352 		.ascii	"DFSR\000"
 2893      00
 2894              	.LASF136:
 2895 0363 5F726573 		.ascii	"_result\000"
 2895      756C7400 
 2896              	.LASF75:
 2897 036b 5F5F7763 		.ascii	"__wch\000"
 2897      6800
 2898              	.LASF41:
 2899 0371 4D4D4641 		.ascii	"MMFAR\000"
 2899      5200
 2900              	.LASF142:
 2901 0377 5F6E6577 		.ascii	"_new\000"
 2901      00
 2902              	.LASF122:
 2903 037c 5F6C6F63 		.ascii	"_lock\000"
 2903      6B00
 2904              	.LASF44:
 2905 0382 4D4D4652 		.ascii	"MMFR\000"
 2905      00
 2906              	.LASF57:
 2907 0387 4E564943 		.ascii	"NVIC_IRQChannel\000"
 2907      5F495251 
 2907      4368616E 
 2907      6E656C00 
 2908              	.LASF58:
 2909 0397 4E564943 		.ascii	"NVIC_IRQChannelPreemptionPriority\000"
 2909      5F495251 
 2909      4368616E 
ARM GAS  /tmp/ccUNhkLT.s 			page 59


 2909      6E656C50 
 2909      7265656D 
 2910              	.LASF114:
 2911 03b9 5F777269 		.ascii	"_write\000"
 2911      746500
 2912              	.LASF93:
 2913 03c0 5F5F746D 		.ascii	"__tm_year\000"
 2913      5F796561 
 2913      7200
 2914              	.LASF176:
 2915 03ca 5F6E6D61 		.ascii	"_nmalloc\000"
 2915      6C6C6F63 
 2915      00
 2916              	.LASF96:
 2917 03d3 5F5F746D 		.ascii	"__tm_isdst\000"
 2917      5F697364 
 2917      737400
 2918              	.LASF207:
 2919 03de 5F5F6664 		.ascii	"__fdlibm_version\000"
 2919      6C69626D 
 2919      5F766572 
 2919      73696F6E 
 2919      00
 2920              	.LASF71:
 2921 03ef 5F4C4F43 		.ascii	"_LOCK_RECURSIVE_T\000"
 2921      4B5F5245 
 2921      43555253 
 2921      4956455F 
 2921      5400
 2922              	.LASF31:
 2923 0401 73697A65 		.ascii	"sizetype\000"
 2923      74797065 
 2923      00
 2924              	.LASF49:
 2925 040a 4C4F4144 		.ascii	"LOAD\000"
 2925      00
 2926              	.LASF38:
 2927 040f 43465352 		.ascii	"CFSR\000"
 2927      00
 2928              	.LASF27:
 2929 0414 49414252 		.ascii	"IABR\000"
 2929      00
 2930              	.LASF65:
 2931 0419 47795F6F 		.ascii	"Gy_offset\000"
 2931      66667365 
 2931      7400
 2932              	.LASF175:
 2933 0423 5F6E6578 		.ascii	"_nextf\000"
 2933      746600
 2934              	.LASF63:
 2935 042a 61636365 		.ascii	"accel\000"
 2935      6C00
 2936              	.LASF66:
 2937 0430 477A5F6F 		.ascii	"Gz_offset\000"
 2937      66667365 
 2937      7400
 2938              	.LASF56:
ARM GAS  /tmp/ccUNhkLT.s 			page 60


 2939 043a 46756E63 		.ascii	"FunctionalState\000"
 2939      74696F6E 
 2939      616C5374 
 2939      61746500 
 2940              	.LASF92:
 2941 044a 5F5F746D 		.ascii	"__tm_mon\000"
 2941      5F6D6F6E 
 2941      00
 2942              	.LASF21:
 2943 0453 49434552 		.ascii	"ICER\000"
 2943      00
 2944              	.LASF102:
 2945 0458 5F617465 		.ascii	"_atexit\000"
 2945      78697400 
 2946              	.LASF180:
 2947 0460 7375626F 		.ascii	"suboptarg\000"
 2947      70746172 
 2947      6700
 2948              	.LASF134:
 2949 046a 5F5F7364 		.ascii	"__sdidinit\000"
 2949      6964696E 
 2949      697400
 2950              	.LASF160:
 2951 0475 5F67616D 		.ascii	"_gamma_signgam\000"
 2951      6D615F73 
 2951      69676E67 
 2951      616D00
 2952              	.LASF74:
 2953 0484 77696E74 		.ascii	"wint_t\000"
 2953      5F7400
 2954              	.LASF192:
 2955 048b 53797354 		.ascii	"SysTick_CLKSource\000"
 2955      69636B5F 
 2955      434C4B53 
 2955      6F757263 
 2955      6500
 2956              	.LASF68:
 2957 049d 666C6F61 		.ascii	"float\000"
 2957      7400
 2958              	.LASF139:
 2959 04a3 5F667265 		.ascii	"_freelist\000"
 2959      656C6973 
 2959      7400
 2960              	.LASF69:
 2961 04ad 50697463 		.ascii	"Pitch\000"
 2961      6800
 2962              	.LASF20:
 2963 04b3 52455345 		.ascii	"RESERVED0\000"
 2963      52564544 
 2963      3000
 2964              	.LASF24:
 2965 04bd 52455345 		.ascii	"RESERVED2\000"
 2965      52564544 
 2965      3200
 2966              	.LASF26:
 2967 04c7 52455345 		.ascii	"RESERVED3\000"
 2967      52564544 
ARM GAS  /tmp/ccUNhkLT.s 			page 61


 2967      3300
 2968              	.LASF28:
 2969 04d1 52455345 		.ascii	"RESERVED4\000"
 2969      52564544 
 2969      3400
 2970              	.LASF29:
 2971 04db 52455345 		.ascii	"RESERVED5\000"
 2971      52564544 
 2971      3500
 2972              	.LASF17:
 2973 04e5 696E7433 		.ascii	"int32_t\000"
 2973      325F7400 
 2974              	.LASF1:
 2975 04ed 756E7369 		.ascii	"unsigned char\000"
 2975      676E6564 
 2975      20636861 
 2975      7200
 2976              	.LASF37:
 2977 04fb 53484353 		.ascii	"SHCSR\000"
 2977      5200
 2978              	.LASF52:
 2979 0501 49544D5F 		.ascii	"ITM_RxBuffer\000"
 2979      52784275 
 2979      66666572 
 2979      00
 2980              	.LASF174:
 2981 050e 5F685F65 		.ascii	"_h_errno\000"
 2981      72726E6F 
 2981      00
 2982              	.LASF80:
 2983 0517 5F666C6F 		.ascii	"_flock_t\000"
 2983      636B5F74 
 2983      00
 2984              	.LASF95:
 2985 0520 5F5F746D 		.ascii	"__tm_yday\000"
 2985      5F796461 
 2985      7900
 2986              	.LASF32:
 2987 052a 4E564943 		.ascii	"NVIC_Type\000"
 2987      5F547970 
 2987      6500
 2988              	.LASF105:
 2989 0534 5F5F7362 		.ascii	"__sbuf\000"
 2989      756600
 2990              	.LASF124:
 2991 053b 5F666C61 		.ascii	"_flags2\000"
 2991      67733200 
 2992              	.LASF151:
 2993 0543 5F696F62 		.ascii	"_iobs\000"
 2993      7300
 2994              	.LASF148:
 2995 0549 5F5F4649 		.ascii	"__FILE\000"
 2995      4C4500
 2996              	.LASF79:
 2997 0550 5F6D6273 		.ascii	"_mbstate_t\000"
 2997      74617465 
 2997      5F7400
ARM GAS  /tmp/ccUNhkLT.s 			page 62


 2998              	.LASF203:
 2999 055b 4E564943 		.ascii	"NVIC_PriorityGroup\000"
 2999      5F507269 
 2999      6F726974 
 2999      7947726F 
 2999      757000
 3000              	.LASF108:
 3001 056e 5F5F7346 		.ascii	"__sFILE\000"
 3001      494C4500 
 3002              	.LASF189:
 3003 0576 5F737973 		.ascii	"_sys_nerr\000"
 3003      5F6E6572 
 3003      7200
 3004              	.LASF204:
 3005 0580 474E5520 		.ascii	"GNU C89 6.1.1 20160526 -mcpu=cortex-m3 -mthumb -mfl"
 3005      43383920 
 3005      362E312E 
 3005      31203230 
 3005      31363035 
 3006 05b3 6F61742D 		.ascii	"oat-abi=soft -g -O1 -std=gnu90 -fno-common -fno-mat"
 3006      6162693D 
 3006      736F6674 
 3006      202D6720 
 3006      2D4F3120 
 3007 05e6 682D6572 		.ascii	"h-errno\000"
 3007      726E6F00 
 3008              	.LASF161:
 3009 05ee 5F72616E 		.ascii	"_rand_next\000"
 3009      645F6E65 
 3009      787400
 3010              	.LASF163:
 3011 05f9 5F6D626C 		.ascii	"_mblen_state\000"
 3011      656E5F73 
 3011      74617465 
 3011      00
 3012              	.LASF130:
 3013 0606 5F696E63 		.ascii	"_inc\000"
 3013      00
 3014              	.LASF103:
 3015 060b 5F696E64 		.ascii	"_ind\000"
 3015      00
 3016              	.LASF54:
 3017 0610 44495341 		.ascii	"DISABLE\000"
 3017      424C4500 
 3018              	.LASF135:
 3019 0618 5F5F636C 		.ascii	"__cleanup\000"
 3019      65616E75 
 3019      7000
 3020              	.LASF83:
 3021 0622 5F6D6178 		.ascii	"_maxwds\000"
 3021      77647300 
 3022              	.LASF125:
 3023 062a 5F726565 		.ascii	"_reent\000"
 3023      6E7400
 3024              	.LASF153:
 3025 0631 5F736565 		.ascii	"_seed\000"
 3025      6400
ARM GAS  /tmp/ccUNhkLT.s 			page 63


 3026              	.LASF77:
 3027 0637 5F5F636F 		.ascii	"__count\000"
 3027      756E7400 
 3028              	.LASF193:
 3029 063f 4C6F7750 		.ascii	"LowPowerMode\000"
 3029      6F776572 
 3029      4D6F6465 
 3029      00
 3030              	.LASF78:
 3031 064c 5F5F7661 		.ascii	"__value\000"
 3031      6C756500 
 3032              	.LASF59:
 3033 0654 4E564943 		.ascii	"NVIC_IRQChannelSubPriority\000"
 3033      5F495251 
 3033      4368616E 
 3033      6E656C53 
 3033      75625072 
 3034              	.LASF115:
 3035 066f 5F736565 		.ascii	"_seek\000"
 3035      6B00
 3036              	.LASF43:
 3037 0675 41465352 		.ascii	"AFSR\000"
 3037      00
 3038              	.LASF94:
 3039 067a 5F5F746D 		.ascii	"__tm_wday\000"
 3039      5F776461 
 3039      7900
 3040              	.LASF73:
 3041 0684 5F66706F 		.ascii	"_fpos_t\000"
 3041      735F7400 
 3042              	.LASF182:
 3043 068c 6C6F6E67 		.ascii	"long double\000"
 3043      20646F75 
 3043      626C6500 
 3044              	.LASF126:
 3045 0698 5F657272 		.ascii	"_errno\000"
 3045      6E6F00
 3046              	.LASF147:
 3047 069f 63686172 		.ascii	"char\000"
 3047      00
 3048              	.LASF167:
 3049 06a4 5F736967 		.ascii	"_signal_buf\000"
 3049      6E616C5F 
 3049      62756600 
 3050              	.LASF183:
 3051 06b0 5F5F6664 		.ascii	"__fdlibm_ieee\000"
 3051      6C69626D 
 3051      5F696565 
 3051      6500
 3052              	.LASF107:
 3053 06be 5F73697A 		.ascii	"_size\000"
 3053      6500
 3054              	.LASF13:
 3055 06c4 756E7369 		.ascii	"unsigned int\000"
 3055      676E6564 
 3055      20696E74 
 3055      00
ARM GAS  /tmp/ccUNhkLT.s 			page 64


 3056              	.LASF5:
 3057 06d1 5F5F7569 		.ascii	"__uint16_t\000"
 3057      6E743136 
 3057      5F7400
 3058              	.LASF4:
 3059 06dc 73686F72 		.ascii	"short int\000"
 3059      7420696E 
 3059      7400
 3060              	.LASF7:
 3061 06e6 5F5F696E 		.ascii	"__int32_t\000"
 3061      7433325F 
 3061      7400
 3062              	.LASF154:
 3063 06f0 5F6D756C 		.ascii	"_mult\000"
 3063      7400
 3064              	.LASF82:
 3065 06f6 5F6E6578 		.ascii	"_next\000"
 3065      7400
 3066              	.LASF157:
 3067 06fc 5F737472 		.ascii	"_strtok_last\000"
 3067      746F6B5F 
 3067      6C617374 
 3067      00
 3068              	.LASF100:
 3069 0709 5F666E74 		.ascii	"_fntypes\000"
 3069      79706573 
 3069      00
 3070              	.LASF6:
 3071 0712 73686F72 		.ascii	"short unsigned int\000"
 3071      7420756E 
 3071      7369676E 
 3071      65642069 
 3071      6E7400
 3072              	.LASF155:
 3073 0725 5F616464 		.ascii	"_add\000"
 3073      00
 3074              	.LASF81:
 3075 072a 5F5F554C 		.ascii	"__ULong\000"
 3075      6F6E6700 
 3076              	.LASF168:
 3077 0732 5F676574 		.ascii	"_getdate_err\000"
 3077      64617465 
 3077      5F657272 
 3077      00
 3078              	.LASF48:
 3079 073f 4354524C 		.ascii	"CTRL\000"
 3079      00
 3080              	.LASF70:
 3081 0744 69506974 		.ascii	"iPitch\000"
 3081      636800
 3082              	.LASF179:
 3083 074b 5F676C6F 		.ascii	"_global_impure_ptr\000"
 3083      62616C5F 
 3083      696D7075 
 3083      72655F70 
 3083      747200
 3084              	.LASF132:
ARM GAS  /tmp/ccUNhkLT.s 			page 65


 3085 075e 5F637572 		.ascii	"_current_category\000"
 3085      72656E74 
 3085      5F636174 
 3085      65676F72 
 3085      7900
 3086              	.LASF50:
 3087 0770 43414C49 		.ascii	"CALIB\000"
 3087      4200
 3088              	.LASF156:
 3089 0776 5F756E75 		.ascii	"_unused_rand\000"
 3089      7365645F 
 3089      72616E64 
 3089      00
 3090              	.LASF85:
 3091 0783 5F776473 		.ascii	"_wds\000"
 3091      00
 3092              	.LASF149:
 3093 0788 5F676C75 		.ascii	"_glue\000"
 3093      6500
 3094              	.LASF197:
 3095 078e 4F666673 		.ascii	"Offset\000"
 3095      657400
 3096              	.LASF109:
 3097 0795 5F666C61 		.ascii	"_flags\000"
 3097      677300
 3098              	.LASF14:
 3099 079c 75696E74 		.ascii	"uint8_t\000"
 3099      385F7400 
 3100              	.LASF166:
 3101 07a4 5F6C3634 		.ascii	"_l64a_buf\000"
 3101      615F6275 
 3101      6600
 3102              	.LASF200:
 3103 07ae 746D7070 		.ascii	"tmppriority\000"
 3103      72696F72 
 3103      69747900 
 3104              	.LASF208:
 3105 07ba 4E564943 		.ascii	"NVIC_PriorityGroupConfig\000"
 3105      5F507269 
 3105      6F726974 
 3105      7947726F 
 3105      7570436F 
 3106              	.LASF22:
 3107 07d3 52534552 		.ascii	"RSERVED1\000"
 3107      56454431 
 3107      00
 3108              	.LASF30:
 3109 07dc 53544952 		.ascii	"STIR\000"
 3109      00
 3110              	.LASF3:
 3111 07e1 5F5F696E 		.ascii	"__int16_t\000"
 3111      7431365F 
 3111      7400
 3112              	.LASF118:
 3113 07eb 5F6E6275 		.ascii	"_nbuf\000"
 3113      6600
 3114              	.LASF177:
ARM GAS  /tmp/ccUNhkLT.s 			page 66


 3115 07f1 5F756E75 		.ascii	"_unused\000"
 3115      73656400 
 3116              	.LASF190:
 3117 07f9 53797354 		.ascii	"SysTick_CLKSourceConfig\000"
 3117      69636B5F 
 3117      434C4B53 
 3117      6F757263 
 3117      65436F6E 
 3118              	.LASF205:
 3119 0811 6C69622F 		.ascii	"lib/src/misc.c\000"
 3119      7372632F 
 3119      6D697363 
 3119      2E6300
 3120              	.LASF159:
 3121 0820 5F6C6F63 		.ascii	"_localtime_buf\000"
 3121      616C7469 
 3121      6D655F62 
 3121      756600
 3122              	.LASF89:
 3123 082f 5F5F746D 		.ascii	"__tm_min\000"
 3123      5F6D696E 
 3123      00
 3124              	.LASF162:
 3125 0838 5F723438 		.ascii	"_r48\000"
 3125      00
 3126              	.LASF133:
 3127 083d 5F637572 		.ascii	"_current_locale\000"
 3127      72656E74 
 3127      5F6C6F63 
 3127      616C6500 
 3128              	.LASF164:
 3129 084d 5F6D6274 		.ascii	"_mbtowc_state\000"
 3129      6F77635F 
 3129      73746174 
 3129      6500
 3130              	.LASF138:
 3131 085b 5F703573 		.ascii	"_p5s\000"
 3131      00
 3132              	.LASF46:
 3133 0860 43504143 		.ascii	"CPACR\000"
 3133      5200
 3134              	.LASF39:
 3135 0866 48465352 		.ascii	"HFSR\000"
 3135      00
 3136              	.LASF111:
 3137 086b 5F6C6266 		.ascii	"_lbfsize\000"
 3137      73697A65 
 3137      00
 3138              	.LASF198:
 3139 0874 4E564943 		.ascii	"NVIC_Init\000"
 3139      5F496E69 
 3139      7400
 3140              	.LASF181:
 3141 087e 646F7562 		.ascii	"double\000"
 3141      6C6500
 3142              	.LASF18:
 3143 0885 75696E74 		.ascii	"uint32_t\000"
ARM GAS  /tmp/ccUNhkLT.s 			page 67


 3143      33325F74 
 3143      00
 3144              	.LASF91:
 3145 088e 5F5F746D 		.ascii	"__tm_mday\000"
 3145      5F6D6461 
 3145      7900
 3146              	.LASF61:
 3147 0898 4E564943 		.ascii	"NVIC_InitTypeDef\000"
 3147      5F496E69 
 3147      74547970 
 3147      65446566 
 3147      00
 3148              		.ident	"GCC: (Arch Repository) 6.1.1 20160526"
ARM GAS  /tmp/ccUNhkLT.s 			page 68


DEFINED SYMBOLS
                            *ABS*:0000000000000000 misc.c
     /tmp/ccUNhkLT.s:15     .text:0000000000000000 $t
     /tmp/ccUNhkLT.s:22     .text:0000000000000000 NVIC_PriorityGroupConfig
     /tmp/ccUNhkLT.s:41     .text:0000000000000010 $d
     /tmp/ccUNhkLT.s:45     .text:0000000000000014 $t
     /tmp/ccUNhkLT.s:52     .text:0000000000000014 NVIC_Init
     /tmp/ccUNhkLT.s:125    .text:0000000000000070 $d
     /tmp/ccUNhkLT.s:130    .text:0000000000000078 $t
     /tmp/ccUNhkLT.s:137    .text:0000000000000078 NVIC_SetVectorTable
     /tmp/ccUNhkLT.s:156    .text:0000000000000088 $d
     /tmp/ccUNhkLT.s:160    .text:000000000000008c $t
     /tmp/ccUNhkLT.s:167    .text:000000000000008c NVIC_SystemLPConfig
     /tmp/ccUNhkLT.s:196    .text:00000000000000a4 $d
     /tmp/ccUNhkLT.s:200    .text:00000000000000a8 $t
     /tmp/ccUNhkLT.s:207    .text:00000000000000a8 SysTick_CLKSourceConfig
     /tmp/ccUNhkLT.s:229    .text:00000000000000bc $d
                     .debug_frame:0000000000000010 $d

NO UNDEFINED SYMBOLS
