ARM GAS  /tmp/ccIxWip2.s 			page 1


   1              		.cpu cortex-m3
   2              		.eabi_attribute 20, 1
   3              		.eabi_attribute 21, 1
   4              		.eabi_attribute 23, 3
   5              		.eabi_attribute 24, 1
   6              		.eabi_attribute 25, 1
   7              		.eabi_attribute 26, 1
   8              		.eabi_attribute 30, 1
   9              		.eabi_attribute 34, 1
  10              		.eabi_attribute 18, 4
  11              		.file	"MPU6050.c"
  12              		.text
  13              	.Ltext0:
  14              		.cfi_sections	.debug_frame
  15              		.align	1
  16              		.syntax unified
  17              		.thumb
  18              		.thumb_func
  19              		.fpu softvfp
  20              		.type	inv_row_2_scale, %function
  21              	inv_row_2_scale:
  22              	.LFB64:
  23              		.file 1 "drivers/MPU6050.c"
   1:drivers/MPU6050.c **** #include "MPU6050.h"
   2:drivers/MPU6050.c **** #include "tools.h"
   3:drivers/MPU6050.c **** 
   4:drivers/MPU6050.c **** #define PRINT_ACCEL     (0x01)
   5:drivers/MPU6050.c **** #define PRINT_GYRO      (0x02)
   6:drivers/MPU6050.c **** #define PRINT_QUAT      (0x04)
   7:drivers/MPU6050.c **** #define ACCEL_ON        (0x01)
   8:drivers/MPU6050.c **** #define GYRO_ON         (0x02)
   9:drivers/MPU6050.c **** #define MOTION          (0)
  10:drivers/MPU6050.c **** #define NO_MOTION       (1)
  11:drivers/MPU6050.c **** #define DEFAULT_MPU_HZ  (200)
  12:drivers/MPU6050.c **** #define FLASH_SIZE      (512)
  13:drivers/MPU6050.c **** #define FLASH_MEM_START ((void*)0x1800)
  14:drivers/MPU6050.c **** #define q30  1073741824.0f
  15:drivers/MPU6050.c **** 
  16:drivers/MPU6050.c **** short gyro[3], accel[3], sensors;
  17:drivers/MPU6050.c **** float Pitch; 
  18:drivers/MPU6050.c **** float q0=1.0f,q1=0.0f,q2=0.0f,q3=0.0f;
  19:drivers/MPU6050.c **** 
  20:drivers/MPU6050.c **** static signed char gyro_orientation[9] = {-1, 0, 0,
  21:drivers/MPU6050.c ****                                            0,-1, 0,
  22:drivers/MPU6050.c ****                                            0, 0, 1};
  23:drivers/MPU6050.c **** 
  24:drivers/MPU6050.c **** static  unsigned short inv_row_2_scale(const signed char *row)
  25:drivers/MPU6050.c **** {
  24              		.loc 1 25 0
  25              		.cfi_startproc
  26              		@ args = 0, pretend = 0, frame = 0
  27              		@ frame_needed = 0, uses_anonymous_args = 0
  28              		@ link register save eliminated.
  29              	.LVL0:
  26:drivers/MPU6050.c ****   unsigned short b;
  27:drivers/MPU6050.c **** 
  28:drivers/MPU6050.c ****   if (row[0] > 0)
ARM GAS  /tmp/ccIxWip2.s 			page 2


  30              		.loc 1 28 0
  31 0000 90F90030 		ldrsb	r3, [r0]
  32 0004 002B     		cmp	r3, #0
  33 0006 01DD     		ble	.L9
  29:drivers/MPU6050.c ****     b = 0;
  34              		.loc 1 29 0
  35 0008 0020     		movs	r0, #0
  36              	.LVL1:
  37 000a 7047     		bx	lr
  38              	.LVL2:
  39              	.L9:
  30:drivers/MPU6050.c ****   else if (row[0] < 0)
  40              		.loc 1 30 0
  41 000c 10DB     		blt	.L4
  31:drivers/MPU6050.c ****     b = 4;
  32:drivers/MPU6050.c ****   else if (row[1] > 0)
  42              		.loc 1 32 0
  43 000e 90F90130 		ldrsb	r3, [r0, #1]
  44 0012 002B     		cmp	r3, #0
  45 0014 01DD     		ble	.L10
  33:drivers/MPU6050.c ****     b = 1;
  46              		.loc 1 33 0
  47 0016 0120     		movs	r0, #1
  48              	.LVL3:
  49 0018 7047     		bx	lr
  50              	.LVL4:
  51              	.L10:
  34:drivers/MPU6050.c ****   else if (row[1] < 0)
  52              		.loc 1 34 0
  53 001a 0BDB     		blt	.L6
  35:drivers/MPU6050.c ****     b = 5;
  36:drivers/MPU6050.c ****   else if (row[2] > 0)
  54              		.loc 1 36 0
  55 001c 90F90230 		ldrsb	r3, [r0, #2]
  56 0020 002B     		cmp	r3, #0
  57 0022 01DD     		ble	.L11
  37:drivers/MPU6050.c ****     b = 2;
  58              		.loc 1 37 0
  59 0024 0220     		movs	r0, #2
  60              	.LVL5:
  38:drivers/MPU6050.c ****   else if (row[2] < 0)
  39:drivers/MPU6050.c ****     b = 6;
  40:drivers/MPU6050.c ****   else
  41:drivers/MPU6050.c ****     b = 7;      // error
  42:drivers/MPU6050.c ****   return b;
  43:drivers/MPU6050.c **** }
  61              		.loc 1 43 0
  62 0026 7047     		bx	lr
  63              	.LVL6:
  64              	.L11:
  41:drivers/MPU6050.c ****   return b;
  65              		.loc 1 41 0
  66 0028 B4BF     		ite	lt
  67 002a 0620     		movlt	r0, #6
  68              	.LVL7:
  69 002c 0720     		movge	r0, #7
  70 002e 7047     		bx	lr
ARM GAS  /tmp/ccIxWip2.s 			page 3


  71              	.LVL8:
  72              	.L4:
  31:drivers/MPU6050.c ****   else if (row[1] > 0)
  73              		.loc 1 31 0
  74 0030 0420     		movs	r0, #4
  75              	.LVL9:
  76 0032 7047     		bx	lr
  77              	.LVL10:
  78              	.L6:
  35:drivers/MPU6050.c ****   else if (row[2] > 0)
  79              		.loc 1 35 0
  80 0034 0520     		movs	r0, #5
  81              	.LVL11:
  82 0036 7047     		bx	lr
  83              		.cfi_endproc
  84              	.LFE64:
  85              		.size	inv_row_2_scale, .-inv_row_2_scale
  86              		.align	1
  87              		.global	MPU6050_NewValues
  88              		.syntax unified
  89              		.thumb
  90              		.thumb_func
  91              		.fpu softvfp
  92              		.type	MPU6050_NewValues, %function
  93              	MPU6050_NewValues:
  94              	.LFB67:
  44:drivers/MPU6050.c **** 
  45:drivers/MPU6050.c **** 
  46:drivers/MPU6050.c **** static  unsigned short inv_orientation_matrix_to_scalar(const signed char *mtx)
  47:drivers/MPU6050.c **** {
  48:drivers/MPU6050.c ****   unsigned short scalar;
  49:drivers/MPU6050.c ****   scalar = inv_row_2_scale(mtx);
  50:drivers/MPU6050.c ****   scalar |= inv_row_2_scale(mtx + 3) << 3;
  51:drivers/MPU6050.c ****   scalar |= inv_row_2_scale(mtx + 6) << 6;
  52:drivers/MPU6050.c **** 
  53:drivers/MPU6050.c **** 
  54:drivers/MPU6050.c ****   return scalar;
  55:drivers/MPU6050.c **** }
  56:drivers/MPU6050.c **** 
  57:drivers/MPU6050.c **** static void run_self_test(void)
  58:drivers/MPU6050.c **** {
  59:drivers/MPU6050.c ****   int result;
  60:drivers/MPU6050.c ****   long gyro[3], accel[3];
  61:drivers/MPU6050.c **** 
  62:drivers/MPU6050.c ****   result = mpu_run_self_test(gyro, accel);
  63:drivers/MPU6050.c ****   if (result == 0x7) {
  64:drivers/MPU6050.c ****     /* Test passed. We can trust the gyro data here, so let's push it down
  65:drivers/MPU6050.c ****      * to the DMP.
  66:drivers/MPU6050.c ****      */
  67:drivers/MPU6050.c ****     float sens;
  68:drivers/MPU6050.c ****     unsigned short accel_sens;
  69:drivers/MPU6050.c ****     mpu_get_gyro_sens(&sens);
  70:drivers/MPU6050.c ****     gyro[0] = (long)(gyro[0] * sens);
  71:drivers/MPU6050.c ****     gyro[1] = (long)(gyro[1] * sens);
  72:drivers/MPU6050.c ****     gyro[2] = (long)(gyro[2] * sens);
  73:drivers/MPU6050.c ****     dmp_set_gyro_bias(gyro);
  74:drivers/MPU6050.c ****     mpu_get_accel_sens(&accel_sens);
ARM GAS  /tmp/ccIxWip2.s 			page 4


  75:drivers/MPU6050.c ****     accel[0] *= accel_sens;
  76:drivers/MPU6050.c ****     accel[1] *= accel_sens;
  77:drivers/MPU6050.c ****     accel[2] *= accel_sens;
  78:drivers/MPU6050.c ****     dmp_set_accel_bias(accel);
  79:drivers/MPU6050.c **** 	printf("setting bias succesfully ......\r\n");
  80:drivers/MPU6050.c ****   }
  81:drivers/MPU6050.c **** }
  82:drivers/MPU6050.c **** 
  83:drivers/MPU6050.c **** 
  84:drivers/MPU6050.c **** 
  85:drivers/MPU6050.c **** uint8_t buffer[14];
  86:drivers/MPU6050.c **** int MPU6050_FIFO[6][11];
  87:drivers/MPU6050.c **** int Gx_offset = 0;
  88:drivers/MPU6050.c **** int Gy_offset = 0;
  89:drivers/MPU6050.c **** int Gz_offset = 0;
  90:drivers/MPU6050.c **** 
  91:drivers/MPU6050.c **** //将新的ADC数据更新到 FIFO数组，进行滤波处理
  92:drivers/MPU6050.c **** void  MPU6050_NewValues(int ax,int ay,int az,int gx,int gy,int gz)
  93:drivers/MPU6050.c **** {
  95              		.loc 1 93 0
  96              		.cfi_startproc
  97              		@ args = 8, pretend = 0, frame = 0
  98              		@ frame_needed = 0, uses_anonymous_args = 0
  99              		@ link register save eliminated.
 100              	.LVL12:
 101 0038 F0B4     		push	{r4, r5, r6, r7}
 102              		.cfi_def_cfa_offset 16
 103              		.cfi_offset 4, -16
 104              		.cfi_offset 5, -12
 105              		.cfi_offset 6, -8
 106              		.cfi_offset 7, -4
 107              	.LVL13:
 108 003a 464D     		ldr	r5, .L28
 109 003c 05F12407 		add	r7, r5, #36
 110              		.loc 1 93 0
 111 0040 2C46     		mov	r4, r5
 112              	.LVL14:
 113              	.L13:
  94:drivers/MPU6050.c ****   unsigned char i ;
  95:drivers/MPU6050.c ****   int32_t sum=0;
  96:drivers/MPU6050.c ****   for(i=1;i<10;i++){	//FIFO 操作
  97:drivers/MPU6050.c ****     MPU6050_FIFO[0][i-1]=MPU6050_FIFO[0][i];
 114              		.loc 1 97 0 discriminator 3
 115 0042 6668     		ldr	r6, [r4, #4]
 116 0044 44F8046B 		str	r6, [r4], #4
  98:drivers/MPU6050.c ****     MPU6050_FIFO[1][i-1]=MPU6050_FIFO[1][i];
 117              		.loc 1 98 0 discriminator 3
 118 0048 E66A     		ldr	r6, [r4, #44]
 119 004a A662     		str	r6, [r4, #40]
  99:drivers/MPU6050.c ****     MPU6050_FIFO[2][i-1]=MPU6050_FIFO[2][i];
 120              		.loc 1 99 0 discriminator 3
 121 004c A66D     		ldr	r6, [r4, #88]
 122 004e 6665     		str	r6, [r4, #84]
 100:drivers/MPU6050.c ****     MPU6050_FIFO[3][i-1]=MPU6050_FIFO[3][i];
 123              		.loc 1 100 0 discriminator 3
 124 0050 D4F88460 		ldr	r6, [r4, #132]
 125 0054 C4F88060 		str	r6, [r4, #128]
ARM GAS  /tmp/ccIxWip2.s 			page 5


 101:drivers/MPU6050.c ****     MPU6050_FIFO[4][i-1]=MPU6050_FIFO[4][i];
 126              		.loc 1 101 0 discriminator 3
 127 0058 D4F8B060 		ldr	r6, [r4, #176]
 128 005c C4F8AC60 		str	r6, [r4, #172]
 102:drivers/MPU6050.c ****     MPU6050_FIFO[5][i-1]=MPU6050_FIFO[5][i];
 129              		.loc 1 102 0 discriminator 3
 130 0060 D4F8DC60 		ldr	r6, [r4, #220]
 131 0064 C4F8D860 		str	r6, [r4, #216]
  96:drivers/MPU6050.c ****     MPU6050_FIFO[0][i-1]=MPU6050_FIFO[0][i];
 132              		.loc 1 96 0 discriminator 3
 133 0068 BC42     		cmp	r4, r7
 134 006a EAD1     		bne	.L13
 103:drivers/MPU6050.c ****   }
 104:drivers/MPU6050.c ****   MPU6050_FIFO[0][9]=ax;//将新的数据放置到 数据的最后面
 135              		.loc 1 104 0
 136 006c 394C     		ldr	r4, .L28
 137 006e 6062     		str	r0, [r4, #36]
 105:drivers/MPU6050.c ****   MPU6050_FIFO[1][9]=ay;
 138              		.loc 1 105 0
 139 0070 2165     		str	r1, [r4, #80]
 106:drivers/MPU6050.c ****   MPU6050_FIFO[2][9]=az;
 140              		.loc 1 106 0
 141 0072 E267     		str	r2, [r4, #124]
 107:drivers/MPU6050.c ****   MPU6050_FIFO[3][9]=gx;
 142              		.loc 1 107 0
 143 0074 C4F8A830 		str	r3, [r4, #168]
 108:drivers/MPU6050.c ****   MPU6050_FIFO[4][9]=gy;
 144              		.loc 1 108 0
 145 0078 049B     		ldr	r3, [sp, #16]
 146              	.LVL15:
 147 007a C4F8D430 		str	r3, [r4, #212]
 109:drivers/MPU6050.c ****   MPU6050_FIFO[5][9]=gz;
 148              		.loc 1 109 0
 149 007e 059B     		ldr	r3, [sp, #20]
 150 0080 C4F80031 		str	r3, [r4, #256]
 151              	.LVL16:
 152 0084 04F12801 		add	r1, r4, #40
 153              	.LVL17:
 110:drivers/MPU6050.c ****   
 111:drivers/MPU6050.c ****   sum=0;
 154              		.loc 1 111 0
 155 0088 0023     		movs	r3, #0
 156              	.LVL18:
 157              	.L14:
 112:drivers/MPU6050.c ****   for(i=0;i<10;i++){	//求当前数组的合，再取平均值
 113:drivers/MPU6050.c ****     sum+=MPU6050_FIFO[0][i];
 158              		.loc 1 113 0 discriminator 3
 159 008a 55F8042B 		ldr	r2, [r5], #4
 160 008e 1344     		add	r3, r3, r2
 161              	.LVL19:
 112:drivers/MPU6050.c ****   for(i=0;i<10;i++){	//求当前数组的合，再取平均值
 162              		.loc 1 112 0 discriminator 3
 163 0090 8D42     		cmp	r5, r1
 164 0092 FAD1     		bne	.L14
 114:drivers/MPU6050.c ****   }
 115:drivers/MPU6050.c ****   MPU6050_FIFO[0][10]=sum/10;
 165              		.loc 1 115 0
ARM GAS  /tmp/ccIxWip2.s 			page 6


 166 0094 2F49     		ldr	r1, .L28
 167 0096 304A     		ldr	r2, .L28+4
 168 0098 82FB0302 		smull	r0, r2, r2, r3
 169              	.LVL20:
 170 009c DB17     		asrs	r3, r3, #31
 171              	.LVL21:
 172 009e C3EBA203 		rsb	r3, r3, r2, asr #2
 173 00a2 8B62     		str	r3, [r1, #40]
 174              	.LVL22:
 175 00a4 5031     		adds	r1, r1, #80
 116:drivers/MPU6050.c ****   
 117:drivers/MPU6050.c ****   sum=0;
 176              		.loc 1 117 0
 177 00a6 0023     		movs	r3, #0
 178              	.LVL23:
 179              	.L15:
 118:drivers/MPU6050.c ****   for(i=0;i<10;i++){
 119:drivers/MPU6050.c ****     sum+=MPU6050_FIFO[1][i];
 180              		.loc 1 119 0 discriminator 3
 181 00a8 55F8042F 		ldr	r2, [r5, #4]!
 182 00ac 1344     		add	r3, r3, r2
 183              	.LVL24:
 118:drivers/MPU6050.c ****   for(i=0;i<10;i++){
 184              		.loc 1 118 0 discriminator 3
 185 00ae 8D42     		cmp	r5, r1
 186 00b0 FAD1     		bne	.L15
 120:drivers/MPU6050.c ****   }
 121:drivers/MPU6050.c ****   MPU6050_FIFO[1][10]=sum/10;
 187              		.loc 1 121 0
 188 00b2 2848     		ldr	r0, .L28
 189 00b4 284A     		ldr	r2, .L28+4
 190 00b6 82FB0312 		smull	r1, r2, r2, r3
 191 00ba DB17     		asrs	r3, r3, #31
 192              	.LVL25:
 193 00bc C3EBA202 		rsb	r2, r3, r2, asr #2
 194 00c0 0346     		mov	r3, r0
 195 00c2 43F8542F 		str	r2, [r3, #84]!
 196              	.LVL26:
 197 00c6 7C30     		adds	r0, r0, #124
 122:drivers/MPU6050.c ****   
 123:drivers/MPU6050.c ****   sum=0;
 198              		.loc 1 123 0
 199 00c8 0022     		movs	r2, #0
 200              	.LVL27:
 201              	.L16:
 124:drivers/MPU6050.c ****   for(i=0;i<10;i++){
 125:drivers/MPU6050.c ****     sum+=MPU6050_FIFO[2][i];
 202              		.loc 1 125 0 discriminator 3
 203 00ca 53F8041F 		ldr	r1, [r3, #4]!
 204 00ce 0A44     		add	r2, r2, r1
 205              	.LVL28:
 124:drivers/MPU6050.c ****   for(i=0;i<10;i++){
 206              		.loc 1 124 0 discriminator 3
 207 00d0 8342     		cmp	r3, r0
 208 00d2 FAD1     		bne	.L16
 126:drivers/MPU6050.c ****   }
 127:drivers/MPU6050.c ****   MPU6050_FIFO[2][10]=sum/10;
ARM GAS  /tmp/ccIxWip2.s 			page 7


 209              		.loc 1 127 0
 210 00d4 1F48     		ldr	r0, .L28
 211 00d6 204B     		ldr	r3, .L28+4
 212 00d8 83FB0213 		smull	r1, r3, r3, r2
 213 00dc D217     		asrs	r2, r2, #31
 214              	.LVL29:
 215 00de C2EBA302 		rsb	r2, r2, r3, asr #2
 216 00e2 0346     		mov	r3, r0
 217 00e4 43F8802F 		str	r2, [r3, #128]!
 218              	.LVL30:
 219 00e8 A830     		adds	r0, r0, #168
 128:drivers/MPU6050.c ****   
 129:drivers/MPU6050.c ****   sum=0;
 220              		.loc 1 129 0
 221 00ea 0022     		movs	r2, #0
 222              	.LVL31:
 223              	.L17:
 130:drivers/MPU6050.c ****   for(i=0;i<10;i++){
 131:drivers/MPU6050.c ****     sum+=MPU6050_FIFO[3][i];
 224              		.loc 1 131 0 discriminator 3
 225 00ec 53F8041F 		ldr	r1, [r3, #4]!
 226 00f0 0A44     		add	r2, r2, r1
 227              	.LVL32:
 130:drivers/MPU6050.c ****   for(i=0;i<10;i++){
 228              		.loc 1 130 0 discriminator 3
 229 00f2 8342     		cmp	r3, r0
 230 00f4 FAD1     		bne	.L17
 132:drivers/MPU6050.c ****   }
 133:drivers/MPU6050.c ****   MPU6050_FIFO[3][10]=sum/10;
 231              		.loc 1 133 0
 232 00f6 1748     		ldr	r0, .L28
 233 00f8 174B     		ldr	r3, .L28+4
 234 00fa 83FB0213 		smull	r1, r3, r3, r2
 235 00fe D217     		asrs	r2, r2, #31
 236              	.LVL33:
 237 0100 C2EBA302 		rsb	r2, r2, r3, asr #2
 238 0104 0346     		mov	r3, r0
 239 0106 43F8AC2F 		str	r2, [r3, #172]!
 240              	.LVL34:
 241 010a D430     		adds	r0, r0, #212
 134:drivers/MPU6050.c ****   
 135:drivers/MPU6050.c ****   sum=0;
 242              		.loc 1 135 0
 243 010c 0022     		movs	r2, #0
 244              	.LVL35:
 245              	.L18:
 136:drivers/MPU6050.c ****   for(i=0;i<10;i++){
 137:drivers/MPU6050.c ****     sum+=MPU6050_FIFO[4][i];
 246              		.loc 1 137 0 discriminator 3
 247 010e 53F8041F 		ldr	r1, [r3, #4]!
 248 0112 0A44     		add	r2, r2, r1
 249              	.LVL36:
 136:drivers/MPU6050.c ****   for(i=0;i<10;i++){
 250              		.loc 1 136 0 discriminator 3
 251 0114 8342     		cmp	r3, r0
 252 0116 FAD1     		bne	.L18
 138:drivers/MPU6050.c ****   }
ARM GAS  /tmp/ccIxWip2.s 			page 8


 139:drivers/MPU6050.c ****   MPU6050_FIFO[4][10]=sum/10;
 253              		.loc 1 139 0
 254 0118 0E48     		ldr	r0, .L28
 255 011a 0F4B     		ldr	r3, .L28+4
 256 011c 83FB0213 		smull	r1, r3, r3, r2
 257 0120 D217     		asrs	r2, r2, #31
 258              	.LVL37:
 259 0122 C2EBA302 		rsb	r2, r2, r3, asr #2
 260 0126 0346     		mov	r3, r0
 261 0128 43F8D82F 		str	r2, [r3, #216]!
 262              	.LVL38:
 263 012c 00F58070 		add	r0, r0, #256
 140:drivers/MPU6050.c ****   
 141:drivers/MPU6050.c ****   sum=0;
 264              		.loc 1 141 0
 265 0130 0022     		movs	r2, #0
 266              	.LVL39:
 267              	.L19:
 142:drivers/MPU6050.c ****   for(i=0;i<10;i++){
 143:drivers/MPU6050.c ****     sum+=MPU6050_FIFO[5][i];
 268              		.loc 1 143 0 discriminator 3
 269 0132 53F8041F 		ldr	r1, [r3, #4]!
 270 0136 0A44     		add	r2, r2, r1
 271              	.LVL40:
 142:drivers/MPU6050.c ****   for(i=0;i<10;i++){
 272              		.loc 1 142 0 discriminator 3
 273 0138 9842     		cmp	r0, r3
 274 013a FAD1     		bne	.L19
 144:drivers/MPU6050.c ****   }
 145:drivers/MPU6050.c ****   MPU6050_FIFO[5][10]=sum/10;
 275              		.loc 1 145 0
 276 013c 064B     		ldr	r3, .L28+4
 277 013e 83FB0213 		smull	r1, r3, r3, r2
 278 0142 D217     		asrs	r2, r2, #31
 279              	.LVL41:
 280 0144 C2EBA302 		rsb	r2, r2, r3, asr #2
 281 0148 024B     		ldr	r3, .L28
 282 014a C3F80421 		str	r2, [r3, #260]
 146:drivers/MPU6050.c **** }
 283              		.loc 1 146 0
 284 014e F0BC     		pop	{r4, r5, r6, r7}
 285              		.cfi_restore 7
 286              		.cfi_restore 6
 287              		.cfi_restore 5
 288              		.cfi_restore 4
 289              		.cfi_def_cfa_offset 0
 290              	.LVL42:
 291 0150 7047     		bx	lr
 292              	.L29:
 293 0152 00BF     		.align	2
 294              	.L28:
 295 0154 00000000 		.word	.LANCHOR0
 296 0158 67666666 		.word	1717986919
 297              		.cfi_endproc
 298              	.LFE67:
 299              		.size	MPU6050_NewValues, .-MPU6050_NewValues
 300              		.align	1
ARM GAS  /tmp/ccIxWip2.s 			page 9


 301              		.global	MPU6050_SetClockSource
 302              		.syntax unified
 303              		.thumb
 304              		.thumb_func
 305              		.fpu softvfp
 306              		.type	MPU6050_SetClockSource, %function
 307              	MPU6050_SetClockSource:
 308              	.LFB68:
 147:drivers/MPU6050.c **** 
 148:drivers/MPU6050.c **** /**************************实现函数********************************************
 149:drivers/MPU6050.c **** *函数原型:		void MPU6050_setClockSource(uint8_t source)
 150:drivers/MPU6050.c **** *功　　能:	    设置  MPU6050 的时钟源
 151:drivers/MPU6050.c ****  * CLK_SEL | Clock Source
 152:drivers/MPU6050.c ****  * --------+--------------------------------------
 153:drivers/MPU6050.c ****  * 0       | Internal oscillator
 154:drivers/MPU6050.c ****  * 1       | PLL with X Gyro reference
 155:drivers/MPU6050.c ****  * 2       | PLL with Y Gyro reference
 156:drivers/MPU6050.c ****  * 3       | PLL with Z Gyro reference
 157:drivers/MPU6050.c ****  * 4       | PLL with external 32.768kHz reference
 158:drivers/MPU6050.c ****  * 5       | PLL with external 19.2MHz reference
 159:drivers/MPU6050.c ****  * 6       | Reserved
 160:drivers/MPU6050.c ****  * 7       | Stops the clock and keeps the timing generator in reset
 161:drivers/MPU6050.c **** *******************************************************************************/
 162:drivers/MPU6050.c **** void MPU6050_SetClockSource(uint8_t source){
 309              		.loc 1 162 0
 310              		.cfi_startproc
 311              		@ args = 0, pretend = 0, frame = 0
 312              		@ frame_needed = 0, uses_anonymous_args = 0
 313              	.LVL43:
 314 015c 00B5     		push	{lr}
 315              		.cfi_def_cfa_offset 4
 316              		.cfi_offset 14, -4
 317 015e 83B0     		sub	sp, sp, #12
 318              		.cfi_def_cfa_offset 16
 163:drivers/MPU6050.c ****   I2C_BitsWrite(devAddr, MPU6050_RA_PWR_MGMT_1, MPU6050_PWR1_CLKSEL_BIT, MPU6050_PWR1_CLKSEL_LENGTH
 319              		.loc 1 163 0
 320 0160 0090     		str	r0, [sp]
 321 0162 0323     		movs	r3, #3
 322 0164 0222     		movs	r2, #2
 323 0166 6B21     		movs	r1, #107
 324 0168 D020     		movs	r0, #208
 325              	.LVL44:
 326 016a FFF7FEFF 		bl	I2C_BitsWrite
 327              	.LVL45:
 164:drivers/MPU6050.c **** 
 165:drivers/MPU6050.c **** }
 328              		.loc 1 165 0
 329 016e 03B0     		add	sp, sp, #12
 330              		.cfi_def_cfa_offset 4
 331              		@ sp needed
 332 0170 5DF804FB 		ldr	pc, [sp], #4
 333              		.cfi_endproc
 334              	.LFE68:
 335              		.size	MPU6050_SetClockSource, .-MPU6050_SetClockSource
 336              		.align	1
 337              		.global	MPU6050_SetFullScaleGyroRange
 338              		.syntax unified
ARM GAS  /tmp/ccIxWip2.s 			page 10


 339              		.thumb
 340              		.thumb_func
 341              		.fpu softvfp
 342              		.type	MPU6050_SetFullScaleGyroRange, %function
 343              	MPU6050_SetFullScaleGyroRange:
 344              	.LFB69:
 166:drivers/MPU6050.c **** 
 167:drivers/MPU6050.c **** /** Set full-scale gyroscope range.
 168:drivers/MPU6050.c ****  * @param range New full-scale gyroscope range value
 169:drivers/MPU6050.c ****  * @see getFullScaleRange()
 170:drivers/MPU6050.c ****  * @see MPU6050_GYRO_FS_250
 171:drivers/MPU6050.c ****  * @see MPU6050_RA_GYRO_CONFIG
 172:drivers/MPU6050.c ****  * @see MPU6050_GCONFIG_FS_SEL_BIT
 173:drivers/MPU6050.c ****  * @see MPU6050_GCONFIG_FS_SEL_LENGTH
 174:drivers/MPU6050.c ****  */
 175:drivers/MPU6050.c **** void MPU6050_SetFullScaleGyroRange(uint8_t range) {
 345              		.loc 1 175 0
 346              		.cfi_startproc
 347              		@ args = 0, pretend = 0, frame = 0
 348              		@ frame_needed = 0, uses_anonymous_args = 0
 349              	.LVL46:
 350 0174 00B5     		push	{lr}
 351              		.cfi_def_cfa_offset 4
 352              		.cfi_offset 14, -4
 353 0176 83B0     		sub	sp, sp, #12
 354              		.cfi_def_cfa_offset 16
 176:drivers/MPU6050.c ****   I2C_BitsWrite(devAddr, MPU6050_RA_GYRO_CONFIG, MPU6050_GCONFIG_FS_SEL_BIT, MPU6050_GCONFIG_FS_SEL
 355              		.loc 1 176 0
 356 0178 0090     		str	r0, [sp]
 357 017a 0223     		movs	r3, #2
 358 017c 0422     		movs	r2, #4
 359 017e 1B21     		movs	r1, #27
 360 0180 D020     		movs	r0, #208
 361              	.LVL47:
 362 0182 FFF7FEFF 		bl	I2C_BitsWrite
 363              	.LVL48:
 177:drivers/MPU6050.c **** }
 364              		.loc 1 177 0
 365 0186 03B0     		add	sp, sp, #12
 366              		.cfi_def_cfa_offset 4
 367              		@ sp needed
 368 0188 5DF804FB 		ldr	pc, [sp], #4
 369              		.cfi_endproc
 370              	.LFE69:
 371              		.size	MPU6050_SetFullScaleGyroRange, .-MPU6050_SetFullScaleGyroRange
 372              		.align	1
 373              		.global	MPU6050_SetFullScaleAccelRange
 374              		.syntax unified
 375              		.thumb
 376              		.thumb_func
 377              		.fpu softvfp
 378              		.type	MPU6050_SetFullScaleAccelRange, %function
 379              	MPU6050_SetFullScaleAccelRange:
 380              	.LFB70:
 178:drivers/MPU6050.c **** 
 179:drivers/MPU6050.c **** //设置  MPU6050 加速度计的最大量程
 180:drivers/MPU6050.c **** void MPU6050_SetFullScaleAccelRange(uint8_t range) {
ARM GAS  /tmp/ccIxWip2.s 			page 11


 381              		.loc 1 180 0
 382              		.cfi_startproc
 383              		@ args = 0, pretend = 0, frame = 0
 384              		@ frame_needed = 0, uses_anonymous_args = 0
 385              	.LVL49:
 386 018c 00B5     		push	{lr}
 387              		.cfi_def_cfa_offset 4
 388              		.cfi_offset 14, -4
 389 018e 83B0     		sub	sp, sp, #12
 390              		.cfi_def_cfa_offset 16
 181:drivers/MPU6050.c ****   I2C_BitsWrite(devAddr, MPU6050_RA_ACCEL_CONFIG, MPU6050_ACONFIG_AFS_SEL_BIT, MPU6050_ACONFIG_AFS_
 391              		.loc 1 181 0
 392 0190 0090     		str	r0, [sp]
 393 0192 0223     		movs	r3, #2
 394 0194 0422     		movs	r2, #4
 395 0196 1C21     		movs	r1, #28
 396 0198 D020     		movs	r0, #208
 397              	.LVL50:
 398 019a FFF7FEFF 		bl	I2C_BitsWrite
 399              	.LVL51:
 182:drivers/MPU6050.c **** }
 400              		.loc 1 182 0
 401 019e 03B0     		add	sp, sp, #12
 402              		.cfi_def_cfa_offset 4
 403              		@ sp needed
 404 01a0 5DF804FB 		ldr	pc, [sp], #4
 405              		.cfi_endproc
 406              	.LFE70:
 407              		.size	MPU6050_SetFullScaleAccelRange, .-MPU6050_SetFullScaleAccelRange
 408              		.align	1
 409              		.global	MPU6050_SetSleepEnabled
 410              		.syntax unified
 411              		.thumb
 412              		.thumb_func
 413              		.fpu softvfp
 414              		.type	MPU6050_SetSleepEnabled, %function
 415              	MPU6050_SetSleepEnabled:
 416              	.LFB71:
 183:drivers/MPU6050.c **** 
 184:drivers/MPU6050.c **** //设置  MPU6050 是否进入睡眠模式
 185:drivers/MPU6050.c **** void MPU6050_SetSleepEnabled(uint8_t enabled) {
 417              		.loc 1 185 0
 418              		.cfi_startproc
 419              		@ args = 0, pretend = 0, frame = 0
 420              		@ frame_needed = 0, uses_anonymous_args = 0
 421              	.LVL52:
 422 01a4 08B5     		push	{r3, lr}
 423              		.cfi_def_cfa_offset 8
 424              		.cfi_offset 3, -8
 425              		.cfi_offset 14, -4
 186:drivers/MPU6050.c ****   I2C_BitWrite(devAddr, MPU6050_RA_PWR_MGMT_1, MPU6050_PWR1_SLEEP_BIT, enabled);
 426              		.loc 1 186 0
 427 01a6 0346     		mov	r3, r0
 428 01a8 0622     		movs	r2, #6
 429 01aa 6B21     		movs	r1, #107
 430 01ac D020     		movs	r0, #208
 431              	.LVL53:
ARM GAS  /tmp/ccIxWip2.s 			page 12


 432 01ae FFF7FEFF 		bl	I2C_BitWrite
 433              	.LVL54:
 434 01b2 08BD     		pop	{r3, pc}
 435              		.cfi_endproc
 436              	.LFE71:
 437              		.size	MPU6050_SetSleepEnabled, .-MPU6050_SetSleepEnabled
 438              		.align	1
 439              		.global	MPU6050_GetDeviceID
 440              		.syntax unified
 441              		.thumb
 442              		.thumb_func
 443              		.fpu softvfp
 444              		.type	MPU6050_GetDeviceID, %function
 445              	MPU6050_GetDeviceID:
 446              	.LFB72:
 187:drivers/MPU6050.c **** }
 188:drivers/MPU6050.c **** 
 189:drivers/MPU6050.c **** //读取  MPU6050 WHO_AM_I 标识	 将返回 0x68
 190:drivers/MPU6050.c **** uint8_t MPU6050_GetDeviceID(void)
 191:drivers/MPU6050.c **** {
 447              		.loc 1 191 0
 448              		.cfi_startproc
 449              		@ args = 0, pretend = 0, frame = 0
 450              		@ frame_needed = 0, uses_anonymous_args = 0
 451 01b4 10B5     		push	{r4, lr}
 452              		.cfi_def_cfa_offset 8
 453              		.cfi_offset 4, -8
 454              		.cfi_offset 14, -4
 192:drivers/MPU6050.c ****   I2C_Read(devAddr, MPU6050_RA_WHO_AM_I, 1, buffer);
 455              		.loc 1 192 0
 456 01b6 054C     		ldr	r4, .L40
 457 01b8 04F58473 		add	r3, r4, #264
 458 01bc 0122     		movs	r2, #1
 459 01be 7521     		movs	r1, #117
 460 01c0 D020     		movs	r0, #208
 461 01c2 FFF7FEFF 		bl	I2C_Read
 462              	.LVL55:
 193:drivers/MPU6050.c ****   return buffer[0];
 194:drivers/MPU6050.c **** }
 463              		.loc 1 194 0
 464 01c6 94F80801 		ldrb	r0, [r4, #264]	@ zero_extendqisi2
 465 01ca 10BD     		pop	{r4, pc}
 466              	.L41:
 467              		.align	2
 468              	.L40:
 469 01cc 00000000 		.word	.LANCHOR0
 470              		.cfi_endproc
 471              	.LFE72:
 472              		.size	MPU6050_GetDeviceID, .-MPU6050_GetDeviceID
 473              		.align	1
 474              		.global	MPU6050_TestConnection
 475              		.syntax unified
 476              		.thumb
 477              		.thumb_func
 478              		.fpu softvfp
 479              		.type	MPU6050_TestConnection, %function
 480              	MPU6050_TestConnection:
ARM GAS  /tmp/ccIxWip2.s 			page 13


 481              	.LFB73:
 195:drivers/MPU6050.c **** 
 196:drivers/MPU6050.c **** //检测MPU6050 是否已经连接
 197:drivers/MPU6050.c **** uint8_t MPU6050_TestConnection(void)
 198:drivers/MPU6050.c **** {
 482              		.loc 1 198 0
 483              		.cfi_startproc
 484              		@ args = 0, pretend = 0, frame = 0
 485              		@ frame_needed = 0, uses_anonymous_args = 0
 486 01d0 08B5     		push	{r3, lr}
 487              		.cfi_def_cfa_offset 8
 488              		.cfi_offset 3, -8
 489              		.cfi_offset 14, -4
 199:drivers/MPU6050.c ****   if(MPU6050_GetDeviceID() == 0x68)  //0b01101000;
 490              		.loc 1 199 0
 491 01d2 FFF7FEFF 		bl	MPU6050_GetDeviceID
 492              	.LVL56:
 200:drivers/MPU6050.c ****   return 1;
 201:drivers/MPU6050.c ****   else return 0;
 202:drivers/MPU6050.c **** }
 493              		.loc 1 202 0
 494 01d6 6828     		cmp	r0, #104
 495 01d8 14BF     		ite	ne
 496 01da 0020     		movne	r0, #0
 497 01dc 0120     		moveq	r0, #1
 498 01de 08BD     		pop	{r3, pc}
 499              		.cfi_endproc
 500              	.LFE73:
 501              		.size	MPU6050_TestConnection, .-MPU6050_TestConnection
 502              		.align	1
 503              		.global	MPU6050_SetI2CMasterModeEnabled
 504              		.syntax unified
 505              		.thumb
 506              		.thumb_func
 507              		.fpu softvfp
 508              		.type	MPU6050_SetI2CMasterModeEnabled, %function
 509              	MPU6050_SetI2CMasterModeEnabled:
 510              	.LFB74:
 203:drivers/MPU6050.c **** 
 204:drivers/MPU6050.c **** //设置 MPU6050 是否为AUX I2C线的主机
 205:drivers/MPU6050.c **** void MPU6050_SetI2CMasterModeEnabled(uint8_t enabled) {
 511              		.loc 1 205 0
 512              		.cfi_startproc
 513              		@ args = 0, pretend = 0, frame = 0
 514              		@ frame_needed = 0, uses_anonymous_args = 0
 515              	.LVL57:
 516 01e0 08B5     		push	{r3, lr}
 517              		.cfi_def_cfa_offset 8
 518              		.cfi_offset 3, -8
 519              		.cfi_offset 14, -4
 206:drivers/MPU6050.c ****   I2C_BitWrite(devAddr, MPU6050_RA_USER_CTRL, MPU6050_USERCTRL_I2C_MST_EN_BIT, enabled);
 520              		.loc 1 206 0
 521 01e2 0346     		mov	r3, r0
 522 01e4 0522     		movs	r2, #5
 523 01e6 6A21     		movs	r1, #106
 524 01e8 D020     		movs	r0, #208
 525              	.LVL58:
ARM GAS  /tmp/ccIxWip2.s 			page 14


 526 01ea FFF7FEFF 		bl	I2C_BitWrite
 527              	.LVL59:
 528 01ee 08BD     		pop	{r3, pc}
 529              		.cfi_endproc
 530              	.LFE74:
 531              		.size	MPU6050_SetI2CMasterModeEnabled, .-MPU6050_SetI2CMasterModeEnabled
 532              		.align	1
 533              		.global	MPU6050_SetI2CBypassEnabled
 534              		.syntax unified
 535              		.thumb
 536              		.thumb_func
 537              		.fpu softvfp
 538              		.type	MPU6050_SetI2CBypassEnabled, %function
 539              	MPU6050_SetI2CBypassEnabled:
 540              	.LFB75:
 207:drivers/MPU6050.c **** }
 208:drivers/MPU6050.c **** 
 209:drivers/MPU6050.c **** //设置 MPU6050 是否为AUX I2C线的主机
 210:drivers/MPU6050.c **** void MPU6050_SetI2CBypassEnabled(uint8_t enabled) {
 541              		.loc 1 210 0
 542              		.cfi_startproc
 543              		@ args = 0, pretend = 0, frame = 0
 544              		@ frame_needed = 0, uses_anonymous_args = 0
 545              	.LVL60:
 546 01f0 08B5     		push	{r3, lr}
 547              		.cfi_def_cfa_offset 8
 548              		.cfi_offset 3, -8
 549              		.cfi_offset 14, -4
 211:drivers/MPU6050.c ****   I2C_BitWrite(devAddr, MPU6050_RA_INT_PIN_CFG, MPU6050_INTCFG_I2C_BYPASS_EN_BIT, enabled);
 550              		.loc 1 211 0
 551 01f2 0346     		mov	r3, r0
 552 01f4 0122     		movs	r2, #1
 553 01f6 3721     		movs	r1, #55
 554 01f8 D020     		movs	r0, #208
 555              	.LVL61:
 556 01fa FFF7FEFF 		bl	I2C_BitWrite
 557              	.LVL62:
 558 01fe 08BD     		pop	{r3, pc}
 559              		.cfi_endproc
 560              	.LFE75:
 561              		.size	MPU6050_SetI2CBypassEnabled, .-MPU6050_SetI2CBypassEnabled
 562              		.align	1
 563              		.global	MPU6050_Init
 564              		.syntax unified
 565              		.thumb
 566              		.thumb_func
 567              		.fpu softvfp
 568              		.type	MPU6050_Init, %function
 569              	MPU6050_Init:
 570              	.LFB76:
 212:drivers/MPU6050.c **** }
 213:drivers/MPU6050.c **** 
 214:drivers/MPU6050.c **** //初始化 	MPU6050 以进入可用状态。
 215:drivers/MPU6050.c **** void MPU6050_Init(void) {
 571              		.loc 1 215 0
 572              		.cfi_startproc
 573              		@ args = 0, pretend = 0, frame = 0
ARM GAS  /tmp/ccIxWip2.s 			page 15


 574              		@ frame_needed = 0, uses_anonymous_args = 0
 575 0200 08B5     		push	{r3, lr}
 576              		.cfi_def_cfa_offset 8
 577              		.cfi_offset 3, -8
 578              		.cfi_offset 14, -4
 216:drivers/MPU6050.c ****   MPU6050_SetClockSource(MPU6050_CLOCK_PLL_YGYRO); //设置时钟
 579              		.loc 1 216 0
 580 0202 0220     		movs	r0, #2
 581 0204 FFF7FEFF 		bl	MPU6050_SetClockSource
 582              	.LVL63:
 217:drivers/MPU6050.c **** 
 218:drivers/MPU6050.c ****   MPU6050_SetFullScaleGyroRange(MPU6050_GYRO_FS_2000);//陀螺仪最大量程 +-1000度每秒
 583              		.loc 1 218 0
 584 0208 0320     		movs	r0, #3
 585 020a FFF7FEFF 		bl	MPU6050_SetFullScaleGyroRange
 586              	.LVL64:
 219:drivers/MPU6050.c ****   MPU6050_SetFullScaleAccelRange(MPU6050_ACCEL_FS_2);	//加速度度最大量程 +-2G
 587              		.loc 1 219 0
 588 020e 0020     		movs	r0, #0
 589 0210 FFF7FEFF 		bl	MPU6050_SetFullScaleAccelRange
 590              	.LVL65:
 220:drivers/MPU6050.c ****   MPU6050_SetSleepEnabled(0); //进入工作状态
 591              		.loc 1 220 0
 592 0214 0020     		movs	r0, #0
 593 0216 FFF7FEFF 		bl	MPU6050_SetSleepEnabled
 594              	.LVL66:
 221:drivers/MPU6050.c **** 	MPU6050_SetI2CMasterModeEnabled(0);	 //不让MPU6050 控制AUXI2C
 595              		.loc 1 221 0
 596 021a 0020     		movs	r0, #0
 597 021c FFF7FEFF 		bl	MPU6050_SetI2CMasterModeEnabled
 598              	.LVL67:
 222:drivers/MPU6050.c **** 	MPU6050_SetI2CBypassEnabled(0);	 //主控制器的I2C与	MPU6050的AUXI2C	直通。控制器可以直接访问HMC5883
 599              		.loc 1 222 0
 600 0220 0020     		movs	r0, #0
 601 0222 FFF7FEFF 		bl	MPU6050_SetI2CBypassEnabled
 602              	.LVL68:
 603 0226 08BD     		pop	{r3, pc}
 604              		.cfi_endproc
 605              	.LFE76:
 606              		.size	MPU6050_Init, .-MPU6050_Init
 607              		.global	__aeabi_i2f
 608              		.global	__aeabi_fmul
 609              		.global	__aeabi_f2iz
 610              		.align	1
 611              		.global	DMP_Init
 612              		.syntax unified
 613              		.thumb
 614              		.thumb_func
 615              		.fpu softvfp
 616              		.type	DMP_Init, %function
 617              	DMP_Init:
 618              	.LFB77:
 223:drivers/MPU6050.c **** }
 224:drivers/MPU6050.c **** 
 225:drivers/MPU6050.c **** 
 226:drivers/MPU6050.c **** 
 227:drivers/MPU6050.c **** 
ARM GAS  /tmp/ccIxWip2.s 			page 16


 228:drivers/MPU6050.c **** //MPU6050内置DMP的初始化
 229:drivers/MPU6050.c **** //
 230:drivers/MPU6050.c **** void DMP_Init(void)
 231:drivers/MPU6050.c **** { 
 619              		.loc 1 231 0
 620              		.cfi_startproc
 621              		@ args = 0, pretend = 0, frame = 40
 622              		@ frame_needed = 0, uses_anonymous_args = 0
 623 0228 70B5     		push	{r4, r5, r6, lr}
 624              		.cfi_def_cfa_offset 16
 625              		.cfi_offset 4, -16
 626              		.cfi_offset 5, -12
 627              		.cfi_offset 6, -8
 628              		.cfi_offset 14, -4
 629 022a 8AB0     		sub	sp, sp, #40
 630              		.cfi_def_cfa_offset 56
 232:drivers/MPU6050.c ****   u8 temp[1]={0};
 631              		.loc 1 232 0
 632 022c 0AAB     		add	r3, sp, #40
 633 022e 0022     		movs	r2, #0
 634 0230 03F8042D 		strb	r2, [r3, #-4]!
 233:drivers/MPU6050.c ****   I2C_Read(0x68,0x75,1,temp);
 635              		.loc 1 233 0
 636 0234 0122     		movs	r2, #1
 637 0236 7521     		movs	r1, #117
 638 0238 6820     		movs	r0, #104
 639 023a FFF7FEFF 		bl	I2C_Read
 640              	.LVL69:
 234:drivers/MPU6050.c **** 	printf("mpu_set_sensor complete ......\r\n");
 641              		.loc 1 234 0
 642 023e 5748     		ldr	r0, .L73
 643 0240 FFF7FEFF 		bl	puts
 644              	.LVL70:
 235:drivers/MPU6050.c **** 	if(temp[0]!=0x68)NVIC_SystemReset();
 645              		.loc 1 235 0
 646 0244 9DF82430 		ldrb	r3, [sp, #36]	@ zero_extendqisi2
 647 0248 682B     		cmp	r3, #104
 648 024a 04D1     		bne	.L63
 236:drivers/MPU6050.c **** 	if(!mpu_init())
 649              		.loc 1 236 0
 650 024c FFF7FEFF 		bl	mpu_init
 651              	.LVL71:
 652 0250 70B1     		cbz	r0, .L64
 653              	.L50:
 237:drivers/MPU6050.c ****   {
 238:drivers/MPU6050.c **** 	  if(!mpu_set_sensors(INV_XYZ_GYRO | INV_XYZ_ACCEL))
 239:drivers/MPU6050.c **** 	  	 printf("mpu_set_sensor complete ......\r\n");
 240:drivers/MPU6050.c **** 	  if(!mpu_configure_fifo(INV_XYZ_GYRO | INV_XYZ_ACCEL))
 241:drivers/MPU6050.c **** 	  	 printf("mpu_configure_fifo complete ......\r\n");
 242:drivers/MPU6050.c **** 	  if(!mpu_set_sample_rate(DEFAULT_MPU_HZ))
 243:drivers/MPU6050.c **** 	  	 printf("mpu_set_sample_rate complete ......\r\n");
 244:drivers/MPU6050.c **** 	  if(!dmp_load_motion_driver_firmware())
 245:drivers/MPU6050.c **** 	  	printf("dmp_load_motion_driver_firmware complete ......\r\n");
 246:drivers/MPU6050.c **** 	  if(!dmp_set_orientation(inv_orientation_matrix_to_scalar(gyro_orientation)))
 247:drivers/MPU6050.c **** 	  	 printf("dmp_set_orientation complete ......\r\n");
 248:drivers/MPU6050.c **** 	  if(!dmp_enable_feature(DMP_FEATURE_6X_LP_QUAT | DMP_FEATURE_TAP |
 249:drivers/MPU6050.c **** 	        DMP_FEATURE_ANDROID_ORIENT | DMP_FEATURE_SEND_RAW_ACCEL | DMP_FEATURE_SEND_CAL_GYRO |
ARM GAS  /tmp/ccIxWip2.s 			page 17


 250:drivers/MPU6050.c **** 	        DMP_FEATURE_GYRO_CAL))
 251:drivers/MPU6050.c **** 	  	 printf("dmp_enable_feature complete ......\r\n");
 252:drivers/MPU6050.c **** 	  if(!dmp_set_fifo_rate(DEFAULT_MPU_HZ))
 253:drivers/MPU6050.c **** 	  	 printf("dmp_set_fifo_rate complete ......\r\n");
 254:drivers/MPU6050.c **** 	  run_self_test();
 255:drivers/MPU6050.c **** 	  if(!mpu_set_dmp_state(1))
 256:drivers/MPU6050.c **** 	  	 printf("mpu_set_dmp_state complete ......\r\n");
 257:drivers/MPU6050.c ****   }
 258:drivers/MPU6050.c **** }
 654              		.loc 1 258 0
 655 0252 0AB0     		add	sp, sp, #40
 656              		.cfi_remember_state
 657              		.cfi_def_cfa_offset 16
 658              		@ sp needed
 659 0254 70BD     		pop	{r4, r5, r6, pc}
 660              	.L63:
 661              		.cfi_restore_state
 662              	.LBB21:
 663              	.LBB22:
 664              	.LBB23:
 665              	.LBB24:
 666              		.file 2 "/home/enbin/Documents/code/STM/stm32-quadrocopter/cmsis/cmsis_gcc.h"
   1:/home/enbin/Documents/code/STM/stm32-quadrocopter/cmsis/cmsis_gcc.h **** /**************************************************************************//**
   2:/home/enbin/Documents/code/STM/stm32-quadrocopter/cmsis/cmsis_gcc.h ****  * @file     cmsis_gcc.h
   3:/home/enbin/Documents/code/STM/stm32-quadrocopter/cmsis/cmsis_gcc.h ****  * @brief    CMSIS Cortex-M Core Function/Instruction Header File
   4:/home/enbin/Documents/code/STM/stm32-quadrocopter/cmsis/cmsis_gcc.h ****  * @version  V4.30
   5:/home/enbin/Documents/code/STM/stm32-quadrocopter/cmsis/cmsis_gcc.h ****  * @date     20. October 2015
   6:/home/enbin/Documents/code/STM/stm32-quadrocopter/cmsis/cmsis_gcc.h ****  ******************************************************************************/
   7:/home/enbin/Documents/code/STM/stm32-quadrocopter/cmsis/cmsis_gcc.h **** /* Copyright (c) 2009 - 2015 ARM LIMITED
   8:/home/enbin/Documents/code/STM/stm32-quadrocopter/cmsis/cmsis_gcc.h **** 
   9:/home/enbin/Documents/code/STM/stm32-quadrocopter/cmsis/cmsis_gcc.h ****    All rights reserved.
  10:/home/enbin/Documents/code/STM/stm32-quadrocopter/cmsis/cmsis_gcc.h ****    Redistribution and use in source and binary forms, with or without
  11:/home/enbin/Documents/code/STM/stm32-quadrocopter/cmsis/cmsis_gcc.h ****    modification, are permitted provided that the following conditions are met:
  12:/home/enbin/Documents/code/STM/stm32-quadrocopter/cmsis/cmsis_gcc.h ****    - Redistributions of source code must retain the above copyright
  13:/home/enbin/Documents/code/STM/stm32-quadrocopter/cmsis/cmsis_gcc.h ****      notice, this list of conditions and the following disclaimer.
  14:/home/enbin/Documents/code/STM/stm32-quadrocopter/cmsis/cmsis_gcc.h ****    - Redistributions in binary form must reproduce the above copyright
  15:/home/enbin/Documents/code/STM/stm32-quadrocopter/cmsis/cmsis_gcc.h ****      notice, this list of conditions and the following disclaimer in the
  16:/home/enbin/Documents/code/STM/stm32-quadrocopter/cmsis/cmsis_gcc.h ****      documentation and/or other materials provided with the distribution.
  17:/home/enbin/Documents/code/STM/stm32-quadrocopter/cmsis/cmsis_gcc.h ****    - Neither the name of ARM nor the names of its contributors may be used
  18:/home/enbin/Documents/code/STM/stm32-quadrocopter/cmsis/cmsis_gcc.h ****      to endorse or promote products derived from this software without
  19:/home/enbin/Documents/code/STM/stm32-quadrocopter/cmsis/cmsis_gcc.h ****      specific prior written permission.
  20:/home/enbin/Documents/code/STM/stm32-quadrocopter/cmsis/cmsis_gcc.h ****    *
  21:/home/enbin/Documents/code/STM/stm32-quadrocopter/cmsis/cmsis_gcc.h ****    THIS SOFTWARE IS PROVIDED BY THE COPYRIGHT HOLDERS AND CONTRIBUTORS "AS IS"
  22:/home/enbin/Documents/code/STM/stm32-quadrocopter/cmsis/cmsis_gcc.h ****    AND ANY EXPRESS OR IMPLIED WARRANTIES, INCLUDING, BUT NOT LIMITED TO, THE
  23:/home/enbin/Documents/code/STM/stm32-quadrocopter/cmsis/cmsis_gcc.h ****    IMPLIED WARRANTIES OF MERCHANTABILITY AND FITNESS FOR A PARTICULAR PURPOSE
  24:/home/enbin/Documents/code/STM/stm32-quadrocopter/cmsis/cmsis_gcc.h ****    ARE DISCLAIMED. IN NO EVENT SHALL COPYRIGHT HOLDERS AND CONTRIBUTORS BE
  25:/home/enbin/Documents/code/STM/stm32-quadrocopter/cmsis/cmsis_gcc.h ****    LIABLE FOR ANY DIRECT, INDIRECT, INCIDENTAL, SPECIAL, EXEMPLARY, OR
  26:/home/enbin/Documents/code/STM/stm32-quadrocopter/cmsis/cmsis_gcc.h ****    CONSEQUENTIAL DAMAGES (INCLUDING, BUT NOT LIMITED TO, PROCUREMENT OF
  27:/home/enbin/Documents/code/STM/stm32-quadrocopter/cmsis/cmsis_gcc.h ****    SUBSTITUTE GOODS OR SERVICES; LOSS OF USE, DATA, OR PROFITS; OR BUSINESS
  28:/home/enbin/Documents/code/STM/stm32-quadrocopter/cmsis/cmsis_gcc.h ****    INTERRUPTION) HOWEVER CAUSED AND ON ANY THEORY OF LIABILITY, WHETHER IN
  29:/home/enbin/Documents/code/STM/stm32-quadrocopter/cmsis/cmsis_gcc.h ****    CONTRACT, STRICT LIABILITY, OR TORT (INCLUDING NEGLIGENCE OR OTHERWISE)
  30:/home/enbin/Documents/code/STM/stm32-quadrocopter/cmsis/cmsis_gcc.h ****    ARISING IN ANY WAY OUT OF THE USE OF THIS SOFTWARE, EVEN IF ADVISED OF THE
  31:/home/enbin/Documents/code/STM/stm32-quadrocopter/cmsis/cmsis_gcc.h ****    POSSIBILITY OF SUCH DAMAGE.
  32:/home/enbin/Documents/code/STM/stm32-quadrocopter/cmsis/cmsis_gcc.h ****    ---------------------------------------------------------------------------*/
  33:/home/enbin/Documents/code/STM/stm32-quadrocopter/cmsis/cmsis_gcc.h **** 
  34:/home/enbin/Documents/code/STM/stm32-quadrocopter/cmsis/cmsis_gcc.h **** 
  35:/home/enbin/Documents/code/STM/stm32-quadrocopter/cmsis/cmsis_gcc.h **** #ifndef __CMSIS_GCC_H
ARM GAS  /tmp/ccIxWip2.s 			page 18


  36:/home/enbin/Documents/code/STM/stm32-quadrocopter/cmsis/cmsis_gcc.h **** #define __CMSIS_GCC_H
  37:/home/enbin/Documents/code/STM/stm32-quadrocopter/cmsis/cmsis_gcc.h **** 
  38:/home/enbin/Documents/code/STM/stm32-quadrocopter/cmsis/cmsis_gcc.h **** /* ignore some GCC warnings */
  39:/home/enbin/Documents/code/STM/stm32-quadrocopter/cmsis/cmsis_gcc.h **** #if defined ( __GNUC__ )
  40:/home/enbin/Documents/code/STM/stm32-quadrocopter/cmsis/cmsis_gcc.h **** #pragma GCC diagnostic push
  41:/home/enbin/Documents/code/STM/stm32-quadrocopter/cmsis/cmsis_gcc.h **** #pragma GCC diagnostic ignored "-Wsign-conversion"
  42:/home/enbin/Documents/code/STM/stm32-quadrocopter/cmsis/cmsis_gcc.h **** #pragma GCC diagnostic ignored "-Wconversion"
  43:/home/enbin/Documents/code/STM/stm32-quadrocopter/cmsis/cmsis_gcc.h **** #pragma GCC diagnostic ignored "-Wunused-parameter"
  44:/home/enbin/Documents/code/STM/stm32-quadrocopter/cmsis/cmsis_gcc.h **** #endif
  45:/home/enbin/Documents/code/STM/stm32-quadrocopter/cmsis/cmsis_gcc.h **** 
  46:/home/enbin/Documents/code/STM/stm32-quadrocopter/cmsis/cmsis_gcc.h **** 
  47:/home/enbin/Documents/code/STM/stm32-quadrocopter/cmsis/cmsis_gcc.h **** /* ###########################  Core Function Access  ########################### */
  48:/home/enbin/Documents/code/STM/stm32-quadrocopter/cmsis/cmsis_gcc.h **** /** \ingroup  CMSIS_Core_FunctionInterface
  49:/home/enbin/Documents/code/STM/stm32-quadrocopter/cmsis/cmsis_gcc.h ****     \defgroup CMSIS_Core_RegAccFunctions CMSIS Core Register Access Functions
  50:/home/enbin/Documents/code/STM/stm32-quadrocopter/cmsis/cmsis_gcc.h ****   @{
  51:/home/enbin/Documents/code/STM/stm32-quadrocopter/cmsis/cmsis_gcc.h ****  */
  52:/home/enbin/Documents/code/STM/stm32-quadrocopter/cmsis/cmsis_gcc.h **** 
  53:/home/enbin/Documents/code/STM/stm32-quadrocopter/cmsis/cmsis_gcc.h **** /**
  54:/home/enbin/Documents/code/STM/stm32-quadrocopter/cmsis/cmsis_gcc.h ****   \brief   Enable IRQ Interrupts
  55:/home/enbin/Documents/code/STM/stm32-quadrocopter/cmsis/cmsis_gcc.h ****   \details Enables IRQ interrupts by clearing the I-bit in the CPSR.
  56:/home/enbin/Documents/code/STM/stm32-quadrocopter/cmsis/cmsis_gcc.h ****            Can only be executed in Privileged modes.
  57:/home/enbin/Documents/code/STM/stm32-quadrocopter/cmsis/cmsis_gcc.h ****  */
  58:/home/enbin/Documents/code/STM/stm32-quadrocopter/cmsis/cmsis_gcc.h **** __attribute__( ( always_inline ) ) __STATIC_INLINE void __enable_irq(void)
  59:/home/enbin/Documents/code/STM/stm32-quadrocopter/cmsis/cmsis_gcc.h **** {
  60:/home/enbin/Documents/code/STM/stm32-quadrocopter/cmsis/cmsis_gcc.h ****   __ASM volatile ("cpsie i" : : : "memory");
  61:/home/enbin/Documents/code/STM/stm32-quadrocopter/cmsis/cmsis_gcc.h **** }
  62:/home/enbin/Documents/code/STM/stm32-quadrocopter/cmsis/cmsis_gcc.h **** 
  63:/home/enbin/Documents/code/STM/stm32-quadrocopter/cmsis/cmsis_gcc.h **** 
  64:/home/enbin/Documents/code/STM/stm32-quadrocopter/cmsis/cmsis_gcc.h **** /**
  65:/home/enbin/Documents/code/STM/stm32-quadrocopter/cmsis/cmsis_gcc.h ****   \brief   Disable IRQ Interrupts
  66:/home/enbin/Documents/code/STM/stm32-quadrocopter/cmsis/cmsis_gcc.h ****   \details Disables IRQ interrupts by setting the I-bit in the CPSR.
  67:/home/enbin/Documents/code/STM/stm32-quadrocopter/cmsis/cmsis_gcc.h ****   Can only be executed in Privileged modes.
  68:/home/enbin/Documents/code/STM/stm32-quadrocopter/cmsis/cmsis_gcc.h ****  */
  69:/home/enbin/Documents/code/STM/stm32-quadrocopter/cmsis/cmsis_gcc.h **** __attribute__( ( always_inline ) ) __STATIC_INLINE void __disable_irq(void)
  70:/home/enbin/Documents/code/STM/stm32-quadrocopter/cmsis/cmsis_gcc.h **** {
  71:/home/enbin/Documents/code/STM/stm32-quadrocopter/cmsis/cmsis_gcc.h ****   __ASM volatile ("cpsid i" : : : "memory");
  72:/home/enbin/Documents/code/STM/stm32-quadrocopter/cmsis/cmsis_gcc.h **** }
  73:/home/enbin/Documents/code/STM/stm32-quadrocopter/cmsis/cmsis_gcc.h **** 
  74:/home/enbin/Documents/code/STM/stm32-quadrocopter/cmsis/cmsis_gcc.h **** 
  75:/home/enbin/Documents/code/STM/stm32-quadrocopter/cmsis/cmsis_gcc.h **** /**
  76:/home/enbin/Documents/code/STM/stm32-quadrocopter/cmsis/cmsis_gcc.h ****   \brief   Get Control Register
  77:/home/enbin/Documents/code/STM/stm32-quadrocopter/cmsis/cmsis_gcc.h ****   \details Returns the content of the Control Register.
  78:/home/enbin/Documents/code/STM/stm32-quadrocopter/cmsis/cmsis_gcc.h ****   \return               Control Register value
  79:/home/enbin/Documents/code/STM/stm32-quadrocopter/cmsis/cmsis_gcc.h ****  */
  80:/home/enbin/Documents/code/STM/stm32-quadrocopter/cmsis/cmsis_gcc.h **** __attribute__( ( always_inline ) ) __STATIC_INLINE uint32_t __get_CONTROL(void)
  81:/home/enbin/Documents/code/STM/stm32-quadrocopter/cmsis/cmsis_gcc.h **** {
  82:/home/enbin/Documents/code/STM/stm32-quadrocopter/cmsis/cmsis_gcc.h ****   uint32_t result;
  83:/home/enbin/Documents/code/STM/stm32-quadrocopter/cmsis/cmsis_gcc.h **** 
  84:/home/enbin/Documents/code/STM/stm32-quadrocopter/cmsis/cmsis_gcc.h ****   __ASM volatile ("MRS %0, control" : "=r" (result) );
  85:/home/enbin/Documents/code/STM/stm32-quadrocopter/cmsis/cmsis_gcc.h ****   return(result);
  86:/home/enbin/Documents/code/STM/stm32-quadrocopter/cmsis/cmsis_gcc.h **** }
  87:/home/enbin/Documents/code/STM/stm32-quadrocopter/cmsis/cmsis_gcc.h **** 
  88:/home/enbin/Documents/code/STM/stm32-quadrocopter/cmsis/cmsis_gcc.h **** 
  89:/home/enbin/Documents/code/STM/stm32-quadrocopter/cmsis/cmsis_gcc.h **** /**
  90:/home/enbin/Documents/code/STM/stm32-quadrocopter/cmsis/cmsis_gcc.h ****   \brief   Set Control Register
  91:/home/enbin/Documents/code/STM/stm32-quadrocopter/cmsis/cmsis_gcc.h ****   \details Writes the given value to the Control Register.
  92:/home/enbin/Documents/code/STM/stm32-quadrocopter/cmsis/cmsis_gcc.h ****   \param [in]    control  Control Register value to set
ARM GAS  /tmp/ccIxWip2.s 			page 19


  93:/home/enbin/Documents/code/STM/stm32-quadrocopter/cmsis/cmsis_gcc.h ****  */
  94:/home/enbin/Documents/code/STM/stm32-quadrocopter/cmsis/cmsis_gcc.h **** __attribute__( ( always_inline ) ) __STATIC_INLINE void __set_CONTROL(uint32_t control)
  95:/home/enbin/Documents/code/STM/stm32-quadrocopter/cmsis/cmsis_gcc.h **** {
  96:/home/enbin/Documents/code/STM/stm32-quadrocopter/cmsis/cmsis_gcc.h ****   __ASM volatile ("MSR control, %0" : : "r" (control) : "memory");
  97:/home/enbin/Documents/code/STM/stm32-quadrocopter/cmsis/cmsis_gcc.h **** }
  98:/home/enbin/Documents/code/STM/stm32-quadrocopter/cmsis/cmsis_gcc.h **** 
  99:/home/enbin/Documents/code/STM/stm32-quadrocopter/cmsis/cmsis_gcc.h **** 
 100:/home/enbin/Documents/code/STM/stm32-quadrocopter/cmsis/cmsis_gcc.h **** /**
 101:/home/enbin/Documents/code/STM/stm32-quadrocopter/cmsis/cmsis_gcc.h ****   \brief   Get IPSR Register
 102:/home/enbin/Documents/code/STM/stm32-quadrocopter/cmsis/cmsis_gcc.h ****   \details Returns the content of the IPSR Register.
 103:/home/enbin/Documents/code/STM/stm32-quadrocopter/cmsis/cmsis_gcc.h ****   \return               IPSR Register value
 104:/home/enbin/Documents/code/STM/stm32-quadrocopter/cmsis/cmsis_gcc.h ****  */
 105:/home/enbin/Documents/code/STM/stm32-quadrocopter/cmsis/cmsis_gcc.h **** __attribute__( ( always_inline ) ) __STATIC_INLINE uint32_t __get_IPSR(void)
 106:/home/enbin/Documents/code/STM/stm32-quadrocopter/cmsis/cmsis_gcc.h **** {
 107:/home/enbin/Documents/code/STM/stm32-quadrocopter/cmsis/cmsis_gcc.h ****   uint32_t result;
 108:/home/enbin/Documents/code/STM/stm32-quadrocopter/cmsis/cmsis_gcc.h **** 
 109:/home/enbin/Documents/code/STM/stm32-quadrocopter/cmsis/cmsis_gcc.h ****   __ASM volatile ("MRS %0, ipsr" : "=r" (result) );
 110:/home/enbin/Documents/code/STM/stm32-quadrocopter/cmsis/cmsis_gcc.h ****   return(result);
 111:/home/enbin/Documents/code/STM/stm32-quadrocopter/cmsis/cmsis_gcc.h **** }
 112:/home/enbin/Documents/code/STM/stm32-quadrocopter/cmsis/cmsis_gcc.h **** 
 113:/home/enbin/Documents/code/STM/stm32-quadrocopter/cmsis/cmsis_gcc.h **** 
 114:/home/enbin/Documents/code/STM/stm32-quadrocopter/cmsis/cmsis_gcc.h **** /**
 115:/home/enbin/Documents/code/STM/stm32-quadrocopter/cmsis/cmsis_gcc.h ****   \brief   Get APSR Register
 116:/home/enbin/Documents/code/STM/stm32-quadrocopter/cmsis/cmsis_gcc.h ****   \details Returns the content of the APSR Register.
 117:/home/enbin/Documents/code/STM/stm32-quadrocopter/cmsis/cmsis_gcc.h ****   \return               APSR Register value
 118:/home/enbin/Documents/code/STM/stm32-quadrocopter/cmsis/cmsis_gcc.h ****  */
 119:/home/enbin/Documents/code/STM/stm32-quadrocopter/cmsis/cmsis_gcc.h **** __attribute__( ( always_inline ) ) __STATIC_INLINE uint32_t __get_APSR(void)
 120:/home/enbin/Documents/code/STM/stm32-quadrocopter/cmsis/cmsis_gcc.h **** {
 121:/home/enbin/Documents/code/STM/stm32-quadrocopter/cmsis/cmsis_gcc.h ****   uint32_t result;
 122:/home/enbin/Documents/code/STM/stm32-quadrocopter/cmsis/cmsis_gcc.h **** 
 123:/home/enbin/Documents/code/STM/stm32-quadrocopter/cmsis/cmsis_gcc.h ****   __ASM volatile ("MRS %0, apsr" : "=r" (result) );
 124:/home/enbin/Documents/code/STM/stm32-quadrocopter/cmsis/cmsis_gcc.h ****   return(result);
 125:/home/enbin/Documents/code/STM/stm32-quadrocopter/cmsis/cmsis_gcc.h **** }
 126:/home/enbin/Documents/code/STM/stm32-quadrocopter/cmsis/cmsis_gcc.h **** 
 127:/home/enbin/Documents/code/STM/stm32-quadrocopter/cmsis/cmsis_gcc.h **** 
 128:/home/enbin/Documents/code/STM/stm32-quadrocopter/cmsis/cmsis_gcc.h **** /**
 129:/home/enbin/Documents/code/STM/stm32-quadrocopter/cmsis/cmsis_gcc.h ****   \brief   Get xPSR Register
 130:/home/enbin/Documents/code/STM/stm32-quadrocopter/cmsis/cmsis_gcc.h ****   \details Returns the content of the xPSR Register.
 131:/home/enbin/Documents/code/STM/stm32-quadrocopter/cmsis/cmsis_gcc.h **** 
 132:/home/enbin/Documents/code/STM/stm32-quadrocopter/cmsis/cmsis_gcc.h ****     \return               xPSR Register value
 133:/home/enbin/Documents/code/STM/stm32-quadrocopter/cmsis/cmsis_gcc.h ****  */
 134:/home/enbin/Documents/code/STM/stm32-quadrocopter/cmsis/cmsis_gcc.h **** __attribute__( ( always_inline ) ) __STATIC_INLINE uint32_t __get_xPSR(void)
 135:/home/enbin/Documents/code/STM/stm32-quadrocopter/cmsis/cmsis_gcc.h **** {
 136:/home/enbin/Documents/code/STM/stm32-quadrocopter/cmsis/cmsis_gcc.h ****   uint32_t result;
 137:/home/enbin/Documents/code/STM/stm32-quadrocopter/cmsis/cmsis_gcc.h **** 
 138:/home/enbin/Documents/code/STM/stm32-quadrocopter/cmsis/cmsis_gcc.h ****   __ASM volatile ("MRS %0, xpsr" : "=r" (result) );
 139:/home/enbin/Documents/code/STM/stm32-quadrocopter/cmsis/cmsis_gcc.h ****   return(result);
 140:/home/enbin/Documents/code/STM/stm32-quadrocopter/cmsis/cmsis_gcc.h **** }
 141:/home/enbin/Documents/code/STM/stm32-quadrocopter/cmsis/cmsis_gcc.h **** 
 142:/home/enbin/Documents/code/STM/stm32-quadrocopter/cmsis/cmsis_gcc.h **** 
 143:/home/enbin/Documents/code/STM/stm32-quadrocopter/cmsis/cmsis_gcc.h **** /**
 144:/home/enbin/Documents/code/STM/stm32-quadrocopter/cmsis/cmsis_gcc.h ****   \brief   Get Process Stack Pointer
 145:/home/enbin/Documents/code/STM/stm32-quadrocopter/cmsis/cmsis_gcc.h ****   \details Returns the current value of the Process Stack Pointer (PSP).
 146:/home/enbin/Documents/code/STM/stm32-quadrocopter/cmsis/cmsis_gcc.h ****   \return               PSP Register value
 147:/home/enbin/Documents/code/STM/stm32-quadrocopter/cmsis/cmsis_gcc.h ****  */
 148:/home/enbin/Documents/code/STM/stm32-quadrocopter/cmsis/cmsis_gcc.h **** __attribute__( ( always_inline ) ) __STATIC_INLINE uint32_t __get_PSP(void)
 149:/home/enbin/Documents/code/STM/stm32-quadrocopter/cmsis/cmsis_gcc.h **** {
ARM GAS  /tmp/ccIxWip2.s 			page 20


 150:/home/enbin/Documents/code/STM/stm32-quadrocopter/cmsis/cmsis_gcc.h ****   register uint32_t result;
 151:/home/enbin/Documents/code/STM/stm32-quadrocopter/cmsis/cmsis_gcc.h **** 
 152:/home/enbin/Documents/code/STM/stm32-quadrocopter/cmsis/cmsis_gcc.h ****   __ASM volatile ("MRS %0, psp\n"  : "=r" (result) );
 153:/home/enbin/Documents/code/STM/stm32-quadrocopter/cmsis/cmsis_gcc.h ****   return(result);
 154:/home/enbin/Documents/code/STM/stm32-quadrocopter/cmsis/cmsis_gcc.h **** }
 155:/home/enbin/Documents/code/STM/stm32-quadrocopter/cmsis/cmsis_gcc.h **** 
 156:/home/enbin/Documents/code/STM/stm32-quadrocopter/cmsis/cmsis_gcc.h **** 
 157:/home/enbin/Documents/code/STM/stm32-quadrocopter/cmsis/cmsis_gcc.h **** /**
 158:/home/enbin/Documents/code/STM/stm32-quadrocopter/cmsis/cmsis_gcc.h ****   \brief   Set Process Stack Pointer
 159:/home/enbin/Documents/code/STM/stm32-quadrocopter/cmsis/cmsis_gcc.h ****   \details Assigns the given value to the Process Stack Pointer (PSP).
 160:/home/enbin/Documents/code/STM/stm32-quadrocopter/cmsis/cmsis_gcc.h ****   \param [in]    topOfProcStack  Process Stack Pointer value to set
 161:/home/enbin/Documents/code/STM/stm32-quadrocopter/cmsis/cmsis_gcc.h ****  */
 162:/home/enbin/Documents/code/STM/stm32-quadrocopter/cmsis/cmsis_gcc.h **** __attribute__( ( always_inline ) ) __STATIC_INLINE void __set_PSP(uint32_t topOfProcStack)
 163:/home/enbin/Documents/code/STM/stm32-quadrocopter/cmsis/cmsis_gcc.h **** {
 164:/home/enbin/Documents/code/STM/stm32-quadrocopter/cmsis/cmsis_gcc.h ****   __ASM volatile ("MSR psp, %0\n" : : "r" (topOfProcStack) : "sp");
 165:/home/enbin/Documents/code/STM/stm32-quadrocopter/cmsis/cmsis_gcc.h **** }
 166:/home/enbin/Documents/code/STM/stm32-quadrocopter/cmsis/cmsis_gcc.h **** 
 167:/home/enbin/Documents/code/STM/stm32-quadrocopter/cmsis/cmsis_gcc.h **** 
 168:/home/enbin/Documents/code/STM/stm32-quadrocopter/cmsis/cmsis_gcc.h **** /**
 169:/home/enbin/Documents/code/STM/stm32-quadrocopter/cmsis/cmsis_gcc.h ****   \brief   Get Main Stack Pointer
 170:/home/enbin/Documents/code/STM/stm32-quadrocopter/cmsis/cmsis_gcc.h ****   \details Returns the current value of the Main Stack Pointer (MSP).
 171:/home/enbin/Documents/code/STM/stm32-quadrocopter/cmsis/cmsis_gcc.h ****   \return               MSP Register value
 172:/home/enbin/Documents/code/STM/stm32-quadrocopter/cmsis/cmsis_gcc.h ****  */
 173:/home/enbin/Documents/code/STM/stm32-quadrocopter/cmsis/cmsis_gcc.h **** __attribute__( ( always_inline ) ) __STATIC_INLINE uint32_t __get_MSP(void)
 174:/home/enbin/Documents/code/STM/stm32-quadrocopter/cmsis/cmsis_gcc.h **** {
 175:/home/enbin/Documents/code/STM/stm32-quadrocopter/cmsis/cmsis_gcc.h ****   register uint32_t result;
 176:/home/enbin/Documents/code/STM/stm32-quadrocopter/cmsis/cmsis_gcc.h **** 
 177:/home/enbin/Documents/code/STM/stm32-quadrocopter/cmsis/cmsis_gcc.h ****   __ASM volatile ("MRS %0, msp\n" : "=r" (result) );
 178:/home/enbin/Documents/code/STM/stm32-quadrocopter/cmsis/cmsis_gcc.h ****   return(result);
 179:/home/enbin/Documents/code/STM/stm32-quadrocopter/cmsis/cmsis_gcc.h **** }
 180:/home/enbin/Documents/code/STM/stm32-quadrocopter/cmsis/cmsis_gcc.h **** 
 181:/home/enbin/Documents/code/STM/stm32-quadrocopter/cmsis/cmsis_gcc.h **** 
 182:/home/enbin/Documents/code/STM/stm32-quadrocopter/cmsis/cmsis_gcc.h **** /**
 183:/home/enbin/Documents/code/STM/stm32-quadrocopter/cmsis/cmsis_gcc.h ****   \brief   Set Main Stack Pointer
 184:/home/enbin/Documents/code/STM/stm32-quadrocopter/cmsis/cmsis_gcc.h ****   \details Assigns the given value to the Main Stack Pointer (MSP).
 185:/home/enbin/Documents/code/STM/stm32-quadrocopter/cmsis/cmsis_gcc.h **** 
 186:/home/enbin/Documents/code/STM/stm32-quadrocopter/cmsis/cmsis_gcc.h ****     \param [in]    topOfMainStack  Main Stack Pointer value to set
 187:/home/enbin/Documents/code/STM/stm32-quadrocopter/cmsis/cmsis_gcc.h ****  */
 188:/home/enbin/Documents/code/STM/stm32-quadrocopter/cmsis/cmsis_gcc.h **** __attribute__( ( always_inline ) ) __STATIC_INLINE void __set_MSP(uint32_t topOfMainStack)
 189:/home/enbin/Documents/code/STM/stm32-quadrocopter/cmsis/cmsis_gcc.h **** {
 190:/home/enbin/Documents/code/STM/stm32-quadrocopter/cmsis/cmsis_gcc.h ****   __ASM volatile ("MSR msp, %0\n" : : "r" (topOfMainStack) : "sp");
 191:/home/enbin/Documents/code/STM/stm32-quadrocopter/cmsis/cmsis_gcc.h **** }
 192:/home/enbin/Documents/code/STM/stm32-quadrocopter/cmsis/cmsis_gcc.h **** 
 193:/home/enbin/Documents/code/STM/stm32-quadrocopter/cmsis/cmsis_gcc.h **** 
 194:/home/enbin/Documents/code/STM/stm32-quadrocopter/cmsis/cmsis_gcc.h **** /**
 195:/home/enbin/Documents/code/STM/stm32-quadrocopter/cmsis/cmsis_gcc.h ****   \brief   Get Priority Mask
 196:/home/enbin/Documents/code/STM/stm32-quadrocopter/cmsis/cmsis_gcc.h ****   \details Returns the current state of the priority mask bit from the Priority Mask Register.
 197:/home/enbin/Documents/code/STM/stm32-quadrocopter/cmsis/cmsis_gcc.h ****   \return               Priority Mask value
 198:/home/enbin/Documents/code/STM/stm32-quadrocopter/cmsis/cmsis_gcc.h ****  */
 199:/home/enbin/Documents/code/STM/stm32-quadrocopter/cmsis/cmsis_gcc.h **** __attribute__( ( always_inline ) ) __STATIC_INLINE uint32_t __get_PRIMASK(void)
 200:/home/enbin/Documents/code/STM/stm32-quadrocopter/cmsis/cmsis_gcc.h **** {
 201:/home/enbin/Documents/code/STM/stm32-quadrocopter/cmsis/cmsis_gcc.h ****   uint32_t result;
 202:/home/enbin/Documents/code/STM/stm32-quadrocopter/cmsis/cmsis_gcc.h **** 
 203:/home/enbin/Documents/code/STM/stm32-quadrocopter/cmsis/cmsis_gcc.h ****   __ASM volatile ("MRS %0, primask" : "=r" (result) );
 204:/home/enbin/Documents/code/STM/stm32-quadrocopter/cmsis/cmsis_gcc.h ****   return(result);
 205:/home/enbin/Documents/code/STM/stm32-quadrocopter/cmsis/cmsis_gcc.h **** }
 206:/home/enbin/Documents/code/STM/stm32-quadrocopter/cmsis/cmsis_gcc.h **** 
ARM GAS  /tmp/ccIxWip2.s 			page 21


 207:/home/enbin/Documents/code/STM/stm32-quadrocopter/cmsis/cmsis_gcc.h **** 
 208:/home/enbin/Documents/code/STM/stm32-quadrocopter/cmsis/cmsis_gcc.h **** /**
 209:/home/enbin/Documents/code/STM/stm32-quadrocopter/cmsis/cmsis_gcc.h ****   \brief   Set Priority Mask
 210:/home/enbin/Documents/code/STM/stm32-quadrocopter/cmsis/cmsis_gcc.h ****   \details Assigns the given value to the Priority Mask Register.
 211:/home/enbin/Documents/code/STM/stm32-quadrocopter/cmsis/cmsis_gcc.h ****   \param [in]    priMask  Priority Mask
 212:/home/enbin/Documents/code/STM/stm32-quadrocopter/cmsis/cmsis_gcc.h ****  */
 213:/home/enbin/Documents/code/STM/stm32-quadrocopter/cmsis/cmsis_gcc.h **** __attribute__( ( always_inline ) ) __STATIC_INLINE void __set_PRIMASK(uint32_t priMask)
 214:/home/enbin/Documents/code/STM/stm32-quadrocopter/cmsis/cmsis_gcc.h **** {
 215:/home/enbin/Documents/code/STM/stm32-quadrocopter/cmsis/cmsis_gcc.h ****   __ASM volatile ("MSR primask, %0" : : "r" (priMask) : "memory");
 216:/home/enbin/Documents/code/STM/stm32-quadrocopter/cmsis/cmsis_gcc.h **** }
 217:/home/enbin/Documents/code/STM/stm32-quadrocopter/cmsis/cmsis_gcc.h **** 
 218:/home/enbin/Documents/code/STM/stm32-quadrocopter/cmsis/cmsis_gcc.h **** 
 219:/home/enbin/Documents/code/STM/stm32-quadrocopter/cmsis/cmsis_gcc.h **** #if       (__CORTEX_M >= 0x03U)
 220:/home/enbin/Documents/code/STM/stm32-quadrocopter/cmsis/cmsis_gcc.h **** 
 221:/home/enbin/Documents/code/STM/stm32-quadrocopter/cmsis/cmsis_gcc.h **** /**
 222:/home/enbin/Documents/code/STM/stm32-quadrocopter/cmsis/cmsis_gcc.h ****   \brief   Enable FIQ
 223:/home/enbin/Documents/code/STM/stm32-quadrocopter/cmsis/cmsis_gcc.h ****   \details Enables FIQ interrupts by clearing the F-bit in the CPSR.
 224:/home/enbin/Documents/code/STM/stm32-quadrocopter/cmsis/cmsis_gcc.h ****            Can only be executed in Privileged modes.
 225:/home/enbin/Documents/code/STM/stm32-quadrocopter/cmsis/cmsis_gcc.h ****  */
 226:/home/enbin/Documents/code/STM/stm32-quadrocopter/cmsis/cmsis_gcc.h **** __attribute__( ( always_inline ) ) __STATIC_INLINE void __enable_fault_irq(void)
 227:/home/enbin/Documents/code/STM/stm32-quadrocopter/cmsis/cmsis_gcc.h **** {
 228:/home/enbin/Documents/code/STM/stm32-quadrocopter/cmsis/cmsis_gcc.h ****   __ASM volatile ("cpsie f" : : : "memory");
 229:/home/enbin/Documents/code/STM/stm32-quadrocopter/cmsis/cmsis_gcc.h **** }
 230:/home/enbin/Documents/code/STM/stm32-quadrocopter/cmsis/cmsis_gcc.h **** 
 231:/home/enbin/Documents/code/STM/stm32-quadrocopter/cmsis/cmsis_gcc.h **** 
 232:/home/enbin/Documents/code/STM/stm32-quadrocopter/cmsis/cmsis_gcc.h **** /**
 233:/home/enbin/Documents/code/STM/stm32-quadrocopter/cmsis/cmsis_gcc.h ****   \brief   Disable FIQ
 234:/home/enbin/Documents/code/STM/stm32-quadrocopter/cmsis/cmsis_gcc.h ****   \details Disables FIQ interrupts by setting the F-bit in the CPSR.
 235:/home/enbin/Documents/code/STM/stm32-quadrocopter/cmsis/cmsis_gcc.h ****            Can only be executed in Privileged modes.
 236:/home/enbin/Documents/code/STM/stm32-quadrocopter/cmsis/cmsis_gcc.h ****  */
 237:/home/enbin/Documents/code/STM/stm32-quadrocopter/cmsis/cmsis_gcc.h **** __attribute__( ( always_inline ) ) __STATIC_INLINE void __disable_fault_irq(void)
 238:/home/enbin/Documents/code/STM/stm32-quadrocopter/cmsis/cmsis_gcc.h **** {
 239:/home/enbin/Documents/code/STM/stm32-quadrocopter/cmsis/cmsis_gcc.h ****   __ASM volatile ("cpsid f" : : : "memory");
 240:/home/enbin/Documents/code/STM/stm32-quadrocopter/cmsis/cmsis_gcc.h **** }
 241:/home/enbin/Documents/code/STM/stm32-quadrocopter/cmsis/cmsis_gcc.h **** 
 242:/home/enbin/Documents/code/STM/stm32-quadrocopter/cmsis/cmsis_gcc.h **** 
 243:/home/enbin/Documents/code/STM/stm32-quadrocopter/cmsis/cmsis_gcc.h **** /**
 244:/home/enbin/Documents/code/STM/stm32-quadrocopter/cmsis/cmsis_gcc.h ****   \brief   Get Base Priority
 245:/home/enbin/Documents/code/STM/stm32-quadrocopter/cmsis/cmsis_gcc.h ****   \details Returns the current value of the Base Priority register.
 246:/home/enbin/Documents/code/STM/stm32-quadrocopter/cmsis/cmsis_gcc.h ****   \return               Base Priority register value
 247:/home/enbin/Documents/code/STM/stm32-quadrocopter/cmsis/cmsis_gcc.h ****  */
 248:/home/enbin/Documents/code/STM/stm32-quadrocopter/cmsis/cmsis_gcc.h **** __attribute__( ( always_inline ) ) __STATIC_INLINE uint32_t __get_BASEPRI(void)
 249:/home/enbin/Documents/code/STM/stm32-quadrocopter/cmsis/cmsis_gcc.h **** {
 250:/home/enbin/Documents/code/STM/stm32-quadrocopter/cmsis/cmsis_gcc.h ****   uint32_t result;
 251:/home/enbin/Documents/code/STM/stm32-quadrocopter/cmsis/cmsis_gcc.h **** 
 252:/home/enbin/Documents/code/STM/stm32-quadrocopter/cmsis/cmsis_gcc.h ****   __ASM volatile ("MRS %0, basepri" : "=r" (result) );
 253:/home/enbin/Documents/code/STM/stm32-quadrocopter/cmsis/cmsis_gcc.h ****   return(result);
 254:/home/enbin/Documents/code/STM/stm32-quadrocopter/cmsis/cmsis_gcc.h **** }
 255:/home/enbin/Documents/code/STM/stm32-quadrocopter/cmsis/cmsis_gcc.h **** 
 256:/home/enbin/Documents/code/STM/stm32-quadrocopter/cmsis/cmsis_gcc.h **** 
 257:/home/enbin/Documents/code/STM/stm32-quadrocopter/cmsis/cmsis_gcc.h **** /**
 258:/home/enbin/Documents/code/STM/stm32-quadrocopter/cmsis/cmsis_gcc.h ****   \brief   Set Base Priority
 259:/home/enbin/Documents/code/STM/stm32-quadrocopter/cmsis/cmsis_gcc.h ****   \details Assigns the given value to the Base Priority register.
 260:/home/enbin/Documents/code/STM/stm32-quadrocopter/cmsis/cmsis_gcc.h ****   \param [in]    basePri  Base Priority value to set
 261:/home/enbin/Documents/code/STM/stm32-quadrocopter/cmsis/cmsis_gcc.h ****  */
 262:/home/enbin/Documents/code/STM/stm32-quadrocopter/cmsis/cmsis_gcc.h **** __attribute__( ( always_inline ) ) __STATIC_INLINE void __set_BASEPRI(uint32_t value)
 263:/home/enbin/Documents/code/STM/stm32-quadrocopter/cmsis/cmsis_gcc.h **** {
ARM GAS  /tmp/ccIxWip2.s 			page 22


 264:/home/enbin/Documents/code/STM/stm32-quadrocopter/cmsis/cmsis_gcc.h ****   __ASM volatile ("MSR basepri, %0" : : "r" (value) : "memory");
 265:/home/enbin/Documents/code/STM/stm32-quadrocopter/cmsis/cmsis_gcc.h **** }
 266:/home/enbin/Documents/code/STM/stm32-quadrocopter/cmsis/cmsis_gcc.h **** 
 267:/home/enbin/Documents/code/STM/stm32-quadrocopter/cmsis/cmsis_gcc.h **** 
 268:/home/enbin/Documents/code/STM/stm32-quadrocopter/cmsis/cmsis_gcc.h **** /**
 269:/home/enbin/Documents/code/STM/stm32-quadrocopter/cmsis/cmsis_gcc.h ****   \brief   Set Base Priority with condition
 270:/home/enbin/Documents/code/STM/stm32-quadrocopter/cmsis/cmsis_gcc.h ****   \details Assigns the given value to the Base Priority register only if BASEPRI masking is disable
 271:/home/enbin/Documents/code/STM/stm32-quadrocopter/cmsis/cmsis_gcc.h ****            or the new value increases the BASEPRI priority level.
 272:/home/enbin/Documents/code/STM/stm32-quadrocopter/cmsis/cmsis_gcc.h ****   \param [in]    basePri  Base Priority value to set
 273:/home/enbin/Documents/code/STM/stm32-quadrocopter/cmsis/cmsis_gcc.h ****  */
 274:/home/enbin/Documents/code/STM/stm32-quadrocopter/cmsis/cmsis_gcc.h **** __attribute__( ( always_inline ) ) __STATIC_INLINE void __set_BASEPRI_MAX(uint32_t value)
 275:/home/enbin/Documents/code/STM/stm32-quadrocopter/cmsis/cmsis_gcc.h **** {
 276:/home/enbin/Documents/code/STM/stm32-quadrocopter/cmsis/cmsis_gcc.h ****   __ASM volatile ("MSR basepri_max, %0" : : "r" (value) : "memory");
 277:/home/enbin/Documents/code/STM/stm32-quadrocopter/cmsis/cmsis_gcc.h **** }
 278:/home/enbin/Documents/code/STM/stm32-quadrocopter/cmsis/cmsis_gcc.h **** 
 279:/home/enbin/Documents/code/STM/stm32-quadrocopter/cmsis/cmsis_gcc.h **** 
 280:/home/enbin/Documents/code/STM/stm32-quadrocopter/cmsis/cmsis_gcc.h **** /**
 281:/home/enbin/Documents/code/STM/stm32-quadrocopter/cmsis/cmsis_gcc.h ****   \brief   Get Fault Mask
 282:/home/enbin/Documents/code/STM/stm32-quadrocopter/cmsis/cmsis_gcc.h ****   \details Returns the current value of the Fault Mask register.
 283:/home/enbin/Documents/code/STM/stm32-quadrocopter/cmsis/cmsis_gcc.h ****   \return               Fault Mask register value
 284:/home/enbin/Documents/code/STM/stm32-quadrocopter/cmsis/cmsis_gcc.h ****  */
 285:/home/enbin/Documents/code/STM/stm32-quadrocopter/cmsis/cmsis_gcc.h **** __attribute__( ( always_inline ) ) __STATIC_INLINE uint32_t __get_FAULTMASK(void)
 286:/home/enbin/Documents/code/STM/stm32-quadrocopter/cmsis/cmsis_gcc.h **** {
 287:/home/enbin/Documents/code/STM/stm32-quadrocopter/cmsis/cmsis_gcc.h ****   uint32_t result;
 288:/home/enbin/Documents/code/STM/stm32-quadrocopter/cmsis/cmsis_gcc.h **** 
 289:/home/enbin/Documents/code/STM/stm32-quadrocopter/cmsis/cmsis_gcc.h ****   __ASM volatile ("MRS %0, faultmask" : "=r" (result) );
 290:/home/enbin/Documents/code/STM/stm32-quadrocopter/cmsis/cmsis_gcc.h ****   return(result);
 291:/home/enbin/Documents/code/STM/stm32-quadrocopter/cmsis/cmsis_gcc.h **** }
 292:/home/enbin/Documents/code/STM/stm32-quadrocopter/cmsis/cmsis_gcc.h **** 
 293:/home/enbin/Documents/code/STM/stm32-quadrocopter/cmsis/cmsis_gcc.h **** 
 294:/home/enbin/Documents/code/STM/stm32-quadrocopter/cmsis/cmsis_gcc.h **** /**
 295:/home/enbin/Documents/code/STM/stm32-quadrocopter/cmsis/cmsis_gcc.h ****   \brief   Set Fault Mask
 296:/home/enbin/Documents/code/STM/stm32-quadrocopter/cmsis/cmsis_gcc.h ****   \details Assigns the given value to the Fault Mask register.
 297:/home/enbin/Documents/code/STM/stm32-quadrocopter/cmsis/cmsis_gcc.h ****   \param [in]    faultMask  Fault Mask value to set
 298:/home/enbin/Documents/code/STM/stm32-quadrocopter/cmsis/cmsis_gcc.h ****  */
 299:/home/enbin/Documents/code/STM/stm32-quadrocopter/cmsis/cmsis_gcc.h **** __attribute__( ( always_inline ) ) __STATIC_INLINE void __set_FAULTMASK(uint32_t faultMask)
 300:/home/enbin/Documents/code/STM/stm32-quadrocopter/cmsis/cmsis_gcc.h **** {
 301:/home/enbin/Documents/code/STM/stm32-quadrocopter/cmsis/cmsis_gcc.h ****   __ASM volatile ("MSR faultmask, %0" : : "r" (faultMask) : "memory");
 302:/home/enbin/Documents/code/STM/stm32-quadrocopter/cmsis/cmsis_gcc.h **** }
 303:/home/enbin/Documents/code/STM/stm32-quadrocopter/cmsis/cmsis_gcc.h **** 
 304:/home/enbin/Documents/code/STM/stm32-quadrocopter/cmsis/cmsis_gcc.h **** #endif /* (__CORTEX_M >= 0x03U) */
 305:/home/enbin/Documents/code/STM/stm32-quadrocopter/cmsis/cmsis_gcc.h **** 
 306:/home/enbin/Documents/code/STM/stm32-quadrocopter/cmsis/cmsis_gcc.h **** 
 307:/home/enbin/Documents/code/STM/stm32-quadrocopter/cmsis/cmsis_gcc.h **** #if       (__CORTEX_M == 0x04U) || (__CORTEX_M == 0x07U)
 308:/home/enbin/Documents/code/STM/stm32-quadrocopter/cmsis/cmsis_gcc.h **** 
 309:/home/enbin/Documents/code/STM/stm32-quadrocopter/cmsis/cmsis_gcc.h **** /**
 310:/home/enbin/Documents/code/STM/stm32-quadrocopter/cmsis/cmsis_gcc.h ****   \brief   Get FPSCR
 311:/home/enbin/Documents/code/STM/stm32-quadrocopter/cmsis/cmsis_gcc.h ****   \details Returns the current value of the Floating Point Status/Control register.
 312:/home/enbin/Documents/code/STM/stm32-quadrocopter/cmsis/cmsis_gcc.h ****   \return               Floating Point Status/Control register value
 313:/home/enbin/Documents/code/STM/stm32-quadrocopter/cmsis/cmsis_gcc.h ****  */
 314:/home/enbin/Documents/code/STM/stm32-quadrocopter/cmsis/cmsis_gcc.h **** __attribute__( ( always_inline ) ) __STATIC_INLINE uint32_t __get_FPSCR(void)
 315:/home/enbin/Documents/code/STM/stm32-quadrocopter/cmsis/cmsis_gcc.h **** {
 316:/home/enbin/Documents/code/STM/stm32-quadrocopter/cmsis/cmsis_gcc.h **** #if (__FPU_PRESENT == 1U) && (__FPU_USED == 1U)
 317:/home/enbin/Documents/code/STM/stm32-quadrocopter/cmsis/cmsis_gcc.h ****   uint32_t result;
 318:/home/enbin/Documents/code/STM/stm32-quadrocopter/cmsis/cmsis_gcc.h **** 
 319:/home/enbin/Documents/code/STM/stm32-quadrocopter/cmsis/cmsis_gcc.h ****   /* Empty asm statement works as a scheduling barrier */
 320:/home/enbin/Documents/code/STM/stm32-quadrocopter/cmsis/cmsis_gcc.h ****   __ASM volatile ("");
ARM GAS  /tmp/ccIxWip2.s 			page 23


 321:/home/enbin/Documents/code/STM/stm32-quadrocopter/cmsis/cmsis_gcc.h ****   __ASM volatile ("VMRS %0, fpscr" : "=r" (result) );
 322:/home/enbin/Documents/code/STM/stm32-quadrocopter/cmsis/cmsis_gcc.h ****   __ASM volatile ("");
 323:/home/enbin/Documents/code/STM/stm32-quadrocopter/cmsis/cmsis_gcc.h ****   return(result);
 324:/home/enbin/Documents/code/STM/stm32-quadrocopter/cmsis/cmsis_gcc.h **** #else
 325:/home/enbin/Documents/code/STM/stm32-quadrocopter/cmsis/cmsis_gcc.h ****    return(0);
 326:/home/enbin/Documents/code/STM/stm32-quadrocopter/cmsis/cmsis_gcc.h **** #endif
 327:/home/enbin/Documents/code/STM/stm32-quadrocopter/cmsis/cmsis_gcc.h **** }
 328:/home/enbin/Documents/code/STM/stm32-quadrocopter/cmsis/cmsis_gcc.h **** 
 329:/home/enbin/Documents/code/STM/stm32-quadrocopter/cmsis/cmsis_gcc.h **** 
 330:/home/enbin/Documents/code/STM/stm32-quadrocopter/cmsis/cmsis_gcc.h **** /**
 331:/home/enbin/Documents/code/STM/stm32-quadrocopter/cmsis/cmsis_gcc.h ****   \brief   Set FPSCR
 332:/home/enbin/Documents/code/STM/stm32-quadrocopter/cmsis/cmsis_gcc.h ****   \details Assigns the given value to the Floating Point Status/Control register.
 333:/home/enbin/Documents/code/STM/stm32-quadrocopter/cmsis/cmsis_gcc.h ****   \param [in]    fpscr  Floating Point Status/Control value to set
 334:/home/enbin/Documents/code/STM/stm32-quadrocopter/cmsis/cmsis_gcc.h ****  */
 335:/home/enbin/Documents/code/STM/stm32-quadrocopter/cmsis/cmsis_gcc.h **** __attribute__( ( always_inline ) ) __STATIC_INLINE void __set_FPSCR(uint32_t fpscr)
 336:/home/enbin/Documents/code/STM/stm32-quadrocopter/cmsis/cmsis_gcc.h **** {
 337:/home/enbin/Documents/code/STM/stm32-quadrocopter/cmsis/cmsis_gcc.h **** #if (__FPU_PRESENT == 1U) && (__FPU_USED == 1U)
 338:/home/enbin/Documents/code/STM/stm32-quadrocopter/cmsis/cmsis_gcc.h ****   /* Empty asm statement works as a scheduling barrier */
 339:/home/enbin/Documents/code/STM/stm32-quadrocopter/cmsis/cmsis_gcc.h ****   __ASM volatile ("");
 340:/home/enbin/Documents/code/STM/stm32-quadrocopter/cmsis/cmsis_gcc.h ****   __ASM volatile ("VMSR fpscr, %0" : : "r" (fpscr) : "vfpcc");
 341:/home/enbin/Documents/code/STM/stm32-quadrocopter/cmsis/cmsis_gcc.h ****   __ASM volatile ("");
 342:/home/enbin/Documents/code/STM/stm32-quadrocopter/cmsis/cmsis_gcc.h **** #endif
 343:/home/enbin/Documents/code/STM/stm32-quadrocopter/cmsis/cmsis_gcc.h **** }
 344:/home/enbin/Documents/code/STM/stm32-quadrocopter/cmsis/cmsis_gcc.h **** 
 345:/home/enbin/Documents/code/STM/stm32-quadrocopter/cmsis/cmsis_gcc.h **** #endif /* (__CORTEX_M == 0x04U) || (__CORTEX_M == 0x07U) */
 346:/home/enbin/Documents/code/STM/stm32-quadrocopter/cmsis/cmsis_gcc.h **** 
 347:/home/enbin/Documents/code/STM/stm32-quadrocopter/cmsis/cmsis_gcc.h **** 
 348:/home/enbin/Documents/code/STM/stm32-quadrocopter/cmsis/cmsis_gcc.h **** 
 349:/home/enbin/Documents/code/STM/stm32-quadrocopter/cmsis/cmsis_gcc.h **** /*@} end of CMSIS_Core_RegAccFunctions */
 350:/home/enbin/Documents/code/STM/stm32-quadrocopter/cmsis/cmsis_gcc.h **** 
 351:/home/enbin/Documents/code/STM/stm32-quadrocopter/cmsis/cmsis_gcc.h **** 
 352:/home/enbin/Documents/code/STM/stm32-quadrocopter/cmsis/cmsis_gcc.h **** /* ##########################  Core Instruction Access  ######################### */
 353:/home/enbin/Documents/code/STM/stm32-quadrocopter/cmsis/cmsis_gcc.h **** /** \defgroup CMSIS_Core_InstructionInterface CMSIS Core Instruction Interface
 354:/home/enbin/Documents/code/STM/stm32-quadrocopter/cmsis/cmsis_gcc.h ****   Access to dedicated instructions
 355:/home/enbin/Documents/code/STM/stm32-quadrocopter/cmsis/cmsis_gcc.h ****   @{
 356:/home/enbin/Documents/code/STM/stm32-quadrocopter/cmsis/cmsis_gcc.h **** */
 357:/home/enbin/Documents/code/STM/stm32-quadrocopter/cmsis/cmsis_gcc.h **** 
 358:/home/enbin/Documents/code/STM/stm32-quadrocopter/cmsis/cmsis_gcc.h **** /* Define macros for porting to both thumb1 and thumb2.
 359:/home/enbin/Documents/code/STM/stm32-quadrocopter/cmsis/cmsis_gcc.h ****  * For thumb1, use low register (r0-r7), specified by constraint "l"
 360:/home/enbin/Documents/code/STM/stm32-quadrocopter/cmsis/cmsis_gcc.h ****  * Otherwise, use general registers, specified by constraint "r" */
 361:/home/enbin/Documents/code/STM/stm32-quadrocopter/cmsis/cmsis_gcc.h **** #if defined (__thumb__) && !defined (__thumb2__)
 362:/home/enbin/Documents/code/STM/stm32-quadrocopter/cmsis/cmsis_gcc.h **** #define __CMSIS_GCC_OUT_REG(r) "=l" (r)
 363:/home/enbin/Documents/code/STM/stm32-quadrocopter/cmsis/cmsis_gcc.h **** #define __CMSIS_GCC_USE_REG(r) "l" (r)
 364:/home/enbin/Documents/code/STM/stm32-quadrocopter/cmsis/cmsis_gcc.h **** #else
 365:/home/enbin/Documents/code/STM/stm32-quadrocopter/cmsis/cmsis_gcc.h **** #define __CMSIS_GCC_OUT_REG(r) "=r" (r)
 366:/home/enbin/Documents/code/STM/stm32-quadrocopter/cmsis/cmsis_gcc.h **** #define __CMSIS_GCC_USE_REG(r) "r" (r)
 367:/home/enbin/Documents/code/STM/stm32-quadrocopter/cmsis/cmsis_gcc.h **** #endif
 368:/home/enbin/Documents/code/STM/stm32-quadrocopter/cmsis/cmsis_gcc.h **** 
 369:/home/enbin/Documents/code/STM/stm32-quadrocopter/cmsis/cmsis_gcc.h **** /**
 370:/home/enbin/Documents/code/STM/stm32-quadrocopter/cmsis/cmsis_gcc.h ****   \brief   No Operation
 371:/home/enbin/Documents/code/STM/stm32-quadrocopter/cmsis/cmsis_gcc.h ****   \details No Operation does nothing. This instruction can be used for code alignment purposes.
 372:/home/enbin/Documents/code/STM/stm32-quadrocopter/cmsis/cmsis_gcc.h ****  */
 373:/home/enbin/Documents/code/STM/stm32-quadrocopter/cmsis/cmsis_gcc.h **** __attribute__((always_inline)) __STATIC_INLINE void __NOP(void)
 374:/home/enbin/Documents/code/STM/stm32-quadrocopter/cmsis/cmsis_gcc.h **** {
 375:/home/enbin/Documents/code/STM/stm32-quadrocopter/cmsis/cmsis_gcc.h ****   __ASM volatile ("nop");
 376:/home/enbin/Documents/code/STM/stm32-quadrocopter/cmsis/cmsis_gcc.h **** }
 377:/home/enbin/Documents/code/STM/stm32-quadrocopter/cmsis/cmsis_gcc.h **** 
ARM GAS  /tmp/ccIxWip2.s 			page 24


 378:/home/enbin/Documents/code/STM/stm32-quadrocopter/cmsis/cmsis_gcc.h **** 
 379:/home/enbin/Documents/code/STM/stm32-quadrocopter/cmsis/cmsis_gcc.h **** /**
 380:/home/enbin/Documents/code/STM/stm32-quadrocopter/cmsis/cmsis_gcc.h ****   \brief   Wait For Interrupt
 381:/home/enbin/Documents/code/STM/stm32-quadrocopter/cmsis/cmsis_gcc.h ****   \details Wait For Interrupt is a hint instruction that suspends execution until one of a number o
 382:/home/enbin/Documents/code/STM/stm32-quadrocopter/cmsis/cmsis_gcc.h ****  */
 383:/home/enbin/Documents/code/STM/stm32-quadrocopter/cmsis/cmsis_gcc.h **** __attribute__((always_inline)) __STATIC_INLINE void __WFI(void)
 384:/home/enbin/Documents/code/STM/stm32-quadrocopter/cmsis/cmsis_gcc.h **** {
 385:/home/enbin/Documents/code/STM/stm32-quadrocopter/cmsis/cmsis_gcc.h ****   __ASM volatile ("wfi");
 386:/home/enbin/Documents/code/STM/stm32-quadrocopter/cmsis/cmsis_gcc.h **** }
 387:/home/enbin/Documents/code/STM/stm32-quadrocopter/cmsis/cmsis_gcc.h **** 
 388:/home/enbin/Documents/code/STM/stm32-quadrocopter/cmsis/cmsis_gcc.h **** 
 389:/home/enbin/Documents/code/STM/stm32-quadrocopter/cmsis/cmsis_gcc.h **** /**
 390:/home/enbin/Documents/code/STM/stm32-quadrocopter/cmsis/cmsis_gcc.h ****   \brief   Wait For Event
 391:/home/enbin/Documents/code/STM/stm32-quadrocopter/cmsis/cmsis_gcc.h ****   \details Wait For Event is a hint instruction that permits the processor to enter
 392:/home/enbin/Documents/code/STM/stm32-quadrocopter/cmsis/cmsis_gcc.h ****     a low-power state until one of a number of events occurs.
 393:/home/enbin/Documents/code/STM/stm32-quadrocopter/cmsis/cmsis_gcc.h ****  */
 394:/home/enbin/Documents/code/STM/stm32-quadrocopter/cmsis/cmsis_gcc.h **** __attribute__((always_inline)) __STATIC_INLINE void __WFE(void)
 395:/home/enbin/Documents/code/STM/stm32-quadrocopter/cmsis/cmsis_gcc.h **** {
 396:/home/enbin/Documents/code/STM/stm32-quadrocopter/cmsis/cmsis_gcc.h ****   __ASM volatile ("wfe");
 397:/home/enbin/Documents/code/STM/stm32-quadrocopter/cmsis/cmsis_gcc.h **** }
 398:/home/enbin/Documents/code/STM/stm32-quadrocopter/cmsis/cmsis_gcc.h **** 
 399:/home/enbin/Documents/code/STM/stm32-quadrocopter/cmsis/cmsis_gcc.h **** 
 400:/home/enbin/Documents/code/STM/stm32-quadrocopter/cmsis/cmsis_gcc.h **** /**
 401:/home/enbin/Documents/code/STM/stm32-quadrocopter/cmsis/cmsis_gcc.h ****   \brief   Send Event
 402:/home/enbin/Documents/code/STM/stm32-quadrocopter/cmsis/cmsis_gcc.h ****   \details Send Event is a hint instruction. It causes an event to be signaled to the CPU.
 403:/home/enbin/Documents/code/STM/stm32-quadrocopter/cmsis/cmsis_gcc.h ****  */
 404:/home/enbin/Documents/code/STM/stm32-quadrocopter/cmsis/cmsis_gcc.h **** __attribute__((always_inline)) __STATIC_INLINE void __SEV(void)
 405:/home/enbin/Documents/code/STM/stm32-quadrocopter/cmsis/cmsis_gcc.h **** {
 406:/home/enbin/Documents/code/STM/stm32-quadrocopter/cmsis/cmsis_gcc.h ****   __ASM volatile ("sev");
 407:/home/enbin/Documents/code/STM/stm32-quadrocopter/cmsis/cmsis_gcc.h **** }
 408:/home/enbin/Documents/code/STM/stm32-quadrocopter/cmsis/cmsis_gcc.h **** 
 409:/home/enbin/Documents/code/STM/stm32-quadrocopter/cmsis/cmsis_gcc.h **** 
 410:/home/enbin/Documents/code/STM/stm32-quadrocopter/cmsis/cmsis_gcc.h **** /**
 411:/home/enbin/Documents/code/STM/stm32-quadrocopter/cmsis/cmsis_gcc.h ****   \brief   Instruction Synchronization Barrier
 412:/home/enbin/Documents/code/STM/stm32-quadrocopter/cmsis/cmsis_gcc.h ****   \details Instruction Synchronization Barrier flushes the pipeline in the processor,
 413:/home/enbin/Documents/code/STM/stm32-quadrocopter/cmsis/cmsis_gcc.h ****            so that all instructions following the ISB are fetched from cache or memory,
 414:/home/enbin/Documents/code/STM/stm32-quadrocopter/cmsis/cmsis_gcc.h ****            after the instruction has been completed.
 415:/home/enbin/Documents/code/STM/stm32-quadrocopter/cmsis/cmsis_gcc.h ****  */
 416:/home/enbin/Documents/code/STM/stm32-quadrocopter/cmsis/cmsis_gcc.h **** __attribute__((always_inline)) __STATIC_INLINE void __ISB(void)
 417:/home/enbin/Documents/code/STM/stm32-quadrocopter/cmsis/cmsis_gcc.h **** {
 418:/home/enbin/Documents/code/STM/stm32-quadrocopter/cmsis/cmsis_gcc.h ****   __ASM volatile ("isb 0xF":::"memory");
 419:/home/enbin/Documents/code/STM/stm32-quadrocopter/cmsis/cmsis_gcc.h **** }
 420:/home/enbin/Documents/code/STM/stm32-quadrocopter/cmsis/cmsis_gcc.h **** 
 421:/home/enbin/Documents/code/STM/stm32-quadrocopter/cmsis/cmsis_gcc.h **** 
 422:/home/enbin/Documents/code/STM/stm32-quadrocopter/cmsis/cmsis_gcc.h **** /**
 423:/home/enbin/Documents/code/STM/stm32-quadrocopter/cmsis/cmsis_gcc.h ****   \brief   Data Synchronization Barrier
 424:/home/enbin/Documents/code/STM/stm32-quadrocopter/cmsis/cmsis_gcc.h ****   \details Acts as a special kind of Data Memory Barrier.
 425:/home/enbin/Documents/code/STM/stm32-quadrocopter/cmsis/cmsis_gcc.h ****            It completes when all explicit memory accesses before this instruction complete.
 426:/home/enbin/Documents/code/STM/stm32-quadrocopter/cmsis/cmsis_gcc.h ****  */
 427:/home/enbin/Documents/code/STM/stm32-quadrocopter/cmsis/cmsis_gcc.h **** __attribute__((always_inline)) __STATIC_INLINE void __DSB(void)
 428:/home/enbin/Documents/code/STM/stm32-quadrocopter/cmsis/cmsis_gcc.h **** {
 429:/home/enbin/Documents/code/STM/stm32-quadrocopter/cmsis/cmsis_gcc.h ****   __ASM volatile ("dsb 0xF":::"memory");
 667              		.loc 2 429 0
 668              		.syntax unified
 669              	@ 429 "/home/enbin/Documents/code/STM/stm32-quadrocopter/cmsis/cmsis_gcc.h" 1
 670 0256 BFF34F8F 		dsb 0xF
 671              	@ 0 "" 2
ARM GAS  /tmp/ccIxWip2.s 			page 25


 672              		.thumb
 673              		.syntax unified
 674              	.LBE24:
 675              	.LBE23:
 676              		.file 3 "/home/enbin/Documents/code/STM/stm32-quadrocopter/cmsis/core_cm3.h"
   1:/home/enbin/Documents/code/STM/stm32-quadrocopter/cmsis/core_cm3.h **** /**************************************************************************//**
   2:/home/enbin/Documents/code/STM/stm32-quadrocopter/cmsis/core_cm3.h ****  * @file     core_cm3.h
   3:/home/enbin/Documents/code/STM/stm32-quadrocopter/cmsis/core_cm3.h ****  * @brief    CMSIS Cortex-M3 Core Peripheral Access Layer Header File
   4:/home/enbin/Documents/code/STM/stm32-quadrocopter/cmsis/core_cm3.h ****  * @version  V4.30
   5:/home/enbin/Documents/code/STM/stm32-quadrocopter/cmsis/core_cm3.h ****  * @date     20. October 2015
   6:/home/enbin/Documents/code/STM/stm32-quadrocopter/cmsis/core_cm3.h ****  ******************************************************************************/
   7:/home/enbin/Documents/code/STM/stm32-quadrocopter/cmsis/core_cm3.h **** /* Copyright (c) 2009 - 2015 ARM LIMITED
   8:/home/enbin/Documents/code/STM/stm32-quadrocopter/cmsis/core_cm3.h **** 
   9:/home/enbin/Documents/code/STM/stm32-quadrocopter/cmsis/core_cm3.h ****    All rights reserved.
  10:/home/enbin/Documents/code/STM/stm32-quadrocopter/cmsis/core_cm3.h ****    Redistribution and use in source and binary forms, with or without
  11:/home/enbin/Documents/code/STM/stm32-quadrocopter/cmsis/core_cm3.h ****    modification, are permitted provided that the following conditions are met:
  12:/home/enbin/Documents/code/STM/stm32-quadrocopter/cmsis/core_cm3.h ****    - Redistributions of source code must retain the above copyright
  13:/home/enbin/Documents/code/STM/stm32-quadrocopter/cmsis/core_cm3.h ****      notice, this list of conditions and the following disclaimer.
  14:/home/enbin/Documents/code/STM/stm32-quadrocopter/cmsis/core_cm3.h ****    - Redistributions in binary form must reproduce the above copyright
  15:/home/enbin/Documents/code/STM/stm32-quadrocopter/cmsis/core_cm3.h ****      notice, this list of conditions and the following disclaimer in the
  16:/home/enbin/Documents/code/STM/stm32-quadrocopter/cmsis/core_cm3.h ****      documentation and/or other materials provided with the distribution.
  17:/home/enbin/Documents/code/STM/stm32-quadrocopter/cmsis/core_cm3.h ****    - Neither the name of ARM nor the names of its contributors may be used
  18:/home/enbin/Documents/code/STM/stm32-quadrocopter/cmsis/core_cm3.h ****      to endorse or promote products derived from this software without
  19:/home/enbin/Documents/code/STM/stm32-quadrocopter/cmsis/core_cm3.h ****      specific prior written permission.
  20:/home/enbin/Documents/code/STM/stm32-quadrocopter/cmsis/core_cm3.h ****    *
  21:/home/enbin/Documents/code/STM/stm32-quadrocopter/cmsis/core_cm3.h ****    THIS SOFTWARE IS PROVIDED BY THE COPYRIGHT HOLDERS AND CONTRIBUTORS "AS IS"
  22:/home/enbin/Documents/code/STM/stm32-quadrocopter/cmsis/core_cm3.h ****    AND ANY EXPRESS OR IMPLIED WARRANTIES, INCLUDING, BUT NOT LIMITED TO, THE
  23:/home/enbin/Documents/code/STM/stm32-quadrocopter/cmsis/core_cm3.h ****    IMPLIED WARRANTIES OF MERCHANTABILITY AND FITNESS FOR A PARTICULAR PURPOSE
  24:/home/enbin/Documents/code/STM/stm32-quadrocopter/cmsis/core_cm3.h ****    ARE DISCLAIMED. IN NO EVENT SHALL COPYRIGHT HOLDERS AND CONTRIBUTORS BE
  25:/home/enbin/Documents/code/STM/stm32-quadrocopter/cmsis/core_cm3.h ****    LIABLE FOR ANY DIRECT, INDIRECT, INCIDENTAL, SPECIAL, EXEMPLARY, OR
  26:/home/enbin/Documents/code/STM/stm32-quadrocopter/cmsis/core_cm3.h ****    CONSEQUENTIAL DAMAGES (INCLUDING, BUT NOT LIMITED TO, PROCUREMENT OF
  27:/home/enbin/Documents/code/STM/stm32-quadrocopter/cmsis/core_cm3.h ****    SUBSTITUTE GOODS OR SERVICES; LOSS OF USE, DATA, OR PROFITS; OR BUSINESS
  28:/home/enbin/Documents/code/STM/stm32-quadrocopter/cmsis/core_cm3.h ****    INTERRUPTION) HOWEVER CAUSED AND ON ANY THEORY OF LIABILITY, WHETHER IN
  29:/home/enbin/Documents/code/STM/stm32-quadrocopter/cmsis/core_cm3.h ****    CONTRACT, STRICT LIABILITY, OR TORT (INCLUDING NEGLIGENCE OR OTHERWISE)
  30:/home/enbin/Documents/code/STM/stm32-quadrocopter/cmsis/core_cm3.h ****    ARISING IN ANY WAY OUT OF THE USE OF THIS SOFTWARE, EVEN IF ADVISED OF THE
  31:/home/enbin/Documents/code/STM/stm32-quadrocopter/cmsis/core_cm3.h ****    POSSIBILITY OF SUCH DAMAGE.
  32:/home/enbin/Documents/code/STM/stm32-quadrocopter/cmsis/core_cm3.h ****    ---------------------------------------------------------------------------*/
  33:/home/enbin/Documents/code/STM/stm32-quadrocopter/cmsis/core_cm3.h **** 
  34:/home/enbin/Documents/code/STM/stm32-quadrocopter/cmsis/core_cm3.h **** 
  35:/home/enbin/Documents/code/STM/stm32-quadrocopter/cmsis/core_cm3.h **** #if   defined ( __ICCARM__ )
  36:/home/enbin/Documents/code/STM/stm32-quadrocopter/cmsis/core_cm3.h ****  #pragma system_include         /* treat file as system include file for MISRA check */
  37:/home/enbin/Documents/code/STM/stm32-quadrocopter/cmsis/core_cm3.h **** #elif defined(__ARMCC_VERSION) && (__ARMCC_VERSION >= 6010050)
  38:/home/enbin/Documents/code/STM/stm32-quadrocopter/cmsis/core_cm3.h ****   #pragma clang system_header   /* treat file as system include file */
  39:/home/enbin/Documents/code/STM/stm32-quadrocopter/cmsis/core_cm3.h **** #endif
  40:/home/enbin/Documents/code/STM/stm32-quadrocopter/cmsis/core_cm3.h **** 
  41:/home/enbin/Documents/code/STM/stm32-quadrocopter/cmsis/core_cm3.h **** #ifndef __CORE_CM3_H_GENERIC
  42:/home/enbin/Documents/code/STM/stm32-quadrocopter/cmsis/core_cm3.h **** #define __CORE_CM3_H_GENERIC
  43:/home/enbin/Documents/code/STM/stm32-quadrocopter/cmsis/core_cm3.h **** 
  44:/home/enbin/Documents/code/STM/stm32-quadrocopter/cmsis/core_cm3.h **** #include <stdint.h>
  45:/home/enbin/Documents/code/STM/stm32-quadrocopter/cmsis/core_cm3.h **** 
  46:/home/enbin/Documents/code/STM/stm32-quadrocopter/cmsis/core_cm3.h **** #ifdef __cplusplus
  47:/home/enbin/Documents/code/STM/stm32-quadrocopter/cmsis/core_cm3.h ****  extern "C" {
  48:/home/enbin/Documents/code/STM/stm32-quadrocopter/cmsis/core_cm3.h **** #endif
  49:/home/enbin/Documents/code/STM/stm32-quadrocopter/cmsis/core_cm3.h **** 
  50:/home/enbin/Documents/code/STM/stm32-quadrocopter/cmsis/core_cm3.h **** /**
  51:/home/enbin/Documents/code/STM/stm32-quadrocopter/cmsis/core_cm3.h ****   \page CMSIS_MISRA_Exceptions  MISRA-C:2004 Compliance Exceptions
  52:/home/enbin/Documents/code/STM/stm32-quadrocopter/cmsis/core_cm3.h ****   CMSIS violates the following MISRA-C:2004 rules:
ARM GAS  /tmp/ccIxWip2.s 			page 26


  53:/home/enbin/Documents/code/STM/stm32-quadrocopter/cmsis/core_cm3.h **** 
  54:/home/enbin/Documents/code/STM/stm32-quadrocopter/cmsis/core_cm3.h ****    \li Required Rule 8.5, object/function definition in header file.<br>
  55:/home/enbin/Documents/code/STM/stm32-quadrocopter/cmsis/core_cm3.h ****      Function definitions in header files are used to allow 'inlining'.
  56:/home/enbin/Documents/code/STM/stm32-quadrocopter/cmsis/core_cm3.h **** 
  57:/home/enbin/Documents/code/STM/stm32-quadrocopter/cmsis/core_cm3.h ****    \li Required Rule 18.4, declaration of union type or object of union type: '{...}'.<br>
  58:/home/enbin/Documents/code/STM/stm32-quadrocopter/cmsis/core_cm3.h ****      Unions are used for effective representation of core registers.
  59:/home/enbin/Documents/code/STM/stm32-quadrocopter/cmsis/core_cm3.h **** 
  60:/home/enbin/Documents/code/STM/stm32-quadrocopter/cmsis/core_cm3.h ****    \li Advisory Rule 19.7, Function-like macro defined.<br>
  61:/home/enbin/Documents/code/STM/stm32-quadrocopter/cmsis/core_cm3.h ****      Function-like macros are used to allow more efficient code.
  62:/home/enbin/Documents/code/STM/stm32-quadrocopter/cmsis/core_cm3.h ****  */
  63:/home/enbin/Documents/code/STM/stm32-quadrocopter/cmsis/core_cm3.h **** 
  64:/home/enbin/Documents/code/STM/stm32-quadrocopter/cmsis/core_cm3.h **** 
  65:/home/enbin/Documents/code/STM/stm32-quadrocopter/cmsis/core_cm3.h **** /*******************************************************************************
  66:/home/enbin/Documents/code/STM/stm32-quadrocopter/cmsis/core_cm3.h ****  *                 CMSIS definitions
  67:/home/enbin/Documents/code/STM/stm32-quadrocopter/cmsis/core_cm3.h ****  ******************************************************************************/
  68:/home/enbin/Documents/code/STM/stm32-quadrocopter/cmsis/core_cm3.h **** /**
  69:/home/enbin/Documents/code/STM/stm32-quadrocopter/cmsis/core_cm3.h ****   \ingroup Cortex_M3
  70:/home/enbin/Documents/code/STM/stm32-quadrocopter/cmsis/core_cm3.h ****   @{
  71:/home/enbin/Documents/code/STM/stm32-quadrocopter/cmsis/core_cm3.h ****  */
  72:/home/enbin/Documents/code/STM/stm32-quadrocopter/cmsis/core_cm3.h **** 
  73:/home/enbin/Documents/code/STM/stm32-quadrocopter/cmsis/core_cm3.h **** /*  CMSIS CM3 definitions */
  74:/home/enbin/Documents/code/STM/stm32-quadrocopter/cmsis/core_cm3.h **** #define __CM3_CMSIS_VERSION_MAIN  (0x04U)                                      /*!< [31:16] CMSIS H
  75:/home/enbin/Documents/code/STM/stm32-quadrocopter/cmsis/core_cm3.h **** #define __CM3_CMSIS_VERSION_SUB   (0x1EU)                                      /*!< [15:0]  CMSIS H
  76:/home/enbin/Documents/code/STM/stm32-quadrocopter/cmsis/core_cm3.h **** #define __CM3_CMSIS_VERSION       ((__CM3_CMSIS_VERSION_MAIN << 16U) | \
  77:/home/enbin/Documents/code/STM/stm32-quadrocopter/cmsis/core_cm3.h ****                                     __CM3_CMSIS_VERSION_SUB           )        /*!< CMSIS HAL versi
  78:/home/enbin/Documents/code/STM/stm32-quadrocopter/cmsis/core_cm3.h **** 
  79:/home/enbin/Documents/code/STM/stm32-quadrocopter/cmsis/core_cm3.h **** #define __CORTEX_M                (0x03U)                                      /*!< Cortex-M Core *
  80:/home/enbin/Documents/code/STM/stm32-quadrocopter/cmsis/core_cm3.h **** 
  81:/home/enbin/Documents/code/STM/stm32-quadrocopter/cmsis/core_cm3.h **** 
  82:/home/enbin/Documents/code/STM/stm32-quadrocopter/cmsis/core_cm3.h **** #if   defined ( __CC_ARM )
  83:/home/enbin/Documents/code/STM/stm32-quadrocopter/cmsis/core_cm3.h ****   #define __ASM            __asm                                      /*!< asm keyword for ARM Comp
  84:/home/enbin/Documents/code/STM/stm32-quadrocopter/cmsis/core_cm3.h ****   #define __INLINE         __inline                                   /*!< inline keyword for ARM C
  85:/home/enbin/Documents/code/STM/stm32-quadrocopter/cmsis/core_cm3.h ****   #define __STATIC_INLINE  static __inline
  86:/home/enbin/Documents/code/STM/stm32-quadrocopter/cmsis/core_cm3.h **** 
  87:/home/enbin/Documents/code/STM/stm32-quadrocopter/cmsis/core_cm3.h **** #elif defined(__ARMCC_VERSION) && (__ARMCC_VERSION >= 6010050)
  88:/home/enbin/Documents/code/STM/stm32-quadrocopter/cmsis/core_cm3.h ****   #define __ASM            __asm                                      /*!< asm keyword for ARM Comp
  89:/home/enbin/Documents/code/STM/stm32-quadrocopter/cmsis/core_cm3.h ****   #define __INLINE         __inline                                   /*!< inline keyword for ARM C
  90:/home/enbin/Documents/code/STM/stm32-quadrocopter/cmsis/core_cm3.h ****   #define __STATIC_INLINE  static __inline
  91:/home/enbin/Documents/code/STM/stm32-quadrocopter/cmsis/core_cm3.h **** 
  92:/home/enbin/Documents/code/STM/stm32-quadrocopter/cmsis/core_cm3.h **** #elif defined ( __GNUC__ )
  93:/home/enbin/Documents/code/STM/stm32-quadrocopter/cmsis/core_cm3.h ****   #define __ASM            __asm                                      /*!< asm keyword for GNU Comp
  94:/home/enbin/Documents/code/STM/stm32-quadrocopter/cmsis/core_cm3.h ****   #define __INLINE         inline                                     /*!< inline keyword for GNU C
  95:/home/enbin/Documents/code/STM/stm32-quadrocopter/cmsis/core_cm3.h ****   #define __STATIC_INLINE  static inline
  96:/home/enbin/Documents/code/STM/stm32-quadrocopter/cmsis/core_cm3.h **** 
  97:/home/enbin/Documents/code/STM/stm32-quadrocopter/cmsis/core_cm3.h **** #elif defined ( __ICCARM__ )
  98:/home/enbin/Documents/code/STM/stm32-quadrocopter/cmsis/core_cm3.h ****   #define __ASM            __asm                                      /*!< asm keyword for IAR Comp
  99:/home/enbin/Documents/code/STM/stm32-quadrocopter/cmsis/core_cm3.h ****   #define __INLINE         inline                                     /*!< inline keyword for IAR C
 100:/home/enbin/Documents/code/STM/stm32-quadrocopter/cmsis/core_cm3.h ****   #define __STATIC_INLINE  static inline
 101:/home/enbin/Documents/code/STM/stm32-quadrocopter/cmsis/core_cm3.h **** 
 102:/home/enbin/Documents/code/STM/stm32-quadrocopter/cmsis/core_cm3.h **** #elif defined ( __TMS470__ )
 103:/home/enbin/Documents/code/STM/stm32-quadrocopter/cmsis/core_cm3.h ****   #define __ASM            __asm                                      /*!< asm keyword for TI CCS C
 104:/home/enbin/Documents/code/STM/stm32-quadrocopter/cmsis/core_cm3.h ****   #define __STATIC_INLINE  static inline
 105:/home/enbin/Documents/code/STM/stm32-quadrocopter/cmsis/core_cm3.h **** 
 106:/home/enbin/Documents/code/STM/stm32-quadrocopter/cmsis/core_cm3.h **** #elif defined ( __TASKING__ )
 107:/home/enbin/Documents/code/STM/stm32-quadrocopter/cmsis/core_cm3.h ****   #define __ASM            __asm                                      /*!< asm keyword for TASKING 
 108:/home/enbin/Documents/code/STM/stm32-quadrocopter/cmsis/core_cm3.h ****   #define __INLINE         inline                                     /*!< inline keyword for TASKI
 109:/home/enbin/Documents/code/STM/stm32-quadrocopter/cmsis/core_cm3.h ****   #define __STATIC_INLINE  static inline
ARM GAS  /tmp/ccIxWip2.s 			page 27


 110:/home/enbin/Documents/code/STM/stm32-quadrocopter/cmsis/core_cm3.h **** 
 111:/home/enbin/Documents/code/STM/stm32-quadrocopter/cmsis/core_cm3.h **** #elif defined ( __CSMC__ )
 112:/home/enbin/Documents/code/STM/stm32-quadrocopter/cmsis/core_cm3.h ****   #define __packed
 113:/home/enbin/Documents/code/STM/stm32-quadrocopter/cmsis/core_cm3.h ****   #define __ASM            _asm                                      /*!< asm keyword for COSMIC Co
 114:/home/enbin/Documents/code/STM/stm32-quadrocopter/cmsis/core_cm3.h ****   #define __INLINE         inline                                    /*!< inline keyword for COSMIC
 115:/home/enbin/Documents/code/STM/stm32-quadrocopter/cmsis/core_cm3.h ****   #define __STATIC_INLINE  static inline
 116:/home/enbin/Documents/code/STM/stm32-quadrocopter/cmsis/core_cm3.h **** 
 117:/home/enbin/Documents/code/STM/stm32-quadrocopter/cmsis/core_cm3.h **** #else
 118:/home/enbin/Documents/code/STM/stm32-quadrocopter/cmsis/core_cm3.h ****   #error Unknown compiler
 119:/home/enbin/Documents/code/STM/stm32-quadrocopter/cmsis/core_cm3.h **** #endif
 120:/home/enbin/Documents/code/STM/stm32-quadrocopter/cmsis/core_cm3.h **** 
 121:/home/enbin/Documents/code/STM/stm32-quadrocopter/cmsis/core_cm3.h **** /** __FPU_USED indicates whether an FPU is used or not.
 122:/home/enbin/Documents/code/STM/stm32-quadrocopter/cmsis/core_cm3.h ****     This core does not support an FPU at all
 123:/home/enbin/Documents/code/STM/stm32-quadrocopter/cmsis/core_cm3.h **** */
 124:/home/enbin/Documents/code/STM/stm32-quadrocopter/cmsis/core_cm3.h **** #define __FPU_USED       0U
 125:/home/enbin/Documents/code/STM/stm32-quadrocopter/cmsis/core_cm3.h **** 
 126:/home/enbin/Documents/code/STM/stm32-quadrocopter/cmsis/core_cm3.h **** #if defined ( __CC_ARM )
 127:/home/enbin/Documents/code/STM/stm32-quadrocopter/cmsis/core_cm3.h ****   #if defined __TARGET_FPU_VFP
 128:/home/enbin/Documents/code/STM/stm32-quadrocopter/cmsis/core_cm3.h ****     #error "Compiler generates FPU instructions for a device without an FPU (check __FPU_PRESENT)"
 129:/home/enbin/Documents/code/STM/stm32-quadrocopter/cmsis/core_cm3.h ****   #endif
 130:/home/enbin/Documents/code/STM/stm32-quadrocopter/cmsis/core_cm3.h **** 
 131:/home/enbin/Documents/code/STM/stm32-quadrocopter/cmsis/core_cm3.h **** #elif defined(__ARMCC_VERSION) && (__ARMCC_VERSION >= 6010050)
 132:/home/enbin/Documents/code/STM/stm32-quadrocopter/cmsis/core_cm3.h ****   #if defined __ARM_PCS_VFP
 133:/home/enbin/Documents/code/STM/stm32-quadrocopter/cmsis/core_cm3.h ****     #error "Compiler generates FPU instructions for a device without an FPU (check __FPU_PRESENT)"
 134:/home/enbin/Documents/code/STM/stm32-quadrocopter/cmsis/core_cm3.h ****   #endif
 135:/home/enbin/Documents/code/STM/stm32-quadrocopter/cmsis/core_cm3.h **** 
 136:/home/enbin/Documents/code/STM/stm32-quadrocopter/cmsis/core_cm3.h **** #elif defined ( __GNUC__ )
 137:/home/enbin/Documents/code/STM/stm32-quadrocopter/cmsis/core_cm3.h ****   #if defined (__VFP_FP__) && !defined(__SOFTFP__)
 138:/home/enbin/Documents/code/STM/stm32-quadrocopter/cmsis/core_cm3.h ****     #error "Compiler generates FPU instructions for a device without an FPU (check __FPU_PRESENT)"
 139:/home/enbin/Documents/code/STM/stm32-quadrocopter/cmsis/core_cm3.h ****   #endif
 140:/home/enbin/Documents/code/STM/stm32-quadrocopter/cmsis/core_cm3.h **** 
 141:/home/enbin/Documents/code/STM/stm32-quadrocopter/cmsis/core_cm3.h **** #elif defined ( __ICCARM__ )
 142:/home/enbin/Documents/code/STM/stm32-quadrocopter/cmsis/core_cm3.h ****   #if defined __ARMVFP__
 143:/home/enbin/Documents/code/STM/stm32-quadrocopter/cmsis/core_cm3.h ****     #error "Compiler generates FPU instructions for a device without an FPU (check __FPU_PRESENT)"
 144:/home/enbin/Documents/code/STM/stm32-quadrocopter/cmsis/core_cm3.h ****   #endif
 145:/home/enbin/Documents/code/STM/stm32-quadrocopter/cmsis/core_cm3.h **** 
 146:/home/enbin/Documents/code/STM/stm32-quadrocopter/cmsis/core_cm3.h **** #elif defined ( __TMS470__ )
 147:/home/enbin/Documents/code/STM/stm32-quadrocopter/cmsis/core_cm3.h ****   #if defined __TI_VFP_SUPPORT__
 148:/home/enbin/Documents/code/STM/stm32-quadrocopter/cmsis/core_cm3.h ****     #error "Compiler generates FPU instructions for a device without an FPU (check __FPU_PRESENT)"
 149:/home/enbin/Documents/code/STM/stm32-quadrocopter/cmsis/core_cm3.h ****   #endif
 150:/home/enbin/Documents/code/STM/stm32-quadrocopter/cmsis/core_cm3.h **** 
 151:/home/enbin/Documents/code/STM/stm32-quadrocopter/cmsis/core_cm3.h **** #elif defined ( __TASKING__ )
 152:/home/enbin/Documents/code/STM/stm32-quadrocopter/cmsis/core_cm3.h ****   #if defined __FPU_VFP__
 153:/home/enbin/Documents/code/STM/stm32-quadrocopter/cmsis/core_cm3.h ****     #error "Compiler generates FPU instructions for a device without an FPU (check __FPU_PRESENT)"
 154:/home/enbin/Documents/code/STM/stm32-quadrocopter/cmsis/core_cm3.h ****   #endif
 155:/home/enbin/Documents/code/STM/stm32-quadrocopter/cmsis/core_cm3.h **** 
 156:/home/enbin/Documents/code/STM/stm32-quadrocopter/cmsis/core_cm3.h **** #elif defined ( __CSMC__ )
 157:/home/enbin/Documents/code/STM/stm32-quadrocopter/cmsis/core_cm3.h ****   #if ( __CSMC__ & 0x400U)
 158:/home/enbin/Documents/code/STM/stm32-quadrocopter/cmsis/core_cm3.h ****     #error "Compiler generates FPU instructions for a device without an FPU (check __FPU_PRESENT)"
 159:/home/enbin/Documents/code/STM/stm32-quadrocopter/cmsis/core_cm3.h ****   #endif
 160:/home/enbin/Documents/code/STM/stm32-quadrocopter/cmsis/core_cm3.h **** 
 161:/home/enbin/Documents/code/STM/stm32-quadrocopter/cmsis/core_cm3.h **** #endif
 162:/home/enbin/Documents/code/STM/stm32-quadrocopter/cmsis/core_cm3.h **** 
 163:/home/enbin/Documents/code/STM/stm32-quadrocopter/cmsis/core_cm3.h **** #include "core_cmInstr.h"                /* Core Instruction Access */
 164:/home/enbin/Documents/code/STM/stm32-quadrocopter/cmsis/core_cm3.h **** #include "core_cmFunc.h"                 /* Core Function Access */
 165:/home/enbin/Documents/code/STM/stm32-quadrocopter/cmsis/core_cm3.h **** 
 166:/home/enbin/Documents/code/STM/stm32-quadrocopter/cmsis/core_cm3.h **** #ifdef __cplusplus
ARM GAS  /tmp/ccIxWip2.s 			page 28


 167:/home/enbin/Documents/code/STM/stm32-quadrocopter/cmsis/core_cm3.h **** }
 168:/home/enbin/Documents/code/STM/stm32-quadrocopter/cmsis/core_cm3.h **** #endif
 169:/home/enbin/Documents/code/STM/stm32-quadrocopter/cmsis/core_cm3.h **** 
 170:/home/enbin/Documents/code/STM/stm32-quadrocopter/cmsis/core_cm3.h **** #endif /* __CORE_CM3_H_GENERIC */
 171:/home/enbin/Documents/code/STM/stm32-quadrocopter/cmsis/core_cm3.h **** 
 172:/home/enbin/Documents/code/STM/stm32-quadrocopter/cmsis/core_cm3.h **** #ifndef __CMSIS_GENERIC
 173:/home/enbin/Documents/code/STM/stm32-quadrocopter/cmsis/core_cm3.h **** 
 174:/home/enbin/Documents/code/STM/stm32-quadrocopter/cmsis/core_cm3.h **** #ifndef __CORE_CM3_H_DEPENDANT
 175:/home/enbin/Documents/code/STM/stm32-quadrocopter/cmsis/core_cm3.h **** #define __CORE_CM3_H_DEPENDANT
 176:/home/enbin/Documents/code/STM/stm32-quadrocopter/cmsis/core_cm3.h **** 
 177:/home/enbin/Documents/code/STM/stm32-quadrocopter/cmsis/core_cm3.h **** #ifdef __cplusplus
 178:/home/enbin/Documents/code/STM/stm32-quadrocopter/cmsis/core_cm3.h ****  extern "C" {
 179:/home/enbin/Documents/code/STM/stm32-quadrocopter/cmsis/core_cm3.h **** #endif
 180:/home/enbin/Documents/code/STM/stm32-quadrocopter/cmsis/core_cm3.h **** 
 181:/home/enbin/Documents/code/STM/stm32-quadrocopter/cmsis/core_cm3.h **** /* check device defines and use defaults */
 182:/home/enbin/Documents/code/STM/stm32-quadrocopter/cmsis/core_cm3.h **** #if defined __CHECK_DEVICE_DEFINES
 183:/home/enbin/Documents/code/STM/stm32-quadrocopter/cmsis/core_cm3.h ****   #ifndef __CM3_REV
 184:/home/enbin/Documents/code/STM/stm32-quadrocopter/cmsis/core_cm3.h ****     #define __CM3_REV               0x0200U
 185:/home/enbin/Documents/code/STM/stm32-quadrocopter/cmsis/core_cm3.h ****     #warning "__CM3_REV not defined in device header file; using default!"
 186:/home/enbin/Documents/code/STM/stm32-quadrocopter/cmsis/core_cm3.h ****   #endif
 187:/home/enbin/Documents/code/STM/stm32-quadrocopter/cmsis/core_cm3.h **** 
 188:/home/enbin/Documents/code/STM/stm32-quadrocopter/cmsis/core_cm3.h ****   #ifndef __MPU_PRESENT
 189:/home/enbin/Documents/code/STM/stm32-quadrocopter/cmsis/core_cm3.h ****     #define __MPU_PRESENT             0U
 190:/home/enbin/Documents/code/STM/stm32-quadrocopter/cmsis/core_cm3.h ****     #warning "__MPU_PRESENT not defined in device header file; using default!"
 191:/home/enbin/Documents/code/STM/stm32-quadrocopter/cmsis/core_cm3.h ****   #endif
 192:/home/enbin/Documents/code/STM/stm32-quadrocopter/cmsis/core_cm3.h **** 
 193:/home/enbin/Documents/code/STM/stm32-quadrocopter/cmsis/core_cm3.h ****   #ifndef __NVIC_PRIO_BITS
 194:/home/enbin/Documents/code/STM/stm32-quadrocopter/cmsis/core_cm3.h ****     #define __NVIC_PRIO_BITS          4U
 195:/home/enbin/Documents/code/STM/stm32-quadrocopter/cmsis/core_cm3.h ****     #warning "__NVIC_PRIO_BITS not defined in device header file; using default!"
 196:/home/enbin/Documents/code/STM/stm32-quadrocopter/cmsis/core_cm3.h ****   #endif
 197:/home/enbin/Documents/code/STM/stm32-quadrocopter/cmsis/core_cm3.h **** 
 198:/home/enbin/Documents/code/STM/stm32-quadrocopter/cmsis/core_cm3.h ****   #ifndef __Vendor_SysTickConfig
 199:/home/enbin/Documents/code/STM/stm32-quadrocopter/cmsis/core_cm3.h ****     #define __Vendor_SysTickConfig    0U
 200:/home/enbin/Documents/code/STM/stm32-quadrocopter/cmsis/core_cm3.h ****     #warning "__Vendor_SysTickConfig not defined in device header file; using default!"
 201:/home/enbin/Documents/code/STM/stm32-quadrocopter/cmsis/core_cm3.h ****   #endif
 202:/home/enbin/Documents/code/STM/stm32-quadrocopter/cmsis/core_cm3.h **** #endif
 203:/home/enbin/Documents/code/STM/stm32-quadrocopter/cmsis/core_cm3.h **** 
 204:/home/enbin/Documents/code/STM/stm32-quadrocopter/cmsis/core_cm3.h **** /* IO definitions (access restrictions to peripheral registers) */
 205:/home/enbin/Documents/code/STM/stm32-quadrocopter/cmsis/core_cm3.h **** /**
 206:/home/enbin/Documents/code/STM/stm32-quadrocopter/cmsis/core_cm3.h ****     \defgroup CMSIS_glob_defs CMSIS Global Defines
 207:/home/enbin/Documents/code/STM/stm32-quadrocopter/cmsis/core_cm3.h **** 
 208:/home/enbin/Documents/code/STM/stm32-quadrocopter/cmsis/core_cm3.h ****     <strong>IO Type Qualifiers</strong> are used
 209:/home/enbin/Documents/code/STM/stm32-quadrocopter/cmsis/core_cm3.h ****     \li to specify the access to peripheral variables.
 210:/home/enbin/Documents/code/STM/stm32-quadrocopter/cmsis/core_cm3.h ****     \li for automatic generation of peripheral register debug information.
 211:/home/enbin/Documents/code/STM/stm32-quadrocopter/cmsis/core_cm3.h **** */
 212:/home/enbin/Documents/code/STM/stm32-quadrocopter/cmsis/core_cm3.h **** #ifdef __cplusplus
 213:/home/enbin/Documents/code/STM/stm32-quadrocopter/cmsis/core_cm3.h ****   #define   __I     volatile             /*!< Defines 'read only' permissions */
 214:/home/enbin/Documents/code/STM/stm32-quadrocopter/cmsis/core_cm3.h **** #else
 215:/home/enbin/Documents/code/STM/stm32-quadrocopter/cmsis/core_cm3.h ****   #define   __I     volatile const       /*!< Defines 'read only' permissions */
 216:/home/enbin/Documents/code/STM/stm32-quadrocopter/cmsis/core_cm3.h **** #endif
 217:/home/enbin/Documents/code/STM/stm32-quadrocopter/cmsis/core_cm3.h **** #define     __O     volatile             /*!< Defines 'write only' permissions */
 218:/home/enbin/Documents/code/STM/stm32-quadrocopter/cmsis/core_cm3.h **** #define     __IO    volatile             /*!< Defines 'read / write' permissions */
 219:/home/enbin/Documents/code/STM/stm32-quadrocopter/cmsis/core_cm3.h **** 
 220:/home/enbin/Documents/code/STM/stm32-quadrocopter/cmsis/core_cm3.h **** /* following defines should be used for structure members */
 221:/home/enbin/Documents/code/STM/stm32-quadrocopter/cmsis/core_cm3.h **** #define     __IM     volatile const      /*! Defines 'read only' structure member permissions */
 222:/home/enbin/Documents/code/STM/stm32-quadrocopter/cmsis/core_cm3.h **** #define     __OM     volatile            /*! Defines 'write only' structure member permissions */
 223:/home/enbin/Documents/code/STM/stm32-quadrocopter/cmsis/core_cm3.h **** #define     __IOM    volatile            /*! Defines 'read / write' structure member permissions */
ARM GAS  /tmp/ccIxWip2.s 			page 29


 224:/home/enbin/Documents/code/STM/stm32-quadrocopter/cmsis/core_cm3.h **** 
 225:/home/enbin/Documents/code/STM/stm32-quadrocopter/cmsis/core_cm3.h **** /*@} end of group Cortex_M3 */
 226:/home/enbin/Documents/code/STM/stm32-quadrocopter/cmsis/core_cm3.h **** 
 227:/home/enbin/Documents/code/STM/stm32-quadrocopter/cmsis/core_cm3.h **** 
 228:/home/enbin/Documents/code/STM/stm32-quadrocopter/cmsis/core_cm3.h **** 
 229:/home/enbin/Documents/code/STM/stm32-quadrocopter/cmsis/core_cm3.h **** /*******************************************************************************
 230:/home/enbin/Documents/code/STM/stm32-quadrocopter/cmsis/core_cm3.h ****  *                 Register Abstraction
 231:/home/enbin/Documents/code/STM/stm32-quadrocopter/cmsis/core_cm3.h ****   Core Register contain:
 232:/home/enbin/Documents/code/STM/stm32-quadrocopter/cmsis/core_cm3.h ****   - Core Register
 233:/home/enbin/Documents/code/STM/stm32-quadrocopter/cmsis/core_cm3.h ****   - Core NVIC Register
 234:/home/enbin/Documents/code/STM/stm32-quadrocopter/cmsis/core_cm3.h ****   - Core SCB Register
 235:/home/enbin/Documents/code/STM/stm32-quadrocopter/cmsis/core_cm3.h ****   - Core SysTick Register
 236:/home/enbin/Documents/code/STM/stm32-quadrocopter/cmsis/core_cm3.h ****   - Core Debug Register
 237:/home/enbin/Documents/code/STM/stm32-quadrocopter/cmsis/core_cm3.h ****   - Core MPU Register
 238:/home/enbin/Documents/code/STM/stm32-quadrocopter/cmsis/core_cm3.h ****  ******************************************************************************/
 239:/home/enbin/Documents/code/STM/stm32-quadrocopter/cmsis/core_cm3.h **** /**
 240:/home/enbin/Documents/code/STM/stm32-quadrocopter/cmsis/core_cm3.h ****   \defgroup CMSIS_core_register Defines and Type Definitions
 241:/home/enbin/Documents/code/STM/stm32-quadrocopter/cmsis/core_cm3.h ****   \brief Type definitions and defines for Cortex-M processor based devices.
 242:/home/enbin/Documents/code/STM/stm32-quadrocopter/cmsis/core_cm3.h **** */
 243:/home/enbin/Documents/code/STM/stm32-quadrocopter/cmsis/core_cm3.h **** 
 244:/home/enbin/Documents/code/STM/stm32-quadrocopter/cmsis/core_cm3.h **** /**
 245:/home/enbin/Documents/code/STM/stm32-quadrocopter/cmsis/core_cm3.h ****   \ingroup    CMSIS_core_register
 246:/home/enbin/Documents/code/STM/stm32-quadrocopter/cmsis/core_cm3.h ****   \defgroup   CMSIS_CORE  Status and Control Registers
 247:/home/enbin/Documents/code/STM/stm32-quadrocopter/cmsis/core_cm3.h ****   \brief      Core Register type definitions.
 248:/home/enbin/Documents/code/STM/stm32-quadrocopter/cmsis/core_cm3.h ****   @{
 249:/home/enbin/Documents/code/STM/stm32-quadrocopter/cmsis/core_cm3.h ****  */
 250:/home/enbin/Documents/code/STM/stm32-quadrocopter/cmsis/core_cm3.h **** 
 251:/home/enbin/Documents/code/STM/stm32-quadrocopter/cmsis/core_cm3.h **** /**
 252:/home/enbin/Documents/code/STM/stm32-quadrocopter/cmsis/core_cm3.h ****   \brief  Union type to access the Application Program Status Register (APSR).
 253:/home/enbin/Documents/code/STM/stm32-quadrocopter/cmsis/core_cm3.h ****  */
 254:/home/enbin/Documents/code/STM/stm32-quadrocopter/cmsis/core_cm3.h **** typedef union
 255:/home/enbin/Documents/code/STM/stm32-quadrocopter/cmsis/core_cm3.h **** {
 256:/home/enbin/Documents/code/STM/stm32-quadrocopter/cmsis/core_cm3.h ****   struct
 257:/home/enbin/Documents/code/STM/stm32-quadrocopter/cmsis/core_cm3.h ****   {
 258:/home/enbin/Documents/code/STM/stm32-quadrocopter/cmsis/core_cm3.h ****     uint32_t _reserved0:27;              /*!< bit:  0..26  Reserved */
 259:/home/enbin/Documents/code/STM/stm32-quadrocopter/cmsis/core_cm3.h ****     uint32_t Q:1;                        /*!< bit:     27  Saturation condition flag */
 260:/home/enbin/Documents/code/STM/stm32-quadrocopter/cmsis/core_cm3.h ****     uint32_t V:1;                        /*!< bit:     28  Overflow condition code flag */
 261:/home/enbin/Documents/code/STM/stm32-quadrocopter/cmsis/core_cm3.h ****     uint32_t C:1;                        /*!< bit:     29  Carry condition code flag */
 262:/home/enbin/Documents/code/STM/stm32-quadrocopter/cmsis/core_cm3.h ****     uint32_t Z:1;                        /*!< bit:     30  Zero condition code flag */
 263:/home/enbin/Documents/code/STM/stm32-quadrocopter/cmsis/core_cm3.h ****     uint32_t N:1;                        /*!< bit:     31  Negative condition code flag */
 264:/home/enbin/Documents/code/STM/stm32-quadrocopter/cmsis/core_cm3.h ****   } b;                                   /*!< Structure used for bit  access */
 265:/home/enbin/Documents/code/STM/stm32-quadrocopter/cmsis/core_cm3.h ****   uint32_t w;                            /*!< Type      used for word access */
 266:/home/enbin/Documents/code/STM/stm32-quadrocopter/cmsis/core_cm3.h **** } APSR_Type;
 267:/home/enbin/Documents/code/STM/stm32-quadrocopter/cmsis/core_cm3.h **** 
 268:/home/enbin/Documents/code/STM/stm32-quadrocopter/cmsis/core_cm3.h **** /* APSR Register Definitions */
 269:/home/enbin/Documents/code/STM/stm32-quadrocopter/cmsis/core_cm3.h **** #define APSR_N_Pos                         31U                                            /*!< APSR
 270:/home/enbin/Documents/code/STM/stm32-quadrocopter/cmsis/core_cm3.h **** #define APSR_N_Msk                         (1UL << APSR_N_Pos)                            /*!< APSR
 271:/home/enbin/Documents/code/STM/stm32-quadrocopter/cmsis/core_cm3.h **** 
 272:/home/enbin/Documents/code/STM/stm32-quadrocopter/cmsis/core_cm3.h **** #define APSR_Z_Pos                         30U                                            /*!< APSR
 273:/home/enbin/Documents/code/STM/stm32-quadrocopter/cmsis/core_cm3.h **** #define APSR_Z_Msk                         (1UL << APSR_Z_Pos)                            /*!< APSR
 274:/home/enbin/Documents/code/STM/stm32-quadrocopter/cmsis/core_cm3.h **** 
 275:/home/enbin/Documents/code/STM/stm32-quadrocopter/cmsis/core_cm3.h **** #define APSR_C_Pos                         29U                                            /*!< APSR
 276:/home/enbin/Documents/code/STM/stm32-quadrocopter/cmsis/core_cm3.h **** #define APSR_C_Msk                         (1UL << APSR_C_Pos)                            /*!< APSR
 277:/home/enbin/Documents/code/STM/stm32-quadrocopter/cmsis/core_cm3.h **** 
 278:/home/enbin/Documents/code/STM/stm32-quadrocopter/cmsis/core_cm3.h **** #define APSR_V_Pos                         28U                                            /*!< APSR
 279:/home/enbin/Documents/code/STM/stm32-quadrocopter/cmsis/core_cm3.h **** #define APSR_V_Msk                         (1UL << APSR_V_Pos)                            /*!< APSR
 280:/home/enbin/Documents/code/STM/stm32-quadrocopter/cmsis/core_cm3.h **** 
ARM GAS  /tmp/ccIxWip2.s 			page 30


 281:/home/enbin/Documents/code/STM/stm32-quadrocopter/cmsis/core_cm3.h **** #define APSR_Q_Pos                         27U                                            /*!< APSR
 282:/home/enbin/Documents/code/STM/stm32-quadrocopter/cmsis/core_cm3.h **** #define APSR_Q_Msk                         (1UL << APSR_Q_Pos)                            /*!< APSR
 283:/home/enbin/Documents/code/STM/stm32-quadrocopter/cmsis/core_cm3.h **** 
 284:/home/enbin/Documents/code/STM/stm32-quadrocopter/cmsis/core_cm3.h **** 
 285:/home/enbin/Documents/code/STM/stm32-quadrocopter/cmsis/core_cm3.h **** /**
 286:/home/enbin/Documents/code/STM/stm32-quadrocopter/cmsis/core_cm3.h ****   \brief  Union type to access the Interrupt Program Status Register (IPSR).
 287:/home/enbin/Documents/code/STM/stm32-quadrocopter/cmsis/core_cm3.h ****  */
 288:/home/enbin/Documents/code/STM/stm32-quadrocopter/cmsis/core_cm3.h **** typedef union
 289:/home/enbin/Documents/code/STM/stm32-quadrocopter/cmsis/core_cm3.h **** {
 290:/home/enbin/Documents/code/STM/stm32-quadrocopter/cmsis/core_cm3.h ****   struct
 291:/home/enbin/Documents/code/STM/stm32-quadrocopter/cmsis/core_cm3.h ****   {
 292:/home/enbin/Documents/code/STM/stm32-quadrocopter/cmsis/core_cm3.h ****     uint32_t ISR:9;                      /*!< bit:  0.. 8  Exception number */
 293:/home/enbin/Documents/code/STM/stm32-quadrocopter/cmsis/core_cm3.h ****     uint32_t _reserved0:23;              /*!< bit:  9..31  Reserved */
 294:/home/enbin/Documents/code/STM/stm32-quadrocopter/cmsis/core_cm3.h ****   } b;                                   /*!< Structure used for bit  access */
 295:/home/enbin/Documents/code/STM/stm32-quadrocopter/cmsis/core_cm3.h ****   uint32_t w;                            /*!< Type      used for word access */
 296:/home/enbin/Documents/code/STM/stm32-quadrocopter/cmsis/core_cm3.h **** } IPSR_Type;
 297:/home/enbin/Documents/code/STM/stm32-quadrocopter/cmsis/core_cm3.h **** 
 298:/home/enbin/Documents/code/STM/stm32-quadrocopter/cmsis/core_cm3.h **** /* IPSR Register Definitions */
 299:/home/enbin/Documents/code/STM/stm32-quadrocopter/cmsis/core_cm3.h **** #define IPSR_ISR_Pos                        0U                                            /*!< IPSR
 300:/home/enbin/Documents/code/STM/stm32-quadrocopter/cmsis/core_cm3.h **** #define IPSR_ISR_Msk                       (0x1FFUL /*<< IPSR_ISR_Pos*/)                  /*!< IPSR
 301:/home/enbin/Documents/code/STM/stm32-quadrocopter/cmsis/core_cm3.h **** 
 302:/home/enbin/Documents/code/STM/stm32-quadrocopter/cmsis/core_cm3.h **** 
 303:/home/enbin/Documents/code/STM/stm32-quadrocopter/cmsis/core_cm3.h **** /**
 304:/home/enbin/Documents/code/STM/stm32-quadrocopter/cmsis/core_cm3.h ****   \brief  Union type to access the Special-Purpose Program Status Registers (xPSR).
 305:/home/enbin/Documents/code/STM/stm32-quadrocopter/cmsis/core_cm3.h ****  */
 306:/home/enbin/Documents/code/STM/stm32-quadrocopter/cmsis/core_cm3.h **** typedef union
 307:/home/enbin/Documents/code/STM/stm32-quadrocopter/cmsis/core_cm3.h **** {
 308:/home/enbin/Documents/code/STM/stm32-quadrocopter/cmsis/core_cm3.h ****   struct
 309:/home/enbin/Documents/code/STM/stm32-quadrocopter/cmsis/core_cm3.h ****   {
 310:/home/enbin/Documents/code/STM/stm32-quadrocopter/cmsis/core_cm3.h ****     uint32_t ISR:9;                      /*!< bit:  0.. 8  Exception number */
 311:/home/enbin/Documents/code/STM/stm32-quadrocopter/cmsis/core_cm3.h ****     uint32_t _reserved0:15;              /*!< bit:  9..23  Reserved */
 312:/home/enbin/Documents/code/STM/stm32-quadrocopter/cmsis/core_cm3.h ****     uint32_t T:1;                        /*!< bit:     24  Thumb bit        (read 0) */
 313:/home/enbin/Documents/code/STM/stm32-quadrocopter/cmsis/core_cm3.h ****     uint32_t IT:2;                       /*!< bit: 25..26  saved IT state   (read 0) */
 314:/home/enbin/Documents/code/STM/stm32-quadrocopter/cmsis/core_cm3.h ****     uint32_t Q:1;                        /*!< bit:     27  Saturation condition flag */
 315:/home/enbin/Documents/code/STM/stm32-quadrocopter/cmsis/core_cm3.h ****     uint32_t V:1;                        /*!< bit:     28  Overflow condition code flag */
 316:/home/enbin/Documents/code/STM/stm32-quadrocopter/cmsis/core_cm3.h ****     uint32_t C:1;                        /*!< bit:     29  Carry condition code flag */
 317:/home/enbin/Documents/code/STM/stm32-quadrocopter/cmsis/core_cm3.h ****     uint32_t Z:1;                        /*!< bit:     30  Zero condition code flag */
 318:/home/enbin/Documents/code/STM/stm32-quadrocopter/cmsis/core_cm3.h ****     uint32_t N:1;                        /*!< bit:     31  Negative condition code flag */
 319:/home/enbin/Documents/code/STM/stm32-quadrocopter/cmsis/core_cm3.h ****   } b;                                   /*!< Structure used for bit  access */
 320:/home/enbin/Documents/code/STM/stm32-quadrocopter/cmsis/core_cm3.h ****   uint32_t w;                            /*!< Type      used for word access */
 321:/home/enbin/Documents/code/STM/stm32-quadrocopter/cmsis/core_cm3.h **** } xPSR_Type;
 322:/home/enbin/Documents/code/STM/stm32-quadrocopter/cmsis/core_cm3.h **** 
 323:/home/enbin/Documents/code/STM/stm32-quadrocopter/cmsis/core_cm3.h **** /* xPSR Register Definitions */
 324:/home/enbin/Documents/code/STM/stm32-quadrocopter/cmsis/core_cm3.h **** #define xPSR_N_Pos                         31U                                            /*!< xPSR
 325:/home/enbin/Documents/code/STM/stm32-quadrocopter/cmsis/core_cm3.h **** #define xPSR_N_Msk                         (1UL << xPSR_N_Pos)                            /*!< xPSR
 326:/home/enbin/Documents/code/STM/stm32-quadrocopter/cmsis/core_cm3.h **** 
 327:/home/enbin/Documents/code/STM/stm32-quadrocopter/cmsis/core_cm3.h **** #define xPSR_Z_Pos                         30U                                            /*!< xPSR
 328:/home/enbin/Documents/code/STM/stm32-quadrocopter/cmsis/core_cm3.h **** #define xPSR_Z_Msk                         (1UL << xPSR_Z_Pos)                            /*!< xPSR
 329:/home/enbin/Documents/code/STM/stm32-quadrocopter/cmsis/core_cm3.h **** 
 330:/home/enbin/Documents/code/STM/stm32-quadrocopter/cmsis/core_cm3.h **** #define xPSR_C_Pos                         29U                                            /*!< xPSR
 331:/home/enbin/Documents/code/STM/stm32-quadrocopter/cmsis/core_cm3.h **** #define xPSR_C_Msk                         (1UL << xPSR_C_Pos)                            /*!< xPSR
 332:/home/enbin/Documents/code/STM/stm32-quadrocopter/cmsis/core_cm3.h **** 
 333:/home/enbin/Documents/code/STM/stm32-quadrocopter/cmsis/core_cm3.h **** #define xPSR_V_Pos                         28U                                            /*!< xPSR
 334:/home/enbin/Documents/code/STM/stm32-quadrocopter/cmsis/core_cm3.h **** #define xPSR_V_Msk                         (1UL << xPSR_V_Pos)                            /*!< xPSR
 335:/home/enbin/Documents/code/STM/stm32-quadrocopter/cmsis/core_cm3.h **** 
 336:/home/enbin/Documents/code/STM/stm32-quadrocopter/cmsis/core_cm3.h **** #define xPSR_Q_Pos                         27U                                            /*!< xPSR
 337:/home/enbin/Documents/code/STM/stm32-quadrocopter/cmsis/core_cm3.h **** #define xPSR_Q_Msk                         (1UL << xPSR_Q_Pos)                            /*!< xPSR
ARM GAS  /tmp/ccIxWip2.s 			page 31


 338:/home/enbin/Documents/code/STM/stm32-quadrocopter/cmsis/core_cm3.h **** 
 339:/home/enbin/Documents/code/STM/stm32-quadrocopter/cmsis/core_cm3.h **** #define xPSR_IT_Pos                        25U                                            /*!< xPSR
 340:/home/enbin/Documents/code/STM/stm32-quadrocopter/cmsis/core_cm3.h **** #define xPSR_IT_Msk                        (3UL << xPSR_IT_Pos)                           /*!< xPSR
 341:/home/enbin/Documents/code/STM/stm32-quadrocopter/cmsis/core_cm3.h **** 
 342:/home/enbin/Documents/code/STM/stm32-quadrocopter/cmsis/core_cm3.h **** #define xPSR_T_Pos                         24U                                            /*!< xPSR
 343:/home/enbin/Documents/code/STM/stm32-quadrocopter/cmsis/core_cm3.h **** #define xPSR_T_Msk                         (1UL << xPSR_T_Pos)                            /*!< xPSR
 344:/home/enbin/Documents/code/STM/stm32-quadrocopter/cmsis/core_cm3.h **** 
 345:/home/enbin/Documents/code/STM/stm32-quadrocopter/cmsis/core_cm3.h **** #define xPSR_ISR_Pos                        0U                                            /*!< xPSR
 346:/home/enbin/Documents/code/STM/stm32-quadrocopter/cmsis/core_cm3.h **** #define xPSR_ISR_Msk                       (0x1FFUL /*<< xPSR_ISR_Pos*/)                  /*!< xPSR
 347:/home/enbin/Documents/code/STM/stm32-quadrocopter/cmsis/core_cm3.h **** 
 348:/home/enbin/Documents/code/STM/stm32-quadrocopter/cmsis/core_cm3.h **** 
 349:/home/enbin/Documents/code/STM/stm32-quadrocopter/cmsis/core_cm3.h **** /**
 350:/home/enbin/Documents/code/STM/stm32-quadrocopter/cmsis/core_cm3.h ****   \brief  Union type to access the Control Registers (CONTROL).
 351:/home/enbin/Documents/code/STM/stm32-quadrocopter/cmsis/core_cm3.h ****  */
 352:/home/enbin/Documents/code/STM/stm32-quadrocopter/cmsis/core_cm3.h **** typedef union
 353:/home/enbin/Documents/code/STM/stm32-quadrocopter/cmsis/core_cm3.h **** {
 354:/home/enbin/Documents/code/STM/stm32-quadrocopter/cmsis/core_cm3.h ****   struct
 355:/home/enbin/Documents/code/STM/stm32-quadrocopter/cmsis/core_cm3.h ****   {
 356:/home/enbin/Documents/code/STM/stm32-quadrocopter/cmsis/core_cm3.h ****     uint32_t nPRIV:1;                    /*!< bit:      0  Execution privilege in Thread mode */
 357:/home/enbin/Documents/code/STM/stm32-quadrocopter/cmsis/core_cm3.h ****     uint32_t SPSEL:1;                    /*!< bit:      1  Stack to be used */
 358:/home/enbin/Documents/code/STM/stm32-quadrocopter/cmsis/core_cm3.h ****     uint32_t _reserved1:30;              /*!< bit:  2..31  Reserved */
 359:/home/enbin/Documents/code/STM/stm32-quadrocopter/cmsis/core_cm3.h ****   } b;                                   /*!< Structure used for bit  access */
 360:/home/enbin/Documents/code/STM/stm32-quadrocopter/cmsis/core_cm3.h ****   uint32_t w;                            /*!< Type      used for word access */
 361:/home/enbin/Documents/code/STM/stm32-quadrocopter/cmsis/core_cm3.h **** } CONTROL_Type;
 362:/home/enbin/Documents/code/STM/stm32-quadrocopter/cmsis/core_cm3.h **** 
 363:/home/enbin/Documents/code/STM/stm32-quadrocopter/cmsis/core_cm3.h **** /* CONTROL Register Definitions */
 364:/home/enbin/Documents/code/STM/stm32-quadrocopter/cmsis/core_cm3.h **** #define CONTROL_SPSEL_Pos                   1U                                            /*!< CONT
 365:/home/enbin/Documents/code/STM/stm32-quadrocopter/cmsis/core_cm3.h **** #define CONTROL_SPSEL_Msk                  (1UL << CONTROL_SPSEL_Pos)                     /*!< CONT
 366:/home/enbin/Documents/code/STM/stm32-quadrocopter/cmsis/core_cm3.h **** 
 367:/home/enbin/Documents/code/STM/stm32-quadrocopter/cmsis/core_cm3.h **** #define CONTROL_nPRIV_Pos                   0U                                            /*!< CONT
 368:/home/enbin/Documents/code/STM/stm32-quadrocopter/cmsis/core_cm3.h **** #define CONTROL_nPRIV_Msk                  (1UL /*<< CONTROL_nPRIV_Pos*/)                 /*!< CONT
 369:/home/enbin/Documents/code/STM/stm32-quadrocopter/cmsis/core_cm3.h **** 
 370:/home/enbin/Documents/code/STM/stm32-quadrocopter/cmsis/core_cm3.h **** /*@} end of group CMSIS_CORE */
 371:/home/enbin/Documents/code/STM/stm32-quadrocopter/cmsis/core_cm3.h **** 
 372:/home/enbin/Documents/code/STM/stm32-quadrocopter/cmsis/core_cm3.h **** 
 373:/home/enbin/Documents/code/STM/stm32-quadrocopter/cmsis/core_cm3.h **** /**
 374:/home/enbin/Documents/code/STM/stm32-quadrocopter/cmsis/core_cm3.h ****   \ingroup    CMSIS_core_register
 375:/home/enbin/Documents/code/STM/stm32-quadrocopter/cmsis/core_cm3.h ****   \defgroup   CMSIS_NVIC  Nested Vectored Interrupt Controller (NVIC)
 376:/home/enbin/Documents/code/STM/stm32-quadrocopter/cmsis/core_cm3.h ****   \brief      Type definitions for the NVIC Registers
 377:/home/enbin/Documents/code/STM/stm32-quadrocopter/cmsis/core_cm3.h ****   @{
 378:/home/enbin/Documents/code/STM/stm32-quadrocopter/cmsis/core_cm3.h ****  */
 379:/home/enbin/Documents/code/STM/stm32-quadrocopter/cmsis/core_cm3.h **** 
 380:/home/enbin/Documents/code/STM/stm32-quadrocopter/cmsis/core_cm3.h **** /**
 381:/home/enbin/Documents/code/STM/stm32-quadrocopter/cmsis/core_cm3.h ****   \brief  Structure type to access the Nested Vectored Interrupt Controller (NVIC).
 382:/home/enbin/Documents/code/STM/stm32-quadrocopter/cmsis/core_cm3.h ****  */
 383:/home/enbin/Documents/code/STM/stm32-quadrocopter/cmsis/core_cm3.h **** typedef struct
 384:/home/enbin/Documents/code/STM/stm32-quadrocopter/cmsis/core_cm3.h **** {
 385:/home/enbin/Documents/code/STM/stm32-quadrocopter/cmsis/core_cm3.h ****   __IOM uint32_t ISER[8U];               /*!< Offset: 0x000 (R/W)  Interrupt Set Enable Register */
 386:/home/enbin/Documents/code/STM/stm32-quadrocopter/cmsis/core_cm3.h ****         uint32_t RESERVED0[24U];
 387:/home/enbin/Documents/code/STM/stm32-quadrocopter/cmsis/core_cm3.h ****   __IOM uint32_t ICER[8U];               /*!< Offset: 0x080 (R/W)  Interrupt Clear Enable Register 
 388:/home/enbin/Documents/code/STM/stm32-quadrocopter/cmsis/core_cm3.h ****         uint32_t RSERVED1[24U];
 389:/home/enbin/Documents/code/STM/stm32-quadrocopter/cmsis/core_cm3.h ****   __IOM uint32_t ISPR[8U];               /*!< Offset: 0x100 (R/W)  Interrupt Set Pending Register *
 390:/home/enbin/Documents/code/STM/stm32-quadrocopter/cmsis/core_cm3.h ****         uint32_t RESERVED2[24U];
 391:/home/enbin/Documents/code/STM/stm32-quadrocopter/cmsis/core_cm3.h ****   __IOM uint32_t ICPR[8U];               /*!< Offset: 0x180 (R/W)  Interrupt Clear Pending Register
 392:/home/enbin/Documents/code/STM/stm32-quadrocopter/cmsis/core_cm3.h ****         uint32_t RESERVED3[24U];
 393:/home/enbin/Documents/code/STM/stm32-quadrocopter/cmsis/core_cm3.h ****   __IOM uint32_t IABR[8U];               /*!< Offset: 0x200 (R/W)  Interrupt Active bit Register */
 394:/home/enbin/Documents/code/STM/stm32-quadrocopter/cmsis/core_cm3.h ****         uint32_t RESERVED4[56U];
ARM GAS  /tmp/ccIxWip2.s 			page 32


 395:/home/enbin/Documents/code/STM/stm32-quadrocopter/cmsis/core_cm3.h ****   __IOM uint8_t  IP[240U];               /*!< Offset: 0x300 (R/W)  Interrupt Priority Register (8Bi
 396:/home/enbin/Documents/code/STM/stm32-quadrocopter/cmsis/core_cm3.h ****         uint32_t RESERVED5[644U];
 397:/home/enbin/Documents/code/STM/stm32-quadrocopter/cmsis/core_cm3.h ****   __OM  uint32_t STIR;                   /*!< Offset: 0xE00 ( /W)  Software Trigger Interrupt Regis
 398:/home/enbin/Documents/code/STM/stm32-quadrocopter/cmsis/core_cm3.h **** }  NVIC_Type;
 399:/home/enbin/Documents/code/STM/stm32-quadrocopter/cmsis/core_cm3.h **** 
 400:/home/enbin/Documents/code/STM/stm32-quadrocopter/cmsis/core_cm3.h **** /* Software Triggered Interrupt Register Definitions */
 401:/home/enbin/Documents/code/STM/stm32-quadrocopter/cmsis/core_cm3.h **** #define NVIC_STIR_INTID_Pos                 0U                                         /*!< STIR: I
 402:/home/enbin/Documents/code/STM/stm32-quadrocopter/cmsis/core_cm3.h **** #define NVIC_STIR_INTID_Msk                (0x1FFUL /*<< NVIC_STIR_INTID_Pos*/)        /*!< STIR: I
 403:/home/enbin/Documents/code/STM/stm32-quadrocopter/cmsis/core_cm3.h **** 
 404:/home/enbin/Documents/code/STM/stm32-quadrocopter/cmsis/core_cm3.h **** /*@} end of group CMSIS_NVIC */
 405:/home/enbin/Documents/code/STM/stm32-quadrocopter/cmsis/core_cm3.h **** 
 406:/home/enbin/Documents/code/STM/stm32-quadrocopter/cmsis/core_cm3.h **** 
 407:/home/enbin/Documents/code/STM/stm32-quadrocopter/cmsis/core_cm3.h **** /**
 408:/home/enbin/Documents/code/STM/stm32-quadrocopter/cmsis/core_cm3.h ****   \ingroup  CMSIS_core_register
 409:/home/enbin/Documents/code/STM/stm32-quadrocopter/cmsis/core_cm3.h ****   \defgroup CMSIS_SCB     System Control Block (SCB)
 410:/home/enbin/Documents/code/STM/stm32-quadrocopter/cmsis/core_cm3.h ****   \brief    Type definitions for the System Control Block Registers
 411:/home/enbin/Documents/code/STM/stm32-quadrocopter/cmsis/core_cm3.h ****   @{
 412:/home/enbin/Documents/code/STM/stm32-quadrocopter/cmsis/core_cm3.h ****  */
 413:/home/enbin/Documents/code/STM/stm32-quadrocopter/cmsis/core_cm3.h **** 
 414:/home/enbin/Documents/code/STM/stm32-quadrocopter/cmsis/core_cm3.h **** /**
 415:/home/enbin/Documents/code/STM/stm32-quadrocopter/cmsis/core_cm3.h ****   \brief  Structure type to access the System Control Block (SCB).
 416:/home/enbin/Documents/code/STM/stm32-quadrocopter/cmsis/core_cm3.h ****  */
 417:/home/enbin/Documents/code/STM/stm32-quadrocopter/cmsis/core_cm3.h **** typedef struct
 418:/home/enbin/Documents/code/STM/stm32-quadrocopter/cmsis/core_cm3.h **** {
 419:/home/enbin/Documents/code/STM/stm32-quadrocopter/cmsis/core_cm3.h ****   __IM  uint32_t CPUID;                  /*!< Offset: 0x000 (R/ )  CPUID Base Register */
 420:/home/enbin/Documents/code/STM/stm32-quadrocopter/cmsis/core_cm3.h ****   __IOM uint32_t ICSR;                   /*!< Offset: 0x004 (R/W)  Interrupt Control and State Regi
 421:/home/enbin/Documents/code/STM/stm32-quadrocopter/cmsis/core_cm3.h ****   __IOM uint32_t VTOR;                   /*!< Offset: 0x008 (R/W)  Vector Table Offset Register */
 422:/home/enbin/Documents/code/STM/stm32-quadrocopter/cmsis/core_cm3.h ****   __IOM uint32_t AIRCR;                  /*!< Offset: 0x00C (R/W)  Application Interrupt and Reset 
 423:/home/enbin/Documents/code/STM/stm32-quadrocopter/cmsis/core_cm3.h ****   __IOM uint32_t SCR;                    /*!< Offset: 0x010 (R/W)  System Control Register */
 424:/home/enbin/Documents/code/STM/stm32-quadrocopter/cmsis/core_cm3.h ****   __IOM uint32_t CCR;                    /*!< Offset: 0x014 (R/W)  Configuration Control Register *
 425:/home/enbin/Documents/code/STM/stm32-quadrocopter/cmsis/core_cm3.h ****   __IOM uint8_t  SHP[12U];               /*!< Offset: 0x018 (R/W)  System Handlers Priority Registe
 426:/home/enbin/Documents/code/STM/stm32-quadrocopter/cmsis/core_cm3.h ****   __IOM uint32_t SHCSR;                  /*!< Offset: 0x024 (R/W)  System Handler Control and State
 427:/home/enbin/Documents/code/STM/stm32-quadrocopter/cmsis/core_cm3.h ****   __IOM uint32_t CFSR;                   /*!< Offset: 0x028 (R/W)  Configurable Fault Status Regist
 428:/home/enbin/Documents/code/STM/stm32-quadrocopter/cmsis/core_cm3.h ****   __IOM uint32_t HFSR;                   /*!< Offset: 0x02C (R/W)  HardFault Status Register */
 429:/home/enbin/Documents/code/STM/stm32-quadrocopter/cmsis/core_cm3.h ****   __IOM uint32_t DFSR;                   /*!< Offset: 0x030 (R/W)  Debug Fault Status Register */
 430:/home/enbin/Documents/code/STM/stm32-quadrocopter/cmsis/core_cm3.h ****   __IOM uint32_t MMFAR;                  /*!< Offset: 0x034 (R/W)  MemManage Fault Address Register
 431:/home/enbin/Documents/code/STM/stm32-quadrocopter/cmsis/core_cm3.h ****   __IOM uint32_t BFAR;                   /*!< Offset: 0x038 (R/W)  BusFault Address Register */
 432:/home/enbin/Documents/code/STM/stm32-quadrocopter/cmsis/core_cm3.h ****   __IOM uint32_t AFSR;                   /*!< Offset: 0x03C (R/W)  Auxiliary Fault Status Register 
 433:/home/enbin/Documents/code/STM/stm32-quadrocopter/cmsis/core_cm3.h ****   __IM  uint32_t PFR[2U];                /*!< Offset: 0x040 (R/ )  Processor Feature Register */
 434:/home/enbin/Documents/code/STM/stm32-quadrocopter/cmsis/core_cm3.h ****   __IM  uint32_t DFR;                    /*!< Offset: 0x048 (R/ )  Debug Feature Register */
 435:/home/enbin/Documents/code/STM/stm32-quadrocopter/cmsis/core_cm3.h ****   __IM  uint32_t ADR;                    /*!< Offset: 0x04C (R/ )  Auxiliary Feature Register */
 436:/home/enbin/Documents/code/STM/stm32-quadrocopter/cmsis/core_cm3.h ****   __IM  uint32_t MMFR[4U];               /*!< Offset: 0x050 (R/ )  Memory Model Feature Register */
 437:/home/enbin/Documents/code/STM/stm32-quadrocopter/cmsis/core_cm3.h ****   __IM  uint32_t ISAR[5U];               /*!< Offset: 0x060 (R/ )  Instruction Set Attributes Regis
 438:/home/enbin/Documents/code/STM/stm32-quadrocopter/cmsis/core_cm3.h ****         uint32_t RESERVED0[5U];
 439:/home/enbin/Documents/code/STM/stm32-quadrocopter/cmsis/core_cm3.h ****   __IOM uint32_t CPACR;                  /*!< Offset: 0x088 (R/W)  Coprocessor Access Control Regis
 440:/home/enbin/Documents/code/STM/stm32-quadrocopter/cmsis/core_cm3.h **** } SCB_Type;
 441:/home/enbin/Documents/code/STM/stm32-quadrocopter/cmsis/core_cm3.h **** 
 442:/home/enbin/Documents/code/STM/stm32-quadrocopter/cmsis/core_cm3.h **** /* SCB CPUID Register Definitions */
 443:/home/enbin/Documents/code/STM/stm32-quadrocopter/cmsis/core_cm3.h **** #define SCB_CPUID_IMPLEMENTER_Pos          24U                                            /*!< SCB 
 444:/home/enbin/Documents/code/STM/stm32-quadrocopter/cmsis/core_cm3.h **** #define SCB_CPUID_IMPLEMENTER_Msk          (0xFFUL << SCB_CPUID_IMPLEMENTER_Pos)          /*!< SCB 
 445:/home/enbin/Documents/code/STM/stm32-quadrocopter/cmsis/core_cm3.h **** 
 446:/home/enbin/Documents/code/STM/stm32-quadrocopter/cmsis/core_cm3.h **** #define SCB_CPUID_VARIANT_Pos              20U                                            /*!< SCB 
 447:/home/enbin/Documents/code/STM/stm32-quadrocopter/cmsis/core_cm3.h **** #define SCB_CPUID_VARIANT_Msk              (0xFUL << SCB_CPUID_VARIANT_Pos)               /*!< SCB 
 448:/home/enbin/Documents/code/STM/stm32-quadrocopter/cmsis/core_cm3.h **** 
 449:/home/enbin/Documents/code/STM/stm32-quadrocopter/cmsis/core_cm3.h **** #define SCB_CPUID_ARCHITECTURE_Pos         16U                                            /*!< SCB 
 450:/home/enbin/Documents/code/STM/stm32-quadrocopter/cmsis/core_cm3.h **** #define SCB_CPUID_ARCHITECTURE_Msk         (0xFUL << SCB_CPUID_ARCHITECTURE_Pos)          /*!< SCB 
 451:/home/enbin/Documents/code/STM/stm32-quadrocopter/cmsis/core_cm3.h **** 
ARM GAS  /tmp/ccIxWip2.s 			page 33


 452:/home/enbin/Documents/code/STM/stm32-quadrocopter/cmsis/core_cm3.h **** #define SCB_CPUID_PARTNO_Pos                4U                                            /*!< SCB 
 453:/home/enbin/Documents/code/STM/stm32-quadrocopter/cmsis/core_cm3.h **** #define SCB_CPUID_PARTNO_Msk               (0xFFFUL << SCB_CPUID_PARTNO_Pos)              /*!< SCB 
 454:/home/enbin/Documents/code/STM/stm32-quadrocopter/cmsis/core_cm3.h **** 
 455:/home/enbin/Documents/code/STM/stm32-quadrocopter/cmsis/core_cm3.h **** #define SCB_CPUID_REVISION_Pos              0U                                            /*!< SCB 
 456:/home/enbin/Documents/code/STM/stm32-quadrocopter/cmsis/core_cm3.h **** #define SCB_CPUID_REVISION_Msk             (0xFUL /*<< SCB_CPUID_REVISION_Pos*/)          /*!< SCB 
 457:/home/enbin/Documents/code/STM/stm32-quadrocopter/cmsis/core_cm3.h **** 
 458:/home/enbin/Documents/code/STM/stm32-quadrocopter/cmsis/core_cm3.h **** /* SCB Interrupt Control State Register Definitions */
 459:/home/enbin/Documents/code/STM/stm32-quadrocopter/cmsis/core_cm3.h **** #define SCB_ICSR_NMIPENDSET_Pos            31U                                            /*!< SCB 
 460:/home/enbin/Documents/code/STM/stm32-quadrocopter/cmsis/core_cm3.h **** #define SCB_ICSR_NMIPENDSET_Msk            (1UL << SCB_ICSR_NMIPENDSET_Pos)               /*!< SCB 
 461:/home/enbin/Documents/code/STM/stm32-quadrocopter/cmsis/core_cm3.h **** 
 462:/home/enbin/Documents/code/STM/stm32-quadrocopter/cmsis/core_cm3.h **** #define SCB_ICSR_PENDSVSET_Pos             28U                                            /*!< SCB 
 463:/home/enbin/Documents/code/STM/stm32-quadrocopter/cmsis/core_cm3.h **** #define SCB_ICSR_PENDSVSET_Msk             (1UL << SCB_ICSR_PENDSVSET_Pos)                /*!< SCB 
 464:/home/enbin/Documents/code/STM/stm32-quadrocopter/cmsis/core_cm3.h **** 
 465:/home/enbin/Documents/code/STM/stm32-quadrocopter/cmsis/core_cm3.h **** #define SCB_ICSR_PENDSVCLR_Pos             27U                                            /*!< SCB 
 466:/home/enbin/Documents/code/STM/stm32-quadrocopter/cmsis/core_cm3.h **** #define SCB_ICSR_PENDSVCLR_Msk             (1UL << SCB_ICSR_PENDSVCLR_Pos)                /*!< SCB 
 467:/home/enbin/Documents/code/STM/stm32-quadrocopter/cmsis/core_cm3.h **** 
 468:/home/enbin/Documents/code/STM/stm32-quadrocopter/cmsis/core_cm3.h **** #define SCB_ICSR_PENDSTSET_Pos             26U                                            /*!< SCB 
 469:/home/enbin/Documents/code/STM/stm32-quadrocopter/cmsis/core_cm3.h **** #define SCB_ICSR_PENDSTSET_Msk             (1UL << SCB_ICSR_PENDSTSET_Pos)                /*!< SCB 
 470:/home/enbin/Documents/code/STM/stm32-quadrocopter/cmsis/core_cm3.h **** 
 471:/home/enbin/Documents/code/STM/stm32-quadrocopter/cmsis/core_cm3.h **** #define SCB_ICSR_PENDSTCLR_Pos             25U                                            /*!< SCB 
 472:/home/enbin/Documents/code/STM/stm32-quadrocopter/cmsis/core_cm3.h **** #define SCB_ICSR_PENDSTCLR_Msk             (1UL << SCB_ICSR_PENDSTCLR_Pos)                /*!< SCB 
 473:/home/enbin/Documents/code/STM/stm32-quadrocopter/cmsis/core_cm3.h **** 
 474:/home/enbin/Documents/code/STM/stm32-quadrocopter/cmsis/core_cm3.h **** #define SCB_ICSR_ISRPREEMPT_Pos            23U                                            /*!< SCB 
 475:/home/enbin/Documents/code/STM/stm32-quadrocopter/cmsis/core_cm3.h **** #define SCB_ICSR_ISRPREEMPT_Msk            (1UL << SCB_ICSR_ISRPREEMPT_Pos)               /*!< SCB 
 476:/home/enbin/Documents/code/STM/stm32-quadrocopter/cmsis/core_cm3.h **** 
 477:/home/enbin/Documents/code/STM/stm32-quadrocopter/cmsis/core_cm3.h **** #define SCB_ICSR_ISRPENDING_Pos            22U                                            /*!< SCB 
 478:/home/enbin/Documents/code/STM/stm32-quadrocopter/cmsis/core_cm3.h **** #define SCB_ICSR_ISRPENDING_Msk            (1UL << SCB_ICSR_ISRPENDING_Pos)               /*!< SCB 
 479:/home/enbin/Documents/code/STM/stm32-quadrocopter/cmsis/core_cm3.h **** 
 480:/home/enbin/Documents/code/STM/stm32-quadrocopter/cmsis/core_cm3.h **** #define SCB_ICSR_VECTPENDING_Pos           12U                                            /*!< SCB 
 481:/home/enbin/Documents/code/STM/stm32-quadrocopter/cmsis/core_cm3.h **** #define SCB_ICSR_VECTPENDING_Msk           (0x1FFUL << SCB_ICSR_VECTPENDING_Pos)          /*!< SCB 
 482:/home/enbin/Documents/code/STM/stm32-quadrocopter/cmsis/core_cm3.h **** 
 483:/home/enbin/Documents/code/STM/stm32-quadrocopter/cmsis/core_cm3.h **** #define SCB_ICSR_RETTOBASE_Pos             11U                                            /*!< SCB 
 484:/home/enbin/Documents/code/STM/stm32-quadrocopter/cmsis/core_cm3.h **** #define SCB_ICSR_RETTOBASE_Msk             (1UL << SCB_ICSR_RETTOBASE_Pos)                /*!< SCB 
 485:/home/enbin/Documents/code/STM/stm32-quadrocopter/cmsis/core_cm3.h **** 
 486:/home/enbin/Documents/code/STM/stm32-quadrocopter/cmsis/core_cm3.h **** #define SCB_ICSR_VECTACTIVE_Pos             0U                                            /*!< SCB 
 487:/home/enbin/Documents/code/STM/stm32-quadrocopter/cmsis/core_cm3.h **** #define SCB_ICSR_VECTACTIVE_Msk            (0x1FFUL /*<< SCB_ICSR_VECTACTIVE_Pos*/)       /*!< SCB 
 488:/home/enbin/Documents/code/STM/stm32-quadrocopter/cmsis/core_cm3.h **** 
 489:/home/enbin/Documents/code/STM/stm32-quadrocopter/cmsis/core_cm3.h **** /* SCB Vector Table Offset Register Definitions */
 490:/home/enbin/Documents/code/STM/stm32-quadrocopter/cmsis/core_cm3.h **** #if (__CM3_REV < 0x0201U)                   /* core r2p1 */
 491:/home/enbin/Documents/code/STM/stm32-quadrocopter/cmsis/core_cm3.h **** #define SCB_VTOR_TBLBASE_Pos               29U                                            /*!< SCB 
 492:/home/enbin/Documents/code/STM/stm32-quadrocopter/cmsis/core_cm3.h **** #define SCB_VTOR_TBLBASE_Msk               (1UL << SCB_VTOR_TBLBASE_Pos)                  /*!< SCB 
 493:/home/enbin/Documents/code/STM/stm32-quadrocopter/cmsis/core_cm3.h **** 
 494:/home/enbin/Documents/code/STM/stm32-quadrocopter/cmsis/core_cm3.h **** #define SCB_VTOR_TBLOFF_Pos                 7U                                            /*!< SCB 
 495:/home/enbin/Documents/code/STM/stm32-quadrocopter/cmsis/core_cm3.h **** #define SCB_VTOR_TBLOFF_Msk                (0x3FFFFFUL << SCB_VTOR_TBLOFF_Pos)            /*!< SCB 
 496:/home/enbin/Documents/code/STM/stm32-quadrocopter/cmsis/core_cm3.h **** #else
 497:/home/enbin/Documents/code/STM/stm32-quadrocopter/cmsis/core_cm3.h **** #define SCB_VTOR_TBLOFF_Pos                 7U                                            /*!< SCB 
 498:/home/enbin/Documents/code/STM/stm32-quadrocopter/cmsis/core_cm3.h **** #define SCB_VTOR_TBLOFF_Msk                (0x1FFFFFFUL << SCB_VTOR_TBLOFF_Pos)           /*!< SCB 
 499:/home/enbin/Documents/code/STM/stm32-quadrocopter/cmsis/core_cm3.h **** #endif
 500:/home/enbin/Documents/code/STM/stm32-quadrocopter/cmsis/core_cm3.h **** 
 501:/home/enbin/Documents/code/STM/stm32-quadrocopter/cmsis/core_cm3.h **** /* SCB Application Interrupt and Reset Control Register Definitions */
 502:/home/enbin/Documents/code/STM/stm32-quadrocopter/cmsis/core_cm3.h **** #define SCB_AIRCR_VECTKEY_Pos              16U                                            /*!< SCB 
 503:/home/enbin/Documents/code/STM/stm32-quadrocopter/cmsis/core_cm3.h **** #define SCB_AIRCR_VECTKEY_Msk              (0xFFFFUL << SCB_AIRCR_VECTKEY_Pos)            /*!< SCB 
 504:/home/enbin/Documents/code/STM/stm32-quadrocopter/cmsis/core_cm3.h **** 
 505:/home/enbin/Documents/code/STM/stm32-quadrocopter/cmsis/core_cm3.h **** #define SCB_AIRCR_VECTKEYSTAT_Pos          16U                                            /*!< SCB 
 506:/home/enbin/Documents/code/STM/stm32-quadrocopter/cmsis/core_cm3.h **** #define SCB_AIRCR_VECTKEYSTAT_Msk          (0xFFFFUL << SCB_AIRCR_VECTKEYSTAT_Pos)        /*!< SCB 
 507:/home/enbin/Documents/code/STM/stm32-quadrocopter/cmsis/core_cm3.h **** 
 508:/home/enbin/Documents/code/STM/stm32-quadrocopter/cmsis/core_cm3.h **** #define SCB_AIRCR_ENDIANESS_Pos            15U                                            /*!< SCB 
ARM GAS  /tmp/ccIxWip2.s 			page 34


 509:/home/enbin/Documents/code/STM/stm32-quadrocopter/cmsis/core_cm3.h **** #define SCB_AIRCR_ENDIANESS_Msk            (1UL << SCB_AIRCR_ENDIANESS_Pos)               /*!< SCB 
 510:/home/enbin/Documents/code/STM/stm32-quadrocopter/cmsis/core_cm3.h **** 
 511:/home/enbin/Documents/code/STM/stm32-quadrocopter/cmsis/core_cm3.h **** #define SCB_AIRCR_PRIGROUP_Pos              8U                                            /*!< SCB 
 512:/home/enbin/Documents/code/STM/stm32-quadrocopter/cmsis/core_cm3.h **** #define SCB_AIRCR_PRIGROUP_Msk             (7UL << SCB_AIRCR_PRIGROUP_Pos)                /*!< SCB 
 513:/home/enbin/Documents/code/STM/stm32-quadrocopter/cmsis/core_cm3.h **** 
 514:/home/enbin/Documents/code/STM/stm32-quadrocopter/cmsis/core_cm3.h **** #define SCB_AIRCR_SYSRESETREQ_Pos           2U                                            /*!< SCB 
 515:/home/enbin/Documents/code/STM/stm32-quadrocopter/cmsis/core_cm3.h **** #define SCB_AIRCR_SYSRESETREQ_Msk          (1UL << SCB_AIRCR_SYSRESETREQ_Pos)             /*!< SCB 
 516:/home/enbin/Documents/code/STM/stm32-quadrocopter/cmsis/core_cm3.h **** 
 517:/home/enbin/Documents/code/STM/stm32-quadrocopter/cmsis/core_cm3.h **** #define SCB_AIRCR_VECTCLRACTIVE_Pos         1U                                            /*!< SCB 
 518:/home/enbin/Documents/code/STM/stm32-quadrocopter/cmsis/core_cm3.h **** #define SCB_AIRCR_VECTCLRACTIVE_Msk        (1UL << SCB_AIRCR_VECTCLRACTIVE_Pos)           /*!< SCB 
 519:/home/enbin/Documents/code/STM/stm32-quadrocopter/cmsis/core_cm3.h **** 
 520:/home/enbin/Documents/code/STM/stm32-quadrocopter/cmsis/core_cm3.h **** #define SCB_AIRCR_VECTRESET_Pos             0U                                            /*!< SCB 
 521:/home/enbin/Documents/code/STM/stm32-quadrocopter/cmsis/core_cm3.h **** #define SCB_AIRCR_VECTRESET_Msk            (1UL /*<< SCB_AIRCR_VECTRESET_Pos*/)           /*!< SCB 
 522:/home/enbin/Documents/code/STM/stm32-quadrocopter/cmsis/core_cm3.h **** 
 523:/home/enbin/Documents/code/STM/stm32-quadrocopter/cmsis/core_cm3.h **** /* SCB System Control Register Definitions */
 524:/home/enbin/Documents/code/STM/stm32-quadrocopter/cmsis/core_cm3.h **** #define SCB_SCR_SEVONPEND_Pos               4U                                            /*!< SCB 
 525:/home/enbin/Documents/code/STM/stm32-quadrocopter/cmsis/core_cm3.h **** #define SCB_SCR_SEVONPEND_Msk              (1UL << SCB_SCR_SEVONPEND_Pos)                 /*!< SCB 
 526:/home/enbin/Documents/code/STM/stm32-quadrocopter/cmsis/core_cm3.h **** 
 527:/home/enbin/Documents/code/STM/stm32-quadrocopter/cmsis/core_cm3.h **** #define SCB_SCR_SLEEPDEEP_Pos               2U                                            /*!< SCB 
 528:/home/enbin/Documents/code/STM/stm32-quadrocopter/cmsis/core_cm3.h **** #define SCB_SCR_SLEEPDEEP_Msk              (1UL << SCB_SCR_SLEEPDEEP_Pos)                 /*!< SCB 
 529:/home/enbin/Documents/code/STM/stm32-quadrocopter/cmsis/core_cm3.h **** 
 530:/home/enbin/Documents/code/STM/stm32-quadrocopter/cmsis/core_cm3.h **** #define SCB_SCR_SLEEPONEXIT_Pos             1U                                            /*!< SCB 
 531:/home/enbin/Documents/code/STM/stm32-quadrocopter/cmsis/core_cm3.h **** #define SCB_SCR_SLEEPONEXIT_Msk            (1UL << SCB_SCR_SLEEPONEXIT_Pos)               /*!< SCB 
 532:/home/enbin/Documents/code/STM/stm32-quadrocopter/cmsis/core_cm3.h **** 
 533:/home/enbin/Documents/code/STM/stm32-quadrocopter/cmsis/core_cm3.h **** /* SCB Configuration Control Register Definitions */
 534:/home/enbin/Documents/code/STM/stm32-quadrocopter/cmsis/core_cm3.h **** #define SCB_CCR_STKALIGN_Pos                9U                                            /*!< SCB 
 535:/home/enbin/Documents/code/STM/stm32-quadrocopter/cmsis/core_cm3.h **** #define SCB_CCR_STKALIGN_Msk               (1UL << SCB_CCR_STKALIGN_Pos)                  /*!< SCB 
 536:/home/enbin/Documents/code/STM/stm32-quadrocopter/cmsis/core_cm3.h **** 
 537:/home/enbin/Documents/code/STM/stm32-quadrocopter/cmsis/core_cm3.h **** #define SCB_CCR_BFHFNMIGN_Pos               8U                                            /*!< SCB 
 538:/home/enbin/Documents/code/STM/stm32-quadrocopter/cmsis/core_cm3.h **** #define SCB_CCR_BFHFNMIGN_Msk              (1UL << SCB_CCR_BFHFNMIGN_Pos)                 /*!< SCB 
 539:/home/enbin/Documents/code/STM/stm32-quadrocopter/cmsis/core_cm3.h **** 
 540:/home/enbin/Documents/code/STM/stm32-quadrocopter/cmsis/core_cm3.h **** #define SCB_CCR_DIV_0_TRP_Pos               4U                                            /*!< SCB 
 541:/home/enbin/Documents/code/STM/stm32-quadrocopter/cmsis/core_cm3.h **** #define SCB_CCR_DIV_0_TRP_Msk              (1UL << SCB_CCR_DIV_0_TRP_Pos)                 /*!< SCB 
 542:/home/enbin/Documents/code/STM/stm32-quadrocopter/cmsis/core_cm3.h **** 
 543:/home/enbin/Documents/code/STM/stm32-quadrocopter/cmsis/core_cm3.h **** #define SCB_CCR_UNALIGN_TRP_Pos             3U                                            /*!< SCB 
 544:/home/enbin/Documents/code/STM/stm32-quadrocopter/cmsis/core_cm3.h **** #define SCB_CCR_UNALIGN_TRP_Msk            (1UL << SCB_CCR_UNALIGN_TRP_Pos)               /*!< SCB 
 545:/home/enbin/Documents/code/STM/stm32-quadrocopter/cmsis/core_cm3.h **** 
 546:/home/enbin/Documents/code/STM/stm32-quadrocopter/cmsis/core_cm3.h **** #define SCB_CCR_USERSETMPEND_Pos            1U                                            /*!< SCB 
 547:/home/enbin/Documents/code/STM/stm32-quadrocopter/cmsis/core_cm3.h **** #define SCB_CCR_USERSETMPEND_Msk           (1UL << SCB_CCR_USERSETMPEND_Pos)              /*!< SCB 
 548:/home/enbin/Documents/code/STM/stm32-quadrocopter/cmsis/core_cm3.h **** 
 549:/home/enbin/Documents/code/STM/stm32-quadrocopter/cmsis/core_cm3.h **** #define SCB_CCR_NONBASETHRDENA_Pos          0U                                            /*!< SCB 
 550:/home/enbin/Documents/code/STM/stm32-quadrocopter/cmsis/core_cm3.h **** #define SCB_CCR_NONBASETHRDENA_Msk         (1UL /*<< SCB_CCR_NONBASETHRDENA_Pos*/)        /*!< SCB 
 551:/home/enbin/Documents/code/STM/stm32-quadrocopter/cmsis/core_cm3.h **** 
 552:/home/enbin/Documents/code/STM/stm32-quadrocopter/cmsis/core_cm3.h **** /* SCB System Handler Control and State Register Definitions */
 553:/home/enbin/Documents/code/STM/stm32-quadrocopter/cmsis/core_cm3.h **** #define SCB_SHCSR_USGFAULTENA_Pos          18U                                            /*!< SCB 
 554:/home/enbin/Documents/code/STM/stm32-quadrocopter/cmsis/core_cm3.h **** #define SCB_SHCSR_USGFAULTENA_Msk          (1UL << SCB_SHCSR_USGFAULTENA_Pos)             /*!< SCB 
 555:/home/enbin/Documents/code/STM/stm32-quadrocopter/cmsis/core_cm3.h **** 
 556:/home/enbin/Documents/code/STM/stm32-quadrocopter/cmsis/core_cm3.h **** #define SCB_SHCSR_BUSFAULTENA_Pos          17U                                            /*!< SCB 
 557:/home/enbin/Documents/code/STM/stm32-quadrocopter/cmsis/core_cm3.h **** #define SCB_SHCSR_BUSFAULTENA_Msk          (1UL << SCB_SHCSR_BUSFAULTENA_Pos)             /*!< SCB 
 558:/home/enbin/Documents/code/STM/stm32-quadrocopter/cmsis/core_cm3.h **** 
 559:/home/enbin/Documents/code/STM/stm32-quadrocopter/cmsis/core_cm3.h **** #define SCB_SHCSR_MEMFAULTENA_Pos          16U                                            /*!< SCB 
 560:/home/enbin/Documents/code/STM/stm32-quadrocopter/cmsis/core_cm3.h **** #define SCB_SHCSR_MEMFAULTENA_Msk          (1UL << SCB_SHCSR_MEMFAULTENA_Pos)             /*!< SCB 
 561:/home/enbin/Documents/code/STM/stm32-quadrocopter/cmsis/core_cm3.h **** 
 562:/home/enbin/Documents/code/STM/stm32-quadrocopter/cmsis/core_cm3.h **** #define SCB_SHCSR_SVCALLPENDED_Pos         15U                                            /*!< SCB 
 563:/home/enbin/Documents/code/STM/stm32-quadrocopter/cmsis/core_cm3.h **** #define SCB_SHCSR_SVCALLPENDED_Msk         (1UL << SCB_SHCSR_SVCALLPENDED_Pos)            /*!< SCB 
 564:/home/enbin/Documents/code/STM/stm32-quadrocopter/cmsis/core_cm3.h **** 
 565:/home/enbin/Documents/code/STM/stm32-quadrocopter/cmsis/core_cm3.h **** #define SCB_SHCSR_BUSFAULTPENDED_Pos       14U                                            /*!< SCB 
ARM GAS  /tmp/ccIxWip2.s 			page 35


 566:/home/enbin/Documents/code/STM/stm32-quadrocopter/cmsis/core_cm3.h **** #define SCB_SHCSR_BUSFAULTPENDED_Msk       (1UL << SCB_SHCSR_BUSFAULTPENDED_Pos)          /*!< SCB 
 567:/home/enbin/Documents/code/STM/stm32-quadrocopter/cmsis/core_cm3.h **** 
 568:/home/enbin/Documents/code/STM/stm32-quadrocopter/cmsis/core_cm3.h **** #define SCB_SHCSR_MEMFAULTPENDED_Pos       13U                                            /*!< SCB 
 569:/home/enbin/Documents/code/STM/stm32-quadrocopter/cmsis/core_cm3.h **** #define SCB_SHCSR_MEMFAULTPENDED_Msk       (1UL << SCB_SHCSR_MEMFAULTPENDED_Pos)          /*!< SCB 
 570:/home/enbin/Documents/code/STM/stm32-quadrocopter/cmsis/core_cm3.h **** 
 571:/home/enbin/Documents/code/STM/stm32-quadrocopter/cmsis/core_cm3.h **** #define SCB_SHCSR_USGFAULTPENDED_Pos       12U                                            /*!< SCB 
 572:/home/enbin/Documents/code/STM/stm32-quadrocopter/cmsis/core_cm3.h **** #define SCB_SHCSR_USGFAULTPENDED_Msk       (1UL << SCB_SHCSR_USGFAULTPENDED_Pos)          /*!< SCB 
 573:/home/enbin/Documents/code/STM/stm32-quadrocopter/cmsis/core_cm3.h **** 
 574:/home/enbin/Documents/code/STM/stm32-quadrocopter/cmsis/core_cm3.h **** #define SCB_SHCSR_SYSTICKACT_Pos           11U                                            /*!< SCB 
 575:/home/enbin/Documents/code/STM/stm32-quadrocopter/cmsis/core_cm3.h **** #define SCB_SHCSR_SYSTICKACT_Msk           (1UL << SCB_SHCSR_SYSTICKACT_Pos)              /*!< SCB 
 576:/home/enbin/Documents/code/STM/stm32-quadrocopter/cmsis/core_cm3.h **** 
 577:/home/enbin/Documents/code/STM/stm32-quadrocopter/cmsis/core_cm3.h **** #define SCB_SHCSR_PENDSVACT_Pos            10U                                            /*!< SCB 
 578:/home/enbin/Documents/code/STM/stm32-quadrocopter/cmsis/core_cm3.h **** #define SCB_SHCSR_PENDSVACT_Msk            (1UL << SCB_SHCSR_PENDSVACT_Pos)               /*!< SCB 
 579:/home/enbin/Documents/code/STM/stm32-quadrocopter/cmsis/core_cm3.h **** 
 580:/home/enbin/Documents/code/STM/stm32-quadrocopter/cmsis/core_cm3.h **** #define SCB_SHCSR_MONITORACT_Pos            8U                                            /*!< SCB 
 581:/home/enbin/Documents/code/STM/stm32-quadrocopter/cmsis/core_cm3.h **** #define SCB_SHCSR_MONITORACT_Msk           (1UL << SCB_SHCSR_MONITORACT_Pos)              /*!< SCB 
 582:/home/enbin/Documents/code/STM/stm32-quadrocopter/cmsis/core_cm3.h **** 
 583:/home/enbin/Documents/code/STM/stm32-quadrocopter/cmsis/core_cm3.h **** #define SCB_SHCSR_SVCALLACT_Pos             7U                                            /*!< SCB 
 584:/home/enbin/Documents/code/STM/stm32-quadrocopter/cmsis/core_cm3.h **** #define SCB_SHCSR_SVCALLACT_Msk            (1UL << SCB_SHCSR_SVCALLACT_Pos)               /*!< SCB 
 585:/home/enbin/Documents/code/STM/stm32-quadrocopter/cmsis/core_cm3.h **** 
 586:/home/enbin/Documents/code/STM/stm32-quadrocopter/cmsis/core_cm3.h **** #define SCB_SHCSR_USGFAULTACT_Pos           3U                                            /*!< SCB 
 587:/home/enbin/Documents/code/STM/stm32-quadrocopter/cmsis/core_cm3.h **** #define SCB_SHCSR_USGFAULTACT_Msk          (1UL << SCB_SHCSR_USGFAULTACT_Pos)             /*!< SCB 
 588:/home/enbin/Documents/code/STM/stm32-quadrocopter/cmsis/core_cm3.h **** 
 589:/home/enbin/Documents/code/STM/stm32-quadrocopter/cmsis/core_cm3.h **** #define SCB_SHCSR_BUSFAULTACT_Pos           1U                                            /*!< SCB 
 590:/home/enbin/Documents/code/STM/stm32-quadrocopter/cmsis/core_cm3.h **** #define SCB_SHCSR_BUSFAULTACT_Msk          (1UL << SCB_SHCSR_BUSFAULTACT_Pos)             /*!< SCB 
 591:/home/enbin/Documents/code/STM/stm32-quadrocopter/cmsis/core_cm3.h **** 
 592:/home/enbin/Documents/code/STM/stm32-quadrocopter/cmsis/core_cm3.h **** #define SCB_SHCSR_MEMFAULTACT_Pos           0U                                            /*!< SCB 
 593:/home/enbin/Documents/code/STM/stm32-quadrocopter/cmsis/core_cm3.h **** #define SCB_SHCSR_MEMFAULTACT_Msk          (1UL /*<< SCB_SHCSR_MEMFAULTACT_Pos*/)         /*!< SCB 
 594:/home/enbin/Documents/code/STM/stm32-quadrocopter/cmsis/core_cm3.h **** 
 595:/home/enbin/Documents/code/STM/stm32-quadrocopter/cmsis/core_cm3.h **** /* SCB Configurable Fault Status Register Definitions */
 596:/home/enbin/Documents/code/STM/stm32-quadrocopter/cmsis/core_cm3.h **** #define SCB_CFSR_USGFAULTSR_Pos            16U                                            /*!< SCB 
 597:/home/enbin/Documents/code/STM/stm32-quadrocopter/cmsis/core_cm3.h **** #define SCB_CFSR_USGFAULTSR_Msk            (0xFFFFUL << SCB_CFSR_USGFAULTSR_Pos)          /*!< SCB 
 598:/home/enbin/Documents/code/STM/stm32-quadrocopter/cmsis/core_cm3.h **** 
 599:/home/enbin/Documents/code/STM/stm32-quadrocopter/cmsis/core_cm3.h **** #define SCB_CFSR_BUSFAULTSR_Pos             8U                                            /*!< SCB 
 600:/home/enbin/Documents/code/STM/stm32-quadrocopter/cmsis/core_cm3.h **** #define SCB_CFSR_BUSFAULTSR_Msk            (0xFFUL << SCB_CFSR_BUSFAULTSR_Pos)            /*!< SCB 
 601:/home/enbin/Documents/code/STM/stm32-quadrocopter/cmsis/core_cm3.h **** 
 602:/home/enbin/Documents/code/STM/stm32-quadrocopter/cmsis/core_cm3.h **** #define SCB_CFSR_MEMFAULTSR_Pos             0U                                            /*!< SCB 
 603:/home/enbin/Documents/code/STM/stm32-quadrocopter/cmsis/core_cm3.h **** #define SCB_CFSR_MEMFAULTSR_Msk            (0xFFUL /*<< SCB_CFSR_MEMFAULTSR_Pos*/)        /*!< SCB 
 604:/home/enbin/Documents/code/STM/stm32-quadrocopter/cmsis/core_cm3.h **** 
 605:/home/enbin/Documents/code/STM/stm32-quadrocopter/cmsis/core_cm3.h **** /* SCB Hard Fault Status Register Definitions */
 606:/home/enbin/Documents/code/STM/stm32-quadrocopter/cmsis/core_cm3.h **** #define SCB_HFSR_DEBUGEVT_Pos              31U                                            /*!< SCB 
 607:/home/enbin/Documents/code/STM/stm32-quadrocopter/cmsis/core_cm3.h **** #define SCB_HFSR_DEBUGEVT_Msk              (1UL << SCB_HFSR_DEBUGEVT_Pos)                 /*!< SCB 
 608:/home/enbin/Documents/code/STM/stm32-quadrocopter/cmsis/core_cm3.h **** 
 609:/home/enbin/Documents/code/STM/stm32-quadrocopter/cmsis/core_cm3.h **** #define SCB_HFSR_FORCED_Pos                30U                                            /*!< SCB 
 610:/home/enbin/Documents/code/STM/stm32-quadrocopter/cmsis/core_cm3.h **** #define SCB_HFSR_FORCED_Msk                (1UL << SCB_HFSR_FORCED_Pos)                   /*!< SCB 
 611:/home/enbin/Documents/code/STM/stm32-quadrocopter/cmsis/core_cm3.h **** 
 612:/home/enbin/Documents/code/STM/stm32-quadrocopter/cmsis/core_cm3.h **** #define SCB_HFSR_VECTTBL_Pos                1U                                            /*!< SCB 
 613:/home/enbin/Documents/code/STM/stm32-quadrocopter/cmsis/core_cm3.h **** #define SCB_HFSR_VECTTBL_Msk               (1UL << SCB_HFSR_VECTTBL_Pos)                  /*!< SCB 
 614:/home/enbin/Documents/code/STM/stm32-quadrocopter/cmsis/core_cm3.h **** 
 615:/home/enbin/Documents/code/STM/stm32-quadrocopter/cmsis/core_cm3.h **** /* SCB Debug Fault Status Register Definitions */
 616:/home/enbin/Documents/code/STM/stm32-quadrocopter/cmsis/core_cm3.h **** #define SCB_DFSR_EXTERNAL_Pos               4U                                            /*!< SCB 
 617:/home/enbin/Documents/code/STM/stm32-quadrocopter/cmsis/core_cm3.h **** #define SCB_DFSR_EXTERNAL_Msk              (1UL << SCB_DFSR_EXTERNAL_Pos)                 /*!< SCB 
 618:/home/enbin/Documents/code/STM/stm32-quadrocopter/cmsis/core_cm3.h **** 
 619:/home/enbin/Documents/code/STM/stm32-quadrocopter/cmsis/core_cm3.h **** #define SCB_DFSR_VCATCH_Pos                 3U                                            /*!< SCB 
 620:/home/enbin/Documents/code/STM/stm32-quadrocopter/cmsis/core_cm3.h **** #define SCB_DFSR_VCATCH_Msk                (1UL << SCB_DFSR_VCATCH_Pos)                   /*!< SCB 
 621:/home/enbin/Documents/code/STM/stm32-quadrocopter/cmsis/core_cm3.h **** 
 622:/home/enbin/Documents/code/STM/stm32-quadrocopter/cmsis/core_cm3.h **** #define SCB_DFSR_DWTTRAP_Pos                2U                                            /*!< SCB 
ARM GAS  /tmp/ccIxWip2.s 			page 36


 623:/home/enbin/Documents/code/STM/stm32-quadrocopter/cmsis/core_cm3.h **** #define SCB_DFSR_DWTTRAP_Msk               (1UL << SCB_DFSR_DWTTRAP_Pos)                  /*!< SCB 
 624:/home/enbin/Documents/code/STM/stm32-quadrocopter/cmsis/core_cm3.h **** 
 625:/home/enbin/Documents/code/STM/stm32-quadrocopter/cmsis/core_cm3.h **** #define SCB_DFSR_BKPT_Pos                   1U                                            /*!< SCB 
 626:/home/enbin/Documents/code/STM/stm32-quadrocopter/cmsis/core_cm3.h **** #define SCB_DFSR_BKPT_Msk                  (1UL << SCB_DFSR_BKPT_Pos)                     /*!< SCB 
 627:/home/enbin/Documents/code/STM/stm32-quadrocopter/cmsis/core_cm3.h **** 
 628:/home/enbin/Documents/code/STM/stm32-quadrocopter/cmsis/core_cm3.h **** #define SCB_DFSR_HALTED_Pos                 0U                                            /*!< SCB 
 629:/home/enbin/Documents/code/STM/stm32-quadrocopter/cmsis/core_cm3.h **** #define SCB_DFSR_HALTED_Msk                (1UL /*<< SCB_DFSR_HALTED_Pos*/)               /*!< SCB 
 630:/home/enbin/Documents/code/STM/stm32-quadrocopter/cmsis/core_cm3.h **** 
 631:/home/enbin/Documents/code/STM/stm32-quadrocopter/cmsis/core_cm3.h **** /*@} end of group CMSIS_SCB */
 632:/home/enbin/Documents/code/STM/stm32-quadrocopter/cmsis/core_cm3.h **** 
 633:/home/enbin/Documents/code/STM/stm32-quadrocopter/cmsis/core_cm3.h **** 
 634:/home/enbin/Documents/code/STM/stm32-quadrocopter/cmsis/core_cm3.h **** /**
 635:/home/enbin/Documents/code/STM/stm32-quadrocopter/cmsis/core_cm3.h ****   \ingroup  CMSIS_core_register
 636:/home/enbin/Documents/code/STM/stm32-quadrocopter/cmsis/core_cm3.h ****   \defgroup CMSIS_SCnSCB System Controls not in SCB (SCnSCB)
 637:/home/enbin/Documents/code/STM/stm32-quadrocopter/cmsis/core_cm3.h ****   \brief    Type definitions for the System Control and ID Register not in the SCB
 638:/home/enbin/Documents/code/STM/stm32-quadrocopter/cmsis/core_cm3.h ****   @{
 639:/home/enbin/Documents/code/STM/stm32-quadrocopter/cmsis/core_cm3.h ****  */
 640:/home/enbin/Documents/code/STM/stm32-quadrocopter/cmsis/core_cm3.h **** 
 641:/home/enbin/Documents/code/STM/stm32-quadrocopter/cmsis/core_cm3.h **** /**
 642:/home/enbin/Documents/code/STM/stm32-quadrocopter/cmsis/core_cm3.h ****   \brief  Structure type to access the System Control and ID Register not in the SCB.
 643:/home/enbin/Documents/code/STM/stm32-quadrocopter/cmsis/core_cm3.h ****  */
 644:/home/enbin/Documents/code/STM/stm32-quadrocopter/cmsis/core_cm3.h **** typedef struct
 645:/home/enbin/Documents/code/STM/stm32-quadrocopter/cmsis/core_cm3.h **** {
 646:/home/enbin/Documents/code/STM/stm32-quadrocopter/cmsis/core_cm3.h ****         uint32_t RESERVED0[1U];
 647:/home/enbin/Documents/code/STM/stm32-quadrocopter/cmsis/core_cm3.h ****   __IM  uint32_t ICTR;                   /*!< Offset: 0x004 (R/ )  Interrupt Controller Type Regist
 648:/home/enbin/Documents/code/STM/stm32-quadrocopter/cmsis/core_cm3.h **** #if ((defined __CM3_REV) && (__CM3_REV >= 0x200U))
 649:/home/enbin/Documents/code/STM/stm32-quadrocopter/cmsis/core_cm3.h ****   __IOM uint32_t ACTLR;                  /*!< Offset: 0x008 (R/W)  Auxiliary Control Register */
 650:/home/enbin/Documents/code/STM/stm32-quadrocopter/cmsis/core_cm3.h **** #else
 651:/home/enbin/Documents/code/STM/stm32-quadrocopter/cmsis/core_cm3.h ****         uint32_t RESERVED1[1U];
 652:/home/enbin/Documents/code/STM/stm32-quadrocopter/cmsis/core_cm3.h **** #endif
 653:/home/enbin/Documents/code/STM/stm32-quadrocopter/cmsis/core_cm3.h **** } SCnSCB_Type;
 654:/home/enbin/Documents/code/STM/stm32-quadrocopter/cmsis/core_cm3.h **** 
 655:/home/enbin/Documents/code/STM/stm32-quadrocopter/cmsis/core_cm3.h **** /* Interrupt Controller Type Register Definitions */
 656:/home/enbin/Documents/code/STM/stm32-quadrocopter/cmsis/core_cm3.h **** #define SCnSCB_ICTR_INTLINESNUM_Pos         0U                                         /*!< ICTR: I
 657:/home/enbin/Documents/code/STM/stm32-quadrocopter/cmsis/core_cm3.h **** #define SCnSCB_ICTR_INTLINESNUM_Msk        (0xFUL /*<< SCnSCB_ICTR_INTLINESNUM_Pos*/)  /*!< ICTR: I
 658:/home/enbin/Documents/code/STM/stm32-quadrocopter/cmsis/core_cm3.h **** 
 659:/home/enbin/Documents/code/STM/stm32-quadrocopter/cmsis/core_cm3.h **** /* Auxiliary Control Register Definitions */
 660:/home/enbin/Documents/code/STM/stm32-quadrocopter/cmsis/core_cm3.h **** 
 661:/home/enbin/Documents/code/STM/stm32-quadrocopter/cmsis/core_cm3.h **** #define SCnSCB_ACTLR_DISFOLD_Pos            2U                                         /*!< ACTLR: 
 662:/home/enbin/Documents/code/STM/stm32-quadrocopter/cmsis/core_cm3.h **** #define SCnSCB_ACTLR_DISFOLD_Msk           (1UL << SCnSCB_ACTLR_DISFOLD_Pos)           /*!< ACTLR: 
 663:/home/enbin/Documents/code/STM/stm32-quadrocopter/cmsis/core_cm3.h **** 
 664:/home/enbin/Documents/code/STM/stm32-quadrocopter/cmsis/core_cm3.h **** #define SCnSCB_ACTLR_DISDEFWBUF_Pos         1U                                         /*!< ACTLR: 
 665:/home/enbin/Documents/code/STM/stm32-quadrocopter/cmsis/core_cm3.h **** #define SCnSCB_ACTLR_DISDEFWBUF_Msk        (1UL << SCnSCB_ACTLR_DISDEFWBUF_Pos)        /*!< ACTLR: 
 666:/home/enbin/Documents/code/STM/stm32-quadrocopter/cmsis/core_cm3.h **** 
 667:/home/enbin/Documents/code/STM/stm32-quadrocopter/cmsis/core_cm3.h **** #define SCnSCB_ACTLR_DISMCYCINT_Pos         0U                                         /*!< ACTLR: 
 668:/home/enbin/Documents/code/STM/stm32-quadrocopter/cmsis/core_cm3.h **** #define SCnSCB_ACTLR_DISMCYCINT_Msk        (1UL /*<< SCnSCB_ACTLR_DISMCYCINT_Pos*/)    /*!< ACTLR: 
 669:/home/enbin/Documents/code/STM/stm32-quadrocopter/cmsis/core_cm3.h **** 
 670:/home/enbin/Documents/code/STM/stm32-quadrocopter/cmsis/core_cm3.h **** /*@} end of group CMSIS_SCnotSCB */
 671:/home/enbin/Documents/code/STM/stm32-quadrocopter/cmsis/core_cm3.h **** 
 672:/home/enbin/Documents/code/STM/stm32-quadrocopter/cmsis/core_cm3.h **** 
 673:/home/enbin/Documents/code/STM/stm32-quadrocopter/cmsis/core_cm3.h **** /**
 674:/home/enbin/Documents/code/STM/stm32-quadrocopter/cmsis/core_cm3.h ****   \ingroup  CMSIS_core_register
 675:/home/enbin/Documents/code/STM/stm32-quadrocopter/cmsis/core_cm3.h ****   \defgroup CMSIS_SysTick     System Tick Timer (SysTick)
 676:/home/enbin/Documents/code/STM/stm32-quadrocopter/cmsis/core_cm3.h ****   \brief    Type definitions for the System Timer Registers.
 677:/home/enbin/Documents/code/STM/stm32-quadrocopter/cmsis/core_cm3.h ****   @{
 678:/home/enbin/Documents/code/STM/stm32-quadrocopter/cmsis/core_cm3.h ****  */
 679:/home/enbin/Documents/code/STM/stm32-quadrocopter/cmsis/core_cm3.h **** 
ARM GAS  /tmp/ccIxWip2.s 			page 37


 680:/home/enbin/Documents/code/STM/stm32-quadrocopter/cmsis/core_cm3.h **** /**
 681:/home/enbin/Documents/code/STM/stm32-quadrocopter/cmsis/core_cm3.h ****   \brief  Structure type to access the System Timer (SysTick).
 682:/home/enbin/Documents/code/STM/stm32-quadrocopter/cmsis/core_cm3.h ****  */
 683:/home/enbin/Documents/code/STM/stm32-quadrocopter/cmsis/core_cm3.h **** typedef struct
 684:/home/enbin/Documents/code/STM/stm32-quadrocopter/cmsis/core_cm3.h **** {
 685:/home/enbin/Documents/code/STM/stm32-quadrocopter/cmsis/core_cm3.h ****   __IOM uint32_t CTRL;                   /*!< Offset: 0x000 (R/W)  SysTick Control and Status Regis
 686:/home/enbin/Documents/code/STM/stm32-quadrocopter/cmsis/core_cm3.h ****   __IOM uint32_t LOAD;                   /*!< Offset: 0x004 (R/W)  SysTick Reload Value Register */
 687:/home/enbin/Documents/code/STM/stm32-quadrocopter/cmsis/core_cm3.h ****   __IOM uint32_t VAL;                    /*!< Offset: 0x008 (R/W)  SysTick Current Value Register *
 688:/home/enbin/Documents/code/STM/stm32-quadrocopter/cmsis/core_cm3.h ****   __IM  uint32_t CALIB;                  /*!< Offset: 0x00C (R/ )  SysTick Calibration Register */
 689:/home/enbin/Documents/code/STM/stm32-quadrocopter/cmsis/core_cm3.h **** } SysTick_Type;
 690:/home/enbin/Documents/code/STM/stm32-quadrocopter/cmsis/core_cm3.h **** 
 691:/home/enbin/Documents/code/STM/stm32-quadrocopter/cmsis/core_cm3.h **** /* SysTick Control / Status Register Definitions */
 692:/home/enbin/Documents/code/STM/stm32-quadrocopter/cmsis/core_cm3.h **** #define SysTick_CTRL_COUNTFLAG_Pos         16U                                            /*!< SysT
 693:/home/enbin/Documents/code/STM/stm32-quadrocopter/cmsis/core_cm3.h **** #define SysTick_CTRL_COUNTFLAG_Msk         (1UL << SysTick_CTRL_COUNTFLAG_Pos)            /*!< SysT
 694:/home/enbin/Documents/code/STM/stm32-quadrocopter/cmsis/core_cm3.h **** 
 695:/home/enbin/Documents/code/STM/stm32-quadrocopter/cmsis/core_cm3.h **** #define SysTick_CTRL_CLKSOURCE_Pos          2U                                            /*!< SysT
 696:/home/enbin/Documents/code/STM/stm32-quadrocopter/cmsis/core_cm3.h **** #define SysTick_CTRL_CLKSOURCE_Msk         (1UL << SysTick_CTRL_CLKSOURCE_Pos)            /*!< SysT
 697:/home/enbin/Documents/code/STM/stm32-quadrocopter/cmsis/core_cm3.h **** 
 698:/home/enbin/Documents/code/STM/stm32-quadrocopter/cmsis/core_cm3.h **** #define SysTick_CTRL_TICKINT_Pos            1U                                            /*!< SysT
 699:/home/enbin/Documents/code/STM/stm32-quadrocopter/cmsis/core_cm3.h **** #define SysTick_CTRL_TICKINT_Msk           (1UL << SysTick_CTRL_TICKINT_Pos)              /*!< SysT
 700:/home/enbin/Documents/code/STM/stm32-quadrocopter/cmsis/core_cm3.h **** 
 701:/home/enbin/Documents/code/STM/stm32-quadrocopter/cmsis/core_cm3.h **** #define SysTick_CTRL_ENABLE_Pos             0U                                            /*!< SysT
 702:/home/enbin/Documents/code/STM/stm32-quadrocopter/cmsis/core_cm3.h **** #define SysTick_CTRL_ENABLE_Msk            (1UL /*<< SysTick_CTRL_ENABLE_Pos*/)           /*!< SysT
 703:/home/enbin/Documents/code/STM/stm32-quadrocopter/cmsis/core_cm3.h **** 
 704:/home/enbin/Documents/code/STM/stm32-quadrocopter/cmsis/core_cm3.h **** /* SysTick Reload Register Definitions */
 705:/home/enbin/Documents/code/STM/stm32-quadrocopter/cmsis/core_cm3.h **** #define SysTick_LOAD_RELOAD_Pos             0U                                            /*!< SysT
 706:/home/enbin/Documents/code/STM/stm32-quadrocopter/cmsis/core_cm3.h **** #define SysTick_LOAD_RELOAD_Msk            (0xFFFFFFUL /*<< SysTick_LOAD_RELOAD_Pos*/)    /*!< SysT
 707:/home/enbin/Documents/code/STM/stm32-quadrocopter/cmsis/core_cm3.h **** 
 708:/home/enbin/Documents/code/STM/stm32-quadrocopter/cmsis/core_cm3.h **** /* SysTick Current Register Definitions */
 709:/home/enbin/Documents/code/STM/stm32-quadrocopter/cmsis/core_cm3.h **** #define SysTick_VAL_CURRENT_Pos             0U                                            /*!< SysT
 710:/home/enbin/Documents/code/STM/stm32-quadrocopter/cmsis/core_cm3.h **** #define SysTick_VAL_CURRENT_Msk            (0xFFFFFFUL /*<< SysTick_VAL_CURRENT_Pos*/)    /*!< SysT
 711:/home/enbin/Documents/code/STM/stm32-quadrocopter/cmsis/core_cm3.h **** 
 712:/home/enbin/Documents/code/STM/stm32-quadrocopter/cmsis/core_cm3.h **** /* SysTick Calibration Register Definitions */
 713:/home/enbin/Documents/code/STM/stm32-quadrocopter/cmsis/core_cm3.h **** #define SysTick_CALIB_NOREF_Pos            31U                                            /*!< SysT
 714:/home/enbin/Documents/code/STM/stm32-quadrocopter/cmsis/core_cm3.h **** #define SysTick_CALIB_NOREF_Msk            (1UL << SysTick_CALIB_NOREF_Pos)               /*!< SysT
 715:/home/enbin/Documents/code/STM/stm32-quadrocopter/cmsis/core_cm3.h **** 
 716:/home/enbin/Documents/code/STM/stm32-quadrocopter/cmsis/core_cm3.h **** #define SysTick_CALIB_SKEW_Pos             30U                                            /*!< SysT
 717:/home/enbin/Documents/code/STM/stm32-quadrocopter/cmsis/core_cm3.h **** #define SysTick_CALIB_SKEW_Msk             (1UL << SysTick_CALIB_SKEW_Pos)                /*!< SysT
 718:/home/enbin/Documents/code/STM/stm32-quadrocopter/cmsis/core_cm3.h **** 
 719:/home/enbin/Documents/code/STM/stm32-quadrocopter/cmsis/core_cm3.h **** #define SysTick_CALIB_TENMS_Pos             0U                                            /*!< SysT
 720:/home/enbin/Documents/code/STM/stm32-quadrocopter/cmsis/core_cm3.h **** #define SysTick_CALIB_TENMS_Msk            (0xFFFFFFUL /*<< SysTick_CALIB_TENMS_Pos*/)    /*!< SysT
 721:/home/enbin/Documents/code/STM/stm32-quadrocopter/cmsis/core_cm3.h **** 
 722:/home/enbin/Documents/code/STM/stm32-quadrocopter/cmsis/core_cm3.h **** /*@} end of group CMSIS_SysTick */
 723:/home/enbin/Documents/code/STM/stm32-quadrocopter/cmsis/core_cm3.h **** 
 724:/home/enbin/Documents/code/STM/stm32-quadrocopter/cmsis/core_cm3.h **** 
 725:/home/enbin/Documents/code/STM/stm32-quadrocopter/cmsis/core_cm3.h **** /**
 726:/home/enbin/Documents/code/STM/stm32-quadrocopter/cmsis/core_cm3.h ****   \ingroup  CMSIS_core_register
 727:/home/enbin/Documents/code/STM/stm32-quadrocopter/cmsis/core_cm3.h ****   \defgroup CMSIS_ITM     Instrumentation Trace Macrocell (ITM)
 728:/home/enbin/Documents/code/STM/stm32-quadrocopter/cmsis/core_cm3.h ****   \brief    Type definitions for the Instrumentation Trace Macrocell (ITM)
 729:/home/enbin/Documents/code/STM/stm32-quadrocopter/cmsis/core_cm3.h ****   @{
 730:/home/enbin/Documents/code/STM/stm32-quadrocopter/cmsis/core_cm3.h ****  */
 731:/home/enbin/Documents/code/STM/stm32-quadrocopter/cmsis/core_cm3.h **** 
 732:/home/enbin/Documents/code/STM/stm32-quadrocopter/cmsis/core_cm3.h **** /**
 733:/home/enbin/Documents/code/STM/stm32-quadrocopter/cmsis/core_cm3.h ****   \brief  Structure type to access the Instrumentation Trace Macrocell Register (ITM).
 734:/home/enbin/Documents/code/STM/stm32-quadrocopter/cmsis/core_cm3.h ****  */
 735:/home/enbin/Documents/code/STM/stm32-quadrocopter/cmsis/core_cm3.h **** typedef struct
 736:/home/enbin/Documents/code/STM/stm32-quadrocopter/cmsis/core_cm3.h **** {
ARM GAS  /tmp/ccIxWip2.s 			page 38


 737:/home/enbin/Documents/code/STM/stm32-quadrocopter/cmsis/core_cm3.h ****   __OM  union
 738:/home/enbin/Documents/code/STM/stm32-quadrocopter/cmsis/core_cm3.h ****   {
 739:/home/enbin/Documents/code/STM/stm32-quadrocopter/cmsis/core_cm3.h ****     __OM  uint8_t    u8;                 /*!< Offset: 0x000 ( /W)  ITM Stimulus Port 8-bit */
 740:/home/enbin/Documents/code/STM/stm32-quadrocopter/cmsis/core_cm3.h ****     __OM  uint16_t   u16;                /*!< Offset: 0x000 ( /W)  ITM Stimulus Port 16-bit */
 741:/home/enbin/Documents/code/STM/stm32-quadrocopter/cmsis/core_cm3.h ****     __OM  uint32_t   u32;                /*!< Offset: 0x000 ( /W)  ITM Stimulus Port 32-bit */
 742:/home/enbin/Documents/code/STM/stm32-quadrocopter/cmsis/core_cm3.h ****   }  PORT [32U];                         /*!< Offset: 0x000 ( /W)  ITM Stimulus Port Registers */
 743:/home/enbin/Documents/code/STM/stm32-quadrocopter/cmsis/core_cm3.h ****         uint32_t RESERVED0[864U];
 744:/home/enbin/Documents/code/STM/stm32-quadrocopter/cmsis/core_cm3.h ****   __IOM uint32_t TER;                    /*!< Offset: 0xE00 (R/W)  ITM Trace Enable Register */
 745:/home/enbin/Documents/code/STM/stm32-quadrocopter/cmsis/core_cm3.h ****         uint32_t RESERVED1[15U];
 746:/home/enbin/Documents/code/STM/stm32-quadrocopter/cmsis/core_cm3.h ****   __IOM uint32_t TPR;                    /*!< Offset: 0xE40 (R/W)  ITM Trace Privilege Register */
 747:/home/enbin/Documents/code/STM/stm32-quadrocopter/cmsis/core_cm3.h ****         uint32_t RESERVED2[15U];
 748:/home/enbin/Documents/code/STM/stm32-quadrocopter/cmsis/core_cm3.h ****   __IOM uint32_t TCR;                    /*!< Offset: 0xE80 (R/W)  ITM Trace Control Register */
 749:/home/enbin/Documents/code/STM/stm32-quadrocopter/cmsis/core_cm3.h ****         uint32_t RESERVED3[29U];
 750:/home/enbin/Documents/code/STM/stm32-quadrocopter/cmsis/core_cm3.h ****   __OM  uint32_t IWR;                    /*!< Offset: 0xEF8 ( /W)  ITM Integration Write Register *
 751:/home/enbin/Documents/code/STM/stm32-quadrocopter/cmsis/core_cm3.h ****   __IM  uint32_t IRR;                    /*!< Offset: 0xEFC (R/ )  ITM Integration Read Register */
 752:/home/enbin/Documents/code/STM/stm32-quadrocopter/cmsis/core_cm3.h ****   __IOM uint32_t IMCR;                   /*!< Offset: 0xF00 (R/W)  ITM Integration Mode Control Reg
 753:/home/enbin/Documents/code/STM/stm32-quadrocopter/cmsis/core_cm3.h ****         uint32_t RESERVED4[43U];
 754:/home/enbin/Documents/code/STM/stm32-quadrocopter/cmsis/core_cm3.h ****   __OM  uint32_t LAR;                    /*!< Offset: 0xFB0 ( /W)  ITM Lock Access Register */
 755:/home/enbin/Documents/code/STM/stm32-quadrocopter/cmsis/core_cm3.h ****   __IM  uint32_t LSR;                    /*!< Offset: 0xFB4 (R/ )  ITM Lock Status Register */
 756:/home/enbin/Documents/code/STM/stm32-quadrocopter/cmsis/core_cm3.h ****         uint32_t RESERVED5[6U];
 757:/home/enbin/Documents/code/STM/stm32-quadrocopter/cmsis/core_cm3.h ****   __IM  uint32_t PID4;                   /*!< Offset: 0xFD0 (R/ )  ITM Peripheral Identification Re
 758:/home/enbin/Documents/code/STM/stm32-quadrocopter/cmsis/core_cm3.h ****   __IM  uint32_t PID5;                   /*!< Offset: 0xFD4 (R/ )  ITM Peripheral Identification Re
 759:/home/enbin/Documents/code/STM/stm32-quadrocopter/cmsis/core_cm3.h ****   __IM  uint32_t PID6;                   /*!< Offset: 0xFD8 (R/ )  ITM Peripheral Identification Re
 760:/home/enbin/Documents/code/STM/stm32-quadrocopter/cmsis/core_cm3.h ****   __IM  uint32_t PID7;                   /*!< Offset: 0xFDC (R/ )  ITM Peripheral Identification Re
 761:/home/enbin/Documents/code/STM/stm32-quadrocopter/cmsis/core_cm3.h ****   __IM  uint32_t PID0;                   /*!< Offset: 0xFE0 (R/ )  ITM Peripheral Identification Re
 762:/home/enbin/Documents/code/STM/stm32-quadrocopter/cmsis/core_cm3.h ****   __IM  uint32_t PID1;                   /*!< Offset: 0xFE4 (R/ )  ITM Peripheral Identification Re
 763:/home/enbin/Documents/code/STM/stm32-quadrocopter/cmsis/core_cm3.h ****   __IM  uint32_t PID2;                   /*!< Offset: 0xFE8 (R/ )  ITM Peripheral Identification Re
 764:/home/enbin/Documents/code/STM/stm32-quadrocopter/cmsis/core_cm3.h ****   __IM  uint32_t PID3;                   /*!< Offset: 0xFEC (R/ )  ITM Peripheral Identification Re
 765:/home/enbin/Documents/code/STM/stm32-quadrocopter/cmsis/core_cm3.h ****   __IM  uint32_t CID0;                   /*!< Offset: 0xFF0 (R/ )  ITM Component  Identification Re
 766:/home/enbin/Documents/code/STM/stm32-quadrocopter/cmsis/core_cm3.h ****   __IM  uint32_t CID1;                   /*!< Offset: 0xFF4 (R/ )  ITM Component  Identification Re
 767:/home/enbin/Documents/code/STM/stm32-quadrocopter/cmsis/core_cm3.h ****   __IM  uint32_t CID2;                   /*!< Offset: 0xFF8 (R/ )  ITM Component  Identification Re
 768:/home/enbin/Documents/code/STM/stm32-quadrocopter/cmsis/core_cm3.h ****   __IM  uint32_t CID3;                   /*!< Offset: 0xFFC (R/ )  ITM Component  Identification Re
 769:/home/enbin/Documents/code/STM/stm32-quadrocopter/cmsis/core_cm3.h **** } ITM_Type;
 770:/home/enbin/Documents/code/STM/stm32-quadrocopter/cmsis/core_cm3.h **** 
 771:/home/enbin/Documents/code/STM/stm32-quadrocopter/cmsis/core_cm3.h **** /* ITM Trace Privilege Register Definitions */
 772:/home/enbin/Documents/code/STM/stm32-quadrocopter/cmsis/core_cm3.h **** #define ITM_TPR_PRIVMASK_Pos                0U                                            /*!< ITM 
 773:/home/enbin/Documents/code/STM/stm32-quadrocopter/cmsis/core_cm3.h **** #define ITM_TPR_PRIVMASK_Msk               (0xFUL /*<< ITM_TPR_PRIVMASK_Pos*/)            /*!< ITM 
 774:/home/enbin/Documents/code/STM/stm32-quadrocopter/cmsis/core_cm3.h **** 
 775:/home/enbin/Documents/code/STM/stm32-quadrocopter/cmsis/core_cm3.h **** /* ITM Trace Control Register Definitions */
 776:/home/enbin/Documents/code/STM/stm32-quadrocopter/cmsis/core_cm3.h **** #define ITM_TCR_BUSY_Pos                   23U                                            /*!< ITM 
 777:/home/enbin/Documents/code/STM/stm32-quadrocopter/cmsis/core_cm3.h **** #define ITM_TCR_BUSY_Msk                   (1UL << ITM_TCR_BUSY_Pos)                      /*!< ITM 
 778:/home/enbin/Documents/code/STM/stm32-quadrocopter/cmsis/core_cm3.h **** 
 779:/home/enbin/Documents/code/STM/stm32-quadrocopter/cmsis/core_cm3.h **** #define ITM_TCR_TraceBusID_Pos             16U                                            /*!< ITM 
 780:/home/enbin/Documents/code/STM/stm32-quadrocopter/cmsis/core_cm3.h **** #define ITM_TCR_TraceBusID_Msk             (0x7FUL << ITM_TCR_TraceBusID_Pos)             /*!< ITM 
 781:/home/enbin/Documents/code/STM/stm32-quadrocopter/cmsis/core_cm3.h **** 
 782:/home/enbin/Documents/code/STM/stm32-quadrocopter/cmsis/core_cm3.h **** #define ITM_TCR_GTSFREQ_Pos                10U                                            /*!< ITM 
 783:/home/enbin/Documents/code/STM/stm32-quadrocopter/cmsis/core_cm3.h **** #define ITM_TCR_GTSFREQ_Msk                (3UL << ITM_TCR_GTSFREQ_Pos)                   /*!< ITM 
 784:/home/enbin/Documents/code/STM/stm32-quadrocopter/cmsis/core_cm3.h **** 
 785:/home/enbin/Documents/code/STM/stm32-quadrocopter/cmsis/core_cm3.h **** #define ITM_TCR_TSPrescale_Pos              8U                                            /*!< ITM 
 786:/home/enbin/Documents/code/STM/stm32-quadrocopter/cmsis/core_cm3.h **** #define ITM_TCR_TSPrescale_Msk             (3UL << ITM_TCR_TSPrescale_Pos)                /*!< ITM 
 787:/home/enbin/Documents/code/STM/stm32-quadrocopter/cmsis/core_cm3.h **** 
 788:/home/enbin/Documents/code/STM/stm32-quadrocopter/cmsis/core_cm3.h **** #define ITM_TCR_SWOENA_Pos                  4U                                            /*!< ITM 
 789:/home/enbin/Documents/code/STM/stm32-quadrocopter/cmsis/core_cm3.h **** #define ITM_TCR_SWOENA_Msk                 (1UL << ITM_TCR_SWOENA_Pos)                    /*!< ITM 
 790:/home/enbin/Documents/code/STM/stm32-quadrocopter/cmsis/core_cm3.h **** 
 791:/home/enbin/Documents/code/STM/stm32-quadrocopter/cmsis/core_cm3.h **** #define ITM_TCR_DWTENA_Pos                  3U                                            /*!< ITM 
 792:/home/enbin/Documents/code/STM/stm32-quadrocopter/cmsis/core_cm3.h **** #define ITM_TCR_DWTENA_Msk                 (1UL << ITM_TCR_DWTENA_Pos)                    /*!< ITM 
 793:/home/enbin/Documents/code/STM/stm32-quadrocopter/cmsis/core_cm3.h **** 
ARM GAS  /tmp/ccIxWip2.s 			page 39


 794:/home/enbin/Documents/code/STM/stm32-quadrocopter/cmsis/core_cm3.h **** #define ITM_TCR_SYNCENA_Pos                 2U                                            /*!< ITM 
 795:/home/enbin/Documents/code/STM/stm32-quadrocopter/cmsis/core_cm3.h **** #define ITM_TCR_SYNCENA_Msk                (1UL << ITM_TCR_SYNCENA_Pos)                   /*!< ITM 
 796:/home/enbin/Documents/code/STM/stm32-quadrocopter/cmsis/core_cm3.h **** 
 797:/home/enbin/Documents/code/STM/stm32-quadrocopter/cmsis/core_cm3.h **** #define ITM_TCR_TSENA_Pos                   1U                                            /*!< ITM 
 798:/home/enbin/Documents/code/STM/stm32-quadrocopter/cmsis/core_cm3.h **** #define ITM_TCR_TSENA_Msk                  (1UL << ITM_TCR_TSENA_Pos)                     /*!< ITM 
 799:/home/enbin/Documents/code/STM/stm32-quadrocopter/cmsis/core_cm3.h **** 
 800:/home/enbin/Documents/code/STM/stm32-quadrocopter/cmsis/core_cm3.h **** #define ITM_TCR_ITMENA_Pos                  0U                                            /*!< ITM 
 801:/home/enbin/Documents/code/STM/stm32-quadrocopter/cmsis/core_cm3.h **** #define ITM_TCR_ITMENA_Msk                 (1UL /*<< ITM_TCR_ITMENA_Pos*/)                /*!< ITM 
 802:/home/enbin/Documents/code/STM/stm32-quadrocopter/cmsis/core_cm3.h **** 
 803:/home/enbin/Documents/code/STM/stm32-quadrocopter/cmsis/core_cm3.h **** /* ITM Integration Write Register Definitions */
 804:/home/enbin/Documents/code/STM/stm32-quadrocopter/cmsis/core_cm3.h **** #define ITM_IWR_ATVALIDM_Pos                0U                                            /*!< ITM 
 805:/home/enbin/Documents/code/STM/stm32-quadrocopter/cmsis/core_cm3.h **** #define ITM_IWR_ATVALIDM_Msk               (1UL /*<< ITM_IWR_ATVALIDM_Pos*/)              /*!< ITM 
 806:/home/enbin/Documents/code/STM/stm32-quadrocopter/cmsis/core_cm3.h **** 
 807:/home/enbin/Documents/code/STM/stm32-quadrocopter/cmsis/core_cm3.h **** /* ITM Integration Read Register Definitions */
 808:/home/enbin/Documents/code/STM/stm32-quadrocopter/cmsis/core_cm3.h **** #define ITM_IRR_ATREADYM_Pos                0U                                            /*!< ITM 
 809:/home/enbin/Documents/code/STM/stm32-quadrocopter/cmsis/core_cm3.h **** #define ITM_IRR_ATREADYM_Msk               (1UL /*<< ITM_IRR_ATREADYM_Pos*/)              /*!< ITM 
 810:/home/enbin/Documents/code/STM/stm32-quadrocopter/cmsis/core_cm3.h **** 
 811:/home/enbin/Documents/code/STM/stm32-quadrocopter/cmsis/core_cm3.h **** /* ITM Integration Mode Control Register Definitions */
 812:/home/enbin/Documents/code/STM/stm32-quadrocopter/cmsis/core_cm3.h **** #define ITM_IMCR_INTEGRATION_Pos            0U                                            /*!< ITM 
 813:/home/enbin/Documents/code/STM/stm32-quadrocopter/cmsis/core_cm3.h **** #define ITM_IMCR_INTEGRATION_Msk           (1UL /*<< ITM_IMCR_INTEGRATION_Pos*/)          /*!< ITM 
 814:/home/enbin/Documents/code/STM/stm32-quadrocopter/cmsis/core_cm3.h **** 
 815:/home/enbin/Documents/code/STM/stm32-quadrocopter/cmsis/core_cm3.h **** /* ITM Lock Status Register Definitions */
 816:/home/enbin/Documents/code/STM/stm32-quadrocopter/cmsis/core_cm3.h **** #define ITM_LSR_ByteAcc_Pos                 2U                                            /*!< ITM 
 817:/home/enbin/Documents/code/STM/stm32-quadrocopter/cmsis/core_cm3.h **** #define ITM_LSR_ByteAcc_Msk                (1UL << ITM_LSR_ByteAcc_Pos)                   /*!< ITM 
 818:/home/enbin/Documents/code/STM/stm32-quadrocopter/cmsis/core_cm3.h **** 
 819:/home/enbin/Documents/code/STM/stm32-quadrocopter/cmsis/core_cm3.h **** #define ITM_LSR_Access_Pos                  1U                                            /*!< ITM 
 820:/home/enbin/Documents/code/STM/stm32-quadrocopter/cmsis/core_cm3.h **** #define ITM_LSR_Access_Msk                 (1UL << ITM_LSR_Access_Pos)                    /*!< ITM 
 821:/home/enbin/Documents/code/STM/stm32-quadrocopter/cmsis/core_cm3.h **** 
 822:/home/enbin/Documents/code/STM/stm32-quadrocopter/cmsis/core_cm3.h **** #define ITM_LSR_Present_Pos                 0U                                            /*!< ITM 
 823:/home/enbin/Documents/code/STM/stm32-quadrocopter/cmsis/core_cm3.h **** #define ITM_LSR_Present_Msk                (1UL /*<< ITM_LSR_Present_Pos*/)               /*!< ITM 
 824:/home/enbin/Documents/code/STM/stm32-quadrocopter/cmsis/core_cm3.h **** 
 825:/home/enbin/Documents/code/STM/stm32-quadrocopter/cmsis/core_cm3.h **** /*@}*/ /* end of group CMSIS_ITM */
 826:/home/enbin/Documents/code/STM/stm32-quadrocopter/cmsis/core_cm3.h **** 
 827:/home/enbin/Documents/code/STM/stm32-quadrocopter/cmsis/core_cm3.h **** 
 828:/home/enbin/Documents/code/STM/stm32-quadrocopter/cmsis/core_cm3.h **** /**
 829:/home/enbin/Documents/code/STM/stm32-quadrocopter/cmsis/core_cm3.h ****   \ingroup  CMSIS_core_register
 830:/home/enbin/Documents/code/STM/stm32-quadrocopter/cmsis/core_cm3.h ****   \defgroup CMSIS_DWT     Data Watchpoint and Trace (DWT)
 831:/home/enbin/Documents/code/STM/stm32-quadrocopter/cmsis/core_cm3.h ****   \brief    Type definitions for the Data Watchpoint and Trace (DWT)
 832:/home/enbin/Documents/code/STM/stm32-quadrocopter/cmsis/core_cm3.h ****   @{
 833:/home/enbin/Documents/code/STM/stm32-quadrocopter/cmsis/core_cm3.h ****  */
 834:/home/enbin/Documents/code/STM/stm32-quadrocopter/cmsis/core_cm3.h **** 
 835:/home/enbin/Documents/code/STM/stm32-quadrocopter/cmsis/core_cm3.h **** /**
 836:/home/enbin/Documents/code/STM/stm32-quadrocopter/cmsis/core_cm3.h ****   \brief  Structure type to access the Data Watchpoint and Trace Register (DWT).
 837:/home/enbin/Documents/code/STM/stm32-quadrocopter/cmsis/core_cm3.h ****  */
 838:/home/enbin/Documents/code/STM/stm32-quadrocopter/cmsis/core_cm3.h **** typedef struct
 839:/home/enbin/Documents/code/STM/stm32-quadrocopter/cmsis/core_cm3.h **** {
 840:/home/enbin/Documents/code/STM/stm32-quadrocopter/cmsis/core_cm3.h ****   __IOM uint32_t CTRL;                   /*!< Offset: 0x000 (R/W)  Control Register */
 841:/home/enbin/Documents/code/STM/stm32-quadrocopter/cmsis/core_cm3.h ****   __IOM uint32_t CYCCNT;                 /*!< Offset: 0x004 (R/W)  Cycle Count Register */
 842:/home/enbin/Documents/code/STM/stm32-quadrocopter/cmsis/core_cm3.h ****   __IOM uint32_t CPICNT;                 /*!< Offset: 0x008 (R/W)  CPI Count Register */
 843:/home/enbin/Documents/code/STM/stm32-quadrocopter/cmsis/core_cm3.h ****   __IOM uint32_t EXCCNT;                 /*!< Offset: 0x00C (R/W)  Exception Overhead Count Registe
 844:/home/enbin/Documents/code/STM/stm32-quadrocopter/cmsis/core_cm3.h ****   __IOM uint32_t SLEEPCNT;               /*!< Offset: 0x010 (R/W)  Sleep Count Register */
 845:/home/enbin/Documents/code/STM/stm32-quadrocopter/cmsis/core_cm3.h ****   __IOM uint32_t LSUCNT;                 /*!< Offset: 0x014 (R/W)  LSU Count Register */
 846:/home/enbin/Documents/code/STM/stm32-quadrocopter/cmsis/core_cm3.h ****   __IOM uint32_t FOLDCNT;                /*!< Offset: 0x018 (R/W)  Folded-instruction Count Registe
 847:/home/enbin/Documents/code/STM/stm32-quadrocopter/cmsis/core_cm3.h ****   __IM  uint32_t PCSR;                   /*!< Offset: 0x01C (R/ )  Program Counter Sample Register 
 848:/home/enbin/Documents/code/STM/stm32-quadrocopter/cmsis/core_cm3.h ****   __IOM uint32_t COMP0;                  /*!< Offset: 0x020 (R/W)  Comparator Register 0 */
 849:/home/enbin/Documents/code/STM/stm32-quadrocopter/cmsis/core_cm3.h ****   __IOM uint32_t MASK0;                  /*!< Offset: 0x024 (R/W)  Mask Register 0 */
 850:/home/enbin/Documents/code/STM/stm32-quadrocopter/cmsis/core_cm3.h ****   __IOM uint32_t FUNCTION0;              /*!< Offset: 0x028 (R/W)  Function Register 0 */
ARM GAS  /tmp/ccIxWip2.s 			page 40


 851:/home/enbin/Documents/code/STM/stm32-quadrocopter/cmsis/core_cm3.h ****         uint32_t RESERVED0[1U];
 852:/home/enbin/Documents/code/STM/stm32-quadrocopter/cmsis/core_cm3.h ****   __IOM uint32_t COMP1;                  /*!< Offset: 0x030 (R/W)  Comparator Register 1 */
 853:/home/enbin/Documents/code/STM/stm32-quadrocopter/cmsis/core_cm3.h ****   __IOM uint32_t MASK1;                  /*!< Offset: 0x034 (R/W)  Mask Register 1 */
 854:/home/enbin/Documents/code/STM/stm32-quadrocopter/cmsis/core_cm3.h ****   __IOM uint32_t FUNCTION1;              /*!< Offset: 0x038 (R/W)  Function Register 1 */
 855:/home/enbin/Documents/code/STM/stm32-quadrocopter/cmsis/core_cm3.h ****         uint32_t RESERVED1[1U];
 856:/home/enbin/Documents/code/STM/stm32-quadrocopter/cmsis/core_cm3.h ****   __IOM uint32_t COMP2;                  /*!< Offset: 0x040 (R/W)  Comparator Register 2 */
 857:/home/enbin/Documents/code/STM/stm32-quadrocopter/cmsis/core_cm3.h ****   __IOM uint32_t MASK2;                  /*!< Offset: 0x044 (R/W)  Mask Register 2 */
 858:/home/enbin/Documents/code/STM/stm32-quadrocopter/cmsis/core_cm3.h ****   __IOM uint32_t FUNCTION2;              /*!< Offset: 0x048 (R/W)  Function Register 2 */
 859:/home/enbin/Documents/code/STM/stm32-quadrocopter/cmsis/core_cm3.h ****         uint32_t RESERVED2[1U];
 860:/home/enbin/Documents/code/STM/stm32-quadrocopter/cmsis/core_cm3.h ****   __IOM uint32_t COMP3;                  /*!< Offset: 0x050 (R/W)  Comparator Register 3 */
 861:/home/enbin/Documents/code/STM/stm32-quadrocopter/cmsis/core_cm3.h ****   __IOM uint32_t MASK3;                  /*!< Offset: 0x054 (R/W)  Mask Register 3 */
 862:/home/enbin/Documents/code/STM/stm32-quadrocopter/cmsis/core_cm3.h ****   __IOM uint32_t FUNCTION3;              /*!< Offset: 0x058 (R/W)  Function Register 3 */
 863:/home/enbin/Documents/code/STM/stm32-quadrocopter/cmsis/core_cm3.h **** } DWT_Type;
 864:/home/enbin/Documents/code/STM/stm32-quadrocopter/cmsis/core_cm3.h **** 
 865:/home/enbin/Documents/code/STM/stm32-quadrocopter/cmsis/core_cm3.h **** /* DWT Control Register Definitions */
 866:/home/enbin/Documents/code/STM/stm32-quadrocopter/cmsis/core_cm3.h **** #define DWT_CTRL_NUMCOMP_Pos               28U                                         /*!< DWT CTR
 867:/home/enbin/Documents/code/STM/stm32-quadrocopter/cmsis/core_cm3.h **** #define DWT_CTRL_NUMCOMP_Msk               (0xFUL << DWT_CTRL_NUMCOMP_Pos)             /*!< DWT CTR
 868:/home/enbin/Documents/code/STM/stm32-quadrocopter/cmsis/core_cm3.h **** 
 869:/home/enbin/Documents/code/STM/stm32-quadrocopter/cmsis/core_cm3.h **** #define DWT_CTRL_NOTRCPKT_Pos              27U                                         /*!< DWT CTR
 870:/home/enbin/Documents/code/STM/stm32-quadrocopter/cmsis/core_cm3.h **** #define DWT_CTRL_NOTRCPKT_Msk              (0x1UL << DWT_CTRL_NOTRCPKT_Pos)            /*!< DWT CTR
 871:/home/enbin/Documents/code/STM/stm32-quadrocopter/cmsis/core_cm3.h **** 
 872:/home/enbin/Documents/code/STM/stm32-quadrocopter/cmsis/core_cm3.h **** #define DWT_CTRL_NOEXTTRIG_Pos             26U                                         /*!< DWT CTR
 873:/home/enbin/Documents/code/STM/stm32-quadrocopter/cmsis/core_cm3.h **** #define DWT_CTRL_NOEXTTRIG_Msk             (0x1UL << DWT_CTRL_NOEXTTRIG_Pos)           /*!< DWT CTR
 874:/home/enbin/Documents/code/STM/stm32-quadrocopter/cmsis/core_cm3.h **** 
 875:/home/enbin/Documents/code/STM/stm32-quadrocopter/cmsis/core_cm3.h **** #define DWT_CTRL_NOCYCCNT_Pos              25U                                         /*!< DWT CTR
 876:/home/enbin/Documents/code/STM/stm32-quadrocopter/cmsis/core_cm3.h **** #define DWT_CTRL_NOCYCCNT_Msk              (0x1UL << DWT_CTRL_NOCYCCNT_Pos)            /*!< DWT CTR
 877:/home/enbin/Documents/code/STM/stm32-quadrocopter/cmsis/core_cm3.h **** 
 878:/home/enbin/Documents/code/STM/stm32-quadrocopter/cmsis/core_cm3.h **** #define DWT_CTRL_NOPRFCNT_Pos              24U                                         /*!< DWT CTR
 879:/home/enbin/Documents/code/STM/stm32-quadrocopter/cmsis/core_cm3.h **** #define DWT_CTRL_NOPRFCNT_Msk              (0x1UL << DWT_CTRL_NOPRFCNT_Pos)            /*!< DWT CTR
 880:/home/enbin/Documents/code/STM/stm32-quadrocopter/cmsis/core_cm3.h **** 
 881:/home/enbin/Documents/code/STM/stm32-quadrocopter/cmsis/core_cm3.h **** #define DWT_CTRL_CYCEVTENA_Pos             22U                                         /*!< DWT CTR
 882:/home/enbin/Documents/code/STM/stm32-quadrocopter/cmsis/core_cm3.h **** #define DWT_CTRL_CYCEVTENA_Msk             (0x1UL << DWT_CTRL_CYCEVTENA_Pos)           /*!< DWT CTR
 883:/home/enbin/Documents/code/STM/stm32-quadrocopter/cmsis/core_cm3.h **** 
 884:/home/enbin/Documents/code/STM/stm32-quadrocopter/cmsis/core_cm3.h **** #define DWT_CTRL_FOLDEVTENA_Pos            21U                                         /*!< DWT CTR
 885:/home/enbin/Documents/code/STM/stm32-quadrocopter/cmsis/core_cm3.h **** #define DWT_CTRL_FOLDEVTENA_Msk            (0x1UL << DWT_CTRL_FOLDEVTENA_Pos)          /*!< DWT CTR
 886:/home/enbin/Documents/code/STM/stm32-quadrocopter/cmsis/core_cm3.h **** 
 887:/home/enbin/Documents/code/STM/stm32-quadrocopter/cmsis/core_cm3.h **** #define DWT_CTRL_LSUEVTENA_Pos             20U                                         /*!< DWT CTR
 888:/home/enbin/Documents/code/STM/stm32-quadrocopter/cmsis/core_cm3.h **** #define DWT_CTRL_LSUEVTENA_Msk             (0x1UL << DWT_CTRL_LSUEVTENA_Pos)           /*!< DWT CTR
 889:/home/enbin/Documents/code/STM/stm32-quadrocopter/cmsis/core_cm3.h **** 
 890:/home/enbin/Documents/code/STM/stm32-quadrocopter/cmsis/core_cm3.h **** #define DWT_CTRL_SLEEPEVTENA_Pos           19U                                         /*!< DWT CTR
 891:/home/enbin/Documents/code/STM/stm32-quadrocopter/cmsis/core_cm3.h **** #define DWT_CTRL_SLEEPEVTENA_Msk           (0x1UL << DWT_CTRL_SLEEPEVTENA_Pos)         /*!< DWT CTR
 892:/home/enbin/Documents/code/STM/stm32-quadrocopter/cmsis/core_cm3.h **** 
 893:/home/enbin/Documents/code/STM/stm32-quadrocopter/cmsis/core_cm3.h **** #define DWT_CTRL_EXCEVTENA_Pos             18U                                         /*!< DWT CTR
 894:/home/enbin/Documents/code/STM/stm32-quadrocopter/cmsis/core_cm3.h **** #define DWT_CTRL_EXCEVTENA_Msk             (0x1UL << DWT_CTRL_EXCEVTENA_Pos)           /*!< DWT CTR
 895:/home/enbin/Documents/code/STM/stm32-quadrocopter/cmsis/core_cm3.h **** 
 896:/home/enbin/Documents/code/STM/stm32-quadrocopter/cmsis/core_cm3.h **** #define DWT_CTRL_CPIEVTENA_Pos             17U                                         /*!< DWT CTR
 897:/home/enbin/Documents/code/STM/stm32-quadrocopter/cmsis/core_cm3.h **** #define DWT_CTRL_CPIEVTENA_Msk             (0x1UL << DWT_CTRL_CPIEVTENA_Pos)           /*!< DWT CTR
 898:/home/enbin/Documents/code/STM/stm32-quadrocopter/cmsis/core_cm3.h **** 
 899:/home/enbin/Documents/code/STM/stm32-quadrocopter/cmsis/core_cm3.h **** #define DWT_CTRL_EXCTRCENA_Pos             16U                                         /*!< DWT CTR
 900:/home/enbin/Documents/code/STM/stm32-quadrocopter/cmsis/core_cm3.h **** #define DWT_CTRL_EXCTRCENA_Msk             (0x1UL << DWT_CTRL_EXCTRCENA_Pos)           /*!< DWT CTR
 901:/home/enbin/Documents/code/STM/stm32-quadrocopter/cmsis/core_cm3.h **** 
 902:/home/enbin/Documents/code/STM/stm32-quadrocopter/cmsis/core_cm3.h **** #define DWT_CTRL_PCSAMPLENA_Pos            12U                                         /*!< DWT CTR
 903:/home/enbin/Documents/code/STM/stm32-quadrocopter/cmsis/core_cm3.h **** #define DWT_CTRL_PCSAMPLENA_Msk            (0x1UL << DWT_CTRL_PCSAMPLENA_Pos)          /*!< DWT CTR
 904:/home/enbin/Documents/code/STM/stm32-quadrocopter/cmsis/core_cm3.h **** 
 905:/home/enbin/Documents/code/STM/stm32-quadrocopter/cmsis/core_cm3.h **** #define DWT_CTRL_SYNCTAP_Pos               10U                                         /*!< DWT CTR
 906:/home/enbin/Documents/code/STM/stm32-quadrocopter/cmsis/core_cm3.h **** #define DWT_CTRL_SYNCTAP_Msk               (0x3UL << DWT_CTRL_SYNCTAP_Pos)             /*!< DWT CTR
 907:/home/enbin/Documents/code/STM/stm32-quadrocopter/cmsis/core_cm3.h **** 
ARM GAS  /tmp/ccIxWip2.s 			page 41


 908:/home/enbin/Documents/code/STM/stm32-quadrocopter/cmsis/core_cm3.h **** #define DWT_CTRL_CYCTAP_Pos                 9U                                         /*!< DWT CTR
 909:/home/enbin/Documents/code/STM/stm32-quadrocopter/cmsis/core_cm3.h **** #define DWT_CTRL_CYCTAP_Msk                (0x1UL << DWT_CTRL_CYCTAP_Pos)              /*!< DWT CTR
 910:/home/enbin/Documents/code/STM/stm32-quadrocopter/cmsis/core_cm3.h **** 
 911:/home/enbin/Documents/code/STM/stm32-quadrocopter/cmsis/core_cm3.h **** #define DWT_CTRL_POSTINIT_Pos               5U                                         /*!< DWT CTR
 912:/home/enbin/Documents/code/STM/stm32-quadrocopter/cmsis/core_cm3.h **** #define DWT_CTRL_POSTINIT_Msk              (0xFUL << DWT_CTRL_POSTINIT_Pos)            /*!< DWT CTR
 913:/home/enbin/Documents/code/STM/stm32-quadrocopter/cmsis/core_cm3.h **** 
 914:/home/enbin/Documents/code/STM/stm32-quadrocopter/cmsis/core_cm3.h **** #define DWT_CTRL_POSTPRESET_Pos             1U                                         /*!< DWT CTR
 915:/home/enbin/Documents/code/STM/stm32-quadrocopter/cmsis/core_cm3.h **** #define DWT_CTRL_POSTPRESET_Msk            (0xFUL << DWT_CTRL_POSTPRESET_Pos)          /*!< DWT CTR
 916:/home/enbin/Documents/code/STM/stm32-quadrocopter/cmsis/core_cm3.h **** 
 917:/home/enbin/Documents/code/STM/stm32-quadrocopter/cmsis/core_cm3.h **** #define DWT_CTRL_CYCCNTENA_Pos              0U                                         /*!< DWT CTR
 918:/home/enbin/Documents/code/STM/stm32-quadrocopter/cmsis/core_cm3.h **** #define DWT_CTRL_CYCCNTENA_Msk             (0x1UL /*<< DWT_CTRL_CYCCNTENA_Pos*/)       /*!< DWT CTR
 919:/home/enbin/Documents/code/STM/stm32-quadrocopter/cmsis/core_cm3.h **** 
 920:/home/enbin/Documents/code/STM/stm32-quadrocopter/cmsis/core_cm3.h **** /* DWT CPI Count Register Definitions */
 921:/home/enbin/Documents/code/STM/stm32-quadrocopter/cmsis/core_cm3.h **** #define DWT_CPICNT_CPICNT_Pos               0U                                         /*!< DWT CPI
 922:/home/enbin/Documents/code/STM/stm32-quadrocopter/cmsis/core_cm3.h **** #define DWT_CPICNT_CPICNT_Msk              (0xFFUL /*<< DWT_CPICNT_CPICNT_Pos*/)       /*!< DWT CPI
 923:/home/enbin/Documents/code/STM/stm32-quadrocopter/cmsis/core_cm3.h **** 
 924:/home/enbin/Documents/code/STM/stm32-quadrocopter/cmsis/core_cm3.h **** /* DWT Exception Overhead Count Register Definitions */
 925:/home/enbin/Documents/code/STM/stm32-quadrocopter/cmsis/core_cm3.h **** #define DWT_EXCCNT_EXCCNT_Pos               0U                                         /*!< DWT EXC
 926:/home/enbin/Documents/code/STM/stm32-quadrocopter/cmsis/core_cm3.h **** #define DWT_EXCCNT_EXCCNT_Msk              (0xFFUL /*<< DWT_EXCCNT_EXCCNT_Pos*/)       /*!< DWT EXC
 927:/home/enbin/Documents/code/STM/stm32-quadrocopter/cmsis/core_cm3.h **** 
 928:/home/enbin/Documents/code/STM/stm32-quadrocopter/cmsis/core_cm3.h **** /* DWT Sleep Count Register Definitions */
 929:/home/enbin/Documents/code/STM/stm32-quadrocopter/cmsis/core_cm3.h **** #define DWT_SLEEPCNT_SLEEPCNT_Pos           0U                                         /*!< DWT SLE
 930:/home/enbin/Documents/code/STM/stm32-quadrocopter/cmsis/core_cm3.h **** #define DWT_SLEEPCNT_SLEEPCNT_Msk          (0xFFUL /*<< DWT_SLEEPCNT_SLEEPCNT_Pos*/)   /*!< DWT SLE
 931:/home/enbin/Documents/code/STM/stm32-quadrocopter/cmsis/core_cm3.h **** 
 932:/home/enbin/Documents/code/STM/stm32-quadrocopter/cmsis/core_cm3.h **** /* DWT LSU Count Register Definitions */
 933:/home/enbin/Documents/code/STM/stm32-quadrocopter/cmsis/core_cm3.h **** #define DWT_LSUCNT_LSUCNT_Pos               0U                                         /*!< DWT LSU
 934:/home/enbin/Documents/code/STM/stm32-quadrocopter/cmsis/core_cm3.h **** #define DWT_LSUCNT_LSUCNT_Msk              (0xFFUL /*<< DWT_LSUCNT_LSUCNT_Pos*/)       /*!< DWT LSU
 935:/home/enbin/Documents/code/STM/stm32-quadrocopter/cmsis/core_cm3.h **** 
 936:/home/enbin/Documents/code/STM/stm32-quadrocopter/cmsis/core_cm3.h **** /* DWT Folded-instruction Count Register Definitions */
 937:/home/enbin/Documents/code/STM/stm32-quadrocopter/cmsis/core_cm3.h **** #define DWT_FOLDCNT_FOLDCNT_Pos             0U                                         /*!< DWT FOL
 938:/home/enbin/Documents/code/STM/stm32-quadrocopter/cmsis/core_cm3.h **** #define DWT_FOLDCNT_FOLDCNT_Msk            (0xFFUL /*<< DWT_FOLDCNT_FOLDCNT_Pos*/)     /*!< DWT FOL
 939:/home/enbin/Documents/code/STM/stm32-quadrocopter/cmsis/core_cm3.h **** 
 940:/home/enbin/Documents/code/STM/stm32-quadrocopter/cmsis/core_cm3.h **** /* DWT Comparator Mask Register Definitions */
 941:/home/enbin/Documents/code/STM/stm32-quadrocopter/cmsis/core_cm3.h **** #define DWT_MASK_MASK_Pos                   0U                                         /*!< DWT MAS
 942:/home/enbin/Documents/code/STM/stm32-quadrocopter/cmsis/core_cm3.h **** #define DWT_MASK_MASK_Msk                  (0x1FUL /*<< DWT_MASK_MASK_Pos*/)           /*!< DWT MAS
 943:/home/enbin/Documents/code/STM/stm32-quadrocopter/cmsis/core_cm3.h **** 
 944:/home/enbin/Documents/code/STM/stm32-quadrocopter/cmsis/core_cm3.h **** /* DWT Comparator Function Register Definitions */
 945:/home/enbin/Documents/code/STM/stm32-quadrocopter/cmsis/core_cm3.h **** #define DWT_FUNCTION_MATCHED_Pos           24U                                         /*!< DWT FUN
 946:/home/enbin/Documents/code/STM/stm32-quadrocopter/cmsis/core_cm3.h **** #define DWT_FUNCTION_MATCHED_Msk           (0x1UL << DWT_FUNCTION_MATCHED_Pos)         /*!< DWT FUN
 947:/home/enbin/Documents/code/STM/stm32-quadrocopter/cmsis/core_cm3.h **** 
 948:/home/enbin/Documents/code/STM/stm32-quadrocopter/cmsis/core_cm3.h **** #define DWT_FUNCTION_DATAVADDR1_Pos        16U                                         /*!< DWT FUN
 949:/home/enbin/Documents/code/STM/stm32-quadrocopter/cmsis/core_cm3.h **** #define DWT_FUNCTION_DATAVADDR1_Msk        (0xFUL << DWT_FUNCTION_DATAVADDR1_Pos)      /*!< DWT FUN
 950:/home/enbin/Documents/code/STM/stm32-quadrocopter/cmsis/core_cm3.h **** 
 951:/home/enbin/Documents/code/STM/stm32-quadrocopter/cmsis/core_cm3.h **** #define DWT_FUNCTION_DATAVADDR0_Pos        12U                                         /*!< DWT FUN
 952:/home/enbin/Documents/code/STM/stm32-quadrocopter/cmsis/core_cm3.h **** #define DWT_FUNCTION_DATAVADDR0_Msk        (0xFUL << DWT_FUNCTION_DATAVADDR0_Pos)      /*!< DWT FUN
 953:/home/enbin/Documents/code/STM/stm32-quadrocopter/cmsis/core_cm3.h **** 
 954:/home/enbin/Documents/code/STM/stm32-quadrocopter/cmsis/core_cm3.h **** #define DWT_FUNCTION_DATAVSIZE_Pos         10U                                         /*!< DWT FUN
 955:/home/enbin/Documents/code/STM/stm32-quadrocopter/cmsis/core_cm3.h **** #define DWT_FUNCTION_DATAVSIZE_Msk         (0x3UL << DWT_FUNCTION_DATAVSIZE_Pos)       /*!< DWT FUN
 956:/home/enbin/Documents/code/STM/stm32-quadrocopter/cmsis/core_cm3.h **** 
 957:/home/enbin/Documents/code/STM/stm32-quadrocopter/cmsis/core_cm3.h **** #define DWT_FUNCTION_LNK1ENA_Pos            9U                                         /*!< DWT FUN
 958:/home/enbin/Documents/code/STM/stm32-quadrocopter/cmsis/core_cm3.h **** #define DWT_FUNCTION_LNK1ENA_Msk           (0x1UL << DWT_FUNCTION_LNK1ENA_Pos)         /*!< DWT FUN
 959:/home/enbin/Documents/code/STM/stm32-quadrocopter/cmsis/core_cm3.h **** 
 960:/home/enbin/Documents/code/STM/stm32-quadrocopter/cmsis/core_cm3.h **** #define DWT_FUNCTION_DATAVMATCH_Pos         8U                                         /*!< DWT FUN
 961:/home/enbin/Documents/code/STM/stm32-quadrocopter/cmsis/core_cm3.h **** #define DWT_FUNCTION_DATAVMATCH_Msk        (0x1UL << DWT_FUNCTION_DATAVMATCH_Pos)      /*!< DWT FUN
 962:/home/enbin/Documents/code/STM/stm32-quadrocopter/cmsis/core_cm3.h **** 
 963:/home/enbin/Documents/code/STM/stm32-quadrocopter/cmsis/core_cm3.h **** #define DWT_FUNCTION_CYCMATCH_Pos           7U                                         /*!< DWT FUN
 964:/home/enbin/Documents/code/STM/stm32-quadrocopter/cmsis/core_cm3.h **** #define DWT_FUNCTION_CYCMATCH_Msk          (0x1UL << DWT_FUNCTION_CYCMATCH_Pos)        /*!< DWT FUN
ARM GAS  /tmp/ccIxWip2.s 			page 42


 965:/home/enbin/Documents/code/STM/stm32-quadrocopter/cmsis/core_cm3.h **** 
 966:/home/enbin/Documents/code/STM/stm32-quadrocopter/cmsis/core_cm3.h **** #define DWT_FUNCTION_EMITRANGE_Pos          5U                                         /*!< DWT FUN
 967:/home/enbin/Documents/code/STM/stm32-quadrocopter/cmsis/core_cm3.h **** #define DWT_FUNCTION_EMITRANGE_Msk         (0x1UL << DWT_FUNCTION_EMITRANGE_Pos)       /*!< DWT FUN
 968:/home/enbin/Documents/code/STM/stm32-quadrocopter/cmsis/core_cm3.h **** 
 969:/home/enbin/Documents/code/STM/stm32-quadrocopter/cmsis/core_cm3.h **** #define DWT_FUNCTION_FUNCTION_Pos           0U                                         /*!< DWT FUN
 970:/home/enbin/Documents/code/STM/stm32-quadrocopter/cmsis/core_cm3.h **** #define DWT_FUNCTION_FUNCTION_Msk          (0xFUL /*<< DWT_FUNCTION_FUNCTION_Pos*/)    /*!< DWT FUN
 971:/home/enbin/Documents/code/STM/stm32-quadrocopter/cmsis/core_cm3.h **** 
 972:/home/enbin/Documents/code/STM/stm32-quadrocopter/cmsis/core_cm3.h **** /*@}*/ /* end of group CMSIS_DWT */
 973:/home/enbin/Documents/code/STM/stm32-quadrocopter/cmsis/core_cm3.h **** 
 974:/home/enbin/Documents/code/STM/stm32-quadrocopter/cmsis/core_cm3.h **** 
 975:/home/enbin/Documents/code/STM/stm32-quadrocopter/cmsis/core_cm3.h **** /**
 976:/home/enbin/Documents/code/STM/stm32-quadrocopter/cmsis/core_cm3.h ****   \ingroup  CMSIS_core_register
 977:/home/enbin/Documents/code/STM/stm32-quadrocopter/cmsis/core_cm3.h ****   \defgroup CMSIS_TPI     Trace Port Interface (TPI)
 978:/home/enbin/Documents/code/STM/stm32-quadrocopter/cmsis/core_cm3.h ****   \brief    Type definitions for the Trace Port Interface (TPI)
 979:/home/enbin/Documents/code/STM/stm32-quadrocopter/cmsis/core_cm3.h ****   @{
 980:/home/enbin/Documents/code/STM/stm32-quadrocopter/cmsis/core_cm3.h ****  */
 981:/home/enbin/Documents/code/STM/stm32-quadrocopter/cmsis/core_cm3.h **** 
 982:/home/enbin/Documents/code/STM/stm32-quadrocopter/cmsis/core_cm3.h **** /**
 983:/home/enbin/Documents/code/STM/stm32-quadrocopter/cmsis/core_cm3.h ****   \brief  Structure type to access the Trace Port Interface Register (TPI).
 984:/home/enbin/Documents/code/STM/stm32-quadrocopter/cmsis/core_cm3.h ****  */
 985:/home/enbin/Documents/code/STM/stm32-quadrocopter/cmsis/core_cm3.h **** typedef struct
 986:/home/enbin/Documents/code/STM/stm32-quadrocopter/cmsis/core_cm3.h **** {
 987:/home/enbin/Documents/code/STM/stm32-quadrocopter/cmsis/core_cm3.h ****   __IOM uint32_t SSPSR;                  /*!< Offset: 0x000 (R/ )  Supported Parallel Port Size Reg
 988:/home/enbin/Documents/code/STM/stm32-quadrocopter/cmsis/core_cm3.h ****   __IOM uint32_t CSPSR;                  /*!< Offset: 0x004 (R/W)  Current Parallel Port Size Regis
 989:/home/enbin/Documents/code/STM/stm32-quadrocopter/cmsis/core_cm3.h ****         uint32_t RESERVED0[2U];
 990:/home/enbin/Documents/code/STM/stm32-quadrocopter/cmsis/core_cm3.h ****   __IOM uint32_t ACPR;                   /*!< Offset: 0x010 (R/W)  Asynchronous Clock Prescaler Reg
 991:/home/enbin/Documents/code/STM/stm32-quadrocopter/cmsis/core_cm3.h ****         uint32_t RESERVED1[55U];
 992:/home/enbin/Documents/code/STM/stm32-quadrocopter/cmsis/core_cm3.h ****   __IOM uint32_t SPPR;                   /*!< Offset: 0x0F0 (R/W)  Selected Pin Protocol Register *
 993:/home/enbin/Documents/code/STM/stm32-quadrocopter/cmsis/core_cm3.h ****         uint32_t RESERVED2[131U];
 994:/home/enbin/Documents/code/STM/stm32-quadrocopter/cmsis/core_cm3.h ****   __IM  uint32_t FFSR;                   /*!< Offset: 0x300 (R/ )  Formatter and Flush Status Regis
 995:/home/enbin/Documents/code/STM/stm32-quadrocopter/cmsis/core_cm3.h ****   __IOM uint32_t FFCR;                   /*!< Offset: 0x304 (R/W)  Formatter and Flush Control Regi
 996:/home/enbin/Documents/code/STM/stm32-quadrocopter/cmsis/core_cm3.h ****   __IM  uint32_t FSCR;                   /*!< Offset: 0x308 (R/ )  Formatter Synchronization Counte
 997:/home/enbin/Documents/code/STM/stm32-quadrocopter/cmsis/core_cm3.h ****         uint32_t RESERVED3[759U];
 998:/home/enbin/Documents/code/STM/stm32-quadrocopter/cmsis/core_cm3.h ****   __IM  uint32_t TRIGGER;                /*!< Offset: 0xEE8 (R/ )  TRIGGER */
 999:/home/enbin/Documents/code/STM/stm32-quadrocopter/cmsis/core_cm3.h ****   __IM  uint32_t FIFO0;                  /*!< Offset: 0xEEC (R/ )  Integration ETM Data */
1000:/home/enbin/Documents/code/STM/stm32-quadrocopter/cmsis/core_cm3.h ****   __IM  uint32_t ITATBCTR2;              /*!< Offset: 0xEF0 (R/ )  ITATBCTR2 */
1001:/home/enbin/Documents/code/STM/stm32-quadrocopter/cmsis/core_cm3.h ****         uint32_t RESERVED4[1U];
1002:/home/enbin/Documents/code/STM/stm32-quadrocopter/cmsis/core_cm3.h ****   __IM  uint32_t ITATBCTR0;              /*!< Offset: 0xEF8 (R/ )  ITATBCTR0 */
1003:/home/enbin/Documents/code/STM/stm32-quadrocopter/cmsis/core_cm3.h ****   __IM  uint32_t FIFO1;                  /*!< Offset: 0xEFC (R/ )  Integration ITM Data */
1004:/home/enbin/Documents/code/STM/stm32-quadrocopter/cmsis/core_cm3.h ****   __IOM uint32_t ITCTRL;                 /*!< Offset: 0xF00 (R/W)  Integration Mode Control */
1005:/home/enbin/Documents/code/STM/stm32-quadrocopter/cmsis/core_cm3.h ****         uint32_t RESERVED5[39U];
1006:/home/enbin/Documents/code/STM/stm32-quadrocopter/cmsis/core_cm3.h ****   __IOM uint32_t CLAIMSET;               /*!< Offset: 0xFA0 (R/W)  Claim tag set */
1007:/home/enbin/Documents/code/STM/stm32-quadrocopter/cmsis/core_cm3.h ****   __IOM uint32_t CLAIMCLR;               /*!< Offset: 0xFA4 (R/W)  Claim tag clear */
1008:/home/enbin/Documents/code/STM/stm32-quadrocopter/cmsis/core_cm3.h ****         uint32_t RESERVED7[8U];
1009:/home/enbin/Documents/code/STM/stm32-quadrocopter/cmsis/core_cm3.h ****   __IM  uint32_t DEVID;                  /*!< Offset: 0xFC8 (R/ )  TPIU_DEVID */
1010:/home/enbin/Documents/code/STM/stm32-quadrocopter/cmsis/core_cm3.h ****   __IM  uint32_t DEVTYPE;                /*!< Offset: 0xFCC (R/ )  TPIU_DEVTYPE */
1011:/home/enbin/Documents/code/STM/stm32-quadrocopter/cmsis/core_cm3.h **** } TPI_Type;
1012:/home/enbin/Documents/code/STM/stm32-quadrocopter/cmsis/core_cm3.h **** 
1013:/home/enbin/Documents/code/STM/stm32-quadrocopter/cmsis/core_cm3.h **** /* TPI Asynchronous Clock Prescaler Register Definitions */
1014:/home/enbin/Documents/code/STM/stm32-quadrocopter/cmsis/core_cm3.h **** #define TPI_ACPR_PRESCALER_Pos              0U                                         /*!< TPI ACP
1015:/home/enbin/Documents/code/STM/stm32-quadrocopter/cmsis/core_cm3.h **** #define TPI_ACPR_PRESCALER_Msk             (0x1FFFUL /*<< TPI_ACPR_PRESCALER_Pos*/)    /*!< TPI ACP
1016:/home/enbin/Documents/code/STM/stm32-quadrocopter/cmsis/core_cm3.h **** 
1017:/home/enbin/Documents/code/STM/stm32-quadrocopter/cmsis/core_cm3.h **** /* TPI Selected Pin Protocol Register Definitions */
1018:/home/enbin/Documents/code/STM/stm32-quadrocopter/cmsis/core_cm3.h **** #define TPI_SPPR_TXMODE_Pos                 0U                                         /*!< TPI SPP
1019:/home/enbin/Documents/code/STM/stm32-quadrocopter/cmsis/core_cm3.h **** #define TPI_SPPR_TXMODE_Msk                (0x3UL /*<< TPI_SPPR_TXMODE_Pos*/)          /*!< TPI SPP
1020:/home/enbin/Documents/code/STM/stm32-quadrocopter/cmsis/core_cm3.h **** 
1021:/home/enbin/Documents/code/STM/stm32-quadrocopter/cmsis/core_cm3.h **** /* TPI Formatter and Flush Status Register Definitions */
ARM GAS  /tmp/ccIxWip2.s 			page 43


1022:/home/enbin/Documents/code/STM/stm32-quadrocopter/cmsis/core_cm3.h **** #define TPI_FFSR_FtNonStop_Pos              3U                                         /*!< TPI FFS
1023:/home/enbin/Documents/code/STM/stm32-quadrocopter/cmsis/core_cm3.h **** #define TPI_FFSR_FtNonStop_Msk             (0x1UL << TPI_FFSR_FtNonStop_Pos)           /*!< TPI FFS
1024:/home/enbin/Documents/code/STM/stm32-quadrocopter/cmsis/core_cm3.h **** 
1025:/home/enbin/Documents/code/STM/stm32-quadrocopter/cmsis/core_cm3.h **** #define TPI_FFSR_TCPresent_Pos              2U                                         /*!< TPI FFS
1026:/home/enbin/Documents/code/STM/stm32-quadrocopter/cmsis/core_cm3.h **** #define TPI_FFSR_TCPresent_Msk             (0x1UL << TPI_FFSR_TCPresent_Pos)           /*!< TPI FFS
1027:/home/enbin/Documents/code/STM/stm32-quadrocopter/cmsis/core_cm3.h **** 
1028:/home/enbin/Documents/code/STM/stm32-quadrocopter/cmsis/core_cm3.h **** #define TPI_FFSR_FtStopped_Pos              1U                                         /*!< TPI FFS
1029:/home/enbin/Documents/code/STM/stm32-quadrocopter/cmsis/core_cm3.h **** #define TPI_FFSR_FtStopped_Msk             (0x1UL << TPI_FFSR_FtStopped_Pos)           /*!< TPI FFS
1030:/home/enbin/Documents/code/STM/stm32-quadrocopter/cmsis/core_cm3.h **** 
1031:/home/enbin/Documents/code/STM/stm32-quadrocopter/cmsis/core_cm3.h **** #define TPI_FFSR_FlInProg_Pos               0U                                         /*!< TPI FFS
1032:/home/enbin/Documents/code/STM/stm32-quadrocopter/cmsis/core_cm3.h **** #define TPI_FFSR_FlInProg_Msk              (0x1UL /*<< TPI_FFSR_FlInProg_Pos*/)        /*!< TPI FFS
1033:/home/enbin/Documents/code/STM/stm32-quadrocopter/cmsis/core_cm3.h **** 
1034:/home/enbin/Documents/code/STM/stm32-quadrocopter/cmsis/core_cm3.h **** /* TPI Formatter and Flush Control Register Definitions */
1035:/home/enbin/Documents/code/STM/stm32-quadrocopter/cmsis/core_cm3.h **** #define TPI_FFCR_TrigIn_Pos                 8U                                         /*!< TPI FFC
1036:/home/enbin/Documents/code/STM/stm32-quadrocopter/cmsis/core_cm3.h **** #define TPI_FFCR_TrigIn_Msk                (0x1UL << TPI_FFCR_TrigIn_Pos)              /*!< TPI FFC
1037:/home/enbin/Documents/code/STM/stm32-quadrocopter/cmsis/core_cm3.h **** 
1038:/home/enbin/Documents/code/STM/stm32-quadrocopter/cmsis/core_cm3.h **** #define TPI_FFCR_EnFCont_Pos                1U                                         /*!< TPI FFC
1039:/home/enbin/Documents/code/STM/stm32-quadrocopter/cmsis/core_cm3.h **** #define TPI_FFCR_EnFCont_Msk               (0x1UL << TPI_FFCR_EnFCont_Pos)             /*!< TPI FFC
1040:/home/enbin/Documents/code/STM/stm32-quadrocopter/cmsis/core_cm3.h **** 
1041:/home/enbin/Documents/code/STM/stm32-quadrocopter/cmsis/core_cm3.h **** /* TPI TRIGGER Register Definitions */
1042:/home/enbin/Documents/code/STM/stm32-quadrocopter/cmsis/core_cm3.h **** #define TPI_TRIGGER_TRIGGER_Pos             0U                                         /*!< TPI TRI
1043:/home/enbin/Documents/code/STM/stm32-quadrocopter/cmsis/core_cm3.h **** #define TPI_TRIGGER_TRIGGER_Msk            (0x1UL /*<< TPI_TRIGGER_TRIGGER_Pos*/)      /*!< TPI TRI
1044:/home/enbin/Documents/code/STM/stm32-quadrocopter/cmsis/core_cm3.h **** 
1045:/home/enbin/Documents/code/STM/stm32-quadrocopter/cmsis/core_cm3.h **** /* TPI Integration ETM Data Register Definitions (FIFO0) */
1046:/home/enbin/Documents/code/STM/stm32-quadrocopter/cmsis/core_cm3.h **** #define TPI_FIFO0_ITM_ATVALID_Pos          29U                                         /*!< TPI FIF
1047:/home/enbin/Documents/code/STM/stm32-quadrocopter/cmsis/core_cm3.h **** #define TPI_FIFO0_ITM_ATVALID_Msk          (0x3UL << TPI_FIFO0_ITM_ATVALID_Pos)        /*!< TPI FIF
1048:/home/enbin/Documents/code/STM/stm32-quadrocopter/cmsis/core_cm3.h **** 
1049:/home/enbin/Documents/code/STM/stm32-quadrocopter/cmsis/core_cm3.h **** #define TPI_FIFO0_ITM_bytecount_Pos        27U                                         /*!< TPI FIF
1050:/home/enbin/Documents/code/STM/stm32-quadrocopter/cmsis/core_cm3.h **** #define TPI_FIFO0_ITM_bytecount_Msk        (0x3UL << TPI_FIFO0_ITM_bytecount_Pos)      /*!< TPI FIF
1051:/home/enbin/Documents/code/STM/stm32-quadrocopter/cmsis/core_cm3.h **** 
1052:/home/enbin/Documents/code/STM/stm32-quadrocopter/cmsis/core_cm3.h **** #define TPI_FIFO0_ETM_ATVALID_Pos          26U                                         /*!< TPI FIF
1053:/home/enbin/Documents/code/STM/stm32-quadrocopter/cmsis/core_cm3.h **** #define TPI_FIFO0_ETM_ATVALID_Msk          (0x3UL << TPI_FIFO0_ETM_ATVALID_Pos)        /*!< TPI FIF
1054:/home/enbin/Documents/code/STM/stm32-quadrocopter/cmsis/core_cm3.h **** 
1055:/home/enbin/Documents/code/STM/stm32-quadrocopter/cmsis/core_cm3.h **** #define TPI_FIFO0_ETM_bytecount_Pos        24U                                         /*!< TPI FIF
1056:/home/enbin/Documents/code/STM/stm32-quadrocopter/cmsis/core_cm3.h **** #define TPI_FIFO0_ETM_bytecount_Msk        (0x3UL << TPI_FIFO0_ETM_bytecount_Pos)      /*!< TPI FIF
1057:/home/enbin/Documents/code/STM/stm32-quadrocopter/cmsis/core_cm3.h **** 
1058:/home/enbin/Documents/code/STM/stm32-quadrocopter/cmsis/core_cm3.h **** #define TPI_FIFO0_ETM2_Pos                 16U                                         /*!< TPI FIF
1059:/home/enbin/Documents/code/STM/stm32-quadrocopter/cmsis/core_cm3.h **** #define TPI_FIFO0_ETM2_Msk                 (0xFFUL << TPI_FIFO0_ETM2_Pos)              /*!< TPI FIF
1060:/home/enbin/Documents/code/STM/stm32-quadrocopter/cmsis/core_cm3.h **** 
1061:/home/enbin/Documents/code/STM/stm32-quadrocopter/cmsis/core_cm3.h **** #define TPI_FIFO0_ETM1_Pos                  8U                                         /*!< TPI FIF
1062:/home/enbin/Documents/code/STM/stm32-quadrocopter/cmsis/core_cm3.h **** #define TPI_FIFO0_ETM1_Msk                 (0xFFUL << TPI_FIFO0_ETM1_Pos)              /*!< TPI FIF
1063:/home/enbin/Documents/code/STM/stm32-quadrocopter/cmsis/core_cm3.h **** 
1064:/home/enbin/Documents/code/STM/stm32-quadrocopter/cmsis/core_cm3.h **** #define TPI_FIFO0_ETM0_Pos                  0U                                         /*!< TPI FIF
1065:/home/enbin/Documents/code/STM/stm32-quadrocopter/cmsis/core_cm3.h **** #define TPI_FIFO0_ETM0_Msk                 (0xFFUL /*<< TPI_FIFO0_ETM0_Pos*/)          /*!< TPI FIF
1066:/home/enbin/Documents/code/STM/stm32-quadrocopter/cmsis/core_cm3.h **** 
1067:/home/enbin/Documents/code/STM/stm32-quadrocopter/cmsis/core_cm3.h **** /* TPI ITATBCTR2 Register Definitions */
1068:/home/enbin/Documents/code/STM/stm32-quadrocopter/cmsis/core_cm3.h **** #define TPI_ITATBCTR2_ATREADY_Pos           0U                                         /*!< TPI ITA
1069:/home/enbin/Documents/code/STM/stm32-quadrocopter/cmsis/core_cm3.h **** #define TPI_ITATBCTR2_ATREADY_Msk          (0x1UL /*<< TPI_ITATBCTR2_ATREADY_Pos*/)    /*!< TPI ITA
1070:/home/enbin/Documents/code/STM/stm32-quadrocopter/cmsis/core_cm3.h **** 
1071:/home/enbin/Documents/code/STM/stm32-quadrocopter/cmsis/core_cm3.h **** /* TPI Integration ITM Data Register Definitions (FIFO1) */
1072:/home/enbin/Documents/code/STM/stm32-quadrocopter/cmsis/core_cm3.h **** #define TPI_FIFO1_ITM_ATVALID_Pos          29U                                         /*!< TPI FIF
1073:/home/enbin/Documents/code/STM/stm32-quadrocopter/cmsis/core_cm3.h **** #define TPI_FIFO1_ITM_ATVALID_Msk          (0x3UL << TPI_FIFO1_ITM_ATVALID_Pos)        /*!< TPI FIF
1074:/home/enbin/Documents/code/STM/stm32-quadrocopter/cmsis/core_cm3.h **** 
1075:/home/enbin/Documents/code/STM/stm32-quadrocopter/cmsis/core_cm3.h **** #define TPI_FIFO1_ITM_bytecount_Pos        27U                                         /*!< TPI FIF
1076:/home/enbin/Documents/code/STM/stm32-quadrocopter/cmsis/core_cm3.h **** #define TPI_FIFO1_ITM_bytecount_Msk        (0x3UL << TPI_FIFO1_ITM_bytecount_Pos)      /*!< TPI FIF
1077:/home/enbin/Documents/code/STM/stm32-quadrocopter/cmsis/core_cm3.h **** 
1078:/home/enbin/Documents/code/STM/stm32-quadrocopter/cmsis/core_cm3.h **** #define TPI_FIFO1_ETM_ATVALID_Pos          26U                                         /*!< TPI FIF
ARM GAS  /tmp/ccIxWip2.s 			page 44


1079:/home/enbin/Documents/code/STM/stm32-quadrocopter/cmsis/core_cm3.h **** #define TPI_FIFO1_ETM_ATVALID_Msk          (0x3UL << TPI_FIFO1_ETM_ATVALID_Pos)        /*!< TPI FIF
1080:/home/enbin/Documents/code/STM/stm32-quadrocopter/cmsis/core_cm3.h **** 
1081:/home/enbin/Documents/code/STM/stm32-quadrocopter/cmsis/core_cm3.h **** #define TPI_FIFO1_ETM_bytecount_Pos        24U                                         /*!< TPI FIF
1082:/home/enbin/Documents/code/STM/stm32-quadrocopter/cmsis/core_cm3.h **** #define TPI_FIFO1_ETM_bytecount_Msk        (0x3UL << TPI_FIFO1_ETM_bytecount_Pos)      /*!< TPI FIF
1083:/home/enbin/Documents/code/STM/stm32-quadrocopter/cmsis/core_cm3.h **** 
1084:/home/enbin/Documents/code/STM/stm32-quadrocopter/cmsis/core_cm3.h **** #define TPI_FIFO1_ITM2_Pos                 16U                                         /*!< TPI FIF
1085:/home/enbin/Documents/code/STM/stm32-quadrocopter/cmsis/core_cm3.h **** #define TPI_FIFO1_ITM2_Msk                 (0xFFUL << TPI_FIFO1_ITM2_Pos)              /*!< TPI FIF
1086:/home/enbin/Documents/code/STM/stm32-quadrocopter/cmsis/core_cm3.h **** 
1087:/home/enbin/Documents/code/STM/stm32-quadrocopter/cmsis/core_cm3.h **** #define TPI_FIFO1_ITM1_Pos                  8U                                         /*!< TPI FIF
1088:/home/enbin/Documents/code/STM/stm32-quadrocopter/cmsis/core_cm3.h **** #define TPI_FIFO1_ITM1_Msk                 (0xFFUL << TPI_FIFO1_ITM1_Pos)              /*!< TPI FIF
1089:/home/enbin/Documents/code/STM/stm32-quadrocopter/cmsis/core_cm3.h **** 
1090:/home/enbin/Documents/code/STM/stm32-quadrocopter/cmsis/core_cm3.h **** #define TPI_FIFO1_ITM0_Pos                  0U                                         /*!< TPI FIF
1091:/home/enbin/Documents/code/STM/stm32-quadrocopter/cmsis/core_cm3.h **** #define TPI_FIFO1_ITM0_Msk                 (0xFFUL /*<< TPI_FIFO1_ITM0_Pos*/)          /*!< TPI FIF
1092:/home/enbin/Documents/code/STM/stm32-quadrocopter/cmsis/core_cm3.h **** 
1093:/home/enbin/Documents/code/STM/stm32-quadrocopter/cmsis/core_cm3.h **** /* TPI ITATBCTR0 Register Definitions */
1094:/home/enbin/Documents/code/STM/stm32-quadrocopter/cmsis/core_cm3.h **** #define TPI_ITATBCTR0_ATREADY_Pos           0U                                         /*!< TPI ITA
1095:/home/enbin/Documents/code/STM/stm32-quadrocopter/cmsis/core_cm3.h **** #define TPI_ITATBCTR0_ATREADY_Msk          (0x1UL /*<< TPI_ITATBCTR0_ATREADY_Pos*/)    /*!< TPI ITA
1096:/home/enbin/Documents/code/STM/stm32-quadrocopter/cmsis/core_cm3.h **** 
1097:/home/enbin/Documents/code/STM/stm32-quadrocopter/cmsis/core_cm3.h **** /* TPI Integration Mode Control Register Definitions */
1098:/home/enbin/Documents/code/STM/stm32-quadrocopter/cmsis/core_cm3.h **** #define TPI_ITCTRL_Mode_Pos                 0U                                         /*!< TPI ITC
1099:/home/enbin/Documents/code/STM/stm32-quadrocopter/cmsis/core_cm3.h **** #define TPI_ITCTRL_Mode_Msk                (0x1UL /*<< TPI_ITCTRL_Mode_Pos*/)          /*!< TPI ITC
1100:/home/enbin/Documents/code/STM/stm32-quadrocopter/cmsis/core_cm3.h **** 
1101:/home/enbin/Documents/code/STM/stm32-quadrocopter/cmsis/core_cm3.h **** /* TPI DEVID Register Definitions */
1102:/home/enbin/Documents/code/STM/stm32-quadrocopter/cmsis/core_cm3.h **** #define TPI_DEVID_NRZVALID_Pos             11U                                         /*!< TPI DEV
1103:/home/enbin/Documents/code/STM/stm32-quadrocopter/cmsis/core_cm3.h **** #define TPI_DEVID_NRZVALID_Msk             (0x1UL << TPI_DEVID_NRZVALID_Pos)           /*!< TPI DEV
1104:/home/enbin/Documents/code/STM/stm32-quadrocopter/cmsis/core_cm3.h **** 
1105:/home/enbin/Documents/code/STM/stm32-quadrocopter/cmsis/core_cm3.h **** #define TPI_DEVID_MANCVALID_Pos            10U                                         /*!< TPI DEV
1106:/home/enbin/Documents/code/STM/stm32-quadrocopter/cmsis/core_cm3.h **** #define TPI_DEVID_MANCVALID_Msk            (0x1UL << TPI_DEVID_MANCVALID_Pos)          /*!< TPI DEV
1107:/home/enbin/Documents/code/STM/stm32-quadrocopter/cmsis/core_cm3.h **** 
1108:/home/enbin/Documents/code/STM/stm32-quadrocopter/cmsis/core_cm3.h **** #define TPI_DEVID_PTINVALID_Pos             9U                                         /*!< TPI DEV
1109:/home/enbin/Documents/code/STM/stm32-quadrocopter/cmsis/core_cm3.h **** #define TPI_DEVID_PTINVALID_Msk            (0x1UL << TPI_DEVID_PTINVALID_Pos)          /*!< TPI DEV
1110:/home/enbin/Documents/code/STM/stm32-quadrocopter/cmsis/core_cm3.h **** 
1111:/home/enbin/Documents/code/STM/stm32-quadrocopter/cmsis/core_cm3.h **** #define TPI_DEVID_MinBufSz_Pos              6U                                         /*!< TPI DEV
1112:/home/enbin/Documents/code/STM/stm32-quadrocopter/cmsis/core_cm3.h **** #define TPI_DEVID_MinBufSz_Msk             (0x7UL << TPI_DEVID_MinBufSz_Pos)           /*!< TPI DEV
1113:/home/enbin/Documents/code/STM/stm32-quadrocopter/cmsis/core_cm3.h **** 
1114:/home/enbin/Documents/code/STM/stm32-quadrocopter/cmsis/core_cm3.h **** #define TPI_DEVID_AsynClkIn_Pos             5U                                         /*!< TPI DEV
1115:/home/enbin/Documents/code/STM/stm32-quadrocopter/cmsis/core_cm3.h **** #define TPI_DEVID_AsynClkIn_Msk            (0x1UL << TPI_DEVID_AsynClkIn_Pos)          /*!< TPI DEV
1116:/home/enbin/Documents/code/STM/stm32-quadrocopter/cmsis/core_cm3.h **** 
1117:/home/enbin/Documents/code/STM/stm32-quadrocopter/cmsis/core_cm3.h **** #define TPI_DEVID_NrTraceInput_Pos          0U                                         /*!< TPI DEV
1118:/home/enbin/Documents/code/STM/stm32-quadrocopter/cmsis/core_cm3.h **** #define TPI_DEVID_NrTraceInput_Msk         (0x1FUL /*<< TPI_DEVID_NrTraceInput_Pos*/)  /*!< TPI DEV
1119:/home/enbin/Documents/code/STM/stm32-quadrocopter/cmsis/core_cm3.h **** 
1120:/home/enbin/Documents/code/STM/stm32-quadrocopter/cmsis/core_cm3.h **** /* TPI DEVTYPE Register Definitions */
1121:/home/enbin/Documents/code/STM/stm32-quadrocopter/cmsis/core_cm3.h **** #define TPI_DEVTYPE_MajorType_Pos           4U                                         /*!< TPI DEV
1122:/home/enbin/Documents/code/STM/stm32-quadrocopter/cmsis/core_cm3.h **** #define TPI_DEVTYPE_MajorType_Msk          (0xFUL << TPI_DEVTYPE_MajorType_Pos)        /*!< TPI DEV
1123:/home/enbin/Documents/code/STM/stm32-quadrocopter/cmsis/core_cm3.h **** 
1124:/home/enbin/Documents/code/STM/stm32-quadrocopter/cmsis/core_cm3.h **** #define TPI_DEVTYPE_SubType_Pos             0U                                         /*!< TPI DEV
1125:/home/enbin/Documents/code/STM/stm32-quadrocopter/cmsis/core_cm3.h **** #define TPI_DEVTYPE_SubType_Msk            (0xFUL /*<< TPI_DEVTYPE_SubType_Pos*/)      /*!< TPI DEV
1126:/home/enbin/Documents/code/STM/stm32-quadrocopter/cmsis/core_cm3.h **** 
1127:/home/enbin/Documents/code/STM/stm32-quadrocopter/cmsis/core_cm3.h **** /*@}*/ /* end of group CMSIS_TPI */
1128:/home/enbin/Documents/code/STM/stm32-quadrocopter/cmsis/core_cm3.h **** 
1129:/home/enbin/Documents/code/STM/stm32-quadrocopter/cmsis/core_cm3.h **** 
1130:/home/enbin/Documents/code/STM/stm32-quadrocopter/cmsis/core_cm3.h **** #if (__MPU_PRESENT == 1U)
1131:/home/enbin/Documents/code/STM/stm32-quadrocopter/cmsis/core_cm3.h **** /**
1132:/home/enbin/Documents/code/STM/stm32-quadrocopter/cmsis/core_cm3.h ****   \ingroup  CMSIS_core_register
1133:/home/enbin/Documents/code/STM/stm32-quadrocopter/cmsis/core_cm3.h ****   \defgroup CMSIS_MPU     Memory Protection Unit (MPU)
1134:/home/enbin/Documents/code/STM/stm32-quadrocopter/cmsis/core_cm3.h ****   \brief    Type definitions for the Memory Protection Unit (MPU)
1135:/home/enbin/Documents/code/STM/stm32-quadrocopter/cmsis/core_cm3.h ****   @{
ARM GAS  /tmp/ccIxWip2.s 			page 45


1136:/home/enbin/Documents/code/STM/stm32-quadrocopter/cmsis/core_cm3.h ****  */
1137:/home/enbin/Documents/code/STM/stm32-quadrocopter/cmsis/core_cm3.h **** 
1138:/home/enbin/Documents/code/STM/stm32-quadrocopter/cmsis/core_cm3.h **** /**
1139:/home/enbin/Documents/code/STM/stm32-quadrocopter/cmsis/core_cm3.h ****   \brief  Structure type to access the Memory Protection Unit (MPU).
1140:/home/enbin/Documents/code/STM/stm32-quadrocopter/cmsis/core_cm3.h ****  */
1141:/home/enbin/Documents/code/STM/stm32-quadrocopter/cmsis/core_cm3.h **** typedef struct
1142:/home/enbin/Documents/code/STM/stm32-quadrocopter/cmsis/core_cm3.h **** {
1143:/home/enbin/Documents/code/STM/stm32-quadrocopter/cmsis/core_cm3.h ****   __IM  uint32_t TYPE;                   /*!< Offset: 0x000 (R/ )  MPU Type Register */
1144:/home/enbin/Documents/code/STM/stm32-quadrocopter/cmsis/core_cm3.h ****   __IOM uint32_t CTRL;                   /*!< Offset: 0x004 (R/W)  MPU Control Register */
1145:/home/enbin/Documents/code/STM/stm32-quadrocopter/cmsis/core_cm3.h ****   __IOM uint32_t RNR;                    /*!< Offset: 0x008 (R/W)  MPU Region RNRber Register */
1146:/home/enbin/Documents/code/STM/stm32-quadrocopter/cmsis/core_cm3.h ****   __IOM uint32_t RBAR;                   /*!< Offset: 0x00C (R/W)  MPU Region Base Address Register
1147:/home/enbin/Documents/code/STM/stm32-quadrocopter/cmsis/core_cm3.h ****   __IOM uint32_t RASR;                   /*!< Offset: 0x010 (R/W)  MPU Region Attribute and Size Re
1148:/home/enbin/Documents/code/STM/stm32-quadrocopter/cmsis/core_cm3.h ****   __IOM uint32_t RBAR_A1;                /*!< Offset: 0x014 (R/W)  MPU Alias 1 Region Base Address 
1149:/home/enbin/Documents/code/STM/stm32-quadrocopter/cmsis/core_cm3.h ****   __IOM uint32_t RASR_A1;                /*!< Offset: 0x018 (R/W)  MPU Alias 1 Region Attribute and
1150:/home/enbin/Documents/code/STM/stm32-quadrocopter/cmsis/core_cm3.h ****   __IOM uint32_t RBAR_A2;                /*!< Offset: 0x01C (R/W)  MPU Alias 2 Region Base Address 
1151:/home/enbin/Documents/code/STM/stm32-quadrocopter/cmsis/core_cm3.h ****   __IOM uint32_t RASR_A2;                /*!< Offset: 0x020 (R/W)  MPU Alias 2 Region Attribute and
1152:/home/enbin/Documents/code/STM/stm32-quadrocopter/cmsis/core_cm3.h ****   __IOM uint32_t RBAR_A3;                /*!< Offset: 0x024 (R/W)  MPU Alias 3 Region Base Address 
1153:/home/enbin/Documents/code/STM/stm32-quadrocopter/cmsis/core_cm3.h ****   __IOM uint32_t RASR_A3;                /*!< Offset: 0x028 (R/W)  MPU Alias 3 Region Attribute and
1154:/home/enbin/Documents/code/STM/stm32-quadrocopter/cmsis/core_cm3.h **** } MPU_Type;
1155:/home/enbin/Documents/code/STM/stm32-quadrocopter/cmsis/core_cm3.h **** 
1156:/home/enbin/Documents/code/STM/stm32-quadrocopter/cmsis/core_cm3.h **** /* MPU Type Register Definitions */
1157:/home/enbin/Documents/code/STM/stm32-quadrocopter/cmsis/core_cm3.h **** #define MPU_TYPE_IREGION_Pos               16U                                            /*!< MPU 
1158:/home/enbin/Documents/code/STM/stm32-quadrocopter/cmsis/core_cm3.h **** #define MPU_TYPE_IREGION_Msk               (0xFFUL << MPU_TYPE_IREGION_Pos)               /*!< MPU 
1159:/home/enbin/Documents/code/STM/stm32-quadrocopter/cmsis/core_cm3.h **** 
1160:/home/enbin/Documents/code/STM/stm32-quadrocopter/cmsis/core_cm3.h **** #define MPU_TYPE_DREGION_Pos                8U                                            /*!< MPU 
1161:/home/enbin/Documents/code/STM/stm32-quadrocopter/cmsis/core_cm3.h **** #define MPU_TYPE_DREGION_Msk               (0xFFUL << MPU_TYPE_DREGION_Pos)               /*!< MPU 
1162:/home/enbin/Documents/code/STM/stm32-quadrocopter/cmsis/core_cm3.h **** 
1163:/home/enbin/Documents/code/STM/stm32-quadrocopter/cmsis/core_cm3.h **** #define MPU_TYPE_SEPARATE_Pos               0U                                            /*!< MPU 
1164:/home/enbin/Documents/code/STM/stm32-quadrocopter/cmsis/core_cm3.h **** #define MPU_TYPE_SEPARATE_Msk              (1UL /*<< MPU_TYPE_SEPARATE_Pos*/)             /*!< MPU 
1165:/home/enbin/Documents/code/STM/stm32-quadrocopter/cmsis/core_cm3.h **** 
1166:/home/enbin/Documents/code/STM/stm32-quadrocopter/cmsis/core_cm3.h **** /* MPU Control Register Definitions */
1167:/home/enbin/Documents/code/STM/stm32-quadrocopter/cmsis/core_cm3.h **** #define MPU_CTRL_PRIVDEFENA_Pos             2U                                            /*!< MPU 
1168:/home/enbin/Documents/code/STM/stm32-quadrocopter/cmsis/core_cm3.h **** #define MPU_CTRL_PRIVDEFENA_Msk            (1UL << MPU_CTRL_PRIVDEFENA_Pos)               /*!< MPU 
1169:/home/enbin/Documents/code/STM/stm32-quadrocopter/cmsis/core_cm3.h **** 
1170:/home/enbin/Documents/code/STM/stm32-quadrocopter/cmsis/core_cm3.h **** #define MPU_CTRL_HFNMIENA_Pos               1U                                            /*!< MPU 
1171:/home/enbin/Documents/code/STM/stm32-quadrocopter/cmsis/core_cm3.h **** #define MPU_CTRL_HFNMIENA_Msk              (1UL << MPU_CTRL_HFNMIENA_Pos)                 /*!< MPU 
1172:/home/enbin/Documents/code/STM/stm32-quadrocopter/cmsis/core_cm3.h **** 
1173:/home/enbin/Documents/code/STM/stm32-quadrocopter/cmsis/core_cm3.h **** #define MPU_CTRL_ENABLE_Pos                 0U                                            /*!< MPU 
1174:/home/enbin/Documents/code/STM/stm32-quadrocopter/cmsis/core_cm3.h **** #define MPU_CTRL_ENABLE_Msk                (1UL /*<< MPU_CTRL_ENABLE_Pos*/)               /*!< MPU 
1175:/home/enbin/Documents/code/STM/stm32-quadrocopter/cmsis/core_cm3.h **** 
1176:/home/enbin/Documents/code/STM/stm32-quadrocopter/cmsis/core_cm3.h **** /* MPU Region Number Register Definitions */
1177:/home/enbin/Documents/code/STM/stm32-quadrocopter/cmsis/core_cm3.h **** #define MPU_RNR_REGION_Pos                  0U                                            /*!< MPU 
1178:/home/enbin/Documents/code/STM/stm32-quadrocopter/cmsis/core_cm3.h **** #define MPU_RNR_REGION_Msk                 (0xFFUL /*<< MPU_RNR_REGION_Pos*/)             /*!< MPU 
1179:/home/enbin/Documents/code/STM/stm32-quadrocopter/cmsis/core_cm3.h **** 
1180:/home/enbin/Documents/code/STM/stm32-quadrocopter/cmsis/core_cm3.h **** /* MPU Region Base Address Register Definitions */
1181:/home/enbin/Documents/code/STM/stm32-quadrocopter/cmsis/core_cm3.h **** #define MPU_RBAR_ADDR_Pos                   5U                                            /*!< MPU 
1182:/home/enbin/Documents/code/STM/stm32-quadrocopter/cmsis/core_cm3.h **** #define MPU_RBAR_ADDR_Msk                  (0x7FFFFFFUL << MPU_RBAR_ADDR_Pos)             /*!< MPU 
1183:/home/enbin/Documents/code/STM/stm32-quadrocopter/cmsis/core_cm3.h **** 
1184:/home/enbin/Documents/code/STM/stm32-quadrocopter/cmsis/core_cm3.h **** #define MPU_RBAR_VALID_Pos                  4U                                            /*!< MPU 
1185:/home/enbin/Documents/code/STM/stm32-quadrocopter/cmsis/core_cm3.h **** #define MPU_RBAR_VALID_Msk                 (1UL << MPU_RBAR_VALID_Pos)                    /*!< MPU 
1186:/home/enbin/Documents/code/STM/stm32-quadrocopter/cmsis/core_cm3.h **** 
1187:/home/enbin/Documents/code/STM/stm32-quadrocopter/cmsis/core_cm3.h **** #define MPU_RBAR_REGION_Pos                 0U                                            /*!< MPU 
1188:/home/enbin/Documents/code/STM/stm32-quadrocopter/cmsis/core_cm3.h **** #define MPU_RBAR_REGION_Msk                (0xFUL /*<< MPU_RBAR_REGION_Pos*/)             /*!< MPU 
1189:/home/enbin/Documents/code/STM/stm32-quadrocopter/cmsis/core_cm3.h **** 
1190:/home/enbin/Documents/code/STM/stm32-quadrocopter/cmsis/core_cm3.h **** /* MPU Region Attribute and Size Register Definitions */
1191:/home/enbin/Documents/code/STM/stm32-quadrocopter/cmsis/core_cm3.h **** #define MPU_RASR_ATTRS_Pos                 16U                                            /*!< MPU 
1192:/home/enbin/Documents/code/STM/stm32-quadrocopter/cmsis/core_cm3.h **** #define MPU_RASR_ATTRS_Msk                 (0xFFFFUL << MPU_RASR_ATTRS_Pos)               /*!< MPU 
ARM GAS  /tmp/ccIxWip2.s 			page 46


1193:/home/enbin/Documents/code/STM/stm32-quadrocopter/cmsis/core_cm3.h **** 
1194:/home/enbin/Documents/code/STM/stm32-quadrocopter/cmsis/core_cm3.h **** #define MPU_RASR_XN_Pos                    28U                                            /*!< MPU 
1195:/home/enbin/Documents/code/STM/stm32-quadrocopter/cmsis/core_cm3.h **** #define MPU_RASR_XN_Msk                    (1UL << MPU_RASR_XN_Pos)                       /*!< MPU 
1196:/home/enbin/Documents/code/STM/stm32-quadrocopter/cmsis/core_cm3.h **** 
1197:/home/enbin/Documents/code/STM/stm32-quadrocopter/cmsis/core_cm3.h **** #define MPU_RASR_AP_Pos                    24U                                            /*!< MPU 
1198:/home/enbin/Documents/code/STM/stm32-quadrocopter/cmsis/core_cm3.h **** #define MPU_RASR_AP_Msk                    (0x7UL << MPU_RASR_AP_Pos)                     /*!< MPU 
1199:/home/enbin/Documents/code/STM/stm32-quadrocopter/cmsis/core_cm3.h **** 
1200:/home/enbin/Documents/code/STM/stm32-quadrocopter/cmsis/core_cm3.h **** #define MPU_RASR_TEX_Pos                   19U                                            /*!< MPU 
1201:/home/enbin/Documents/code/STM/stm32-quadrocopter/cmsis/core_cm3.h **** #define MPU_RASR_TEX_Msk                   (0x7UL << MPU_RASR_TEX_Pos)                    /*!< MPU 
1202:/home/enbin/Documents/code/STM/stm32-quadrocopter/cmsis/core_cm3.h **** 
1203:/home/enbin/Documents/code/STM/stm32-quadrocopter/cmsis/core_cm3.h **** #define MPU_RASR_S_Pos                     18U                                            /*!< MPU 
1204:/home/enbin/Documents/code/STM/stm32-quadrocopter/cmsis/core_cm3.h **** #define MPU_RASR_S_Msk                     (1UL << MPU_RASR_S_Pos)                        /*!< MPU 
1205:/home/enbin/Documents/code/STM/stm32-quadrocopter/cmsis/core_cm3.h **** 
1206:/home/enbin/Documents/code/STM/stm32-quadrocopter/cmsis/core_cm3.h **** #define MPU_RASR_C_Pos                     17U                                            /*!< MPU 
1207:/home/enbin/Documents/code/STM/stm32-quadrocopter/cmsis/core_cm3.h **** #define MPU_RASR_C_Msk                     (1UL << MPU_RASR_C_Pos)                        /*!< MPU 
1208:/home/enbin/Documents/code/STM/stm32-quadrocopter/cmsis/core_cm3.h **** 
1209:/home/enbin/Documents/code/STM/stm32-quadrocopter/cmsis/core_cm3.h **** #define MPU_RASR_B_Pos                     16U                                            /*!< MPU 
1210:/home/enbin/Documents/code/STM/stm32-quadrocopter/cmsis/core_cm3.h **** #define MPU_RASR_B_Msk                     (1UL << MPU_RASR_B_Pos)                        /*!< MPU 
1211:/home/enbin/Documents/code/STM/stm32-quadrocopter/cmsis/core_cm3.h **** 
1212:/home/enbin/Documents/code/STM/stm32-quadrocopter/cmsis/core_cm3.h **** #define MPU_RASR_SRD_Pos                    8U                                            /*!< MPU 
1213:/home/enbin/Documents/code/STM/stm32-quadrocopter/cmsis/core_cm3.h **** #define MPU_RASR_SRD_Msk                   (0xFFUL << MPU_RASR_SRD_Pos)                   /*!< MPU 
1214:/home/enbin/Documents/code/STM/stm32-quadrocopter/cmsis/core_cm3.h **** 
1215:/home/enbin/Documents/code/STM/stm32-quadrocopter/cmsis/core_cm3.h **** #define MPU_RASR_SIZE_Pos                   1U                                            /*!< MPU 
1216:/home/enbin/Documents/code/STM/stm32-quadrocopter/cmsis/core_cm3.h **** #define MPU_RASR_SIZE_Msk                  (0x1FUL << MPU_RASR_SIZE_Pos)                  /*!< MPU 
1217:/home/enbin/Documents/code/STM/stm32-quadrocopter/cmsis/core_cm3.h **** 
1218:/home/enbin/Documents/code/STM/stm32-quadrocopter/cmsis/core_cm3.h **** #define MPU_RASR_ENABLE_Pos                 0U                                            /*!< MPU 
1219:/home/enbin/Documents/code/STM/stm32-quadrocopter/cmsis/core_cm3.h **** #define MPU_RASR_ENABLE_Msk                (1UL /*<< MPU_RASR_ENABLE_Pos*/)               /*!< MPU 
1220:/home/enbin/Documents/code/STM/stm32-quadrocopter/cmsis/core_cm3.h **** 
1221:/home/enbin/Documents/code/STM/stm32-quadrocopter/cmsis/core_cm3.h **** /*@} end of group CMSIS_MPU */
1222:/home/enbin/Documents/code/STM/stm32-quadrocopter/cmsis/core_cm3.h **** #endif
1223:/home/enbin/Documents/code/STM/stm32-quadrocopter/cmsis/core_cm3.h **** 
1224:/home/enbin/Documents/code/STM/stm32-quadrocopter/cmsis/core_cm3.h **** 
1225:/home/enbin/Documents/code/STM/stm32-quadrocopter/cmsis/core_cm3.h **** /**
1226:/home/enbin/Documents/code/STM/stm32-quadrocopter/cmsis/core_cm3.h ****   \ingroup  CMSIS_core_register
1227:/home/enbin/Documents/code/STM/stm32-quadrocopter/cmsis/core_cm3.h ****   \defgroup CMSIS_CoreDebug       Core Debug Registers (CoreDebug)
1228:/home/enbin/Documents/code/STM/stm32-quadrocopter/cmsis/core_cm3.h ****   \brief    Type definitions for the Core Debug Registers
1229:/home/enbin/Documents/code/STM/stm32-quadrocopter/cmsis/core_cm3.h ****   @{
1230:/home/enbin/Documents/code/STM/stm32-quadrocopter/cmsis/core_cm3.h ****  */
1231:/home/enbin/Documents/code/STM/stm32-quadrocopter/cmsis/core_cm3.h **** 
1232:/home/enbin/Documents/code/STM/stm32-quadrocopter/cmsis/core_cm3.h **** /**
1233:/home/enbin/Documents/code/STM/stm32-quadrocopter/cmsis/core_cm3.h ****   \brief  Structure type to access the Core Debug Register (CoreDebug).
1234:/home/enbin/Documents/code/STM/stm32-quadrocopter/cmsis/core_cm3.h ****  */
1235:/home/enbin/Documents/code/STM/stm32-quadrocopter/cmsis/core_cm3.h **** typedef struct
