ARM GAS  /tmp/ccNHoAC7.s 			page 1


   1              		.cpu cortex-m3
   2              		.eabi_attribute 20, 1
   3              		.eabi_attribute 21, 1
   4              		.eabi_attribute 23, 3
   5              		.eabi_attribute 24, 1
   6              		.eabi_attribute 25, 1
   7              		.eabi_attribute 26, 1
   8              		.eabi_attribute 30, 1
   9              		.eabi_attribute 34, 1
  10              		.eabi_attribute 18, 4
  11              		.file	"nvic.c"
  12              		.text
  13              	.Ltext0:
  14              		.cfi_sections	.debug_frame
  15              		.align	1
  16              		.global	NMI_Handler
  17              		.syntax unified
  18              		.thumb
  19              		.thumb_func
  20              		.fpu softvfp
  21              		.type	NMI_Handler, %function
  22              	NMI_Handler:
  23              	.LFB63:
  24              		.file 1 "drivers/nvic.c"
   1:drivers/nvic.c **** /* Includes ------------------------------------------------------------------*/
   2:drivers/nvic.c **** #include "nvic.h"
   3:drivers/nvic.c **** 
   4:drivers/nvic.c **** uint16_t tim2_count=0;
   5:drivers/nvic.c **** uint16_t tim3_count=0;
   6:drivers/nvic.c **** 
   7:drivers/nvic.c **** void NMI_Handler(void)
   8:drivers/nvic.c **** {
  25              		.loc 1 8 0
  26              		.cfi_startproc
  27              		@ args = 0, pretend = 0, frame = 0
  28              		@ frame_needed = 0, uses_anonymous_args = 0
  29 0000 08B5     		push	{r3, lr}
  30              		.cfi_def_cfa_offset 8
  31              		.cfi_offset 3, -8
  32              		.cfi_offset 14, -4
   9:drivers/nvic.c ****   /* This interrupt is generated when HSE clock fails */
  10:drivers/nvic.c **** 
  11:drivers/nvic.c ****   if (RCC_GetITStatus(RCC_IT_CSS) != RESET)
  33              		.loc 1 11 0
  34 0002 8020     		movs	r0, #128
  35 0004 FFF7FEFF 		bl	RCC_GetITStatus
  36              	.LVL0:
  37 0008 00B9     		cbnz	r0, .L4
  38              	.L1:
  39 000a 08BD     		pop	{r3, pc}
  40              	.L4:
  12:drivers/nvic.c ****   {/* At this stage: HSE, PLL are disabled (but no change on PLL config) and HSI
  13:drivers/nvic.c ****        is selected as system clock source */
  14:drivers/nvic.c **** 
  15:drivers/nvic.c ****     /* Enable HSE */
  16:drivers/nvic.c ****     RCC_HSEConfig(RCC_HSE_ON);
  41              		.loc 1 16 0
ARM GAS  /tmp/ccNHoAC7.s 			page 2


  42 000c 4FF48030 		mov	r0, #65536
  43 0010 FFF7FEFF 		bl	RCC_HSEConfig
  44              	.LVL1:
  17:drivers/nvic.c **** 
  18:drivers/nvic.c ****     /* Enable HSE Ready interrupt */
  19:drivers/nvic.c ****     RCC_ITConfig(RCC_IT_HSERDY, ENABLE);
  45              		.loc 1 19 0
  46 0014 0121     		movs	r1, #1
  47 0016 0820     		movs	r0, #8
  48 0018 FFF7FEFF 		bl	RCC_ITConfig
  49              	.LVL2:
  20:drivers/nvic.c **** 
  21:drivers/nvic.c **** #ifndef SYSCLK_HSE
  22:drivers/nvic.c ****  #ifdef STM32F10X_CL
  23:drivers/nvic.c ****     /* Enable PLL and PLL2 Ready interrupts */
  24:drivers/nvic.c ****     RCC_ITConfig(RCC_IT_PLLRDY | RCC_IT_PLL2RDY, ENABLE);
  25:drivers/nvic.c ****  #else
  26:drivers/nvic.c ****     /* Enable PLL Ready interrupt */
  27:drivers/nvic.c ****     RCC_ITConfig(RCC_IT_PLLRDY, ENABLE);
  50              		.loc 1 27 0
  51 001c 0121     		movs	r1, #1
  52 001e 1020     		movs	r0, #16
  53 0020 FFF7FEFF 		bl	RCC_ITConfig
  54              	.LVL3:
  28:drivers/nvic.c ****  #endif	/* STM32F10X_CL */
  29:drivers/nvic.c **** #endif /* SYSCLK_HSE */
  30:drivers/nvic.c **** 
  31:drivers/nvic.c ****     /* Clear Clock Security System interrupt pending bit */
  32:drivers/nvic.c ****     RCC_ClearITPendingBit(RCC_IT_CSS);
  55              		.loc 1 32 0
  56 0024 8020     		movs	r0, #128
  57 0026 FFF7FEFF 		bl	RCC_ClearITPendingBit
  58              	.LVL4:
  33:drivers/nvic.c **** 
  34:drivers/nvic.c ****     /* Once HSE clock recover, the HSERDY interrupt is generated and in the RCC ISR
  35:drivers/nvic.c ****        routine the system clock will be reconfigured to its previous state (before
  36:drivers/nvic.c ****        HSE clock failure) */
  37:drivers/nvic.c ****   }
  38:drivers/nvic.c **** }
  59              		.loc 1 38 0
  60 002a EEE7     		b	.L1
  61              		.cfi_endproc
  62              	.LFE63:
  63              		.size	NMI_Handler, .-NMI_Handler
  64              		.align	1
  65              		.global	HardFault_Handler
  66              		.syntax unified
  67              		.thumb
  68              		.thumb_func
  69              		.fpu softvfp
  70              		.type	HardFault_Handler, %function
  71              	HardFault_Handler:
  72              	.LFB64:
  39:drivers/nvic.c **** 
  40:drivers/nvic.c **** /**
  41:drivers/nvic.c ****   * @brief  This function handles Hard Fault exception.
  42:drivers/nvic.c ****   * @param  None
ARM GAS  /tmp/ccNHoAC7.s 			page 3


  43:drivers/nvic.c ****   * @retval None
  44:drivers/nvic.c ****   */
  45:drivers/nvic.c **** void HardFault_Handler(void)
  46:drivers/nvic.c **** {
  73              		.loc 1 46 0
  74              		.cfi_startproc
  75              		@ Volatile: function does not return.
  76              		@ args = 0, pretend = 0, frame = 0
  77              		@ frame_needed = 0, uses_anonymous_args = 0
  78              		@ link register save eliminated.
  79              	.L6:
  80 002c FEE7     		b	.L6
  81              		.cfi_endproc
  82              	.LFE64:
  83              		.size	HardFault_Handler, .-HardFault_Handler
  84              		.align	1
  85              		.global	MemManage_Handler
  86              		.syntax unified
  87              		.thumb
  88              		.thumb_func
  89              		.fpu softvfp
  90              		.type	MemManage_Handler, %function
  91              	MemManage_Handler:
  92              	.LFB65:
  47:drivers/nvic.c ****   /* Go to infinite loop when Hard Fault exception occurs */
  48:drivers/nvic.c ****   while (1)
  49:drivers/nvic.c ****   {
  50:drivers/nvic.c ****   }
  51:drivers/nvic.c **** }
  52:drivers/nvic.c **** 
  53:drivers/nvic.c **** /**
  54:drivers/nvic.c ****   * @brief  This function handles Memory Manage exception.
  55:drivers/nvic.c ****   * @param  None
  56:drivers/nvic.c ****   * @retval None
  57:drivers/nvic.c ****   */
  58:drivers/nvic.c **** void MemManage_Handler(void)
  59:drivers/nvic.c **** {
  93              		.loc 1 59 0
  94              		.cfi_startproc
  95              		@ Volatile: function does not return.
  96              		@ args = 0, pretend = 0, frame = 0
  97              		@ frame_needed = 0, uses_anonymous_args = 0
  98              		@ link register save eliminated.
  99              	.L8:
 100 002e FEE7     		b	.L8
 101              		.cfi_endproc
 102              	.LFE65:
 103              		.size	MemManage_Handler, .-MemManage_Handler
 104              		.align	1
 105              		.global	BusFault_Handler
 106              		.syntax unified
 107              		.thumb
 108              		.thumb_func
 109              		.fpu softvfp
 110              		.type	BusFault_Handler, %function
 111              	BusFault_Handler:
 112              	.LFB66:
ARM GAS  /tmp/ccNHoAC7.s 			page 4


  60:drivers/nvic.c ****   /* Go to infinite loop when Memory Manage exception occurs */
  61:drivers/nvic.c ****   while (1)
  62:drivers/nvic.c ****   {
  63:drivers/nvic.c ****   }
  64:drivers/nvic.c **** }
  65:drivers/nvic.c **** 
  66:drivers/nvic.c **** /**
  67:drivers/nvic.c ****   * @brief  This function handles Bus Fault exception.
  68:drivers/nvic.c ****   * @param  None
  69:drivers/nvic.c ****   * @retval None
  70:drivers/nvic.c ****   */
  71:drivers/nvic.c **** void BusFault_Handler(void)
  72:drivers/nvic.c **** {
 113              		.loc 1 72 0
 114              		.cfi_startproc
 115              		@ Volatile: function does not return.
 116              		@ args = 0, pretend = 0, frame = 0
 117              		@ frame_needed = 0, uses_anonymous_args = 0
 118              		@ link register save eliminated.
 119              	.L10:
 120 0030 FEE7     		b	.L10
 121              		.cfi_endproc
 122              	.LFE66:
 123              		.size	BusFault_Handler, .-BusFault_Handler
 124              		.align	1
 125              		.global	UsageFault_Handler
 126              		.syntax unified
 127              		.thumb
 128              		.thumb_func
 129              		.fpu softvfp
 130              		.type	UsageFault_Handler, %function
 131              	UsageFault_Handler:
 132              	.LFB67:
  73:drivers/nvic.c ****   /* Go to infinite loop when Bus Fault exception occurs */
  74:drivers/nvic.c ****   while (1)
  75:drivers/nvic.c ****   {
  76:drivers/nvic.c ****   }
  77:drivers/nvic.c **** }
  78:drivers/nvic.c **** 
  79:drivers/nvic.c **** /**
  80:drivers/nvic.c ****   * @brief  This function handles Usage Fault exception.
  81:drivers/nvic.c ****   * @param  None
  82:drivers/nvic.c ****   * @retval None
  83:drivers/nvic.c ****   */
  84:drivers/nvic.c **** void UsageFault_Handler(void)
  85:drivers/nvic.c **** {
 133              		.loc 1 85 0
 134              		.cfi_startproc
 135              		@ Volatile: function does not return.
 136              		@ args = 0, pretend = 0, frame = 0
 137              		@ frame_needed = 0, uses_anonymous_args = 0
 138              		@ link register save eliminated.
 139              	.L12:
 140 0032 FEE7     		b	.L12
 141              		.cfi_endproc
 142              	.LFE67:
 143              		.size	UsageFault_Handler, .-UsageFault_Handler
ARM GAS  /tmp/ccNHoAC7.s 			page 5


 144              		.align	1
 145              		.global	SVC_Handler
 146              		.syntax unified
 147              		.thumb
 148              		.thumb_func
 149              		.fpu softvfp
 150              		.type	SVC_Handler, %function
 151              	SVC_Handler:
 152              	.LFB68:
  86:drivers/nvic.c ****   /* Go to infinite loop when Usage Fault exception occurs */
  87:drivers/nvic.c ****   while (1)
  88:drivers/nvic.c ****   {
  89:drivers/nvic.c ****   }
  90:drivers/nvic.c **** }
  91:drivers/nvic.c **** 
  92:drivers/nvic.c **** /**
  93:drivers/nvic.c ****   * @brief  This function handles SVCall exception.
  94:drivers/nvic.c ****   * @param  None
  95:drivers/nvic.c ****   * @retval None
  96:drivers/nvic.c ****   */
  97:drivers/nvic.c **** void SVC_Handler(void)
  98:drivers/nvic.c **** {
 153              		.loc 1 98 0
 154              		.cfi_startproc
 155              		@ args = 0, pretend = 0, frame = 0
 156              		@ frame_needed = 0, uses_anonymous_args = 0
 157              		@ link register save eliminated.
 158 0034 7047     		bx	lr
 159              		.cfi_endproc
 160              	.LFE68:
 161              		.size	SVC_Handler, .-SVC_Handler
 162              		.align	1
 163              		.global	DebugMon_Handler
 164              		.syntax unified
 165              		.thumb
 166              		.thumb_func
 167              		.fpu softvfp
 168              		.type	DebugMon_Handler, %function
 169              	DebugMon_Handler:
 170              	.LFB69:
  99:drivers/nvic.c **** }
 100:drivers/nvic.c **** 
 101:drivers/nvic.c **** /**
 102:drivers/nvic.c ****   * @brief  This function handles Debug Monitor exception.
 103:drivers/nvic.c ****   * @param  None
 104:drivers/nvic.c ****   * @retval None
 105:drivers/nvic.c ****   */
 106:drivers/nvic.c **** void DebugMon_Handler(void)
 107:drivers/nvic.c **** {
 171              		.loc 1 107 0
 172              		.cfi_startproc
 173              		@ args = 0, pretend = 0, frame = 0
 174              		@ frame_needed = 0, uses_anonymous_args = 0
 175              		@ link register save eliminated.
 176 0036 7047     		bx	lr
 177              		.cfi_endproc
 178              	.LFE69:
ARM GAS  /tmp/ccNHoAC7.s 			page 6


 179              		.size	DebugMon_Handler, .-DebugMon_Handler
 180              		.align	1
 181              		.global	PendSV_Handler
 182              		.syntax unified
 183              		.thumb
 184              		.thumb_func
 185              		.fpu softvfp
 186              		.type	PendSV_Handler, %function
 187              	PendSV_Handler:
 188              	.LFB70:
 108:drivers/nvic.c **** }
 109:drivers/nvic.c **** 
 110:drivers/nvic.c **** /**
 111:drivers/nvic.c ****   * @brief  This function handles PendSV_Handler exception.
 112:drivers/nvic.c ****   * @param  None
 113:drivers/nvic.c ****   * @retval None
 114:drivers/nvic.c ****   */
 115:drivers/nvic.c **** void PendSV_Handler(void)
 116:drivers/nvic.c **** {
 189              		.loc 1 116 0
 190              		.cfi_startproc
 191              		@ args = 0, pretend = 0, frame = 0
 192              		@ frame_needed = 0, uses_anonymous_args = 0
 193              		@ link register save eliminated.
 194 0038 7047     		bx	lr
 195              		.cfi_endproc
 196              	.LFE70:
 197              		.size	PendSV_Handler, .-PendSV_Handler
 198              		.align	1
 199              		.global	SysTick_Handler
 200              		.syntax unified
 201              		.thumb
 202              		.thumb_func
 203              		.fpu softvfp
 204              		.type	SysTick_Handler, %function
 205              	SysTick_Handler:
 206              	.LFB71:
 117:drivers/nvic.c **** }
 118:drivers/nvic.c **** 
 119:drivers/nvic.c **** /**
 120:drivers/nvic.c ****   * @brief  This function handles SysTick Handler.
 121:drivers/nvic.c ****   * @param  None
 122:drivers/nvic.c ****   * @retval None
 123:drivers/nvic.c ****   */
 124:drivers/nvic.c **** void SysTick_Handler(void)
 125:drivers/nvic.c **** {
 207              		.loc 1 125 0
 208              		.cfi_startproc
 209              		@ args = 0, pretend = 0, frame = 0
 210              		@ frame_needed = 0, uses_anonymous_args = 0
 211              		@ link register save eliminated.
 212 003a 7047     		bx	lr
 213              		.cfi_endproc
 214              	.LFE71:
 215              		.size	SysTick_Handler, .-SysTick_Handler
 216              		.align	1
 217              		.global	TIM2_IRQHandler
ARM GAS  /tmp/ccNHoAC7.s 			page 7


 218              		.syntax unified
 219              		.thumb
 220              		.thumb_func
 221              		.fpu softvfp
 222              		.type	TIM2_IRQHandler, %function
 223              	TIM2_IRQHandler:
 224              	.LFB72:
 126:drivers/nvic.c **** }
 127:drivers/nvic.c **** 
 128:drivers/nvic.c **** /******************************************************************************/
 129:drivers/nvic.c **** /*            STM32F10x Peripherals Interrupt Handlers                        */
 130:drivers/nvic.c **** /******************************************************************************/
 131:drivers/nvic.c **** 
 132:drivers/nvic.c **** void TIM2_IRQHandler(void)
 133:drivers/nvic.c **** {
 225              		.loc 1 133 0
 226              		.cfi_startproc
 227              		@ args = 0, pretend = 0, frame = 0
 228              		@ frame_needed = 0, uses_anonymous_args = 0
 229              		.loc 1 133 0
 230 003c 08B5     		push	{r3, lr}
 231              		.cfi_def_cfa_offset 8
 232              		.cfi_offset 3, -8
 233              		.cfi_offset 14, -4
 134:drivers/nvic.c ****   //检测是否发生溢出更新事件
 135:drivers/nvic.c ****   if(TIM_GetITStatus(TIM2, TIM_IT_Update) != RESET) {
 234              		.loc 1 135 0
 235 003e 0121     		movs	r1, #1
 236 0040 4FF08040 		mov	r0, #1073741824
 237 0044 FFF7FEFF 		bl	TIM_GetITStatus
 238              	.LVL5:
 239 0048 00B9     		cbnz	r0, .L20
 240              	.L17:
 241 004a 08BD     		pop	{r3, pc}
 242              	.L20:
 136:drivers/nvic.c ****     //清除TIM2的中断待处理位
 137:drivers/nvic.c ****     TIM_ClearITPendingBit(TIM2 , TIM_FLAG_Update);
 243              		.loc 1 137 0
 244 004c 0121     		movs	r1, #1
 245 004e 4FF08040 		mov	r0, #1073741824
 246 0052 FFF7FEFF 		bl	TIM_ClearITPendingBit
 247              	.LVL6:
 138:drivers/nvic.c ****     tim2_count++;
 248              		.loc 1 138 0
 249 0056 024A     		ldr	r2, .L21
 250 0058 1388     		ldrh	r3, [r2]
 251 005a 0133     		adds	r3, r3, #1
 252 005c 1380     		strh	r3, [r2]	@ movhi
 139:drivers/nvic.c ****   }
 140:drivers/nvic.c **** }
 253              		.loc 1 140 0
 254 005e F4E7     		b	.L17
 255              	.L22:
 256              		.align	2
 257              	.L21:
 258 0060 00000000 		.word	.LANCHOR0
 259              		.cfi_endproc
ARM GAS  /tmp/ccNHoAC7.s 			page 8


 260              	.LFE72:
 261              		.size	TIM2_IRQHandler, .-TIM2_IRQHandler
 262              		.align	1
 263              		.global	TIM3_IRQHandler
 264              		.syntax unified
 265              		.thumb
 266              		.thumb_func
 267              		.fpu softvfp
 268              		.type	TIM3_IRQHandler, %function
 269              	TIM3_IRQHandler:
 270              	.LFB73:
 141:drivers/nvic.c **** 
 142:drivers/nvic.c **** void TIM3_IRQHandler(void)
 143:drivers/nvic.c **** {
 271              		.loc 1 143 0
 272              		.cfi_startproc
 273              		@ args = 0, pretend = 0, frame = 0
 274              		@ frame_needed = 0, uses_anonymous_args = 0
 275 0064 08B5     		push	{r3, lr}
 276              		.cfi_def_cfa_offset 8
 277              		.cfi_offset 3, -8
 278              		.cfi_offset 14, -4
 144:drivers/nvic.c ****   //检测是否发生溢出更新事件
 145:drivers/nvic.c ****   if(TIM_GetITStatus(TIM3, TIM_IT_Update) != RESET) {
 279              		.loc 1 145 0
 280 0066 0121     		movs	r1, #1
 281 0068 0648     		ldr	r0, .L27
 282 006a FFF7FEFF 		bl	TIM_GetITStatus
 283              	.LVL7:
 284 006e 00B9     		cbnz	r0, .L26
 285              	.L23:
 286 0070 08BD     		pop	{r3, pc}
 287              	.L26:
 146:drivers/nvic.c ****     TIM_ClearITPendingBit(TIM3,TIM_IT_Update);
 288              		.loc 1 146 0
 289 0072 0121     		movs	r1, #1
 290 0074 0348     		ldr	r0, .L27
 291 0076 FFF7FEFF 		bl	TIM_ClearITPendingBit
 292              	.LVL8:
 147:drivers/nvic.c ****     tim3_count++;
 293              		.loc 1 147 0
 294 007a 034A     		ldr	r2, .L27+4
 295 007c 5388     		ldrh	r3, [r2, #2]
 296 007e 0133     		adds	r3, r3, #1
 297 0080 5380     		strh	r3, [r2, #2]	@ movhi
 148:drivers/nvic.c ****   }
 149:drivers/nvic.c **** }
 298              		.loc 1 149 0
 299 0082 F5E7     		b	.L23
 300              	.L28:
 301              		.align	2
 302              	.L27:
 303 0084 00040040 		.word	1073742848
 304 0088 00000000 		.word	.LANCHOR0
 305              		.cfi_endproc
 306              	.LFE73:
 307              		.size	TIM3_IRQHandler, .-TIM3_IRQHandler
ARM GAS  /tmp/ccNHoAC7.s 			page 9


 308              		.align	1
 309              		.global	RCC_IRQHandler
 310              		.syntax unified
 311              		.thumb
 312              		.thumb_func
 313              		.fpu softvfp
 314              		.type	RCC_IRQHandler, %function
 315              	RCC_IRQHandler:
 316              	.LFB74:
 150:drivers/nvic.c **** /**
 151:drivers/nvic.c ****   * @brief  This function handles RCC interrupt request. 
 152:drivers/nvic.c ****   * @param  None
 153:drivers/nvic.c ****   * @retval None
 154:drivers/nvic.c ****   */
 155:drivers/nvic.c **** void RCC_IRQHandler(void)
 156:drivers/nvic.c **** {
 317              		.loc 1 156 0
 318              		.cfi_startproc
 319              		@ args = 0, pretend = 0, frame = 0
 320              		@ frame_needed = 0, uses_anonymous_args = 0
 321 008c 08B5     		push	{r3, lr}
 322              		.cfi_def_cfa_offset 8
 323              		.cfi_offset 3, -8
 324              		.cfi_offset 14, -4
 157:drivers/nvic.c ****   if(RCC_GetITStatus(RCC_IT_HSERDY) != RESET)
 325              		.loc 1 157 0
 326 008e 0820     		movs	r0, #8
 327 0090 FFF7FEFF 		bl	RCC_GetITStatus
 328              	.LVL9:
 329 0094 20B9     		cbnz	r0, .L33
 330              	.L30:
 158:drivers/nvic.c ****   { 
 159:drivers/nvic.c ****     /* Clear HSERDY interrupt pending bit */
 160:drivers/nvic.c ****     RCC_ClearITPendingBit(RCC_IT_HSERDY);
 161:drivers/nvic.c **** 
 162:drivers/nvic.c ****     /* Check if the HSE clock is still available */
 163:drivers/nvic.c ****     if (RCC_GetFlagStatus(RCC_FLAG_HSERDY) != RESET)
 164:drivers/nvic.c ****     { 
 165:drivers/nvic.c **** #ifdef SYSCLK_HSE
 166:drivers/nvic.c ****       /* Select HSE as system clock source */
 167:drivers/nvic.c ****       RCC_SYSCLKConfig(RCC_SYSCLKSource_HSE);
 168:drivers/nvic.c **** #else
 169:drivers/nvic.c ****  #ifdef STM32F10X_CL
 170:drivers/nvic.c ****       /* Enable PLL2 */
 171:drivers/nvic.c ****       RCC_PLL2Cmd(ENABLE);
 172:drivers/nvic.c ****  #else
 173:drivers/nvic.c ****       /* Enable PLL: once the PLL is ready the PLLRDY interrupt is generated */ 
 174:drivers/nvic.c ****       RCC_PLLCmd(ENABLE);
 175:drivers/nvic.c ****  #endif	/* STM32F10X_CL */
 176:drivers/nvic.c **** #endif /* SYSCLK_HSE */      
 177:drivers/nvic.c ****     }
 178:drivers/nvic.c ****   }
 179:drivers/nvic.c **** 
 180:drivers/nvic.c **** #ifdef STM32F10X_CL
 181:drivers/nvic.c ****   if(RCC_GetITStatus(RCC_IT_PLL2RDY) != RESET)
 182:drivers/nvic.c ****   { 
 183:drivers/nvic.c ****     /* Clear PLL2RDY interrupt pending bit */
ARM GAS  /tmp/ccNHoAC7.s 			page 10


 184:drivers/nvic.c ****     RCC_ClearITPendingBit(RCC_IT_PLL2RDY);
 185:drivers/nvic.c **** 
 186:drivers/nvic.c ****     /* Enable PLL: once the PLL is ready the PLLRDY interrupt is generated */ 
 187:drivers/nvic.c ****     RCC_PLLCmd(ENABLE);
 188:drivers/nvic.c ****   }
 189:drivers/nvic.c **** #endif /* STM32F10X_CL */   
 190:drivers/nvic.c **** 
 191:drivers/nvic.c ****   if(RCC_GetITStatus(RCC_IT_PLLRDY) != RESET)
 331              		.loc 1 191 0
 332 0096 1020     		movs	r0, #16
 333 0098 FFF7FEFF 		bl	RCC_GetITStatus
 334              	.LVL10:
 335 009c 60B9     		cbnz	r0, .L34
 336              	.L29:
 337 009e 08BD     		pop	{r3, pc}
 338              	.L33:
 160:drivers/nvic.c **** 
 339              		.loc 1 160 0
 340 00a0 0820     		movs	r0, #8
 341 00a2 FFF7FEFF 		bl	RCC_ClearITPendingBit
 342              	.LVL11:
 163:drivers/nvic.c ****     { 
 343              		.loc 1 163 0
 344 00a6 3120     		movs	r0, #49
 345 00a8 FFF7FEFF 		bl	RCC_GetFlagStatus
 346              	.LVL12:
 347 00ac 0028     		cmp	r0, #0
 348 00ae F2D0     		beq	.L30
 174:drivers/nvic.c ****  #endif	/* STM32F10X_CL */
 349              		.loc 1 174 0
 350 00b0 0120     		movs	r0, #1
 351 00b2 FFF7FEFF 		bl	RCC_PLLCmd
 352              	.LVL13:
 353 00b6 EEE7     		b	.L30
 354              	.L34:
 192:drivers/nvic.c ****   { 
 193:drivers/nvic.c ****     /* Clear PLLRDY interrupt pending bit */
 194:drivers/nvic.c ****     RCC_ClearITPendingBit(RCC_IT_PLLRDY);
 355              		.loc 1 194 0
 356 00b8 1020     		movs	r0, #16
 357 00ba FFF7FEFF 		bl	RCC_ClearITPendingBit
 358              	.LVL14:
 195:drivers/nvic.c **** 
 196:drivers/nvic.c ****     /* Check if the PLL is still locked */
 197:drivers/nvic.c ****     if (RCC_GetFlagStatus(RCC_FLAG_PLLRDY) != RESET)
 359              		.loc 1 197 0
 360 00be 3920     		movs	r0, #57
 361 00c0 FFF7FEFF 		bl	RCC_GetFlagStatus
 362              	.LVL15:
 363 00c4 0028     		cmp	r0, #0
 364 00c6 EAD0     		beq	.L29
 198:drivers/nvic.c ****     { 
 199:drivers/nvic.c ****       /* Select PLL as system clock source */
 200:drivers/nvic.c ****       RCC_SYSCLKConfig(RCC_SYSCLKSource_PLLCLK);
 365              		.loc 1 200 0
 366 00c8 0220     		movs	r0, #2
 367 00ca FFF7FEFF 		bl	RCC_SYSCLKConfig
ARM GAS  /tmp/ccNHoAC7.s 			page 11


 368              	.LVL16:
 201:drivers/nvic.c ****     }
 202:drivers/nvic.c ****   }
 203:drivers/nvic.c **** }
 369              		.loc 1 203 0
 370 00ce E6E7     		b	.L29
 371              		.cfi_endproc
 372              	.LFE74:
 373              		.size	RCC_IRQHandler, .-RCC_IRQHandler
 374              		.global	tim3_count
 375              		.global	tim2_count
 376              		.bss
 377              		.align	1
 378              		.set	.LANCHOR0,. + 0
 379              		.type	tim2_count, %object
 380              		.size	tim2_count, 2
 381              	tim2_count:
 382 0000 0000     		.space	2
 383              		.type	tim3_count, %object
 384              		.size	tim3_count, 2
 385              	tim3_count:
 386 0002 0000     		.space	2
 387              		.text
 388              	.Letext0:
 389              		.file 2 "/usr/arm-none-eabi/include/machine/_default_types.h"
 390              		.file 3 "/usr/arm-none-eabi/include/sys/_stdint.h"
 391              		.file 4 "/home/faker/Documents/code/STM/stm32-quadrocopter/cmsis/core_cm3.h"
 392              		.file 5 "/home/faker/Documents/code/STM/stm32-quadrocopter/lib/inc/system_stm32f10x.h"
 393              		.file 6 "/home/faker/Documents/code/STM/stm32-quadrocopter/lib/inc/stm32f10x.h"
 394              		.file 7 "drivers/ahrs.h"
 395              		.file 8 "drivers/mpu6050.h"
 396              		.file 9 "/usr/arm-none-eabi/include/sys/lock.h"
 397              		.file 10 "/usr/arm-none-eabi/include/sys/_types.h"
 398              		.file 11 "/usr/lib/gcc/arm-none-eabi/6.1.1/include/stddef.h"
 399              		.file 12 "/usr/arm-none-eabi/include/sys/reent.h"
 400              		.file 13 "/usr/arm-none-eabi/include/stdlib.h"
 401              		.file 14 "/usr/arm-none-eabi/include/math.h"
 402              		.file 15 "/usr/arm-none-eabi/include/sys/errno.h"
 403              		.file 16 "drivers/nvic.h"
 404              		.file 17 "/home/faker/Documents/code/STM/stm32-quadrocopter/lib/inc/stm32f10x_rcc.h"
 405              		.file 18 "/home/faker/Documents/code/STM/stm32-quadrocopter/lib/inc/stm32f10x_tim.h"