ARM GAS  /tmp/ccNHoAC7.s 			page 1


   1              		.cpu cortex-m3
   2              		.eabi_attribute 20, 1
   3              		.eabi_attribute 21, 1
   4              		.eabi_attribute 23, 3
   5              		.eabi_attribute 24, 1
   6              		.eabi_attribute 25, 1
   7              		.eabi_attribute 26, 1
   8              		.eabi_attribute 30, 1
   9              		.eabi_attribute 34, 1
  10              		.eabi_attribute 18, 4
  11              		.file	"nvic.c"
  12              		.text
  13              	.Ltext0:
  14              		.cfi_sections	.debug_frame
  15              		.align	1
  16              		.global	NMI_Handler
  17              		.syntax unified
  18              		.thumb
  19              		.thumb_func
  20              		.fpu softvfp
  21              		.type	NMI_Handler, %function
  22              	NMI_Handler:
  23              	.LFB63:
  24              		.file 1 "drivers/nvic.c"
   1:drivers/nvic.c **** /* Includes ------------------------------------------------------------------*/
   2:drivers/nvic.c **** #include "nvic.h"
   3:drivers/nvic.c **** 
   4:drivers/nvic.c **** uint16_t tim2_count=0;
   5:drivers/nvic.c **** uint16_t tim3_count=0;
   6:drivers/nvic.c **** 
   7:drivers/nvic.c **** void NMI_Handler(void)
   8:drivers/nvic.c **** {
  25              		.loc 1 8 0
  26              		.cfi_startproc
  27              		@ args = 0, pretend = 0, frame = 0
  28              		@ frame_needed = 0, uses_anonymous_args = 0
  29 0000 08B5     		push	{r3, lr}
  30              		.cfi_def_cfa_offset 8
  31              		.cfi_offset 3, -8
  32              		.cfi_offset 14, -4
   9:drivers/nvic.c ****   /* This interrupt is generated when HSE clock fails */
  10:drivers/nvic.c **** 
  11:drivers/nvic.c ****   if (RCC_GetITStatus(RCC_IT_CSS) != RESET)
  33              		.loc 1 11 0
  34 0002 8020     		movs	r0, #128
  35 0004 FFF7FEFF 		bl	RCC_GetITStatus
  36              	.LVL0:
  37 0008 00B9     		cbnz	r0, .L4
  38              	.L1:
  39 000a 08BD     		pop	{r3, pc}
  40              	.L4:
  12:drivers/nvic.c ****   {/* At this stage: HSE, PLL are disabled (but no change on PLL config) and HSI
  13:drivers/nvic.c ****        is selected as system clock source */
  14:drivers/nvic.c **** 
  15:drivers/nvic.c ****     /* Enable HSE */
  16:drivers/nvic.c ****     RCC_HSEConfig(RCC_HSE_ON);
  41              		.loc 1 16 0
ARM GAS  /tmp/ccNHoAC7.s 			page 2


  42 000c 4FF48030 		mov	r0, #65536
  43 0010 FFF7FEFF 		bl	RCC_HSEConfig
  44              	.LVL1:
  17:drivers/nvic.c **** 
  18:drivers/nvic.c ****     /* Enable HSE Ready interrupt */
  19:drivers/nvic.c ****     RCC_ITConfig(RCC_IT_HSERDY, ENABLE);
  45              		.loc 1 19 0
  46 0014 0121     		movs	r1, #1
  47 0016 0820     		movs	r0, #8
  48 0018 FFF7FEFF 		bl	RCC_ITConfig
  49              	.LVL2:
  20:drivers/nvic.c **** 
  21:drivers/nvic.c **** #ifndef SYSCLK_HSE
  22:drivers/nvic.c ****  #ifdef STM32F10X_CL
  23:drivers/nvic.c ****     /* Enable PLL and PLL2 Ready interrupts */
  24:drivers/nvic.c ****     RCC_ITConfig(RCC_IT_PLLRDY | RCC_IT_PLL2RDY, ENABLE);
  25:drivers/nvic.c ****  #else
  26:drivers/nvic.c ****     /* Enable PLL Ready interrupt */
  27:drivers/nvic.c ****     RCC_ITConfig(RCC_IT_PLLRDY, ENABLE);
  50              		.loc 1 27 0
  51 001c 0121     		movs	r1, #1
  52 001e 1020     		movs	r0, #16
  53 0020 FFF7FEFF 		bl	RCC_ITConfig
  54              	.LVL3:
  28:drivers/nvic.c ****  #endif	/* STM32F10X_CL */
  29:drivers/nvic.c **** #endif /* SYSCLK_HSE */
  30:drivers/nvic.c **** 
  31:drivers/nvic.c ****     /* Clear Clock Security System interrupt pending bit */
  32:drivers/nvic.c ****     RCC_ClearITPendingBit(RCC_IT_CSS);
  55              		.loc 1 32 0
  56 0024 8020     		movs	r0, #128
  57 0026 FFF7FEFF 		bl	RCC_ClearITPendingBit
  58              	.LVL4:
  33:drivers/nvic.c **** 
  34:drivers/nvic.c ****     /* Once HSE clock recover, the HSERDY interrupt is generated and in the RCC ISR
  35:drivers/nvic.c ****        routine the system clock will be reconfigured to its previous state (before
  36:drivers/nvic.c ****        HSE clock failure) */
  37:drivers/nvic.c ****   }
  38:drivers/nvic.c **** }
  59              		.loc 1 38 0
  60 002a EEE7     		b	.L1
  61              		.cfi_endproc
  62              	.LFE63:
  63              		.size	NMI_Handler, .-NMI_Handler
  64              		.align	1
  65              		.global	HardFault_Handler
  66              		.syntax unified
  67              		.thumb
  68              		.thumb_func
  69              		.fpu softvfp
  70              		.type	HardFault_Handler, %function
  71              	HardFault_Handler:
  72              	.LFB64:
  39:drivers/nvic.c **** 
  40:drivers/nvic.c **** /**
  41:drivers/nvic.c ****   * @brief  This function handles Hard Fault exception.
  42:drivers/nvic.c ****   * @param  None
ARM GAS  /tmp/ccNHoAC7.s 			page 3


  43:drivers/nvic.c ****   * @retval None
  44:drivers/nvic.c ****   */
  45:drivers/nvic.c **** void HardFault_Handler(void)
  46:drivers/nvic.c **** {
  73              		.loc 1 46 0
  74              		.cfi_startproc
  75              		@ Volatile: function does not return.
  76              		@ args = 0, pretend = 0, frame = 0
  77              		@ frame_needed = 0, uses_anonymous_args = 0
  78              		@ link register save eliminated.
  79              	.L6:
  80 002c FEE7     		b	.L6
  81              		.cfi_endproc
  82              	.LFE64:
  83              		.size	HardFault_Handler, .-HardFault_Handler
  84              		.align	1
  85              		.global	MemManage_Handler
  86              		.syntax unified
  87              		.thumb
  88              		.thumb_func
  89              		.fpu softvfp
  90              		.type	MemManage_Handler, %function
  91              	MemManage_Handler:
  92              	.LFB65:
  47:drivers/nvic.c ****   /* Go to infinite loop when Hard Fault exception occurs */
  48:drivers/nvic.c ****   while (1)
  49:drivers/nvic.c ****   {
  50:drivers/nvic.c ****   }
  51:drivers/nvic.c **** }
  52:drivers/nvic.c **** 
  53:drivers/nvic.c **** /**
  54:drivers/nvic.c ****   * @brief  This function handles Memory Manage exception.
  55:drivers/nvic.c ****   * @param  None
  56:drivers/nvic.c ****   * @retval None
  57:drivers/nvic.c ****   */
  58:drivers/nvic.c **** void MemManage_Handler(void)
  59:drivers/nvic.c **** {
  93              		.loc 1 59 0
  94              		.cfi_startproc
  95              		@ Volatile: function does not return.
  96              		@ args = 0, pretend = 0, frame = 0
  97              		@ frame_needed = 0, uses_anonymous_args = 0
  98              		@ link register save eliminated.
  99              	.L8:
 100 002e FEE7     		b	.L8
 101              		.cfi_endproc
 102              	.LFE65:
 103              		.size	MemManage_Handler, .-MemManage_Handler
 104              		.align	1
 105              		.global	BusFault_Handler
 106              		.syntax unified
 107              		.thumb
 108              		.thumb_func
 109              		.fpu softvfp
 110              		.type	BusFault_Handler, %function
 111              	BusFault_Handler:
 112              	.LFB66:
ARM GAS  /tmp/ccNHoAC7.s 			page 4


  60:drivers/nvic.c ****   /* Go to infinite loop when Memory Manage exception occurs */
  61:drivers/nvic.c ****   while (1)
  62:drivers/nvic.c ****   {
  63:drivers/nvic.c ****   }
  64:drivers/nvic.c **** }
  65:drivers/nvic.c **** 
  66:drivers/nvic.c **** /**
  67:drivers/nvic.c ****   * @brief  This function handles Bus Fault exception.
  68:drivers/nvic.c ****   * @param  None
  69:drivers/nvic.c ****   * @retval None
  70:drivers/nvic.c ****   */
  71:drivers/nvic.c **** void BusFault_Handler(void)
  72:drivers/nvic.c **** {
 113              		.loc 1 72 0
 114              		.cfi_startproc
 115              		@ Volatile: function does not return.
 116              		@ args = 0, pretend = 0, frame = 0
 117              		@ frame_needed = 0, uses_anonymous_args = 0
 118              		@ link register save eliminated.
 119              	.L10:
 120 0030 FEE7     		b	.L10
 121              		.cfi_endproc
 122              	.LFE66:
 123              		.size	BusFault_Handler, .-BusFault_Handler
 124              		.align	1
 125              		.global	UsageFault_Handler
 126              		.syntax unified
 127              		.thumb
 128              		.thumb_func
 129              		.fpu softvfp
 130              		.type	UsageFault_Handler, %function
 131              	UsageFault_Handler:
 132              	.LFB67:
  73:drivers/nvic.c ****   /* Go to infinite loop when Bus Fault exception occurs */
  74:drivers/nvic.c ****   while (1)
  75:drivers/nvic.c ****   {
  76:drivers/nvic.c ****   }
  77:drivers/nvic.c **** }
  78:drivers/nvic.c **** 
  79:drivers/nvic.c **** /**
  80:drivers/nvic.c ****   * @brief  This function handles Usage Fault exception.
  81:drivers/nvic.c ****   * @param  None
  82:drivers/nvic.c ****   * @retval None
  83:drivers/nvic.c ****   */
  84:drivers/nvic.c **** void UsageFault_Handler(void)
  85:drivers/nvic.c **** {
 133              		.loc 1 85 0
 134              		.cfi_startproc
 135              		@ Volatile: function does not return.
 136              		@ args = 0, pretend = 0, frame = 0
 137              		@ frame_needed = 0, uses_anonymous_args = 0
 138              		@ link register save eliminated.
 139              	.L12:
 140 0032 FEE7     		b	.L12
 141              		.cfi_endproc
 142              	.LFE67:
 143              		.size	UsageFault_Handler, .-UsageFault_Handler
ARM GAS  /tmp/ccNHoAC7.s 			page 5


 144              		.align	1
 145              		.global	SVC_Handler
 146              		.syntax unified
 147              		.thumb
 148              		.thumb_func
 149              		.fpu softvfp
 150              		.type	SVC_Handler, %function
 151              	SVC_Handler:
 152              	.LFB68:
  86:drivers/nvic.c ****   /* Go to infinite loop when Usage Fault exception occurs */
  87:drivers/nvic.c ****   while (1)
  88:drivers/nvic.c ****   {
  89:drivers/nvic.c ****   }
  90:drivers/nvic.c **** }
  91:drivers/nvic.c **** 
  92:drivers/nvic.c **** /**
  93:drivers/nvic.c ****   * @brief  This function handles SVCall exception.
  94:drivers/nvic.c ****   * @param  None
  95:drivers/nvic.c ****   * @retval None
  96:drivers/nvic.c ****   */
  97:drivers/nvic.c **** void SVC_Handler(void)
  98:drivers/nvic.c **** {
 153              		.loc 1 98 0
 154              		.cfi_startproc
 155              		@ args = 0, pretend = 0, frame = 0
 156              		@ frame_needed = 0, uses_anonymous_args = 0
 157              		@ link register save eliminated.
 158 0034 7047     		bx	lr
 159              		.cfi_endproc
 160              	.LFE68:
 161              		.size	SVC_Handler, .-SVC_Handler
 162              		.align	1
 163              		.global	DebugMon_Handler
 164              		.syntax unified
 165              		.thumb
 166              		.thumb_func
 167              		.fpu softvfp
 168              		.type	DebugMon_Handler, %function
 169              	DebugMon_Handler:
 170              	.LFB69:
  99:drivers/nvic.c **** }
 100:drivers/nvic.c **** 
 101:drivers/nvic.c **** /**
 102:drivers/nvic.c ****   * @brief  This function handles Debug Monitor exception.
 103:drivers/nvic.c ****   * @param  None
 104:drivers/nvic.c ****   * @retval None
 105:drivers/nvic.c ****   */
 106:drivers/nvic.c **** void DebugMon_Handler(void)
 107:drivers/nvic.c **** {
 171              		.loc 1 107 0
 172              		.cfi_startproc
 173              		@ args = 0, pretend = 0, frame = 0
 174              		@ frame_needed = 0, uses_anonymous_args = 0
 175              		@ link register save eliminated.
 176 0036 7047     		bx	lr
 177              		.cfi_endproc
 178              	.LFE69:
ARM GAS  /tmp/ccNHoAC7.s 			page 6


 179              		.size	DebugMon_Handler, .-DebugMon_Handler
 180              		.align	1
 181              		.global	PendSV_Handler
 182              		.syntax unified
 183              		.thumb
 184              		.thumb_func
 185              		.fpu softvfp
 186              		.type	PendSV_Handler, %function
 187              	PendSV_Handler:
 188              	.LFB70:
 108:drivers/nvic.c **** }
 109:drivers/nvic.c **** 
 110:drivers/nvic.c **** /**
 111:drivers/nvic.c ****   * @brief  This function handles PendSV_Handler exception.
 112:drivers/nvic.c ****   * @param  None
 113:drivers/nvic.c ****   * @retval None
 114:drivers/nvic.c ****   */
 115:drivers/nvic.c **** void PendSV_Handler(void)
 116:drivers/nvic.c **** {
 189              		.loc 1 116 0
 190              		.cfi_startproc
 191              		@ args = 0, pretend = 0, frame = 0
 192              		@ frame_needed = 0, uses_anonymous_args = 0
 193              		@ link register save eliminated.
 194 0038 7047     		bx	lr
 195              		.cfi_endproc
 196              	.LFE70:
 197              		.size	PendSV_Handler, .-PendSV_Handler
 198              		.align	1
 199              		.global	SysTick_Handler
 200              		.syntax unified
 201              		.thumb
 202              		.thumb_func
 203              		.fpu softvfp
 204              		.type	SysTick_Handler, %function
 205              	SysTick_Handler:
 206              	.LFB71:
 117:drivers/nvic.c **** }
 118:drivers/nvic.c **** 
 119:drivers/nvic.c **** /**
 120:drivers/nvic.c ****   * @brief  This function handles SysTick Handler.
 121:drivers/nvic.c ****   * @param  None
 122:drivers/nvic.c ****   * @retval None
 123:drivers/nvic.c ****   */
 124:drivers/nvic.c **** void SysTick_Handler(void)
 125:drivers/nvic.c **** {
 207              		.loc 1 125 0
 208              		.cfi_startproc
 209              		@ args = 0, pretend = 0, frame = 0
 210              		@ frame_needed = 0, uses_anonymous_args = 0
 211              		@ link register save eliminated.
 212 003a 7047     		bx	lr
 213              		.cfi_endproc
 214              	.LFE71:
 215              		.size	SysTick_Handler, .-SysTick_Handler
 216              		.align	1
 217              		.global	TIM2_IRQHandler
ARM GAS  /tmp/ccNHoAC7.s 			page 7


 218              		.syntax unified
 219              		.thumb
 220              		.thumb_func
 221              		.fpu softvfp
 222              		.type	TIM2_IRQHandler, %function
 223              	TIM2_IRQHandler:
 224              	.LFB72:
 126:drivers/nvic.c **** }
 127:drivers/nvic.c **** 
 128:drivers/nvic.c **** /******************************************************************************/
 129:drivers/nvic.c **** /*            STM32F10x Peripherals Interrupt Handlers                        */
 130:drivers/nvic.c **** /******************************************************************************/
 131:drivers/nvic.c **** 
 132:drivers/nvic.c **** void TIM2_IRQHandler(void)
 133:drivers/nvic.c **** {
 225              		.loc 1 133 0
 226              		.cfi_startproc
 227              		@ args = 0, pretend = 0, frame = 0
 228              		@ frame_needed = 0, uses_anonymous_args = 0
 229              		.loc 1 133 0
 230 003c 08B5     		push	{r3, lr}
 231              		.cfi_def_cfa_offset 8
 232              		.cfi_offset 3, -8
 233              		.cfi_offset 14, -4
 134:drivers/nvic.c ****   //检测是否发生溢出更新事件
 135:drivers/nvic.c ****   if(TIM_GetITStatus(TIM2, TIM_IT_Update) != RESET) {
 234              		.loc 1 135 0
 235 003e 0121     		movs	r1, #1
 236 0040 4FF08040 		mov	r0, #1073741824
 237 0044 FFF7FEFF 		bl	TIM_GetITStatus
 238              	.LVL5:
 239 0048 00B9     		cbnz	r0, .L20
 240              	.L17:
 241 004a 08BD     		pop	{r3, pc}
 242              	.L20:
 136:drivers/nvic.c ****     //清除TIM2的中断待处理位
 137:drivers/nvic.c ****     TIM_ClearITPendingBit(TIM2 , TIM_FLAG_Update);
 243              		.loc 1 137 0
 244 004c 0121     		movs	r1, #1
 245 004e 4FF08040 		mov	r0, #1073741824
 246 0052 FFF7FEFF 		bl	TIM_ClearITPendingBit
 247              	.LVL6:
 138:drivers/nvic.c ****     tim2_count++;
 248              		.loc 1 138 0
 249 0056 024A     		ldr	r2, .L21
 250 0058 1388     		ldrh	r3, [r2]
 251 005a 0133     		adds	r3, r3, #1
 252 005c 1380     		strh	r3, [r2]	@ movhi
 139:drivers/nvic.c ****   }
 140:drivers/nvic.c **** }
 253              		.loc 1 140 0
 254 005e F4E7     		b	.L17
 255              	.L22:
 256              		.align	2
 257              	.L21:
 258 0060 00000000 		.word	.LANCHOR0
 259              		.cfi_endproc
ARM GAS  /tmp/ccNHoAC7.s 			page 8


 260              	.LFE72:
 261              		.size	TIM2_IRQHandler, .-TIM2_IRQHandler
 262              		.align	1
 263              		.global	TIM3_IRQHandler
 264              		.syntax unified
 265              		.thumb
 266              		.thumb_func
 267              		.fpu softvfp
 268              		.type	TIM3_IRQHandler, %function
 269              	TIM3_IRQHandler:
 270              	.LFB73:
 141:drivers/nvic.c **** 
 142:drivers/nvic.c **** void TIM3_IRQHandler(void)
 143:drivers/nvic.c **** {
 271              		.loc 1 143 0
 272              		.cfi_startproc
 273              		@ args = 0, pretend = 0, frame = 0
 274              		@ frame_needed = 0, uses_anonymous_args = 0
 275 0064 08B5     		push	{r3, lr}
 276              		.cfi_def_cfa_offset 8
 277              		.cfi_offset 3, -8
 278              		.cfi_offset 14, -4
 144:drivers/nvic.c ****   //检测是否发生溢出更新事件
 145:drivers/nvic.c ****   if(TIM_GetITStatus(TIM3, TIM_IT_Update) != RESET) {
 279              		.loc 1 145 0
 280 0066 0121     		movs	r1, #1
 281 0068 0648     		ldr	r0, .L27
 282 006a FFF7FEFF 		bl	TIM_GetITStatus
 283              	.LVL7:
 284 006e 00B9     		cbnz	r0, .L26
 285              	.L23:
 286 0070 08BD     		pop	{r3, pc}
 287              	.L26:
 146:drivers/nvic.c ****     TIM_ClearITPendingBit(TIM3,TIM_IT_Update);
 288              		.loc 1 146 0
 289 0072 0121     		movs	r1, #1
 290 0074 0348     		ldr	r0, .L27
 291 0076 FFF7FEFF 		bl	TIM_ClearITPendingBit
 292              	.LVL8:
 147:drivers/nvic.c ****     tim3_count++;
 293              		.loc 1 147 0
 294 007a 034A     		ldr	r2, .L27+4
 295 007c 5388     		ldrh	r3, [r2, #2]
 296 007e 0133     		adds	r3, r3, #1
 297 0080 5380     		strh	r3, [r2, #2]	@ movhi
 148:drivers/nvic.c ****   }
 149:drivers/nvic.c **** }
 298              		.loc 1 149 0
 299 0082 F5E7     		b	.L23
 300              	.L28:
 301              		.align	2
 302              	.L27:
 303 0084 00040040 		.word	1073742848
 304 0088 00000000 		.word	.LANCHOR0
 305              		.cfi_endproc
 306              	.LFE73:
 307              		.size	TIM3_IRQHandler, .-TIM3_IRQHandler
ARM GAS  /tmp/ccNHoAC7.s 			page 9


 308              		.align	1
 309              		.global	RCC_IRQHandler
 310              		.syntax unified
 311              		.thumb
 312              		.thumb_func
 313              		.fpu softvfp
 314              		.type	RCC_IRQHandler, %function
 315              	RCC_IRQHandler:
 316              	.LFB74:
 150:drivers/nvic.c **** /**
 151:drivers/nvic.c ****   * @brief  This function handles RCC interrupt request. 
 152:drivers/nvic.c ****   * @param  None
 153:drivers/nvic.c ****   * @retval None
 154:drivers/nvic.c ****   */
 155:drivers/nvic.c **** void RCC_IRQHandler(void)
 156:drivers/nvic.c **** {
 317              		.loc 1 156 0
 318              		.cfi_startproc
 319              		@ args = 0, pretend = 0, frame = 0
 320              		@ frame_needed = 0, uses_anonymous_args = 0
 321 008c 08B5     		push	{r3, lr}
 322              		.cfi_def_cfa_offset 8
 323              		.cfi_offset 3, -8
 324              		.cfi_offset 14, -4
 157:drivers/nvic.c ****   if(RCC_GetITStatus(RCC_IT_HSERDY) != RESET)
 325              		.loc 1 157 0
 326 008e 0820     		movs	r0, #8
 327 0090 FFF7FEFF 		bl	RCC_GetITStatus
 328              	.LVL9:
 329 0094 20B9     		cbnz	r0, .L33
 330              	.L30:
 158:drivers/nvic.c ****   { 
 159:drivers/nvic.c ****     /* Clear HSERDY interrupt pending bit */
 160:drivers/nvic.c ****     RCC_ClearITPendingBit(RCC_IT_HSERDY);
 161:drivers/nvic.c **** 
 162:drivers/nvic.c ****     /* Check if the HSE clock is still available */
 163:drivers/nvic.c ****     if (RCC_GetFlagStatus(RCC_FLAG_HSERDY) != RESET)
 164:drivers/nvic.c ****     { 
 165:drivers/nvic.c **** #ifdef SYSCLK_HSE
 166:drivers/nvic.c ****       /* Select HSE as system clock source */
 167:drivers/nvic.c ****       RCC_SYSCLKConfig(RCC_SYSCLKSource_HSE);
 168:drivers/nvic.c **** #else
 169:drivers/nvic.c ****  #ifdef STM32F10X_CL
 170:drivers/nvic.c ****       /* Enable PLL2 */
 171:drivers/nvic.c ****       RCC_PLL2Cmd(ENABLE);
 172:drivers/nvic.c ****  #else
 173:drivers/nvic.c ****       /* Enable PLL: once the PLL is ready the PLLRDY interrupt is generated */ 
 174:drivers/nvic.c ****       RCC_PLLCmd(ENABLE);
 175:drivers/nvic.c ****  #endif	/* STM32F10X_CL */
 176:drivers/nvic.c **** #endif /* SYSCLK_HSE */      
 177:drivers/nvic.c ****     }
 178:drivers/nvic.c ****   }
 179:drivers/nvic.c **** 
 180:drivers/nvic.c **** #ifdef STM32F10X_CL
 181:drivers/nvic.c ****   if(RCC_GetITStatus(RCC_IT_PLL2RDY) != RESET)
 182:drivers/nvic.c ****   { 
 183:drivers/nvic.c ****     /* Clear PLL2RDY interrupt pending bit */
ARM GAS  /tmp/ccNHoAC7.s 			page 10


 184:drivers/nvic.c ****     RCC_ClearITPendingBit(RCC_IT_PLL2RDY);
 185:drivers/nvic.c **** 
 186:drivers/nvic.c ****     /* Enable PLL: once the PLL is ready the PLLRDY interrupt is generated */ 
 187:drivers/nvic.c ****     RCC_PLLCmd(ENABLE);
 188:drivers/nvic.c ****   }
 189:drivers/nvic.c **** #endif /* STM32F10X_CL */   
 190:drivers/nvic.c **** 
 191:drivers/nvic.c ****   if(RCC_GetITStatus(RCC_IT_PLLRDY) != RESET)
 331              		.loc 1 191 0
 332 0096 1020     		movs	r0, #16
 333 0098 FFF7FEFF 		bl	RCC_GetITStatus
 334              	.LVL10:
 335 009c 60B9     		cbnz	r0, .L34
 336              	.L29:
 337 009e 08BD     		pop	{r3, pc}
 338              	.L33:
 160:drivers/nvic.c **** 
 339              		.loc 1 160 0
 340 00a0 0820     		movs	r0, #8
 341 00a2 FFF7FEFF 		bl	RCC_ClearITPendingBit
 342              	.LVL11:
 163:drivers/nvic.c ****     { 
 343              		.loc 1 163 0
 344 00a6 3120     		movs	r0, #49
 345 00a8 FFF7FEFF 		bl	RCC_GetFlagStatus
 346              	.LVL12:
 347 00ac 0028     		cmp	r0, #0
 348 00ae F2D0     		beq	.L30
 174:drivers/nvic.c ****  #endif	/* STM32F10X_CL */
 349              		.loc 1 174 0
 350 00b0 0120     		movs	r0, #1
 351 00b2 FFF7FEFF 		bl	RCC_PLLCmd
 352              	.LVL13:
 353 00b6 EEE7     		b	.L30
 354              	.L34:
 192:drivers/nvic.c ****   { 
 193:drivers/nvic.c ****     /* Clear PLLRDY interrupt pending bit */
 194:drivers/nvic.c ****     RCC_ClearITPendingBit(RCC_IT_PLLRDY);
 355              		.loc 1 194 0
 356 00b8 1020     		movs	r0, #16
 357 00ba FFF7FEFF 		bl	RCC_ClearITPendingBit
 358              	.LVL14:
 195:drivers/nvic.c **** 
 196:drivers/nvic.c ****     /* Check if the PLL is still locked */
 197:drivers/nvic.c ****     if (RCC_GetFlagStatus(RCC_FLAG_PLLRDY) != RESET)
 359              		.loc 1 197 0
 360 00be 3920     		movs	r0, #57
 361 00c0 FFF7FEFF 		bl	RCC_GetFlagStatus
 362              	.LVL15:
 363 00c4 0028     		cmp	r0, #0
 364 00c6 EAD0     		beq	.L29
 198:drivers/nvic.c ****     { 
 199:drivers/nvic.c ****       /* Select PLL as system clock source */
 200:drivers/nvic.c ****       RCC_SYSCLKConfig(RCC_SYSCLKSource_PLLCLK);
 365              		.loc 1 200 0
 366 00c8 0220     		movs	r0, #2
 367 00ca FFF7FEFF 		bl	RCC_SYSCLKConfig
ARM GAS  /tmp/ccNHoAC7.s 			page 11


 368              	.LVL16:
 201:drivers/nvic.c ****     }
 202:drivers/nvic.c ****   }
 203:drivers/nvic.c **** }
 369              		.loc 1 203 0
 370 00ce E6E7     		b	.L29
 371              		.cfi_endproc
 372              	.LFE74:
 373              		.size	RCC_IRQHandler, .-RCC_IRQHandler
 374              		.global	tim3_count
 375              		.global	tim2_count
 376              		.bss
 377              		.align	1
 378              		.set	.LANCHOR0,. + 0
 379              		.type	tim2_count, %object
 380              		.size	tim2_count, 2
 381              	tim2_count:
 382 0000 0000     		.space	2
 383              		.type	tim3_count, %object
 384              		.size	tim3_count, 2
 385              	tim3_count:
 386 0002 0000     		.space	2
 387              		.text
 388              	.Letext0:
 389              		.file 2 "/usr/arm-none-eabi/include/machine/_default_types.h"
 390              		.file 3 "/usr/arm-none-eabi/include/sys/_stdint.h"
 391              		.file 4 "/home/faker/Documents/code/STM/stm32-quadrocopter/cmsis/core_cm3.h"
 392              		.file 5 "/home/faker/Documents/code/STM/stm32-quadrocopter/lib/inc/system_stm32f10x.h"
 393              		.file 6 "/home/faker/Documents/code/STM/stm32-quadrocopter/lib/inc/stm32f10x.h"
 394              		.file 7 "drivers/ahrs.h"
 395              		.file 8 "drivers/mpu6050.h"
 396              		.file 9 "/usr/arm-none-eabi/include/sys/lock.h"
 397              		.file 10 "/usr/arm-none-eabi/include/sys/_types.h"
 398              		.file 11 "/usr/lib/gcc/arm-none-eabi/6.1.1/include/stddef.h"
 399              		.file 12 "/usr/arm-none-eabi/include/sys/reent.h"
 400              		.file 13 "/usr/arm-none-eabi/include/stdlib.h"
 401              		.file 14 "/usr/arm-none-eabi/include/math.h"
 402              		.file 15 "/usr/arm-none-eabi/include/sys/errno.h"
 403              		.file 16 "drivers/nvic.h"
 404              		.file 17 "/home/faker/Documents/code/STM/stm32-quadrocopter/lib/inc/stm32f10x_rcc.h"
 405              		.file 18 "/home/faker/Documents/code/STM/stm32-quadrocopter/lib/inc/stm32f10x_tim.h"
 406              		.section	.debug_info,"",%progbits
 407              	.Ldebug_info0:
 408 0000 2A100000 		.4byte	0x102a
 409 0004 0400     		.2byte	0x4
 410 0006 00000000 		.4byte	.Ldebug_abbrev0
 411 000a 04       		.byte	0x4
 412 000b 01       		.uleb128 0x1
 413 000c CC030000 		.4byte	.LASF223
 414 0010 0C       		.byte	0xc
 415 0011 43010000 		.4byte	.LASF224
 416 0015 CA000000 		.4byte	.LASF225
 417 0019 00000000 		.4byte	.Ltext0
 418 001d D0000000 		.4byte	.Letext0-.Ltext0
 419 0021 00000000 		.4byte	.Ldebug_line0
 420 0025 02       		.uleb128 0x2
 421 0026 01       		.byte	0x1
ARM GAS  /tmp/ccNHoAC7.s 			page 12


 422 0027 06       		.byte	0x6
 423 0028 E3010000 		.4byte	.LASF0
 424 002c 03       		.uleb128 0x3
 425 002d 15010000 		.4byte	.LASF2
 426 0031 02       		.byte	0x2
 427 0032 1D       		.byte	0x1d
 428 0033 37000000 		.4byte	0x37
 429 0037 02       		.uleb128 0x2
 430 0038 01       		.byte	0x1
 431 0039 08       		.byte	0x8
 432 003a 27020000 		.4byte	.LASF1
 433 003e 03       		.uleb128 0x3
 434 003f 42070000 		.4byte	.LASF3
 435 0043 02       		.byte	0x2
 436 0044 29       		.byte	0x29
 437 0045 49000000 		.4byte	0x49
 438 0049 02       		.uleb128 0x2
 439 004a 02       		.byte	0x2
 440 004b 05       		.byte	0x5
 441 004c 96070000 		.4byte	.LASF4
 442 0050 03       		.uleb128 0x3
 443 0051 E1020000 		.4byte	.LASF5
 444 0055 02       		.byte	0x2
 445 0056 2B       		.byte	0x2b
 446 0057 5B000000 		.4byte	0x5b
 447 005b 02       		.uleb128 0x2
 448 005c 02       		.byte	0x2
 449 005d 07       		.byte	0x7
 450 005e 90080000 		.4byte	.LASF6
 451 0062 03       		.uleb128 0x3
 452 0063 E0080000 		.4byte	.LASF7
 453 0067 02       		.byte	0x2
 454 0068 3F       		.byte	0x3f
 455 0069 6D000000 		.4byte	0x6d
 456 006d 02       		.uleb128 0x2
 457 006e 04       		.byte	0x4
 458 006f 05       		.byte	0x5
 459 0070 60010000 		.4byte	.LASF8
 460 0074 03       		.uleb128 0x3
 461 0075 3F040000 		.4byte	.LASF9
 462 0079 02       		.byte	0x2
 463 007a 41       		.byte	0x41
 464 007b 7F000000 		.4byte	0x7f
 465 007f 02       		.uleb128 0x2
 466 0080 04       		.byte	0x4
 467 0081 07       		.byte	0x7
 468 0082 57030000 		.4byte	.LASF10
 469 0086 02       		.uleb128 0x2
 470 0087 08       		.byte	0x8
 471 0088 05       		.byte	0x5
 472 0089 55040000 		.4byte	.LASF11
 473 008d 02       		.uleb128 0x2
 474 008e 08       		.byte	0x8
 475 008f 07       		.byte	0x7
 476 0090 5E060000 		.4byte	.LASF12
 477 0094 04       		.uleb128 0x4
 478 0095 04       		.byte	0x4
ARM GAS  /tmp/ccNHoAC7.s 			page 13


 479 0096 05       		.byte	0x5
 480 0097 696E7400 		.ascii	"int\000"
 481 009b 02       		.uleb128 0x2
 482 009c 04       		.byte	0x4
 483 009d 07       		.byte	0x7
 484 009e 31050000 		.4byte	.LASF13
 485 00a2 03       		.uleb128 0x3
 486 00a3 F7010000 		.4byte	.LASF14
 487 00a7 03       		.byte	0x3
 488 00a8 18       		.byte	0x18
 489 00a9 2C000000 		.4byte	0x2c
 490 00ad 03       		.uleb128 0x3
 491 00ae C4070000 		.4byte	.LASF15
 492 00b2 03       		.byte	0x3
 493 00b3 20       		.byte	0x20
 494 00b4 3E000000 		.4byte	0x3e
 495 00b8 03       		.uleb128 0x3
 496 00b9 75060000 		.4byte	.LASF16
 497 00bd 03       		.byte	0x3
 498 00be 24       		.byte	0x24
 499 00bf 50000000 		.4byte	0x50
 500 00c3 05       		.uleb128 0x5
 501 00c4 B8000000 		.4byte	0xb8
 502 00c8 03       		.uleb128 0x3
 503 00c9 23000000 		.4byte	.LASF17
 504 00cd 03       		.byte	0x3
 505 00ce 2C       		.byte	0x2c
 506 00cf 62000000 		.4byte	0x62
 507 00d3 05       		.uleb128 0x5
 508 00d4 C8000000 		.4byte	0xc8
 509 00d8 03       		.uleb128 0x3
 510 00d9 73080000 		.4byte	.LASF18
 511 00dd 03       		.byte	0x3
 512 00de 30       		.byte	0x30
 513 00df 74000000 		.4byte	0x74
 514 00e3 02       		.uleb128 0x2
 515 00e4 04       		.byte	0x4
 516 00e5 07       		.byte	0x7
 517 00e6 00000000 		.4byte	.LASF19
 518 00ea 06       		.uleb128 0x6
 519 00eb FC040000 		.4byte	.LASF20
 520 00ef 04       		.byte	0x4
 521 00f0 9606     		.2byte	0x696
 522 00f2 D3000000 		.4byte	0xd3
 523 00f6 07       		.uleb128 0x7
 524 00f7 7E030000 		.4byte	.LASF21
 525 00fb 05       		.byte	0x5
 526 00fc 35       		.byte	0x35
 527 00fd D8000000 		.4byte	0xd8
 528 0101 08       		.uleb128 0x8
 529 0102 01       		.byte	0x1
 530 0103 37000000 		.4byte	0x37
 531 0107 06       		.byte	0x6
 532 0108 0702     		.2byte	0x207
 533 010a 1B010000 		.4byte	0x11b
 534 010e 09       		.uleb128 0x9
 535 010f 4C070000 		.4byte	.LASF22
ARM GAS  /tmp/ccNHoAC7.s 			page 14


 536 0113 00       		.byte	0
 537 0114 0A       		.uleb128 0xa
 538 0115 53455400 		.ascii	"SET\000"
 539 0119 01       		.byte	0x1
 540 011a 00       		.byte	0
 541 011b 08       		.uleb128 0x8
 542 011c 01       		.byte	0x1
 543 011d 37000000 		.4byte	0x37
 544 0121 06       		.byte	0x6
 545 0122 0902     		.2byte	0x209
 546 0124 35010000 		.4byte	0x135
 547 0128 09       		.uleb128 0x9
 548 0129 FA050000 		.4byte	.LASF23
 549 012d 00       		.byte	0
 550 012e 09       		.uleb128 0x9
 551 012f DF070000 		.4byte	.LASF24
 552 0133 01       		.byte	0x1
 553 0134 00       		.byte	0
 554 0135 0B       		.uleb128 0xb
 555 0136 50       		.byte	0x50
 556 0137 06       		.byte	0x6
 557 0138 A204     		.2byte	0x4a2
 558 013a 46030000 		.4byte	0x346
 559 013e 0C       		.uleb128 0xc
 560 013f 43523100 		.ascii	"CR1\000"
 561 0143 06       		.byte	0x6
 562 0144 A404     		.2byte	0x4a4
 563 0146 C3000000 		.4byte	0xc3
 564 014a 00       		.byte	0
 565 014b 0D       		.uleb128 0xd
 566 014c 13020000 		.4byte	.LASF25
 567 0150 06       		.byte	0x6
 568 0151 A504     		.2byte	0x4a5
 569 0153 B8000000 		.4byte	0xb8
 570 0157 02       		.byte	0x2
 571 0158 0C       		.uleb128 0xc
 572 0159 43523200 		.ascii	"CR2\000"
 573 015d 06       		.byte	0x6
 574 015e A604     		.2byte	0x4a6
 575 0160 C3000000 		.4byte	0xc3
 576 0164 04       		.byte	0x4
 577 0165 0D       		.uleb128 0xd
 578 0166 1D020000 		.4byte	.LASF26
 579 016a 06       		.byte	0x6
 580 016b A704     		.2byte	0x4a7
 581 016d B8000000 		.4byte	0xb8
 582 0171 06       		.byte	0x6
 583 0172 0D       		.uleb128 0xd
 584 0173 36070000 		.4byte	.LASF27
 585 0177 06       		.byte	0x6
 586 0178 A804     		.2byte	0x4a8
 587 017a C3000000 		.4byte	0xc3
 588 017e 08       		.byte	0x8
 589 017f 0D       		.uleb128 0xd
 590 0180 AF020000 		.4byte	.LASF28
 591 0184 06       		.byte	0x6
 592 0185 A904     		.2byte	0x4a9
ARM GAS  /tmp/ccNHoAC7.s 			page 15


 593 0187 B8000000 		.4byte	0xb8
 594 018b 0A       		.byte	0xa
 595 018c 0D       		.uleb128 0xd
 596 018d 71030000 		.4byte	.LASF29
 597 0191 06       		.byte	0x6
 598 0192 AA04     		.2byte	0x4aa
 599 0194 C3000000 		.4byte	0xc3
 600 0198 0C       		.byte	0xc
 601 0199 0D       		.uleb128 0xd
 602 019a 35020000 		.4byte	.LASF30
 603 019e 06       		.byte	0x6
 604 019f AB04     		.2byte	0x4ab
 605 01a1 B8000000 		.4byte	0xb8
 606 01a5 0E       		.byte	0xe
 607 01a6 0C       		.uleb128 0xc
 608 01a7 535200   		.ascii	"SR\000"
 609 01aa 06       		.byte	0x6
 610 01ab AC04     		.2byte	0x4ac
 611 01ad C3000000 		.4byte	0xc3
 612 01b1 10       		.byte	0x10
 613 01b2 0D       		.uleb128 0xd
 614 01b3 3F020000 		.4byte	.LASF31
 615 01b7 06       		.byte	0x6
 616 01b8 AD04     		.2byte	0x4ad
 617 01ba B8000000 		.4byte	0xb8
 618 01be 12       		.byte	0x12
 619 01bf 0C       		.uleb128 0xc
 620 01c0 45475200 		.ascii	"EGR\000"
 621 01c4 06       		.byte	0x6
 622 01c5 AE04     		.2byte	0x4ae
 623 01c7 C3000000 		.4byte	0xc3
 624 01cb 14       		.byte	0x14
 625 01cc 0D       		.uleb128 0xd
 626 01cd 49020000 		.4byte	.LASF32
 627 01d1 06       		.byte	0x6
 628 01d2 AF04     		.2byte	0x4af
 629 01d4 B8000000 		.4byte	0xb8
 630 01d8 16       		.byte	0x16
 631 01d9 0D       		.uleb128 0xd
 632 01da B9020000 		.4byte	.LASF33
 633 01de 06       		.byte	0x6
 634 01df B004     		.2byte	0x4b0
 635 01e1 C3000000 		.4byte	0xc3
 636 01e5 18       		.byte	0x18
 637 01e6 0D       		.uleb128 0xd
 638 01e7 53020000 		.4byte	.LASF34
 639 01eb 06       		.byte	0x6
 640 01ec B104     		.2byte	0x4b1
 641 01ee B8000000 		.4byte	0xb8
 642 01f2 1A       		.byte	0x1a
 643 01f3 0D       		.uleb128 0xd
 644 01f4 BF020000 		.4byte	.LASF35
 645 01f8 06       		.byte	0x6
 646 01f9 B204     		.2byte	0x4b2
 647 01fb C3000000 		.4byte	0xc3
 648 01ff 1C       		.byte	0x1c
 649 0200 0D       		.uleb128 0xd
ARM GAS  /tmp/ccNHoAC7.s 			page 16


 650 0201 5D020000 		.4byte	.LASF36
 651 0205 06       		.byte	0x6
 652 0206 B304     		.2byte	0x4b3
 653 0208 B8000000 		.4byte	0xb8
 654 020c 1E       		.byte	0x1e
 655 020d 0D       		.uleb128 0xd
 656 020e 9D060000 		.4byte	.LASF37
 657 0212 06       		.byte	0x6
 658 0213 B404     		.2byte	0x4b4
 659 0215 C3000000 		.4byte	0xc3
 660 0219 20       		.byte	0x20
 661 021a 0D       		.uleb128 0xd
 662 021b 67020000 		.4byte	.LASF38
 663 021f 06       		.byte	0x6
 664 0220 B504     		.2byte	0x4b5
 665 0222 B8000000 		.4byte	0xb8
 666 0226 22       		.byte	0x22
 667 0227 0C       		.uleb128 0xc
 668 0228 434E5400 		.ascii	"CNT\000"
 669 022c 06       		.byte	0x6
 670 022d B604     		.2byte	0x4b6
 671 022f C3000000 		.4byte	0xc3
 672 0233 24       		.byte	0x24
 673 0234 0D       		.uleb128 0xd
 674 0235 71020000 		.4byte	.LASF39
 675 0239 06       		.byte	0x6
 676 023a B704     		.2byte	0x4b7
 677 023c B8000000 		.4byte	0xb8
 678 0240 26       		.byte	0x26
 679 0241 0C       		.uleb128 0xc
 680 0242 50534300 		.ascii	"PSC\000"
 681 0246 06       		.byte	0x6
 682 0247 B804     		.2byte	0x4b8
 683 0249 C3000000 		.4byte	0xc3
 684 024d 28       		.byte	0x28
 685 024e 0D       		.uleb128 0xd
 686 024f 92060000 		.4byte	.LASF40
 687 0253 06       		.byte	0x6
 688 0254 B904     		.2byte	0x4b9
 689 0256 B8000000 		.4byte	0xb8
 690 025a 2A       		.byte	0x2a
 691 025b 0C       		.uleb128 0xc
 692 025c 41525200 		.ascii	"ARR\000"
 693 0260 06       		.byte	0x6
 694 0261 BA04     		.2byte	0x4ba
 695 0263 C3000000 		.4byte	0xc3
 696 0267 2C       		.byte	0x2c
 697 0268 0D       		.uleb128 0xd
 698 0269 B8080000 		.4byte	.LASF41
 699 026d 06       		.byte	0x6
 700 026e BB04     		.2byte	0x4bb
 701 0270 B8000000 		.4byte	0xb8
 702 0274 2E       		.byte	0x2e
 703 0275 0C       		.uleb128 0xc
 704 0276 52435200 		.ascii	"RCR\000"
 705 027a 06       		.byte	0x6
 706 027b BC04     		.2byte	0x4bc
ARM GAS  /tmp/ccNHoAC7.s 			page 17


 707 027d C3000000 		.4byte	0xc3
 708 0281 30       		.byte	0x30
 709 0282 0D       		.uleb128 0xd
 710 0283 A2060000 		.4byte	.LASF42
 711 0287 06       		.byte	0x6
 712 0288 BD04     		.2byte	0x4bd
 713 028a B8000000 		.4byte	0xb8
 714 028e 32       		.byte	0x32
 715 028f 0D       		.uleb128 0xd
 716 0290 01010000 		.4byte	.LASF43
 717 0294 06       		.byte	0x6
 718 0295 BE04     		.2byte	0x4be
 719 0297 C3000000 		.4byte	0xc3
 720 029b 34       		.byte	0x34
 721 029c 0D       		.uleb128 0xd
 722 029d AD060000 		.4byte	.LASF44
 723 02a1 06       		.byte	0x6
 724 02a2 BF04     		.2byte	0x4bf
 725 02a4 B8000000 		.4byte	0xb8
 726 02a8 36       		.byte	0x36
 727 02a9 0D       		.uleb128 0xd
 728 02aa 06010000 		.4byte	.LASF45
 729 02ae 06       		.byte	0x6
 730 02af C004     		.2byte	0x4c0
 731 02b1 C3000000 		.4byte	0xc3
 732 02b5 38       		.byte	0x38
 733 02b6 0D       		.uleb128 0xd
 734 02b7 B8060000 		.4byte	.LASF46
 735 02bb 06       		.byte	0x6
 736 02bc C104     		.2byte	0x4c1
 737 02be B8000000 		.4byte	0xb8
 738 02c2 3A       		.byte	0x3a
 739 02c3 0D       		.uleb128 0xd
 740 02c4 0B010000 		.4byte	.LASF47
 741 02c8 06       		.byte	0x6
 742 02c9 C204     		.2byte	0x4c2
 743 02cb C3000000 		.4byte	0xc3
 744 02cf 3C       		.byte	0x3c
 745 02d0 0D       		.uleb128 0xd
 746 02d1 C3060000 		.4byte	.LASF48
 747 02d5 06       		.byte	0x6
 748 02d6 C304     		.2byte	0x4c3
 749 02d8 B8000000 		.4byte	0xb8
 750 02dc 3E       		.byte	0x3e
 751 02dd 0D       		.uleb128 0xd
 752 02de 10010000 		.4byte	.LASF49
 753 02e2 06       		.byte	0x6
 754 02e3 C404     		.2byte	0x4c4
 755 02e5 C3000000 		.4byte	0xc3
 756 02e9 40       		.byte	0x40
 757 02ea 0D       		.uleb128 0xd
 758 02eb CE060000 		.4byte	.LASF50
 759 02ef 06       		.byte	0x6
 760 02f0 C504     		.2byte	0x4c5
 761 02f2 B8000000 		.4byte	0xb8
 762 02f6 42       		.byte	0x42
 763 02f7 0D       		.uleb128 0xd
ARM GAS  /tmp/ccNHoAC7.s 			page 18


 764 02f8 6E080000 		.4byte	.LASF51
 765 02fc 06       		.byte	0x6
 766 02fd C604     		.2byte	0x4c6
 767 02ff C3000000 		.4byte	0xc3
 768 0303 44       		.byte	0x44
 769 0304 0D       		.uleb128 0xd
 770 0305 D9060000 		.4byte	.LASF52
 771 0309 06       		.byte	0x6
 772 030a C704     		.2byte	0x4c7
 773 030c B8000000 		.4byte	0xb8
 774 0310 46       		.byte	0x46
 775 0311 0C       		.uleb128 0xc
 776 0312 44435200 		.ascii	"DCR\000"
 777 0316 06       		.byte	0x6
 778 0317 C804     		.2byte	0x4c8
 779 0319 C3000000 		.4byte	0xc3
 780 031d 48       		.byte	0x48
 781 031e 0D       		.uleb128 0xd
 782 031f E4060000 		.4byte	.LASF53
 783 0323 06       		.byte	0x6
 784 0324 C904     		.2byte	0x4c9
 785 0326 B8000000 		.4byte	0xb8
 786 032a 4A       		.byte	0x4a
 787 032b 0D       		.uleb128 0xd
 788 032c FC000000 		.4byte	.LASF54
 789 0330 06       		.byte	0x6
 790 0331 CA04     		.2byte	0x4ca
 791 0333 C3000000 		.4byte	0xc3
 792 0337 4C       		.byte	0x4c
 793 0338 0D       		.uleb128 0xd
 794 0339 EF060000 		.4byte	.LASF55
 795 033d 06       		.byte	0x6
 796 033e CB04     		.2byte	0x4cb
 797 0340 B8000000 		.4byte	0xb8
 798 0344 4E       		.byte	0x4e
 799 0345 00       		.byte	0
 800 0346 0E       		.uleb128 0xe
 801 0347 07020000 		.4byte	.LASF56
 802 034b 06       		.byte	0x6
 803 034c CC04     		.2byte	0x4cc
 804 034e 35010000 		.4byte	0x135
 805 0352 07       		.uleb128 0x7
 806 0353 75070000 		.4byte	.LASF57
 807 0357 07       		.byte	0x7
 808 0358 1A       		.byte	0x1a
 809 0359 64030000 		.4byte	0x364
 810 035d 02       		.uleb128 0x2
 811 035e 04       		.byte	0x4
 812 035f 04       		.byte	0x4
 813 0360 0F050000 		.4byte	.LASF58
 814 0364 05       		.uleb128 0x5
 815 0365 5D030000 		.4byte	0x35d
 816 0369 0F       		.uleb128 0xf
 817 036a 713000   		.ascii	"q0\000"
 818 036d 07       		.byte	0x7
 819 036e 1B       		.byte	0x1b
 820 036f 64030000 		.4byte	0x364
ARM GAS  /tmp/ccNHoAC7.s 			page 19


 821 0373 0F       		.uleb128 0xf
 822 0374 713100   		.ascii	"q1\000"
 823 0377 07       		.byte	0x7
 824 0378 1B       		.byte	0x1b
 825 0379 64030000 		.4byte	0x364
 826 037d 0F       		.uleb128 0xf
 827 037e 713200   		.ascii	"q2\000"
 828 0381 07       		.byte	0x7
 829 0382 1B       		.byte	0x1b
 830 0383 64030000 		.4byte	0x364
 831 0387 0F       		.uleb128 0xf
 832 0388 713300   		.ascii	"q3\000"
 833 038b 07       		.byte	0x7
 834 038c 1B       		.byte	0x1b
 835 038d 64030000 		.4byte	0x364
 836 0391 10       		.uleb128 0x10
 837 0392 64030000 		.4byte	0x364
 838 0396 A1030000 		.4byte	0x3a1
 839 039a 11       		.uleb128 0x11
 840 039b E3000000 		.4byte	0xe3
 841 039f 02       		.byte	0x2
 842 03a0 00       		.byte	0
 843 03a1 05       		.uleb128 0x5
 844 03a2 91030000 		.4byte	0x391
 845 03a6 0F       		.uleb128 0xf
 846 03a7 72707900 		.ascii	"rpy\000"
 847 03ab 07       		.byte	0x7
 848 03ac 1C       		.byte	0x1c
 849 03ad A1030000 		.4byte	0x3a1
 850 03b1 07       		.uleb128 0x7
 851 03b2 7F010000 		.4byte	.LASF59
 852 03b6 07       		.byte	0x7
 853 03b7 1C       		.byte	0x1c
 854 03b8 A1030000 		.4byte	0x3a1
 855 03bc 07       		.uleb128 0x7
 856 03bd B3080000 		.4byte	.LASF60
 857 03c1 07       		.byte	0x7
 858 03c2 1D       		.byte	0x1d
 859 03c3 5D030000 		.4byte	0x35d
 860 03c7 07       		.uleb128 0x7
 861 03c8 AD080000 		.4byte	.LASF61
 862 03cc 07       		.byte	0x7
 863 03cd 1D       		.byte	0x1d
 864 03ce 5D030000 		.4byte	0x35d
 865 03d2 0F       		.uleb128 0xf
 866 03d3 79617700 		.ascii	"yaw\000"
 867 03d7 07       		.byte	0x7
 868 03d8 1D       		.byte	0x1d
 869 03d9 5D030000 		.4byte	0x35d
 870 03dd 07       		.uleb128 0x7
 871 03de AF070000 		.4byte	.LASF62
 872 03e2 08       		.byte	0x8
 873 03e3 07       		.byte	0x7
 874 03e4 AD000000 		.4byte	0xad
 875 03e8 07       		.uleb128 0x7
 876 03e9 B6070000 		.4byte	.LASF63
 877 03ed 08       		.byte	0x8
ARM GAS  /tmp/ccNHoAC7.s 			page 20


 878 03ee 07       		.byte	0x7
 879 03ef AD000000 		.4byte	0xad
 880 03f3 07       		.uleb128 0x7
 881 03f4 BD070000 		.4byte	.LASF64
 882 03f8 08       		.byte	0x8
 883 03f9 07       		.byte	0x7
 884 03fa AD000000 		.4byte	0xad
 885 03fe 07       		.uleb128 0x7
 886 03ff 3E060000 		.4byte	.LASF65
 887 0403 08       		.byte	0x8
 888 0404 08       		.byte	0x8
 889 0405 AD000000 		.4byte	0xad
 890 0409 07       		.uleb128 0x7
 891 040a 44060000 		.4byte	.LASF66
 892 040e 08       		.byte	0x8
 893 040f 08       		.byte	0x8
 894 0410 AD000000 		.4byte	0xad
 895 0414 07       		.uleb128 0x7
 896 0415 4A060000 		.4byte	.LASF67
 897 0419 08       		.byte	0x8
 898 041a 08       		.byte	0x8
 899 041b AD000000 		.4byte	0xad
 900 041f 07       		.uleb128 0x7
 901 0420 45090000 		.4byte	.LASF68
 902 0424 08       		.byte	0x8
 903 0425 09       		.byte	0x9
 904 0426 5D030000 		.4byte	0x35d
 905 042a 07       		.uleb128 0x7
 906 042b BE000000 		.4byte	.LASF69
 907 042f 08       		.byte	0x8
 908 0430 09       		.byte	0x9
 909 0431 5D030000 		.4byte	0x35d
 910 0435 07       		.uleb128 0x7
 911 0436 15050000 		.4byte	.LASF70
 912 043a 08       		.byte	0x8
 913 043b 09       		.byte	0x9
 914 043c 5D030000 		.4byte	0x35d
 915 0440 07       		.uleb128 0x7
 916 0441 C0030000 		.4byte	.LASF71
 917 0445 08       		.byte	0x8
 918 0446 0A       		.byte	0xa
 919 0447 5D030000 		.4byte	0x35d
 920 044b 07       		.uleb128 0x7
 921 044c 8C040000 		.4byte	.LASF72
 922 0450 08       		.byte	0x8
 923 0451 0A       		.byte	0xa
 924 0452 5D030000 		.4byte	0x35d
 925 0456 07       		.uleb128 0x7
 926 0457 50000000 		.4byte	.LASF73
 927 045b 08       		.byte	0x8
 928 045c 0B       		.byte	0xb
 929 045d 5D030000 		.4byte	0x35d
 930 0461 07       		.uleb128 0x7
 931 0462 1C090000 		.4byte	.LASF74
 932 0466 08       		.byte	0x8
 933 0467 0B       		.byte	0xb
 934 0468 5D030000 		.4byte	0x35d
ARM GAS  /tmp/ccNHoAC7.s 			page 21


 935 046c 07       		.uleb128 0x7
 936 046d D5050000 		.4byte	.LASF75
 937 0471 08       		.byte	0x8
 938 0472 0B       		.byte	0xb
 939 0473 5D030000 		.4byte	0x35d
 940 0477 07       		.uleb128 0x7
 941 0478 EF010000 		.4byte	.LASF76
 942 047c 08       		.byte	0x8
 943 047d 0C       		.byte	0xc
 944 047e 5D030000 		.4byte	0x35d
 945 0482 0F       		.uleb128 0xf
 946 0483 647400   		.ascii	"dt\000"
 947 0486 08       		.byte	0x8
 948 0487 0D       		.byte	0xd
 949 0488 5D030000 		.4byte	0x35d
 950 048c 07       		.uleb128 0x7
 951 048d FB080000 		.4byte	.LASF77
 952 0491 08       		.byte	0x8
 953 0492 0D       		.byte	0xd
 954 0493 5D030000 		.4byte	0x35d
 955 0497 07       		.uleb128 0x7
 956 0498 B6010000 		.4byte	.LASF78
 957 049c 08       		.byte	0x8
 958 049d 0E       		.byte	0xe
 959 049e A2000000 		.4byte	0xa2
 960 04a2 10       		.uleb128 0x10
 961 04a3 A2000000 		.4byte	0xa2
 962 04a7 B2040000 		.4byte	0x4b2
 963 04ab 11       		.uleb128 0x11
 964 04ac E3000000 		.4byte	0xe3
 965 04b0 13       		.byte	0x13
 966 04b1 00       		.byte	0
 967 04b2 07       		.uleb128 0x7
 968 04b3 63040000 		.4byte	.LASF79
 969 04b7 08       		.byte	0x8
 970 04b8 0E       		.byte	0xe
 971 04b9 A2040000 		.4byte	0x4a2
 972 04bd 07       		.uleb128 0x7
 973 04be 0E060000 		.4byte	.LASF80
 974 04c2 08       		.byte	0x8
 975 04c3 0E       		.byte	0xe
 976 04c4 A2040000 		.4byte	0x4a2
 977 04c8 02       		.uleb128 0x2
 978 04c9 08       		.byte	0x8
 979 04ca 04       		.byte	0x4
 980 04cb 02060000 		.4byte	.LASF81
 981 04cf 03       		.uleb128 0x3
 982 04d0 8E030000 		.4byte	.LASF82
 983 04d4 09       		.byte	0x9
 984 04d5 07       		.byte	0x7
 985 04d6 94000000 		.4byte	0x94
 986 04da 03       		.uleb128 0x3
 987 04db 84080000 		.4byte	.LASF83
 988 04df 0A       		.byte	0xa
 989 04e0 2C       		.byte	0x2c
 990 04e1 6D000000 		.4byte	0x6d
 991 04e5 03       		.uleb128 0x3
ARM GAS  /tmp/ccNHoAC7.s 			page 22


 992 04e6 24060000 		.4byte	.LASF84
 993 04ea 0A       		.byte	0xa
 994 04eb 72       		.byte	0x72
 995 04ec 6D000000 		.4byte	0x6d
 996 04f0 0E       		.uleb128 0xe
 997 04f1 62070000 		.4byte	.LASF85
 998 04f5 0B       		.byte	0xb
 999 04f6 6501     		.2byte	0x165
 1000 04f8 9B000000 		.4byte	0x9b
 1001 04fc 12       		.uleb128 0x12
 1002 04fd 04       		.byte	0x4
 1003 04fe 0A       		.byte	0xa
 1004 04ff A6       		.byte	0xa6
 1005 0500 1B050000 		.4byte	0x51b
 1006 0504 13       		.uleb128 0x13
 1007 0505 3D010000 		.4byte	.LASF86
 1008 0509 0A       		.byte	0xa
 1009 050a A8       		.byte	0xa8
 1010 050b F0040000 		.4byte	0x4f0
 1011 050f 13       		.uleb128 0x13
 1012 0510 2C060000 		.4byte	.LASF87
 1013 0514 0A       		.byte	0xa
 1014 0515 A9       		.byte	0xa9
 1015 0516 1B050000 		.4byte	0x51b
 1016 051a 00       		.byte	0
 1017 051b 10       		.uleb128 0x10
 1018 051c 37000000 		.4byte	0x37
 1019 0520 2B050000 		.4byte	0x52b
 1020 0524 11       		.uleb128 0x11
 1021 0525 E3000000 		.4byte	0xe3
 1022 0529 03       		.byte	0x3
 1023 052a 00       		.byte	0
 1024 052b 14       		.uleb128 0x14
 1025 052c 08       		.byte	0x8
 1026 052d 0A       		.byte	0xa
 1027 052e A3       		.byte	0xa3
 1028 052f 4C050000 		.4byte	0x54c
 1029 0533 15       		.uleb128 0x15
 1030 0534 E8050000 		.4byte	.LASF88
 1031 0538 0A       		.byte	0xa
 1032 0539 A5       		.byte	0xa5
 1033 053a 94000000 		.4byte	0x94
 1034 053e 00       		.byte	0
 1035 053f 15       		.uleb128 0x15
 1036 0540 09000000 		.4byte	.LASF89
 1037 0544 0A       		.byte	0xa
 1038 0545 AA       		.byte	0xaa
 1039 0546 FC040000 		.4byte	0x4fc
 1040 054a 04       		.byte	0x4
 1041 054b 00       		.byte	0
 1042 054c 03       		.uleb128 0x3
 1043 054d 52070000 		.4byte	.LASF90
 1044 0551 0A       		.byte	0xa
 1045 0552 AB       		.byte	0xab
 1046 0553 2B050000 		.4byte	0x52b
 1047 0557 03       		.uleb128 0x3
 1048 0558 85050000 		.4byte	.LASF91
ARM GAS  /tmp/ccNHoAC7.s 			page 23


 1049 055c 0A       		.byte	0xa
 1050 055d AF       		.byte	0xaf
 1051 055e CF040000 		.4byte	0x4cf
 1052 0562 16       		.uleb128 0x16
 1053 0563 04       		.byte	0x4
 1054 0564 17       		.uleb128 0x17
 1055 0565 04       		.byte	0x4
 1056 0566 6A050000 		.4byte	0x56a
 1057 056a 02       		.uleb128 0x2
 1058 056b 01       		.byte	0x1
 1059 056c 08       		.byte	0x8
 1060 056d C5020000 		.4byte	.LASF92
 1061 0571 18       		.uleb128 0x18
 1062 0572 6A050000 		.4byte	0x56a
 1063 0576 03       		.uleb128 0x3
 1064 0577 66080000 		.4byte	.LASF93
 1065 057b 0C       		.byte	0xc
 1066 057c 16       		.byte	0x16
 1067 057d 7F000000 		.4byte	0x7f
 1068 0581 19       		.uleb128 0x19
 1069 0582 0E040000 		.4byte	.LASF98
 1070 0586 18       		.byte	0x18
 1071 0587 0C       		.byte	0xc
 1072 0588 2D       		.byte	0x2d
 1073 0589 D4050000 		.4byte	0x5d4
 1074 058d 15       		.uleb128 0x15
 1075 058e 69070000 		.4byte	.LASF94
 1076 0592 0C       		.byte	0xc
 1077 0593 2F       		.byte	0x2f
 1078 0594 D4050000 		.4byte	0x5d4
 1079 0598 00       		.byte	0
 1080 0599 1A       		.uleb128 0x1a
 1081 059a 5F6B00   		.ascii	"_k\000"
 1082 059d 0C       		.byte	0xc
 1083 059e 30       		.byte	0x30
 1084 059f 94000000 		.4byte	0x94
 1085 05a3 04       		.byte	0x4
 1086 05a4 15       		.uleb128 0x15
 1087 05a5 16040000 		.4byte	.LASF95
 1088 05a9 0C       		.byte	0xc
 1089 05aa 30       		.byte	0x30
 1090 05ab 94000000 		.4byte	0x94
 1091 05af 08       		.byte	0x8
 1092 05b0 15       		.uleb128 0x15
 1093 05b1 09050000 		.4byte	.LASF96
 1094 05b5 0C       		.byte	0xc
 1095 05b6 30       		.byte	0x30
 1096 05b7 94000000 		.4byte	0x94
 1097 05bb 0C       		.byte	0xc
 1098 05bc 15       		.uleb128 0x15
 1099 05bd 1C030000 		.4byte	.LASF97
 1100 05c1 0C       		.byte	0xc
 1101 05c2 30       		.byte	0x30
 1102 05c3 94000000 		.4byte	0x94
 1103 05c7 10       		.byte	0x10
 1104 05c8 1A       		.uleb128 0x1a
 1105 05c9 5F7800   		.ascii	"_x\000"
ARM GAS  /tmp/ccNHoAC7.s 			page 24


 1106 05cc 0C       		.byte	0xc
 1107 05cd 31       		.byte	0x31
 1108 05ce DA050000 		.4byte	0x5da
 1109 05d2 14       		.byte	0x14
 1110 05d3 00       		.byte	0
 1111 05d4 17       		.uleb128 0x17
 1112 05d5 04       		.byte	0x4
 1113 05d6 81050000 		.4byte	0x581
 1114 05da 10       		.uleb128 0x10
 1115 05db 76050000 		.4byte	0x576
 1116 05df EA050000 		.4byte	0x5ea
 1117 05e3 11       		.uleb128 0x11
 1118 05e4 E3000000 		.4byte	0xe3
 1119 05e8 00       		.byte	0
 1120 05e9 00       		.byte	0
 1121 05ea 19       		.uleb128 0x19
 1122 05eb 63000000 		.4byte	.LASF99
 1123 05ef 24       		.byte	0x24
 1124 05f0 0C       		.byte	0xc
 1125 05f1 35       		.byte	0x35
 1126 05f2 63060000 		.4byte	0x663
 1127 05f6 15       		.uleb128 0x15
 1128 05f7 7F000000 		.4byte	.LASF100
 1129 05fb 0C       		.byte	0xc
 1130 05fc 37       		.byte	0x37
 1131 05fd 94000000 		.4byte	0x94
 1132 0601 00       		.byte	0
 1133 0602 15       		.uleb128 0x15
 1134 0603 13090000 		.4byte	.LASF101
 1135 0607 0C       		.byte	0xc
 1136 0608 38       		.byte	0x38
 1137 0609 94000000 		.4byte	0x94
 1138 060d 04       		.byte	0x4
 1139 060e 15       		.uleb128 0x15
 1140 060f A3080000 		.4byte	.LASF102
 1141 0613 0C       		.byte	0xc
 1142 0614 39       		.byte	0x39
 1143 0615 94000000 		.4byte	0x94
 1144 0619 08       		.byte	0x8
 1145 061a 15       		.uleb128 0x15
 1146 061b 7B050000 		.4byte	.LASF103
 1147 061f 0C       		.byte	0xc
 1148 0620 3A       		.byte	0x3a
 1149 0621 94000000 		.4byte	0x94
 1150 0625 0C       		.byte	0xc
 1151 0626 15       		.uleb128 0x15
 1152 0627 BB010000 		.4byte	.LASF104
 1153 062b 0C       		.byte	0xc
 1154 062c 3B       		.byte	0x3b
 1155 062d 94000000 		.4byte	0x94
 1156 0631 10       		.byte	0x10
 1157 0632 15       		.uleb128 0x15
 1158 0633 E6070000 		.4byte	.LASF105
 1159 0637 0C       		.byte	0xc
 1160 0638 3C       		.byte	0x3c
 1161 0639 94000000 		.4byte	0x94
 1162 063d 14       		.byte	0x14
ARM GAS  /tmp/ccNHoAC7.s 			page 25


 1163 063e 15       		.uleb128 0x15
 1164 063f F0050000 		.4byte	.LASF106
 1165 0643 0C       		.byte	0xc
 1166 0644 3D       		.byte	0x3d
 1167 0645 94000000 		.4byte	0x94
 1168 0649 18       		.byte	0x18
 1169 064a 15       		.uleb128 0x15
 1170 064b 95020000 		.4byte	.LASF107
 1171 064f 0C       		.byte	0xc
 1172 0650 3E       		.byte	0x3e
 1173 0651 94000000 		.4byte	0x94
 1174 0655 1C       		.byte	0x1c
 1175 0656 15       		.uleb128 0x15
 1176 0657 08090000 		.4byte	.LASF108
 1177 065b 0C       		.byte	0xc
 1178 065c 3F       		.byte	0x3f
 1179 065d 94000000 		.4byte	0x94
 1180 0661 20       		.byte	0x20
 1181 0662 00       		.byte	0
 1182 0663 1B       		.uleb128 0x1b
 1183 0664 25010000 		.4byte	.LASF109
 1184 0668 0801     		.2byte	0x108
 1185 066a 0C       		.byte	0xc
 1186 066b 48       		.byte	0x48
 1187 066c A3060000 		.4byte	0x6a3
 1188 0670 15       		.uleb128 0x15
 1189 0671 00090000 		.4byte	.LASF110
 1190 0675 0C       		.byte	0xc
 1191 0676 49       		.byte	0x49
 1192 0677 A3060000 		.4byte	0x6a3
 1193 067b 00       		.byte	0
 1194 067c 15       		.uleb128 0x15
 1195 067d 7E060000 		.4byte	.LASF111
 1196 0681 0C       		.byte	0xc
 1197 0682 4A       		.byte	0x4a
 1198 0683 A3060000 		.4byte	0x6a3
 1199 0687 80       		.byte	0x80
 1200 0688 1C       		.uleb128 0x1c
 1201 0689 D6070000 		.4byte	.LASF112
 1202 068d 0C       		.byte	0xc
 1203 068e 4C       		.byte	0x4c
 1204 068f 76050000 		.4byte	0x576
 1205 0693 0001     		.2byte	0x100
 1206 0695 1C       		.uleb128 0x1c
 1207 0696 F3020000 		.4byte	.LASF113
 1208 069a 0C       		.byte	0xc
 1209 069b 4F       		.byte	0x4f
 1210 069c 76050000 		.4byte	0x576
 1211 06a0 0401     		.2byte	0x104
 1212 06a2 00       		.byte	0
 1213 06a3 10       		.uleb128 0x10
 1214 06a4 62050000 		.4byte	0x562
 1215 06a8 B3060000 		.4byte	0x6b3
 1216 06ac 11       		.uleb128 0x11
 1217 06ad E3000000 		.4byte	0xe3
 1218 06b1 1F       		.byte	0x1f
 1219 06b2 00       		.byte	0
ARM GAS  /tmp/ccNHoAC7.s 			page 26


 1220 06b3 1B       		.uleb128 0x1b
 1221 06b4 E0050000 		.4byte	.LASF114
 1222 06b8 9001     		.2byte	0x190
 1223 06ba 0C       		.byte	0xc
 1224 06bb 5B       		.byte	0x5b
 1225 06bc F1060000 		.4byte	0x6f1
 1226 06c0 15       		.uleb128 0x15
 1227 06c1 69070000 		.4byte	.LASF94
 1228 06c5 0C       		.byte	0xc
 1229 06c6 5C       		.byte	0x5c
 1230 06c7 F1060000 		.4byte	0x6f1
 1231 06cb 00       		.byte	0
 1232 06cc 15       		.uleb128 0x15
 1233 06cd 27080000 		.4byte	.LASF115
 1234 06d1 0C       		.byte	0xc
 1235 06d2 5D       		.byte	0x5d
 1236 06d3 94000000 		.4byte	0x94
 1237 06d7 04       		.byte	0x4
 1238 06d8 15       		.uleb128 0x15
 1239 06d9 CA020000 		.4byte	.LASF116
 1240 06dd 0C       		.byte	0xc
 1241 06de 5F       		.byte	0x5f
 1242 06df F7060000 		.4byte	0x6f7
 1243 06e3 08       		.byte	0x8
 1244 06e4 15       		.uleb128 0x15
 1245 06e5 25010000 		.4byte	.LASF109
 1246 06e9 0C       		.byte	0xc
 1247 06ea 60       		.byte	0x60
 1248 06eb 63060000 		.4byte	0x663
 1249 06ef 88       		.byte	0x88
 1250 06f0 00       		.byte	0
 1251 06f1 17       		.uleb128 0x17
 1252 06f2 04       		.byte	0x4
 1253 06f3 B3060000 		.4byte	0x6b3
 1254 06f7 10       		.uleb128 0x10
 1255 06f8 07070000 		.4byte	0x707
 1256 06fc 07070000 		.4byte	0x707
 1257 0700 11       		.uleb128 0x11
 1258 0701 E3000000 		.4byte	0xe3
 1259 0705 1F       		.byte	0x1f
 1260 0706 00       		.byte	0
 1261 0707 17       		.uleb128 0x17
 1262 0708 04       		.byte	0x4
 1263 0709 0D070000 		.4byte	0x70d
 1264 070d 1D       		.uleb128 0x1d
 1265 070e 19       		.uleb128 0x19
 1266 070f 58080000 		.4byte	.LASF117
 1267 0713 08       		.byte	0x8
 1268 0714 0C       		.byte	0xc
 1269 0715 73       		.byte	0x73
 1270 0716 33070000 		.4byte	0x733
 1271 071a 15       		.uleb128 0x15
 1272 071b 14070000 		.4byte	.LASF118
 1273 071f 0C       		.byte	0xc
 1274 0720 74       		.byte	0x74
 1275 0721 33070000 		.4byte	0x733
 1276 0725 00       		.byte	0
ARM GAS  /tmp/ccNHoAC7.s 			page 27


 1277 0726 15       		.uleb128 0x15
 1278 0727 9D000000 		.4byte	.LASF119
 1279 072b 0C       		.byte	0xc
 1280 072c 75       		.byte	0x75
 1281 072d 94000000 		.4byte	0x94
 1282 0731 04       		.byte	0x4
 1283 0732 00       		.byte	0
 1284 0733 17       		.uleb128 0x17
 1285 0734 04       		.byte	0x4
 1286 0735 37000000 		.4byte	0x37
 1287 0739 19       		.uleb128 0x19
 1288 073a 69030000 		.4byte	.LASF120
 1289 073e 68       		.byte	0x68
 1290 073f 0C       		.byte	0xc
 1291 0740 B3       		.byte	0xb3
 1292 0741 63080000 		.4byte	0x863
 1293 0745 1A       		.uleb128 0x1a
 1294 0746 5F7000   		.ascii	"_p\000"
 1295 0749 0C       		.byte	0xc
 1296 074a B4       		.byte	0xb4
 1297 074b 33070000 		.4byte	0x733
 1298 074f 00       		.byte	0
 1299 0750 1A       		.uleb128 0x1a
 1300 0751 5F7200   		.ascii	"_r\000"
 1301 0754 0C       		.byte	0xc
 1302 0755 B5       		.byte	0xb5
 1303 0756 94000000 		.4byte	0x94
 1304 075a 04       		.byte	0x4
 1305 075b 1A       		.uleb128 0x1a
 1306 075c 5F7700   		.ascii	"_w\000"
 1307 075f 0C       		.byte	0xc
 1308 0760 B6       		.byte	0xb6
 1309 0761 94000000 		.4byte	0x94
 1310 0765 08       		.byte	0x8
 1311 0766 15       		.uleb128 0x15
 1312 0767 2B030000 		.4byte	.LASF121
 1313 076b 0C       		.byte	0xc
 1314 076c B7       		.byte	0xb7
 1315 076d 49000000 		.4byte	0x49
 1316 0771 0C       		.byte	0xc
 1317 0772 15       		.uleb128 0x15
 1318 0773 1F010000 		.4byte	.LASF122
 1319 0777 0C       		.byte	0xc
 1320 0778 B8       		.byte	0xb8
 1321 0779 49000000 		.4byte	0x49
 1322 077d 0E       		.byte	0xe
 1323 077e 1A       		.uleb128 0x1a
 1324 077f 5F626600 		.ascii	"_bf\000"
 1325 0783 0C       		.byte	0xc
 1326 0784 B9       		.byte	0xb9
 1327 0785 0E070000 		.4byte	0x70e
 1328 0789 10       		.byte	0x10
 1329 078a 15       		.uleb128 0x15
 1330 078b 06080000 		.4byte	.LASF123
 1331 078f 0C       		.byte	0xc
 1332 0790 BA       		.byte	0xba
 1333 0791 94000000 		.4byte	0x94
ARM GAS  /tmp/ccNHoAC7.s 			page 28


 1334 0795 18       		.byte	0x18
 1335 0796 15       		.uleb128 0x15
 1336 0797 14030000 		.4byte	.LASF124
 1337 079b 0C       		.byte	0xc
 1338 079c C1       		.byte	0xc1
 1339 079d 62050000 		.4byte	0x562
 1340 07a1 1C       		.byte	0x1c
 1341 07a2 15       		.uleb128 0x15
 1342 07a3 16000000 		.4byte	.LASF125
 1343 07a7 0C       		.byte	0xc
 1344 07a8 C3       		.byte	0xc3
 1345 07a9 BE090000 		.4byte	0x9be
 1346 07ad 20       		.byte	0x20
 1347 07ae 15       		.uleb128 0x15
 1348 07af 1C000000 		.4byte	.LASF126
 1349 07b3 0C       		.byte	0xc
 1350 07b4 C5       		.byte	0xc5
 1351 07b5 ED090000 		.4byte	0x9ed
 1352 07b9 24       		.byte	0x24
 1353 07ba 15       		.uleb128 0x15
 1354 07bb 1E060000 		.4byte	.LASF127
 1355 07bf 0C       		.byte	0xc
 1356 07c0 C8       		.byte	0xc8
 1357 07c1 110A0000 		.4byte	0xa11
 1358 07c5 28       		.byte	0x28
 1359 07c6 15       		.uleb128 0x15
 1360 07c7 CF020000 		.4byte	.LASF128
 1361 07cb 0C       		.byte	0xc
 1362 07cc C9       		.byte	0xc9
 1363 07cd 2B0A0000 		.4byte	0xa2b
 1364 07d1 2C       		.byte	0x2c
 1365 07d2 1A       		.uleb128 0x1a
 1366 07d3 5F756200 		.ascii	"_ub\000"
 1367 07d7 0C       		.byte	0xc
 1368 07d8 CC       		.byte	0xcc
 1369 07d9 0E070000 		.4byte	0x70e
 1370 07dd 30       		.byte	0x30
 1371 07de 1A       		.uleb128 0x1a
 1372 07df 5F757000 		.ascii	"_up\000"
 1373 07e3 0C       		.byte	0xc
 1374 07e4 CD       		.byte	0xcd
 1375 07e5 33070000 		.4byte	0x733
 1376 07e9 38       		.byte	0x38
 1377 07ea 1A       		.uleb128 0x1a
 1378 07eb 5F757200 		.ascii	"_ur\000"
 1379 07ef 0C       		.byte	0xc
 1380 07f0 CE       		.byte	0xce
 1381 07f1 94000000 		.4byte	0x94
 1382 07f5 3C       		.byte	0x3c
 1383 07f6 15       		.uleb128 0x15
 1384 07f7 93050000 		.4byte	.LASF129
 1385 07fb 0C       		.byte	0xc
 1386 07fc D1       		.byte	0xd1
 1387 07fd 310A0000 		.4byte	0xa31
 1388 0801 40       		.byte	0x40
 1389 0802 15       		.uleb128 0x15
 1390 0803 79000000 		.4byte	.LASF130
ARM GAS  /tmp/ccNHoAC7.s 			page 29


 1391 0807 0C       		.byte	0xc
 1392 0808 D2       		.byte	0xd2
 1393 0809 410A0000 		.4byte	0xa41
 1394 080d 43       		.byte	0x43
 1395 080e 1A       		.uleb128 0x1a
 1396 080f 5F6C6200 		.ascii	"_lb\000"
 1397 0813 0C       		.byte	0xc
 1398 0814 D5       		.byte	0xd5
 1399 0815 0E070000 		.4byte	0x70e
 1400 0819 44       		.byte	0x44
 1401 081a 15       		.uleb128 0x15
 1402 081b 0B070000 		.4byte	.LASF131
 1403 081f 0C       		.byte	0xc
 1404 0820 D8       		.byte	0xd8
 1405 0821 94000000 		.4byte	0x94
 1406 0825 4C       		.byte	0x4c
 1407 0826 15       		.uleb128 0x15
 1408 0827 32030000 		.4byte	.LASF132
 1409 082b 0C       		.byte	0xc
 1410 082c D9       		.byte	0xd9
 1411 082d DA040000 		.4byte	0x4da
 1412 0831 50       		.byte	0x50
 1413 0832 15       		.uleb128 0x15
 1414 0833 6F070000 		.4byte	.LASF133
 1415 0837 0C       		.byte	0xc
 1416 0838 DC       		.byte	0xdc
 1417 0839 81080000 		.4byte	0x881
 1418 083d 54       		.byte	0x54
 1419 083e 15       		.uleb128 0x15
 1420 083f B2000000 		.4byte	.LASF134
 1421 0843 0C       		.byte	0xc
 1422 0844 E0       		.byte	0xe0
 1423 0845 57050000 		.4byte	0x557
 1424 0849 58       		.byte	0x58
 1425 084a 15       		.uleb128 0x15
 1426 084b AF050000 		.4byte	.LASF135
 1427 084f 0C       		.byte	0xc
 1428 0850 E2       		.byte	0xe2
 1429 0851 4C050000 		.4byte	0x54c
 1430 0855 5C       		.byte	0x5c
 1431 0856 15       		.uleb128 0x15
 1432 0857 76030000 		.4byte	.LASF136
 1433 085b 0C       		.byte	0xc
 1434 085c E3       		.byte	0xe3
 1435 085d 94000000 		.4byte	0x94
 1436 0861 64       		.byte	0x64
 1437 0862 00       		.byte	0
 1438 0863 1E       		.uleb128 0x1e
 1439 0864 94000000 		.4byte	0x94
 1440 0868 81080000 		.4byte	0x881
 1441 086c 1F       		.uleb128 0x1f
 1442 086d 81080000 		.4byte	0x881
 1443 0871 1F       		.uleb128 0x1f
 1444 0872 62050000 		.4byte	0x562
 1445 0876 1F       		.uleb128 0x1f
 1446 0877 64050000 		.4byte	0x564
 1447 087b 1F       		.uleb128 0x1f
ARM GAS  /tmp/ccNHoAC7.s 			page 30


 1448 087c 94000000 		.4byte	0x94
 1449 0880 00       		.byte	0
 1450 0881 17       		.uleb128 0x17
 1451 0882 04       		.byte	0x4
 1452 0883 8C080000 		.4byte	0x88c
 1453 0887 18       		.uleb128 0x18
 1454 0888 81080000 		.4byte	0x881
 1455 088c 20       		.uleb128 0x20
 1456 088d 7B020000 		.4byte	.LASF137
 1457 0891 2804     		.2byte	0x428
 1458 0893 0C       		.byte	0xc
 1459 0894 3802     		.2byte	0x238
 1460 0896 BE090000 		.4byte	0x9be
 1461 089a 0D       		.uleb128 0xd
 1462 089b A0030000 		.4byte	.LASF138
 1463 089f 0C       		.byte	0xc
 1464 08a0 3A02     		.2byte	0x23a
 1465 08a2 94000000 		.4byte	0x94
 1466 08a6 00       		.byte	0
 1467 08a7 0D       		.uleb128 0xd
 1468 08a8 EC020000 		.4byte	.LASF139
 1469 08ac 0C       		.byte	0xc
 1470 08ad 3F02     		.2byte	0x23f
 1471 08af 980A0000 		.4byte	0xa98
 1472 08b3 04       		.byte	0x4
 1473 08b4 0D       		.uleb128 0xd
 1474 08b5 FF010000 		.4byte	.LASF140
 1475 08b9 0C       		.byte	0xc
 1476 08ba 3F02     		.2byte	0x23f
 1477 08bc 980A0000 		.4byte	0xa98
 1478 08c0 08       		.byte	0x8
 1479 08c1 0D       		.uleb128 0xd
 1480 08c2 99050000 		.4byte	.LASF141
 1481 08c6 0C       		.byte	0xc
 1482 08c7 3F02     		.2byte	0x23f
 1483 08c9 980A0000 		.4byte	0xa98
 1484 08cd 0C       		.byte	0xc
 1485 08ce 0D       		.uleb128 0xd
 1486 08cf 22080000 		.4byte	.LASF142
 1487 08d3 0C       		.byte	0xc
 1488 08d4 4102     		.2byte	0x241
 1489 08d6 94000000 		.4byte	0x94
 1490 08da 10       		.byte	0x10
 1491 08db 0D       		.uleb128 0xd
 1492 08dc 4A040000 		.4byte	.LASF143
 1493 08e0 0C       		.byte	0xc
 1494 08e1 4202     		.2byte	0x242
 1495 08e3 7A0C0000 		.4byte	0xc7a
 1496 08e7 14       		.byte	0x14
 1497 08e8 0D       		.uleb128 0xd
 1498 08e9 C4010000 		.4byte	.LASF144
 1499 08ed 0C       		.byte	0xc
 1500 08ee 4402     		.2byte	0x244
 1501 08f0 94000000 		.4byte	0x94
 1502 08f4 30       		.byte	0x30
 1503 08f5 0D       		.uleb128 0xd
 1504 08f6 C9040000 		.4byte	.LASF145
ARM GAS  /tmp/ccNHoAC7.s 			page 31


 1505 08fa 0C       		.byte	0xc
 1506 08fb 4502     		.2byte	0x245
 1507 08fd E2090000 		.4byte	0x9e2
 1508 0901 34       		.byte	0x34
 1509 0902 0D       		.uleb128 0xd
 1510 0903 92000000 		.4byte	.LASF146
 1511 0907 0C       		.byte	0xc
 1512 0908 4702     		.2byte	0x247
 1513 090a 94000000 		.4byte	0x94
 1514 090e 38       		.byte	0x38
 1515 090f 0D       		.uleb128 0xd
 1516 0910 1E040000 		.4byte	.LASF147
 1517 0914 0C       		.byte	0xc
 1518 0915 4902     		.2byte	0x249
 1519 0917 950C0000 		.4byte	0xc95
 1520 091b 3C       		.byte	0x3c
 1521 091c 0D       		.uleb128 0xd
 1522 091d 7C080000 		.4byte	.LASF148
 1523 0921 0C       		.byte	0xc
 1524 0922 4C02     		.2byte	0x24c
 1525 0924 D4050000 		.4byte	0x5d4
 1526 0928 40       		.byte	0x40
 1527 0929 0D       		.uleb128 0xd
 1528 092a 75010000 		.4byte	.LASF149
 1529 092e 0C       		.byte	0xc
 1530 092f 4D02     		.2byte	0x24d
 1531 0931 94000000 		.4byte	0x94
 1532 0935 44       		.byte	0x44
 1533 0936 0D       		.uleb128 0xd
 1534 0937 52030000 		.4byte	.LASF150
 1535 093b 0C       		.byte	0xc
 1536 093c 4E02     		.2byte	0x24e
 1537 093e D4050000 		.4byte	0x5d4
 1538 0942 48       		.byte	0x48
 1539 0943 0D       		.uleb128 0xd
 1540 0944 E6040000 		.4byte	.LASF151
 1541 0948 0C       		.byte	0xc
 1542 0949 4F02     		.2byte	0x24f
 1543 094b 9B0C0000 		.4byte	0xc9b
 1544 094f 4C       		.byte	0x4c
 1545 0950 0D       		.uleb128 0xd
 1546 0951 38000000 		.4byte	.LASF152
 1547 0955 0C       		.byte	0xc
 1548 0956 5202     		.2byte	0x252
 1549 0958 94000000 		.4byte	0x94
 1550 095c 50       		.byte	0x50
 1551 095d 0D       		.uleb128 0xd
 1552 095e 3A030000 		.4byte	.LASF153
 1553 0962 0C       		.byte	0xc
 1554 0963 5302     		.2byte	0x253
 1555 0965 64050000 		.4byte	0x564
 1556 0969 54       		.byte	0x54
 1557 096a 0D       		.uleb128 0xd
 1558 096b 8E050000 		.4byte	.LASF154
 1559 096f 0C       		.byte	0xc
 1560 0970 7602     		.2byte	0x276
 1561 0972 580C0000 		.4byte	0xc58
ARM GAS  /tmp/ccNHoAC7.s 			page 32


 1562 0976 58       		.byte	0x58
 1563 0977 21       		.uleb128 0x21
 1564 0978 E0050000 		.4byte	.LASF114
 1565 097c 0C       		.byte	0xc
 1566 097d 7A02     		.2byte	0x27a
 1567 097f F1060000 		.4byte	0x6f1
 1568 0983 4801     		.2byte	0x148
 1569 0985 21       		.uleb128 0x21
 1570 0986 28040000 		.4byte	.LASF155
 1571 098a 0C       		.byte	0xc
 1572 098b 7B02     		.2byte	0x27b
 1573 098d B3060000 		.4byte	0x6b3
 1574 0991 4C01     		.2byte	0x14c
 1575 0993 21       		.uleb128 0x21
 1576 0994 21030000 		.4byte	.LASF156
 1577 0998 0C       		.byte	0xc
 1578 0999 7F02     		.2byte	0x27f
 1579 099b AC0C0000 		.4byte	0xcac
 1580 099f DC02     		.2byte	0x2dc
 1581 09a1 21       		.uleb128 0x21
 1582 09a2 84040000 		.4byte	.LASF157
 1583 09a6 0C       		.byte	0xc
 1584 09a7 8402     		.2byte	0x284
 1585 09a9 5D0A0000 		.4byte	0xa5d
 1586 09ad E002     		.2byte	0x2e0
 1587 09af 21       		.uleb128 0x21
 1588 09b0 11000000 		.4byte	.LASF158
 1589 09b4 0C       		.byte	0xc
 1590 09b5 8502     		.2byte	0x285
 1591 09b7 B80C0000 		.4byte	0xcb8
 1592 09bb EC02     		.2byte	0x2ec
 1593 09bd 00       		.byte	0
 1594 09be 17       		.uleb128 0x17
 1595 09bf 04       		.byte	0x4
 1596 09c0 63080000 		.4byte	0x863
 1597 09c4 1E       		.uleb128 0x1e
 1598 09c5 94000000 		.4byte	0x94
 1599 09c9 E2090000 		.4byte	0x9e2
 1600 09cd 1F       		.uleb128 0x1f
 1601 09ce 81080000 		.4byte	0x881
 1602 09d2 1F       		.uleb128 0x1f
 1603 09d3 62050000 		.4byte	0x562
 1604 09d7 1F       		.uleb128 0x1f
 1605 09d8 E2090000 		.4byte	0x9e2
 1606 09dc 1F       		.uleb128 0x1f
 1607 09dd 94000000 		.4byte	0x94
 1608 09e1 00       		.byte	0
 1609 09e2 17       		.uleb128 0x17
 1610 09e3 04       		.byte	0x4
 1611 09e4 71050000 		.4byte	0x571
 1612 09e8 18       		.uleb128 0x18
 1613 09e9 E2090000 		.4byte	0x9e2
 1614 09ed 17       		.uleb128 0x17
 1615 09ee 04       		.byte	0x4
 1616 09ef C4090000 		.4byte	0x9c4
 1617 09f3 1E       		.uleb128 0x1e
 1618 09f4 E5040000 		.4byte	0x4e5
ARM GAS  /tmp/ccNHoAC7.s 			page 33


 1619 09f8 110A0000 		.4byte	0xa11
 1620 09fc 1F       		.uleb128 0x1f
 1621 09fd 81080000 		.4byte	0x881
 1622 0a01 1F       		.uleb128 0x1f
 1623 0a02 62050000 		.4byte	0x562
 1624 0a06 1F       		.uleb128 0x1f
 1625 0a07 E5040000 		.4byte	0x4e5
 1626 0a0b 1F       		.uleb128 0x1f
 1627 0a0c 94000000 		.4byte	0x94
 1628 0a10 00       		.byte	0
 1629 0a11 17       		.uleb128 0x17
 1630 0a12 04       		.byte	0x4
 1631 0a13 F3090000 		.4byte	0x9f3
 1632 0a17 1E       		.uleb128 0x1e
 1633 0a18 94000000 		.4byte	0x94
 1634 0a1c 2B0A0000 		.4byte	0xa2b
 1635 0a20 1F       		.uleb128 0x1f
 1636 0a21 81080000 		.4byte	0x881
 1637 0a25 1F       		.uleb128 0x1f
 1638 0a26 62050000 		.4byte	0x562
 1639 0a2a 00       		.byte	0
 1640 0a2b 17       		.uleb128 0x17
 1641 0a2c 04       		.byte	0x4
 1642 0a2d 170A0000 		.4byte	0xa17
 1643 0a31 10       		.uleb128 0x10
 1644 0a32 37000000 		.4byte	0x37
 1645 0a36 410A0000 		.4byte	0xa41
 1646 0a3a 11       		.uleb128 0x11
 1647 0a3b E3000000 		.4byte	0xe3
 1648 0a3f 02       		.byte	0x2
 1649 0a40 00       		.byte	0
 1650 0a41 10       		.uleb128 0x10
 1651 0a42 37000000 		.4byte	0x37
 1652 0a46 510A0000 		.4byte	0xa51
 1653 0a4a 11       		.uleb128 0x11
 1654 0a4b E3000000 		.4byte	0xe3
 1655 0a4f 00       		.byte	0
 1656 0a50 00       		.byte	0
 1657 0a51 0E       		.uleb128 0xe
 1658 0a52 3B070000 		.4byte	.LASF159
 1659 0a56 0C       		.byte	0xc
 1660 0a57 1D01     		.2byte	0x11d
 1661 0a59 39070000 		.4byte	0x739
 1662 0a5d 22       		.uleb128 0x22
 1663 0a5e F6040000 		.4byte	.LASF160
 1664 0a62 0C       		.byte	0xc
 1665 0a63 0C       		.byte	0xc
 1666 0a64 2101     		.2byte	0x121
 1667 0a66 920A0000 		.4byte	0xa92
 1668 0a6a 0D       		.uleb128 0xd
 1669 0a6b 69070000 		.4byte	.LASF94
 1670 0a6f 0C       		.byte	0xc
 1671 0a70 2301     		.2byte	0x123
 1672 0a72 920A0000 		.4byte	0xa92
 1673 0a76 00       		.byte	0
 1674 0a77 0D       		.uleb128 0xd
 1675 0a78 7D040000 		.4byte	.LASF161
ARM GAS  /tmp/ccNHoAC7.s 			page 34


 1676 0a7c 0C       		.byte	0xc
 1677 0a7d 2401     		.2byte	0x124
 1678 0a7f 94000000 		.4byte	0x94
 1679 0a83 04       		.byte	0x4
 1680 0a84 0D       		.uleb128 0xd
 1681 0a85 F0040000 		.4byte	.LASF162
 1682 0a89 0C       		.byte	0xc
 1683 0a8a 2501     		.2byte	0x125
 1684 0a8c 980A0000 		.4byte	0xa98
 1685 0a90 08       		.byte	0x8
 1686 0a91 00       		.byte	0
 1687 0a92 17       		.uleb128 0x17
 1688 0a93 04       		.byte	0x4
 1689 0a94 5D0A0000 		.4byte	0xa5d
 1690 0a98 17       		.uleb128 0x17
 1691 0a99 04       		.byte	0x4
 1692 0a9a 510A0000 		.4byte	0xa51
 1693 0a9e 22       		.uleb128 0x22
 1694 0a9f 8A060000 		.4byte	.LASF163
 1695 0aa3 0E       		.byte	0xe
 1696 0aa4 0C       		.byte	0xc
 1697 0aa5 3D01     		.2byte	0x13d
 1698 0aa7 D30A0000 		.4byte	0xad3
 1699 0aab 0D       		.uleb128 0xd
 1700 0aac 18060000 		.4byte	.LASF164
 1701 0ab0 0C       		.byte	0xc
 1702 0ab1 3E01     		.2byte	0x13e
 1703 0ab3 D30A0000 		.4byte	0xad3
 1704 0ab7 00       		.byte	0
 1705 0ab8 0D       		.uleb128 0xd
 1706 0ab9 B8000000 		.4byte	.LASF165
 1707 0abd 0C       		.byte	0xc
 1708 0abe 3F01     		.2byte	0x13f
 1709 0ac0 D30A0000 		.4byte	0xad3
 1710 0ac4 06       		.byte	0x6
 1711 0ac5 0D       		.uleb128 0xd
 1712 0ac6 8B080000 		.4byte	.LASF166
 1713 0aca 0C       		.byte	0xc
 1714 0acb 4001     		.2byte	0x140
 1715 0acd 5B000000 		.4byte	0x5b
 1716 0ad1 0C       		.byte	0xc
 1717 0ad2 00       		.byte	0
 1718 0ad3 10       		.uleb128 0x10
 1719 0ad4 5B000000 		.4byte	0x5b
 1720 0ad8 E30A0000 		.4byte	0xae3
 1721 0adc 11       		.uleb128 0x11
 1722 0add E3000000 		.4byte	0xe3
 1723 0ae1 02       		.byte	0x2
 1724 0ae2 00       		.byte	0
 1725 0ae3 0B       		.uleb128 0xb
 1726 0ae4 D0       		.byte	0xd0
 1727 0ae5 0C       		.byte	0xc
 1728 0ae6 5702     		.2byte	0x257
 1729 0ae8 E40B0000 		.4byte	0xbe4
 1730 0aec 0D       		.uleb128 0xd
 1731 0aed D6010000 		.4byte	.LASF167
 1732 0af1 0C       		.byte	0xc
ARM GAS  /tmp/ccNHoAC7.s 			page 35


 1733 0af2 5902     		.2byte	0x259
 1734 0af4 9B000000 		.4byte	0x9b
 1735 0af8 00       		.byte	0
 1736 0af9 0D       		.uleb128 0xd
 1737 0afa 1A070000 		.4byte	.LASF168
 1738 0afe 0C       		.byte	0xc
 1739 0aff 5A02     		.2byte	0x25a
 1740 0b01 64050000 		.4byte	0x564
 1741 0b05 04       		.byte	0x4
 1742 0b06 0D       		.uleb128 0xd
 1743 0b07 2B000000 		.4byte	.LASF169
 1744 0b0b 0C       		.byte	0xc
 1745 0b0c 5B02     		.2byte	0x25b
 1746 0b0e E40B0000 		.4byte	0xbe4
 1747 0b12 08       		.byte	0x8
 1748 0b13 0D       		.uleb128 0xd
 1749 0b14 A7010000 		.4byte	.LASF170
 1750 0b18 0C       		.byte	0xc
 1751 0b19 5C02     		.2byte	0x25c
 1752 0b1b EA050000 		.4byte	0x5ea
 1753 0b1f 24       		.byte	0x24
 1754 0b20 0D       		.uleb128 0xd
 1755 0b21 A8040000 		.4byte	.LASF171
 1756 0b25 0C       		.byte	0xc
 1757 0b26 5D02     		.2byte	0x25d
 1758 0b28 94000000 		.4byte	0x94
 1759 0b2c 48       		.byte	0x48
 1760 0b2d 0D       		.uleb128 0xd
 1761 0b2e CA050000 		.4byte	.LASF172
 1762 0b32 0C       		.byte	0xc
 1763 0b33 5E02     		.2byte	0x25e
 1764 0b35 8D000000 		.4byte	0x8d
 1765 0b39 50       		.byte	0x50
 1766 0b3a 0D       		.uleb128 0xd
 1767 0b3b 5D070000 		.4byte	.LASF173
 1768 0b3f 0C       		.byte	0xc
 1769 0b40 5F02     		.2byte	0x25f
 1770 0b42 9E0A0000 		.4byte	0xa9e
 1771 0b46 58       		.byte	0x58
 1772 0b47 0D       		.uleb128 0xd
 1773 0b48 89070000 		.4byte	.LASF174
 1774 0b4c 0C       		.byte	0xc
 1775 0b4d 6002     		.2byte	0x260
 1776 0b4f 4C050000 		.4byte	0x54c
 1777 0b53 68       		.byte	0x68
 1778 0b54 0D       		.uleb128 0xd
 1779 0b55 50060000 		.4byte	.LASF175
 1780 0b59 0C       		.byte	0xc
 1781 0b5a 6102     		.2byte	0x261
 1782 0b5c 4C050000 		.4byte	0x54c
 1783 0b60 70       		.byte	0x70
 1784 0b61 0D       		.uleb128 0xd
 1785 0b62 A1050000 		.4byte	.LASF176
 1786 0b66 0C       		.byte	0xc
 1787 0b67 6202     		.2byte	0x262
 1788 0b69 4C050000 		.4byte	0x54c
 1789 0b6d 78       		.byte	0x78
ARM GAS  /tmp/ccNHoAC7.s 			page 36


 1790 0b6e 0D       		.uleb128 0xd
 1791 0b6f 88000000 		.4byte	.LASF177
 1792 0b73 0C       		.byte	0xc
 1793 0b74 6302     		.2byte	0x263
 1794 0b76 F40B0000 		.4byte	0xbf4
 1795 0b7a 80       		.byte	0x80
 1796 0b7b 0D       		.uleb128 0xd
 1797 0b7c A7030000 		.4byte	.LASF178
 1798 0b80 0C       		.byte	0xc
 1799 0b81 6402     		.2byte	0x264
 1800 0b83 040C0000 		.4byte	0xc04
 1801 0b87 88       		.byte	0x88
 1802 0b88 0D       		.uleb128 0xd
 1803 0b89 27090000 		.4byte	.LASF179
 1804 0b8d 0C       		.byte	0xc
 1805 0b8e 6502     		.2byte	0x265
 1806 0b90 94000000 		.4byte	0x94
 1807 0b94 A0       		.byte	0xa0
 1808 0b95 0D       		.uleb128 0xd
 1809 0b96 52010000 		.4byte	.LASF180
 1810 0b9a 0C       		.byte	0xc
 1811 0b9b 6602     		.2byte	0x266
 1812 0b9d 4C050000 		.4byte	0x54c
 1813 0ba1 A4       		.byte	0xa4
 1814 0ba2 0D       		.uleb128 0xd
 1815 0ba3 27070000 		.4byte	.LASF181
 1816 0ba7 0C       		.byte	0xc
 1817 0ba8 6702     		.2byte	0x267
 1818 0baa 4C050000 		.4byte	0x54c
 1819 0bae AC       		.byte	0xac
 1820 0baf 0D       		.uleb128 0xd
 1821 0bb0 C3080000 		.4byte	.LASF182
 1822 0bb4 0C       		.byte	0xc
 1823 0bb5 6802     		.2byte	0x268
 1824 0bb7 4C050000 		.4byte	0x54c
 1825 0bbb B4       		.byte	0xb4
 1826 0bbc 0D       		.uleb128 0xd
 1827 0bbd 6C050000 		.4byte	.LASF183
 1828 0bc1 0C       		.byte	0xc
 1829 0bc2 6902     		.2byte	0x269
 1830 0bc4 4C050000 		.4byte	0x54c
 1831 0bc8 BC       		.byte	0xbc
 1832 0bc9 0D       		.uleb128 0xd
 1833 0bca 68000000 		.4byte	.LASF184
 1834 0bce 0C       		.byte	0xc
 1835 0bcf 6A02     		.2byte	0x26a
 1836 0bd1 4C050000 		.4byte	0x54c
 1837 0bd5 C4       		.byte	0xc4
 1838 0bd6 0D       		.uleb128 0xd
 1839 0bd7 3E050000 		.4byte	.LASF185
 1840 0bdb 0C       		.byte	0xc
 1841 0bdc 6B02     		.2byte	0x26b
 1842 0bde 94000000 		.4byte	0x94
 1843 0be2 CC       		.byte	0xcc
 1844 0be3 00       		.byte	0
 1845 0be4 10       		.uleb128 0x10
 1846 0be5 6A050000 		.4byte	0x56a
ARM GAS  /tmp/ccNHoAC7.s 			page 37


 1847 0be9 F40B0000 		.4byte	0xbf4
 1848 0bed 11       		.uleb128 0x11
 1849 0bee E3000000 		.4byte	0xe3
 1850 0bf2 19       		.byte	0x19
 1851 0bf3 00       		.byte	0
 1852 0bf4 10       		.uleb128 0x10
 1853 0bf5 6A050000 		.4byte	0x56a
 1854 0bf9 040C0000 		.4byte	0xc04
 1855 0bfd 11       		.uleb128 0x11
 1856 0bfe E3000000 		.4byte	0xe3
 1857 0c02 07       		.byte	0x7
 1858 0c03 00       		.byte	0
 1859 0c04 10       		.uleb128 0x10
 1860 0c05 6A050000 		.4byte	0x56a
 1861 0c09 140C0000 		.4byte	0xc14
 1862 0c0d 11       		.uleb128 0x11
 1863 0c0e E3000000 		.4byte	0xe3
 1864 0c12 17       		.byte	0x17
 1865 0c13 00       		.byte	0
 1866 0c14 0B       		.uleb128 0xb
 1867 0c15 F0       		.byte	0xf0
 1868 0c16 0C       		.byte	0xc
 1869 0c17 7002     		.2byte	0x270
 1870 0c19 380C0000 		.4byte	0xc38
 1871 0c1d 0D       		.uleb128 0xd
 1872 0c1e 5F080000 		.4byte	.LASF186
 1873 0c22 0C       		.byte	0xc
 1874 0c23 7302     		.2byte	0x273
 1875 0c25 380C0000 		.4byte	0xc38
 1876 0c29 00       		.byte	0
 1877 0c2a 0D       		.uleb128 0xd
 1878 0c2b 98040000 		.4byte	.LASF187
 1879 0c2f 0C       		.byte	0xc
 1880 0c30 7402     		.2byte	0x274
 1881 0c32 480C0000 		.4byte	0xc48
 1882 0c36 78       		.byte	0x78
 1883 0c37 00       		.byte	0
 1884 0c38 10       		.uleb128 0x10
 1885 0c39 33070000 		.4byte	0x733
 1886 0c3d 480C0000 		.4byte	0xc48
 1887 0c41 11       		.uleb128 0x11
 1888 0c42 E3000000 		.4byte	0xe3
 1889 0c46 1D       		.byte	0x1d
 1890 0c47 00       		.byte	0
 1891 0c48 10       		.uleb128 0x10
 1892 0c49 9B000000 		.4byte	0x9b
 1893 0c4d 580C0000 		.4byte	0xc58
 1894 0c51 11       		.uleb128 0x11
 1895 0c52 E3000000 		.4byte	0xe3
 1896 0c56 1D       		.byte	0x1d
 1897 0c57 00       		.byte	0
 1898 0c58 23       		.uleb128 0x23
 1899 0c59 F0       		.byte	0xf0
 1900 0c5a 0C       		.byte	0xc
 1901 0c5b 5502     		.2byte	0x255
 1902 0c5d 7A0C0000 		.4byte	0xc7a
 1903 0c61 24       		.uleb128 0x24
ARM GAS  /tmp/ccNHoAC7.s 			page 38


 1904 0c62 7B020000 		.4byte	.LASF137
 1905 0c66 0C       		.byte	0xc
 1906 0c67 6C02     		.2byte	0x26c
 1907 0c69 E30A0000 		.4byte	0xae3
 1908 0c6d 24       		.uleb128 0x24
 1909 0c6e 5B000000 		.4byte	.LASF188
 1910 0c72 0C       		.byte	0xc
 1911 0c73 7502     		.2byte	0x275
 1912 0c75 140C0000 		.4byte	0xc14
 1913 0c79 00       		.byte	0
 1914 0c7a 10       		.uleb128 0x10
 1915 0c7b 6A050000 		.4byte	0x56a
 1916 0c7f 8A0C0000 		.4byte	0xc8a
 1917 0c83 11       		.uleb128 0x11
 1918 0c84 E3000000 		.4byte	0xe3
 1919 0c88 18       		.byte	0x18
 1920 0c89 00       		.byte	0
 1921 0c8a 25       		.uleb128 0x25
 1922 0c8b 950C0000 		.4byte	0xc95
 1923 0c8f 1F       		.uleb128 0x1f
 1924 0c90 81080000 		.4byte	0x881
 1925 0c94 00       		.byte	0
 1926 0c95 17       		.uleb128 0x17
 1927 0c96 04       		.byte	0x4
 1928 0c97 8A0C0000 		.4byte	0xc8a
 1929 0c9b 17       		.uleb128 0x17
 1930 0c9c 04       		.byte	0x4
 1931 0c9d D4050000 		.4byte	0x5d4
 1932 0ca1 25       		.uleb128 0x25
 1933 0ca2 AC0C0000 		.4byte	0xcac
 1934 0ca6 1F       		.uleb128 0x1f
 1935 0ca7 94000000 		.4byte	0x94
 1936 0cab 00       		.byte	0
 1937 0cac 17       		.uleb128 0x17
 1938 0cad 04       		.byte	0x4
 1939 0cae B20C0000 		.4byte	0xcb2
 1940 0cb2 17       		.uleb128 0x17
 1941 0cb3 04       		.byte	0x4
 1942 0cb4 A10C0000 		.4byte	0xca1
 1943 0cb8 10       		.uleb128 0x10
 1944 0cb9 510A0000 		.4byte	0xa51
 1945 0cbd C80C0000 		.4byte	0xcc8
 1946 0cc1 11       		.uleb128 0x11
 1947 0cc2 E3000000 		.4byte	0xe3
 1948 0cc6 02       		.byte	0x2
 1949 0cc7 00       		.byte	0
 1950 0cc8 06       		.uleb128 0x6
 1951 0cc9 69010000 		.4byte	.LASF189
 1952 0ccd 0C       		.byte	0xc
 1953 0cce FD02     		.2byte	0x2fd
 1954 0cd0 81080000 		.4byte	0x881
 1955 0cd4 06       		.uleb128 0x6
 1956 0cd5 82020000 		.4byte	.LASF190
 1957 0cd9 0C       		.byte	0xc
 1958 0cda FE02     		.2byte	0x2fe
 1959 0cdc 87080000 		.4byte	0x887
 1960 0ce0 07       		.uleb128 0x7
ARM GAS  /tmp/ccNHoAC7.s 			page 39


 1961 0ce1 CC070000 		.4byte	.LASF191
 1962 0ce5 0D       		.byte	0xd
 1963 0ce6 5F       		.byte	0x5f
 1964 0ce7 64050000 		.4byte	0x564
 1965 0ceb 02       		.uleb128 0x2
 1966 0cec 08       		.byte	0x8
 1967 0ced 04       		.byte	0x4
 1968 0cee A1040000 		.4byte	.LASF192
 1969 0cf2 26       		.uleb128 0x26
 1970 0cf3 FA060000 		.4byte	.LASF226
 1971 0cf7 01       		.byte	0x1
 1972 0cf8 25000000 		.4byte	0x25
 1973 0cfc 0E       		.byte	0xe
 1974 0cfd 9902     		.2byte	0x299
 1975 0cff 1C0D0000 		.4byte	0xd1c
 1976 0d03 27       		.uleb128 0x27
 1977 0d04 4A080000 		.4byte	.LASF193
 1978 0d08 7F       		.sleb128 -1
 1979 0d09 09       		.uleb128 0x9
 1980 0d0a 31040000 		.4byte	.LASF194
 1981 0d0e 00       		.byte	0
 1982 0d0f 09       		.uleb128 0x9
 1983 0d10 A0070000 		.4byte	.LASF195
 1984 0d14 01       		.byte	0x1
 1985 0d15 09       		.uleb128 0x9
 1986 0d16 7A070000 		.4byte	.LASF196
 1987 0d1a 02       		.byte	0x2
 1988 0d1b 00       		.byte	0
 1989 0d1c 06       		.uleb128 0x6
 1990 0d1d 42030000 		.4byte	.LASF197
 1991 0d21 0E       		.byte	0xe
 1992 0d22 A402     		.2byte	0x2a4
 1993 0d24 F20C0000 		.4byte	0xcf2
 1994 0d28 10       		.uleb128 0x10
 1995 0d29 E8090000 		.4byte	0x9e8
 1996 0d2d 330D0000 		.4byte	0xd33
 1997 0d31 28       		.uleb128 0x28
 1998 0d32 00       		.byte	0
 1999 0d33 18       		.uleb128 0x18
 2000 0d34 280D0000 		.4byte	0xd28
 2001 0d38 07       		.uleb128 0x7
 2002 0d39 B3030000 		.4byte	.LASF198
 2003 0d3d 0F       		.byte	0xf
 2004 0d3e 14       		.byte	0x14
 2005 0d3f 330D0000 		.4byte	0xd33
 2006 0d43 07       		.uleb128 0x7
 2007 0d44 33010000 		.4byte	.LASF199
 2008 0d48 0F       		.byte	0xf
 2009 0d49 15       		.byte	0x15
 2010 0d4a 94000000 		.4byte	0x94
 2011 0d4e 07       		.uleb128 0x7
 2012 0d4f 09030000 		.4byte	.LASF200
 2013 0d53 10       		.byte	0x10
 2014 0d54 0A       		.byte	0xa
 2015 0d55 B8000000 		.4byte	0xb8
 2016 0d59 07       		.uleb128 0x7
 2017 0d5a D6020000 		.4byte	.LASF201
ARM GAS  /tmp/ccNHoAC7.s 			page 40


 2018 0d5e 10       		.byte	0x10
 2019 0d5f 0B       		.byte	0xb
 2020 0d60 B8000000 		.4byte	0xb8
 2021 0d64 29       		.uleb128 0x29
 2022 0d65 4E0D0000 		.4byte	0xd4e
 2023 0d69 01       		.byte	0x1
 2024 0d6a 04       		.byte	0x4
 2025 0d6b 05       		.uleb128 0x5
 2026 0d6c 03       		.byte	0x3
 2027 0d6d 00000000 		.4byte	tim2_count
 2028 0d71 29       		.uleb128 0x29
 2029 0d72 590D0000 		.4byte	0xd59
 2030 0d76 01       		.byte	0x1
 2031 0d77 05       		.byte	0x5
 2032 0d78 05       		.uleb128 0x5
 2033 0d79 03       		.byte	0x3
 2034 0d7a 00000000 		.4byte	tim3_count
 2035 0d7e 2A       		.uleb128 0x2a
 2036 0d7f A3000000 		.4byte	.LASF202
 2037 0d83 01       		.byte	0x1
 2038 0d84 9B       		.byte	0x9b
 2039 0d85 8C000000 		.4byte	.LFB74
 2040 0d89 44000000 		.4byte	.LFE74-.LFB74
 2041 0d8d 01       		.uleb128 0x1
 2042 0d8e 9C       		.byte	0x9c
 2043 0d8f 2A0E0000 		.4byte	0xe2a
 2044 0d93 2B       		.uleb128 0x2b
 2045 0d94 94000000 		.4byte	.LVL9
 2046 0d98 C10F0000 		.4byte	0xfc1
 2047 0d9c A60D0000 		.4byte	0xda6
 2048 0da0 2C       		.uleb128 0x2c
 2049 0da1 01       		.uleb128 0x1
 2050 0da2 50       		.byte	0x50
 2051 0da3 01       		.uleb128 0x1
 2052 0da4 38       		.byte	0x38
 2053 0da5 00       		.byte	0
 2054 0da6 2B       		.uleb128 0x2b
 2055 0da7 9C000000 		.4byte	.LVL10
 2056 0dab C10F0000 		.4byte	0xfc1
 2057 0daf B90D0000 		.4byte	0xdb9
 2058 0db3 2C       		.uleb128 0x2c
 2059 0db4 01       		.uleb128 0x1
 2060 0db5 50       		.byte	0x50
 2061 0db6 01       		.uleb128 0x1
 2062 0db7 40       		.byte	0x40
 2063 0db8 00       		.byte	0
 2064 0db9 2B       		.uleb128 0x2b
 2065 0dba A6000000 		.4byte	.LVL11
 2066 0dbe CD0F0000 		.4byte	0xfcd
 2067 0dc2 CC0D0000 		.4byte	0xdcc
 2068 0dc6 2C       		.uleb128 0x2c
 2069 0dc7 01       		.uleb128 0x1
 2070 0dc8 50       		.byte	0x50
 2071 0dc9 01       		.uleb128 0x1
 2072 0dca 38       		.byte	0x38
 2073 0dcb 00       		.byte	0
 2074 0dcc 2B       		.uleb128 0x2b
ARM GAS  /tmp/ccNHoAC7.s 			page 41


 2075 0dcd AC000000 		.4byte	.LVL12
 2076 0dd1 D90F0000 		.4byte	0xfd9
 2077 0dd5 E00D0000 		.4byte	0xde0
 2078 0dd9 2C       		.uleb128 0x2c
 2079 0dda 01       		.uleb128 0x1
 2080 0ddb 50       		.byte	0x50
 2081 0ddc 02       		.uleb128 0x2
 2082 0ddd 08       		.byte	0x8
 2083 0dde 31       		.byte	0x31
 2084 0ddf 00       		.byte	0
 2085 0de0 2B       		.uleb128 0x2b
 2086 0de1 B6000000 		.4byte	.LVL13
 2087 0de5 E50F0000 		.4byte	0xfe5
 2088 0de9 F30D0000 		.4byte	0xdf3
 2089 0ded 2C       		.uleb128 0x2c
 2090 0dee 01       		.uleb128 0x1
 2091 0def 50       		.byte	0x50
 2092 0df0 01       		.uleb128 0x1
 2093 0df1 31       		.byte	0x31
 2094 0df2 00       		.byte	0
 2095 0df3 2B       		.uleb128 0x2b
 2096 0df4 BE000000 		.4byte	.LVL14
 2097 0df8 CD0F0000 		.4byte	0xfcd
 2098 0dfc 060E0000 		.4byte	0xe06
 2099 0e00 2C       		.uleb128 0x2c
 2100 0e01 01       		.uleb128 0x1
 2101 0e02 50       		.byte	0x50
 2102 0e03 01       		.uleb128 0x1
 2103 0e04 40       		.byte	0x40
 2104 0e05 00       		.byte	0
 2105 0e06 2B       		.uleb128 0x2b
 2106 0e07 C4000000 		.4byte	.LVL15
 2107 0e0b D90F0000 		.4byte	0xfd9
 2108 0e0f 1A0E0000 		.4byte	0xe1a
 2109 0e13 2C       		.uleb128 0x2c
 2110 0e14 01       		.uleb128 0x1
 2111 0e15 50       		.byte	0x50
 2112 0e16 02       		.uleb128 0x2
 2113 0e17 08       		.byte	0x8
 2114 0e18 39       		.byte	0x39
 2115 0e19 00       		.byte	0
 2116 0e1a 2D       		.uleb128 0x2d
 2117 0e1b CE000000 		.4byte	.LVL16
 2118 0e1f F10F0000 		.4byte	0xff1
 2119 0e23 2C       		.uleb128 0x2c
 2120 0e24 01       		.uleb128 0x1
 2121 0e25 50       		.byte	0x50
 2122 0e26 01       		.uleb128 0x1
 2123 0e27 32       		.byte	0x32
 2124 0e28 00       		.byte	0
 2125 0e29 00       		.byte	0
 2126 0e2a 2A       		.uleb128 0x2a
 2127 0e2b 9F020000 		.4byte	.LASF203
 2128 0e2f 01       		.byte	0x1
 2129 0e30 8E       		.byte	0x8e
 2130 0e31 64000000 		.4byte	.LFB73
 2131 0e35 28000000 		.4byte	.LFE73-.LFB73
ARM GAS  /tmp/ccNHoAC7.s 			page 42


 2132 0e39 01       		.uleb128 0x1
 2133 0e3a 9C       		.byte	0x9c
 2134 0e3b 740E0000 		.4byte	0xe74
 2135 0e3f 2B       		.uleb128 0x2b
 2136 0e40 6E000000 		.4byte	.LVL7
 2137 0e44 FD0F0000 		.4byte	0xffd
 2138 0e48 5B0E0000 		.4byte	0xe5b
 2139 0e4c 2C       		.uleb128 0x2c
 2140 0e4d 01       		.uleb128 0x1
 2141 0e4e 50       		.byte	0x50
 2142 0e4f 05       		.uleb128 0x5
 2143 0e50 0C       		.byte	0xc
 2144 0e51 00040040 		.4byte	0x40000400
 2145 0e55 2C       		.uleb128 0x2c
 2146 0e56 01       		.uleb128 0x1
 2147 0e57 51       		.byte	0x51
 2148 0e58 01       		.uleb128 0x1
 2149 0e59 31       		.byte	0x31
 2150 0e5a 00       		.byte	0
 2151 0e5b 2D       		.uleb128 0x2d
 2152 0e5c 7A000000 		.4byte	.LVL8
 2153 0e60 09100000 		.4byte	0x1009
 2154 0e64 2C       		.uleb128 0x2c
 2155 0e65 01       		.uleb128 0x1
 2156 0e66 50       		.byte	0x50
 2157 0e67 05       		.uleb128 0x5
 2158 0e68 0C       		.byte	0xc
 2159 0e69 00040040 		.4byte	0x40000400
 2160 0e6d 2C       		.uleb128 0x2c
 2161 0e6e 01       		.uleb128 0x1
 2162 0e6f 51       		.byte	0x51
 2163 0e70 01       		.uleb128 0x1
 2164 0e71 31       		.byte	0x31
 2165 0e72 00       		.byte	0
 2166 0e73 00       		.byte	0
 2167 0e74 2A       		.uleb128 0x2a
 2168 0e75 6D040000 		.4byte	.LASF204
 2169 0e79 01       		.byte	0x1
 2170 0e7a 84       		.byte	0x84
 2171 0e7b 3C000000 		.4byte	.LFB72
 2172 0e7f 28000000 		.4byte	.LFE72-.LFB72
 2173 0e83 01       		.uleb128 0x1
 2174 0e84 9C       		.byte	0x9c
 2175 0e85 BA0E0000 		.4byte	0xeba
 2176 0e89 2B       		.uleb128 0x2b
 2177 0e8a 48000000 		.4byte	.LVL5
 2178 0e8e FD0F0000 		.4byte	0xffd
 2179 0e92 A30E0000 		.4byte	0xea3
 2180 0e96 2C       		.uleb128 0x2c
 2181 0e97 01       		.uleb128 0x1
 2182 0e98 50       		.byte	0x50
 2183 0e99 03       		.uleb128 0x3
 2184 0e9a 40       		.byte	0x40
 2185 0e9b 4A       		.byte	0x4a
 2186 0e9c 24       		.byte	0x24
 2187 0e9d 2C       		.uleb128 0x2c
 2188 0e9e 01       		.uleb128 0x1
ARM GAS  /tmp/ccNHoAC7.s 			page 43


 2189 0e9f 51       		.byte	0x51
 2190 0ea0 01       		.uleb128 0x1
 2191 0ea1 31       		.byte	0x31
 2192 0ea2 00       		.byte	0
 2193 0ea3 2D       		.uleb128 0x2d
 2194 0ea4 56000000 		.4byte	.LVL6
 2195 0ea8 09100000 		.4byte	0x1009
 2196 0eac 2C       		.uleb128 0x2c
 2197 0ead 01       		.uleb128 0x1
 2198 0eae 50       		.byte	0x50
 2199 0eaf 03       		.uleb128 0x3
 2200 0eb0 40       		.byte	0x40
 2201 0eb1 4A       		.byte	0x4a
 2202 0eb2 24       		.byte	0x24
 2203 0eb3 2C       		.uleb128 0x2c
 2204 0eb4 01       		.uleb128 0x1
 2205 0eb5 51       		.byte	0x51
 2206 0eb6 01       		.uleb128 0x1
 2207 0eb7 31       		.byte	0x31
 2208 0eb8 00       		.byte	0
 2209 0eb9 00       		.byte	0
 2210 0eba 2E       		.uleb128 0x2e
 2211 0ebb 97010000 		.4byte	.LASF205
 2212 0ebf 01       		.byte	0x1
 2213 0ec0 7C       		.byte	0x7c
 2214 0ec1 3A000000 		.4byte	.LFB71
 2215 0ec5 02000000 		.4byte	.LFE71-.LFB71
 2216 0ec9 01       		.uleb128 0x1
 2217 0eca 9C       		.byte	0x9c
 2218 0ecb 2E       		.uleb128 0x2e
 2219 0ecc 47050000 		.4byte	.LASF206
 2220 0ed0 01       		.byte	0x1
 2221 0ed1 73       		.byte	0x73
 2222 0ed2 38000000 		.4byte	.LFB70
 2223 0ed6 02000000 		.4byte	.LFE70-.LFB70
 2224 0eda 01       		.uleb128 0x1
 2225 0edb 9C       		.byte	0x9c
 2226 0edc 2E       		.uleb128 0x2e
 2227 0edd 86010000 		.4byte	.LASF207
 2228 0ee1 01       		.byte	0x1
 2229 0ee2 6A       		.byte	0x6a
 2230 0ee3 36000000 		.4byte	.LFB69
 2231 0ee7 02000000 		.4byte	.LFE69-.LFB69
 2232 0eeb 01       		.uleb128 0x1
 2233 0eec 9C       		.byte	0x9c
 2234 0eed 2E       		.uleb128 0x2e
 2235 0eee D4080000 		.4byte	.LASF208
 2236 0ef2 01       		.byte	0x1
 2237 0ef3 61       		.byte	0x61
 2238 0ef4 34000000 		.4byte	.LFB68
 2239 0ef8 02000000 		.4byte	.LFE68-.LFB68
 2240 0efc 01       		.uleb128 0x1
 2241 0efd 9C       		.byte	0x9c
 2242 0efe 2E       		.uleb128 0x2e
 2243 0eff 0F080000 		.4byte	.LASF209
 2244 0f03 01       		.byte	0x1
 2245 0f04 54       		.byte	0x54
ARM GAS  /tmp/ccNHoAC7.s 			page 44


 2246 0f05 32000000 		.4byte	.LFB67
 2247 0f09 02000000 		.4byte	.LFE67-.LFB67
 2248 0f0d 01       		.uleb128 0x1
 2249 0f0e 9C       		.byte	0x9c
 2250 0f0f 2E       		.uleb128 0x2e
 2251 0f10 EA080000 		.4byte	.LASF210
 2252 0f14 01       		.byte	0x1
 2253 0f15 47       		.byte	0x47
 2254 0f16 30000000 		.4byte	.LFB66
 2255 0f1a 02000000 		.4byte	.LFE66-.LFB66
 2256 0f1e 01       		.uleb128 0x1
 2257 0f1f 9C       		.byte	0x9c
 2258 0f20 2E       		.uleb128 0x2e
 2259 0f21 38080000 		.4byte	.LASF211
 2260 0f25 01       		.byte	0x1
 2261 0f26 3A       		.byte	0x3a
 2262 0f27 2E000000 		.4byte	.LFB65
 2263 0f2b 02000000 		.4byte	.LFE65-.LFB65
 2264 0f2f 01       		.uleb128 0x1
 2265 0f30 9C       		.byte	0x9c
 2266 0f31 2E       		.uleb128 0x2e
 2267 0f32 B8050000 		.4byte	.LASF212
 2268 0f36 01       		.byte	0x1
 2269 0f37 2D       		.byte	0x2d
 2270 0f38 2C000000 		.4byte	.LFB64
 2271 0f3c 02000000 		.4byte	.LFE64-.LFB64
 2272 0f40 01       		.uleb128 0x1
 2273 0f41 9C       		.byte	0x9c
 2274 0f42 2A       		.uleb128 0x2a
 2275 0f43 2C080000 		.4byte	.LASF213
 2276 0f47 01       		.byte	0x1
 2277 0f48 07       		.byte	0x7
 2278 0f49 00000000 		.4byte	.LFB63
 2279 0f4d 2C000000 		.4byte	.LFE63-.LFB63
 2280 0f51 01       		.uleb128 0x1
 2281 0f52 9C       		.byte	0x9c
 2282 0f53 C10F0000 		.4byte	0xfc1
 2283 0f57 2B       		.uleb128 0x2b
 2284 0f58 08000000 		.4byte	.LVL0
 2285 0f5c C10F0000 		.4byte	0xfc1
 2286 0f60 6B0F0000 		.4byte	0xf6b
 2287 0f64 2C       		.uleb128 0x2c
 2288 0f65 01       		.uleb128 0x1
 2289 0f66 50       		.byte	0x50
 2290 0f67 02       		.uleb128 0x2
 2291 0f68 09       		.byte	0x9
 2292 0f69 80       		.byte	0x80
 2293 0f6a 00       		.byte	0
 2294 0f6b 2B       		.uleb128 0x2b
 2295 0f6c 14000000 		.4byte	.LVL1
 2296 0f70 15100000 		.4byte	0x1015
 2297 0f74 800F0000 		.4byte	0xf80
 2298 0f78 2C       		.uleb128 0x2c
 2299 0f79 01       		.uleb128 0x1
 2300 0f7a 50       		.byte	0x50
 2301 0f7b 03       		.uleb128 0x3
 2302 0f7c 40       		.byte	0x40
ARM GAS  /tmp/ccNHoAC7.s 			page 45


 2303 0f7d 3C       		.byte	0x3c
 2304 0f7e 24       		.byte	0x24
 2305 0f7f 00       		.byte	0
 2306 0f80 2B       		.uleb128 0x2b
 2307 0f81 1C000000 		.4byte	.LVL2
 2308 0f85 21100000 		.4byte	0x1021
 2309 0f89 980F0000 		.4byte	0xf98
 2310 0f8d 2C       		.uleb128 0x2c
 2311 0f8e 01       		.uleb128 0x1
 2312 0f8f 50       		.byte	0x50
 2313 0f90 01       		.uleb128 0x1
 2314 0f91 38       		.byte	0x38
 2315 0f92 2C       		.uleb128 0x2c
 2316 0f93 01       		.uleb128 0x1
 2317 0f94 51       		.byte	0x51
 2318 0f95 01       		.uleb128 0x1
 2319 0f96 31       		.byte	0x31
 2320 0f97 00       		.byte	0
 2321 0f98 2B       		.uleb128 0x2b
 2322 0f99 24000000 		.4byte	.LVL3
 2323 0f9d 21100000 		.4byte	0x1021
 2324 0fa1 B00F0000 		.4byte	0xfb0
 2325 0fa5 2C       		.uleb128 0x2c
 2326 0fa6 01       		.uleb128 0x1
 2327 0fa7 50       		.byte	0x50
 2328 0fa8 01       		.uleb128 0x1
 2329 0fa9 40       		.byte	0x40
 2330 0faa 2C       		.uleb128 0x2c
 2331 0fab 01       		.uleb128 0x1
 2332 0fac 51       		.byte	0x51
 2333 0fad 01       		.uleb128 0x1
 2334 0fae 31       		.byte	0x31
 2335 0faf 00       		.byte	0
 2336 0fb0 2D       		.uleb128 0x2d
 2337 0fb1 2A000000 		.4byte	.LVL4
 2338 0fb5 CD0F0000 		.4byte	0xfcd
 2339 0fb9 2C       		.uleb128 0x2c
 2340 0fba 01       		.uleb128 0x1
 2341 0fbb 50       		.byte	0x50
 2342 0fbc 02       		.uleb128 0x2
 2343 0fbd 09       		.byte	0x9
 2344 0fbe 80       		.byte	0x80
 2345 0fbf 00       		.byte	0
 2346 0fc0 00       		.byte	0
 2347 0fc1 2F       		.uleb128 0x2f
 2348 0fc2 21050000 		.4byte	.LASF214
 2349 0fc6 21050000 		.4byte	.LASF214
 2350 0fca 11       		.byte	0x11
 2351 0fcb C302     		.2byte	0x2c3
 2352 0fcd 2F       		.uleb128 0x2f
 2353 0fce 56050000 		.4byte	.LASF215
 2354 0fd2 56050000 		.4byte	.LASF215
 2355 0fd6 11       		.byte	0x11
 2356 0fd7 C402     		.2byte	0x2c4
 2357 0fd9 2F       		.uleb128 0x2f
 2358 0fda B7040000 		.4byte	.LASF216
 2359 0fde B7040000 		.4byte	.LASF216
ARM GAS  /tmp/ccNHoAC7.s 			page 46


 2360 0fe2 11       		.byte	0x11
 2361 0fe3 C102     		.2byte	0x2c1
 2362 0fe5 2F       		.uleb128 0x2f
 2363 0fe6 33060000 		.4byte	.LASF217
 2364 0fea 33060000 		.4byte	.LASF217
 2365 0fee 11       		.byte	0x11
 2366 0fef 8D02     		.2byte	0x28d
 2367 0ff1 2F       		.uleb128 0x2f
 2368 0ff2 34090000 		.4byte	.LASF218
 2369 0ff6 34090000 		.4byte	.LASF218
 2370 0ffa 11       		.byte	0x11
 2371 0ffb 9B02     		.2byte	0x29b
 2372 0ffd 2F       		.uleb128 0x2f
 2373 0ffe 40000000 		.4byte	.LASF219
 2374 1002 40000000 		.4byte	.LASF219
 2375 1006 12       		.byte	0x12
 2376 1007 7804     		.2byte	0x478
 2377 1009 2F       		.uleb128 0x2f
 2378 100a F0070000 		.4byte	.LASF220
 2379 100e F0070000 		.4byte	.LASF220
 2380 1012 12       		.byte	0x12
 2381 1013 7904     		.2byte	0x479
 2382 1015 2F       		.uleb128 0x2f
 2383 1016 FB020000 		.4byte	.LASF221
 2384 101a FB020000 		.4byte	.LASF221
 2385 101e 11       		.byte	0x11
 2386 101f 8802     		.2byte	0x288
 2387 1021 2F       		.uleb128 0x2f
 2388 1022 D9040000 		.4byte	.LASF222
 2389 1026 D9040000 		.4byte	.LASF222
 2390 102a 11       		.byte	0x11
 2391 102b A002     		.2byte	0x2a0
 2392 102d 00       		.byte	0
 2393              		.section	.debug_abbrev,"",%progbits
 2394              	.Ldebug_abbrev0:
 2395 0000 01       		.uleb128 0x1
 2396 0001 11       		.uleb128 0x11
 2397 0002 01       		.byte	0x1
 2398 0003 25       		.uleb128 0x25
 2399 0004 0E       		.uleb128 0xe
 2400 0005 13       		.uleb128 0x13
 2401 0006 0B       		.uleb128 0xb
 2402 0007 03       		.uleb128 0x3
 2403 0008 0E       		.uleb128 0xe
 2404 0009 1B       		.uleb128 0x1b
 2405 000a 0E       		.uleb128 0xe
 2406 000b 11       		.uleb128 0x11
 2407 000c 01       		.uleb128 0x1
 2408 000d 12       		.uleb128 0x12
 2409 000e 06       		.uleb128 0x6
 2410 000f 10       		.uleb128 0x10
 2411 0010 17       		.uleb128 0x17
 2412 0011 00       		.byte	0
 2413 0012 00       		.byte	0
 2414 0013 02       		.uleb128 0x2
 2415 0014 24       		.uleb128 0x24
 2416 0015 00       		.byte	0
ARM GAS  /tmp/ccNHoAC7.s 			page 47


 2417 0016 0B       		.uleb128 0xb
 2418 0017 0B       		.uleb128 0xb
 2419 0018 3E       		.uleb128 0x3e
 2420 0019 0B       		.uleb128 0xb
 2421 001a 03       		.uleb128 0x3
 2422 001b 0E       		.uleb128 0xe
 2423 001c 00       		.byte	0
 2424 001d 00       		.byte	0
 2425 001e 03       		.uleb128 0x3
 2426 001f 16       		.uleb128 0x16
 2427 0020 00       		.byte	0
 2428 0021 03       		.uleb128 0x3
 2429 0022 0E       		.uleb128 0xe
 2430 0023 3A       		.uleb128 0x3a
 2431 0024 0B       		.uleb128 0xb
 2432 0025 3B       		.uleb128 0x3b
 2433 0026 0B       		.uleb128 0xb
 2434 0027 49       		.uleb128 0x49
 2435 0028 13       		.uleb128 0x13
 2436 0029 00       		.byte	0
 2437 002a 00       		.byte	0
 2438 002b 04       		.uleb128 0x4
 2439 002c 24       		.uleb128 0x24
 2440 002d 00       		.byte	0
 2441 002e 0B       		.uleb128 0xb
 2442 002f 0B       		.uleb128 0xb
 2443 0030 3E       		.uleb128 0x3e
 2444 0031 0B       		.uleb128 0xb
 2445 0032 03       		.uleb128 0x3
 2446 0033 08       		.uleb128 0x8
 2447 0034 00       		.byte	0
 2448 0035 00       		.byte	0
 2449 0036 05       		.uleb128 0x5
 2450 0037 35       		.uleb128 0x35
 2451 0038 00       		.byte	0
 2452 0039 49       		.uleb128 0x49
 2453 003a 13       		.uleb128 0x13
 2454 003b 00       		.byte	0
 2455 003c 00       		.byte	0
 2456 003d 06       		.uleb128 0x6
 2457 003e 34       		.uleb128 0x34
 2458 003f 00       		.byte	0
 2459 0040 03       		.uleb128 0x3
 2460 0041 0E       		.uleb128 0xe
 2461 0042 3A       		.uleb128 0x3a
 2462 0043 0B       		.uleb128 0xb
 2463 0044 3B       		.uleb128 0x3b
 2464 0045 05       		.uleb128 0x5
 2465 0046 49       		.uleb128 0x49
 2466 0047 13       		.uleb128 0x13
 2467 0048 3F       		.uleb128 0x3f
 2468 0049 19       		.uleb128 0x19
 2469 004a 3C       		.uleb128 0x3c
 2470 004b 19       		.uleb128 0x19
 2471 004c 00       		.byte	0
 2472 004d 00       		.byte	0
 2473 004e 07       		.uleb128 0x7
ARM GAS  /tmp/ccNHoAC7.s 			page 48


 2474 004f 34       		.uleb128 0x34
 2475 0050 00       		.byte	0
 2476 0051 03       		.uleb128 0x3
 2477 0052 0E       		.uleb128 0xe
 2478 0053 3A       		.uleb128 0x3a
 2479 0054 0B       		.uleb128 0xb
 2480 0055 3B       		.uleb128 0x3b
 2481 0056 0B       		.uleb128 0xb
 2482 0057 49       		.uleb128 0x49
 2483 0058 13       		.uleb128 0x13
 2484 0059 3F       		.uleb128 0x3f
 2485 005a 19       		.uleb128 0x19
 2486 005b 3C       		.uleb128 0x3c
 2487 005c 19       		.uleb128 0x19
 2488 005d 00       		.byte	0
 2489 005e 00       		.byte	0
 2490 005f 08       		.uleb128 0x8
 2491 0060 04       		.uleb128 0x4
 2492 0061 01       		.byte	0x1
 2493 0062 0B       		.uleb128 0xb
 2494 0063 0B       		.uleb128 0xb
 2495 0064 49       		.uleb128 0x49
 2496 0065 13       		.uleb128 0x13
 2497 0066 3A       		.uleb128 0x3a
 2498 0067 0B       		.uleb128 0xb
 2499 0068 3B       		.uleb128 0x3b
 2500 0069 05       		.uleb128 0x5
 2501 006a 01       		.uleb128 0x1
 2502 006b 13       		.uleb128 0x13
 2503 006c 00       		.byte	0
 2504 006d 00       		.byte	0
 2505 006e 09       		.uleb128 0x9
 2506 006f 28       		.uleb128 0x28
 2507 0070 00       		.byte	0
 2508 0071 03       		.uleb128 0x3
 2509 0072 0E       		.uleb128 0xe
 2510 0073 1C       		.uleb128 0x1c
 2511 0074 0B       		.uleb128 0xb
 2512 0075 00       		.byte	0
 2513 0076 00       		.byte	0
 2514 0077 0A       		.uleb128 0xa
 2515 0078 28       		.uleb128 0x28
 2516 0079 00       		.byte	0
 2517 007a 03       		.uleb128 0x3
 2518 007b 08       		.uleb128 0x8
 2519 007c 1C       		.uleb128 0x1c
 2520 007d 0B       		.uleb128 0xb
 2521 007e 00       		.byte	0
 2522 007f 00       		.byte	0
 2523 0080 0B       		.uleb128 0xb
 2524 0081 13       		.uleb128 0x13
 2525 0082 01       		.byte	0x1
 2526 0083 0B       		.uleb128 0xb
 2527 0084 0B       		.uleb128 0xb
 2528 0085 3A       		.uleb128 0x3a
 2529 0086 0B       		.uleb128 0xb
 2530 0087 3B       		.uleb128 0x3b
ARM GAS  /tmp/ccNHoAC7.s 			page 49


 2531 0088 05       		.uleb128 0x5
 2532 0089 01       		.uleb128 0x1
 2533 008a 13       		.uleb128 0x13
 2534 008b 00       		.byte	0
 2535 008c 00       		.byte	0
 2536 008d 0C       		.uleb128 0xc
 2537 008e 0D       		.uleb128 0xd
 2538 008f 00       		.byte	0
 2539 0090 03       		.uleb128 0x3
 2540 0091 08       		.uleb128 0x8
 2541 0092 3A       		.uleb128 0x3a
 2542 0093 0B       		.uleb128 0xb
 2543 0094 3B       		.uleb128 0x3b
 2544 0095 05       		.uleb128 0x5
 2545 0096 49       		.uleb128 0x49
 2546 0097 13       		.uleb128 0x13
 2547 0098 38       		.uleb128 0x38
 2548 0099 0B       		.uleb128 0xb
 2549 009a 00       		.byte	0
 2550 009b 00       		.byte	0
 2551 009c 0D       		.uleb128 0xd
 2552 009d 0D       		.uleb128 0xd
 2553 009e 00       		.byte	0
 2554 009f 03       		.uleb128 0x3
 2555 00a0 0E       		.uleb128 0xe
 2556 00a1 3A       		.uleb128 0x3a
 2557 00a2 0B       		.uleb128 0xb
 2558 00a3 3B       		.uleb128 0x3b
 2559 00a4 05       		.uleb128 0x5
 2560 00a5 49       		.uleb128 0x49
 2561 00a6 13       		.uleb128 0x13
 2562 00a7 38       		.uleb128 0x38
 2563 00a8 0B       		.uleb128 0xb
 2564 00a9 00       		.byte	0
 2565 00aa 00       		.byte	0
 2566 00ab 0E       		.uleb128 0xe
 2567 00ac 16       		.uleb128 0x16
 2568 00ad 00       		.byte	0
 2569 00ae 03       		.uleb128 0x3
 2570 00af 0E       		.uleb128 0xe
 2571 00b0 3A       		.uleb128 0x3a
 2572 00b1 0B       		.uleb128 0xb
 2573 00b2 3B       		.uleb128 0x3b
 2574 00b3 05       		.uleb128 0x5
 2575 00b4 49       		.uleb128 0x49
 2576 00b5 13       		.uleb128 0x13
 2577 00b6 00       		.byte	0
 2578 00b7 00       		.byte	0
 2579 00b8 0F       		.uleb128 0xf
 2580 00b9 34       		.uleb128 0x34
 2581 00ba 00       		.byte	0
 2582 00bb 03       		.uleb128 0x3
 2583 00bc 08       		.uleb128 0x8
 2584 00bd 3A       		.uleb128 0x3a
 2585 00be 0B       		.uleb128 0xb
 2586 00bf 3B       		.uleb128 0x3b
 2587 00c0 0B       		.uleb128 0xb
ARM GAS  /tmp/ccNHoAC7.s 			page 50


 2588 00c1 49       		.uleb128 0x49
 2589 00c2 13       		.uleb128 0x13
 2590 00c3 3F       		.uleb128 0x3f
 2591 00c4 19       		.uleb128 0x19
 2592 00c5 3C       		.uleb128 0x3c
 2593 00c6 19       		.uleb128 0x19
 2594 00c7 00       		.byte	0
 2595 00c8 00       		.byte	0
 2596 00c9 10       		.uleb128 0x10
 2597 00ca 01       		.uleb128 0x1
 2598 00cb 01       		.byte	0x1
 2599 00cc 49       		.uleb128 0x49
 2600 00cd 13       		.uleb128 0x13
 2601 00ce 01       		.uleb128 0x1
 2602 00cf 13       		.uleb128 0x13
 2603 00d0 00       		.byte	0
 2604 00d1 00       		.byte	0
 2605 00d2 11       		.uleb128 0x11
 2606 00d3 21       		.uleb128 0x21
 2607 00d4 00       		.byte	0
 2608 00d5 49       		.uleb128 0x49
 2609 00d6 13       		.uleb128 0x13
 2610 00d7 2F       		.uleb128 0x2f
 2611 00d8 0B       		.uleb128 0xb
 2612 00d9 00       		.byte	0
 2613 00da 00       		.byte	0
 2614 00db 12       		.uleb128 0x12
 2615 00dc 17       		.uleb128 0x17
 2616 00dd 01       		.byte	0x1
 2617 00de 0B       		.uleb128 0xb
 2618 00df 0B       		.uleb128 0xb
 2619 00e0 3A       		.uleb128 0x3a
 2620 00e1 0B       		.uleb128 0xb
 2621 00e2 3B       		.uleb128 0x3b
 2622 00e3 0B       		.uleb128 0xb
 2623 00e4 01       		.uleb128 0x1
 2624 00e5 13       		.uleb128 0x13
 2625 00e6 00       		.byte	0
 2626 00e7 00       		.byte	0
 2627 00e8 13       		.uleb128 0x13
 2628 00e9 0D       		.uleb128 0xd
 2629 00ea 00       		.byte	0
 2630 00eb 03       		.uleb128 0x3
 2631 00ec 0E       		.uleb128 0xe
 2632 00ed 3A       		.uleb128 0x3a
 2633 00ee 0B       		.uleb128 0xb
 2634 00ef 3B       		.uleb128 0x3b
 2635 00f0 0B       		.uleb128 0xb
 2636 00f1 49       		.uleb128 0x49
 2637 00f2 13       		.uleb128 0x13
 2638 00f3 00       		.byte	0
 2639 00f4 00       		.byte	0
 2640 00f5 14       		.uleb128 0x14
 2641 00f6 13       		.uleb128 0x13
 2642 00f7 01       		.byte	0x1
 2643 00f8 0B       		.uleb128 0xb
 2644 00f9 0B       		.uleb128 0xb
ARM GAS  /tmp/ccNHoAC7.s 			page 51


 2645 00fa 3A       		.uleb128 0x3a
 2646 00fb 0B       		.uleb128 0xb
 2647 00fc 3B       		.uleb128 0x3b
 2648 00fd 0B       		.uleb128 0xb
 2649 00fe 01       		.uleb128 0x1
 2650 00ff 13       		.uleb128 0x13
 2651 0100 00       		.byte	0
 2652 0101 00       		.byte	0
 2653 0102 15       		.uleb128 0x15
 2654 0103 0D       		.uleb128 0xd
 2655 0104 00       		.byte	0
 2656 0105 03       		.uleb128 0x3
 2657 0106 0E       		.uleb128 0xe
 2658 0107 3A       		.uleb128 0x3a
 2659 0108 0B       		.uleb128 0xb
 2660 0109 3B       		.uleb128 0x3b
 2661 010a 0B       		.uleb128 0xb
 2662 010b 49       		.uleb128 0x49
 2663 010c 13       		.uleb128 0x13
 2664 010d 38       		.uleb128 0x38
 2665 010e 0B       		.uleb128 0xb
 2666 010f 00       		.byte	0
 2667 0110 00       		.byte	0
 2668 0111 16       		.uleb128 0x16
 2669 0112 0F       		.uleb128 0xf
 2670 0113 00       		.byte	0
 2671 0114 0B       		.uleb128 0xb
 2672 0115 0B       		.uleb128 0xb
 2673 0116 00       		.byte	0
 2674 0117 00       		.byte	0
 2675 0118 17       		.uleb128 0x17
 2676 0119 0F       		.uleb128 0xf
 2677 011a 00       		.byte	0
 2678 011b 0B       		.uleb128 0xb
 2679 011c 0B       		.uleb128 0xb
 2680 011d 49       		.uleb128 0x49
 2681 011e 13       		.uleb128 0x13
 2682 011f 00       		.byte	0
 2683 0120 00       		.byte	0
 2684 0121 18       		.uleb128 0x18
 2685 0122 26       		.uleb128 0x26
 2686 0123 00       		.byte	0
 2687 0124 49       		.uleb128 0x49
 2688 0125 13       		.uleb128 0x13
 2689 0126 00       		.byte	0
 2690 0127 00       		.byte	0
 2691 0128 19       		.uleb128 0x19
 2692 0129 13       		.uleb128 0x13
 2693 012a 01       		.byte	0x1
 2694 012b 03       		.uleb128 0x3
 2695 012c 0E       		.uleb128 0xe
 2696 012d 0B       		.uleb128 0xb
 2697 012e 0B       		.uleb128 0xb
 2698 012f 3A       		.uleb128 0x3a
 2699 0130 0B       		.uleb128 0xb
 2700 0131 3B       		.uleb128 0x3b
 2701 0132 0B       		.uleb128 0xb
ARM GAS  /tmp/ccNHoAC7.s 			page 52


 2702 0133 01       		.uleb128 0x1
 2703 0134 13       		.uleb128 0x13
 2704 0135 00       		.byte	0
 2705 0136 00       		.byte	0
 2706 0137 1A       		.uleb128 0x1a
 2707 0138 0D       		.uleb128 0xd
 2708 0139 00       		.byte	0
 2709 013a 03       		.uleb128 0x3
 2710 013b 08       		.uleb128 0x8
 2711 013c 3A       		.uleb128 0x3a
 2712 013d 0B       		.uleb128 0xb
 2713 013e 3B       		.uleb128 0x3b
 2714 013f 0B       		.uleb128 0xb
 2715 0140 49       		.uleb128 0x49
 2716 0141 13       		.uleb128 0x13
 2717 0142 38       		.uleb128 0x38
 2718 0143 0B       		.uleb128 0xb
 2719 0144 00       		.byte	0
 2720 0145 00       		.byte	0
 2721 0146 1B       		.uleb128 0x1b
 2722 0147 13       		.uleb128 0x13
 2723 0148 01       		.byte	0x1
 2724 0149 03       		.uleb128 0x3
 2725 014a 0E       		.uleb128 0xe
 2726 014b 0B       		.uleb128 0xb
 2727 014c 05       		.uleb128 0x5
 2728 014d 3A       		.uleb128 0x3a
 2729 014e 0B       		.uleb128 0xb
 2730 014f 3B       		.uleb128 0x3b
 2731 0150 0B       		.uleb128 0xb
 2732 0151 01       		.uleb128 0x1
 2733 0152 13       		.uleb128 0x13
 2734 0153 00       		.byte	0
 2735 0154 00       		.byte	0
 2736 0155 1C       		.uleb128 0x1c
 2737 0156 0D       		.uleb128 0xd
 2738 0157 00       		.byte	0
 2739 0158 03       		.uleb128 0x3
 2740 0159 0E       		.uleb128 0xe
 2741 015a 3A       		.uleb128 0x3a
 2742 015b 0B       		.uleb128 0xb
 2743 015c 3B       		.uleb128 0x3b
 2744 015d 0B       		.uleb128 0xb
 2745 015e 49       		.uleb128 0x49
 2746 015f 13       		.uleb128 0x13
 2747 0160 38       		.uleb128 0x38
 2748 0161 05       		.uleb128 0x5
 2749 0162 00       		.byte	0
 2750 0163 00       		.byte	0
 2751 0164 1D       		.uleb128 0x1d
 2752 0165 15       		.uleb128 0x15
 2753 0166 00       		.byte	0
 2754 0167 27       		.uleb128 0x27
 2755 0168 19       		.uleb128 0x19
 2756 0169 00       		.byte	0
 2757 016a 00       		.byte	0
 2758 016b 1E       		.uleb128 0x1e
ARM GAS  /tmp/ccNHoAC7.s 			page 53


 2759 016c 15       		.uleb128 0x15
 2760 016d 01       		.byte	0x1
 2761 016e 27       		.uleb128 0x27
 2762 016f 19       		.uleb128 0x19
 2763 0170 49       		.uleb128 0x49
 2764 0171 13       		.uleb128 0x13
 2765 0172 01       		.uleb128 0x1
 2766 0173 13       		.uleb128 0x13
 2767 0174 00       		.byte	0
 2768 0175 00       		.byte	0
 2769 0176 1F       		.uleb128 0x1f
 2770 0177 05       		.uleb128 0x5
 2771 0178 00       		.byte	0
 2772 0179 49       		.uleb128 0x49
 2773 017a 13       		.uleb128 0x13
 2774 017b 00       		.byte	0
 2775 017c 00       		.byte	0
 2776 017d 20       		.uleb128 0x20
 2777 017e 13       		.uleb128 0x13
 2778 017f 01       		.byte	0x1
 2779 0180 03       		.uleb128 0x3
 2780 0181 0E       		.uleb128 0xe
 2781 0182 0B       		.uleb128 0xb
 2782 0183 05       		.uleb128 0x5
 2783 0184 3A       		.uleb128 0x3a
 2784 0185 0B       		.uleb128 0xb
 2785 0186 3B       		.uleb128 0x3b
 2786 0187 05       		.uleb128 0x5
 2787 0188 01       		.uleb128 0x1
 2788 0189 13       		.uleb128 0x13
 2789 018a 00       		.byte	0
 2790 018b 00       		.byte	0
 2791 018c 21       		.uleb128 0x21
 2792 018d 0D       		.uleb128 0xd
 2793 018e 00       		.byte	0
 2794 018f 03       		.uleb128 0x3
 2795 0190 0E       		.uleb128 0xe
 2796 0191 3A       		.uleb128 0x3a
 2797 0192 0B       		.uleb128 0xb
 2798 0193 3B       		.uleb128 0x3b
 2799 0194 05       		.uleb128 0x5
 2800 0195 49       		.uleb128 0x49
 2801 0196 13       		.uleb128 0x13
 2802 0197 38       		.uleb128 0x38
 2803 0198 05       		.uleb128 0x5
 2804 0199 00       		.byte	0
 2805 019a 00       		.byte	0
 2806 019b 22       		.uleb128 0x22
 2807 019c 13       		.uleb128 0x13
 2808 019d 01       		.byte	0x1
 2809 019e 03       		.uleb128 0x3
 2810 019f 0E       		.uleb128 0xe
 2811 01a0 0B       		.uleb128 0xb
 2812 01a1 0B       		.uleb128 0xb
 2813 01a2 3A       		.uleb128 0x3a
 2814 01a3 0B       		.uleb128 0xb
 2815 01a4 3B       		.uleb128 0x3b
ARM GAS  /tmp/ccNHoAC7.s 			page 54


 2816 01a5 05       		.uleb128 0x5
 2817 01a6 01       		.uleb128 0x1
 2818 01a7 13       		.uleb128 0x13
 2819 01a8 00       		.byte	0
 2820 01a9 00       		.byte	0
 2821 01aa 23       		.uleb128 0x23
 2822 01ab 17       		.uleb128 0x17
 2823 01ac 01       		.byte	0x1
 2824 01ad 0B       		.uleb128 0xb
 2825 01ae 0B       		.uleb128 0xb
 2826 01af 3A       		.uleb128 0x3a
 2827 01b0 0B       		.uleb128 0xb
 2828 01b1 3B       		.uleb128 0x3b
 2829 01b2 05       		.uleb128 0x5
 2830 01b3 01       		.uleb128 0x1
 2831 01b4 13       		.uleb128 0x13
 2832 01b5 00       		.byte	0
 2833 01b6 00       		.byte	0
 2834 01b7 24       		.uleb128 0x24
 2835 01b8 0D       		.uleb128 0xd
 2836 01b9 00       		.byte	0
 2837 01ba 03       		.uleb128 0x3
 2838 01bb 0E       		.uleb128 0xe
 2839 01bc 3A       		.uleb128 0x3a
 2840 01bd 0B       		.uleb128 0xb
 2841 01be 3B       		.uleb128 0x3b
 2842 01bf 05       		.uleb128 0x5
 2843 01c0 49       		.uleb128 0x49
 2844 01c1 13       		.uleb128 0x13
 2845 01c2 00       		.byte	0
 2846 01c3 00       		.byte	0
 2847 01c4 25       		.uleb128 0x25
 2848 01c5 15       		.uleb128 0x15
 2849 01c6 01       		.byte	0x1
 2850 01c7 27       		.uleb128 0x27
 2851 01c8 19       		.uleb128 0x19
 2852 01c9 01       		.uleb128 0x1
 2853 01ca 13       		.uleb128 0x13
 2854 01cb 00       		.byte	0
 2855 01cc 00       		.byte	0
 2856 01cd 26       		.uleb128 0x26
 2857 01ce 04       		.uleb128 0x4
 2858 01cf 01       		.byte	0x1
 2859 01d0 03       		.uleb128 0x3
 2860 01d1 0E       		.uleb128 0xe
 2861 01d2 0B       		.uleb128 0xb
 2862 01d3 0B       		.uleb128 0xb
 2863 01d4 49       		.uleb128 0x49
 2864 01d5 13       		.uleb128 0x13
 2865 01d6 3A       		.uleb128 0x3a
 2866 01d7 0B       		.uleb128 0xb
 2867 01d8 3B       		.uleb128 0x3b
 2868 01d9 05       		.uleb128 0x5
 2869 01da 01       		.uleb128 0x1
 2870 01db 13       		.uleb128 0x13
 2871 01dc 00       		.byte	0
 2872 01dd 00       		.byte	0
ARM GAS  /tmp/ccNHoAC7.s 			page 55


 2873 01de 27       		.uleb128 0x27
 2874 01df 28       		.uleb128 0x28
 2875 01e0 00       		.byte	0
 2876 01e1 03       		.uleb128 0x3
 2877 01e2 0E       		.uleb128 0xe
 2878 01e3 1C       		.uleb128 0x1c
 2879 01e4 0D       		.uleb128 0xd
 2880 01e5 00       		.byte	0
 2881 01e6 00       		.byte	0
 2882 01e7 28       		.uleb128 0x28
 2883 01e8 21       		.uleb128 0x21
 2884 01e9 00       		.byte	0
 2885 01ea 00       		.byte	0
 2886 01eb 00       		.byte	0
 2887 01ec 29       		.uleb128 0x29
 2888 01ed 34       		.uleb128 0x34
 2889 01ee 00       		.byte	0
 2890 01ef 47       		.uleb128 0x47
 2891 01f0 13       		.uleb128 0x13
 2892 01f1 3A       		.uleb128 0x3a
 2893 01f2 0B       		.uleb128 0xb
 2894 01f3 3B       		.uleb128 0x3b
 2895 01f4 0B       		.uleb128 0xb
 2896 01f5 02       		.uleb128 0x2
 2897 01f6 18       		.uleb128 0x18
 2898 01f7 00       		.byte	0
 2899 01f8 00       		.byte	0
 2900 01f9 2A       		.uleb128 0x2a
 2901 01fa 2E       		.uleb128 0x2e
 2902 01fb 01       		.byte	0x1
 2903 01fc 3F       		.uleb128 0x3f
 2904 01fd 19       		.uleb128 0x19
 2905 01fe 03       		.uleb128 0x3
 2906 01ff 0E       		.uleb128 0xe
 2907 0200 3A       		.uleb128 0x3a
 2908 0201 0B       		.uleb128 0xb
 2909 0202 3B       		.uleb128 0x3b
 2910 0203 0B       		.uleb128 0xb
 2911 0204 27       		.uleb128 0x27
 2912 0205 19       		.uleb128 0x19
 2913 0206 11       		.uleb128 0x11
 2914 0207 01       		.uleb128 0x1
 2915 0208 12       		.uleb128 0x12
 2916 0209 06       		.uleb128 0x6
 2917 020a 40       		.uleb128 0x40
 2918 020b 18       		.uleb128 0x18
 2919 020c 9742     		.uleb128 0x2117
 2920 020e 19       		.uleb128 0x19
 2921 020f 01       		.uleb128 0x1
 2922 0210 13       		.uleb128 0x13
 2923 0211 00       		.byte	0
 2924 0212 00       		.byte	0
 2925 0213 2B       		.uleb128 0x2b
 2926 0214 898201   		.uleb128 0x4109
 2927 0217 01       		.byte	0x1
 2928 0218 11       		.uleb128 0x11
 2929 0219 01       		.uleb128 0x1
ARM GAS  /tmp/ccNHoAC7.s 			page 56


 2930 021a 31       		.uleb128 0x31
 2931 021b 13       		.uleb128 0x13
 2932 021c 01       		.uleb128 0x1
 2933 021d 13       		.uleb128 0x13
 2934 021e 00       		.byte	0
 2935 021f 00       		.byte	0
 2936 0220 2C       		.uleb128 0x2c
 2937 0221 8A8201   		.uleb128 0x410a
 2938 0224 00       		.byte	0
 2939 0225 02       		.uleb128 0x2
 2940 0226 18       		.uleb128 0x18
 2941 0227 9142     		.uleb128 0x2111
 2942 0229 18       		.uleb128 0x18
 2943 022a 00       		.byte	0
 2944 022b 00       		.byte	0
 2945 022c 2D       		.uleb128 0x2d
 2946 022d 898201   		.uleb128 0x4109
 2947 0230 01       		.byte	0x1
 2948 0231 11       		.uleb128 0x11
 2949 0232 01       		.uleb128 0x1
 2950 0233 31       		.uleb128 0x31
 2951 0234 13       		.uleb128 0x13
 2952 0235 00       		.byte	0
 2953 0236 00       		.byte	0
 2954 0237 2E       		.uleb128 0x2e
 2955 0238 2E       		.uleb128 0x2e
 2956 0239 00       		.byte	0
 2957 023a 3F       		.uleb128 0x3f
 2958 023b 19       		.uleb128 0x19
 2959 023c 03       		.uleb128 0x3
 2960 023d 0E       		.uleb128 0xe
 2961 023e 3A       		.uleb128 0x3a
 2962 023f 0B       		.uleb128 0xb
 2963 0240 3B       		.uleb128 0x3b
 2964 0241 0B       		.uleb128 0xb
 2965 0242 27       		.uleb128 0x27
 2966 0243 19       		.uleb128 0x19
 2967 0244 11       		.uleb128 0x11
 2968 0245 01       		.uleb128 0x1
 2969 0246 12       		.uleb128 0x12
 2970 0247 06       		.uleb128 0x6
 2971 0248 40       		.uleb128 0x40
 2972 0249 18       		.uleb128 0x18
 2973 024a 9742     		.uleb128 0x2117
 2974 024c 19       		.uleb128 0x19
 2975 024d 00       		.byte	0
 2976 024e 00       		.byte	0
 2977 024f 2F       		.uleb128 0x2f
 2978 0250 2E       		.uleb128 0x2e
 2979 0251 00       		.byte	0
 2980 0252 3F       		.uleb128 0x3f
 2981 0253 19       		.uleb128 0x19
 2982 0254 3C       		.uleb128 0x3c
 2983 0255 19       		.uleb128 0x19
 2984 0256 6E       		.uleb128 0x6e
 2985 0257 0E       		.uleb128 0xe
 2986 0258 03       		.uleb128 0x3
ARM GAS  /tmp/ccNHoAC7.s 			page 57


 2987 0259 0E       		.uleb128 0xe
 2988 025a 3A       		.uleb128 0x3a
 2989 025b 0B       		.uleb128 0xb
 2990 025c 3B       		.uleb128 0x3b
 2991 025d 05       		.uleb128 0x5
 2992 025e 00       		.byte	0
 2993 025f 00       		.byte	0
 2994 0260 00       		.byte	0
 2995              		.section	.debug_aranges,"",%progbits
 2996 0000 1C000000 		.4byte	0x1c
 2997 0004 0200     		.2byte	0x2
 2998 0006 00000000 		.4byte	.Ldebug_info0
 2999 000a 04       		.byte	0x4
 3000 000b 00       		.byte	0
 3001 000c 0000     		.2byte	0
 3002 000e 0000     		.2byte	0
 3003 0010 00000000 		.4byte	.Ltext0
 3004 0014 D0000000 		.4byte	.Letext0-.Ltext0
 3005 0018 00000000 		.4byte	0
 3006 001c 00000000 		.4byte	0
 3007              		.section	.debug_line,"",%progbits
 3008              	.Ldebug_line0:
 3009 0000 52020000 		.section	.debug_str,"MS",%progbits,1
 3009      02000602 
 3009      00000201 
 3009      FB0E0D00 
 3009      01010101 
 3010              	.LASF19:
 3011 0000 73697A65 		.ascii	"sizetype\000"
 3011      74797065 
 3011      00
 3012              	.LASF89:
 3013 0009 5F5F7661 		.ascii	"__value\000"
 3013      6C756500 
 3014              	.LASF158:
 3015 0011 5F5F7366 		.ascii	"__sf\000"
 3015      00
 3016              	.LASF125:
 3017 0016 5F726561 		.ascii	"_read\000"
 3017      6400
 3018              	.LASF126:
 3019 001c 5F777269 		.ascii	"_write\000"
 3019      746500
 3020              	.LASF17:
 3021 0023 696E7433 		.ascii	"int32_t\000"
 3021      325F7400 
 3022              	.LASF169:
 3023 002b 5F617363 		.ascii	"_asctime_buf\000"
 3023      74696D65 
 3023      5F627566 
 3023      00
 3024              	.LASF152:
 3025 0038 5F637674 		.ascii	"_cvtlen\000"
 3025      6C656E00 
 3026              	.LASF219:
 3027 0040 54494D5F 		.ascii	"TIM_GetITStatus\000"
 3027      47657449 
ARM GAS  /tmp/ccNHoAC7.s 			page 58


 3027      54537461 
 3027      74757300 
 3028              	.LASF73:
 3029 0050 6163635F 		.ascii	"acc_x_temp\000"
 3029      785F7465 
 3029      6D7000
 3030              	.LASF188:
 3031 005b 5F756E75 		.ascii	"_unused\000"
 3031      73656400 
 3032              	.LASF99:
 3033 0063 5F5F746D 		.ascii	"__tm\000"
 3033      00
 3034              	.LASF184:
 3035 0068 5F776373 		.ascii	"_wcsrtombs_state\000"
 3035      72746F6D 
 3035      62735F73 
 3035      74617465 
 3035      00
 3036              	.LASF130:
 3037 0079 5F6E6275 		.ascii	"_nbuf\000"
 3037      6600
 3038              	.LASF100:
 3039 007f 5F5F746D 		.ascii	"__tm_sec\000"
 3039      5F736563 
 3039      00
 3040              	.LASF177:
 3041 0088 5F6C3634 		.ascii	"_l64a_buf\000"
 3041      615F6275 
 3041      6600
 3042              	.LASF146:
 3043 0092 5F5F7364 		.ascii	"__sdidinit\000"
 3043      6964696E 
 3043      697400
 3044              	.LASF119:
 3045 009d 5F73697A 		.ascii	"_size\000"
 3045      6500
 3046              	.LASF202:
 3047 00a3 5243435F 		.ascii	"RCC_IRQHandler\000"
 3047      49525148 
 3047      616E646C 
 3047      657200
 3048              	.LASF134:
 3049 00b2 5F6C6F63 		.ascii	"_lock\000"
 3049      6B00
 3050              	.LASF165:
 3051 00b8 5F6D756C 		.ascii	"_mult\000"
 3051      7400
 3052              	.LASF69:
 3053 00be 6779726F 		.ascii	"gyro_y_rate\000"
 3053      5F795F72 
 3053      61746500 
 3054              	.LASF225:
 3055 00ca 2F686F6D 		.ascii	"/home/faker/Documents/code/STM/stm32-quadrocopter\000"
 3055      652F6661 
 3055      6B65722F 
 3055      446F6375 
 3055      6D656E74 
ARM GAS  /tmp/ccNHoAC7.s 			page 59


 3056              	.LASF54:
 3057 00fc 444D4152 		.ascii	"DMAR\000"
 3057      00
 3058              	.LASF43:
 3059 0101 43435231 		.ascii	"CCR1\000"
 3059      00
 3060              	.LASF45:
 3061 0106 43435232 		.ascii	"CCR2\000"
 3061      00
 3062              	.LASF47:
 3063 010b 43435233 		.ascii	"CCR3\000"
 3063      00
 3064              	.LASF49:
 3065 0110 43435234 		.ascii	"CCR4\000"
 3065      00
 3066              	.LASF2:
 3067 0115 5F5F7569 		.ascii	"__uint8_t\000"
 3067      6E74385F 
 3067      7400
 3068              	.LASF122:
 3069 011f 5F66696C 		.ascii	"_file\000"
 3069      6500
 3070              	.LASF109:
 3071 0125 5F6F6E5F 		.ascii	"_on_exit_args\000"
 3071      65786974 
 3071      5F617267 
 3071      7300
 3072              	.LASF199:
 3073 0133 5F737973 		.ascii	"_sys_nerr\000"
 3073      5F6E6572 
 3073      7200
 3074              	.LASF86:
 3075 013d 5F5F7763 		.ascii	"__wch\000"
 3075      6800
 3076              	.LASF224:
 3077 0143 64726976 		.ascii	"drivers/nvic.c\000"
 3077      6572732F 
 3077      6E766963 
 3077      2E6300
 3078              	.LASF180:
 3079 0152 5F6D6272 		.ascii	"_mbrlen_state\000"
 3079      6C656E5F 
 3079      73746174 
 3079      6500
 3080              	.LASF8:
 3081 0160 6C6F6E67 		.ascii	"long int\000"
 3081      20696E74 
 3081      00
 3082              	.LASF189:
 3083 0169 5F696D70 		.ascii	"_impure_ptr\000"
 3083      7572655F 
 3083      70747200 
 3084              	.LASF149:
 3085 0175 5F726573 		.ascii	"_result_k\000"
 3085      756C745F 
 3085      6B00
 3086              	.LASF59:
ARM GAS  /tmp/ccNHoAC7.s 			page 60


 3087 017f 45616E67 		.ascii	"Eangle\000"
 3087      6C6500
 3088              	.LASF207:
 3089 0186 44656275 		.ascii	"DebugMon_Handler\000"
 3089      674D6F6E 
 3089      5F48616E 
 3089      646C6572 
 3089      00
 3090              	.LASF205:
 3091 0197 53797354 		.ascii	"SysTick_Handler\000"
 3091      69636B5F 
 3091      48616E64 
 3091      6C657200 
 3092              	.LASF170:
 3093 01a7 5F6C6F63 		.ascii	"_localtime_buf\000"
 3093      616C7469 
 3093      6D655F62 
 3093      756600
 3094              	.LASF78:
 3095 01b6 74657374 		.ascii	"test\000"
 3095      00
 3096              	.LASF104:
 3097 01bb 5F5F746D 		.ascii	"__tm_mon\000"
 3097      5F6D6F6E 
 3097      00
 3098              	.LASF144:
 3099 01c4 5F637572 		.ascii	"_current_category\000"
 3099      72656E74 
 3099      5F636174 
 3099      65676F72 
 3099      7900
 3100              	.LASF167:
 3101 01d6 5F756E75 		.ascii	"_unused_rand\000"
 3101      7365645F 
 3101      72616E64 
 3101      00
 3102              	.LASF0:
 3103 01e3 7369676E 		.ascii	"signed char\000"
 3103      65642063 
 3103      68617200 
 3104              	.LASF76:
 3105 01ef 7A5F616E 		.ascii	"z_angle\000"
 3105      676C6500 
 3106              	.LASF14:
 3107 01f7 75696E74 		.ascii	"uint8_t\000"
 3107      385F7400 
 3108              	.LASF140:
 3109 01ff 5F737464 		.ascii	"_stdout\000"
 3109      6F757400 
 3110              	.LASF56:
 3111 0207 54494D5F 		.ascii	"TIM_TypeDef\000"
 3111      54797065 
 3111      44656600 
 3112              	.LASF25:
 3113 0213 52455345 		.ascii	"RESERVED0\000"
 3113      52564544 
 3113      3000
ARM GAS  /tmp/ccNHoAC7.s 			page 61


 3114              	.LASF26:
 3115 021d 52455345 		.ascii	"RESERVED1\000"
 3115      52564544 
 3115      3100
 3116              	.LASF1:
 3117 0227 756E7369 		.ascii	"unsigned char\000"
 3117      676E6564 
 3117      20636861 
 3117      7200
 3118              	.LASF30:
 3119 0235 52455345 		.ascii	"RESERVED3\000"
 3119      52564544 
 3119      3300
 3120              	.LASF31:
 3121 023f 52455345 		.ascii	"RESERVED4\000"
 3121      52564544 
 3121      3400
 3122              	.LASF32:
 3123 0249 52455345 		.ascii	"RESERVED5\000"
 3123      52564544 
 3123      3500
 3124              	.LASF34:
 3125 0253 52455345 		.ascii	"RESERVED6\000"
 3125      52564544 
 3125      3600
 3126              	.LASF36:
 3127 025d 52455345 		.ascii	"RESERVED7\000"
 3127      52564544 
 3127      3700
 3128              	.LASF38:
 3129 0267 52455345 		.ascii	"RESERVED8\000"
 3129      52564544 
 3129      3800
 3130              	.LASF39:
 3131 0271 52455345 		.ascii	"RESERVED9\000"
 3131      52564544 
 3131      3900
 3132              	.LASF137:
 3133 027b 5F726565 		.ascii	"_reent\000"
 3133      6E7400
 3134              	.LASF190:
 3135 0282 5F676C6F 		.ascii	"_global_impure_ptr\000"
 3135      62616C5F 
 3135      696D7075 
 3135      72655F70 
 3135      747200
 3136              	.LASF107:
 3137 0295 5F5F746D 		.ascii	"__tm_yday\000"
 3137      5F796461 
 3137      7900
 3138              	.LASF203:
 3139 029f 54494D33 		.ascii	"TIM3_IRQHandler\000"
 3139      5F495251 
 3139      48616E64 
 3139      6C657200 
 3140              	.LASF28:
 3141 02af 52455345 		.ascii	"RESERVED2\000"
ARM GAS  /tmp/ccNHoAC7.s 			page 62


 3141      52564544 
 3141      3200
 3142              	.LASF33:
 3143 02b9 43434D52 		.ascii	"CCMR1\000"
 3143      3100
 3144              	.LASF35:
 3145 02bf 43434D52 		.ascii	"CCMR2\000"
 3145      3200
 3146              	.LASF92:
 3147 02c5 63686172 		.ascii	"char\000"
 3147      00
 3148              	.LASF116:
 3149 02ca 5F666E73 		.ascii	"_fns\000"
 3149      00
 3150              	.LASF128:
 3151 02cf 5F636C6F 		.ascii	"_close\000"
 3151      736500
 3152              	.LASF201:
 3153 02d6 74696D33 		.ascii	"tim3_count\000"
 3153      5F636F75 
 3153      6E7400
 3154              	.LASF5:
 3155 02e1 5F5F7569 		.ascii	"__uint16_t\000"
 3155      6E743136 
 3155      5F7400
 3156              	.LASF139:
 3157 02ec 5F737464 		.ascii	"_stdin\000"
 3157      696E00
 3158              	.LASF113:
 3159 02f3 5F69735F 		.ascii	"_is_cxa\000"
 3159      63786100 
 3160              	.LASF221:
 3161 02fb 5243435F 		.ascii	"RCC_HSEConfig\000"
 3161      48534543 
 3161      6F6E6669 
 3161      6700
 3162              	.LASF200:
 3163 0309 74696D32 		.ascii	"tim2_count\000"
 3163      5F636F75 
 3163      6E7400
 3164              	.LASF124:
 3165 0314 5F636F6F 		.ascii	"_cookie\000"
 3165      6B696500 
 3166              	.LASF97:
 3167 031c 5F776473 		.ascii	"_wds\000"
 3167      00
 3168              	.LASF156:
 3169 0321 5F736967 		.ascii	"_sig_func\000"
 3169      5F66756E 
 3169      6300
 3170              	.LASF121:
 3171 032b 5F666C61 		.ascii	"_flags\000"
 3171      677300
 3172              	.LASF132:
 3173 0332 5F6F6666 		.ascii	"_offset\000"
 3173      73657400 
 3174              	.LASF153:
ARM GAS  /tmp/ccNHoAC7.s 			page 63


 3175 033a 5F637674 		.ascii	"_cvtbuf\000"
 3175      62756600 
 3176              	.LASF197:
 3177 0342 5F5F6664 		.ascii	"__fdlib_version\000"
 3177      6C69625F 
 3177      76657273 
 3177      696F6E00 
 3178              	.LASF150:
 3179 0352 5F703573 		.ascii	"_p5s\000"
 3179      00
 3180              	.LASF10:
 3181 0357 6C6F6E67 		.ascii	"long unsigned int\000"
 3181      20756E73 
 3181      69676E65 
 3181      6420696E 
 3181      7400
 3182              	.LASF120:
 3183 0369 5F5F7346 		.ascii	"__sFILE\000"
 3183      494C4500 
 3184              	.LASF29:
 3185 0371 44494552 		.ascii	"DIER\000"
 3185      00
 3186              	.LASF136:
 3187 0376 5F666C61 		.ascii	"_flags2\000"
 3187      67733200 
 3188              	.LASF21:
 3189 037e 53797374 		.ascii	"SystemCoreClock\000"
 3189      656D436F 
 3189      7265436C 
 3189      6F636B00 
 3190              	.LASF82:
 3191 038e 5F4C4F43 		.ascii	"_LOCK_RECURSIVE_T\000"
 3191      4B5F5245 
 3191      43555253 
 3191      4956455F 
 3191      5400
 3192              	.LASF138:
 3193 03a0 5F657272 		.ascii	"_errno\000"
 3193      6E6F00
 3194              	.LASF178:
 3195 03a7 5F736967 		.ascii	"_signal_buf\000"
 3195      6E616C5F 
 3195      62756600 
 3196              	.LASF198:
 3197 03b3 5F737973 		.ascii	"_sys_errlist\000"
 3197      5F657272 
 3197      6C697374 
 3197      00
 3198              	.LASF71:
 3199 03c0 6163635F 		.ascii	"acc_x_angle\000"
 3199      785F616E 
 3199      676C6500 
 3200              	.LASF223:
 3201 03cc 474E5520 		.ascii	"GNU C11 6.1.1 20160526 -mcpu=cortex-m3 -mthumb -g -"
 3201      43313120 
 3201      362E312E 
 3201      31203230 
ARM GAS  /tmp/ccNHoAC7.s 			page 64


 3201      31363035 
 3202 03ff 4F31202D 		.ascii	"O1 -fno-common\000"
 3202      666E6F2D 
 3202      636F6D6D 
 3202      6F6E00
 3203              	.LASF98:
 3204 040e 5F426967 		.ascii	"_Bigint\000"
 3204      696E7400 
 3205              	.LASF95:
 3206 0416 5F6D6178 		.ascii	"_maxwds\000"
 3206      77647300 
 3207              	.LASF147:
 3208 041e 5F5F636C 		.ascii	"__cleanup\000"
 3208      65616E75 
 3208      7000
 3209              	.LASF155:
 3210 0428 5F617465 		.ascii	"_atexit0\000"
 3210      78697430 
 3210      00
 3211              	.LASF194:
 3212 0431 5F5F6664 		.ascii	"__fdlibm_svid\000"
 3212      6C69626D 
 3212      5F737669 
 3212      6400
 3213              	.LASF9:
 3214 043f 5F5F7569 		.ascii	"__uint32_t\000"
 3214      6E743332 
 3214      5F7400
 3215              	.LASF143:
 3216 044a 5F656D65 		.ascii	"_emergency\000"
 3216      7267656E 
 3216      637900
 3217              	.LASF11:
 3218 0455 6C6F6E67 		.ascii	"long long int\000"
 3218      206C6F6E 
 3218      6720696E 
 3218      7400
 3219              	.LASF79:
 3220 0463 6932635F 		.ascii	"i2c_sdata\000"
 3220      73646174 
 3220      6100
 3221              	.LASF204:
 3222 046d 54494D32 		.ascii	"TIM2_IRQHandler\000"
 3222      5F495251 
 3222      48616E64 
 3222      6C657200 
 3223              	.LASF161:
 3224 047d 5F6E696F 		.ascii	"_niobs\000"
 3224      627300
 3225              	.LASF157:
 3226 0484 5F5F7367 		.ascii	"__sglue\000"
 3226      6C756500 
 3227              	.LASF72:
 3228 048c 6163635F 		.ascii	"acc_y_angle\000"
 3228      795F616E 
 3228      676C6500 
 3229              	.LASF187:
ARM GAS  /tmp/ccNHoAC7.s 			page 65


 3230 0498 5F6E6D61 		.ascii	"_nmalloc\000"
 3230      6C6C6F63 
 3230      00
 3231              	.LASF192:
 3232 04a1 646F7562 		.ascii	"double\000"
 3232      6C6500
 3233              	.LASF171:
 3234 04a8 5F67616D 		.ascii	"_gamma_signgam\000"
 3234      6D615F73 
 3234      69676E67 
 3234      616D00
 3235              	.LASF216:
 3236 04b7 5243435F 		.ascii	"RCC_GetFlagStatus\000"
 3236      47657446 
 3236      6C616753 
 3236      74617475 
 3236      7300
 3237              	.LASF145:
 3238 04c9 5F637572 		.ascii	"_current_locale\000"
 3238      72656E74 
 3238      5F6C6F63 
 3238      616C6500 
 3239              	.LASF222:
 3240 04d9 5243435F 		.ascii	"RCC_ITConfig\000"
 3240      4954436F 
 3240      6E666967 
 3240      00
 3241              	.LASF151:
 3242 04e6 5F667265 		.ascii	"_freelist\000"
 3242      656C6973 
 3242      7400
 3243              	.LASF162:
 3244 04f0 5F696F62 		.ascii	"_iobs\000"
 3244      7300
 3245              	.LASF160:
 3246 04f6 5F676C75 		.ascii	"_glue\000"
 3246      6500
 3247              	.LASF20:
 3248 04fc 49544D5F 		.ascii	"ITM_RxBuffer\000"
 3248      52784275 
 3248      66666572 
 3248      00
 3249              	.LASF96:
 3250 0509 5F736967 		.ascii	"_sign\000"
 3250      6E00
 3251              	.LASF58:
 3252 050f 666C6F61 		.ascii	"float\000"
 3252      7400
 3253              	.LASF70:
 3254 0515 6779726F 		.ascii	"gyro_z_rate\000"
 3254      5F7A5F72 
 3254      61746500 
 3255              	.LASF214:
 3256 0521 5243435F 		.ascii	"RCC_GetITStatus\000"
 3256      47657449 
 3256      54537461 
 3256      74757300 
ARM GAS  /tmp/ccNHoAC7.s 			page 66


 3257              	.LASF13:
 3258 0531 756E7369 		.ascii	"unsigned int\000"
 3258      676E6564 
 3258      20696E74 
 3258      00
 3259              	.LASF185:
 3260 053e 5F685F65 		.ascii	"_h_errno\000"
 3260      72726E6F 
 3260      00
 3261              	.LASF206:
 3262 0547 50656E64 		.ascii	"PendSV_Handler\000"
 3262      53565F48 
 3262      616E646C 
 3262      657200
 3263              	.LASF215:
 3264 0556 5243435F 		.ascii	"RCC_ClearITPendingBit\000"
 3264      436C6561 
 3264      72495450 
 3264      656E6469 
 3264      6E674269 
 3265              	.LASF183:
 3266 056c 5F776372 		.ascii	"_wcrtomb_state\000"
 3266      746F6D62 
 3266      5F737461 
 3266      746500
 3267              	.LASF103:
 3268 057b 5F5F746D 		.ascii	"__tm_mday\000"
 3268      5F6D6461 
 3268      7900
 3269              	.LASF91:
 3270 0585 5F666C6F 		.ascii	"_flock_t\000"
 3270      636B5F74 
 3270      00
 3271              	.LASF154:
 3272 058e 5F6E6577 		.ascii	"_new\000"
 3272      00
 3273              	.LASF129:
 3274 0593 5F756275 		.ascii	"_ubuf\000"
 3274      6600
 3275              	.LASF141:
 3276 0599 5F737464 		.ascii	"_stderr\000"
 3276      65727200 
 3277              	.LASF176:
 3278 05a1 5F776374 		.ascii	"_wctomb_state\000"
 3278      6F6D625F 
 3278      73746174 
 3278      6500
 3279              	.LASF135:
 3280 05af 5F6D6273 		.ascii	"_mbstate\000"
 3280      74617465 
 3280      00
 3281              	.LASF212:
 3282 05b8 48617264 		.ascii	"HardFault_Handler\000"
 3282      4661756C 
 3282      745F4861 
 3282      6E646C65 
 3282      7200
ARM GAS  /tmp/ccNHoAC7.s 			page 67


 3283              	.LASF172:
 3284 05ca 5F72616E 		.ascii	"_rand_next\000"
 3284      645F6E65 
 3284      787400
 3285              	.LASF75:
 3286 05d5 6163635F 		.ascii	"acc_z_temp\000"
 3286      7A5F7465 
 3286      6D7000
 3287              	.LASF114:
 3288 05e0 5F617465 		.ascii	"_atexit\000"
 3288      78697400 
 3289              	.LASF88:
 3290 05e8 5F5F636F 		.ascii	"__count\000"
 3290      756E7400 
 3291              	.LASF106:
 3292 05f0 5F5F746D 		.ascii	"__tm_wday\000"
 3292      5F776461 
 3292      7900
 3293              	.LASF23:
 3294 05fa 44495341 		.ascii	"DISABLE\000"
 3294      424C4500 
 3295              	.LASF81:
 3296 0602 6C6F6E67 		.ascii	"long double\000"
 3296      20646F75 
 3296      626C6500 
 3297              	.LASF80:
 3298 060e 6932635F 		.ascii	"i2c_rdata\000"
 3298      72646174 
 3298      6100
 3299              	.LASF164:
 3300 0618 5F736565 		.ascii	"_seed\000"
 3300      6400
 3301              	.LASF127:
 3302 061e 5F736565 		.ascii	"_seek\000"
 3302      6B00
 3303              	.LASF84:
 3304 0624 5F66706F 		.ascii	"_fpos_t\000"
 3304      735F7400 
 3305              	.LASF87:
 3306 062c 5F5F7763 		.ascii	"__wchb\000"
 3306      686200
 3307              	.LASF217:
 3308 0633 5243435F 		.ascii	"RCC_PLLCmd\000"
 3308      504C4C43 
 3308      6D6400
 3309              	.LASF65:
 3310 063e 6163635F 		.ascii	"acc_x\000"
 3310      7800
 3311              	.LASF66:
 3312 0644 6163635F 		.ascii	"acc_y\000"
 3312      7900
 3313              	.LASF67:
 3314 064a 6163635F 		.ascii	"acc_z\000"
 3314      7A00
 3315              	.LASF175:
 3316 0650 5F6D6274 		.ascii	"_mbtowc_state\000"
 3316      6F77635F 
ARM GAS  /tmp/ccNHoAC7.s 			page 68


 3316      73746174 
 3316      6500
 3317              	.LASF12:
 3318 065e 6C6F6E67 		.ascii	"long long unsigned int\000"
 3318      206C6F6E 
 3318      6720756E 
 3318      7369676E 
 3318      65642069 
 3319              	.LASF16:
 3320 0675 75696E74 		.ascii	"uint16_t\000"
 3320      31365F74 
 3320      00
 3321              	.LASF111:
 3322 067e 5F64736F 		.ascii	"_dso_handle\000"
 3322      5F68616E 
 3322      646C6500 
 3323              	.LASF163:
 3324 068a 5F72616E 		.ascii	"_rand48\000"
 3324      64343800 
 3325              	.LASF40:
 3326 0692 52455345 		.ascii	"RESERVED10\000"
 3326      52564544 
 3326      313000
 3327              	.LASF37:
 3328 069d 43434552 		.ascii	"CCER\000"
 3328      00
 3329              	.LASF42:
 3330 06a2 52455345 		.ascii	"RESERVED12\000"
 3330      52564544 
 3330      313200
 3331              	.LASF44:
 3332 06ad 52455345 		.ascii	"RESERVED13\000"
 3332      52564544 
 3332      313300
 3333              	.LASF46:
 3334 06b8 52455345 		.ascii	"RESERVED14\000"
 3334      52564544 
 3334      313400
 3335              	.LASF48:
 3336 06c3 52455345 		.ascii	"RESERVED15\000"
 3336      52564544 
 3336      313500
 3337              	.LASF50:
 3338 06ce 52455345 		.ascii	"RESERVED16\000"
 3338      52564544 
 3338      313600
 3339              	.LASF52:
 3340 06d9 52455345 		.ascii	"RESERVED17\000"
 3340      52564544 
 3340      313700
 3341              	.LASF53:
 3342 06e4 52455345 		.ascii	"RESERVED18\000"
 3342      52564544 
 3342      313800
 3343              	.LASF55:
 3344 06ef 52455345 		.ascii	"RESERVED19\000"
 3344      52564544 
ARM GAS  /tmp/ccNHoAC7.s 			page 69


 3344      313900
 3345              	.LASF226:
 3346 06fa 5F5F6664 		.ascii	"__fdlibm_version\000"
 3346      6C69626D 
 3346      5F766572 
 3346      73696F6E 
 3346      00
 3347              	.LASF131:
 3348 070b 5F626C6B 		.ascii	"_blksize\000"
 3348      73697A65 
 3348      00
 3349              	.LASF118:
 3350 0714 5F626173 		.ascii	"_base\000"
 3350      6500
 3351              	.LASF168:
 3352 071a 5F737472 		.ascii	"_strtok_last\000"
 3352      746F6B5F 
 3352      6C617374 
 3352      00
 3353              	.LASF181:
 3354 0727 5F6D6272 		.ascii	"_mbrtowc_state\000"
 3354      746F7763 
 3354      5F737461 
 3354      746500
 3355              	.LASF27:
 3356 0736 534D4352 		.ascii	"SMCR\000"
 3356      00
 3357              	.LASF159:
 3358 073b 5F5F4649 		.ascii	"__FILE\000"
 3358      4C4500
 3359              	.LASF3:
 3360 0742 5F5F696E 		.ascii	"__int16_t\000"
 3360      7431365F 
 3360      7400
 3361              	.LASF22:
 3362 074c 52455345 		.ascii	"RESET\000"
 3362      5400
 3363              	.LASF90:
 3364 0752 5F6D6273 		.ascii	"_mbstate_t\000"
 3364      74617465 
 3364      5F7400
 3365              	.LASF173:
 3366 075d 5F723438 		.ascii	"_r48\000"
 3366      00
 3367              	.LASF85:
 3368 0762 77696E74 		.ascii	"wint_t\000"
 3368      5F7400
 3369              	.LASF94:
 3370 0769 5F6E6578 		.ascii	"_next\000"
 3370      7400
 3371              	.LASF133:
 3372 076f 5F646174 		.ascii	"_data\000"
 3372      6100
 3373              	.LASF57:
 3374 0775 62657461 		.ascii	"beta\000"
 3374      00
 3375              	.LASF196:
ARM GAS  /tmp/ccNHoAC7.s 			page 70


 3376 077a 5F5F6664 		.ascii	"__fdlibm_posix\000"
 3376      6C69626D 
 3376      5F706F73 
 3376      697800
 3377              	.LASF174:
 3378 0789 5F6D626C 		.ascii	"_mblen_state\000"
 3378      656E5F73 
 3378      74617465 
 3378      00
 3379              	.LASF4:
 3380 0796 73686F72 		.ascii	"short int\000"
 3380      7420696E 
 3380      7400
 3381              	.LASF195:
 3382 07a0 5F5F6664 		.ascii	"__fdlibm_xopen\000"
 3382      6C69626D 
 3382      5F786F70 
 3382      656E00
 3383              	.LASF62:
 3384 07af 6779726F 		.ascii	"gyro_x\000"
 3384      5F7800
 3385              	.LASF63:
 3386 07b6 6779726F 		.ascii	"gyro_y\000"
 3386      5F7900
 3387              	.LASF64:
 3388 07bd 6779726F 		.ascii	"gyro_z\000"
 3388      5F7A00
 3389              	.LASF15:
 3390 07c4 696E7431 		.ascii	"int16_t\000"
 3390      365F7400 
 3391              	.LASF191:
 3392 07cc 7375626F 		.ascii	"suboptarg\000"
 3392      70746172 
 3392      6700
 3393              	.LASF112:
 3394 07d6 5F666E74 		.ascii	"_fntypes\000"
 3394      79706573 
 3394      00
 3395              	.LASF24:
 3396 07df 454E4142 		.ascii	"ENABLE\000"
 3396      4C4500
 3397              	.LASF105:
 3398 07e6 5F5F746D 		.ascii	"__tm_year\000"
 3398      5F796561 
 3398      7200
 3399              	.LASF220:
 3400 07f0 54494D5F 		.ascii	"TIM_ClearITPendingBit\000"
 3400      436C6561 
 3400      72495450 
 3400      656E6469 
 3400      6E674269 
 3401              	.LASF123:
 3402 0806 5F6C6266 		.ascii	"_lbfsize\000"
 3402      73697A65 
 3402      00
 3403              	.LASF209:
 3404 080f 55736167 		.ascii	"UsageFault_Handler\000"
ARM GAS  /tmp/ccNHoAC7.s 			page 71


 3404      65466175 
 3404      6C745F48 
 3404      616E646C 
 3404      657200
 3405              	.LASF142:
 3406 0822 5F696E63 		.ascii	"_inc\000"
 3406      00
 3407              	.LASF115:
 3408 0827 5F696E64 		.ascii	"_ind\000"
 3408      00
 3409              	.LASF213:
 3410 082c 4E4D495F 		.ascii	"NMI_Handler\000"
 3410      48616E64 
 3410      6C657200 
 3411              	.LASF211:
 3412 0838 4D656D4D 		.ascii	"MemManage_Handler\000"
 3412      616E6167 
 3412      655F4861 
 3412      6E646C65 
 3412      7200
 3413              	.LASF193:
 3414 084a 5F5F6664 		.ascii	"__fdlibm_ieee\000"
 3414      6C69626D 
 3414      5F696565 
 3414      6500
 3415              	.LASF117:
 3416 0858 5F5F7362 		.ascii	"__sbuf\000"
 3416      756600
 3417              	.LASF186:
 3418 085f 5F6E6578 		.ascii	"_nextf\000"
 3418      746600
 3419              	.LASF93:
 3420 0866 5F5F554C 		.ascii	"__ULong\000"
 3420      6F6E6700 
 3421              	.LASF51:
 3422 086e 42445452 		.ascii	"BDTR\000"
 3422      00
 3423              	.LASF18:
 3424 0873 75696E74 		.ascii	"uint32_t\000"
 3424      33325F74 
 3424      00
 3425              	.LASF148:
 3426 087c 5F726573 		.ascii	"_result\000"
 3426      756C7400 
 3427              	.LASF83:
 3428 0884 5F6F6666 		.ascii	"_off_t\000"
 3428      5F7400
 3429              	.LASF166:
 3430 088b 5F616464 		.ascii	"_add\000"
 3430      00
 3431              	.LASF6:
 3432 0890 73686F72 		.ascii	"short unsigned int\000"
 3432      7420756E 
 3432      7369676E 
 3432      65642069 
 3432      6E7400
 3433              	.LASF102:
ARM GAS  /tmp/ccNHoAC7.s 			page 72


 3434 08a3 5F5F746D 		.ascii	"__tm_hour\000"
 3434      5F686F75 
 3434      7200
 3435              	.LASF61:
 3436 08ad 70697463 		.ascii	"pitch\000"
 3436      6800
 3437              	.LASF60:
 3438 08b3 726F6C6C 		.ascii	"roll\000"
 3438      00
 3439              	.LASF41:
 3440 08b8 52455345 		.ascii	"RESERVED11\000"
 3440      52564544 
 3440      313100
 3441              	.LASF182:
 3442 08c3 5F6D6273 		.ascii	"_mbsrtowcs_state\000"
 3442      72746F77 
 3442      63735F73 
 3442      74617465 
 3442      00
 3443              	.LASF208:
 3444 08d4 5356435F 		.ascii	"SVC_Handler\000"
 3444      48616E64 
 3444      6C657200 
 3445              	.LASF7:
 3446 08e0 5F5F696E 		.ascii	"__int32_t\000"
 3446      7433325F 
 3446      7400
 3447              	.LASF210:
 3448 08ea 42757346 		.ascii	"BusFault_Handler\000"
 3448      61756C74 
 3448      5F48616E 
 3448      646C6572 
 3448      00
 3449              	.LASF77:
 3450 08fb 74656D70 		.ascii	"temp\000"
 3450      00
 3451              	.LASF110:
 3452 0900 5F666E61 		.ascii	"_fnargs\000"
 3452      72677300 
 3453              	.LASF108:
 3454 0908 5F5F746D 		.ascii	"__tm_isdst\000"
 3454      5F697364 
 3454      737400
 3455              	.LASF101:
 3456 0913 5F5F746D 		.ascii	"__tm_min\000"
 3456      5F6D696E 
 3456      00
 3457              	.LASF74:
 3458 091c 6163635F 		.ascii	"acc_y_temp\000"
 3458      795F7465 
 3458      6D7000
 3459              	.LASF179:
 3460 0927 5F676574 		.ascii	"_getdate_err\000"
 3460      64617465 
 3460      5F657272 
 3460      00
 3461              	.LASF218:
ARM GAS  /tmp/ccNHoAC7.s 			page 73


 3462 0934 5243435F 		.ascii	"RCC_SYSCLKConfig\000"
 3462      53595343 
 3462      4C4B436F 
 3462      6E666967 
 3462      00
 3463              	.LASF68:
 3464 0945 6779726F 		.ascii	"gyro_x_rate\000"
 3464      5F785F72 
 3464      61746500 
 3465              		.ident	"GCC: (Arch Repository) 6.1.1 20160526"
ARM GAS  /tmp/ccNHoAC7.s 			page 74


DEFINED SYMBOLS
                            *ABS*:0000000000000000 nvic.c
     /tmp/ccNHoAC7.s:15     .text:0000000000000000 $t
     /tmp/ccNHoAC7.s:22     .text:0000000000000000 NMI_Handler
     /tmp/ccNHoAC7.s:71     .text:000000000000002c HardFault_Handler
     /tmp/ccNHoAC7.s:91     .text:000000000000002e MemManage_Handler
     /tmp/ccNHoAC7.s:111    .text:0000000000000030 BusFault_Handler
     /tmp/ccNHoAC7.s:131    .text:0000000000000032 UsageFault_Handler
     /tmp/ccNHoAC7.s:151    .text:0000000000000034 SVC_Handler
     /tmp/ccNHoAC7.s:169    .text:0000000000000036 DebugMon_Handler
     /tmp/ccNHoAC7.s:187    .text:0000000000000038 PendSV_Handler
     /tmp/ccNHoAC7.s:205    .text:000000000000003a SysTick_Handler
     /tmp/ccNHoAC7.s:223    .text:000000000000003c TIM2_IRQHandler
     /tmp/ccNHoAC7.s:258    .text:0000000000000060 $d
     /tmp/ccNHoAC7.s:262    .text:0000000000000064 $t
     /tmp/ccNHoAC7.s:269    .text:0000000000000064 TIM3_IRQHandler
     /tmp/ccNHoAC7.s:303    .text:0000000000000084 $d
     /tmp/ccNHoAC7.s:308    .text:000000000000008c $t
     /tmp/ccNHoAC7.s:315    .text:000000000000008c RCC_IRQHandler
     /tmp/ccNHoAC7.s:385    .bss:0000000000000002 tim3_count
     /tmp/ccNHoAC7.s:381    .bss:0000000000000000 tim2_count
     /tmp/ccNHoAC7.s:377    .bss:0000000000000000 $d
                     .debug_frame:0000000000000010 $d

UNDEFINED SYMBOLS
RCC_GetITStatus
RCC_HSEConfig
RCC_ITConfig
RCC_ClearITPendingBit
TIM_GetITStatus
TIM_ClearITPendingBit
RCC_GetFlagStatus
RCC_PLLCmd
RCC_SYSCLKConfig
