ARM GAS  /tmp/ccUbtkx3.s 			page 1


   1              		.cpu cortex-m3
   2              		.eabi_attribute 20, 1
   3              		.eabi_attribute 21, 1
   4              		.eabi_attribute 23, 3
   5              		.eabi_attribute 24, 1
   6              		.eabi_attribute 25, 1
   7              		.eabi_attribute 26, 1
   8              		.eabi_attribute 30, 1
   9              		.eabi_attribute 34, 1
  10              		.eabi_attribute 18, 4
  11              		.file	"nvic.c"
  12              		.text
  13              	.Ltext0:
  14              		.cfi_sections	.debug_frame
  15              		.align	1
  16              		.global	NMI_Handler
  17              		.syntax unified
  18              		.thumb
  19              		.thumb_func
  20              		.fpu softvfp
  21              		.type	NMI_Handler, %function
  22              	NMI_Handler:
  23              	.LFB64:
  24              		.file 1 "drivers/nvic.c"
   1:drivers/nvic.c **** /* Includes ------------------------------------------------------------------*/
   2:drivers/nvic.c **** #include "nvic.h"
   3:drivers/nvic.c **** 
   4:drivers/nvic.c **** uint16_t timer_counter;
   5:drivers/nvic.c **** 
   6:drivers/nvic.c **** void NMI_Handler(void)
   7:drivers/nvic.c **** {
  25              		.loc 1 7 0
  26              		.cfi_startproc
  27              		@ args = 0, pretend = 0, frame = 0
  28              		@ frame_needed = 0, uses_anonymous_args = 0
  29 0000 08B5     		push	{r3, lr}
  30              		.cfi_def_cfa_offset 8
  31              		.cfi_offset 3, -8
  32              		.cfi_offset 14, -4
   8:drivers/nvic.c ****   /* This interrupt is generated when HSE clock fails */
   9:drivers/nvic.c **** 
  10:drivers/nvic.c ****   if (RCC_GetITStatus(RCC_IT_CSS) != RESET)
  33              		.loc 1 10 0
  34 0002 8020     		movs	r0, #128
  35 0004 FFF7FEFF 		bl	RCC_GetITStatus
  36              	.LVL0:
  37 0008 00B9     		cbnz	r0, .L4
  38              	.L1:
  39 000a 08BD     		pop	{r3, pc}
  40              	.L4:
  11:drivers/nvic.c ****   {/* At this stage: HSE, PLL are disabled (but no change on PLL config) and HSI
  12:drivers/nvic.c ****        is selected as system clock source */
  13:drivers/nvic.c **** 
  14:drivers/nvic.c ****     /* Enable HSE */
  15:drivers/nvic.c ****     RCC_HSEConfig(RCC_HSE_ON);
  41              		.loc 1 15 0
  42 000c 4FF48030 		mov	r0, #65536
ARM GAS  /tmp/ccUbtkx3.s 			page 2


  43 0010 FFF7FEFF 		bl	RCC_HSEConfig
  44              	.LVL1:
  16:drivers/nvic.c **** 
  17:drivers/nvic.c ****     /* Enable HSE Ready interrupt */
  18:drivers/nvic.c ****     RCC_ITConfig(RCC_IT_HSERDY, ENABLE);
  45              		.loc 1 18 0
  46 0014 0121     		movs	r1, #1
  47 0016 0820     		movs	r0, #8
  48 0018 FFF7FEFF 		bl	RCC_ITConfig
  49              	.LVL2:
  19:drivers/nvic.c **** 
  20:drivers/nvic.c **** #ifndef SYSCLK_HSE
  21:drivers/nvic.c ****  #ifdef STM32F10X_CL
  22:drivers/nvic.c ****     /* Enable PLL and PLL2 Ready interrupts */
  23:drivers/nvic.c ****     RCC_ITConfig(RCC_IT_PLLRDY | RCC_IT_PLL2RDY, ENABLE);
  24:drivers/nvic.c ****  #else
  25:drivers/nvic.c ****     /* Enable PLL Ready interrupt */
  26:drivers/nvic.c ****     RCC_ITConfig(RCC_IT_PLLRDY, ENABLE);
  50              		.loc 1 26 0
  51 001c 0121     		movs	r1, #1
  52 001e 1020     		movs	r0, #16
  53 0020 FFF7FEFF 		bl	RCC_ITConfig
  54              	.LVL3:
  27:drivers/nvic.c ****  #endif	/* STM32F10X_CL */
  28:drivers/nvic.c **** #endif /* SYSCLK_HSE */
  29:drivers/nvic.c **** 
  30:drivers/nvic.c ****     /* Clear Clock Security System interrupt pending bit */
  31:drivers/nvic.c ****     RCC_ClearITPendingBit(RCC_IT_CSS);
  55              		.loc 1 31 0
  56 0024 8020     		movs	r0, #128
  57 0026 FFF7FEFF 		bl	RCC_ClearITPendingBit
  58              	.LVL4:
  32:drivers/nvic.c **** 
  33:drivers/nvic.c ****     /* Once HSE clock recover, the HSERDY interrupt is generated and in the RCC ISR
  34:drivers/nvic.c ****        routine the system clock will be reconfigured to its previous state (before
  35:drivers/nvic.c ****        HSE clock failure) */
  36:drivers/nvic.c ****   }
  37:drivers/nvic.c **** }
  59              		.loc 1 37 0
  60 002a EEE7     		b	.L1
  61              		.cfi_endproc
  62              	.LFE64:
  63              		.size	NMI_Handler, .-NMI_Handler
  64              		.align	1
  65              		.global	HardFault_Handler
  66              		.syntax unified
  67              		.thumb
  68              		.thumb_func
  69              		.fpu softvfp
  70              		.type	HardFault_Handler, %function
  71              	HardFault_Handler:
  72              	.LFB65:
  38:drivers/nvic.c **** 
  39:drivers/nvic.c **** /**
  40:drivers/nvic.c ****   * @brief  This function handles Hard Fault exception.
  41:drivers/nvic.c ****   * @param  None
  42:drivers/nvic.c ****   * @retval None
ARM GAS  /tmp/ccUbtkx3.s 			page 3


  43:drivers/nvic.c ****   */
  44:drivers/nvic.c **** void HardFault_Handler(void)
  45:drivers/nvic.c **** {
  73              		.loc 1 45 0
  74              		.cfi_startproc
  75              		@ Volatile: function does not return.
  76              		@ args = 0, pretend = 0, frame = 0
  77              		@ frame_needed = 0, uses_anonymous_args = 0
  78              		@ link register save eliminated.
  79              	.L6:
  80 002c FEE7     		b	.L6
  81              		.cfi_endproc
  82              	.LFE65:
  83              		.size	HardFault_Handler, .-HardFault_Handler
  84              		.align	1
  85              		.global	MemManage_Handler
  86              		.syntax unified
  87              		.thumb
  88              		.thumb_func
  89              		.fpu softvfp
  90              		.type	MemManage_Handler, %function
  91              	MemManage_Handler:
  92              	.LFB66:
  46:drivers/nvic.c ****   /* Go to infinite loop when Hard Fault exception occurs */
  47:drivers/nvic.c ****   while (1)
  48:drivers/nvic.c ****   {
  49:drivers/nvic.c ****   }
  50:drivers/nvic.c **** }
  51:drivers/nvic.c **** 
  52:drivers/nvic.c **** /**
  53:drivers/nvic.c ****   * @brief  This function handles Memory Manage exception.
  54:drivers/nvic.c ****   * @param  None
  55:drivers/nvic.c ****   * @retval None
  56:drivers/nvic.c ****   */
  57:drivers/nvic.c **** void MemManage_Handler(void)
  58:drivers/nvic.c **** {
  93              		.loc 1 58 0
  94              		.cfi_startproc
  95              		@ Volatile: function does not return.
  96              		@ args = 0, pretend = 0, frame = 0
  97              		@ frame_needed = 0, uses_anonymous_args = 0
  98              		@ link register save eliminated.
  99              	.L8:
 100 002e FEE7     		b	.L8
 101              		.cfi_endproc
 102              	.LFE66:
 103              		.size	MemManage_Handler, .-MemManage_Handler
 104              		.align	1
 105              		.global	BusFault_Handler
 106              		.syntax unified
 107              		.thumb
 108              		.thumb_func
 109              		.fpu softvfp
 110              		.type	BusFault_Handler, %function
 111              	BusFault_Handler:
 112              	.LFB67:
  59:drivers/nvic.c ****   /* Go to infinite loop when Memory Manage exception occurs */
ARM GAS  /tmp/ccUbtkx3.s 			page 4


  60:drivers/nvic.c ****   while (1)
  61:drivers/nvic.c ****   {
  62:drivers/nvic.c ****   }
  63:drivers/nvic.c **** }
  64:drivers/nvic.c **** 
  65:drivers/nvic.c **** /**
  66:drivers/nvic.c ****   * @brief  This function handles Bus Fault exception.
  67:drivers/nvic.c ****   * @param  None
  68:drivers/nvic.c ****   * @retval None
  69:drivers/nvic.c ****   */
  70:drivers/nvic.c **** void BusFault_Handler(void)
  71:drivers/nvic.c **** {
 113              		.loc 1 71 0
 114              		.cfi_startproc
 115              		@ Volatile: function does not return.
 116              		@ args = 0, pretend = 0, frame = 0
 117              		@ frame_needed = 0, uses_anonymous_args = 0
 118              		@ link register save eliminated.
 119              	.L10:
 120 0030 FEE7     		b	.L10
 121              		.cfi_endproc
 122              	.LFE67:
 123              		.size	BusFault_Handler, .-BusFault_Handler
 124              		.align	1
 125              		.global	UsageFault_Handler
 126              		.syntax unified
 127              		.thumb
 128              		.thumb_func
 129              		.fpu softvfp
 130              		.type	UsageFault_Handler, %function
 131              	UsageFault_Handler:
 132              	.LFB68:
  72:drivers/nvic.c ****   /* Go to infinite loop when Bus Fault exception occurs */
  73:drivers/nvic.c ****   while (1)
  74:drivers/nvic.c ****   {
  75:drivers/nvic.c ****   }
  76:drivers/nvic.c **** }
  77:drivers/nvic.c **** 
  78:drivers/nvic.c **** /**
  79:drivers/nvic.c ****   * @brief  This function handles Usage Fault exception.
  80:drivers/nvic.c ****   * @param  None
  81:drivers/nvic.c ****   * @retval None
  82:drivers/nvic.c ****   */
  83:drivers/nvic.c **** void UsageFault_Handler(void)
  84:drivers/nvic.c **** {
 133              		.loc 1 84 0
 134              		.cfi_startproc
 135              		@ Volatile: function does not return.
 136              		@ args = 0, pretend = 0, frame = 0
 137              		@ frame_needed = 0, uses_anonymous_args = 0
 138              		@ link register save eliminated.
 139              	.L12:
 140 0032 FEE7     		b	.L12
 141              		.cfi_endproc
 142              	.LFE68:
 143              		.size	UsageFault_Handler, .-UsageFault_Handler
 144              		.align	1
ARM GAS  /tmp/ccUbtkx3.s 			page 5


 145              		.global	SVC_Handler
 146              		.syntax unified
 147              		.thumb
 148              		.thumb_func
 149              		.fpu softvfp
 150              		.type	SVC_Handler, %function
 151              	SVC_Handler:
 152              	.LFB69:
  85:drivers/nvic.c ****   /* Go to infinite loop when Usage Fault exception occurs */
  86:drivers/nvic.c ****   while (1)
  87:drivers/nvic.c ****   {
  88:drivers/nvic.c ****   }
  89:drivers/nvic.c **** }
  90:drivers/nvic.c **** 
  91:drivers/nvic.c **** /**
  92:drivers/nvic.c ****   * @brief  This function handles SVCall exception.
  93:drivers/nvic.c ****   * @param  None
  94:drivers/nvic.c ****   * @retval None
  95:drivers/nvic.c ****   */
  96:drivers/nvic.c **** void SVC_Handler(void)
  97:drivers/nvic.c **** {
 153              		.loc 1 97 0
 154              		.cfi_startproc
 155              		@ args = 0, pretend = 0, frame = 0
 156              		@ frame_needed = 0, uses_anonymous_args = 0
 157              		@ link register save eliminated.
 158 0034 7047     		bx	lr
 159              		.cfi_endproc
 160              	.LFE69:
 161              		.size	SVC_Handler, .-SVC_Handler
 162              		.align	1
 163              		.global	DebugMon_Handler
 164              		.syntax unified
 165              		.thumb
 166              		.thumb_func
 167              		.fpu softvfp
 168              		.type	DebugMon_Handler, %function
 169              	DebugMon_Handler:
 170              	.LFB70:
  98:drivers/nvic.c **** }
  99:drivers/nvic.c **** 
 100:drivers/nvic.c **** /**
 101:drivers/nvic.c ****   * @brief  This function handles Debug Monitor exception.
 102:drivers/nvic.c ****   * @param  None
 103:drivers/nvic.c ****   * @retval None
 104:drivers/nvic.c ****   */
 105:drivers/nvic.c **** void DebugMon_Handler(void)
 106:drivers/nvic.c **** {
 171              		.loc 1 106 0
 172              		.cfi_startproc
 173              		@ args = 0, pretend = 0, frame = 0
 174              		@ frame_needed = 0, uses_anonymous_args = 0
 175              		@ link register save eliminated.
 176 0036 7047     		bx	lr
 177              		.cfi_endproc
 178              	.LFE70:
 179              		.size	DebugMon_Handler, .-DebugMon_Handler
ARM GAS  /tmp/ccUbtkx3.s 			page 6


 180              		.align	1
 181              		.global	PendSV_Handler
 182              		.syntax unified
 183              		.thumb
 184              		.thumb_func
 185              		.fpu softvfp
 186              		.type	PendSV_Handler, %function
 187              	PendSV_Handler:
 188              	.LFB71:
 107:drivers/nvic.c **** }
 108:drivers/nvic.c **** 
 109:drivers/nvic.c **** /**
 110:drivers/nvic.c ****   * @brief  This function handles PendSV_Handler exception.
 111:drivers/nvic.c ****   * @param  None
 112:drivers/nvic.c ****   * @retval None
 113:drivers/nvic.c ****   */
 114:drivers/nvic.c **** void PendSV_Handler(void)
 115:drivers/nvic.c **** {
 189              		.loc 1 115 0
 190              		.cfi_startproc
 191              		@ args = 0, pretend = 0, frame = 0
 192              		@ frame_needed = 0, uses_anonymous_args = 0
 193              		@ link register save eliminated.
 194 0038 7047     		bx	lr
 195              		.cfi_endproc
 196              	.LFE71:
 197              		.size	PendSV_Handler, .-PendSV_Handler
 198              		.align	1
 199              		.global	SysTick_Handler
 200              		.syntax unified
 201              		.thumb
 202              		.thumb_func
 203              		.fpu softvfp
 204              		.type	SysTick_Handler, %function
 205              	SysTick_Handler:
 206              	.LFB72:
 116:drivers/nvic.c **** }
 117:drivers/nvic.c **** 
 118:drivers/nvic.c **** /**
 119:drivers/nvic.c ****   * @brief  This function handles SysTick Handler.
 120:drivers/nvic.c ****   * @param  None
 121:drivers/nvic.c ****   * @retval None
 122:drivers/nvic.c ****   */
 123:drivers/nvic.c **** void SysTick_Handler(void)
 124:drivers/nvic.c **** {
 207              		.loc 1 124 0
 208              		.cfi_startproc
 209              		@ args = 0, pretend = 0, frame = 0
 210              		@ frame_needed = 0, uses_anonymous_args = 0
 211              		@ link register save eliminated.
 212 003a 7047     		bx	lr
 213              		.cfi_endproc
 214              	.LFE72:
 215              		.size	SysTick_Handler, .-SysTick_Handler
 216              		.align	1
 217              		.global	TIM2_IRQHandler
 218              		.syntax unified
ARM GAS  /tmp/ccUbtkx3.s 			page 7


 219              		.thumb
 220              		.thumb_func
 221              		.fpu softvfp
 222              		.type	TIM2_IRQHandler, %function
 223              	TIM2_IRQHandler:
 224              	.LFB73:
 125:drivers/nvic.c **** }
 126:drivers/nvic.c **** 
 127:drivers/nvic.c **** /******************************************************************************/
 128:drivers/nvic.c **** /*            STM32F10x Peripherals Interrupt Handlers                        */
 129:drivers/nvic.c **** /******************************************************************************/
 130:drivers/nvic.c **** 
 131:drivers/nvic.c **** void TIM2_IRQHandler(void)
 132:drivers/nvic.c **** {
 225              		.loc 1 132 0
 226              		.cfi_startproc
 227              		@ args = 0, pretend = 0, frame = 0
 228              		@ frame_needed = 0, uses_anonymous_args = 0
 229              		.loc 1 132 0
 230 003c 08B5     		push	{r3, lr}
 231              		.cfi_def_cfa_offset 8
 232              		.cfi_offset 3, -8
 233              		.cfi_offset 14, -4
 133:drivers/nvic.c ****   //检测是否发生溢出更新事件
 134:drivers/nvic.c ****   if(TIM_GetITStatus(TIM2, TIM_IT_Update) != RESET) {
 234              		.loc 1 134 0
 235 003e 0121     		movs	r1, #1
 236 0040 4FF08040 		mov	r0, #1073741824
 237 0044 FFF7FEFF 		bl	TIM_GetITStatus
 238              	.LVL5:
 239 0048 00B9     		cbnz	r0, .L20
 240              	.L17:
 241 004a 08BD     		pop	{r3, pc}
 242              	.L20:
 135:drivers/nvic.c ****     //清除TIM2的中断待处理位
 136:drivers/nvic.c ****     TIM_ClearITPendingBit(TIM2 , TIM_FLAG_Update);
 243              		.loc 1 136 0
 244 004c 0121     		movs	r1, #1
 245 004e 4FF08040 		mov	r0, #1073741824
 246 0052 FFF7FEFF 		bl	TIM_ClearITPendingBit
 247              	.LVL6:
 137:drivers/nvic.c ****     timer_counter++;
 248              		.loc 1 137 0
 249 0056 024A     		ldr	r2, .L21
 250 0058 1388     		ldrh	r3, [r2]
 251 005a 0133     		adds	r3, r3, #1
 252 005c 1380     		strh	r3, [r2]	@ movhi
 138:drivers/nvic.c ****   }
 139:drivers/nvic.c **** }
 253              		.loc 1 139 0
 254 005e F4E7     		b	.L17
 255              	.L22:
 256              		.align	2
 257              	.L21:
 258 0060 00000000 		.word	.LANCHOR0
 259              		.cfi_endproc
 260              	.LFE73:
ARM GAS  /tmp/ccUbtkx3.s 			page 8


 261              		.size	TIM2_IRQHandler, .-TIM2_IRQHandler
 262              		.align	1
 263              		.global	RCC_IRQHandler
 264              		.syntax unified
 265              		.thumb
 266              		.thumb_func
 267              		.fpu softvfp
 268              		.type	RCC_IRQHandler, %function
 269              	RCC_IRQHandler:
 270              	.LFB74:
 140:drivers/nvic.c **** 
 141:drivers/nvic.c **** /**
 142:drivers/nvic.c ****   * @brief  This function handles RCC interrupt request. 
 143:drivers/nvic.c ****   * @param  None
 144:drivers/nvic.c ****   * @retval None
 145:drivers/nvic.c ****   */
 146:drivers/nvic.c **** void RCC_IRQHandler(void)
 147:drivers/nvic.c **** {
 271              		.loc 1 147 0
 272              		.cfi_startproc
 273              		@ args = 0, pretend = 0, frame = 0
 274              		@ frame_needed = 0, uses_anonymous_args = 0
 275 0064 08B5     		push	{r3, lr}
 276              		.cfi_def_cfa_offset 8
 277              		.cfi_offset 3, -8
 278              		.cfi_offset 14, -4
 148:drivers/nvic.c ****   if(RCC_GetITStatus(RCC_IT_HSERDY) != RESET)
 279              		.loc 1 148 0
 280 0066 0820     		movs	r0, #8
 281 0068 FFF7FEFF 		bl	RCC_GetITStatus
 282              	.LVL7:
 283 006c 20B9     		cbnz	r0, .L27
 284              	.L24:
 149:drivers/nvic.c ****   { 
 150:drivers/nvic.c ****     /* Clear HSERDY interrupt pending bit */
 151:drivers/nvic.c ****     RCC_ClearITPendingBit(RCC_IT_HSERDY);
 152:drivers/nvic.c **** 
 153:drivers/nvic.c ****     /* Check if the HSE clock is still available */
 154:drivers/nvic.c ****     if (RCC_GetFlagStatus(RCC_FLAG_HSERDY) != RESET)
 155:drivers/nvic.c ****     { 
 156:drivers/nvic.c **** #ifdef SYSCLK_HSE
 157:drivers/nvic.c ****       /* Select HSE as system clock source */
 158:drivers/nvic.c ****       RCC_SYSCLKConfig(RCC_SYSCLKSource_HSE);
 159:drivers/nvic.c **** #else
 160:drivers/nvic.c ****  #ifdef STM32F10X_CL
 161:drivers/nvic.c ****       /* Enable PLL2 */
 162:drivers/nvic.c ****       RCC_PLL2Cmd(ENABLE);
 163:drivers/nvic.c ****  #else
 164:drivers/nvic.c ****       /* Enable PLL: once the PLL is ready the PLLRDY interrupt is generated */ 
 165:drivers/nvic.c ****       RCC_PLLCmd(ENABLE);
 166:drivers/nvic.c ****  #endif	/* STM32F10X_CL */
 167:drivers/nvic.c **** #endif /* SYSCLK_HSE */      
 168:drivers/nvic.c ****     }
 169:drivers/nvic.c ****   }
 170:drivers/nvic.c **** 
 171:drivers/nvic.c **** #ifdef STM32F10X_CL
 172:drivers/nvic.c ****   if(RCC_GetITStatus(RCC_IT_PLL2RDY) != RESET)
ARM GAS  /tmp/ccUbtkx3.s 			page 9


 173:drivers/nvic.c ****   { 
 174:drivers/nvic.c ****     /* Clear PLL2RDY interrupt pending bit */
 175:drivers/nvic.c ****     RCC_ClearITPendingBit(RCC_IT_PLL2RDY);
 176:drivers/nvic.c **** 
 177:drivers/nvic.c ****     /* Enable PLL: once the PLL is ready the PLLRDY interrupt is generated */ 
 178:drivers/nvic.c ****     RCC_PLLCmd(ENABLE);
 179:drivers/nvic.c ****   }
 180:drivers/nvic.c **** #endif /* STM32F10X_CL */   
 181:drivers/nvic.c **** 
 182:drivers/nvic.c ****   if(RCC_GetITStatus(RCC_IT_PLLRDY) != RESET)
 285              		.loc 1 182 0
 286 006e 1020     		movs	r0, #16
 287 0070 FFF7FEFF 		bl	RCC_GetITStatus
 288              	.LVL8:
 289 0074 60B9     		cbnz	r0, .L28
 290              	.L23:
 291 0076 08BD     		pop	{r3, pc}
 292              	.L27:
 151:drivers/nvic.c **** 
 293              		.loc 1 151 0
 294 0078 0820     		movs	r0, #8
 295 007a FFF7FEFF 		bl	RCC_ClearITPendingBit
 296              	.LVL9:
 154:drivers/nvic.c ****     { 
 297              		.loc 1 154 0
 298 007e 3120     		movs	r0, #49
 299 0080 FFF7FEFF 		bl	RCC_GetFlagStatus
 300              	.LVL10:
 301 0084 0028     		cmp	r0, #0
 302 0086 F2D0     		beq	.L24
 165:drivers/nvic.c ****  #endif	/* STM32F10X_CL */
 303              		.loc 1 165 0
 304 0088 0120     		movs	r0, #1
 305 008a FFF7FEFF 		bl	RCC_PLLCmd
 306              	.LVL11:
 307 008e EEE7     		b	.L24
 308              	.L28:
 183:drivers/nvic.c ****   { 
 184:drivers/nvic.c ****     /* Clear PLLRDY interrupt pending bit */
 185:drivers/nvic.c ****     RCC_ClearITPendingBit(RCC_IT_PLLRDY);
 309              		.loc 1 185 0
 310 0090 1020     		movs	r0, #16
 311 0092 FFF7FEFF 		bl	RCC_ClearITPendingBit
 312              	.LVL12:
 186:drivers/nvic.c **** 
 187:drivers/nvic.c ****     /* Check if the PLL is still locked */
 188:drivers/nvic.c ****     if (RCC_GetFlagStatus(RCC_FLAG_PLLRDY) != RESET)
 313              		.loc 1 188 0
 314 0096 3920     		movs	r0, #57
 315 0098 FFF7FEFF 		bl	RCC_GetFlagStatus
 316              	.LVL13:
 317 009c 0028     		cmp	r0, #0
 318 009e EAD0     		beq	.L23
 189:drivers/nvic.c ****     { 
 190:drivers/nvic.c ****       /* Select PLL as system clock source */
 191:drivers/nvic.c ****       RCC_SYSCLKConfig(RCC_SYSCLKSource_PLLCLK);
 319              		.loc 1 191 0
ARM GAS  /tmp/ccUbtkx3.s 			page 10


 320 00a0 0220     		movs	r0, #2
 321 00a2 FFF7FEFF 		bl	RCC_SYSCLKConfig
 322              	.LVL14:
 192:drivers/nvic.c ****     }
 193:drivers/nvic.c ****   }
 194:drivers/nvic.c **** }
 323              		.loc 1 194 0
 324 00a6 E6E7     		b	.L23
 325              		.cfi_endproc
 326              	.LFE74:
 327              		.size	RCC_IRQHandler, .-RCC_IRQHandler
 328              		.global	timer_counter
 329              		.bss
 330              		.align	1
 331              		.set	.LANCHOR0,. + 0
 332              		.type	timer_counter, %object
 333              		.size	timer_counter, 2
 334              	timer_counter:
 335 0000 0000     		.space	2
 336              		.text
 337              	.Letext0:
 338              		.file 2 "/usr/arm-none-eabi/include/machine/_default_types.h"
 339              		.file 3 "/usr/arm-none-eabi/include/sys/_stdint.h"
 340              		.file 4 "/home/enbin/Documents/code/STM/stm32-quadrocopter/cmsis/core_cm3.h"
 341              		.file 5 "/home/enbin/Documents/code/STM/stm32-quadrocopter/lib/inc/system_stm32f10x.h"
 342              		.file 6 "/home/enbin/Documents/code/STM/stm32-quadrocopter/lib/inc/stm32f10x.h"
 343              		.file 7 "/home/enbin/Documents/code/STM/stm32-quadrocopter/drivers/MPU6050.h"
 344              		.file 8 "/usr/arm-none-eabi/include/sys/lock.h"
 345              		.file 9 "/usr/arm-none-eabi/include/sys/_types.h"
 346              		.file 10 "/usr/lib/gcc/arm-none-eabi/6.1.1/include/stddef.h"
 347              		.file 11 "/usr/arm-none-eabi/include/sys/reent.h"
 348              		.file 12 "/usr/arm-none-eabi/include/stdlib.h"
 349              		.file 13 "/usr/arm-none-eabi/include/math.h"
 350              		.file 14 "/usr/arm-none-eabi/include/sys/errno.h"
 351              		.file 15 "/home/enbin/Documents/code/STM/stm32-quadrocopter/lib/inc/stm32f10x_rcc.h"
 352              		.file 16 "/home/enbin/Documents/code/STM/stm32-quadrocopter/lib/inc/stm32f10x_tim.h"
 353              		.section	.debug_info,"",%progbits
 354              	.Ldebug_info0:
 355 0000 B80E0000 		.4byte	0xeb8
 356 0004 0400     		.2byte	0x4
 357 0006 00000000 		.4byte	.Ldebug_abbrev0
 358 000a 04       		.byte	0x4
 359 000b 01       		.uleb128 0x1
 360 000c BB050000 		.4byte	.LASF204
 361 0010 01       		.byte	0x1
 362 0011 38000000 		.4byte	.LASF205
 363 0015 15020000 		.4byte	.LASF206
 364 0019 00000000 		.4byte	.Ltext0
 365 001d A8000000 		.4byte	.Letext0-.Ltext0
 366 0021 00000000 		.4byte	.Ldebug_line0
 367 0025 02       		.uleb128 0x2
 368 0026 01       		.byte	0x1
 369 0027 06       		.byte	0x6
 370 0028 72010000 		.4byte	.LASF0
 371 002c 03       		.uleb128 0x3
 372 002d 83000000 		.4byte	.LASF3
 373 0031 02       		.byte	0x2
ARM GAS  /tmp/ccUbtkx3.s 			page 11


 374 0032 1D       		.byte	0x1d
 375 0033 37000000 		.4byte	0x37
 376 0037 02       		.uleb128 0x2
 377 0038 01       		.byte	0x1
 378 0039 08       		.byte	0x8
 379 003a 40050000 		.4byte	.LASF1
 380 003e 02       		.uleb128 0x2
 381 003f 02       		.byte	0x2
 382 0040 05       		.byte	0x5
 383 0041 1D000000 		.4byte	.LASF2
 384 0045 03       		.uleb128 0x3
 385 0046 E3020000 		.4byte	.LASF4
 386 004a 02       		.byte	0x2
 387 004b 2B       		.byte	0x2b
 388 004c 50000000 		.4byte	0x50
 389 0050 02       		.uleb128 0x2
 390 0051 02       		.byte	0x2
 391 0052 07       		.byte	0x7
 392 0053 70070000 		.4byte	.LASF5
 393 0057 03       		.uleb128 0x3
 394 0058 29070000 		.4byte	.LASF6
 395 005c 02       		.byte	0x2
 396 005d 3F       		.byte	0x3f
 397 005e 62000000 		.4byte	0x62
 398 0062 02       		.uleb128 0x2
 399 0063 04       		.byte	0x4
 400 0064 05       		.byte	0x5
 401 0065 05020000 		.4byte	.LASF7
 402 0069 03       		.uleb128 0x3
 403 006a F3020000 		.4byte	.LASF8
 404 006e 02       		.byte	0x2
 405 006f 41       		.byte	0x41
 406 0070 74000000 		.4byte	0x74
 407 0074 02       		.uleb128 0x2
 408 0075 04       		.byte	0x4
 409 0076 07       		.byte	0x7
 410 0077 6A030000 		.4byte	.LASF9
 411 007b 02       		.uleb128 0x2
 412 007c 08       		.byte	0x8
 413 007d 05       		.byte	0x5
 414 007e 73020000 		.4byte	.LASF10
 415 0082 02       		.uleb128 0x2
 416 0083 08       		.byte	0x8
 417 0084 07       		.byte	0x7
 418 0085 C9000000 		.4byte	.LASF11
 419 0089 04       		.uleb128 0x4
 420 008a 04       		.byte	0x4
 421 008b 05       		.byte	0x5
 422 008c 696E7400 		.ascii	"int\000"
 423 0090 02       		.uleb128 0x2
 424 0091 04       		.byte	0x4
 425 0092 07       		.byte	0x7
 426 0093 01070000 		.4byte	.LASF12
 427 0097 03       		.uleb128 0x3
 428 0098 35080000 		.4byte	.LASF13
 429 009c 03       		.byte	0x3
 430 009d 18       		.byte	0x18
ARM GAS  /tmp/ccUbtkx3.s 			page 12


 431 009e 2C000000 		.4byte	0x2c
 432 00a2 03       		.uleb128 0x3
 433 00a3 DF030000 		.4byte	.LASF14
 434 00a7 03       		.byte	0x3
 435 00a8 24       		.byte	0x24
 436 00a9 45000000 		.4byte	0x45
 437 00ad 05       		.uleb128 0x5
 438 00ae A2000000 		.4byte	0xa2
 439 00b2 03       		.uleb128 0x3
 440 00b3 38050000 		.4byte	.LASF15
 441 00b7 03       		.byte	0x3
 442 00b8 2C       		.byte	0x2c
 443 00b9 57000000 		.4byte	0x57
 444 00bd 05       		.uleb128 0x5
 445 00be B2000000 		.4byte	0xb2
 446 00c2 03       		.uleb128 0x3
 447 00c3 09010000 		.4byte	.LASF16
 448 00c7 03       		.byte	0x3
 449 00c8 30       		.byte	0x30
 450 00c9 69000000 		.4byte	0x69
 451 00cd 02       		.uleb128 0x2
 452 00ce 04       		.byte	0x4
 453 00cf 07       		.byte	0x7
 454 00d0 2E040000 		.4byte	.LASF17
 455 00d4 06       		.uleb128 0x6
 456 00d5 12010000 		.4byte	.LASF18
 457 00d9 04       		.byte	0x4
 458 00da 9606     		.2byte	0x696
 459 00dc BD000000 		.4byte	0xbd
 460 00e0 07       		.uleb128 0x7
 461 00e1 52030000 		.4byte	.LASF19
 462 00e5 05       		.byte	0x5
 463 00e6 35       		.byte	0x35
 464 00e7 C2000000 		.4byte	0xc2
 465 00eb 08       		.uleb128 0x8
 466 00ec 01       		.byte	0x1
 467 00ed 37000000 		.4byte	0x37
 468 00f1 06       		.byte	0x6
 469 00f2 0702     		.2byte	0x207
 470 00f4 05010000 		.4byte	0x105
 471 00f8 09       		.uleb128 0x9
 472 00f9 05040000 		.4byte	.LASF20
 473 00fd 00       		.byte	0
 474 00fe 0A       		.uleb128 0xa
 475 00ff 53455400 		.ascii	"SET\000"
 476 0103 01       		.byte	0x1
 477 0104 00       		.byte	0
 478 0105 08       		.uleb128 0x8
 479 0106 01       		.byte	0x1
 480 0107 37000000 		.4byte	0x37
 481 010b 06       		.byte	0x6
 482 010c 0902     		.2byte	0x209
 483 010e 1F010000 		.4byte	0x11f
 484 0112 09       		.uleb128 0x9
 485 0113 43030000 		.4byte	.LASF21
 486 0117 00       		.byte	0
 487 0118 09       		.uleb128 0x9
ARM GAS  /tmp/ccUbtkx3.s 			page 13


 488 0119 0E020000 		.4byte	.LASF22
 489 011d 01       		.byte	0x1
 490 011e 00       		.byte	0
 491 011f 0B       		.uleb128 0xb
 492 0120 50       		.byte	0x50
 493 0121 06       		.byte	0x6
 494 0122 A204     		.2byte	0x4a2
 495 0124 30030000 		.4byte	0x330
 496 0128 0C       		.uleb128 0xc
 497 0129 43523100 		.ascii	"CR1\000"
 498 012d 06       		.byte	0x6
 499 012e A404     		.2byte	0x4a4
 500 0130 AD000000 		.4byte	0xad
 501 0134 00       		.byte	0
 502 0135 0D       		.uleb128 0xd
 503 0136 D0040000 		.4byte	.LASF23
 504 013a 06       		.byte	0x6
 505 013b A504     		.2byte	0x4a5
 506 013d A2000000 		.4byte	0xa2
 507 0141 02       		.byte	0x2
 508 0142 0C       		.uleb128 0xc
 509 0143 43523200 		.ascii	"CR2\000"
 510 0147 06       		.byte	0x6
 511 0148 A604     		.2byte	0x4a6
 512 014a AD000000 		.4byte	0xad
 513 014e 04       		.byte	0x4
 514 014f 0D       		.uleb128 0xd
 515 0150 DA040000 		.4byte	.LASF24
 516 0154 06       		.byte	0x6
 517 0155 A704     		.2byte	0x4a7
 518 0157 A2000000 		.4byte	0xa2
 519 015b 06       		.byte	0x6
 520 015c 0D       		.uleb128 0xd
 521 015d F6060000 		.4byte	.LASF25
 522 0161 06       		.byte	0x6
 523 0162 A804     		.2byte	0x4a8
 524 0164 AD000000 		.4byte	0xad
 525 0168 08       		.byte	0x8
 526 0169 0D       		.uleb128 0xd
 527 016a E4040000 		.4byte	.LASF26
 528 016e 06       		.byte	0x6
 529 016f A904     		.2byte	0x4a9
 530 0171 A2000000 		.4byte	0xa2
 531 0175 0A       		.byte	0xa
 532 0176 0D       		.uleb128 0xd
 533 0177 33000000 		.4byte	.LASF27
 534 017b 06       		.byte	0x6
 535 017c AA04     		.2byte	0x4aa
 536 017e AD000000 		.4byte	0xad
 537 0182 0C       		.byte	0xc
 538 0183 0D       		.uleb128 0xd
 539 0184 EE040000 		.4byte	.LASF28
 540 0188 06       		.byte	0x6
 541 0189 AB04     		.2byte	0x4ab
 542 018b A2000000 		.4byte	0xa2
 543 018f 0E       		.byte	0xe
 544 0190 0C       		.uleb128 0xc
ARM GAS  /tmp/ccUbtkx3.s 			page 14


 545 0191 535200   		.ascii	"SR\000"
 546 0194 06       		.byte	0x6
 547 0195 AC04     		.2byte	0x4ac
 548 0197 AD000000 		.4byte	0xad
 549 019b 10       		.byte	0x10
 550 019c 0D       		.uleb128 0xd
 551 019d F8040000 		.4byte	.LASF29
 552 01a1 06       		.byte	0x6
 553 01a2 AD04     		.2byte	0x4ad
 554 01a4 A2000000 		.4byte	0xa2
 555 01a8 12       		.byte	0x12
 556 01a9 0C       		.uleb128 0xc
 557 01aa 45475200 		.ascii	"EGR\000"
 558 01ae 06       		.byte	0x6
 559 01af AE04     		.2byte	0x4ae
 560 01b1 AD000000 		.4byte	0xad
 561 01b5 14       		.byte	0x14
 562 01b6 0D       		.uleb128 0xd
 563 01b7 02050000 		.4byte	.LASF30
 564 01bb 06       		.byte	0x6
 565 01bc AF04     		.2byte	0x4af
 566 01be A2000000 		.4byte	0xa2
 567 01c2 16       		.byte	0x16
 568 01c3 0D       		.uleb128 0xd
 569 01c4 5F010000 		.4byte	.LASF31
 570 01c8 06       		.byte	0x6
 571 01c9 B004     		.2byte	0x4b0
 572 01cb AD000000 		.4byte	0xad
 573 01cf 18       		.byte	0x18
 574 01d0 0D       		.uleb128 0xd
 575 01d1 0C050000 		.4byte	.LASF32
 576 01d5 06       		.byte	0x6
 577 01d6 B104     		.2byte	0x4b1
 578 01d8 A2000000 		.4byte	0xa2
 579 01dc 1A       		.byte	0x1a
 580 01dd 0D       		.uleb128 0xd
 581 01de 65010000 		.4byte	.LASF33
 582 01e2 06       		.byte	0x6
 583 01e3 B204     		.2byte	0x4b2
 584 01e5 AD000000 		.4byte	0xad
 585 01e9 1C       		.byte	0x1c
 586 01ea 0D       		.uleb128 0xd
 587 01eb 99060000 		.4byte	.LASF34
 588 01ef 06       		.byte	0x6
 589 01f0 B304     		.2byte	0x4b3
 590 01f2 A2000000 		.4byte	0xa2
 591 01f6 1E       		.byte	0x1e
 592 01f7 0D       		.uleb128 0xd
 593 01f8 6E020000 		.4byte	.LASF35
 594 01fc 06       		.byte	0x6
 595 01fd B404     		.2byte	0x4b4
 596 01ff AD000000 		.4byte	0xad
 597 0203 20       		.byte	0x20
 598 0204 0D       		.uleb128 0xd
 599 0205 16050000 		.4byte	.LASF36
 600 0209 06       		.byte	0x6
 601 020a B504     		.2byte	0x4b5
ARM GAS  /tmp/ccUbtkx3.s 			page 15


 602 020c A2000000 		.4byte	0xa2
 603 0210 22       		.byte	0x22
 604 0211 0C       		.uleb128 0xc
 605 0212 434E5400 		.ascii	"CNT\000"
 606 0216 06       		.byte	0x6
 607 0217 B604     		.2byte	0x4b6
 608 0219 AD000000 		.4byte	0xad
 609 021d 24       		.byte	0x24
 610 021e 0D       		.uleb128 0xd
 611 021f 20050000 		.4byte	.LASF37
 612 0223 06       		.byte	0x6
 613 0224 B704     		.2byte	0x4b7
 614 0226 A2000000 		.4byte	0xa2
 615 022a 26       		.byte	0x26
 616 022b 0C       		.uleb128 0xc
 617 022c 50534300 		.ascii	"PSC\000"
 618 0230 06       		.byte	0x6
 619 0231 B804     		.2byte	0x4b8
 620 0233 AD000000 		.4byte	0xad
 621 0237 28       		.byte	0x28
 622 0238 0D       		.uleb128 0xd
 623 0239 AE070000 		.4byte	.LASF38
 624 023d 06       		.byte	0x6
 625 023e B904     		.2byte	0x4b9
 626 0240 A2000000 		.4byte	0xa2
 627 0244 2A       		.byte	0x2a
 628 0245 0C       		.uleb128 0xc
 629 0246 41525200 		.ascii	"ARR\000"
 630 024a 06       		.byte	0x6
 631 024b BA04     		.2byte	0x4ba
 632 024d AD000000 		.4byte	0xad
 633 0251 2C       		.byte	0x2c
 634 0252 0D       		.uleb128 0xd
 635 0253 4E040000 		.4byte	.LASF39
 636 0257 06       		.byte	0x6
 637 0258 BB04     		.2byte	0x4bb
 638 025a A2000000 		.4byte	0xa2
 639 025e 2E       		.byte	0x2e
 640 025f 0C       		.uleb128 0xc
 641 0260 52435200 		.ascii	"RCR\000"
 642 0264 06       		.byte	0x6
 643 0265 BC04     		.2byte	0x4bc
 644 0267 AD000000 		.4byte	0xad
 645 026b 30       		.byte	0x30
 646 026c 0D       		.uleb128 0xd
 647 026d DE070000 		.4byte	.LASF40
 648 0271 06       		.byte	0x6
 649 0272 BD04     		.2byte	0x4bd
 650 0274 A2000000 		.4byte	0xa2
 651 0278 32       		.byte	0x32
 652 0279 0D       		.uleb128 0xd
 653 027a E9070000 		.4byte	.LASF41
 654 027e 06       		.byte	0x6
 655 027f BE04     		.2byte	0x4be
 656 0281 AD000000 		.4byte	0xad
 657 0285 34       		.byte	0x34
 658 0286 0D       		.uleb128 0xd
ARM GAS  /tmp/ccUbtkx3.s 			page 16


 659 0287 BE010000 		.4byte	.LASF42
 660 028b 06       		.byte	0x6
 661 028c BF04     		.2byte	0x4bf
 662 028e A2000000 		.4byte	0xa2
 663 0292 36       		.byte	0x36
 664 0293 0D       		.uleb128 0xd
 665 0294 EE070000 		.4byte	.LASF43
 666 0298 06       		.byte	0x6
 667 0299 C004     		.2byte	0x4c0
 668 029b AD000000 		.4byte	0xad
 669 029f 38       		.byte	0x38
 670 02a0 0D       		.uleb128 0xd
 671 02a1 C9010000 		.4byte	.LASF44
 672 02a5 06       		.byte	0x6
 673 02a6 C104     		.2byte	0x4c1
 674 02a8 A2000000 		.4byte	0xa2
 675 02ac 3A       		.byte	0x3a
 676 02ad 0D       		.uleb128 0xd
 677 02ae F3070000 		.4byte	.LASF45
 678 02b2 06       		.byte	0x6
 679 02b3 C204     		.2byte	0x4c2
 680 02b5 AD000000 		.4byte	0xad
 681 02b9 3C       		.byte	0x3c
 682 02ba 0D       		.uleb128 0xd
 683 02bb D4010000 		.4byte	.LASF46
 684 02bf 06       		.byte	0x6
 685 02c0 C304     		.2byte	0x4c3
 686 02c2 A2000000 		.4byte	0xa2
 687 02c6 3E       		.byte	0x3e
 688 02c7 0D       		.uleb128 0xd
 689 02c8 F8070000 		.4byte	.LASF47
 690 02cc 06       		.byte	0x6
 691 02cd C404     		.2byte	0x4c4
 692 02cf AD000000 		.4byte	0xad
 693 02d3 40       		.byte	0x40
 694 02d4 0D       		.uleb128 0xd
 695 02d5 FD070000 		.4byte	.LASF48
 696 02d9 06       		.byte	0x6
 697 02da C504     		.2byte	0x4c5
 698 02dc A2000000 		.4byte	0xa2
 699 02e0 42       		.byte	0x42
 700 02e1 0D       		.uleb128 0xd
 701 02e2 43010000 		.4byte	.LASF49
 702 02e6 06       		.byte	0x6
 703 02e7 C604     		.2byte	0x4c6
 704 02e9 AD000000 		.4byte	0xad
 705 02ed 44       		.byte	0x44
 706 02ee 0D       		.uleb128 0xd
 707 02ef E7010000 		.4byte	.LASF50
 708 02f3 06       		.byte	0x6
 709 02f4 C704     		.2byte	0x4c7
 710 02f6 A2000000 		.4byte	0xa2
 711 02fa 46       		.byte	0x46
 712 02fb 0C       		.uleb128 0xc
 713 02fc 44435200 		.ascii	"DCR\000"
 714 0300 06       		.byte	0x6
 715 0301 C804     		.2byte	0x4c8
ARM GAS  /tmp/ccUbtkx3.s 			page 17


 716 0303 AD000000 		.4byte	0xad
 717 0307 48       		.byte	0x48
 718 0308 0D       		.uleb128 0xd
 719 0309 08080000 		.4byte	.LASF51
 720 030d 06       		.byte	0x6
 721 030e C904     		.2byte	0x4c9
 722 0310 A2000000 		.4byte	0xa2
 723 0314 4A       		.byte	0x4a
 724 0315 0D       		.uleb128 0xd
 725 0316 0E070000 		.4byte	.LASF52
 726 031a 06       		.byte	0x6
 727 031b CA04     		.2byte	0x4ca
 728 031d AD000000 		.4byte	0xad
 729 0321 4C       		.byte	0x4c
 730 0322 0D       		.uleb128 0xd
 731 0323 FA010000 		.4byte	.LASF53
 732 0327 06       		.byte	0x6
 733 0328 CB04     		.2byte	0x4cb
 734 032a A2000000 		.4byte	0xa2
 735 032e 4E       		.byte	0x4e
 736 032f 00       		.byte	0
 737 0330 0E       		.uleb128 0xe
 738 0331 9D000000 		.4byte	.LASF54
 739 0335 06       		.byte	0x6
 740 0336 CC04     		.2byte	0x4cc
 741 0338 1F010000 		.4byte	0x11f
 742 033c 0F       		.uleb128 0xf
 743 033d 10       		.uleb128 0x10
 744 033e 04       		.byte	0x4
 745 033f 3C030000 		.4byte	0x33c
 746 0343 11       		.uleb128 0x11
 747 0344 3E000000 		.4byte	0x3e
 748 0348 53030000 		.4byte	0x353
 749 034c 12       		.uleb128 0x12
 750 034d CD000000 		.4byte	0xcd
 751 0351 02       		.byte	0x2
 752 0352 00       		.byte	0
 753 0353 06       		.uleb128 0x6
 754 0354 2F010000 		.4byte	.LASF55
 755 0358 07       		.byte	0x7
 756 0359 6601     		.2byte	0x166
 757 035b 43030000 		.4byte	0x343
 758 035f 06       		.uleb128 0x6
 759 0360 59040000 		.4byte	.LASF56
 760 0364 07       		.byte	0x7
 761 0365 6601     		.2byte	0x166
 762 0367 43030000 		.4byte	0x343
 763 036b 06       		.uleb128 0x6
 764 036c 84010000 		.4byte	.LASF57
 765 0370 07       		.byte	0x7
 766 0371 6701     		.2byte	0x167
 767 0373 89000000 		.4byte	0x89
 768 0377 06       		.uleb128 0x6
 769 0378 3F040000 		.4byte	.LASF58
 770 037c 07       		.byte	0x7
 771 037d 6701     		.2byte	0x167
 772 037f 89000000 		.4byte	0x89
ARM GAS  /tmp/ccUbtkx3.s 			page 18


 773 0383 06       		.uleb128 0x6
 774 0384 5F040000 		.4byte	.LASF59
 775 0388 07       		.byte	0x7
 776 0389 6701     		.2byte	0x167
 777 038b 89000000 		.4byte	0x89
 778 038f 06       		.uleb128 0x6
 779 0390 B1010000 		.4byte	.LASF60
 780 0394 07       		.byte	0x7
 781 0395 6801     		.2byte	0x168
 782 0397 9B030000 		.4byte	0x39b
 783 039b 02       		.uleb128 0x2
 784 039c 04       		.byte	0x4
 785 039d 04       		.byte	0x4
 786 039e B3040000 		.4byte	.LASF61
 787 03a2 06       		.uleb128 0x6
 788 03a3 C3040000 		.4byte	.LASF62
 789 03a7 07       		.byte	0x7
 790 03a8 6901     		.2byte	0x169
 791 03aa 9B030000 		.4byte	0x39b
 792 03ae 06       		.uleb128 0x6
 793 03af 33070000 		.4byte	.LASF63
 794 03b3 07       		.byte	0x7
 795 03b4 6901     		.2byte	0x169
 796 03b6 9B030000 		.4byte	0x39b
 797 03ba 13       		.uleb128 0x13
 798 03bb 59617700 		.ascii	"Yaw\000"
 799 03bf 07       		.byte	0x7
 800 03c0 6901     		.2byte	0x169
 801 03c2 9B030000 		.4byte	0x39b
 802 03c6 14       		.uleb128 0x14
 803 03c7 04       		.byte	0x4
 804 03c8 03       		.uleb128 0x3
 805 03c9 1C040000 		.4byte	.LASF64
 806 03cd 08       		.byte	0x8
 807 03ce 07       		.byte	0x7
 808 03cf 89000000 		.4byte	0x89
 809 03d3 03       		.uleb128 0x3
 810 03d4 96000000 		.4byte	.LASF65
 811 03d8 09       		.byte	0x9
 812 03d9 2C       		.byte	0x2c
 813 03da 62000000 		.4byte	0x62
 814 03de 03       		.uleb128 0x3
 815 03df C3060000 		.4byte	.LASF66
 816 03e3 09       		.byte	0x9
 817 03e4 72       		.byte	0x72
 818 03e5 62000000 		.4byte	0x62
 819 03e9 0E       		.uleb128 0xe
 820 03ea AC040000 		.4byte	.LASF67
 821 03ee 0A       		.byte	0xa
 822 03ef 6501     		.2byte	0x165
 823 03f1 90000000 		.4byte	0x90
 824 03f5 15       		.uleb128 0x15
 825 03f6 04       		.byte	0x4
 826 03f7 09       		.byte	0x9
 827 03f8 A6       		.byte	0xa6
 828 03f9 14040000 		.4byte	0x414
 829 03fd 16       		.uleb128 0x16
ARM GAS  /tmp/ccUbtkx3.s 			page 19


 830 03fe BB030000 		.4byte	.LASF68
 831 0402 09       		.byte	0x9
 832 0403 A8       		.byte	0xa8
 833 0404 E9030000 		.4byte	0x3e9
 834 0408 16       		.uleb128 0x16
 835 0409 4B030000 		.4byte	.LASF69
 836 040d 09       		.byte	0x9
 837 040e A9       		.byte	0xa9
 838 040f 14040000 		.4byte	0x414
 839 0413 00       		.byte	0
 840 0414 11       		.uleb128 0x11
 841 0415 37000000 		.4byte	0x37
 842 0419 24040000 		.4byte	0x424
 843 041d 12       		.uleb128 0x12
 844 041e CD000000 		.4byte	0xcd
 845 0422 03       		.byte	0x3
 846 0423 00       		.byte	0
 847 0424 17       		.uleb128 0x17
 848 0425 08       		.byte	0x8
 849 0426 09       		.byte	0x9
 850 0427 A3       		.byte	0xa3
 851 0428 45040000 		.4byte	0x445
 852 042c 18       		.uleb128 0x18
 853 042d 0B040000 		.4byte	.LASF70
 854 0431 09       		.byte	0x9
 855 0432 A5       		.byte	0xa5
 856 0433 89000000 		.4byte	0x89
 857 0437 00       		.byte	0
 858 0438 18       		.uleb128 0x18
 859 0439 91060000 		.4byte	.LASF71
 860 043d 09       		.byte	0x9
 861 043e AA       		.byte	0xaa
 862 043f F5030000 		.4byte	0x3f5
 863 0443 04       		.byte	0x4
 864 0444 00       		.byte	0
 865 0445 03       		.uleb128 0x3
 866 0446 9E050000 		.4byte	.LASF72
 867 044a 09       		.byte	0x9
 868 044b AB       		.byte	0xab
 869 044c 24040000 		.4byte	0x424
 870 0450 03       		.uleb128 0x3
 871 0451 51080000 		.4byte	.LASF73
 872 0455 09       		.byte	0x9
 873 0456 AF       		.byte	0xaf
 874 0457 C8030000 		.4byte	0x3c8
 875 045b 03       		.uleb128 0x3
 876 045c 88070000 		.4byte	.LASF74
 877 0460 0B       		.byte	0xb
 878 0461 16       		.byte	0x16
 879 0462 74000000 		.4byte	0x74
 880 0466 19       		.uleb128 0x19
 881 0467 18030000 		.4byte	.LASF79
 882 046b 18       		.byte	0x18
 883 046c 0B       		.byte	0xb
 884 046d 2D       		.byte	0x2d
 885 046e B9040000 		.4byte	0x4b9
 886 0472 18       		.uleb128 0x18
ARM GAS  /tmp/ccUbtkx3.s 			page 20


 887 0473 20030000 		.4byte	.LASF75
 888 0477 0B       		.byte	0xb
 889 0478 2F       		.byte	0x2f
 890 0479 B9040000 		.4byte	0x4b9
 891 047d 00       		.byte	0
 892 047e 1A       		.uleb128 0x1a
 893 047f 5F6B00   		.ascii	"_k\000"
 894 0482 0B       		.byte	0xb
 895 0483 30       		.byte	0x30
 896 0484 89000000 		.4byte	0x89
 897 0488 04       		.byte	0x4
 898 0489 18       		.uleb128 0x18
 899 048a 66060000 		.4byte	.LASF76
 900 048e 0B       		.byte	0xb
 901 048f 30       		.byte	0x30
 902 0490 89000000 		.4byte	0x89
 903 0494 08       		.byte	0x8
 904 0495 18       		.uleb128 0x18
 905 0496 FE020000 		.4byte	.LASF77
 906 049a 0B       		.byte	0xb
 907 049b 30       		.byte	0x30
 908 049c 89000000 		.4byte	0x89
 909 04a0 0C       		.byte	0xc
 910 04a1 18       		.uleb128 0x18
 911 04a2 49040000 		.4byte	.LASF78
 912 04a6 0B       		.byte	0xb
 913 04a7 30       		.byte	0x30
 914 04a8 89000000 		.4byte	0x89
 915 04ac 10       		.byte	0x10
 916 04ad 1A       		.uleb128 0x1a
 917 04ae 5F7800   		.ascii	"_x\000"
 918 04b1 0B       		.byte	0xb
 919 04b2 31       		.byte	0x31
 920 04b3 BF040000 		.4byte	0x4bf
 921 04b7 14       		.byte	0x14
 922 04b8 00       		.byte	0
 923 04b9 10       		.uleb128 0x10
 924 04ba 04       		.byte	0x4
 925 04bb 66040000 		.4byte	0x466
 926 04bf 11       		.uleb128 0x11
 927 04c0 5B040000 		.4byte	0x45b
 928 04c4 CF040000 		.4byte	0x4cf
 929 04c8 12       		.uleb128 0x12
 930 04c9 CD000000 		.4byte	0xcd
 931 04cd 00       		.byte	0
 932 04ce 00       		.byte	0
 933 04cf 19       		.uleb128 0x19
 934 04d0 2C030000 		.4byte	.LASF80
 935 04d4 24       		.byte	0x24
 936 04d5 0B       		.byte	0xb
 937 04d6 35       		.byte	0x35
 938 04d7 48050000 		.4byte	0x548
 939 04db 18       		.uleb128 0x18
 940 04dc 56010000 		.4byte	.LASF81
 941 04e0 0B       		.byte	0xb
 942 04e1 37       		.byte	0x37
 943 04e2 89000000 		.4byte	0x89
ARM GAS  /tmp/ccUbtkx3.s 			page 21


 944 04e6 00       		.byte	0
 945 04e7 18       		.uleb128 0x18
 946 04e8 82080000 		.4byte	.LASF82
 947 04ec 0B       		.byte	0xb
 948 04ed 38       		.byte	0x38
 949 04ee 89000000 		.4byte	0x89
 950 04f2 04       		.byte	0x4
 951 04f3 18       		.uleb128 0x18
 952 04f4 94010000 		.4byte	.LASF83
 953 04f8 0B       		.byte	0xb
 954 04f9 39       		.byte	0x39
 955 04fa 89000000 		.4byte	0x89
 956 04fe 08       		.byte	0x8
 957 04ff 18       		.uleb128 0x18
 958 0500 C9080000 		.4byte	.LASF84
 959 0504 0B       		.byte	0xb
 960 0505 3A       		.byte	0x3a
 961 0506 89000000 		.4byte	0x89
 962 050a 0C       		.byte	0xc
 963 050b 18       		.uleb128 0x18
 964 050c 71040000 		.4byte	.LASF85
 965 0510 0B       		.byte	0xb
 966 0511 3B       		.byte	0x3b
 967 0512 89000000 		.4byte	0x89
 968 0516 10       		.byte	0x10
 969 0517 18       		.uleb128 0x18
 970 0518 D7060000 		.4byte	.LASF86
 971 051c 0B       		.byte	0xb
 972 051d 3C       		.byte	0x3c
 973 051e 89000000 		.4byte	0x89
 974 0522 14       		.byte	0x14
 975 0523 18       		.uleb128 0x18
 976 0524 B9060000 		.4byte	.LASF87
 977 0528 0B       		.byte	0xb
 978 0529 3D       		.byte	0x3d
 979 052a 89000000 		.4byte	0x89
 980 052e 18       		.byte	0x18
 981 052f 18       		.uleb128 0x18
 982 0530 6C050000 		.4byte	.LASF88
 983 0534 0B       		.byte	0xb
 984 0535 3E       		.byte	0x3e
 985 0536 89000000 		.4byte	0x89
 986 053a 1C       		.byte	0x1c
 987 053b 18       		.uleb128 0x18
 988 053c 68080000 		.4byte	.LASF89
 989 0540 0B       		.byte	0xb
 990 0541 3F       		.byte	0x3f
 991 0542 89000000 		.4byte	0x89
 992 0546 20       		.byte	0x20
 993 0547 00       		.byte	0
 994 0548 1B       		.uleb128 0x1b
 995 0549 A3010000 		.4byte	.LASF90
 996 054d 0801     		.2byte	0x108
 997 054f 0B       		.byte	0xb
 998 0550 48       		.byte	0x48
 999 0551 88050000 		.4byte	0x588
 1000 0555 18       		.uleb128 0x18
ARM GAS  /tmp/ccUbtkx3.s 			page 22


 1001 0556 69040000 		.4byte	.LASF91
 1002 055a 0B       		.byte	0xb
 1003 055b 49       		.byte	0x49
 1004 055c 88050000 		.4byte	0x588
 1005 0560 00       		.byte	0
 1006 0561 18       		.uleb128 0x18
 1007 0562 00000000 		.4byte	.LASF92
 1008 0566 0B       		.byte	0xb
 1009 0567 4A       		.byte	0x4a
 1010 0568 88050000 		.4byte	0x588
 1011 056c 80       		.byte	0x80
 1012 056d 1C       		.uleb128 0x1c
 1013 056e 55070000 		.4byte	.LASF93
 1014 0572 0B       		.byte	0xb
 1015 0573 4C       		.byte	0x4c
 1016 0574 5B040000 		.4byte	0x45b
 1017 0578 0001     		.2byte	0x100
 1018 057a 1C       		.uleb128 0x1c
 1019 057b 47020000 		.4byte	.LASF94
 1020 057f 0B       		.byte	0xb
 1021 0580 4F       		.byte	0x4f
 1022 0581 5B040000 		.4byte	0x45b
 1023 0585 0401     		.2byte	0x104
 1024 0587 00       		.byte	0
 1025 0588 11       		.uleb128 0x11
 1026 0589 C6030000 		.4byte	0x3c6
 1027 058d 98050000 		.4byte	0x598
 1028 0591 12       		.uleb128 0x12
 1029 0592 CD000000 		.4byte	0xcd
 1030 0596 1F       		.byte	0x1f
 1031 0597 00       		.byte	0
 1032 0598 1B       		.uleb128 0x1b
 1033 0599 7A040000 		.4byte	.LASF95
 1034 059d 9001     		.2byte	0x190
 1035 059f 0B       		.byte	0xb
 1036 05a0 5B       		.byte	0x5b
 1037 05a1 D6050000 		.4byte	0x5d6
 1038 05a5 18       		.uleb128 0x18
 1039 05a6 20030000 		.4byte	.LASF75
 1040 05aa 0B       		.byte	0xb
 1041 05ab 5C       		.byte	0x5c
 1042 05ac D6050000 		.4byte	0x5d6
 1043 05b0 00       		.byte	0
 1044 05b1 18       		.uleb128 0x18
 1045 05b2 3B060000 		.4byte	.LASF96
 1046 05b6 0B       		.byte	0xb
 1047 05b7 5D       		.byte	0x5d
 1048 05b8 89000000 		.4byte	0x89
 1049 05bc 04       		.byte	0x4
 1050 05bd 18       		.uleb128 0x18
 1051 05be EE020000 		.4byte	.LASF97
 1052 05c2 0B       		.byte	0xb
 1053 05c3 5F       		.byte	0x5f
 1054 05c4 DC050000 		.4byte	0x5dc
 1055 05c8 08       		.byte	0x8
 1056 05c9 18       		.uleb128 0x18
 1057 05ca A3010000 		.4byte	.LASF90
ARM GAS  /tmp/ccUbtkx3.s 			page 23


 1058 05ce 0B       		.byte	0xb
 1059 05cf 60       		.byte	0x60
 1060 05d0 48050000 		.4byte	0x548
 1061 05d4 88       		.byte	0x88
 1062 05d5 00       		.byte	0
 1063 05d6 10       		.uleb128 0x10
 1064 05d7 04       		.byte	0x4
 1065 05d8 98050000 		.4byte	0x598
 1066 05dc 11       		.uleb128 0x11
 1067 05dd 3D030000 		.4byte	0x33d
 1068 05e1 EC050000 		.4byte	0x5ec
 1069 05e5 12       		.uleb128 0x12
 1070 05e6 CD000000 		.4byte	0xcd
 1071 05ea 1F       		.byte	0x1f
 1072 05eb 00       		.byte	0
 1073 05ec 19       		.uleb128 0x19
 1074 05ed C9040000 		.4byte	.LASF98
 1075 05f1 08       		.byte	0x8
 1076 05f2 0B       		.byte	0xb
 1077 05f3 73       		.byte	0x73
 1078 05f4 11060000 		.4byte	0x611
 1079 05f8 18       		.uleb128 0x18
 1080 05f9 8E010000 		.4byte	.LASF99
 1081 05fd 0B       		.byte	0xb
 1082 05fe 74       		.byte	0x74
 1083 05ff 11060000 		.4byte	0x611
 1084 0603 00       		.byte	0
 1085 0604 18       		.uleb128 0x18
 1086 0605 FB060000 		.4byte	.LASF100
 1087 0609 0B       		.byte	0xb
 1088 060a 75       		.byte	0x75
 1089 060b 89000000 		.4byte	0x89
 1090 060f 04       		.byte	0x4
 1091 0610 00       		.byte	0
 1092 0611 10       		.uleb128 0x10
 1093 0612 04       		.byte	0x4
 1094 0613 37000000 		.4byte	0x37
 1095 0617 19       		.uleb128 0x19
 1096 0618 A9050000 		.4byte	.LASF101
 1097 061c 68       		.byte	0x68
 1098 061d 0B       		.byte	0xb
 1099 061e B3       		.byte	0xb3
 1100 061f 41070000 		.4byte	0x741
 1101 0623 1A       		.uleb128 0x1a
 1102 0624 5F7000   		.ascii	"_p\000"
 1103 0627 0B       		.byte	0xb
 1104 0628 B4       		.byte	0xb4
 1105 0629 11060000 		.4byte	0x611
 1106 062d 00       		.byte	0
 1107 062e 1A       		.uleb128 0x1a
 1108 062f 5F7200   		.ascii	"_r\000"
 1109 0632 0B       		.byte	0xb
 1110 0633 B5       		.byte	0xb5
 1111 0634 89000000 		.4byte	0x89
 1112 0638 04       		.byte	0x4
 1113 0639 1A       		.uleb128 0x1a
 1114 063a 5F7700   		.ascii	"_w\000"
ARM GAS  /tmp/ccUbtkx3.s 			page 24


 1115 063d 0B       		.byte	0xb
 1116 063e B6       		.byte	0xb6
 1117 063f 89000000 		.4byte	0x89
 1118 0643 08       		.byte	0x8
 1119 0644 18       		.uleb128 0x18
 1120 0645 2E080000 		.4byte	.LASF102
 1121 0649 0B       		.byte	0xb
 1122 064a B7       		.byte	0xb7
 1123 064b 3E000000 		.4byte	0x3e
 1124 064f 0C       		.byte	0xc
 1125 0650 18       		.uleb128 0x18
 1126 0651 7C030000 		.4byte	.LASF103
 1127 0655 0B       		.byte	0xb
 1128 0656 B8       		.byte	0xb8
 1129 0657 3E000000 		.4byte	0x3e
 1130 065b 0E       		.byte	0xe
 1131 065c 1A       		.uleb128 0x1a
 1132 065d 5F626600 		.ascii	"_bf\000"
 1133 0661 0B       		.byte	0xb
 1134 0662 B9       		.byte	0xb9
 1135 0663 EC050000 		.4byte	0x5ec
 1136 0667 10       		.byte	0x10
 1137 0668 18       		.uleb128 0x18
 1138 0669 EF000000 		.4byte	.LASF104
 1139 066d 0B       		.byte	0xb
 1140 066e BA       		.byte	0xba
 1141 066f 89000000 		.4byte	0x89
 1142 0673 18       		.byte	0x18
 1143 0674 18       		.uleb128 0x18
 1144 0675 DF010000 		.4byte	.LASF105
 1145 0679 0B       		.byte	0xb
 1146 067a C1       		.byte	0xc1
 1147 067b C6030000 		.4byte	0x3c6
 1148 067f 1C       		.byte	0x1c
 1149 0680 18       		.uleb128 0x18
 1150 0681 26030000 		.4byte	.LASF106
 1151 0685 0B       		.byte	0xb
 1152 0686 C3       		.byte	0xc3
 1153 0687 AE080000 		.4byte	0x8ae
 1154 068b 20       		.byte	0x20
 1155 068c 18       		.uleb128 0x18
 1156 068d FE030000 		.4byte	.LASF107
 1157 0691 0B       		.byte	0xb
 1158 0692 C5       		.byte	0xc5
 1159 0693 DD080000 		.4byte	0x8dd
 1160 0697 24       		.byte	0x24
 1161 0698 18       		.uleb128 0x18
 1162 0699 A3060000 		.4byte	.LASF108
 1163 069d 0B       		.byte	0xb
 1164 069e C8       		.byte	0xc8
 1165 069f 01090000 		.4byte	0x901
 1166 06a3 28       		.byte	0x28
 1167 06a4 18       		.uleb128 0x18
 1168 06a5 6B010000 		.4byte	.LASF109
 1169 06a9 0B       		.byte	0xb
 1170 06aa C9       		.byte	0xc9
 1171 06ab 1B090000 		.4byte	0x91b
ARM GAS  /tmp/ccUbtkx3.s 			page 25


 1172 06af 2C       		.byte	0x2c
 1173 06b0 1A       		.uleb128 0x1a
 1174 06b1 5F756200 		.ascii	"_ub\000"
 1175 06b5 0B       		.byte	0xb
 1176 06b6 CC       		.byte	0xcc
 1177 06b7 EC050000 		.4byte	0x5ec
 1178 06bb 30       		.byte	0x30
 1179 06bc 1A       		.uleb128 0x1a
 1180 06bd 5F757000 		.ascii	"_up\000"
 1181 06c1 0B       		.byte	0xb
 1182 06c2 CD       		.byte	0xcd
 1183 06c3 11060000 		.4byte	0x611
 1184 06c7 38       		.byte	0x38
 1185 06c8 1A       		.uleb128 0x1a
 1186 06c9 5F757200 		.ascii	"_ur\000"
 1187 06cd 0B       		.byte	0xb
 1188 06ce CE       		.byte	0xce
 1189 06cf 89000000 		.4byte	0x89
 1190 06d3 3C       		.byte	0x3c
 1191 06d4 18       		.uleb128 0x18
 1192 06d5 7E010000 		.4byte	.LASF110
 1193 06d9 0B       		.byte	0xb
 1194 06da D1       		.byte	0xd1
 1195 06db 21090000 		.4byte	0x921
 1196 06df 40       		.byte	0x40
 1197 06e0 18       		.uleb128 0x18
 1198 06e1 5A080000 		.4byte	.LASF111
 1199 06e5 0B       		.byte	0xb
 1200 06e6 D2       		.byte	0xd2
 1201 06e7 31090000 		.4byte	0x931
 1202 06eb 43       		.byte	0x43
 1203 06ec 1A       		.uleb128 0x1a
 1204 06ed 5F6C6200 		.ascii	"_lb\000"
 1205 06f1 0B       		.byte	0xb
 1206 06f2 D5       		.byte	0xd5
 1207 06f3 EC050000 		.4byte	0x5ec
 1208 06f7 44       		.byte	0x44
 1209 06f8 18       		.uleb128 0x18
 1210 06f9 ED060000 		.4byte	.LASF112
 1211 06fd 0B       		.byte	0xb
 1212 06fe D8       		.byte	0xd8
 1213 06ff 89000000 		.4byte	0x89
 1214 0703 4C       		.byte	0x4c
 1215 0704 18       		.uleb128 0x18
 1216 0705 37040000 		.4byte	.LASF113
 1217 0709 0B       		.byte	0xb
 1218 070a D9       		.byte	0xd9
 1219 070b D3030000 		.4byte	0x3d3
 1220 070f 50       		.byte	0x50
 1221 0710 18       		.uleb128 0x18
 1222 0711 82030000 		.4byte	.LASF114
 1223 0715 0B       		.byte	0xb
 1224 0716 DC       		.byte	0xdc
 1225 0717 5F070000 		.4byte	0x75f
 1226 071b 54       		.byte	0x54
 1227 071c 18       		.uleb128 0x18
 1228 071d E8030000 		.4byte	.LASF115
ARM GAS  /tmp/ccUbtkx3.s 			page 26


 1229 0721 0B       		.byte	0xb
 1230 0722 E0       		.byte	0xe0
 1231 0723 50040000 		.4byte	0x450
 1232 0727 58       		.byte	0x58
 1233 0728 18       		.uleb128 0x18
 1234 0729 7A000000 		.4byte	.LASF116
 1235 072d 0B       		.byte	0xb
 1236 072e E2       		.byte	0xe2
 1237 072f 45040000 		.4byte	0x445
 1238 0733 5C       		.byte	0x5c
 1239 0734 18       		.uleb128 0x18
 1240 0735 84050000 		.4byte	.LASF117
 1241 0739 0B       		.byte	0xb
 1242 073a E3       		.byte	0xe3
 1243 073b 89000000 		.4byte	0x89
 1244 073f 64       		.byte	0x64
 1245 0740 00       		.byte	0
 1246 0741 1D       		.uleb128 0x1d
 1247 0742 89000000 		.4byte	0x89
 1248 0746 5F070000 		.4byte	0x75f
 1249 074a 1E       		.uleb128 0x1e
 1250 074b 5F070000 		.4byte	0x75f
 1251 074f 1E       		.uleb128 0x1e
 1252 0750 C6030000 		.4byte	0x3c6
 1253 0754 1E       		.uleb128 0x1e
 1254 0755 9C080000 		.4byte	0x89c
 1255 0759 1E       		.uleb128 0x1e
 1256 075a 89000000 		.4byte	0x89
 1257 075e 00       		.byte	0
 1258 075f 10       		.uleb128 0x10
 1259 0760 04       		.byte	0x4
 1260 0761 6A070000 		.4byte	0x76a
 1261 0765 1F       		.uleb128 0x1f
 1262 0766 5F070000 		.4byte	0x75f
 1263 076a 20       		.uleb128 0x20
 1264 076b 6E060000 		.4byte	.LASF118
 1265 076f 2804     		.2byte	0x428
 1266 0771 0B       		.byte	0xb
 1267 0772 3802     		.2byte	0x238
 1268 0774 9C080000 		.4byte	0x89c
 1269 0778 0D       		.uleb128 0xd
 1270 0779 E1060000 		.4byte	.LASF119
 1271 077d 0B       		.byte	0xb
 1272 077e 3A02     		.2byte	0x23a
 1273 0780 89000000 		.4byte	0x89
 1274 0784 00       		.byte	0
 1275 0785 0D       		.uleb128 0xd
 1276 0786 4F020000 		.4byte	.LASF120
 1277 078a 0B       		.byte	0xb
 1278 078b 3F02     		.2byte	0x23f
 1279 078d 88090000 		.4byte	0x988
 1280 0791 04       		.byte	0x4
 1281 0792 0D       		.uleb128 0xd
 1282 0793 13080000 		.4byte	.LASF121
 1283 0797 0B       		.byte	0xb
 1284 0798 3F02     		.2byte	0x23f
 1285 079a 88090000 		.4byte	0x988
ARM GAS  /tmp/ccUbtkx3.s 			page 27


 1286 079e 08       		.byte	0x8
 1287 079f 0D       		.uleb128 0xd
 1288 07a0 10030000 		.4byte	.LASF122
 1289 07a4 0B       		.byte	0xb
 1290 07a5 3F02     		.2byte	0x23f
 1291 07a7 88090000 		.4byte	0x988
 1292 07ab 0C       		.byte	0xc
 1293 07ac 0D       		.uleb128 0xd
 1294 07ad 36060000 		.4byte	.LASF123
 1295 07b1 0B       		.byte	0xb
 1296 07b2 4102     		.2byte	0x241
 1297 07b4 89000000 		.4byte	0x89
 1298 07b8 10       		.byte	0x10
 1299 07b9 0D       		.uleb128 0xd
 1300 07ba 6F000000 		.4byte	.LASF124
 1301 07be 0B       		.byte	0xb
 1302 07bf 4202     		.2byte	0x242
 1303 07c1 6A0B0000 		.4byte	0xb6a
 1304 07c5 14       		.byte	0x14
 1305 07c6 0D       		.uleb128 0xd
 1306 07c7 CC070000 		.4byte	.LASF125
 1307 07cb 0B       		.byte	0xb
 1308 07cc 4402     		.2byte	0x244
 1309 07ce 89000000 		.4byte	0x89
 1310 07d2 30       		.byte	0x30
 1311 07d3 0D       		.uleb128 0xd
 1312 07d4 40060000 		.4byte	.LASF126
 1313 07d8 0B       		.byte	0xb
 1314 07d9 4502     		.2byte	0x245
 1315 07db D2080000 		.4byte	0x8d2
 1316 07df 34       		.byte	0x34
 1317 07e0 0D       		.uleb128 0xd
 1318 07e1 92040000 		.4byte	.LASF127
 1319 07e5 0B       		.byte	0xb
 1320 07e6 4702     		.2byte	0x247
 1321 07e8 89000000 		.4byte	0x89
 1322 07ec 38       		.byte	0x38
 1323 07ed 0D       		.uleb128 0xd
 1324 07ee 5C060000 		.4byte	.LASF128
 1325 07f2 0B       		.byte	0xb
 1326 07f3 4902     		.2byte	0x249
 1327 07f5 850B0000 		.4byte	0xb85
 1328 07f9 3C       		.byte	0x3c
 1329 07fa 0D       		.uleb128 0xd
 1330 07fb B3030000 		.4byte	.LASF129
 1331 07ff 0B       		.byte	0xb
 1332 0800 4C02     		.2byte	0x24c
 1333 0802 B9040000 		.4byte	0x4b9
 1334 0806 40       		.byte	0x40
 1335 0807 0D       		.uleb128 0xd
 1336 0808 64020000 		.4byte	.LASF130
 1337 080c 0B       		.byte	0xb
 1338 080d 4D02     		.2byte	0x24d
 1339 080f 89000000 		.4byte	0x89
 1340 0813 44       		.byte	0x44
 1341 0814 0D       		.uleb128 0xd
 1342 0815 AD080000 		.4byte	.LASF131
ARM GAS  /tmp/ccUbtkx3.s 			page 28


 1343 0819 0B       		.byte	0xb
 1344 081a 4E02     		.2byte	0x24e
 1345 081c B9040000 		.4byte	0x4b9
 1346 0820 48       		.byte	0x48
 1347 0821 0D       		.uleb128 0xd
 1348 0822 B9040000 		.4byte	.LASF132
 1349 0826 0B       		.byte	0xb
 1350 0827 4F02     		.2byte	0x24f
 1351 0829 8B0B0000 		.4byte	0xb8b
 1352 082d 4C       		.byte	0x4c
 1353 082e 0D       		.uleb128 0xd
 1354 082f 62030000 		.4byte	.LASF133
 1355 0833 0B       		.byte	0xb
 1356 0834 5202     		.2byte	0x252
 1357 0836 89000000 		.4byte	0x89
 1358 083a 50       		.byte	0x50
 1359 083b 0D       		.uleb128 0xd
 1360 083c 8E020000 		.4byte	.LASF134
 1361 0840 0B       		.byte	0xb
 1362 0841 5302     		.2byte	0x253
 1363 0843 9C080000 		.4byte	0x89c
 1364 0847 54       		.byte	0x54
 1365 0848 0D       		.uleb128 0xd
 1366 0849 DA030000 		.4byte	.LASF135
 1367 084d 0B       		.byte	0xb
 1368 084e 7602     		.2byte	0x276
 1369 0850 480B0000 		.4byte	0xb48
 1370 0854 58       		.byte	0x58
 1371 0855 21       		.uleb128 0x21
 1372 0856 7A040000 		.4byte	.LASF95
 1373 085a 0B       		.byte	0xb
 1374 085b 7A02     		.2byte	0x27a
 1375 085d D6050000 		.4byte	0x5d6
 1376 0861 4801     		.2byte	0x148
 1377 0863 21       		.uleb128 0x21
 1378 0864 8D000000 		.4byte	.LASF136
 1379 0868 0B       		.byte	0xb
 1380 0869 7B02     		.2byte	0x27b
 1381 086b 98050000 		.4byte	0x598
 1382 086f 4C01     		.2byte	0x14c
 1383 0871 21       		.uleb128 0x21
 1384 0872 47080000 		.4byte	.LASF137
 1385 0876 0B       		.byte	0xb
 1386 0877 7F02     		.2byte	0x27f
 1387 0879 9C0B0000 		.4byte	0xb9c
 1388 087d DC02     		.2byte	0x2dc
 1389 087f 21       		.uleb128 0x21
 1390 0880 F2010000 		.4byte	.LASF138
 1391 0884 0B       		.byte	0xb
 1392 0885 8402     		.2byte	0x284
 1393 0887 4D090000 		.4byte	0x94d
 1394 088b E002     		.2byte	0x2e0
 1395 088d 21       		.uleb128 0x21
 1396 088e 9E010000 		.4byte	.LASF139
 1397 0892 0B       		.byte	0xb
 1398 0893 8502     		.2byte	0x285
 1399 0895 A80B0000 		.4byte	0xba8
ARM GAS  /tmp/ccUbtkx3.s 			page 29


 1400 0899 EC02     		.2byte	0x2ec
 1401 089b 00       		.byte	0
 1402 089c 10       		.uleb128 0x10
 1403 089d 04       		.byte	0x4
 1404 089e A2080000 		.4byte	0x8a2
 1405 08a2 02       		.uleb128 0x2
 1406 08a3 01       		.byte	0x1
 1407 08a4 08       		.byte	0x8
 1408 08a5 E8060000 		.4byte	.LASF140
 1409 08a9 1F       		.uleb128 0x1f
 1410 08aa A2080000 		.4byte	0x8a2
 1411 08ae 10       		.uleb128 0x10
 1412 08af 04       		.byte	0x4
 1413 08b0 41070000 		.4byte	0x741
 1414 08b4 1D       		.uleb128 0x1d
 1415 08b5 89000000 		.4byte	0x89
 1416 08b9 D2080000 		.4byte	0x8d2
 1417 08bd 1E       		.uleb128 0x1e
 1418 08be 5F070000 		.4byte	0x75f
 1419 08c2 1E       		.uleb128 0x1e
 1420 08c3 C6030000 		.4byte	0x3c6
 1421 08c7 1E       		.uleb128 0x1e
 1422 08c8 D2080000 		.4byte	0x8d2
 1423 08cc 1E       		.uleb128 0x1e
 1424 08cd 89000000 		.4byte	0x89
 1425 08d1 00       		.byte	0
 1426 08d2 10       		.uleb128 0x10
 1427 08d3 04       		.byte	0x4
 1428 08d4 A9080000 		.4byte	0x8a9
 1429 08d8 1F       		.uleb128 0x1f
 1430 08d9 D2080000 		.4byte	0x8d2
 1431 08dd 10       		.uleb128 0x10
 1432 08de 04       		.byte	0x4
 1433 08df B4080000 		.4byte	0x8b4
 1434 08e3 1D       		.uleb128 0x1d
 1435 08e4 DE030000 		.4byte	0x3de
 1436 08e8 01090000 		.4byte	0x901
 1437 08ec 1E       		.uleb128 0x1e
 1438 08ed 5F070000 		.4byte	0x75f
 1439 08f1 1E       		.uleb128 0x1e
 1440 08f2 C6030000 		.4byte	0x3c6
 1441 08f6 1E       		.uleb128 0x1e
 1442 08f7 DE030000 		.4byte	0x3de
 1443 08fb 1E       		.uleb128 0x1e
 1444 08fc 89000000 		.4byte	0x89
 1445 0900 00       		.byte	0
 1446 0901 10       		.uleb128 0x10
 1447 0902 04       		.byte	0x4
 1448 0903 E3080000 		.4byte	0x8e3
 1449 0907 1D       		.uleb128 0x1d
 1450 0908 89000000 		.4byte	0x89
 1451 090c 1B090000 		.4byte	0x91b
 1452 0910 1E       		.uleb128 0x1e
 1453 0911 5F070000 		.4byte	0x75f
 1454 0915 1E       		.uleb128 0x1e
 1455 0916 C6030000 		.4byte	0x3c6
 1456 091a 00       		.byte	0
ARM GAS  /tmp/ccUbtkx3.s 			page 30


 1457 091b 10       		.uleb128 0x10
 1458 091c 04       		.byte	0x4
 1459 091d 07090000 		.4byte	0x907
 1460 0921 11       		.uleb128 0x11
 1461 0922 37000000 		.4byte	0x37
 1462 0926 31090000 		.4byte	0x931
 1463 092a 12       		.uleb128 0x12
 1464 092b CD000000 		.4byte	0xcd
 1465 092f 02       		.byte	0x2
 1466 0930 00       		.byte	0
 1467 0931 11       		.uleb128 0x11
 1468 0932 37000000 		.4byte	0x37
 1469 0936 41090000 		.4byte	0x941
 1470 093a 12       		.uleb128 0x12
 1471 093b CD000000 		.4byte	0xcd
 1472 093f 00       		.byte	0
 1473 0940 00       		.byte	0
 1474 0941 0E       		.uleb128 0xe
 1475 0942 97050000 		.4byte	.LASF141
 1476 0946 0B       		.byte	0xb
 1477 0947 1D01     		.2byte	0x11d
 1478 0949 17060000 		.4byte	0x617
 1479 094d 22       		.uleb128 0x22
 1480 094e 1B080000 		.4byte	.LASF142
 1481 0952 0C       		.byte	0xc
 1482 0953 0B       		.byte	0xb
 1483 0954 2101     		.2byte	0x121
 1484 0956 82090000 		.4byte	0x982
 1485 095a 0D       		.uleb128 0xd
 1486 095b 20030000 		.4byte	.LASF75
 1487 095f 0B       		.byte	0xb
 1488 0960 2301     		.2byte	0x123
 1489 0962 82090000 		.4byte	0x982
 1490 0966 00       		.byte	0
 1491 0967 0D       		.uleb128 0xd
 1492 0968 88030000 		.4byte	.LASF143
 1493 096c 0B       		.byte	0xb
 1494 096d 2401     		.2byte	0x124
 1495 096f 89000000 		.4byte	0x89
 1496 0973 04       		.byte	0x4
 1497 0974 0D       		.uleb128 0xd
 1498 0975 4E050000 		.4byte	.LASF144
 1499 0979 0B       		.byte	0xb
 1500 097a 2501     		.2byte	0x125
 1501 097c 88090000 		.4byte	0x988
 1502 0980 08       		.byte	0x8
 1503 0981 00       		.byte	0
 1504 0982 10       		.uleb128 0x10
 1505 0983 04       		.byte	0x4
 1506 0984 4D090000 		.4byte	0x94d
 1507 0988 10       		.uleb128 0x10
 1508 0989 04       		.byte	0x4
 1509 098a 41090000 		.4byte	0x941
 1510 098e 22       		.uleb128 0x22
 1511 098f 58000000 		.4byte	.LASF145
 1512 0993 0E       		.byte	0xe
 1513 0994 0B       		.byte	0xb
ARM GAS  /tmp/ccUbtkx3.s 			page 31


 1514 0995 3D01     		.2byte	0x13d
 1515 0997 C3090000 		.4byte	0x9c3
 1516 099b 0D       		.uleb128 0xd
 1517 099c 75060000 		.4byte	.LASF146
 1518 09a0 0B       		.byte	0xb
 1519 09a1 3E01     		.2byte	0x13e
 1520 09a3 C3090000 		.4byte	0x9c3
 1521 09a7 00       		.byte	0
 1522 09a8 0D       		.uleb128 0xd
 1523 09a9 F8030000 		.4byte	.LASF147
 1524 09ad 0B       		.byte	0xb
 1525 09ae 3F01     		.2byte	0x13f
 1526 09b0 C3090000 		.4byte	0x9c3
 1527 09b4 06       		.byte	0x6
 1528 09b5 0D       		.uleb128 0xd
 1529 09b6 83070000 		.4byte	.LASF148
 1530 09ba 0B       		.byte	0xb
 1531 09bb 4001     		.2byte	0x140
 1532 09bd 50000000 		.4byte	0x50
 1533 09c1 0C       		.byte	0xc
 1534 09c2 00       		.byte	0
 1535 09c3 11       		.uleb128 0x11
 1536 09c4 50000000 		.4byte	0x50
 1537 09c8 D3090000 		.4byte	0x9d3
 1538 09cc 12       		.uleb128 0x12
 1539 09cd CD000000 		.4byte	0xcd
 1540 09d1 02       		.byte	0x2
 1541 09d2 00       		.byte	0
 1542 09d3 0B       		.uleb128 0xb
 1543 09d4 D0       		.byte	0xd0
 1544 09d5 0B       		.byte	0xb
 1545 09d6 5702     		.2byte	0x257
 1546 09d8 D40A0000 		.4byte	0xad4
 1547 09dc 0D       		.uleb128 0xd
 1548 09dd D6020000 		.4byte	.LASF149
 1549 09e1 0B       		.byte	0xb
 1550 09e2 5902     		.2byte	0x259
 1551 09e4 90000000 		.4byte	0x90
 1552 09e8 00       		.byte	0
 1553 09e9 0D       		.uleb128 0xd
 1554 09ea 48070000 		.4byte	.LASF150
 1555 09ee 0B       		.byte	0xb
 1556 09ef 5A02     		.2byte	0x25a
 1557 09f1 9C080000 		.4byte	0x89c
 1558 09f5 04       		.byte	0x4
 1559 09f6 0D       		.uleb128 0xd
 1560 09f7 A6030000 		.4byte	.LASF151
 1561 09fb 0B       		.byte	0xb
 1562 09fc 5B02     		.2byte	0x25b
 1563 09fe D40A0000 		.4byte	0xad4
 1564 0a02 08       		.byte	0x8
 1565 0a03 0D       		.uleb128 0xd
 1566 0a04 73080000 		.4byte	.LASF152
 1567 0a08 0B       		.byte	0xb
 1568 0a09 5C02     		.2byte	0x25c
 1569 0a0b CF040000 		.4byte	0x4cf
 1570 0a0f 24       		.byte	0x24
ARM GAS  /tmp/ccUbtkx3.s 			page 32


 1571 0a10 0D       		.uleb128 0xd
 1572 0a11 9D040000 		.4byte	.LASF153
 1573 0a15 0B       		.byte	0xb
 1574 0a16 5D02     		.2byte	0x25d
 1575 0a18 89000000 		.4byte	0x89
 1576 0a1c 48       		.byte	0x48
 1577 0a1d 0D       		.uleb128 0xd
 1578 0a1e 8F030000 		.4byte	.LASF154
 1579 0a22 0B       		.byte	0xb
 1580 0a23 5E02     		.2byte	0x25e
 1581 0a25 82000000 		.4byte	0x82
 1582 0a29 50       		.byte	0x50
 1583 0a2a 0D       		.uleb128 0xd
 1584 0a2b 8B080000 		.4byte	.LASF155
 1585 0a2f 0B       		.byte	0xb
 1586 0a30 5F02     		.2byte	0x25f
 1587 0a32 8E090000 		.4byte	0x98e
 1588 0a36 58       		.byte	0x58
 1589 0a37 0D       		.uleb128 0xd
 1590 0a38 29060000 		.4byte	.LASF156
 1591 0a3c 0B       		.byte	0xb
 1592 0a3d 6002     		.2byte	0x260
 1593 0a3f 45040000 		.4byte	0x445
 1594 0a43 68       		.byte	0x68
 1595 0a44 0D       		.uleb128 0xd
 1596 0a45 90080000 		.4byte	.LASF157
 1597 0a49 0B       		.byte	0xb
 1598 0a4a 6102     		.2byte	0x261
 1599 0a4c 45040000 		.4byte	0x445
 1600 0a50 70       		.byte	0x70
 1601 0a51 0D       		.uleb128 0xd
 1602 0a52 48010000 		.4byte	.LASF158
 1603 0a56 0B       		.byte	0xb
 1604 0a57 6202     		.2byte	0x262
 1605 0a59 45040000 		.4byte	0x445
 1606 0a5d 78       		.byte	0x78
 1607 0a5e 0D       		.uleb128 0xd
 1608 0a5f 3D080000 		.4byte	.LASF159
 1609 0a63 0B       		.byte	0xb
 1610 0a64 6302     		.2byte	0x263
 1611 0a66 E40A0000 		.4byte	0xae4
 1612 0a6a 80       		.byte	0x80
 1613 0a6b 0D       		.uleb128 0xd
 1614 0a6c 9A030000 		.4byte	.LASF160
 1615 0a70 0B       		.byte	0xb
 1616 0a71 6402     		.2byte	0x264
 1617 0a73 F40A0000 		.4byte	0xaf4
 1618 0a77 88       		.byte	0x88
 1619 0a78 0D       		.uleb128 0xd
 1620 0a79 90070000 		.4byte	.LASF161
 1621 0a7d 0B       		.byte	0xb
 1622 0a7e 6502     		.2byte	0x265
 1623 0a80 89000000 		.4byte	0x89
 1624 0a84 A0       		.byte	0xa0
 1625 0a85 0D       		.uleb128 0xd
 1626 0a86 C8020000 		.4byte	.LASF162
 1627 0a8a 0B       		.byte	0xb
ARM GAS  /tmp/ccUbtkx3.s 			page 33


 1628 0a8b 6602     		.2byte	0x266
 1629 0a8d 45040000 		.4byte	0x445
 1630 0a91 A4       		.byte	0xa4
 1631 0a92 0D       		.uleb128 0xd
 1632 0a93 34010000 		.4byte	.LASF163
 1633 0a97 0B       		.byte	0xb
 1634 0a98 6702     		.2byte	0x267
 1635 0a9a 45040000 		.4byte	0x445
 1636 0a9e AC       		.byte	0xac
 1637 0a9f 0D       		.uleb128 0xd
 1638 0aa0 B7020000 		.4byte	.LASF164
 1639 0aa4 0B       		.byte	0xb
 1640 0aa5 6802     		.2byte	0x268
 1641 0aa7 45040000 		.4byte	0x445
 1642 0aab B4       		.byte	0xb4
 1643 0aac 0D       		.uleb128 0xd
 1644 0aad A9000000 		.4byte	.LASF165
 1645 0ab1 0B       		.byte	0xb
 1646 0ab2 6902     		.2byte	0x269
 1647 0ab4 45040000 		.4byte	0x445
 1648 0ab8 BC       		.byte	0xbc
 1649 0ab9 0D       		.uleb128 0xd
 1650 0aba B8000000 		.4byte	.LASF166
 1651 0abe 0B       		.byte	0xb
 1652 0abf 6A02     		.2byte	0x26a
 1653 0ac1 45040000 		.4byte	0x445
 1654 0ac5 C4       		.byte	0xc4
 1655 0ac6 0D       		.uleb128 0xd
 1656 0ac7 54050000 		.4byte	.LASF167
 1657 0acb 0B       		.byte	0xb
 1658 0acc 6B02     		.2byte	0x26b
 1659 0ace 89000000 		.4byte	0x89
 1660 0ad2 CC       		.byte	0xcc
 1661 0ad3 00       		.byte	0
 1662 0ad4 11       		.uleb128 0x11
 1663 0ad5 A2080000 		.4byte	0x8a2
 1664 0ad9 E40A0000 		.4byte	0xae4
 1665 0add 12       		.uleb128 0x12
 1666 0ade CD000000 		.4byte	0xcd
 1667 0ae2 19       		.byte	0x19
 1668 0ae3 00       		.byte	0
 1669 0ae4 11       		.uleb128 0x11
 1670 0ae5 A2080000 		.4byte	0x8a2
 1671 0ae9 F40A0000 		.4byte	0xaf4
 1672 0aed 12       		.uleb128 0x12
 1673 0aee CD000000 		.4byte	0xcd
 1674 0af2 07       		.byte	0x7
 1675 0af3 00       		.byte	0
 1676 0af4 11       		.uleb128 0x11
 1677 0af5 A2080000 		.4byte	0x8a2
 1678 0af9 040B0000 		.4byte	0xb04
 1679 0afd 12       		.uleb128 0x12
 1680 0afe CD000000 		.4byte	0xcd
 1681 0b02 17       		.byte	0x17
 1682 0b03 00       		.byte	0
 1683 0b04 0B       		.uleb128 0xb
 1684 0b05 F0       		.byte	0xf0
ARM GAS  /tmp/ccUbtkx3.s 			page 34


 1685 0b06 0B       		.byte	0xb
 1686 0b07 7002     		.2byte	0x270
 1687 0b09 280B0000 		.4byte	0xb28
 1688 0b0d 0D       		.uleb128 0xd
 1689 0b0e C1030000 		.4byte	.LASF168
 1690 0b12 0B       		.byte	0xb
 1691 0b13 7302     		.2byte	0x273
 1692 0b15 280B0000 		.4byte	0xb28
 1693 0b19 00       		.byte	0
 1694 0b1a 0D       		.uleb128 0xd
 1695 0b1b 13040000 		.4byte	.LASF169
 1696 0b1f 0B       		.byte	0xb
 1697 0b20 7402     		.2byte	0x274
 1698 0b22 380B0000 		.4byte	0xb38
 1699 0b26 78       		.byte	0x78
 1700 0b27 00       		.byte	0
 1701 0b28 11       		.uleb128 0x11
 1702 0b29 11060000 		.4byte	0x611
 1703 0b2d 380B0000 		.4byte	0xb38
 1704 0b31 12       		.uleb128 0x12
 1705 0b32 CD000000 		.4byte	0xcd
 1706 0b36 1D       		.byte	0x1d
 1707 0b37 00       		.byte	0
 1708 0b38 11       		.uleb128 0x11
 1709 0b39 90000000 		.4byte	0x90
 1710 0b3d 480B0000 		.4byte	0xb48
 1711 0b41 12       		.uleb128 0x12
 1712 0b42 CD000000 		.4byte	0xcd
 1713 0b46 1D       		.byte	0x1d
 1714 0b47 00       		.byte	0
 1715 0b48 23       		.uleb128 0x23
 1716 0b49 F0       		.byte	0xf0
 1717 0b4a 0B       		.byte	0xb
 1718 0b4b 5502     		.2byte	0x255
 1719 0b4d 6A0B0000 		.4byte	0xb6a
 1720 0b51 24       		.uleb128 0x24
 1721 0b52 6E060000 		.4byte	.LASF118
 1722 0b56 0B       		.byte	0xb
 1723 0b57 6C02     		.2byte	0x26c
 1724 0b59 D3090000 		.4byte	0x9d3
 1725 0b5d 24       		.uleb128 0x24
 1726 0b5e 60080000 		.4byte	.LASF170
 1727 0b62 0B       		.byte	0xb
 1728 0b63 7502     		.2byte	0x275
 1729 0b65 040B0000 		.4byte	0xb04
 1730 0b69 00       		.byte	0
 1731 0b6a 11       		.uleb128 0x11
 1732 0b6b A2080000 		.4byte	0x8a2
 1733 0b6f 7A0B0000 		.4byte	0xb7a
 1734 0b73 12       		.uleb128 0x12
 1735 0b74 CD000000 		.4byte	0xcd
 1736 0b78 18       		.byte	0x18
 1737 0b79 00       		.byte	0
 1738 0b7a 25       		.uleb128 0x25
 1739 0b7b 850B0000 		.4byte	0xb85
 1740 0b7f 1E       		.uleb128 0x1e
 1741 0b80 5F070000 		.4byte	0x75f
ARM GAS  /tmp/ccUbtkx3.s 			page 35


 1742 0b84 00       		.byte	0
 1743 0b85 10       		.uleb128 0x10
 1744 0b86 04       		.byte	0x4
 1745 0b87 7A0B0000 		.4byte	0xb7a
 1746 0b8b 10       		.uleb128 0x10
 1747 0b8c 04       		.byte	0x4
 1748 0b8d B9040000 		.4byte	0x4b9
 1749 0b91 25       		.uleb128 0x25
 1750 0b92 9C0B0000 		.4byte	0xb9c
 1751 0b96 1E       		.uleb128 0x1e
 1752 0b97 89000000 		.4byte	0x89
 1753 0b9b 00       		.byte	0
 1754 0b9c 10       		.uleb128 0x10
 1755 0b9d 04       		.byte	0x4
 1756 0b9e A20B0000 		.4byte	0xba2
 1757 0ba2 10       		.uleb128 0x10
 1758 0ba3 04       		.byte	0x4
 1759 0ba4 910B0000 		.4byte	0xb91
 1760 0ba8 11       		.uleb128 0x11
 1761 0ba9 41090000 		.4byte	0x941
 1762 0bad B80B0000 		.4byte	0xbb8
 1763 0bb1 12       		.uleb128 0x12
 1764 0bb2 CD000000 		.4byte	0xcd
 1765 0bb6 02       		.byte	0x2
 1766 0bb7 00       		.byte	0
 1767 0bb8 06       		.uleb128 0x6
 1768 0bb9 04030000 		.4byte	.LASF171
 1769 0bbd 0B       		.byte	0xb
 1770 0bbe FD02     		.2byte	0x2fd
 1771 0bc0 5F070000 		.4byte	0x75f
 1772 0bc4 06       		.uleb128 0x6
 1773 0bc5 B9070000 		.4byte	.LASF172
 1774 0bc9 0B       		.byte	0xb
 1775 0bca FE02     		.2byte	0x2fe
 1776 0bcc 65070000 		.4byte	0x765
 1777 0bd0 07       		.uleb128 0x7
 1778 0bd1 EE030000 		.4byte	.LASF173
 1779 0bd5 0C       		.byte	0xc
 1780 0bd6 5F       		.byte	0x5f
 1781 0bd7 9C080000 		.4byte	0x89c
 1782 0bdb 02       		.uleb128 0x2
 1783 0bdc 08       		.byte	0x8
 1784 0bdd 04       		.byte	0x4
 1785 0bde B2080000 		.4byte	.LASF174
 1786 0be2 02       		.uleb128 0x2
 1787 0be3 08       		.byte	0x8
 1788 0be4 04       		.byte	0x4
 1789 0be5 CB060000 		.4byte	.LASF175
 1790 0be9 26       		.uleb128 0x26
 1791 0bea 9D070000 		.4byte	.LASF207
 1792 0bee 01       		.byte	0x1
 1793 0bef 25000000 		.4byte	0x25
 1794 0bf3 0D       		.byte	0xd
 1795 0bf4 9902     		.2byte	0x299
 1796 0bf6 130C0000 		.4byte	0xc13
 1797 0bfa 27       		.uleb128 0x27
 1798 0bfb 76050000 		.4byte	.LASF176
ARM GAS  /tmp/ccUbtkx3.s 			page 36


 1799 0bff 7F       		.sleb128 -1
 1800 0c00 09       		.uleb128 0x9
 1801 0c01 56020000 		.4byte	.LASF177
 1802 0c05 00       		.byte	0
 1803 0c06 09       		.uleb128 0x9
 1804 0c07 60000000 		.4byte	.LASF178
 1805 0c0b 01       		.byte	0x1
 1806 0c0c 09       		.uleb128 0x9
 1807 0c0d E0000000 		.4byte	.LASF179
 1808 0c11 02       		.byte	0x2
 1809 0c12 00       		.byte	0
 1810 0c13 06       		.uleb128 0x6
 1811 0c14 1F010000 		.4byte	.LASF180
 1812 0c18 0D       		.byte	0xd
 1813 0c19 A402     		.2byte	0x2a4
 1814 0c1b E90B0000 		.4byte	0xbe9
 1815 0c1f 11       		.uleb128 0x11
 1816 0c20 D8080000 		.4byte	0x8d8
 1817 0c24 2A0C0000 		.4byte	0xc2a
 1818 0c28 28       		.uleb128 0x28
 1819 0c29 00       		.byte	0
 1820 0c2a 1F       		.uleb128 0x1f
 1821 0c2b 1F0C0000 		.4byte	0xc1f
 1822 0c2f 07       		.uleb128 0x7
 1823 0c30 81020000 		.4byte	.LASF181
 1824 0c34 0E       		.byte	0xe
 1825 0c35 14       		.byte	0x14
 1826 0c36 2A0C0000 		.4byte	0xc2a
 1827 0c3a 07       		.uleb128 0x7
 1828 0c3b B1050000 		.4byte	.LASF182
 1829 0c3f 0E       		.byte	0xe
 1830 0c40 15       		.byte	0x15
 1831 0c41 89000000 		.4byte	0x89
 1832 0c45 29       		.uleb128 0x29
 1833 0c46 96020000 		.4byte	.LASF183
 1834 0c4a 01       		.byte	0x1
 1835 0c4b 04       		.byte	0x4
 1836 0c4c A2000000 		.4byte	0xa2
 1837 0c50 05       		.uleb128 0x5
 1838 0c51 03       		.byte	0x3
 1839 0c52 00000000 		.4byte	timer_counter
 1840 0c56 2A       		.uleb128 0x2a
 1841 0c57 5D050000 		.4byte	.LASF184
 1842 0c5b 01       		.byte	0x1
 1843 0c5c 92       		.byte	0x92
 1844 0c5d 64000000 		.4byte	.LFB74
 1845 0c61 44000000 		.4byte	.LFE74-.LFB74
 1846 0c65 01       		.uleb128 0x1
 1847 0c66 9C       		.byte	0x9c
 1848 0c67 020D0000 		.4byte	0xd02
 1849 0c6b 2B       		.uleb128 0x2b
 1850 0c6c 6C000000 		.4byte	.LVL7
 1851 0c70 4F0E0000 		.4byte	0xe4f
 1852 0c74 7E0C0000 		.4byte	0xc7e
 1853 0c78 2C       		.uleb128 0x2c
 1854 0c79 01       		.uleb128 0x1
 1855 0c7a 50       		.byte	0x50
ARM GAS  /tmp/ccUbtkx3.s 			page 37


 1856 0c7b 01       		.uleb128 0x1
 1857 0c7c 38       		.byte	0x38
 1858 0c7d 00       		.byte	0
 1859 0c7e 2B       		.uleb128 0x2b
 1860 0c7f 74000000 		.4byte	.LVL8
 1861 0c83 4F0E0000 		.4byte	0xe4f
 1862 0c87 910C0000 		.4byte	0xc91
 1863 0c8b 2C       		.uleb128 0x2c
 1864 0c8c 01       		.uleb128 0x1
 1865 0c8d 50       		.byte	0x50
 1866 0c8e 01       		.uleb128 0x1
 1867 0c8f 40       		.byte	0x40
 1868 0c90 00       		.byte	0
 1869 0c91 2B       		.uleb128 0x2b
 1870 0c92 7E000000 		.4byte	.LVL9
 1871 0c96 5B0E0000 		.4byte	0xe5b
 1872 0c9a A40C0000 		.4byte	0xca4
 1873 0c9e 2C       		.uleb128 0x2c
 1874 0c9f 01       		.uleb128 0x1
 1875 0ca0 50       		.byte	0x50
 1876 0ca1 01       		.uleb128 0x1
 1877 0ca2 38       		.byte	0x38
 1878 0ca3 00       		.byte	0
 1879 0ca4 2B       		.uleb128 0x2b
 1880 0ca5 84000000 		.4byte	.LVL10
 1881 0ca9 670E0000 		.4byte	0xe67
 1882 0cad B80C0000 		.4byte	0xcb8
 1883 0cb1 2C       		.uleb128 0x2c
 1884 0cb2 01       		.uleb128 0x1
 1885 0cb3 50       		.byte	0x50
 1886 0cb4 02       		.uleb128 0x2
 1887 0cb5 08       		.byte	0x8
 1888 0cb6 31       		.byte	0x31
 1889 0cb7 00       		.byte	0
 1890 0cb8 2B       		.uleb128 0x2b
 1891 0cb9 8E000000 		.4byte	.LVL11
 1892 0cbd 730E0000 		.4byte	0xe73
 1893 0cc1 CB0C0000 		.4byte	0xccb
 1894 0cc5 2C       		.uleb128 0x2c
 1895 0cc6 01       		.uleb128 0x1
 1896 0cc7 50       		.byte	0x50
 1897 0cc8 01       		.uleb128 0x1
 1898 0cc9 31       		.byte	0x31
 1899 0cca 00       		.byte	0
 1900 0ccb 2B       		.uleb128 0x2b
 1901 0ccc 96000000 		.4byte	.LVL12
 1902 0cd0 5B0E0000 		.4byte	0xe5b
 1903 0cd4 DE0C0000 		.4byte	0xcde
 1904 0cd8 2C       		.uleb128 0x2c
 1905 0cd9 01       		.uleb128 0x1
 1906 0cda 50       		.byte	0x50
 1907 0cdb 01       		.uleb128 0x1
 1908 0cdc 40       		.byte	0x40
 1909 0cdd 00       		.byte	0
 1910 0cde 2B       		.uleb128 0x2b
 1911 0cdf 9C000000 		.4byte	.LVL13
 1912 0ce3 670E0000 		.4byte	0xe67
ARM GAS  /tmp/ccUbtkx3.s 			page 38


 1913 0ce7 F20C0000 		.4byte	0xcf2
 1914 0ceb 2C       		.uleb128 0x2c
 1915 0cec 01       		.uleb128 0x1
 1916 0ced 50       		.byte	0x50
 1917 0cee 02       		.uleb128 0x2
 1918 0cef 08       		.byte	0x8
 1919 0cf0 39       		.byte	0x39
 1920 0cf1 00       		.byte	0
 1921 0cf2 2D       		.uleb128 0x2d
 1922 0cf3 A6000000 		.4byte	.LVL14
 1923 0cf7 7F0E0000 		.4byte	0xe7f
 1924 0cfb 2C       		.uleb128 0x2c
 1925 0cfc 01       		.uleb128 0x1
 1926 0cfd 50       		.byte	0x50
 1927 0cfe 01       		.uleb128 0x1
 1928 0cff 32       		.byte	0x32
 1929 0d00 00       		.byte	0
 1930 0d01 00       		.byte	0
 1931 0d02 2A       		.uleb128 0x2a
 1932 0d03 B9080000 		.4byte	.LASF185
 1933 0d07 01       		.byte	0x1
 1934 0d08 83       		.byte	0x83
 1935 0d09 3C000000 		.4byte	.LFB73
 1936 0d0d 28000000 		.4byte	.LFE73-.LFB73
 1937 0d11 01       		.uleb128 0x1
 1938 0d12 9C       		.byte	0x9c
 1939 0d13 480D0000 		.4byte	0xd48
 1940 0d17 2B       		.uleb128 0x2b
 1941 0d18 48000000 		.4byte	.LVL5
 1942 0d1c 8B0E0000 		.4byte	0xe8b
 1943 0d20 310D0000 		.4byte	0xd31
 1944 0d24 2C       		.uleb128 0x2c
 1945 0d25 01       		.uleb128 0x1
 1946 0d26 50       		.byte	0x50
 1947 0d27 03       		.uleb128 0x3
 1948 0d28 40       		.byte	0x40
 1949 0d29 4A       		.byte	0x4a
 1950 0d2a 24       		.byte	0x24
 1951 0d2b 2C       		.uleb128 0x2c
 1952 0d2c 01       		.uleb128 0x1
 1953 0d2d 51       		.byte	0x51
 1954 0d2e 01       		.uleb128 0x1
 1955 0d2f 31       		.byte	0x31
 1956 0d30 00       		.byte	0
 1957 0d31 2D       		.uleb128 0x2d
 1958 0d32 56000000 		.4byte	.LVL6
 1959 0d36 970E0000 		.4byte	0xe97
 1960 0d3a 2C       		.uleb128 0x2c
 1961 0d3b 01       		.uleb128 0x1
 1962 0d3c 50       		.byte	0x50
 1963 0d3d 03       		.uleb128 0x3
 1964 0d3e 40       		.byte	0x40
 1965 0d3f 4A       		.byte	0x4a
 1966 0d40 24       		.byte	0x24
 1967 0d41 2C       		.uleb128 0x2c
 1968 0d42 01       		.uleb128 0x1
 1969 0d43 51       		.byte	0x51
ARM GAS  /tmp/ccUbtkx3.s 			page 39


 1970 0d44 01       		.uleb128 0x1
 1971 0d45 31       		.byte	0x31
 1972 0d46 00       		.byte	0
 1973 0d47 00       		.byte	0
 1974 0d48 2E       		.uleb128 0x2e
 1975 0d49 A9060000 		.4byte	.LASF186
 1976 0d4d 01       		.byte	0x1
 1977 0d4e 7B       		.byte	0x7b
 1978 0d4f 3A000000 		.4byte	.LFB72
 1979 0d53 02000000 		.4byte	.LFE72-.LFB72
 1980 0d57 01       		.uleb128 0x1
 1981 0d58 9C       		.byte	0x9c
 1982 0d59 2E       		.uleb128 0x2e
 1983 0d5a 9E080000 		.4byte	.LASF187
 1984 0d5e 01       		.byte	0x1
 1985 0d5f 72       		.byte	0x72
 1986 0d60 38000000 		.4byte	.LFB71
 1987 0d64 02000000 		.4byte	.LFE71-.LFB71
 1988 0d68 01       		.uleb128 0x1
 1989 0d69 9C       		.byte	0x9c
 1990 0d6a 2E       		.uleb128 0x2e
 1991 0d6b 47000000 		.4byte	.LASF188
 1992 0d6f 01       		.byte	0x1
 1993 0d70 69       		.byte	0x69
 1994 0d71 36000000 		.4byte	.LFB70
 1995 0d75 02000000 		.4byte	.LFE70-.LFB70
 1996 0d79 01       		.uleb128 0x1
 1997 0d7a 9C       		.byte	0x9c
 1998 0d7b 2E       		.uleb128 0x2e
 1999 0d7c 50060000 		.4byte	.LASF189
 2000 0d80 01       		.byte	0x1
 2001 0d81 60       		.byte	0x60
 2002 0d82 34000000 		.4byte	.LFB69
 2003 0d86 02000000 		.4byte	.LFE69-.LFB69
 2004 0d8a 01       		.uleb128 0x1
 2005 0d8b 9C       		.byte	0x9c
 2006 0d8c 2E       		.uleb128 0x2e
 2007 0d8d A4020000 		.4byte	.LASF190
 2008 0d91 01       		.byte	0x1
 2009 0d92 53       		.byte	0x53
 2010 0d93 32000000 		.4byte	.LFB68
 2011 0d97 02000000 		.4byte	.LFE68-.LFB68
 2012 0d9b 01       		.uleb128 0x1
 2013 0d9c 9C       		.byte	0x9c
 2014 0d9d 2E       		.uleb128 0x2e
 2015 0d9e F8000000 		.4byte	.LASF191
 2016 0da2 01       		.byte	0x1
 2017 0da3 46       		.byte	0x46
 2018 0da4 30000000 		.4byte	.LFB67
 2019 0da8 02000000 		.4byte	.LFE67-.LFB67
 2020 0dac 01       		.uleb128 0x1
 2021 0dad 9C       		.byte	0x9c
 2022 0dae 2E       		.uleb128 0x2e
 2023 0daf 31030000 		.4byte	.LASF192
 2024 0db3 01       		.byte	0x1
 2025 0db4 39       		.byte	0x39
 2026 0db5 2E000000 		.4byte	.LFB66
ARM GAS  /tmp/ccUbtkx3.s 			page 40


 2027 0db9 02000000 		.4byte	.LFE66-.LFB66
 2028 0dbd 01       		.uleb128 0x1
 2029 0dbe 9C       		.byte	0x9c
 2030 0dbf 2E       		.uleb128 0x2e
 2031 0dc0 C8030000 		.4byte	.LASF193
 2032 0dc4 01       		.byte	0x1
 2033 0dc5 2C       		.byte	0x2c
 2034 0dc6 2C000000 		.4byte	.LFB65
 2035 0dca 02000000 		.4byte	.LFE65-.LFB65
 2036 0dce 01       		.uleb128 0x1
 2037 0dcf 9C       		.byte	0x9c
 2038 0dd0 2A       		.uleb128 0x2a
 2039 0dd1 27000000 		.4byte	.LASF194
 2040 0dd5 01       		.byte	0x1
 2041 0dd6 06       		.byte	0x6
 2042 0dd7 00000000 		.4byte	.LFB64
 2043 0ddb 2C000000 		.4byte	.LFE64-.LFB64
 2044 0ddf 01       		.uleb128 0x1
 2045 0de0 9C       		.byte	0x9c
 2046 0de1 4F0E0000 		.4byte	0xe4f
 2047 0de5 2B       		.uleb128 0x2b
 2048 0de6 08000000 		.4byte	.LVL0
 2049 0dea 4F0E0000 		.4byte	0xe4f
 2050 0dee F90D0000 		.4byte	0xdf9
 2051 0df2 2C       		.uleb128 0x2c
 2052 0df3 01       		.uleb128 0x1
 2053 0df4 50       		.byte	0x50
 2054 0df5 02       		.uleb128 0x2
 2055 0df6 09       		.byte	0x9
 2056 0df7 80       		.byte	0x80
 2057 0df8 00       		.byte	0
 2058 0df9 2B       		.uleb128 0x2b
 2059 0dfa 14000000 		.4byte	.LVL1
 2060 0dfe A30E0000 		.4byte	0xea3
 2061 0e02 0E0E0000 		.4byte	0xe0e
 2062 0e06 2C       		.uleb128 0x2c
 2063 0e07 01       		.uleb128 0x1
 2064 0e08 50       		.byte	0x50
 2065 0e09 03       		.uleb128 0x3
 2066 0e0a 40       		.byte	0x40
 2067 0e0b 3C       		.byte	0x3c
 2068 0e0c 24       		.byte	0x24
 2069 0e0d 00       		.byte	0
 2070 0e0e 2B       		.uleb128 0x2b
 2071 0e0f 1C000000 		.4byte	.LVL2
 2072 0e13 AF0E0000 		.4byte	0xeaf
 2073 0e17 260E0000 		.4byte	0xe26
 2074 0e1b 2C       		.uleb128 0x2c
 2075 0e1c 01       		.uleb128 0x1
 2076 0e1d 50       		.byte	0x50
 2077 0e1e 01       		.uleb128 0x1
 2078 0e1f 38       		.byte	0x38
 2079 0e20 2C       		.uleb128 0x2c
 2080 0e21 01       		.uleb128 0x1
 2081 0e22 51       		.byte	0x51
 2082 0e23 01       		.uleb128 0x1
 2083 0e24 31       		.byte	0x31
ARM GAS  /tmp/ccUbtkx3.s 			page 41


 2084 0e25 00       		.byte	0
 2085 0e26 2B       		.uleb128 0x2b
 2086 0e27 24000000 		.4byte	.LVL3
 2087 0e2b AF0E0000 		.4byte	0xeaf
 2088 0e2f 3E0E0000 		.4byte	0xe3e
 2089 0e33 2C       		.uleb128 0x2c
 2090 0e34 01       		.uleb128 0x1
 2091 0e35 50       		.byte	0x50
 2092 0e36 01       		.uleb128 0x1
 2093 0e37 40       		.byte	0x40
 2094 0e38 2C       		.uleb128 0x2c
 2095 0e39 01       		.uleb128 0x1
 2096 0e3a 51       		.byte	0x51
 2097 0e3b 01       		.uleb128 0x1
 2098 0e3c 31       		.byte	0x31
 2099 0e3d 00       		.byte	0
 2100 0e3e 2D       		.uleb128 0x2d
 2101 0e3f 2A000000 		.4byte	.LVL4
 2102 0e43 5B0E0000 		.4byte	0xe5b
 2103 0e47 2C       		.uleb128 0x2c
 2104 0e48 01       		.uleb128 0x1
 2105 0e49 50       		.byte	0x50
 2106 0e4a 02       		.uleb128 0x2
 2107 0e4b 09       		.byte	0x9
 2108 0e4c 80       		.byte	0x80
 2109 0e4d 00       		.byte	0
 2110 0e4e 00       		.byte	0
 2111 0e4f 2F       		.uleb128 0x2f
 2112 0e50 38070000 		.4byte	.LASF195
 2113 0e54 38070000 		.4byte	.LASF195
 2114 0e58 0F       		.byte	0xf
 2115 0e59 C302     		.2byte	0x2c3
 2116 0e5b 2F       		.uleb128 0x2f
 2117 0e5c 7B060000 		.4byte	.LASF196
 2118 0e60 7B060000 		.4byte	.LASF196
 2119 0e64 0F       		.byte	0xf
 2120 0e65 C402     		.2byte	0x2c4
 2121 0e67 2F       		.uleb128 0x2f
 2122 0e68 5E070000 		.4byte	.LASF197
 2123 0e6c 5E070000 		.4byte	.LASF197
 2124 0e70 0F       		.byte	0xf
 2125 0e71 C102     		.2byte	0x2c1
 2126 0e73 2F       		.uleb128 0x2f
 2127 0e74 8C050000 		.4byte	.LASF198
 2128 0e78 8C050000 		.4byte	.LASF198
 2129 0e7c 0F       		.byte	0xf
 2130 0e7d 8D02     		.2byte	0x28d
 2131 0e7f 2F       		.uleb128 0x2f
 2132 0e80 0C000000 		.4byte	.LASF199
 2133 0e84 0C000000 		.4byte	.LASF199
 2134 0e88 0F       		.byte	0xf
 2135 0e89 9B02     		.2byte	0x29b
 2136 0e8b 2F       		.uleb128 0x2f
 2137 0e8c 82040000 		.4byte	.LASF200
 2138 0e90 82040000 		.4byte	.LASF200
 2139 0e94 10       		.byte	0x10
 2140 0e95 7804     		.2byte	0x478
ARM GAS  /tmp/ccUbtkx3.s 			page 42


 2141 0e97 2F       		.uleb128 0x2f
 2142 0e98 13070000 		.4byte	.LASF201
 2143 0e9c 13070000 		.4byte	.LASF201
 2144 0ea0 10       		.byte	0x10
 2145 0ea1 7904     		.2byte	0x479
 2146 0ea3 2F       		.uleb128 0x2f
 2147 0ea4 2A050000 		.4byte	.LASF202
 2148 0ea8 2A050000 		.4byte	.LASF202
 2149 0eac 0F       		.byte	0xf
 2150 0ead 8802     		.2byte	0x288
 2151 0eaf 2F       		.uleb128 0x2f
 2152 0eb0 21080000 		.4byte	.LASF203
 2153 0eb4 21080000 		.4byte	.LASF203
 2154 0eb8 0F       		.byte	0xf
 2155 0eb9 A002     		.2byte	0x2a0
 2156 0ebb 00       		.byte	0
 2157              		.section	.debug_abbrev,"",%progbits
 2158              	.Ldebug_abbrev0:
 2159 0000 01       		.uleb128 0x1
 2160 0001 11       		.uleb128 0x11
 2161 0002 01       		.byte	0x1
 2162 0003 25       		.uleb128 0x25
 2163 0004 0E       		.uleb128 0xe
 2164 0005 13       		.uleb128 0x13
 2165 0006 0B       		.uleb128 0xb
 2166 0007 03       		.uleb128 0x3
 2167 0008 0E       		.uleb128 0xe
 2168 0009 1B       		.uleb128 0x1b
 2169 000a 0E       		.uleb128 0xe
 2170 000b 11       		.uleb128 0x11
 2171 000c 01       		.uleb128 0x1
 2172 000d 12       		.uleb128 0x12
 2173 000e 06       		.uleb128 0x6
 2174 000f 10       		.uleb128 0x10
 2175 0010 17       		.uleb128 0x17
 2176 0011 00       		.byte	0
 2177 0012 00       		.byte	0
 2178 0013 02       		.uleb128 0x2
 2179 0014 24       		.uleb128 0x24
 2180 0015 00       		.byte	0
 2181 0016 0B       		.uleb128 0xb
 2182 0017 0B       		.uleb128 0xb
 2183 0018 3E       		.uleb128 0x3e
 2184 0019 0B       		.uleb128 0xb
 2185 001a 03       		.uleb128 0x3
 2186 001b 0E       		.uleb128 0xe
 2187 001c 00       		.byte	0
 2188 001d 00       		.byte	0
 2189 001e 03       		.uleb128 0x3
 2190 001f 16       		.uleb128 0x16
 2191 0020 00       		.byte	0
 2192 0021 03       		.uleb128 0x3
 2193 0022 0E       		.uleb128 0xe
 2194 0023 3A       		.uleb128 0x3a
 2195 0024 0B       		.uleb128 0xb
 2196 0025 3B       		.uleb128 0x3b
 2197 0026 0B       		.uleb128 0xb
ARM GAS  /tmp/ccUbtkx3.s 			page 43


 2198 0027 49       		.uleb128 0x49
 2199 0028 13       		.uleb128 0x13
 2200 0029 00       		.byte	0
 2201 002a 00       		.byte	0
 2202 002b 04       		.uleb128 0x4
 2203 002c 24       		.uleb128 0x24
 2204 002d 00       		.byte	0
 2205 002e 0B       		.uleb128 0xb
 2206 002f 0B       		.uleb128 0xb
 2207 0030 3E       		.uleb128 0x3e
 2208 0031 0B       		.uleb128 0xb
 2209 0032 03       		.uleb128 0x3
 2210 0033 08       		.uleb128 0x8
 2211 0034 00       		.byte	0
 2212 0035 00       		.byte	0
 2213 0036 05       		.uleb128 0x5
 2214 0037 35       		.uleb128 0x35
 2215 0038 00       		.byte	0
 2216 0039 49       		.uleb128 0x49
 2217 003a 13       		.uleb128 0x13
 2218 003b 00       		.byte	0
 2219 003c 00       		.byte	0
 2220 003d 06       		.uleb128 0x6
 2221 003e 34       		.uleb128 0x34
 2222 003f 00       		.byte	0
 2223 0040 03       		.uleb128 0x3
 2224 0041 0E       		.uleb128 0xe
 2225 0042 3A       		.uleb128 0x3a
 2226 0043 0B       		.uleb128 0xb
 2227 0044 3B       		.uleb128 0x3b
 2228 0045 05       		.uleb128 0x5
 2229 0046 49       		.uleb128 0x49
 2230 0047 13       		.uleb128 0x13
 2231 0048 3F       		.uleb128 0x3f
 2232 0049 19       		.uleb128 0x19
 2233 004a 3C       		.uleb128 0x3c
 2234 004b 19       		.uleb128 0x19
 2235 004c 00       		.byte	0
 2236 004d 00       		.byte	0
 2237 004e 07       		.uleb128 0x7
 2238 004f 34       		.uleb128 0x34
 2239 0050 00       		.byte	0
 2240 0051 03       		.uleb128 0x3
 2241 0052 0E       		.uleb128 0xe
 2242 0053 3A       		.uleb128 0x3a
 2243 0054 0B       		.uleb128 0xb
 2244 0055 3B       		.uleb128 0x3b
 2245 0056 0B       		.uleb128 0xb
 2246 0057 49       		.uleb128 0x49
 2247 0058 13       		.uleb128 0x13
 2248 0059 3F       		.uleb128 0x3f
 2249 005a 19       		.uleb128 0x19
 2250 005b 3C       		.uleb128 0x3c
 2251 005c 19       		.uleb128 0x19
 2252 005d 00       		.byte	0
 2253 005e 00       		.byte	0
 2254 005f 08       		.uleb128 0x8
ARM GAS  /tmp/ccUbtkx3.s 			page 44


 2255 0060 04       		.uleb128 0x4
 2256 0061 01       		.byte	0x1
 2257 0062 0B       		.uleb128 0xb
 2258 0063 0B       		.uleb128 0xb
 2259 0064 49       		.uleb128 0x49
 2260 0065 13       		.uleb128 0x13
 2261 0066 3A       		.uleb128 0x3a
 2262 0067 0B       		.uleb128 0xb
 2263 0068 3B       		.uleb128 0x3b
 2264 0069 05       		.uleb128 0x5
 2265 006a 01       		.uleb128 0x1
 2266 006b 13       		.uleb128 0x13
 2267 006c 00       		.byte	0
 2268 006d 00       		.byte	0
 2269 006e 09       		.uleb128 0x9
 2270 006f 28       		.uleb128 0x28
 2271 0070 00       		.byte	0
 2272 0071 03       		.uleb128 0x3
 2273 0072 0E       		.uleb128 0xe
 2274 0073 1C       		.uleb128 0x1c
 2275 0074 0B       		.uleb128 0xb
 2276 0075 00       		.byte	0
 2277 0076 00       		.byte	0
 2278 0077 0A       		.uleb128 0xa
 2279 0078 28       		.uleb128 0x28
 2280 0079 00       		.byte	0
 2281 007a 03       		.uleb128 0x3
 2282 007b 08       		.uleb128 0x8
 2283 007c 1C       		.uleb128 0x1c
 2284 007d 0B       		.uleb128 0xb
 2285 007e 00       		.byte	0
 2286 007f 00       		.byte	0
 2287 0080 0B       		.uleb128 0xb
 2288 0081 13       		.uleb128 0x13
 2289 0082 01       		.byte	0x1
 2290 0083 0B       		.uleb128 0xb
 2291 0084 0B       		.uleb128 0xb
 2292 0085 3A       		.uleb128 0x3a
 2293 0086 0B       		.uleb128 0xb
 2294 0087 3B       		.uleb128 0x3b
 2295 0088 05       		.uleb128 0x5
 2296 0089 01       		.uleb128 0x1
 2297 008a 13       		.uleb128 0x13
 2298 008b 00       		.byte	0
 2299 008c 00       		.byte	0
 2300 008d 0C       		.uleb128 0xc
 2301 008e 0D       		.uleb128 0xd
 2302 008f 00       		.byte	0
 2303 0090 03       		.uleb128 0x3
 2304 0091 08       		.uleb128 0x8
 2305 0092 3A       		.uleb128 0x3a
 2306 0093 0B       		.uleb128 0xb
 2307 0094 3B       		.uleb128 0x3b
 2308 0095 05       		.uleb128 0x5
 2309 0096 49       		.uleb128 0x49
 2310 0097 13       		.uleb128 0x13
 2311 0098 38       		.uleb128 0x38
ARM GAS  /tmp/ccUbtkx3.s 			page 45


 2312 0099 0B       		.uleb128 0xb
 2313 009a 00       		.byte	0
 2314 009b 00       		.byte	0
 2315 009c 0D       		.uleb128 0xd
 2316 009d 0D       		.uleb128 0xd
 2317 009e 00       		.byte	0
 2318 009f 03       		.uleb128 0x3
 2319 00a0 0E       		.uleb128 0xe
 2320 00a1 3A       		.uleb128 0x3a
 2321 00a2 0B       		.uleb128 0xb
 2322 00a3 3B       		.uleb128 0x3b
 2323 00a4 05       		.uleb128 0x5
 2324 00a5 49       		.uleb128 0x49
 2325 00a6 13       		.uleb128 0x13
 2326 00a7 38       		.uleb128 0x38
 2327 00a8 0B       		.uleb128 0xb
 2328 00a9 00       		.byte	0
 2329 00aa 00       		.byte	0
 2330 00ab 0E       		.uleb128 0xe
 2331 00ac 16       		.uleb128 0x16
 2332 00ad 00       		.byte	0
 2333 00ae 03       		.uleb128 0x3
 2334 00af 0E       		.uleb128 0xe
 2335 00b0 3A       		.uleb128 0x3a
 2336 00b1 0B       		.uleb128 0xb
 2337 00b2 3B       		.uleb128 0x3b
 2338 00b3 05       		.uleb128 0x5
 2339 00b4 49       		.uleb128 0x49
 2340 00b5 13       		.uleb128 0x13
 2341 00b6 00       		.byte	0
 2342 00b7 00       		.byte	0
 2343 00b8 0F       		.uleb128 0xf
 2344 00b9 15       		.uleb128 0x15
 2345 00ba 00       		.byte	0
 2346 00bb 27       		.uleb128 0x27
 2347 00bc 19       		.uleb128 0x19
 2348 00bd 00       		.byte	0
 2349 00be 00       		.byte	0
 2350 00bf 10       		.uleb128 0x10
 2351 00c0 0F       		.uleb128 0xf
 2352 00c1 00       		.byte	0
 2353 00c2 0B       		.uleb128 0xb
 2354 00c3 0B       		.uleb128 0xb
 2355 00c4 49       		.uleb128 0x49
 2356 00c5 13       		.uleb128 0x13
 2357 00c6 00       		.byte	0
 2358 00c7 00       		.byte	0
 2359 00c8 11       		.uleb128 0x11
 2360 00c9 01       		.uleb128 0x1
 2361 00ca 01       		.byte	0x1
 2362 00cb 49       		.uleb128 0x49
 2363 00cc 13       		.uleb128 0x13
 2364 00cd 01       		.uleb128 0x1
 2365 00ce 13       		.uleb128 0x13
 2366 00cf 00       		.byte	0
 2367 00d0 00       		.byte	0
 2368 00d1 12       		.uleb128 0x12
ARM GAS  /tmp/ccUbtkx3.s 			page 46


 2369 00d2 21       		.uleb128 0x21
 2370 00d3 00       		.byte	0
 2371 00d4 49       		.uleb128 0x49
 2372 00d5 13       		.uleb128 0x13
 2373 00d6 2F       		.uleb128 0x2f
 2374 00d7 0B       		.uleb128 0xb
 2375 00d8 00       		.byte	0
 2376 00d9 00       		.byte	0
 2377 00da 13       		.uleb128 0x13
 2378 00db 34       		.uleb128 0x34
 2379 00dc 00       		.byte	0
 2380 00dd 03       		.uleb128 0x3
 2381 00de 08       		.uleb128 0x8
 2382 00df 3A       		.uleb128 0x3a
 2383 00e0 0B       		.uleb128 0xb
 2384 00e1 3B       		.uleb128 0x3b
 2385 00e2 05       		.uleb128 0x5
 2386 00e3 49       		.uleb128 0x49
 2387 00e4 13       		.uleb128 0x13
 2388 00e5 3F       		.uleb128 0x3f
 2389 00e6 19       		.uleb128 0x19
 2390 00e7 3C       		.uleb128 0x3c
 2391 00e8 19       		.uleb128 0x19
 2392 00e9 00       		.byte	0
 2393 00ea 00       		.byte	0
 2394 00eb 14       		.uleb128 0x14
 2395 00ec 0F       		.uleb128 0xf
 2396 00ed 00       		.byte	0
 2397 00ee 0B       		.uleb128 0xb
 2398 00ef 0B       		.uleb128 0xb
 2399 00f0 00       		.byte	0
 2400 00f1 00       		.byte	0
 2401 00f2 15       		.uleb128 0x15
 2402 00f3 17       		.uleb128 0x17
 2403 00f4 01       		.byte	0x1
 2404 00f5 0B       		.uleb128 0xb
 2405 00f6 0B       		.uleb128 0xb
 2406 00f7 3A       		.uleb128 0x3a
 2407 00f8 0B       		.uleb128 0xb
 2408 00f9 3B       		.uleb128 0x3b
 2409 00fa 0B       		.uleb128 0xb
 2410 00fb 01       		.uleb128 0x1
 2411 00fc 13       		.uleb128 0x13
 2412 00fd 00       		.byte	0
 2413 00fe 00       		.byte	0
 2414 00ff 16       		.uleb128 0x16
 2415 0100 0D       		.uleb128 0xd
 2416 0101 00       		.byte	0
 2417 0102 03       		.uleb128 0x3
 2418 0103 0E       		.uleb128 0xe
 2419 0104 3A       		.uleb128 0x3a
 2420 0105 0B       		.uleb128 0xb
 2421 0106 3B       		.uleb128 0x3b
 2422 0107 0B       		.uleb128 0xb
 2423 0108 49       		.uleb128 0x49
 2424 0109 13       		.uleb128 0x13
 2425 010a 00       		.byte	0
ARM GAS  /tmp/ccUbtkx3.s 			page 47


 2426 010b 00       		.byte	0
 2427 010c 17       		.uleb128 0x17
 2428 010d 13       		.uleb128 0x13
 2429 010e 01       		.byte	0x1
 2430 010f 0B       		.uleb128 0xb
 2431 0110 0B       		.uleb128 0xb
 2432 0111 3A       		.uleb128 0x3a
 2433 0112 0B       		.uleb128 0xb
 2434 0113 3B       		.uleb128 0x3b
 2435 0114 0B       		.uleb128 0xb
 2436 0115 01       		.uleb128 0x1
 2437 0116 13       		.uleb128 0x13
 2438 0117 00       		.byte	0
 2439 0118 00       		.byte	0
 2440 0119 18       		.uleb128 0x18
 2441 011a 0D       		.uleb128 0xd
 2442 011b 00       		.byte	0
 2443 011c 03       		.uleb128 0x3
 2444 011d 0E       		.uleb128 0xe
 2445 011e 3A       		.uleb128 0x3a
 2446 011f 0B       		.uleb128 0xb
 2447 0120 3B       		.uleb128 0x3b
 2448 0121 0B       		.uleb128 0xb
 2449 0122 49       		.uleb128 0x49
 2450 0123 13       		.uleb128 0x13
 2451 0124 38       		.uleb128 0x38
 2452 0125 0B       		.uleb128 0xb
 2453 0126 00       		.byte	0
 2454 0127 00       		.byte	0
 2455 0128 19       		.uleb128 0x19
 2456 0129 13       		.uleb128 0x13
 2457 012a 01       		.byte	0x1
 2458 012b 03       		.uleb128 0x3
 2459 012c 0E       		.uleb128 0xe
 2460 012d 0B       		.uleb128 0xb
 2461 012e 0B       		.uleb128 0xb
 2462 012f 3A       		.uleb128 0x3a
 2463 0130 0B       		.uleb128 0xb
 2464 0131 3B       		.uleb128 0x3b
 2465 0132 0B       		.uleb128 0xb
 2466 0133 01       		.uleb128 0x1
 2467 0134 13       		.uleb128 0x13
 2468 0135 00       		.byte	0
 2469 0136 00       		.byte	0
 2470 0137 1A       		.uleb128 0x1a
 2471 0138 0D       		.uleb128 0xd
 2472 0139 00       		.byte	0
 2473 013a 03       		.uleb128 0x3
 2474 013b 08       		.uleb128 0x8
 2475 013c 3A       		.uleb128 0x3a
 2476 013d 0B       		.uleb128 0xb
 2477 013e 3B       		.uleb128 0x3b
 2478 013f 0B       		.uleb128 0xb
 2479 0140 49       		.uleb128 0x49
 2480 0141 13       		.uleb128 0x13
 2481 0142 38       		.uleb128 0x38
 2482 0143 0B       		.uleb128 0xb
ARM GAS  /tmp/ccUbtkx3.s 			page 48


 2483 0144 00       		.byte	0
 2484 0145 00       		.byte	0
 2485 0146 1B       		.uleb128 0x1b
 2486 0147 13       		.uleb128 0x13
 2487 0148 01       		.byte	0x1
 2488 0149 03       		.uleb128 0x3
 2489 014a 0E       		.uleb128 0xe
 2490 014b 0B       		.uleb128 0xb
 2491 014c 05       		.uleb128 0x5
 2492 014d 3A       		.uleb128 0x3a
 2493 014e 0B       		.uleb128 0xb
 2494 014f 3B       		.uleb128 0x3b
 2495 0150 0B       		.uleb128 0xb
 2496 0151 01       		.uleb128 0x1
 2497 0152 13       		.uleb128 0x13
 2498 0153 00       		.byte	0
 2499 0154 00       		.byte	0
 2500 0155 1C       		.uleb128 0x1c
 2501 0156 0D       		.uleb128 0xd
 2502 0157 00       		.byte	0
 2503 0158 03       		.uleb128 0x3
 2504 0159 0E       		.uleb128 0xe
 2505 015a 3A       		.uleb128 0x3a
 2506 015b 0B       		.uleb128 0xb
 2507 015c 3B       		.uleb128 0x3b
 2508 015d 0B       		.uleb128 0xb
 2509 015e 49       		.uleb128 0x49
 2510 015f 13       		.uleb128 0x13
 2511 0160 38       		.uleb128 0x38
 2512 0161 05       		.uleb128 0x5
 2513 0162 00       		.byte	0
 2514 0163 00       		.byte	0
 2515 0164 1D       		.uleb128 0x1d
 2516 0165 15       		.uleb128 0x15
 2517 0166 01       		.byte	0x1
 2518 0167 27       		.uleb128 0x27
 2519 0168 19       		.uleb128 0x19
 2520 0169 49       		.uleb128 0x49
 2521 016a 13       		.uleb128 0x13
 2522 016b 01       		.uleb128 0x1
 2523 016c 13       		.uleb128 0x13
 2524 016d 00       		.byte	0
 2525 016e 00       		.byte	0
 2526 016f 1E       		.uleb128 0x1e
 2527 0170 05       		.uleb128 0x5
 2528 0171 00       		.byte	0
 2529 0172 49       		.uleb128 0x49
 2530 0173 13       		.uleb128 0x13
 2531 0174 00       		.byte	0
 2532 0175 00       		.byte	0
 2533 0176 1F       		.uleb128 0x1f
 2534 0177 26       		.uleb128 0x26
 2535 0178 00       		.byte	0
 2536 0179 49       		.uleb128 0x49
 2537 017a 13       		.uleb128 0x13
 2538 017b 00       		.byte	0
 2539 017c 00       		.byte	0
ARM GAS  /tmp/ccUbtkx3.s 			page 49


 2540 017d 20       		.uleb128 0x20
 2541 017e 13       		.uleb128 0x13
 2542 017f 01       		.byte	0x1
 2543 0180 03       		.uleb128 0x3
 2544 0181 0E       		.uleb128 0xe
 2545 0182 0B       		.uleb128 0xb
 2546 0183 05       		.uleb128 0x5
 2547 0184 3A       		.uleb128 0x3a
 2548 0185 0B       		.uleb128 0xb
 2549 0186 3B       		.uleb128 0x3b
 2550 0187 05       		.uleb128 0x5
 2551 0188 01       		.uleb128 0x1
 2552 0189 13       		.uleb128 0x13
 2553 018a 00       		.byte	0
 2554 018b 00       		.byte	0
 2555 018c 21       		.uleb128 0x21
 2556 018d 0D       		.uleb128 0xd
 2557 018e 00       		.byte	0
 2558 018f 03       		.uleb128 0x3
 2559 0190 0E       		.uleb128 0xe
 2560 0191 3A       		.uleb128 0x3a
 2561 0192 0B       		.uleb128 0xb
 2562 0193 3B       		.uleb128 0x3b
 2563 0194 05       		.uleb128 0x5
 2564 0195 49       		.uleb128 0x49
 2565 0196 13       		.uleb128 0x13
 2566 0197 38       		.uleb128 0x38
 2567 0198 05       		.uleb128 0x5
 2568 0199 00       		.byte	0
 2569 019a 00       		.byte	0
 2570 019b 22       		.uleb128 0x22
 2571 019c 13       		.uleb128 0x13
 2572 019d 01       		.byte	0x1
 2573 019e 03       		.uleb128 0x3
 2574 019f 0E       		.uleb128 0xe
 2575 01a0 0B       		.uleb128 0xb
 2576 01a1 0B       		.uleb128 0xb
 2577 01a2 3A       		.uleb128 0x3a
 2578 01a3 0B       		.uleb128 0xb
 2579 01a4 3B       		.uleb128 0x3b
 2580 01a5 05       		.uleb128 0x5
 2581 01a6 01       		.uleb128 0x1
 2582 01a7 13       		.uleb128 0x13
 2583 01a8 00       		.byte	0
 2584 01a9 00       		.byte	0
 2585 01aa 23       		.uleb128 0x23
 2586 01ab 17       		.uleb128 0x17
 2587 01ac 01       		.byte	0x1
 2588 01ad 0B       		.uleb128 0xb
 2589 01ae 0B       		.uleb128 0xb
 2590 01af 3A       		.uleb128 0x3a
 2591 01b0 0B       		.uleb128 0xb
 2592 01b1 3B       		.uleb128 0x3b
 2593 01b2 05       		.uleb128 0x5
 2594 01b3 01       		.uleb128 0x1
 2595 01b4 13       		.uleb128 0x13
 2596 01b5 00       		.byte	0
ARM GAS  /tmp/ccUbtkx3.s 			page 50


 2597 01b6 00       		.byte	0
 2598 01b7 24       		.uleb128 0x24
 2599 01b8 0D       		.uleb128 0xd
 2600 01b9 00       		.byte	0
 2601 01ba 03       		.uleb128 0x3
 2602 01bb 0E       		.uleb128 0xe
 2603 01bc 3A       		.uleb128 0x3a
 2604 01bd 0B       		.uleb128 0xb
 2605 01be 3B       		.uleb128 0x3b
 2606 01bf 05       		.uleb128 0x5
 2607 01c0 49       		.uleb128 0x49
 2608 01c1 13       		.uleb128 0x13
 2609 01c2 00       		.byte	0
 2610 01c3 00       		.byte	0
 2611 01c4 25       		.uleb128 0x25
 2612 01c5 15       		.uleb128 0x15
 2613 01c6 01       		.byte	0x1
 2614 01c7 27       		.uleb128 0x27
 2615 01c8 19       		.uleb128 0x19
 2616 01c9 01       		.uleb128 0x1
 2617 01ca 13       		.uleb128 0x13
 2618 01cb 00       		.byte	0
 2619 01cc 00       		.byte	0
 2620 01cd 26       		.uleb128 0x26
 2621 01ce 04       		.uleb128 0x4
 2622 01cf 01       		.byte	0x1
 2623 01d0 03       		.uleb128 0x3
 2624 01d1 0E       		.uleb128 0xe
 2625 01d2 0B       		.uleb128 0xb
 2626 01d3 0B       		.uleb128 0xb
 2627 01d4 49       		.uleb128 0x49
 2628 01d5 13       		.uleb128 0x13
 2629 01d6 3A       		.uleb128 0x3a
 2630 01d7 0B       		.uleb128 0xb
 2631 01d8 3B       		.uleb128 0x3b
 2632 01d9 05       		.uleb128 0x5
 2633 01da 01       		.uleb128 0x1
 2634 01db 13       		.uleb128 0x13
 2635 01dc 00       		.byte	0
 2636 01dd 00       		.byte	0
 2637 01de 27       		.uleb128 0x27
 2638 01df 28       		.uleb128 0x28
 2639 01e0 00       		.byte	0
 2640 01e1 03       		.uleb128 0x3
 2641 01e2 0E       		.uleb128 0xe
 2642 01e3 1C       		.uleb128 0x1c
 2643 01e4 0D       		.uleb128 0xd
 2644 01e5 00       		.byte	0
 2645 01e6 00       		.byte	0
 2646 01e7 28       		.uleb128 0x28
 2647 01e8 21       		.uleb128 0x21
 2648 01e9 00       		.byte	0
 2649 01ea 00       		.byte	0
 2650 01eb 00       		.byte	0
 2651 01ec 29       		.uleb128 0x29
 2652 01ed 34       		.uleb128 0x34
 2653 01ee 00       		.byte	0
ARM GAS  /tmp/ccUbtkx3.s 			page 51


 2654 01ef 03       		.uleb128 0x3
 2655 01f0 0E       		.uleb128 0xe
 2656 01f1 3A       		.uleb128 0x3a
 2657 01f2 0B       		.uleb128 0xb
 2658 01f3 3B       		.uleb128 0x3b
 2659 01f4 0B       		.uleb128 0xb
 2660 01f5 49       		.uleb128 0x49
 2661 01f6 13       		.uleb128 0x13
 2662 01f7 3F       		.uleb128 0x3f
 2663 01f8 19       		.uleb128 0x19
 2664 01f9 02       		.uleb128 0x2
 2665 01fa 18       		.uleb128 0x18
 2666 01fb 00       		.byte	0
 2667 01fc 00       		.byte	0
 2668 01fd 2A       		.uleb128 0x2a
 2669 01fe 2E       		.uleb128 0x2e
 2670 01ff 01       		.byte	0x1
 2671 0200 3F       		.uleb128 0x3f
 2672 0201 19       		.uleb128 0x19
 2673 0202 03       		.uleb128 0x3
 2674 0203 0E       		.uleb128 0xe
 2675 0204 3A       		.uleb128 0x3a
 2676 0205 0B       		.uleb128 0xb
 2677 0206 3B       		.uleb128 0x3b
 2678 0207 0B       		.uleb128 0xb
 2679 0208 27       		.uleb128 0x27
 2680 0209 19       		.uleb128 0x19
 2681 020a 11       		.uleb128 0x11
 2682 020b 01       		.uleb128 0x1
 2683 020c 12       		.uleb128 0x12
 2684 020d 06       		.uleb128 0x6
 2685 020e 40       		.uleb128 0x40
 2686 020f 18       		.uleb128 0x18
 2687 0210 9742     		.uleb128 0x2117
 2688 0212 19       		.uleb128 0x19
 2689 0213 01       		.uleb128 0x1
 2690 0214 13       		.uleb128 0x13
 2691 0215 00       		.byte	0
 2692 0216 00       		.byte	0
 2693 0217 2B       		.uleb128 0x2b
 2694 0218 898201   		.uleb128 0x4109
 2695 021b 01       		.byte	0x1
 2696 021c 11       		.uleb128 0x11
 2697 021d 01       		.uleb128 0x1
 2698 021e 31       		.uleb128 0x31
 2699 021f 13       		.uleb128 0x13
 2700 0220 01       		.uleb128 0x1
 2701 0221 13       		.uleb128 0x13
 2702 0222 00       		.byte	0
 2703 0223 00       		.byte	0
 2704 0224 2C       		.uleb128 0x2c
 2705 0225 8A8201   		.uleb128 0x410a
 2706 0228 00       		.byte	0
 2707 0229 02       		.uleb128 0x2
 2708 022a 18       		.uleb128 0x18
 2709 022b 9142     		.uleb128 0x2111
 2710 022d 18       		.uleb128 0x18
ARM GAS  /tmp/ccUbtkx3.s 			page 52


 2711 022e 00       		.byte	0
 2712 022f 00       		.byte	0
 2713 0230 2D       		.uleb128 0x2d
 2714 0231 898201   		.uleb128 0x4109
 2715 0234 01       		.byte	0x1
 2716 0235 11       		.uleb128 0x11
 2717 0236 01       		.uleb128 0x1
 2718 0237 31       		.uleb128 0x31
 2719 0238 13       		.uleb128 0x13
 2720 0239 00       		.byte	0
 2721 023a 00       		.byte	0
 2722 023b 2E       		.uleb128 0x2e
 2723 023c 2E       		.uleb128 0x2e
 2724 023d 00       		.byte	0
 2725 023e 3F       		.uleb128 0x3f
 2726 023f 19       		.uleb128 0x19
 2727 0240 03       		.uleb128 0x3
 2728 0241 0E       		.uleb128 0xe
 2729 0242 3A       		.uleb128 0x3a
 2730 0243 0B       		.uleb128 0xb
 2731 0244 3B       		.uleb128 0x3b
 2732 0245 0B       		.uleb128 0xb
 2733 0246 27       		.uleb128 0x27
 2734 0247 19       		.uleb128 0x19
 2735 0248 11       		.uleb128 0x11
 2736 0249 01       		.uleb128 0x1
 2737 024a 12       		.uleb128 0x12
 2738 024b 06       		.uleb128 0x6
 2739 024c 40       		.uleb128 0x40
 2740 024d 18       		.uleb128 0x18
 2741 024e 9742     		.uleb128 0x2117
 2742 0250 19       		.uleb128 0x19
 2743 0251 00       		.byte	0
 2744 0252 00       		.byte	0
 2745 0253 2F       		.uleb128 0x2f
 2746 0254 2E       		.uleb128 0x2e
 2747 0255 00       		.byte	0
 2748 0256 3F       		.uleb128 0x3f
 2749 0257 19       		.uleb128 0x19
 2750 0258 3C       		.uleb128 0x3c
 2751 0259 19       		.uleb128 0x19
 2752 025a 6E       		.uleb128 0x6e
 2753 025b 0E       		.uleb128 0xe
 2754 025c 03       		.uleb128 0x3
 2755 025d 0E       		.uleb128 0xe
 2756 025e 3A       		.uleb128 0x3a
 2757 025f 0B       		.uleb128 0xb
 2758 0260 3B       		.uleb128 0x3b
 2759 0261 05       		.uleb128 0x5
 2760 0262 00       		.byte	0
 2761 0263 00       		.byte	0
 2762 0264 00       		.byte	0
 2763              		.section	.debug_aranges,"",%progbits
 2764 0000 1C000000 		.4byte	0x1c
 2765 0004 0200     		.2byte	0x2
 2766 0006 00000000 		.4byte	.Ldebug_info0
 2767 000a 04       		.byte	0x4
ARM GAS  /tmp/ccUbtkx3.s 			page 53


 2768 000b 00       		.byte	0
 2769 000c 0000     		.2byte	0
 2770 000e 0000     		.2byte	0
 2771 0010 00000000 		.4byte	.Ltext0
 2772 0014 A8000000 		.4byte	.Letext0-.Ltext0
 2773 0018 00000000 		.4byte	0
 2774 001c 00000000 		.4byte	0
 2775              		.section	.debug_line,"",%progbits
 2776              	.Ldebug_line0:
 2777 0000 73020000 		.section	.debug_str,"MS",%progbits,1
 2777      02002C02 
 2777      00000201 
 2777      FB0E0D00 
 2777      01010101 
 2778              	.LASF92:
 2779 0000 5F64736F 		.ascii	"_dso_handle\000"
 2779      5F68616E 
 2779      646C6500 
 2780              	.LASF199:
 2781 000c 5243435F 		.ascii	"RCC_SYSCLKConfig\000"
 2781      53595343 
 2781      4C4B436F 
 2781      6E666967 
 2781      00
 2782              	.LASF2:
 2783 001d 73686F72 		.ascii	"short int\000"
 2783      7420696E 
 2783      7400
 2784              	.LASF194:
 2785 0027 4E4D495F 		.ascii	"NMI_Handler\000"
 2785      48616E64 
 2785      6C657200 
 2786              	.LASF27:
 2787 0033 44494552 		.ascii	"DIER\000"
 2787      00
 2788              	.LASF205:
 2789 0038 64726976 		.ascii	"drivers/nvic.c\000"
 2789      6572732F 
 2789      6E766963 
 2789      2E6300
 2790              	.LASF188:
 2791 0047 44656275 		.ascii	"DebugMon_Handler\000"
 2791      674D6F6E 
 2791      5F48616E 
 2791      646C6572 
 2791      00
 2792              	.LASF145:
 2793 0058 5F72616E 		.ascii	"_rand48\000"
 2793      64343800 
 2794              	.LASF178:
 2795 0060 5F5F6664 		.ascii	"__fdlibm_xopen\000"
 2795      6C69626D 
 2795      5F786F70 
 2795      656E00
 2796              	.LASF124:
 2797 006f 5F656D65 		.ascii	"_emergency\000"
 2797      7267656E 
ARM GAS  /tmp/ccUbtkx3.s 			page 54


 2797      637900
 2798              	.LASF116:
 2799 007a 5F6D6273 		.ascii	"_mbstate\000"
 2799      74617465 
 2799      00
 2800              	.LASF3:
 2801 0083 5F5F7569 		.ascii	"__uint8_t\000"
 2801      6E74385F 
 2801      7400
 2802              	.LASF136:
 2803 008d 5F617465 		.ascii	"_atexit0\000"
 2803      78697430 
 2803      00
 2804              	.LASF65:
 2805 0096 5F6F6666 		.ascii	"_off_t\000"
 2805      5F7400
 2806              	.LASF54:
 2807 009d 54494D5F 		.ascii	"TIM_TypeDef\000"
 2807      54797065 
 2807      44656600 
 2808              	.LASF165:
 2809 00a9 5F776372 		.ascii	"_wcrtomb_state\000"
 2809      746F6D62 
 2809      5F737461 
 2809      746500
 2810              	.LASF166:
 2811 00b8 5F776373 		.ascii	"_wcsrtombs_state\000"
 2811      72746F6D 
 2811      62735F73 
 2811      74617465 
 2811      00
 2812              	.LASF11:
 2813 00c9 6C6F6E67 		.ascii	"long long unsigned int\000"
 2813      206C6F6E 
 2813      6720756E 
 2813      7369676E 
 2813      65642069 
 2814              	.LASF179:
 2815 00e0 5F5F6664 		.ascii	"__fdlibm_posix\000"
 2815      6C69626D 
 2815      5F706F73 
 2815      697800
 2816              	.LASF104:
 2817 00ef 5F6C6266 		.ascii	"_lbfsize\000"
 2817      73697A65 
 2817      00
 2818              	.LASF191:
 2819 00f8 42757346 		.ascii	"BusFault_Handler\000"
 2819      61756C74 
 2819      5F48616E 
 2819      646C6572 
 2819      00
 2820              	.LASF16:
 2821 0109 75696E74 		.ascii	"uint32_t\000"
 2821      33325F74 
 2821      00
 2822              	.LASF18:
ARM GAS  /tmp/ccUbtkx3.s 			page 55


 2823 0112 49544D5F 		.ascii	"ITM_RxBuffer\000"
 2823      52784275 
 2823      66666572 
 2823      00
 2824              	.LASF180:
 2825 011f 5F5F6664 		.ascii	"__fdlib_version\000"
 2825      6C69625F 
 2825      76657273 
 2825      696F6E00 
 2826              	.LASF55:
 2827 012f 6779726F 		.ascii	"gyro\000"
 2827      00
 2828              	.LASF163:
 2829 0134 5F6D6272 		.ascii	"_mbrtowc_state\000"
 2829      746F7763 
 2829      5F737461 
 2829      746500
 2830              	.LASF49:
 2831 0143 42445452 		.ascii	"BDTR\000"
 2831      00
 2832              	.LASF158:
 2833 0148 5F776374 		.ascii	"_wctomb_state\000"
 2833      6F6D625F 
 2833      73746174 
 2833      6500
 2834              	.LASF81:
 2835 0156 5F5F746D 		.ascii	"__tm_sec\000"
 2835      5F736563 
 2835      00
 2836              	.LASF31:
 2837 015f 43434D52 		.ascii	"CCMR1\000"
 2837      3100
 2838              	.LASF33:
 2839 0165 43434D52 		.ascii	"CCMR2\000"
 2839      3200
 2840              	.LASF109:
 2841 016b 5F636C6F 		.ascii	"_close\000"
 2841      736500
 2842              	.LASF0:
 2843 0172 7369676E 		.ascii	"signed char\000"
 2843      65642063 
 2843      68617200 
 2844              	.LASF110:
 2845 017e 5F756275 		.ascii	"_ubuf\000"
 2845      6600
 2846              	.LASF57:
 2847 0184 47785F6F 		.ascii	"Gx_offset\000"
 2847      66667365 
 2847      7400
 2848              	.LASF99:
 2849 018e 5F626173 		.ascii	"_base\000"
 2849      6500
 2850              	.LASF83:
 2851 0194 5F5F746D 		.ascii	"__tm_hour\000"
 2851      5F686F75 
 2851      7200
 2852              	.LASF139:
ARM GAS  /tmp/ccUbtkx3.s 			page 56


 2853 019e 5F5F7366 		.ascii	"__sf\000"
 2853      00
 2854              	.LASF90:
 2855 01a3 5F6F6E5F 		.ascii	"_on_exit_args\000"
 2855      65786974 
 2855      5F617267 
 2855      7300
 2856              	.LASF60:
 2857 01b1 41636331 		.ascii	"Acc1G_Values\000"
 2857      475F5661 
 2857      6C756573 
 2857      00
 2858              	.LASF42:
 2859 01be 52455345 		.ascii	"RESERVED13\000"
 2859      52564544 
 2859      313300
 2860              	.LASF44:
 2861 01c9 52455345 		.ascii	"RESERVED14\000"
 2861      52564544 
 2861      313400
 2862              	.LASF46:
 2863 01d4 52455345 		.ascii	"RESERVED15\000"
 2863      52564544 
 2863      313500
 2864              	.LASF105:
 2865 01df 5F636F6F 		.ascii	"_cookie\000"
 2865      6B696500 
 2866              	.LASF50:
 2867 01e7 52455345 		.ascii	"RESERVED17\000"
 2867      52564544 
 2867      313700
 2868              	.LASF138:
 2869 01f2 5F5F7367 		.ascii	"__sglue\000"
 2869      6C756500 
 2870              	.LASF53:
 2871 01fa 52455345 		.ascii	"RESERVED19\000"
 2871      52564544 
 2871      313900
 2872              	.LASF7:
 2873 0205 6C6F6E67 		.ascii	"long int\000"
 2873      20696E74 
 2873      00
 2874              	.LASF22:
 2875 020e 454E4142 		.ascii	"ENABLE\000"
 2875      4C4500
 2876              	.LASF206:
 2877 0215 2F686F6D 		.ascii	"/home/enbin/Documents/code/STM/stm32-quadrocopter\000"
 2877      652F656E 
 2877      62696E2F 
 2877      446F6375 
 2877      6D656E74 
 2878              	.LASF94:
 2879 0247 5F69735F 		.ascii	"_is_cxa\000"
 2879      63786100 
 2880              	.LASF120:
 2881 024f 5F737464 		.ascii	"_stdin\000"
 2881      696E00
ARM GAS  /tmp/ccUbtkx3.s 			page 57


 2882              	.LASF177:
 2883 0256 5F5F6664 		.ascii	"__fdlibm_svid\000"
 2883      6C69626D 
 2883      5F737669 
 2883      6400
 2884              	.LASF130:
 2885 0264 5F726573 		.ascii	"_result_k\000"
 2885      756C745F 
 2885      6B00
 2886              	.LASF35:
 2887 026e 43434552 		.ascii	"CCER\000"
 2887      00
 2888              	.LASF10:
 2889 0273 6C6F6E67 		.ascii	"long long int\000"
 2889      206C6F6E 
 2889      6720696E 
 2889      7400
 2890              	.LASF181:
 2891 0281 5F737973 		.ascii	"_sys_errlist\000"
 2891      5F657272 
 2891      6C697374 
 2891      00
 2892              	.LASF134:
 2893 028e 5F637674 		.ascii	"_cvtbuf\000"
 2893      62756600 
 2894              	.LASF183:
 2895 0296 74696D65 		.ascii	"timer_counter\000"
 2895      725F636F 
 2895      756E7465 
 2895      7200
 2896              	.LASF190:
 2897 02a4 55736167 		.ascii	"UsageFault_Handler\000"
 2897      65466175 
 2897      6C745F48 
 2897      616E646C 
 2897      657200
 2898              	.LASF164:
 2899 02b7 5F6D6273 		.ascii	"_mbsrtowcs_state\000"
 2899      72746F77 
 2899      63735F73 
 2899      74617465 
 2899      00
 2900              	.LASF162:
 2901 02c8 5F6D6272 		.ascii	"_mbrlen_state\000"
 2901      6C656E5F 
 2901      73746174 
 2901      6500
 2902              	.LASF149:
 2903 02d6 5F756E75 		.ascii	"_unused_rand\000"
 2903      7365645F 
 2903      72616E64 
 2903      00
 2904              	.LASF4:
 2905 02e3 5F5F7569 		.ascii	"__uint16_t\000"
 2905      6E743136 
 2905      5F7400
 2906              	.LASF97:
ARM GAS  /tmp/ccUbtkx3.s 			page 58


 2907 02ee 5F666E73 		.ascii	"_fns\000"
 2907      00
 2908              	.LASF8:
 2909 02f3 5F5F7569 		.ascii	"__uint32_t\000"
 2909      6E743332 
 2909      5F7400
 2910              	.LASF77:
 2911 02fe 5F736967 		.ascii	"_sign\000"
 2911      6E00
 2912              	.LASF171:
 2913 0304 5F696D70 		.ascii	"_impure_ptr\000"
 2913      7572655F 
 2913      70747200 
 2914              	.LASF122:
 2915 0310 5F737464 		.ascii	"_stderr\000"
 2915      65727200 
 2916              	.LASF79:
 2917 0318 5F426967 		.ascii	"_Bigint\000"
 2917      696E7400 
 2918              	.LASF75:
 2919 0320 5F6E6578 		.ascii	"_next\000"
 2919      7400
 2920              	.LASF106:
 2921 0326 5F726561 		.ascii	"_read\000"
 2921      6400
 2922              	.LASF80:
 2923 032c 5F5F746D 		.ascii	"__tm\000"
 2923      00
 2924              	.LASF192:
 2925 0331 4D656D4D 		.ascii	"MemManage_Handler\000"
 2925      616E6167 
 2925      655F4861 
 2925      6E646C65 
 2925      7200
 2926              	.LASF21:
 2927 0343 44495341 		.ascii	"DISABLE\000"
 2927      424C4500 
 2928              	.LASF69:
 2929 034b 5F5F7763 		.ascii	"__wchb\000"
 2929      686200
 2930              	.LASF19:
 2931 0352 53797374 		.ascii	"SystemCoreClock\000"
 2931      656D436F 
 2931      7265436C 
 2931      6F636B00 
 2932              	.LASF133:
 2933 0362 5F637674 		.ascii	"_cvtlen\000"
 2933      6C656E00 
 2934              	.LASF9:
 2935 036a 6C6F6E67 		.ascii	"long unsigned int\000"
 2935      20756E73 
 2935      69676E65 
 2935      6420696E 
 2935      7400
 2936              	.LASF103:
 2937 037c 5F66696C 		.ascii	"_file\000"
 2937      6500
ARM GAS  /tmp/ccUbtkx3.s 			page 59


 2938              	.LASF114:
 2939 0382 5F646174 		.ascii	"_data\000"
 2939      6100
 2940              	.LASF143:
 2941 0388 5F6E696F 		.ascii	"_niobs\000"
 2941      627300
 2942              	.LASF154:
 2943 038f 5F72616E 		.ascii	"_rand_next\000"
 2943      645F6E65 
 2943      787400
 2944              	.LASF160:
 2945 039a 5F736967 		.ascii	"_signal_buf\000"
 2945      6E616C5F 
 2945      62756600 
 2946              	.LASF151:
 2947 03a6 5F617363 		.ascii	"_asctime_buf\000"
 2947      74696D65 
 2947      5F627566 
 2947      00
 2948              	.LASF129:
 2949 03b3 5F726573 		.ascii	"_result\000"
 2949      756C7400 
 2950              	.LASF68:
 2951 03bb 5F5F7763 		.ascii	"__wch\000"
 2951      6800
 2952              	.LASF168:
 2953 03c1 5F6E6578 		.ascii	"_nextf\000"
 2953      746600
 2954              	.LASF193:
 2955 03c8 48617264 		.ascii	"HardFault_Handler\000"
 2955      4661756C 
 2955      745F4861 
 2955      6E646C65 
 2955      7200
 2956              	.LASF135:
 2957 03da 5F6E6577 		.ascii	"_new\000"
 2957      00
 2958              	.LASF14:
 2959 03df 75696E74 		.ascii	"uint16_t\000"
 2959      31365F74 
 2959      00
 2960              	.LASF115:
 2961 03e8 5F6C6F63 		.ascii	"_lock\000"
 2961      6B00
 2962              	.LASF173:
 2963 03ee 7375626F 		.ascii	"suboptarg\000"
 2963      70746172 
 2963      6700
 2964              	.LASF147:
 2965 03f8 5F6D756C 		.ascii	"_mult\000"
 2965      7400
 2966              	.LASF107:
 2967 03fe 5F777269 		.ascii	"_write\000"
 2967      746500
 2968              	.LASF20:
 2969 0405 52455345 		.ascii	"RESET\000"
 2969      5400
ARM GAS  /tmp/ccUbtkx3.s 			page 60


 2970              	.LASF70:
 2971 040b 5F5F636F 		.ascii	"__count\000"
 2971      756E7400 
 2972              	.LASF169:
 2973 0413 5F6E6D61 		.ascii	"_nmalloc\000"
 2973      6C6C6F63 
 2973      00
 2974              	.LASF64:
 2975 041c 5F4C4F43 		.ascii	"_LOCK_RECURSIVE_T\000"
 2975      4B5F5245 
 2975      43555253 
 2975      4956455F 
 2975      5400
 2976              	.LASF17:
 2977 042e 73697A65 		.ascii	"sizetype\000"
 2977      74797065 
 2977      00
 2978              	.LASF113:
 2979 0437 5F6F6666 		.ascii	"_offset\000"
 2979      73657400 
 2980              	.LASF58:
 2981 043f 47795F6F 		.ascii	"Gy_offset\000"
 2981      66667365 
 2981      7400
 2982              	.LASF78:
 2983 0449 5F776473 		.ascii	"_wds\000"
 2983      00
 2984              	.LASF39:
 2985 044e 52455345 		.ascii	"RESERVED11\000"
 2985      52564544 
 2985      313100
 2986              	.LASF56:
 2987 0459 61636365 		.ascii	"accel\000"
 2987      6C00
 2988              	.LASF59:
 2989 045f 477A5F6F 		.ascii	"Gz_offset\000"
 2989      66667365 
 2989      7400
 2990              	.LASF91:
 2991 0469 5F666E61 		.ascii	"_fnargs\000"
 2991      72677300 
 2992              	.LASF85:
 2993 0471 5F5F746D 		.ascii	"__tm_mon\000"
 2993      5F6D6F6E 
 2993      00
 2994              	.LASF95:
 2995 047a 5F617465 		.ascii	"_atexit\000"
 2995      78697400 
 2996              	.LASF200:
 2997 0482 54494D5F 		.ascii	"TIM_GetITStatus\000"
 2997      47657449 
 2997      54537461 
 2997      74757300 
 2998              	.LASF127:
 2999 0492 5F5F7364 		.ascii	"__sdidinit\000"
 2999      6964696E 
 2999      697400
ARM GAS  /tmp/ccUbtkx3.s 			page 61


 3000              	.LASF153:
 3001 049d 5F67616D 		.ascii	"_gamma_signgam\000"
 3001      6D615F73 
 3001      69676E67 
 3001      616D00
 3002              	.LASF67:
 3003 04ac 77696E74 		.ascii	"wint_t\000"
 3003      5F7400
 3004              	.LASF61:
 3005 04b3 666C6F61 		.ascii	"float\000"
 3005      7400
 3006              	.LASF132:
 3007 04b9 5F667265 		.ascii	"_freelist\000"
 3007      656C6973 
 3007      7400
 3008              	.LASF62:
 3009 04c3 50697463 		.ascii	"Pitch\000"
 3009      6800
 3010              	.LASF98:
 3011 04c9 5F5F7362 		.ascii	"__sbuf\000"
 3011      756600
 3012              	.LASF23:
 3013 04d0 52455345 		.ascii	"RESERVED0\000"
 3013      52564544 
 3013      3000
 3014              	.LASF24:
 3015 04da 52455345 		.ascii	"RESERVED1\000"
 3015      52564544 
 3015      3100
 3016              	.LASF26:
 3017 04e4 52455345 		.ascii	"RESERVED2\000"
 3017      52564544 
 3017      3200
 3018              	.LASF28:
 3019 04ee 52455345 		.ascii	"RESERVED3\000"
 3019      52564544 
 3019      3300
 3020              	.LASF29:
 3021 04f8 52455345 		.ascii	"RESERVED4\000"
 3021      52564544 
 3021      3400
 3022              	.LASF30:
 3023 0502 52455345 		.ascii	"RESERVED5\000"
 3023      52564544 
 3023      3500
 3024              	.LASF32:
 3025 050c 52455345 		.ascii	"RESERVED6\000"
 3025      52564544 
 3025      3600
 3026              	.LASF36:
 3027 0516 52455345 		.ascii	"RESERVED8\000"
 3027      52564544 
 3027      3800
 3028              	.LASF37:
 3029 0520 52455345 		.ascii	"RESERVED9\000"
 3029      52564544 
 3029      3900
ARM GAS  /tmp/ccUbtkx3.s 			page 62


 3030              	.LASF202:
 3031 052a 5243435F 		.ascii	"RCC_HSEConfig\000"
 3031      48534543 
 3031      6F6E6669 
 3031      6700
 3032              	.LASF15:
 3033 0538 696E7433 		.ascii	"int32_t\000"
 3033      325F7400 
 3034              	.LASF1:
 3035 0540 756E7369 		.ascii	"unsigned char\000"
 3035      676E6564 
 3035      20636861 
 3035      7200
 3036              	.LASF144:
 3037 054e 5F696F62 		.ascii	"_iobs\000"
 3037      7300
 3038              	.LASF167:
 3039 0554 5F685F65 		.ascii	"_h_errno\000"
 3039      72726E6F 
 3039      00
 3040              	.LASF184:
 3041 055d 5243435F 		.ascii	"RCC_IRQHandler\000"
 3041      49525148 
 3041      616E646C 
 3041      657200
 3042              	.LASF88:
 3043 056c 5F5F746D 		.ascii	"__tm_yday\000"
 3043      5F796461 
 3043      7900
 3044              	.LASF176:
 3045 0576 5F5F6664 		.ascii	"__fdlibm_ieee\000"
 3045      6C69626D 
 3045      5F696565 
 3045      6500
 3046              	.LASF117:
 3047 0584 5F666C61 		.ascii	"_flags2\000"
 3047      67733200 
 3048              	.LASF198:
 3049 058c 5243435F 		.ascii	"RCC_PLLCmd\000"
 3049      504C4C43 
 3049      6D6400
 3050              	.LASF141:
 3051 0597 5F5F4649 		.ascii	"__FILE\000"
 3051      4C4500
 3052              	.LASF72:
 3053 059e 5F6D6273 		.ascii	"_mbstate_t\000"
 3053      74617465 
 3053      5F7400
 3054              	.LASF101:
 3055 05a9 5F5F7346 		.ascii	"__sFILE\000"
 3055      494C4500 
 3056              	.LASF182:
 3057 05b1 5F737973 		.ascii	"_sys_nerr\000"
 3057      5F6E6572 
 3057      7200
 3058              	.LASF204:
 3059 05bb 474E5520 		.ascii	"GNU C89 6.1.1 20160526 -mcpu=cortex-m3 -mthumb -mfl"
ARM GAS  /tmp/ccUbtkx3.s 			page 63


 3059      43383920 
 3059      362E312E 
 3059      31203230 
 3059      31363035 
 3060 05ee 6F61742D 		.ascii	"oat-abi=soft -g -O1 -std=gnu90 -fno-common -fno-mat"
 3060      6162693D 
 3060      736F6674 
 3060      202D6720 
 3060      2D4F3120 
 3061 0621 682D6572 		.ascii	"h-errno\000"
 3061      726E6F00 
 3062              	.LASF156:
 3063 0629 5F6D626C 		.ascii	"_mblen_state\000"
 3063      656E5F73 
 3063      74617465 
 3063      00
 3064              	.LASF123:
 3065 0636 5F696E63 		.ascii	"_inc\000"
 3065      00
 3066              	.LASF96:
 3067 063b 5F696E64 		.ascii	"_ind\000"
 3067      00
 3068              	.LASF126:
 3069 0640 5F637572 		.ascii	"_current_locale\000"
 3069      72656E74 
 3069      5F6C6F63 
 3069      616C6500 
 3070              	.LASF189:
 3071 0650 5356435F 		.ascii	"SVC_Handler\000"
 3071      48616E64 
 3071      6C657200 
 3072              	.LASF128:
 3073 065c 5F5F636C 		.ascii	"__cleanup\000"
 3073      65616E75 
 3073      7000
 3074              	.LASF76:
 3075 0666 5F6D6178 		.ascii	"_maxwds\000"
 3075      77647300 
 3076              	.LASF118:
 3077 066e 5F726565 		.ascii	"_reent\000"
 3077      6E7400
 3078              	.LASF146:
 3079 0675 5F736565 		.ascii	"_seed\000"
 3079      6400
 3080              	.LASF196:
 3081 067b 5243435F 		.ascii	"RCC_ClearITPendingBit\000"
 3081      436C6561 
 3081      72495450 
 3081      656E6469 
 3081      6E674269 
 3082              	.LASF71:
 3083 0691 5F5F7661 		.ascii	"__value\000"
 3083      6C756500 
 3084              	.LASF34:
 3085 0699 52455345 		.ascii	"RESERVED7\000"
 3085      52564544 
 3085      3700
ARM GAS  /tmp/ccUbtkx3.s 			page 64


 3086              	.LASF108:
 3087 06a3 5F736565 		.ascii	"_seek\000"
 3087      6B00
 3088              	.LASF186:
 3089 06a9 53797354 		.ascii	"SysTick_Handler\000"
 3089      69636B5F 
 3089      48616E64 
 3089      6C657200 
 3090              	.LASF87:
 3091 06b9 5F5F746D 		.ascii	"__tm_wday\000"
 3091      5F776461 
 3091      7900
 3092              	.LASF66:
 3093 06c3 5F66706F 		.ascii	"_fpos_t\000"
 3093      735F7400 
 3094              	.LASF175:
 3095 06cb 6C6F6E67 		.ascii	"long double\000"
 3095      20646F75 
 3095      626C6500 
 3096              	.LASF86:
 3097 06d7 5F5F746D 		.ascii	"__tm_year\000"
 3097      5F796561 
 3097      7200
 3098              	.LASF119:
 3099 06e1 5F657272 		.ascii	"_errno\000"
 3099      6E6F00
 3100              	.LASF140:
 3101 06e8 63686172 		.ascii	"char\000"
 3101      00
 3102              	.LASF112:
 3103 06ed 5F626C6B 		.ascii	"_blksize\000"
 3103      73697A65 
 3103      00
 3104              	.LASF25:
 3105 06f6 534D4352 		.ascii	"SMCR\000"
 3105      00
 3106              	.LASF100:
 3107 06fb 5F73697A 		.ascii	"_size\000"
 3107      6500
 3108              	.LASF12:
 3109 0701 756E7369 		.ascii	"unsigned int\000"
 3109      676E6564 
 3109      20696E74 
 3109      00
 3110              	.LASF52:
 3111 070e 444D4152 		.ascii	"DMAR\000"
 3111      00
 3112              	.LASF201:
 3113 0713 54494D5F 		.ascii	"TIM_ClearITPendingBit\000"
 3113      436C6561 
 3113      72495450 
 3113      656E6469 
 3113      6E674269 
 3114              	.LASF6:
 3115 0729 5F5F696E 		.ascii	"__int32_t\000"
 3115      7433325F 
 3115      7400
ARM GAS  /tmp/ccUbtkx3.s 			page 65


 3116              	.LASF63:
 3117 0733 526F6C6C 		.ascii	"Roll\000"
 3117      00
 3118              	.LASF195:
 3119 0738 5243435F 		.ascii	"RCC_GetITStatus\000"
 3119      47657449 
 3119      54537461 
 3119      74757300 
 3120              	.LASF150:
 3121 0748 5F737472 		.ascii	"_strtok_last\000"
 3121      746F6B5F 
 3121      6C617374 
 3121      00
 3122              	.LASF93:
 3123 0755 5F666E74 		.ascii	"_fntypes\000"
 3123      79706573 
 3123      00
 3124              	.LASF197:
 3125 075e 5243435F 		.ascii	"RCC_GetFlagStatus\000"
 3125      47657446 
 3125      6C616753 
 3125      74617475 
 3125      7300
 3126              	.LASF5:
 3127 0770 73686F72 		.ascii	"short unsigned int\000"
 3127      7420756E 
 3127      7369676E 
 3127      65642069 
 3127      6E7400
 3128              	.LASF148:
 3129 0783 5F616464 		.ascii	"_add\000"
 3129      00
 3130              	.LASF74:
 3131 0788 5F5F554C 		.ascii	"__ULong\000"
 3131      6F6E6700 
 3132              	.LASF161:
 3133 0790 5F676574 		.ascii	"_getdate_err\000"
 3133      64617465 
 3133      5F657272 
 3133      00
 3134              	.LASF207:
 3135 079d 5F5F6664 		.ascii	"__fdlibm_version\000"
 3135      6C69626D 
 3135      5F766572 
 3135      73696F6E 
 3135      00
 3136              	.LASF38:
 3137 07ae 52455345 		.ascii	"RESERVED10\000"
 3137      52564544 
 3137      313000
 3138              	.LASF172:
 3139 07b9 5F676C6F 		.ascii	"_global_impure_ptr\000"
 3139      62616C5F 
 3139      696D7075 
 3139      72655F70 
 3139      747200
 3140              	.LASF125:
ARM GAS  /tmp/ccUbtkx3.s 			page 66


 3141 07cc 5F637572 		.ascii	"_current_category\000"
 3141      72656E74 
 3141      5F636174 
 3141      65676F72 
 3141      7900
 3142              	.LASF40:
 3143 07de 52455345 		.ascii	"RESERVED12\000"
 3143      52564544 
 3143      313200
 3144              	.LASF41:
 3145 07e9 43435231 		.ascii	"CCR1\000"
 3145      00
 3146              	.LASF43:
 3147 07ee 43435232 		.ascii	"CCR2\000"
 3147      00
 3148              	.LASF45:
 3149 07f3 43435233 		.ascii	"CCR3\000"
 3149      00
 3150              	.LASF47:
 3151 07f8 43435234 		.ascii	"CCR4\000"
 3151      00
 3152              	.LASF48:
 3153 07fd 52455345 		.ascii	"RESERVED16\000"
 3153      52564544 
 3153      313600
 3154              	.LASF51:
 3155 0808 52455345 		.ascii	"RESERVED18\000"
 3155      52564544 
 3155      313800
 3156              	.LASF121:
 3157 0813 5F737464 		.ascii	"_stdout\000"
 3157      6F757400 
 3158              	.LASF142:
 3159 081b 5F676C75 		.ascii	"_glue\000"
 3159      6500
 3160              	.LASF203:
 3161 0821 5243435F 		.ascii	"RCC_ITConfig\000"
 3161      4954436F 
 3161      6E666967 
 3161      00
 3162              	.LASF102:
 3163 082e 5F666C61 		.ascii	"_flags\000"
 3163      677300
 3164              	.LASF13:
 3165 0835 75696E74 		.ascii	"uint8_t\000"
 3165      385F7400 
 3166              	.LASF159:
 3167 083d 5F6C3634 		.ascii	"_l64a_buf\000"
 3167      615F6275 
 3167      6600
 3168              	.LASF137:
 3169 0847 5F736967 		.ascii	"_sig_func\000"
 3169      5F66756E 
 3169      6300
 3170              	.LASF73:
 3171 0851 5F666C6F 		.ascii	"_flock_t\000"
 3171      636B5F74 
ARM GAS  /tmp/ccUbtkx3.s 			page 67


 3171      00
 3172              	.LASF111:
 3173 085a 5F6E6275 		.ascii	"_nbuf\000"
 3173      6600
 3174              	.LASF170:
 3175 0860 5F756E75 		.ascii	"_unused\000"
 3175      73656400 
 3176              	.LASF89:
 3177 0868 5F5F746D 		.ascii	"__tm_isdst\000"
 3177      5F697364 
 3177      737400
 3178              	.LASF152:
 3179 0873 5F6C6F63 		.ascii	"_localtime_buf\000"
 3179      616C7469 
 3179      6D655F62 
 3179      756600
 3180              	.LASF82:
 3181 0882 5F5F746D 		.ascii	"__tm_min\000"
 3181      5F6D696E 
 3181      00
 3182              	.LASF155:
 3183 088b 5F723438 		.ascii	"_r48\000"
 3183      00
 3184              	.LASF157:
 3185 0890 5F6D6274 		.ascii	"_mbtowc_state\000"
 3185      6F77635F 
 3185      73746174 
 3185      6500
 3186              	.LASF187:
 3187 089e 50656E64 		.ascii	"PendSV_Handler\000"
 3187      53565F48 
 3187      616E646C 
 3187      657200
 3188              	.LASF131:
 3189 08ad 5F703573 		.ascii	"_p5s\000"
 3189      00
 3190              	.LASF174:
 3191 08b2 646F7562 		.ascii	"double\000"
 3191      6C6500
 3192              	.LASF185:
 3193 08b9 54494D32 		.ascii	"TIM2_IRQHandler\000"
 3193      5F495251 
 3193      48616E64 
 3193      6C657200 
 3194              	.LASF84:
 3195 08c9 5F5F746D 		.ascii	"__tm_mday\000"
 3195      5F6D6461 
 3195      7900
 3196              		.ident	"GCC: (Arch Repository) 6.1.1 20160526"
ARM GAS  /tmp/ccUbtkx3.s 			page 68


DEFINED SYMBOLS
                            *ABS*:0000000000000000 nvic.c
     /tmp/ccUbtkx3.s:15     .text:0000000000000000 $t
     /tmp/ccUbtkx3.s:22     .text:0000000000000000 NMI_Handler
     /tmp/ccUbtkx3.s:71     .text:000000000000002c HardFault_Handler
     /tmp/ccUbtkx3.s:91     .text:000000000000002e MemManage_Handler
     /tmp/ccUbtkx3.s:111    .text:0000000000000030 BusFault_Handler
     /tmp/ccUbtkx3.s:131    .text:0000000000000032 UsageFault_Handler
     /tmp/ccUbtkx3.s:151    .text:0000000000000034 SVC_Handler
     /tmp/ccUbtkx3.s:169    .text:0000000000000036 DebugMon_Handler
     /tmp/ccUbtkx3.s:187    .text:0000000000000038 PendSV_Handler
     /tmp/ccUbtkx3.s:205    .text:000000000000003a SysTick_Handler
     /tmp/ccUbtkx3.s:223    .text:000000000000003c TIM2_IRQHandler
     /tmp/ccUbtkx3.s:258    .text:0000000000000060 $d
     /tmp/ccUbtkx3.s:262    .text:0000000000000064 $t
     /tmp/ccUbtkx3.s:269    .text:0000000000000064 RCC_IRQHandler
     /tmp/ccUbtkx3.s:334    .bss:0000000000000000 timer_counter
     /tmp/ccUbtkx3.s:330    .bss:0000000000000000 $d
                     .debug_frame:0000000000000010 $d

UNDEFINED SYMBOLS
RCC_GetITStatus
RCC_HSEConfig
RCC_ITConfig
RCC_ClearITPendingBit
TIM_GetITStatus
TIM_ClearITPendingBit
RCC_GetFlagStatus
RCC_PLLCmd
RCC_SYSCLKConfig
