ARM GAS  /tmp/ccUELuRe.s 			page 1


   1              		.cpu cortex-m3
   2              		.eabi_attribute 20, 1
   3              		.eabi_attribute 21, 1
   4              		.eabi_attribute 23, 3
   5              		.eabi_attribute 24, 1
   6              		.eabi_attribute 25, 1
   7              		.eabi_attribute 26, 1
   8              		.eabi_attribute 30, 1
   9              		.eabi_attribute 34, 1
  10              		.eabi_attribute 18, 4
  11              		.file	"nvic.c"
  12              		.text
  13              	.Ltext0:
  14              		.cfi_sections	.debug_frame
  15              		.align	1
  16              		.global	NMI_Handler
  17              		.syntax unified
  18              		.thumb
  19              		.thumb_func
  20              		.fpu softvfp
  21              		.type	NMI_Handler, %function
  22              	NMI_Handler:
  23              	.LFB63:
  24              		.file 1 "drivers/nvic.c"
   1:drivers/nvic.c **** /* Includes ------------------------------------------------------------------*/
   2:drivers/nvic.c **** #include "nvic.h"
   3:drivers/nvic.c **** 
   4:drivers/nvic.c **** uint16_t timer_counter;
   5:drivers/nvic.c **** 
   6:drivers/nvic.c **** void NMI_Handler(void)
   7:drivers/nvic.c **** {
  25              		.loc 1 7 0
  26              		.cfi_startproc
  27              		@ args = 0, pretend = 0, frame = 0
  28              		@ frame_needed = 0, uses_anonymous_args = 0
  29 0000 08B5     		push	{r3, lr}
  30              		.cfi_def_cfa_offset 8
  31              		.cfi_offset 3, -8
  32              		.cfi_offset 14, -4
   8:drivers/nvic.c ****   /* This interrupt is generated when HSE clock fails */
   9:drivers/nvic.c **** 
  10:drivers/nvic.c ****   if (RCC_GetITStatus(RCC_IT_CSS) != RESET)
  33              		.loc 1 10 0
  34 0002 8020     		movs	r0, #128
  35 0004 FFF7FEFF 		bl	RCC_GetITStatus
  36              	.LVL0:
  37 0008 00B9     		cbnz	r0, .L4
  38              	.L1:
  39 000a 08BD     		pop	{r3, pc}
  40              	.L4:
  11:drivers/nvic.c ****   {/* At this stage: HSE, PLL are disabled (but no change on PLL config) and HSI
  12:drivers/nvic.c ****        is selected as system clock source */
  13:drivers/nvic.c **** 
  14:drivers/nvic.c ****     /* Enable HSE */
  15:drivers/nvic.c ****     RCC_HSEConfig(RCC_HSE_ON);
  41              		.loc 1 15 0
  42 000c 4FF48030 		mov	r0, #65536
ARM GAS  /tmp/ccUELuRe.s 			page 2


  43 0010 FFF7FEFF 		bl	RCC_HSEConfig
  44              	.LVL1:
  16:drivers/nvic.c **** 
  17:drivers/nvic.c ****     /* Enable HSE Ready interrupt */
  18:drivers/nvic.c ****     RCC_ITConfig(RCC_IT_HSERDY, ENABLE);
  45              		.loc 1 18 0
  46 0014 0121     		movs	r1, #1
  47 0016 0820     		movs	r0, #8
  48 0018 FFF7FEFF 		bl	RCC_ITConfig
  49              	.LVL2:
  19:drivers/nvic.c **** 
  20:drivers/nvic.c **** #ifndef SYSCLK_HSE
  21:drivers/nvic.c ****  #ifdef STM32F10X_CL
  22:drivers/nvic.c ****     /* Enable PLL and PLL2 Ready interrupts */
  23:drivers/nvic.c ****     RCC_ITConfig(RCC_IT_PLLRDY | RCC_IT_PLL2RDY, ENABLE);
  24:drivers/nvic.c ****  #else
  25:drivers/nvic.c ****     /* Enable PLL Ready interrupt */
  26:drivers/nvic.c ****     RCC_ITConfig(RCC_IT_PLLRDY, ENABLE);
  50              		.loc 1 26 0
  51 001c 0121     		movs	r1, #1
  52 001e 1020     		movs	r0, #16
  53 0020 FFF7FEFF 		bl	RCC_ITConfig
  54              	.LVL3:
  27:drivers/nvic.c ****  #endif	/* STM32F10X_CL */
  28:drivers/nvic.c **** #endif /* SYSCLK_HSE */
  29:drivers/nvic.c **** 
  30:drivers/nvic.c ****     /* Clear Clock Security System interrupt pending bit */
  31:drivers/nvic.c ****     RCC_ClearITPendingBit(RCC_IT_CSS);
  55              		.loc 1 31 0
  56 0024 8020     		movs	r0, #128
  57 0026 FFF7FEFF 		bl	RCC_ClearITPendingBit
  58              	.LVL4:
  32:drivers/nvic.c **** 
  33:drivers/nvic.c ****     /* Once HSE clock recover, the HSERDY interrupt is generated and in the RCC ISR
  34:drivers/nvic.c ****        routine the system clock will be reconfigured to its previous state (before
  35:drivers/nvic.c ****        HSE clock failure) */
  36:drivers/nvic.c ****   }
  37:drivers/nvic.c **** }
  59              		.loc 1 37 0
  60 002a EEE7     		b	.L1
  61              		.cfi_endproc
  62              	.LFE63:
  63              		.size	NMI_Handler, .-NMI_Handler
  64              		.align	1
  65              		.global	HardFault_Handler
  66              		.syntax unified
  67              		.thumb
  68              		.thumb_func
  69              		.fpu softvfp
  70              		.type	HardFault_Handler, %function
  71              	HardFault_Handler:
  72              	.LFB64:
  38:drivers/nvic.c **** 
  39:drivers/nvic.c **** /**
  40:drivers/nvic.c ****   * @brief  This function handles Hard Fault exception.
  41:drivers/nvic.c ****   * @param  None
  42:drivers/nvic.c ****   * @retval None
ARM GAS  /tmp/ccUELuRe.s 			page 3


  43:drivers/nvic.c ****   */
  44:drivers/nvic.c **** void HardFault_Handler(void)
  45:drivers/nvic.c **** {
  73              		.loc 1 45 0
  74              		.cfi_startproc
  75              		@ Volatile: function does not return.
  76              		@ args = 0, pretend = 0, frame = 0
  77              		@ frame_needed = 0, uses_anonymous_args = 0
  78              		@ link register save eliminated.
  79              	.L6:
  80 002c FEE7     		b	.L6
  81              		.cfi_endproc
  82              	.LFE64:
  83              		.size	HardFault_Handler, .-HardFault_Handler
  84              		.align	1
  85              		.global	MemManage_Handler
  86              		.syntax unified
  87              		.thumb
  88              		.thumb_func
  89              		.fpu softvfp
  90              		.type	MemManage_Handler, %function
  91              	MemManage_Handler:
  92              	.LFB65:
  46:drivers/nvic.c ****   /* Go to infinite loop when Hard Fault exception occurs */
  47:drivers/nvic.c ****   while (1)
  48:drivers/nvic.c ****   {
  49:drivers/nvic.c ****   }
  50:drivers/nvic.c **** }
  51:drivers/nvic.c **** 
  52:drivers/nvic.c **** /**
  53:drivers/nvic.c ****   * @brief  This function handles Memory Manage exception.
  54:drivers/nvic.c ****   * @param  None
  55:drivers/nvic.c ****   * @retval None
  56:drivers/nvic.c ****   */
  57:drivers/nvic.c **** void MemManage_Handler(void)
  58:drivers/nvic.c **** {
  93              		.loc 1 58 0
  94              		.cfi_startproc
  95              		@ Volatile: function does not return.
  96              		@ args = 0, pretend = 0, frame = 0
  97              		@ frame_needed = 0, uses_anonymous_args = 0
  98              		@ link register save eliminated.
  99              	.L8:
 100 002e FEE7     		b	.L8
 101              		.cfi_endproc
 102              	.LFE65:
 103              		.size	MemManage_Handler, .-MemManage_Handler
 104              		.align	1
 105              		.global	BusFault_Handler
 106              		.syntax unified
 107              		.thumb
 108              		.thumb_func
 109              		.fpu softvfp
 110              		.type	BusFault_Handler, %function
 111              	BusFault_Handler:
 112              	.LFB66:
  59:drivers/nvic.c ****   /* Go to infinite loop when Memory Manage exception occurs */
ARM GAS  /tmp/ccUELuRe.s 			page 4


  60:drivers/nvic.c ****   while (1)
  61:drivers/nvic.c ****   {
  62:drivers/nvic.c ****   }
  63:drivers/nvic.c **** }
  64:drivers/nvic.c **** 
  65:drivers/nvic.c **** /**
  66:drivers/nvic.c ****   * @brief  This function handles Bus Fault exception.
  67:drivers/nvic.c ****   * @param  None
  68:drivers/nvic.c ****   * @retval None
  69:drivers/nvic.c ****   */
  70:drivers/nvic.c **** void BusFault_Handler(void)
  71:drivers/nvic.c **** {
 113              		.loc 1 71 0
 114              		.cfi_startproc
 115              		@ Volatile: function does not return.
 116              		@ args = 0, pretend = 0, frame = 0
 117              		@ frame_needed = 0, uses_anonymous_args = 0
 118              		@ link register save eliminated.
 119              	.L10:
 120 0030 FEE7     		b	.L10
 121              		.cfi_endproc
 122              	.LFE66:
 123              		.size	BusFault_Handler, .-BusFault_Handler
 124              		.align	1
 125              		.global	UsageFault_Handler
 126              		.syntax unified
 127              		.thumb
 128              		.thumb_func
 129              		.fpu softvfp
 130              		.type	UsageFault_Handler, %function
 131              	UsageFault_Handler:
 132              	.LFB67:
  72:drivers/nvic.c ****   /* Go to infinite loop when Bus Fault exception occurs */
  73:drivers/nvic.c ****   while (1)
  74:drivers/nvic.c ****   {
  75:drivers/nvic.c ****   }
  76:drivers/nvic.c **** }
  77:drivers/nvic.c **** 
  78:drivers/nvic.c **** /**
  79:drivers/nvic.c ****   * @brief  This function handles Usage Fault exception.
  80:drivers/nvic.c ****   * @param  None
  81:drivers/nvic.c ****   * @retval None
  82:drivers/nvic.c ****   */
  83:drivers/nvic.c **** void UsageFault_Handler(void)
  84:drivers/nvic.c **** {
 133              		.loc 1 84 0
 134              		.cfi_startproc
 135              		@ Volatile: function does not return.
 136              		@ args = 0, pretend = 0, frame = 0
 137              		@ frame_needed = 0, uses_anonymous_args = 0
 138              		@ link register save eliminated.
 139              	.L12:
 140 0032 FEE7     		b	.L12
 141              		.cfi_endproc
 142              	.LFE67:
 143              		.size	UsageFault_Handler, .-UsageFault_Handler
 144              		.align	1
ARM GAS  /tmp/ccUELuRe.s 			page 5


 145              		.global	SVC_Handler
 146              		.syntax unified
 147              		.thumb
 148              		.thumb_func
 149              		.fpu softvfp
 150              		.type	SVC_Handler, %function
 151              	SVC_Handler:
 152              	.LFB68:
  85:drivers/nvic.c ****   /* Go to infinite loop when Usage Fault exception occurs */
  86:drivers/nvic.c ****   while (1)
  87:drivers/nvic.c ****   {
  88:drivers/nvic.c ****   }
  89:drivers/nvic.c **** }
  90:drivers/nvic.c **** 
  91:drivers/nvic.c **** /**
  92:drivers/nvic.c ****   * @brief  This function handles SVCall exception.
  93:drivers/nvic.c ****   * @param  None
  94:drivers/nvic.c ****   * @retval None
  95:drivers/nvic.c ****   */
  96:drivers/nvic.c **** void SVC_Handler(void)
  97:drivers/nvic.c **** {
 153              		.loc 1 97 0
 154              		.cfi_startproc
 155              		@ args = 0, pretend = 0, frame = 0
 156              		@ frame_needed = 0, uses_anonymous_args = 0
 157              		@ link register save eliminated.
 158 0034 7047     		bx	lr
 159              		.cfi_endproc
 160              	.LFE68:
 161              		.size	SVC_Handler, .-SVC_Handler
 162              		.align	1
 163              		.global	DebugMon_Handler
 164              		.syntax unified
 165              		.thumb
 166              		.thumb_func
 167              		.fpu softvfp
 168              		.type	DebugMon_Handler, %function
 169              	DebugMon_Handler:
 170              	.LFB69:
  98:drivers/nvic.c **** }
  99:drivers/nvic.c **** 
 100:drivers/nvic.c **** /**
 101:drivers/nvic.c ****   * @brief  This function handles Debug Monitor exception.
 102:drivers/nvic.c ****   * @param  None
 103:drivers/nvic.c ****   * @retval None
 104:drivers/nvic.c ****   */
 105:drivers/nvic.c **** void DebugMon_Handler(void)
 106:drivers/nvic.c **** {
 171              		.loc 1 106 0
 172              		.cfi_startproc
 173              		@ args = 0, pretend = 0, frame = 0
 174              		@ frame_needed = 0, uses_anonymous_args = 0
 175              		@ link register save eliminated.
 176 0036 7047     		bx	lr
 177              		.cfi_endproc
 178              	.LFE69:
 179              		.size	DebugMon_Handler, .-DebugMon_Handler
ARM GAS  /tmp/ccUELuRe.s 			page 6


 180              		.align	1
 181              		.global	PendSV_Handler
 182              		.syntax unified
 183              		.thumb
 184              		.thumb_func
 185              		.fpu softvfp
 186              		.type	PendSV_Handler, %function
 187              	PendSV_Handler:
 188              	.LFB70:
 107:drivers/nvic.c **** }
 108:drivers/nvic.c **** 
 109:drivers/nvic.c **** /**
 110:drivers/nvic.c ****   * @brief  This function handles PendSV_Handler exception.
 111:drivers/nvic.c ****   * @param  None
 112:drivers/nvic.c ****   * @retval None
 113:drivers/nvic.c ****   */
 114:drivers/nvic.c **** void PendSV_Handler(void)
 115:drivers/nvic.c **** {
 189              		.loc 1 115 0
 190              		.cfi_startproc
 191              		@ args = 0, pretend = 0, frame = 0
 192              		@ frame_needed = 0, uses_anonymous_args = 0
 193              		@ link register save eliminated.
 194 0038 7047     		bx	lr
 195              		.cfi_endproc
 196              	.LFE70:
 197              		.size	PendSV_Handler, .-PendSV_Handler
 198              		.align	1
 199              		.global	SysTick_Handler
 200              		.syntax unified
 201              		.thumb
 202              		.thumb_func
 203              		.fpu softvfp
 204              		.type	SysTick_Handler, %function
 205              	SysTick_Handler:
 206              	.LFB71:
 116:drivers/nvic.c **** }
 117:drivers/nvic.c **** 
 118:drivers/nvic.c **** /**
 119:drivers/nvic.c ****   * @brief  This function handles SysTick Handler.
 120:drivers/nvic.c ****   * @param  None
 121:drivers/nvic.c ****   * @retval None
 122:drivers/nvic.c ****   */
 123:drivers/nvic.c **** void SysTick_Handler(void)
 124:drivers/nvic.c **** {
 207              		.loc 1 124 0
 208              		.cfi_startproc
 209              		@ args = 0, pretend = 0, frame = 0
 210              		@ frame_needed = 0, uses_anonymous_args = 0
 211              		@ link register save eliminated.
 212 003a 7047     		bx	lr
 213              		.cfi_endproc
 214              	.LFE71:
 215              		.size	SysTick_Handler, .-SysTick_Handler
 216              		.align	1
 217              		.global	TIM2_IRQHandler
 218              		.syntax unified
ARM GAS  /tmp/ccUELuRe.s 			page 7


 219              		.thumb
 220              		.thumb_func
 221              		.fpu softvfp
 222              		.type	TIM2_IRQHandler, %function
 223              	TIM2_IRQHandler:
 224              	.LFB72:
 125:drivers/nvic.c **** }
 126:drivers/nvic.c **** 
 127:drivers/nvic.c **** /******************************************************************************/
 128:drivers/nvic.c **** /*            STM32F10x Peripherals Interrupt Handlers                        */
 129:drivers/nvic.c **** /******************************************************************************/
 130:drivers/nvic.c **** 
 131:drivers/nvic.c **** void TIM2_IRQHandler(void)
 132:drivers/nvic.c **** {
 225              		.loc 1 132 0
 226              		.cfi_startproc
 227              		@ args = 0, pretend = 0, frame = 0
 228              		@ frame_needed = 0, uses_anonymous_args = 0
 229              		.loc 1 132 0
 230 003c 08B5     		push	{r3, lr}
 231              		.cfi_def_cfa_offset 8
 232              		.cfi_offset 3, -8
 233              		.cfi_offset 14, -4
 133:drivers/nvic.c ****   //检测是否发生溢出更新事件
 134:drivers/nvic.c ****   if(TIM_GetITStatus(TIM2, TIM_IT_Update) != RESET) {
 234              		.loc 1 134 0
 235 003e 0121     		movs	r1, #1
 236 0040 4FF08040 		mov	r0, #1073741824
 237 0044 FFF7FEFF 		bl	TIM_GetITStatus
 238              	.LVL5:
 239 0048 00B9     		cbnz	r0, .L20
 240              	.L17:
 241 004a 08BD     		pop	{r3, pc}
 242              	.L20:
 135:drivers/nvic.c ****     //清除TIM2的中断待处理位
 136:drivers/nvic.c ****     TIM_ClearITPendingBit(TIM2 , TIM_FLAG_Update);
 243              		.loc 1 136 0
 244 004c 0121     		movs	r1, #1
 245 004e 4FF08040 		mov	r0, #1073741824
 246 0052 FFF7FEFF 		bl	TIM_ClearITPendingBit
 247              	.LVL6:
 137:drivers/nvic.c ****     timer_counter++;
 248              		.loc 1 137 0
 249 0056 024A     		ldr	r2, .L21
 250 0058 1388     		ldrh	r3, [r2]
 251 005a 0133     		adds	r3, r3, #1
 252 005c 1380     		strh	r3, [r2]	@ movhi
 138:drivers/nvic.c ****   }
 139:drivers/nvic.c **** }
 253              		.loc 1 139 0
 254 005e F4E7     		b	.L17
 255              	.L22:
 256              		.align	2
 257              	.L21:
 258 0060 00000000 		.word	.LANCHOR0
 259              		.cfi_endproc
 260              	.LFE72:
ARM GAS  /tmp/ccUELuRe.s 			page 8


 261              		.size	TIM2_IRQHandler, .-TIM2_IRQHandler
 262              		.align	1
 263              		.global	RCC_IRQHandler
 264              		.syntax unified
 265              		.thumb
 266              		.thumb_func
 267              		.fpu softvfp
 268              		.type	RCC_IRQHandler, %function
 269              	RCC_IRQHandler:
 270              	.LFB73:
 140:drivers/nvic.c **** 
 141:drivers/nvic.c **** /**
 142:drivers/nvic.c ****   * @brief  This function handles RCC interrupt request. 
 143:drivers/nvic.c ****   * @param  None
 144:drivers/nvic.c ****   * @retval None
 145:drivers/nvic.c ****   */
 146:drivers/nvic.c **** void RCC_IRQHandler(void)
 147:drivers/nvic.c **** {
 271              		.loc 1 147 0
 272              		.cfi_startproc
 273              		@ args = 0, pretend = 0, frame = 0
 274              		@ frame_needed = 0, uses_anonymous_args = 0
 275 0064 08B5     		push	{r3, lr}
 276              		.cfi_def_cfa_offset 8
 277              		.cfi_offset 3, -8
 278              		.cfi_offset 14, -4
 148:drivers/nvic.c ****   if(RCC_GetITStatus(RCC_IT_HSERDY) != RESET)
 279              		.loc 1 148 0
 280 0066 0820     		movs	r0, #8
 281 0068 FFF7FEFF 		bl	RCC_GetITStatus
 282              	.LVL7:
 283 006c 20B9     		cbnz	r0, .L27
 284              	.L24:
 149:drivers/nvic.c ****   { 
 150:drivers/nvic.c ****     /* Clear HSERDY interrupt pending bit */
 151:drivers/nvic.c ****     RCC_ClearITPendingBit(RCC_IT_HSERDY);
 152:drivers/nvic.c **** 
 153:drivers/nvic.c ****     /* Check if the HSE clock is still available */
 154:drivers/nvic.c ****     if (RCC_GetFlagStatus(RCC_FLAG_HSERDY) != RESET)
 155:drivers/nvic.c ****     { 
 156:drivers/nvic.c **** #ifdef SYSCLK_HSE
 157:drivers/nvic.c ****       /* Select HSE as system clock source */
 158:drivers/nvic.c ****       RCC_SYSCLKConfig(RCC_SYSCLKSource_HSE);
 159:drivers/nvic.c **** #else
 160:drivers/nvic.c ****  #ifdef STM32F10X_CL
 161:drivers/nvic.c ****       /* Enable PLL2 */
 162:drivers/nvic.c ****       RCC_PLL2Cmd(ENABLE);
 163:drivers/nvic.c ****  #else
 164:drivers/nvic.c ****       /* Enable PLL: once the PLL is ready the PLLRDY interrupt is generated */ 
 165:drivers/nvic.c ****       RCC_PLLCmd(ENABLE);
 166:drivers/nvic.c ****  #endif	/* STM32F10X_CL */
 167:drivers/nvic.c **** #endif /* SYSCLK_HSE */      
 168:drivers/nvic.c ****     }
 169:drivers/nvic.c ****   }
 170:drivers/nvic.c **** 
 171:drivers/nvic.c **** #ifdef STM32F10X_CL
 172:drivers/nvic.c ****   if(RCC_GetITStatus(RCC_IT_PLL2RDY) != RESET)
ARM GAS  /tmp/ccUELuRe.s 			page 9


 173:drivers/nvic.c ****   { 
 174:drivers/nvic.c ****     /* Clear PLL2RDY interrupt pending bit */
 175:drivers/nvic.c ****     RCC_ClearITPendingBit(RCC_IT_PLL2RDY);
 176:drivers/nvic.c **** 
 177:drivers/nvic.c ****     /* Enable PLL: once the PLL is ready the PLLRDY interrupt is generated */ 
 178:drivers/nvic.c ****     RCC_PLLCmd(ENABLE);
 179:drivers/nvic.c ****   }
 180:drivers/nvic.c **** #endif /* STM32F10X_CL */   
 181:drivers/nvic.c **** 
 182:drivers/nvic.c ****   if(RCC_GetITStatus(RCC_IT_PLLRDY) != RESET)
 285              		.loc 1 182 0
 286 006e 1020     		movs	r0, #16
 287 0070 FFF7FEFF 		bl	RCC_GetITStatus
 288              	.LVL8:
 289 0074 60B9     		cbnz	r0, .L28
 290              	.L23:
 291 0076 08BD     		pop	{r3, pc}
 292              	.L27:
 151:drivers/nvic.c **** 
 293              		.loc 1 151 0
 294 0078 0820     		movs	r0, #8
 295 007a FFF7FEFF 		bl	RCC_ClearITPendingBit
 296              	.LVL9:
 154:drivers/nvic.c ****     { 
 297              		.loc 1 154 0
 298 007e 3120     		movs	r0, #49
 299 0080 FFF7FEFF 		bl	RCC_GetFlagStatus
 300              	.LVL10:
 301 0084 0028     		cmp	r0, #0
 302 0086 F2D0     		beq	.L24
 165:drivers/nvic.c ****  #endif	/* STM32F10X_CL */
 303              		.loc 1 165 0
 304 0088 0120     		movs	r0, #1
 305 008a FFF7FEFF 		bl	RCC_PLLCmd
 306              	.LVL11:
 307 008e EEE7     		b	.L24
 308              	.L28:
 183:drivers/nvic.c ****   { 
 184:drivers/nvic.c ****     /* Clear PLLRDY interrupt pending bit */
 185:drivers/nvic.c ****     RCC_ClearITPendingBit(RCC_IT_PLLRDY);
 309              		.loc 1 185 0
 310 0090 1020     		movs	r0, #16
 311 0092 FFF7FEFF 		bl	RCC_ClearITPendingBit
 312              	.LVL12:
 186:drivers/nvic.c **** 
 187:drivers/nvic.c ****     /* Check if the PLL is still locked */
 188:drivers/nvic.c ****     if (RCC_GetFlagStatus(RCC_FLAG_PLLRDY) != RESET)
 313              		.loc 1 188 0
 314 0096 3920     		movs	r0, #57
 315 0098 FFF7FEFF 		bl	RCC_GetFlagStatus
 316              	.LVL13:
 317 009c 0028     		cmp	r0, #0
 318 009e EAD0     		beq	.L23
 189:drivers/nvic.c ****     { 
 190:drivers/nvic.c ****       /* Select PLL as system clock source */
 191:drivers/nvic.c ****       RCC_SYSCLKConfig(RCC_SYSCLKSource_PLLCLK);
 319              		.loc 1 191 0
ARM GAS  /tmp/ccUELuRe.s 			page 10


 320 00a0 0220     		movs	r0, #2
 321 00a2 FFF7FEFF 		bl	RCC_SYSCLKConfig
 322              	.LVL14:
 192:drivers/nvic.c ****     }
 193:drivers/nvic.c ****   }
 194:drivers/nvic.c **** }
 323              		.loc 1 194 0
 324 00a6 E6E7     		b	.L23
 325              		.cfi_endproc
 326              	.LFE73:
 327              		.size	RCC_IRQHandler, .-RCC_IRQHandler
 328              		.global	timer_counter
 329              		.bss
 330              		.align	1
 331              		.set	.LANCHOR0,. + 0
 332              		.type	timer_counter, %object
 333              		.size	timer_counter, 2
 334              	timer_counter:
 335 0000 0000     		.space	2
 336              		.text
 337              	.Letext0:
 338              		.file 2 "/usr/arm-none-eabi/include/machine/_default_types.h"
 339              		.file 3 "/usr/arm-none-eabi/include/sys/_stdint.h"
 340              		.file 4 "/home/faker/Documents/code/STM/stm32-quadrocopter/cmsis/core_cm3.h"
 341              		.file 5 "/home/faker/Documents/code/STM/stm32-quadrocopter/lib/inc/system_stm32f10x.h"
 342              		.file 6 "/home/faker/Documents/code/STM/stm32-quadrocopter/lib/inc/stm32f10x.h"
 343              		.file 7 "/usr/arm-none-eabi/include/sys/lock.h"
 344              		.file 8 "/usr/arm-none-eabi/include/sys/_types.h"
 345              		.file 9 "/usr/lib/gcc/arm-none-eabi/6.1.1/include/stddef.h"
 346              		.file 10 "/usr/arm-none-eabi/include/sys/reent.h"
 347              		.file 11 "/usr/arm-none-eabi/include/stdlib.h"
 348              		.file 12 "/usr/arm-none-eabi/include/math.h"
 349              		.file 13 "/usr/arm-none-eabi/include/sys/errno.h"
 350              		.file 14 "/home/faker/Documents/code/STM/stm32-quadrocopter/lib/inc/stm32f10x_rcc.h"
 351              		.file 15 "/home/faker/Documents/code/STM/stm32-quadrocopter/lib/inc/stm32f10x_tim.h"
 352              		.section	.debug_info,"",%progbits
 353              	.Ldebug_info0:
 354 0000 3C0E0000 		.4byte	0xe3c
 355 0004 0400     		.2byte	0x4
 356 0006 00000000 		.4byte	.Ldebug_abbrev0
 357 000a 04       		.byte	0x4
 358 000b 01       		.uleb128 0x1
 359 000c E1070000 		.4byte	.LASF196
 360 0010 0C       		.byte	0xc
 361 0011 38000000 		.4byte	.LASF197
 362 0015 E7040000 		.4byte	.LASF198
 363 0019 00000000 		.4byte	.Ltext0
 364 001d A8000000 		.4byte	.Letext0-.Ltext0
 365 0021 00000000 		.4byte	.Ldebug_line0
 366 0025 02       		.uleb128 0x2
 367 0026 01       		.byte	0x1
 368 0027 06       		.byte	0x6
 369 0028 64010000 		.4byte	.LASF0
 370 002c 03       		.uleb128 0x3
 371 002d 7A000000 		.4byte	.LASF3
 372 0031 02       		.byte	0x2
 373 0032 1D       		.byte	0x1d
ARM GAS  /tmp/ccUELuRe.s 			page 11


 374 0033 37000000 		.4byte	0x37
 375 0037 02       		.uleb128 0x2
 376 0038 01       		.byte	0x1
 377 0039 08       		.byte	0x8
 378 003a D9040000 		.4byte	.LASF1
 379 003e 02       		.uleb128 0x2
 380 003f 02       		.byte	0x2
 381 0040 05       		.byte	0x5
 382 0041 1D000000 		.4byte	.LASF2
 383 0045 03       		.uleb128 0x3
 384 0046 A7020000 		.4byte	.LASF4
 385 004a 02       		.byte	0x2
 386 004b 2B       		.byte	0x2b
 387 004c 50000000 		.4byte	0x50
 388 0050 02       		.uleb128 0x2
 389 0051 02       		.byte	0x2
 390 0052 07       		.byte	0x7
 391 0053 CA060000 		.4byte	.LASF5
 392 0057 03       		.uleb128 0x3
 393 0058 88060000 		.4byte	.LASF6
 394 005c 02       		.byte	0x2
 395 005d 3F       		.byte	0x3f
 396 005e 62000000 		.4byte	0x62
 397 0062 02       		.uleb128 0x2
 398 0063 04       		.byte	0x4
 399 0064 05       		.byte	0x5
 400 0065 EB010000 		.4byte	.LASF7
 401 0069 03       		.uleb128 0x3
 402 006a B7020000 		.4byte	.LASF8
 403 006e 02       		.byte	0x2
 404 006f 41       		.byte	0x41
 405 0070 74000000 		.4byte	0x74
 406 0074 02       		.uleb128 0x2
 407 0075 04       		.byte	0x4
 408 0076 07       		.byte	0x7
 409 0077 2E030000 		.4byte	.LASF9
 410 007b 02       		.uleb128 0x2
 411 007c 08       		.byte	0x8
 412 007d 05       		.byte	0x5
 413 007e 2E020000 		.4byte	.LASF10
 414 0082 02       		.uleb128 0x2
 415 0083 08       		.byte	0x8
 416 0084 07       		.byte	0x7
 417 0085 C0000000 		.4byte	.LASF11
 418 0089 04       		.uleb128 0x4
 419 008a 04       		.byte	0x4
 420 008b 05       		.byte	0x5
 421 008c 696E7400 		.ascii	"int\000"
 422 0090 02       		.uleb128 0x2
 423 0091 04       		.byte	0x4
 424 0092 07       		.byte	0x7
 425 0093 60060000 		.4byte	.LASF12
 426 0097 03       		.uleb128 0x3
 427 0098 8B070000 		.4byte	.LASF13
 428 009c 03       		.byte	0x3
 429 009d 18       		.byte	0x18
 430 009e 2C000000 		.4byte	0x2c
ARM GAS  /tmp/ccUELuRe.s 			page 12


 431 00a2 03       		.uleb128 0x3
 432 00a3 3C020000 		.4byte	.LASF14
 433 00a7 03       		.byte	0x3
 434 00a8 24       		.byte	0x24
 435 00a9 45000000 		.4byte	0x45
 436 00ad 05       		.uleb128 0x5
 437 00ae A2000000 		.4byte	0xa2
 438 00b2 03       		.uleb128 0x3
 439 00b3 D1040000 		.4byte	.LASF15
 440 00b7 03       		.byte	0x3
 441 00b8 2C       		.byte	0x2c
 442 00b9 57000000 		.4byte	0x57
 443 00bd 05       		.uleb128 0x5
 444 00be B2000000 		.4byte	0xb2
 445 00c2 03       		.uleb128 0x3
 446 00c3 00010000 		.4byte	.LASF16
 447 00c7 03       		.byte	0x3
 448 00c8 30       		.byte	0x30
 449 00c9 69000000 		.4byte	0x69
 450 00cd 02       		.uleb128 0x2
 451 00ce 04       		.byte	0x4
 452 00cf 07       		.byte	0x7
 453 00d0 E9030000 		.4byte	.LASF17
 454 00d4 06       		.uleb128 0x6
 455 00d5 09010000 		.4byte	.LASF18
 456 00d9 04       		.byte	0x4
 457 00da 9606     		.2byte	0x696
 458 00dc BD000000 		.4byte	0xbd
 459 00e0 07       		.uleb128 0x7
 460 00e1 16030000 		.4byte	.LASF19
 461 00e5 05       		.byte	0x5
 462 00e6 35       		.byte	0x35
 463 00e7 C2000000 		.4byte	0xc2
 464 00eb 08       		.uleb128 0x8
 465 00ec 01       		.byte	0x1
 466 00ed 37000000 		.4byte	0x37
 467 00f1 06       		.byte	0x6
 468 00f2 0702     		.2byte	0x207
 469 00f4 05010000 		.4byte	0x105
 470 00f8 09       		.uleb128 0x9
 471 00f9 C0030000 		.4byte	.LASF20
 472 00fd 00       		.byte	0
 473 00fe 0A       		.uleb128 0xa
 474 00ff 53455400 		.ascii	"SET\000"
 475 0103 01       		.byte	0x1
 476 0104 00       		.byte	0
 477 0105 08       		.uleb128 0x8
 478 0106 01       		.byte	0x1
 479 0107 37000000 		.4byte	0x37
 480 010b 06       		.byte	0x6
 481 010c 0902     		.2byte	0x209
 482 010e 1F010000 		.4byte	0x11f
 483 0112 09       		.uleb128 0x9
 484 0113 07030000 		.4byte	.LASF21
 485 0117 00       		.byte	0
 486 0118 09       		.uleb128 0x9
 487 0119 F4010000 		.4byte	.LASF22
ARM GAS  /tmp/ccUELuRe.s 			page 13


 488 011d 01       		.byte	0x1
 489 011e 00       		.byte	0
 490 011f 0B       		.uleb128 0xb
 491 0120 50       		.byte	0x50
 492 0121 06       		.byte	0x6
 493 0122 A204     		.2byte	0x4a2
 494 0124 30030000 		.4byte	0x330
 495 0128 0C       		.uleb128 0xc
 496 0129 43523100 		.ascii	"CR1\000"
 497 012d 06       		.byte	0x6
 498 012e A404     		.2byte	0x4a4
 499 0130 AD000000 		.4byte	0xad
 500 0134 00       		.byte	0
 501 0135 0D       		.uleb128 0xd
 502 0136 69040000 		.4byte	.LASF23
 503 013a 06       		.byte	0x6
 504 013b A504     		.2byte	0x4a5
 505 013d A2000000 		.4byte	0xa2
 506 0141 02       		.byte	0x2
 507 0142 0C       		.uleb128 0xc
 508 0143 43523200 		.ascii	"CR2\000"
 509 0147 06       		.byte	0x6
 510 0148 A604     		.2byte	0x4a6
 511 014a AD000000 		.4byte	0xad
 512 014e 04       		.byte	0x4
 513 014f 0D       		.uleb128 0xd
 514 0150 73040000 		.4byte	.LASF24
 515 0154 06       		.byte	0x6
 516 0155 A704     		.2byte	0x4a7
 517 0157 A2000000 		.4byte	0xa2
 518 015b 06       		.byte	0x6
 519 015c 0D       		.uleb128 0xd
 520 015d 55060000 		.4byte	.LASF25
 521 0161 06       		.byte	0x6
 522 0162 A804     		.2byte	0x4a8
 523 0164 AD000000 		.4byte	0xad
 524 0168 08       		.byte	0x8
 525 0169 0D       		.uleb128 0xd
 526 016a 7D040000 		.4byte	.LASF26
 527 016e 06       		.byte	0x6
 528 016f A904     		.2byte	0x4a9
 529 0171 A2000000 		.4byte	0xa2
 530 0175 0A       		.byte	0xa
 531 0176 0D       		.uleb128 0xd
 532 0177 33000000 		.4byte	.LASF27
 533 017b 06       		.byte	0x6
 534 017c AA04     		.2byte	0x4aa
 535 017e AD000000 		.4byte	0xad
 536 0182 0C       		.byte	0xc
 537 0183 0D       		.uleb128 0xd
 538 0184 87040000 		.4byte	.LASF28
 539 0188 06       		.byte	0x6
 540 0189 AB04     		.2byte	0x4ab
 541 018b A2000000 		.4byte	0xa2
 542 018f 0E       		.byte	0xe
 543 0190 0C       		.uleb128 0xc
 544 0191 535200   		.ascii	"SR\000"
ARM GAS  /tmp/ccUELuRe.s 			page 14


 545 0194 06       		.byte	0x6
 546 0195 AC04     		.2byte	0x4ac
 547 0197 AD000000 		.4byte	0xad
 548 019b 10       		.byte	0x10
 549 019c 0D       		.uleb128 0xd
 550 019d 91040000 		.4byte	.LASF29
 551 01a1 06       		.byte	0x6
 552 01a2 AD04     		.2byte	0x4ad
 553 01a4 A2000000 		.4byte	0xa2
 554 01a8 12       		.byte	0x12
 555 01a9 0C       		.uleb128 0xc
 556 01aa 45475200 		.ascii	"EGR\000"
 557 01ae 06       		.byte	0x6
 558 01af AE04     		.2byte	0x4ae
 559 01b1 AD000000 		.4byte	0xad
 560 01b5 14       		.byte	0x14
 561 01b6 0D       		.uleb128 0xd
 562 01b7 9B040000 		.4byte	.LASF30
 563 01bb 06       		.byte	0x6
 564 01bc AF04     		.2byte	0x4af
 565 01be A2000000 		.4byte	0xa2
 566 01c2 16       		.byte	0x16
 567 01c3 0D       		.uleb128 0xd
 568 01c4 51010000 		.4byte	.LASF31
 569 01c8 06       		.byte	0x6
 570 01c9 B004     		.2byte	0x4b0
 571 01cb AD000000 		.4byte	0xad
 572 01cf 18       		.byte	0x18
 573 01d0 0D       		.uleb128 0xd
 574 01d1 A5040000 		.4byte	.LASF32
 575 01d5 06       		.byte	0x6
 576 01d6 B104     		.2byte	0x4b1
 577 01d8 A2000000 		.4byte	0xa2
 578 01dc 1A       		.byte	0x1a
 579 01dd 0D       		.uleb128 0xd
 580 01de 57010000 		.4byte	.LASF33
 581 01e2 06       		.byte	0x6
 582 01e3 B204     		.2byte	0x4b2
 583 01e5 AD000000 		.4byte	0xad
 584 01e9 1C       		.byte	0x1c
 585 01ea 0D       		.uleb128 0xd
 586 01eb F8050000 		.4byte	.LASF34
 587 01ef 06       		.byte	0x6
 588 01f0 B304     		.2byte	0x4b3
 589 01f2 A2000000 		.4byte	0xa2
 590 01f6 1E       		.byte	0x1e
 591 01f7 0D       		.uleb128 0xd
 592 01f8 29020000 		.4byte	.LASF35
 593 01fc 06       		.byte	0x6
 594 01fd B404     		.2byte	0x4b4
 595 01ff AD000000 		.4byte	0xad
 596 0203 20       		.byte	0x20
 597 0204 0D       		.uleb128 0xd
 598 0205 AF040000 		.4byte	.LASF36
 599 0209 06       		.byte	0x6
 600 020a B504     		.2byte	0x4b5
 601 020c A2000000 		.4byte	0xa2
ARM GAS  /tmp/ccUELuRe.s 			page 15


 602 0210 22       		.byte	0x22
 603 0211 0C       		.uleb128 0xc
 604 0212 434E5400 		.ascii	"CNT\000"
 605 0216 06       		.byte	0x6
 606 0217 B604     		.2byte	0x4b6
 607 0219 AD000000 		.4byte	0xad
 608 021d 24       		.byte	0x24
 609 021e 0D       		.uleb128 0xd
 610 021f B9040000 		.4byte	.LASF37
 611 0223 06       		.byte	0x6
 612 0224 B704     		.2byte	0x4b7
 613 0226 A2000000 		.4byte	0xa2
 614 022a 26       		.byte	0x26
 615 022b 0C       		.uleb128 0xc
 616 022c 50534300 		.ascii	"PSC\000"
 617 0230 06       		.byte	0x6
 618 0231 B804     		.2byte	0x4b8
 619 0233 AD000000 		.4byte	0xad
 620 0237 28       		.byte	0x28
 621 0238 0D       		.uleb128 0xd
 622 0239 08070000 		.4byte	.LASF38
 623 023d 06       		.byte	0x6
 624 023e B904     		.2byte	0x4b9
 625 0240 A2000000 		.4byte	0xa2
 626 0244 2A       		.byte	0x2a
 627 0245 0C       		.uleb128 0xc
 628 0246 41525200 		.ascii	"ARR\000"
 629 024a 06       		.byte	0x6
 630 024b BA04     		.2byte	0x4ba
 631 024d AD000000 		.4byte	0xad
 632 0251 2C       		.byte	0x2c
 633 0252 0D       		.uleb128 0xd
 634 0253 FF030000 		.4byte	.LASF39
 635 0257 06       		.byte	0x6
 636 0258 BB04     		.2byte	0x4bb
 637 025a A2000000 		.4byte	0xa2
 638 025e 2E       		.byte	0x2e
 639 025f 0C       		.uleb128 0xc
 640 0260 52435200 		.ascii	"RCR\000"
 641 0264 06       		.byte	0x6
 642 0265 BC04     		.2byte	0x4bc
 643 0267 AD000000 		.4byte	0xad
 644 026b 30       		.byte	0x30
 645 026c 0D       		.uleb128 0xd
 646 026d 99010000 		.4byte	.LASF40
 647 0271 06       		.byte	0x6
 648 0272 BD04     		.2byte	0x4bd
 649 0274 A2000000 		.4byte	0xa2
 650 0278 32       		.byte	0x32
 651 0279 0D       		.uleb128 0xd
 652 027a 46070000 		.4byte	.LASF41
 653 027e 06       		.byte	0x6
 654 027f BE04     		.2byte	0x4be
 655 0281 AD000000 		.4byte	0xad
 656 0285 34       		.byte	0x34
 657 0286 0D       		.uleb128 0xd
 658 0287 A4010000 		.4byte	.LASF42
ARM GAS  /tmp/ccUELuRe.s 			page 16


 659 028b 06       		.byte	0x6
 660 028c BF04     		.2byte	0x4bf
 661 028e A2000000 		.4byte	0xa2
 662 0292 36       		.byte	0x36
 663 0293 0D       		.uleb128 0xd
 664 0294 4B070000 		.4byte	.LASF43
 665 0298 06       		.byte	0x6
 666 0299 C004     		.2byte	0x4c0
 667 029b AD000000 		.4byte	0xad
 668 029f 38       		.byte	0x38
 669 02a0 0D       		.uleb128 0xd
 670 02a1 AF010000 		.4byte	.LASF44
 671 02a5 06       		.byte	0x6
 672 02a6 C104     		.2byte	0x4c1
 673 02a8 A2000000 		.4byte	0xa2
 674 02ac 3A       		.byte	0x3a
 675 02ad 0D       		.uleb128 0xd
 676 02ae 50070000 		.4byte	.LASF45
 677 02b2 06       		.byte	0x6
 678 02b3 C204     		.2byte	0x4c2
 679 02b5 AD000000 		.4byte	0xad
 680 02b9 3C       		.byte	0x3c
 681 02ba 0D       		.uleb128 0xd
 682 02bb BA010000 		.4byte	.LASF46
 683 02bf 06       		.byte	0x6
 684 02c0 C304     		.2byte	0x4c3
 685 02c2 A2000000 		.4byte	0xa2
 686 02c6 3E       		.byte	0x3e
 687 02c7 0D       		.uleb128 0xd
 688 02c8 55070000 		.4byte	.LASF47
 689 02cc 06       		.byte	0x6
 690 02cd C404     		.2byte	0x4c4
 691 02cf AD000000 		.4byte	0xad
 692 02d3 40       		.byte	0x40
 693 02d4 0D       		.uleb128 0xd
 694 02d5 5A070000 		.4byte	.LASF48
 695 02d9 06       		.byte	0x6
 696 02da C504     		.2byte	0x4c5
 697 02dc A2000000 		.4byte	0xa2
 698 02e0 42       		.byte	0x42
 699 02e1 0D       		.uleb128 0xd
 700 02e2 35010000 		.4byte	.LASF49
 701 02e6 06       		.byte	0x6
 702 02e7 C604     		.2byte	0x4c6
 703 02e9 AD000000 		.4byte	0xad
 704 02ed 44       		.byte	0x44
 705 02ee 0D       		.uleb128 0xd
 706 02ef CD010000 		.4byte	.LASF50
 707 02f3 06       		.byte	0x6
 708 02f4 C704     		.2byte	0x4c7
 709 02f6 A2000000 		.4byte	0xa2
 710 02fa 46       		.byte	0x46
 711 02fb 0C       		.uleb128 0xc
 712 02fc 44435200 		.ascii	"DCR\000"
 713 0300 06       		.byte	0x6
 714 0301 C804     		.2byte	0x4c8
 715 0303 AD000000 		.4byte	0xad
ARM GAS  /tmp/ccUELuRe.s 			page 17


 716 0307 48       		.byte	0x48
 717 0308 0D       		.uleb128 0xd
 718 0309 65070000 		.4byte	.LASF51
 719 030d 06       		.byte	0x6
 720 030e C904     		.2byte	0x4c9
 721 0310 A2000000 		.4byte	0xa2
 722 0314 4A       		.byte	0x4a
 723 0315 0D       		.uleb128 0xd
 724 0316 6D060000 		.4byte	.LASF52
 725 031a 06       		.byte	0x6
 726 031b CA04     		.2byte	0x4ca
 727 031d AD000000 		.4byte	0xad
 728 0321 4C       		.byte	0x4c
 729 0322 0D       		.uleb128 0xd
 730 0323 E0010000 		.4byte	.LASF53
 731 0327 06       		.byte	0x6
 732 0328 CB04     		.2byte	0x4cb
 733 032a A2000000 		.4byte	0xa2
 734 032e 4E       		.byte	0x4e
 735 032f 00       		.byte	0
 736 0330 0E       		.uleb128 0xe
 737 0331 94000000 		.4byte	.LASF54
 738 0335 06       		.byte	0x6
 739 0336 CC04     		.2byte	0x4cc
 740 0338 1F010000 		.4byte	0x11f
 741 033c 02       		.uleb128 0x2
 742 033d 08       		.byte	0x8
 743 033e 04       		.byte	0x4
 744 033f 2A060000 		.4byte	.LASF55
 745 0343 03       		.uleb128 0x3
 746 0344 D7030000 		.4byte	.LASF56
 747 0348 07       		.byte	0x7
 748 0349 07       		.byte	0x7
 749 034a 89000000 		.4byte	0x89
 750 034e 03       		.uleb128 0x3
 751 034f 8D000000 		.4byte	.LASF57
 752 0353 08       		.byte	0x8
 753 0354 2C       		.byte	0x2c
 754 0355 62000000 		.4byte	0x62
 755 0359 03       		.uleb128 0x3
 756 035a 22060000 		.4byte	.LASF58
 757 035e 08       		.byte	0x8
 758 035f 72       		.byte	0x72
 759 0360 62000000 		.4byte	0x62
 760 0364 0E       		.uleb128 0xe
 761 0365 52040000 		.4byte	.LASF59
 762 0369 09       		.byte	0x9
 763 036a 6501     		.2byte	0x165
 764 036c 90000000 		.4byte	0x90
 765 0370 0F       		.uleb128 0xf
 766 0371 04       		.byte	0x4
 767 0372 08       		.byte	0x8
 768 0373 A6       		.byte	0xa6
 769 0374 8F030000 		.4byte	0x38f
 770 0378 10       		.uleb128 0x10
 771 0379 7F030000 		.4byte	.LASF60
 772 037d 08       		.byte	0x8
ARM GAS  /tmp/ccUELuRe.s 			page 18


 773 037e A8       		.byte	0xa8
 774 037f 64030000 		.4byte	0x364
 775 0383 10       		.uleb128 0x10
 776 0384 0F030000 		.4byte	.LASF61
 777 0388 08       		.byte	0x8
 778 0389 A9       		.byte	0xa9
 779 038a 8F030000 		.4byte	0x38f
 780 038e 00       		.byte	0
 781 038f 11       		.uleb128 0x11
 782 0390 37000000 		.4byte	0x37
 783 0394 9F030000 		.4byte	0x39f
 784 0398 12       		.uleb128 0x12
 785 0399 CD000000 		.4byte	0xcd
 786 039d 03       		.byte	0x3
 787 039e 00       		.byte	0
 788 039f 13       		.uleb128 0x13
 789 03a0 08       		.byte	0x8
 790 03a1 08       		.byte	0x8
 791 03a2 A3       		.byte	0xa3
 792 03a3 C0030000 		.4byte	0x3c0
 793 03a7 14       		.uleb128 0x14
 794 03a8 C6030000 		.4byte	.LASF62
 795 03ac 08       		.byte	0x8
 796 03ad A5       		.byte	0xa5
 797 03ae 89000000 		.4byte	0x89
 798 03b2 00       		.byte	0
 799 03b3 14       		.uleb128 0x14
 800 03b4 F0050000 		.4byte	.LASF63
 801 03b8 08       		.byte	0x8
 802 03b9 AA       		.byte	0xaa
 803 03ba 70030000 		.4byte	0x370
 804 03be 04       		.byte	0x4
 805 03bf 00       		.byte	0
 806 03c0 03       		.uleb128 0x3
 807 03c1 57050000 		.4byte	.LASF64
 808 03c5 08       		.byte	0x8
 809 03c6 AB       		.byte	0xab
 810 03c7 9F030000 		.4byte	0x39f
 811 03cb 03       		.uleb128 0x3
 812 03cc A7070000 		.4byte	.LASF65
 813 03d0 08       		.byte	0x8
 814 03d1 AF       		.byte	0xaf
 815 03d2 43030000 		.4byte	0x343
 816 03d6 15       		.uleb128 0x15
 817 03d7 04       		.byte	0x4
 818 03d8 16       		.uleb128 0x16
 819 03d9 04       		.byte	0x4
 820 03da DE030000 		.4byte	0x3de
 821 03de 02       		.uleb128 0x2
 822 03df 01       		.byte	0x1
 823 03e0 08       		.byte	0x8
 824 03e1 47060000 		.4byte	.LASF66
 825 03e5 17       		.uleb128 0x17
 826 03e6 DE030000 		.4byte	0x3de
 827 03ea 03       		.uleb128 0x3
 828 03eb E2060000 		.4byte	.LASF67
 829 03ef 0A       		.byte	0xa
ARM GAS  /tmp/ccUELuRe.s 			page 19


 830 03f0 16       		.byte	0x16
 831 03f1 74000000 		.4byte	0x74
 832 03f5 18       		.uleb128 0x18
 833 03f6 DC020000 		.4byte	.LASF72
 834 03fa 18       		.byte	0x18
 835 03fb 0A       		.byte	0xa
 836 03fc 2D       		.byte	0x2d
 837 03fd 48040000 		.4byte	0x448
 838 0401 14       		.uleb128 0x14
 839 0402 E4020000 		.4byte	.LASF68
 840 0406 0A       		.byte	0xa
 841 0407 2F       		.byte	0x2f
 842 0408 48040000 		.4byte	0x448
 843 040c 00       		.byte	0
 844 040d 19       		.uleb128 0x19
 845 040e 5F6B00   		.ascii	"_k\000"
 846 0411 0A       		.byte	0xa
 847 0412 30       		.byte	0x30
 848 0413 89000000 		.4byte	0x89
 849 0417 04       		.byte	0x4
 850 0418 14       		.uleb128 0x14
 851 0419 C5050000 		.4byte	.LASF69
 852 041d 0A       		.byte	0xa
 853 041e 30       		.byte	0x30
 854 041f 89000000 		.4byte	0x89
 855 0423 08       		.byte	0x8
 856 0424 14       		.uleb128 0x14
 857 0425 C2020000 		.4byte	.LASF70
 858 0429 0A       		.byte	0xa
 859 042a 30       		.byte	0x30
 860 042b 89000000 		.4byte	0x89
 861 042f 0C       		.byte	0xc
 862 0430 14       		.uleb128 0x14
 863 0431 FA030000 		.4byte	.LASF71
 864 0435 0A       		.byte	0xa
 865 0436 30       		.byte	0x30
 866 0437 89000000 		.4byte	0x89
 867 043b 10       		.byte	0x10
 868 043c 19       		.uleb128 0x19
 869 043d 5F7800   		.ascii	"_x\000"
 870 0440 0A       		.byte	0xa
 871 0441 31       		.byte	0x31
 872 0442 4E040000 		.4byte	0x44e
 873 0446 14       		.byte	0x14
 874 0447 00       		.byte	0
 875 0448 16       		.uleb128 0x16
 876 0449 04       		.byte	0x4
 877 044a F5030000 		.4byte	0x3f5
 878 044e 11       		.uleb128 0x11
 879 044f EA030000 		.4byte	0x3ea
 880 0453 5E040000 		.4byte	0x45e
 881 0457 12       		.uleb128 0x12
 882 0458 CD000000 		.4byte	0xcd
 883 045c 00       		.byte	0
 884 045d 00       		.byte	0
 885 045e 18       		.uleb128 0x18
 886 045f F0020000 		.4byte	.LASF73
ARM GAS  /tmp/ccUELuRe.s 			page 20


 887 0463 24       		.byte	0x24
 888 0464 0A       		.byte	0xa
 889 0465 35       		.byte	0x35
 890 0466 D7040000 		.4byte	0x4d7
 891 046a 14       		.uleb128 0x14
 892 046b 48010000 		.4byte	.LASF74
 893 046f 0A       		.byte	0xa
 894 0470 37       		.byte	0x37
 895 0471 89000000 		.4byte	0x89
 896 0475 00       		.byte	0
 897 0476 14       		.uleb128 0x14
 898 0477 D8070000 		.4byte	.LASF75
 899 047b 0A       		.byte	0xa
 900 047c 38       		.byte	0x38
 901 047d 89000000 		.4byte	0x89
 902 0481 04       		.byte	0x4
 903 0482 14       		.uleb128 0x14
 904 0483 7C010000 		.4byte	.LASF76
 905 0487 0A       		.byte	0xa
 906 0488 39       		.byte	0x39
 907 0489 89000000 		.4byte	0x89
 908 048d 08       		.byte	0x8
 909 048e 14       		.uleb128 0x14
 910 048f 5C080000 		.4byte	.LASF77
 911 0493 0A       		.byte	0xa
 912 0494 3A       		.byte	0x3a
 913 0495 89000000 		.4byte	0x89
 914 0499 0C       		.byte	0xc
 915 049a 14       		.uleb128 0x14
 916 049b 17040000 		.4byte	.LASF78
 917 049f 0A       		.byte	0xa
 918 04a0 3B       		.byte	0x3b
 919 04a1 89000000 		.4byte	0x89
 920 04a5 10       		.byte	0x10
 921 04a6 14       		.uleb128 0x14
 922 04a7 36060000 		.4byte	.LASF79
 923 04ab 0A       		.byte	0xa
 924 04ac 3C       		.byte	0x3c
 925 04ad 89000000 		.4byte	0x89
 926 04b1 14       		.byte	0x14
 927 04b2 14       		.uleb128 0x14
 928 04b3 18060000 		.4byte	.LASF80
 929 04b7 0A       		.byte	0xa
 930 04b8 3D       		.byte	0x3d
 931 04b9 89000000 		.4byte	0x89
 932 04bd 18       		.byte	0x18
 933 04be 14       		.uleb128 0x14
 934 04bf 31050000 		.4byte	.LASF81
 935 04c3 0A       		.byte	0xa
 936 04c4 3E       		.byte	0x3e
 937 04c5 89000000 		.4byte	0x89
 938 04c9 1C       		.byte	0x1c
 939 04ca 14       		.uleb128 0x14
 940 04cb BE070000 		.4byte	.LASF82
 941 04cf 0A       		.byte	0xa
 942 04d0 3F       		.byte	0x3f
 943 04d1 89000000 		.4byte	0x89
ARM GAS  /tmp/ccUELuRe.s 			page 21


 944 04d5 20       		.byte	0x20
 945 04d6 00       		.byte	0
 946 04d7 1A       		.uleb128 0x1a
 947 04d8 8B010000 		.4byte	.LASF83
 948 04dc 0801     		.2byte	0x108
 949 04de 0A       		.byte	0xa
 950 04df 48       		.byte	0x48
 951 04e0 17050000 		.4byte	0x517
 952 04e4 14       		.uleb128 0x14
 953 04e5 0F040000 		.4byte	.LASF84
 954 04e9 0A       		.byte	0xa
 955 04ea 49       		.byte	0x49
 956 04eb 17050000 		.4byte	0x517
 957 04ef 00       		.byte	0
 958 04f0 14       		.uleb128 0x14
 959 04f1 00000000 		.4byte	.LASF85
 960 04f5 0A       		.byte	0xa
 961 04f6 4A       		.byte	0x4a
 962 04f7 17050000 		.4byte	0x517
 963 04fb 80       		.byte	0x80
 964 04fc 1B       		.uleb128 0x1b
 965 04fd AF060000 		.4byte	.LASF86
 966 0501 0A       		.byte	0xa
 967 0502 4C       		.byte	0x4c
 968 0503 EA030000 		.4byte	0x3ea
 969 0507 0001     		.2byte	0x100
 970 0509 1B       		.uleb128 0x1b
 971 050a 02020000 		.4byte	.LASF87
 972 050e 0A       		.byte	0xa
 973 050f 4F       		.byte	0x4f
 974 0510 EA030000 		.4byte	0x3ea
 975 0514 0401     		.2byte	0x104
 976 0516 00       		.byte	0
 977 0517 11       		.uleb128 0x11
 978 0518 D6030000 		.4byte	0x3d6
 979 051c 27050000 		.4byte	0x527
 980 0520 12       		.uleb128 0x12
 981 0521 CD000000 		.4byte	0xcd
 982 0525 1F       		.byte	0x1f
 983 0526 00       		.byte	0
 984 0527 1A       		.uleb128 0x1a
 985 0528 20040000 		.4byte	.LASF88
 986 052c 9001     		.2byte	0x190
 987 052e 0A       		.byte	0xa
 988 052f 5B       		.byte	0x5b
 989 0530 65050000 		.4byte	0x565
 990 0534 14       		.uleb128 0x14
 991 0535 E4020000 		.4byte	.LASF68
 992 0539 0A       		.byte	0xa
 993 053a 5C       		.byte	0x5c
 994 053b 65050000 		.4byte	0x565
 995 053f 00       		.byte	0
 996 0540 14       		.uleb128 0x14
 997 0541 8F050000 		.4byte	.LASF89
 998 0545 0A       		.byte	0xa
 999 0546 5D       		.byte	0x5d
 1000 0547 89000000 		.4byte	0x89
ARM GAS  /tmp/ccUELuRe.s 			page 22


 1001 054b 04       		.byte	0x4
 1002 054c 14       		.uleb128 0x14
 1003 054d B2020000 		.4byte	.LASF90
 1004 0551 0A       		.byte	0xa
 1005 0552 5F       		.byte	0x5f
 1006 0553 6B050000 		.4byte	0x56b
 1007 0557 08       		.byte	0x8
 1008 0558 14       		.uleb128 0x14
 1009 0559 8B010000 		.4byte	.LASF83
 1010 055d 0A       		.byte	0xa
 1011 055e 60       		.byte	0x60
 1012 055f D7040000 		.4byte	0x4d7
 1013 0563 88       		.byte	0x88
 1014 0564 00       		.byte	0
 1015 0565 16       		.uleb128 0x16
 1016 0566 04       		.byte	0x4
 1017 0567 27050000 		.4byte	0x527
 1018 056b 11       		.uleb128 0x11
 1019 056c 7B050000 		.4byte	0x57b
 1020 0570 7B050000 		.4byte	0x57b
 1021 0574 12       		.uleb128 0x12
 1022 0575 CD000000 		.4byte	0xcd
 1023 0579 1F       		.byte	0x1f
 1024 057a 00       		.byte	0
 1025 057b 16       		.uleb128 0x16
 1026 057c 04       		.byte	0x4
 1027 057d 81050000 		.4byte	0x581
 1028 0581 1C       		.uleb128 0x1c
 1029 0582 18       		.uleb128 0x18
 1030 0583 3B050000 		.4byte	.LASF91
 1031 0587 08       		.byte	0x8
 1032 0588 0A       		.byte	0xa
 1033 0589 73       		.byte	0x73
 1034 058a A7050000 		.4byte	0x5a7
 1035 058e 14       		.uleb128 0x14
 1036 058f 76010000 		.4byte	.LASF92
 1037 0593 0A       		.byte	0xa
 1038 0594 74       		.byte	0x74
 1039 0595 A7050000 		.4byte	0x5a7
 1040 0599 00       		.byte	0
 1041 059a 14       		.uleb128 0x14
 1042 059b 5A060000 		.4byte	.LASF93
 1043 059f 0A       		.byte	0xa
 1044 05a0 75       		.byte	0x75
 1045 05a1 89000000 		.4byte	0x89
 1046 05a5 04       		.byte	0x4
 1047 05a6 00       		.byte	0
 1048 05a7 16       		.uleb128 0x16
 1049 05a8 04       		.byte	0x4
 1050 05a9 37000000 		.4byte	0x37
 1051 05ad 18       		.uleb128 0x18
 1052 05ae 62050000 		.4byte	.LASF94
 1053 05b2 68       		.byte	0x68
 1054 05b3 0A       		.byte	0xa
 1055 05b4 B3       		.byte	0xb3
 1056 05b5 D7060000 		.4byte	0x6d7
 1057 05b9 19       		.uleb128 0x19
ARM GAS  /tmp/ccUELuRe.s 			page 23


 1058 05ba 5F7000   		.ascii	"_p\000"
 1059 05bd 0A       		.byte	0xa
 1060 05be B4       		.byte	0xb4
 1061 05bf A7050000 		.4byte	0x5a7
 1062 05c3 00       		.byte	0
 1063 05c4 19       		.uleb128 0x19
 1064 05c5 5F7200   		.ascii	"_r\000"
 1065 05c8 0A       		.byte	0xa
 1066 05c9 B5       		.byte	0xb5
 1067 05ca 89000000 		.4byte	0x89
 1068 05ce 04       		.byte	0x4
 1069 05cf 19       		.uleb128 0x19
 1070 05d0 5F7700   		.ascii	"_w\000"
 1071 05d3 0A       		.byte	0xa
 1072 05d4 B6       		.byte	0xb6
 1073 05d5 89000000 		.4byte	0x89
 1074 05d9 08       		.byte	0x8
 1075 05da 14       		.uleb128 0x14
 1076 05db FB010000 		.4byte	.LASF95
 1077 05df 0A       		.byte	0xa
 1078 05e0 B7       		.byte	0xb7
 1079 05e1 3E000000 		.4byte	0x3e
 1080 05e5 0C       		.byte	0xc
 1081 05e6 14       		.uleb128 0x14
 1082 05e7 40030000 		.4byte	.LASF96
 1083 05eb 0A       		.byte	0xa
 1084 05ec B8       		.byte	0xb8
 1085 05ed 3E000000 		.4byte	0x3e
 1086 05f1 0E       		.byte	0xe
 1087 05f2 19       		.uleb128 0x19
 1088 05f3 5F626600 		.ascii	"_bf\000"
 1089 05f7 0A       		.byte	0xa
 1090 05f8 B9       		.byte	0xb9
 1091 05f9 82050000 		.4byte	0x582
 1092 05fd 10       		.byte	0x10
 1093 05fe 14       		.uleb128 0x14
 1094 05ff E6000000 		.4byte	.LASF97
 1095 0603 0A       		.byte	0xa
 1096 0604 BA       		.byte	0xba
 1097 0605 89000000 		.4byte	0x89
 1098 0609 18       		.byte	0x18
 1099 060a 14       		.uleb128 0x14
 1100 060b C5010000 		.4byte	.LASF98
 1101 060f 0A       		.byte	0xa
 1102 0610 C1       		.byte	0xc1
 1103 0611 D6030000 		.4byte	0x3d6
 1104 0615 1C       		.byte	0x1c
 1105 0616 14       		.uleb128 0x14
 1106 0617 EA020000 		.4byte	.LASF99
 1107 061b 0A       		.byte	0xa
 1108 061c C3       		.byte	0xc3
 1109 061d 32080000 		.4byte	0x832
 1110 0621 20       		.byte	0x20
 1111 0622 14       		.uleb128 0x14
 1112 0623 B9030000 		.4byte	.LASF100
 1113 0627 0A       		.byte	0xa
 1114 0628 C5       		.byte	0xc5
ARM GAS  /tmp/ccUELuRe.s 			page 24


 1115 0629 61080000 		.4byte	0x861
 1116 062d 24       		.byte	0x24
 1117 062e 14       		.uleb128 0x14
 1118 062f 02060000 		.4byte	.LASF101
 1119 0633 0A       		.byte	0xa
 1120 0634 C8       		.byte	0xc8
 1121 0635 85080000 		.4byte	0x885
 1122 0639 28       		.byte	0x28
 1123 063a 14       		.uleb128 0x14
 1124 063b 5D010000 		.4byte	.LASF102
 1125 063f 0A       		.byte	0xa
 1126 0640 C9       		.byte	0xc9
 1127 0641 9F080000 		.4byte	0x89f
 1128 0645 2C       		.byte	0x2c
 1129 0646 19       		.uleb128 0x19
 1130 0647 5F756200 		.ascii	"_ub\000"
 1131 064b 0A       		.byte	0xa
 1132 064c CC       		.byte	0xcc
 1133 064d 82050000 		.4byte	0x582
 1134 0651 30       		.byte	0x30
 1135 0652 19       		.uleb128 0x19
 1136 0653 5F757000 		.ascii	"_up\000"
 1137 0657 0A       		.byte	0xa
 1138 0658 CD       		.byte	0xcd
 1139 0659 A7050000 		.4byte	0x5a7
 1140 065d 38       		.byte	0x38
 1141 065e 19       		.uleb128 0x19
 1142 065f 5F757200 		.ascii	"_ur\000"
 1143 0663 0A       		.byte	0xa
 1144 0664 CE       		.byte	0xce
 1145 0665 89000000 		.4byte	0x89
 1146 0669 3C       		.byte	0x3c
 1147 066a 14       		.uleb128 0x14
 1148 066b 70010000 		.4byte	.LASF103
 1149 066f 0A       		.byte	0xa
 1150 0670 D1       		.byte	0xd1
 1151 0671 A5080000 		.4byte	0x8a5
 1152 0675 40       		.byte	0x40
 1153 0676 14       		.uleb128 0x14
 1154 0677 B0070000 		.4byte	.LASF104
 1155 067b 0A       		.byte	0xa
 1156 067c D2       		.byte	0xd2
 1157 067d B5080000 		.4byte	0x8b5
 1158 0681 43       		.byte	0x43
 1159 0682 19       		.uleb128 0x19
 1160 0683 5F6C6200 		.ascii	"_lb\000"
 1161 0687 0A       		.byte	0xa
 1162 0688 D5       		.byte	0xd5
 1163 0689 82050000 		.4byte	0x582
 1164 068d 44       		.byte	0x44
 1165 068e 14       		.uleb128 0x14
 1166 068f 4C060000 		.4byte	.LASF105
 1167 0693 0A       		.byte	0xa
 1168 0694 D8       		.byte	0xd8
 1169 0695 89000000 		.4byte	0x89
 1170 0699 4C       		.byte	0x4c
 1171 069a 14       		.uleb128 0x14
ARM GAS  /tmp/ccUELuRe.s 			page 25


 1172 069b F2030000 		.4byte	.LASF106
 1173 069f 0A       		.byte	0xa
 1174 06a0 D9       		.byte	0xd9
 1175 06a1 4E030000 		.4byte	0x34e
 1176 06a5 50       		.byte	0x50
 1177 06a6 14       		.uleb128 0x14
 1178 06a7 46030000 		.4byte	.LASF107
 1179 06ab 0A       		.byte	0xa
 1180 06ac DC       		.byte	0xdc
 1181 06ad F5060000 		.4byte	0x6f5
 1182 06b1 54       		.byte	0x54
 1183 06b2 14       		.uleb128 0x14
 1184 06b3 A3030000 		.4byte	.LASF108
 1185 06b7 0A       		.byte	0xa
 1186 06b8 E0       		.byte	0xe0
 1187 06b9 CB030000 		.4byte	0x3cb
 1188 06bd 58       		.byte	0x58
 1189 06be 14       		.uleb128 0x14
 1190 06bf 74050000 		.4byte	.LASF109
 1191 06c3 0A       		.byte	0xa
 1192 06c4 E2       		.byte	0xe2
 1193 06c5 C0030000 		.4byte	0x3c0
 1194 06c9 5C       		.byte	0x5c
 1195 06ca 14       		.uleb128 0x14
 1196 06cb 42050000 		.4byte	.LASF110
 1197 06cf 0A       		.byte	0xa
 1198 06d0 E3       		.byte	0xe3
 1199 06d1 89000000 		.4byte	0x89
 1200 06d5 64       		.byte	0x64
 1201 06d6 00       		.byte	0
 1202 06d7 1D       		.uleb128 0x1d
 1203 06d8 89000000 		.4byte	0x89
 1204 06dc F5060000 		.4byte	0x6f5
 1205 06e0 1E       		.uleb128 0x1e
 1206 06e1 F5060000 		.4byte	0x6f5
 1207 06e5 1E       		.uleb128 0x1e
 1208 06e6 D6030000 		.4byte	0x3d6
 1209 06ea 1E       		.uleb128 0x1e
 1210 06eb D8030000 		.4byte	0x3d8
 1211 06ef 1E       		.uleb128 0x1e
 1212 06f0 89000000 		.4byte	0x89
 1213 06f4 00       		.byte	0
 1214 06f5 16       		.uleb128 0x16
 1215 06f6 04       		.byte	0x4
 1216 06f7 00070000 		.4byte	0x700
 1217 06fb 17       		.uleb128 0x17
 1218 06fc F5060000 		.4byte	0x6f5
 1219 0700 1F       		.uleb128 0x1f
 1220 0701 CD050000 		.4byte	.LASF111
 1221 0705 2804     		.2byte	0x428
 1222 0707 0A       		.byte	0xa
 1223 0708 3802     		.2byte	0x238
 1224 070a 32080000 		.4byte	0x832
 1225 070e 0D       		.uleb128 0xd
 1226 070f 40060000 		.4byte	.LASF112
 1227 0713 0A       		.byte	0xa
 1228 0714 3A02     		.2byte	0x23a
ARM GAS  /tmp/ccUELuRe.s 			page 26


 1229 0716 89000000 		.4byte	0x89
 1230 071a 00       		.byte	0
 1231 071b 0D       		.uleb128 0xd
 1232 071c 0A020000 		.4byte	.LASF113
 1233 0720 0A       		.byte	0xa
 1234 0721 3F02     		.2byte	0x23f
 1235 0723 0C090000 		.4byte	0x90c
 1236 0727 04       		.byte	0x4
 1237 0728 0D       		.uleb128 0xd
 1238 0729 70070000 		.4byte	.LASF114
 1239 072d 0A       		.byte	0xa
 1240 072e 3F02     		.2byte	0x23f
 1241 0730 0C090000 		.4byte	0x90c
 1242 0734 08       		.byte	0x8
 1243 0735 0D       		.uleb128 0xd
 1244 0736 D4020000 		.4byte	.LASF115
 1245 073a 0A       		.byte	0xa
 1246 073b 3F02     		.2byte	0x23f
 1247 073d 0C090000 		.4byte	0x90c
 1248 0741 0C       		.byte	0xc
 1249 0742 0D       		.uleb128 0xd
 1250 0743 8A050000 		.4byte	.LASF116
 1251 0747 0A       		.byte	0xa
 1252 0748 4102     		.2byte	0x241
 1253 074a 89000000 		.4byte	0x89
 1254 074e 10       		.byte	0x10
 1255 074f 0D       		.uleb128 0xd
 1256 0750 6F000000 		.4byte	.LASF117
 1257 0754 0A       		.byte	0xa
 1258 0755 4202     		.2byte	0x242
 1259 0757 EE0A0000 		.4byte	0xaee
 1260 075b 14       		.byte	0x14
 1261 075c 0D       		.uleb128 0xd
 1262 075d 26070000 		.4byte	.LASF118
 1263 0761 0A       		.byte	0xa
 1264 0762 4402     		.2byte	0x244
 1265 0764 89000000 		.4byte	0x89
 1266 0768 30       		.byte	0x30
 1267 0769 0D       		.uleb128 0xd
 1268 076a 94050000 		.4byte	.LASF119
 1269 076e 0A       		.byte	0xa
 1270 076f 4502     		.2byte	0x245
 1271 0771 56080000 		.4byte	0x856
 1272 0775 34       		.byte	0x34
 1273 0776 0D       		.uleb128 0xd
 1274 0777 38040000 		.4byte	.LASF120
 1275 077b 0A       		.byte	0xa
 1276 077c 4702     		.2byte	0x247
 1277 077e 89000000 		.4byte	0x89
 1278 0782 38       		.byte	0x38
 1279 0783 0D       		.uleb128 0xd
 1280 0784 BB050000 		.4byte	.LASF121
 1281 0788 0A       		.byte	0xa
 1282 0789 4902     		.2byte	0x249
 1283 078b 090B0000 		.4byte	0xb09
 1284 078f 3C       		.byte	0x3c
 1285 0790 0D       		.uleb128 0xd
ARM GAS  /tmp/ccUELuRe.s 			page 27


 1286 0791 77030000 		.4byte	.LASF122
 1287 0795 0A       		.byte	0xa
 1288 0796 4C02     		.2byte	0x24c
 1289 0798 48040000 		.4byte	0x448
 1290 079c 40       		.byte	0x40
 1291 079d 0D       		.uleb128 0xd
 1292 079e 1F020000 		.4byte	.LASF123
 1293 07a2 0A       		.byte	0xa
 1294 07a3 4D02     		.2byte	0x24d
 1295 07a5 89000000 		.4byte	0x89
 1296 07a9 44       		.byte	0x44
 1297 07aa 0D       		.uleb128 0xd
 1298 07ab 40080000 		.4byte	.LASF124
 1299 07af 0A       		.byte	0xa
 1300 07b0 4E02     		.2byte	0x24e
 1301 07b2 48040000 		.4byte	0x448
 1302 07b6 48       		.byte	0x48
 1303 07b7 0D       		.uleb128 0xd
 1304 07b8 5F040000 		.4byte	.LASF125
 1305 07bc 0A       		.byte	0xa
 1306 07bd 4F02     		.2byte	0x24f
 1307 07bf 0F0B0000 		.4byte	0xb0f
 1308 07c3 4C       		.byte	0x4c
 1309 07c4 0D       		.uleb128 0xd
 1310 07c5 26030000 		.4byte	.LASF126
 1311 07c9 0A       		.byte	0xa
 1312 07ca 5202     		.2byte	0x252
 1313 07cc 89000000 		.4byte	0x89
 1314 07d0 50       		.byte	0x50
 1315 07d1 0D       		.uleb128 0xd
 1316 07d2 52020000 		.4byte	.LASF127
 1317 07d6 0A       		.byte	0xa
 1318 07d7 5302     		.2byte	0x253
 1319 07d9 D8030000 		.4byte	0x3d8
 1320 07dd 54       		.byte	0x54
 1321 07de 0D       		.uleb128 0xd
 1322 07df 9E030000 		.4byte	.LASF128
 1323 07e3 0A       		.byte	0xa
 1324 07e4 7602     		.2byte	0x276
 1325 07e6 CC0A0000 		.4byte	0xacc
 1326 07ea 58       		.byte	0x58
 1327 07eb 20       		.uleb128 0x20
 1328 07ec 20040000 		.4byte	.LASF88
 1329 07f0 0A       		.byte	0xa
 1330 07f1 7A02     		.2byte	0x27a
 1331 07f3 65050000 		.4byte	0x565
 1332 07f7 4801     		.2byte	0x148
 1333 07f9 20       		.uleb128 0x20
 1334 07fa 84000000 		.4byte	.LASF129
 1335 07fe 0A       		.byte	0xa
 1336 07ff 7B02     		.2byte	0x27b
 1337 0801 27050000 		.4byte	0x527
 1338 0805 4C01     		.2byte	0x14c
 1339 0807 20       		.uleb128 0x20
 1340 0808 9D070000 		.4byte	.LASF130
 1341 080c 0A       		.byte	0xa
 1342 080d 7F02     		.2byte	0x27f
ARM GAS  /tmp/ccUELuRe.s 			page 28


 1343 080f 200B0000 		.4byte	0xb20
 1344 0813 DC02     		.2byte	0x2dc
 1345 0815 20       		.uleb128 0x20
 1346 0816 D8010000 		.4byte	.LASF131
 1347 081a 0A       		.byte	0xa
 1348 081b 8402     		.2byte	0x284
 1349 081d D1080000 		.4byte	0x8d1
 1350 0821 E002     		.2byte	0x2e0
 1351 0823 20       		.uleb128 0x20
 1352 0824 86010000 		.4byte	.LASF132
 1353 0828 0A       		.byte	0xa
 1354 0829 8502     		.2byte	0x285
 1355 082b 2C0B0000 		.4byte	0xb2c
 1356 082f EC02     		.2byte	0x2ec
 1357 0831 00       		.byte	0
 1358 0832 16       		.uleb128 0x16
 1359 0833 04       		.byte	0x4
 1360 0834 D7060000 		.4byte	0x6d7
 1361 0838 1D       		.uleb128 0x1d
 1362 0839 89000000 		.4byte	0x89
 1363 083d 56080000 		.4byte	0x856
 1364 0841 1E       		.uleb128 0x1e
 1365 0842 F5060000 		.4byte	0x6f5
 1366 0846 1E       		.uleb128 0x1e
 1367 0847 D6030000 		.4byte	0x3d6
 1368 084b 1E       		.uleb128 0x1e
 1369 084c 56080000 		.4byte	0x856
 1370 0850 1E       		.uleb128 0x1e
 1371 0851 89000000 		.4byte	0x89
 1372 0855 00       		.byte	0
 1373 0856 16       		.uleb128 0x16
 1374 0857 04       		.byte	0x4
 1375 0858 E5030000 		.4byte	0x3e5
 1376 085c 17       		.uleb128 0x17
 1377 085d 56080000 		.4byte	0x856
 1378 0861 16       		.uleb128 0x16
 1379 0862 04       		.byte	0x4
 1380 0863 38080000 		.4byte	0x838
 1381 0867 1D       		.uleb128 0x1d
 1382 0868 59030000 		.4byte	0x359
 1383 086c 85080000 		.4byte	0x885
 1384 0870 1E       		.uleb128 0x1e
 1385 0871 F5060000 		.4byte	0x6f5
 1386 0875 1E       		.uleb128 0x1e
 1387 0876 D6030000 		.4byte	0x3d6
 1388 087a 1E       		.uleb128 0x1e
 1389 087b 59030000 		.4byte	0x359
 1390 087f 1E       		.uleb128 0x1e
 1391 0880 89000000 		.4byte	0x89
 1392 0884 00       		.byte	0
 1393 0885 16       		.uleb128 0x16
 1394 0886 04       		.byte	0x4
 1395 0887 67080000 		.4byte	0x867
 1396 088b 1D       		.uleb128 0x1d
 1397 088c 89000000 		.4byte	0x89
 1398 0890 9F080000 		.4byte	0x89f
 1399 0894 1E       		.uleb128 0x1e
ARM GAS  /tmp/ccUELuRe.s 			page 29


 1400 0895 F5060000 		.4byte	0x6f5
 1401 0899 1E       		.uleb128 0x1e
 1402 089a D6030000 		.4byte	0x3d6
 1403 089e 00       		.byte	0
 1404 089f 16       		.uleb128 0x16
 1405 08a0 04       		.byte	0x4
 1406 08a1 8B080000 		.4byte	0x88b
 1407 08a5 11       		.uleb128 0x11
 1408 08a6 37000000 		.4byte	0x37
 1409 08aa B5080000 		.4byte	0x8b5
 1410 08ae 12       		.uleb128 0x12
 1411 08af CD000000 		.4byte	0xcd
 1412 08b3 02       		.byte	0x2
 1413 08b4 00       		.byte	0
 1414 08b5 11       		.uleb128 0x11
 1415 08b6 37000000 		.4byte	0x37
 1416 08ba C5080000 		.4byte	0x8c5
 1417 08be 12       		.uleb128 0x12
 1418 08bf CD000000 		.4byte	0xcd
 1419 08c3 00       		.byte	0
 1420 08c4 00       		.byte	0
 1421 08c5 0E       		.uleb128 0xe
 1422 08c6 50050000 		.4byte	.LASF133
 1423 08ca 0A       		.byte	0xa
 1424 08cb 1D01     		.2byte	0x11d
 1425 08cd AD050000 		.4byte	0x5ad
 1426 08d1 21       		.uleb128 0x21
 1427 08d2 78070000 		.4byte	.LASF134
 1428 08d6 0C       		.byte	0xc
 1429 08d7 0A       		.byte	0xa
 1430 08d8 2101     		.2byte	0x121
 1431 08da 06090000 		.4byte	0x906
 1432 08de 0D       		.uleb128 0xd
 1433 08df E4020000 		.4byte	.LASF68
 1434 08e3 0A       		.byte	0xa
 1435 08e4 2301     		.2byte	0x123
 1436 08e6 06090000 		.4byte	0x906
 1437 08ea 00       		.byte	0
 1438 08eb 0D       		.uleb128 0xd
 1439 08ec 4C030000 		.4byte	.LASF135
 1440 08f0 0A       		.byte	0xa
 1441 08f1 2401     		.2byte	0x124
 1442 08f3 89000000 		.4byte	0x89
 1443 08f7 04       		.byte	0x4
 1444 08f8 0D       		.uleb128 0xd
 1445 08f9 4A050000 		.4byte	.LASF136
 1446 08fd 0A       		.byte	0xa
 1447 08fe 2501     		.2byte	0x125
 1448 0900 0C090000 		.4byte	0x90c
 1449 0904 08       		.byte	0x8
 1450 0905 00       		.byte	0
 1451 0906 16       		.uleb128 0x16
 1452 0907 04       		.byte	0x4
 1453 0908 D1080000 		.4byte	0x8d1
 1454 090c 16       		.uleb128 0x16
 1455 090d 04       		.byte	0x4
 1456 090e C5080000 		.4byte	0x8c5
ARM GAS  /tmp/ccUELuRe.s 			page 30


 1457 0912 21       		.uleb128 0x21
 1458 0913 58000000 		.4byte	.LASF137
 1459 0917 0E       		.byte	0xe
 1460 0918 0A       		.byte	0xa
 1461 0919 3D01     		.2byte	0x13d
 1462 091b 47090000 		.4byte	0x947
 1463 091f 0D       		.uleb128 0xd
 1464 0920 D4050000 		.4byte	.LASF138
 1465 0924 0A       		.byte	0xa
 1466 0925 3E01     		.2byte	0x13e
 1467 0927 47090000 		.4byte	0x947
 1468 092b 00       		.byte	0
 1469 092c 0D       		.uleb128 0xd
 1470 092d B3030000 		.4byte	.LASF139
 1471 0931 0A       		.byte	0xa
 1472 0932 3F01     		.2byte	0x13f
 1473 0934 47090000 		.4byte	0x947
 1474 0938 06       		.byte	0x6
 1475 0939 0D       		.uleb128 0xd
 1476 093a DD060000 		.4byte	.LASF140
 1477 093e 0A       		.byte	0xa
 1478 093f 4001     		.2byte	0x140
 1479 0941 50000000 		.4byte	0x50
 1480 0945 0C       		.byte	0xc
 1481 0946 00       		.byte	0
 1482 0947 11       		.uleb128 0x11
 1483 0948 50000000 		.4byte	0x50
 1484 094c 57090000 		.4byte	0x957
 1485 0950 12       		.uleb128 0x12
 1486 0951 CD000000 		.4byte	0xcd
 1487 0955 02       		.byte	0x2
 1488 0956 00       		.byte	0
 1489 0957 0B       		.uleb128 0xb
 1490 0958 D0       		.byte	0xd0
 1491 0959 0A       		.byte	0xa
 1492 095a 5702     		.2byte	0x257
 1493 095c 580A0000 		.4byte	0xa58
 1494 0960 0D       		.uleb128 0xd
 1495 0961 9A020000 		.4byte	.LASF141
 1496 0965 0A       		.byte	0xa
 1497 0966 5902     		.2byte	0x259
 1498 0968 90000000 		.4byte	0x90
 1499 096c 00       		.byte	0
 1500 096d 0D       		.uleb128 0xd
 1501 096e A2060000 		.4byte	.LASF142
 1502 0972 0A       		.byte	0xa
 1503 0973 5A02     		.2byte	0x25a
 1504 0975 D8030000 		.4byte	0x3d8
 1505 0979 04       		.byte	0x4
 1506 097a 0D       		.uleb128 0xd
 1507 097b 6A030000 		.4byte	.LASF143
 1508 097f 0A       		.byte	0xa
 1509 0980 5B02     		.2byte	0x25b
 1510 0982 580A0000 		.4byte	0xa58
 1511 0986 08       		.byte	0x8
 1512 0987 0D       		.uleb128 0xd
 1513 0988 C9070000 		.4byte	.LASF144
ARM GAS  /tmp/ccUELuRe.s 			page 31


 1514 098c 0A       		.byte	0xa
 1515 098d 5C02     		.2byte	0x25c
 1516 098f 5E040000 		.4byte	0x45e
 1517 0993 24       		.byte	0x24
 1518 0994 0D       		.uleb128 0xd
 1519 0995 43040000 		.4byte	.LASF145
 1520 0999 0A       		.byte	0xa
 1521 099a 5D02     		.2byte	0x25d
 1522 099c 89000000 		.4byte	0x89
 1523 09a0 48       		.byte	0x48
 1524 09a1 0D       		.uleb128 0xd
 1525 09a2 53030000 		.4byte	.LASF146
 1526 09a6 0A       		.byte	0xa
 1527 09a7 5E02     		.2byte	0x25e
 1528 09a9 82000000 		.4byte	0x82
 1529 09ad 50       		.byte	0x50
 1530 09ae 0D       		.uleb128 0xd
 1531 09af 0A040000 		.4byte	.LASF147
 1532 09b3 0A       		.byte	0xa
 1533 09b4 5F02     		.2byte	0x25f
 1534 09b6 12090000 		.4byte	0x912
 1535 09ba 58       		.byte	0x58
 1536 09bb 0D       		.uleb128 0xd
 1537 09bc 7D050000 		.4byte	.LASF148
 1538 09c0 0A       		.byte	0xa
 1539 09c1 6002     		.2byte	0x260
 1540 09c3 C0030000 		.4byte	0x3c0
 1541 09c7 68       		.byte	0x68
 1542 09c8 0D       		.uleb128 0xd
 1543 09c9 23080000 		.4byte	.LASF149
 1544 09cd 0A       		.byte	0xa
 1545 09ce 6102     		.2byte	0x261
 1546 09d0 C0030000 		.4byte	0x3c0
 1547 09d4 70       		.byte	0x70
 1548 09d5 0D       		.uleb128 0xd
 1549 09d6 3A010000 		.4byte	.LASF150
 1550 09da 0A       		.byte	0xa
 1551 09db 6202     		.2byte	0x262
 1552 09dd C0030000 		.4byte	0x3c0
 1553 09e1 78       		.byte	0x78
 1554 09e2 0D       		.uleb128 0xd
 1555 09e3 93070000 		.4byte	.LASF151
 1556 09e7 0A       		.byte	0xa
 1557 09e8 6302     		.2byte	0x263
 1558 09ea 680A0000 		.4byte	0xa68
 1559 09ee 80       		.byte	0x80
 1560 09ef 0D       		.uleb128 0xd
 1561 09f0 5E030000 		.4byte	.LASF152
 1562 09f4 0A       		.byte	0xa
 1563 09f5 6402     		.2byte	0x264
 1564 09f7 780A0000 		.4byte	0xa78
 1565 09fb 88       		.byte	0x88
 1566 09fc 0D       		.uleb128 0xd
 1567 09fd EA060000 		.4byte	.LASF153
 1568 0a01 0A       		.byte	0xa
 1569 0a02 6502     		.2byte	0x265
 1570 0a04 89000000 		.4byte	0x89
ARM GAS  /tmp/ccUELuRe.s 			page 32


 1571 0a08 A0       		.byte	0xa0
 1572 0a09 0D       		.uleb128 0xd
 1573 0a0a 8C020000 		.4byte	.LASF154
 1574 0a0e 0A       		.byte	0xa
 1575 0a0f 6602     		.2byte	0x266
 1576 0a11 C0030000 		.4byte	0x3c0
 1577 0a15 A4       		.byte	0xa4
 1578 0a16 0D       		.uleb128 0xd
 1579 0a17 26010000 		.4byte	.LASF155
 1580 0a1b 0A       		.byte	0xa
 1581 0a1c 6702     		.2byte	0x267
 1582 0a1e C0030000 		.4byte	0x3c0
 1583 0a22 AC       		.byte	0xac
 1584 0a23 0D       		.uleb128 0xd
 1585 0a24 7B020000 		.4byte	.LASF156
 1586 0a28 0A       		.byte	0xa
 1587 0a29 6802     		.2byte	0x268
 1588 0a2b C0030000 		.4byte	0x3c0
 1589 0a2f B4       		.byte	0xb4
 1590 0a30 0D       		.uleb128 0xd
 1591 0a31 A0000000 		.4byte	.LASF157
 1592 0a35 0A       		.byte	0xa
 1593 0a36 6902     		.2byte	0x269
 1594 0a38 C0030000 		.4byte	0x3c0
 1595 0a3c BC       		.byte	0xbc
 1596 0a3d 0D       		.uleb128 0xd
 1597 0a3e AF000000 		.4byte	.LASF158
 1598 0a42 0A       		.byte	0xa
 1599 0a43 6A02     		.2byte	0x26a
 1600 0a45 C0030000 		.4byte	0x3c0
 1601 0a49 C4       		.byte	0xc4
 1602 0a4a 0D       		.uleb128 0xd
 1603 0a4b 19050000 		.4byte	.LASF159
 1604 0a4f 0A       		.byte	0xa
 1605 0a50 6B02     		.2byte	0x26b
 1606 0a52 89000000 		.4byte	0x89
 1607 0a56 CC       		.byte	0xcc
 1608 0a57 00       		.byte	0
 1609 0a58 11       		.uleb128 0x11
 1610 0a59 DE030000 		.4byte	0x3de
 1611 0a5d 680A0000 		.4byte	0xa68
 1612 0a61 12       		.uleb128 0x12
 1613 0a62 CD000000 		.4byte	0xcd
 1614 0a66 19       		.byte	0x19
 1615 0a67 00       		.byte	0
 1616 0a68 11       		.uleb128 0x11
 1617 0a69 DE030000 		.4byte	0x3de
 1618 0a6d 780A0000 		.4byte	0xa78
 1619 0a71 12       		.uleb128 0x12
 1620 0a72 CD000000 		.4byte	0xcd
 1621 0a76 07       		.byte	0x7
 1622 0a77 00       		.byte	0
 1623 0a78 11       		.uleb128 0x11
 1624 0a79 DE030000 		.4byte	0x3de
 1625 0a7d 880A0000 		.4byte	0xa88
 1626 0a81 12       		.uleb128 0x12
 1627 0a82 CD000000 		.4byte	0xcd
ARM GAS  /tmp/ccUELuRe.s 			page 33


 1628 0a86 17       		.byte	0x17
 1629 0a87 00       		.byte	0
 1630 0a88 0B       		.uleb128 0xb
 1631 0a89 F0       		.byte	0xf0
 1632 0a8a 0A       		.byte	0xa
 1633 0a8b 7002     		.2byte	0x270
 1634 0a8d AC0A0000 		.4byte	0xaac
 1635 0a91 0D       		.uleb128 0xd
 1636 0a92 85030000 		.4byte	.LASF160
 1637 0a96 0A       		.byte	0xa
 1638 0a97 7302     		.2byte	0x273
 1639 0a99 AC0A0000 		.4byte	0xaac
 1640 0a9d 00       		.byte	0
 1641 0a9e 0D       		.uleb128 0xd
 1642 0a9f CE030000 		.4byte	.LASF161
 1643 0aa3 0A       		.byte	0xa
 1644 0aa4 7402     		.2byte	0x274
 1645 0aa6 BC0A0000 		.4byte	0xabc
 1646 0aaa 78       		.byte	0x78
 1647 0aab 00       		.byte	0
 1648 0aac 11       		.uleb128 0x11
 1649 0aad A7050000 		.4byte	0x5a7
 1650 0ab1 BC0A0000 		.4byte	0xabc
 1651 0ab5 12       		.uleb128 0x12
 1652 0ab6 CD000000 		.4byte	0xcd
 1653 0aba 1D       		.byte	0x1d
 1654 0abb 00       		.byte	0
 1655 0abc 11       		.uleb128 0x11
 1656 0abd 90000000 		.4byte	0x90
 1657 0ac1 CC0A0000 		.4byte	0xacc
 1658 0ac5 12       		.uleb128 0x12
 1659 0ac6 CD000000 		.4byte	0xcd
 1660 0aca 1D       		.byte	0x1d
 1661 0acb 00       		.byte	0
 1662 0acc 22       		.uleb128 0x22
 1663 0acd F0       		.byte	0xf0
 1664 0ace 0A       		.byte	0xa
 1665 0acf 5502     		.2byte	0x255
 1666 0ad1 EE0A0000 		.4byte	0xaee
 1667 0ad5 23       		.uleb128 0x23
 1668 0ad6 CD050000 		.4byte	.LASF111
 1669 0ada 0A       		.byte	0xa
 1670 0adb 6C02     		.2byte	0x26c
 1671 0add 57090000 		.4byte	0x957
 1672 0ae1 23       		.uleb128 0x23
 1673 0ae2 B6070000 		.4byte	.LASF162
 1674 0ae6 0A       		.byte	0xa
 1675 0ae7 7502     		.2byte	0x275
 1676 0ae9 880A0000 		.4byte	0xa88
 1677 0aed 00       		.byte	0
 1678 0aee 11       		.uleb128 0x11
 1679 0aef DE030000 		.4byte	0x3de
 1680 0af3 FE0A0000 		.4byte	0xafe
 1681 0af7 12       		.uleb128 0x12
 1682 0af8 CD000000 		.4byte	0xcd
 1683 0afc 18       		.byte	0x18
 1684 0afd 00       		.byte	0
ARM GAS  /tmp/ccUELuRe.s 			page 34


 1685 0afe 24       		.uleb128 0x24
 1686 0aff 090B0000 		.4byte	0xb09
 1687 0b03 1E       		.uleb128 0x1e
 1688 0b04 F5060000 		.4byte	0x6f5
 1689 0b08 00       		.byte	0
 1690 0b09 16       		.uleb128 0x16
 1691 0b0a 04       		.byte	0x4
 1692 0b0b FE0A0000 		.4byte	0xafe
 1693 0b0f 16       		.uleb128 0x16
 1694 0b10 04       		.byte	0x4
 1695 0b11 48040000 		.4byte	0x448
 1696 0b15 24       		.uleb128 0x24
 1697 0b16 200B0000 		.4byte	0xb20
 1698 0b1a 1E       		.uleb128 0x1e
 1699 0b1b 89000000 		.4byte	0x89
 1700 0b1f 00       		.byte	0
 1701 0b20 16       		.uleb128 0x16
 1702 0b21 04       		.byte	0x4
 1703 0b22 260B0000 		.4byte	0xb26
 1704 0b26 16       		.uleb128 0x16
 1705 0b27 04       		.byte	0x4
 1706 0b28 150B0000 		.4byte	0xb15
 1707 0b2c 11       		.uleb128 0x11
 1708 0b2d C5080000 		.4byte	0x8c5
 1709 0b31 3C0B0000 		.4byte	0xb3c
 1710 0b35 12       		.uleb128 0x12
 1711 0b36 CD000000 		.4byte	0xcd
 1712 0b3a 02       		.byte	0x2
 1713 0b3b 00       		.byte	0
 1714 0b3c 06       		.uleb128 0x6
 1715 0b3d C8020000 		.4byte	.LASF163
 1716 0b41 0A       		.byte	0xa
 1717 0b42 FD02     		.2byte	0x2fd
 1718 0b44 F5060000 		.4byte	0x6f5
 1719 0b48 06       		.uleb128 0x6
 1720 0b49 13070000 		.4byte	.LASF164
 1721 0b4d 0A       		.byte	0xa
 1722 0b4e FE02     		.2byte	0x2fe
 1723 0b50 FB060000 		.4byte	0x6fb
 1724 0b54 07       		.uleb128 0x7
 1725 0b55 A9030000 		.4byte	.LASF165
 1726 0b59 0B       		.byte	0xb
 1727 0b5a 5F       		.byte	0x5f
 1728 0b5b D8030000 		.4byte	0x3d8
 1729 0b5f 02       		.uleb128 0x2
 1730 0b60 08       		.byte	0x8
 1731 0b61 04       		.byte	0x4
 1732 0b62 45080000 		.4byte	.LASF166
 1733 0b66 02       		.uleb128 0x2
 1734 0b67 04       		.byte	0x4
 1735 0b68 04       		.byte	0x4
 1736 0b69 59040000 		.4byte	.LASF167
 1737 0b6d 25       		.uleb128 0x25
 1738 0b6e F7060000 		.4byte	.LASF199
 1739 0b72 01       		.byte	0x1
 1740 0b73 25000000 		.4byte	0x25
 1741 0b77 0C       		.byte	0xc
ARM GAS  /tmp/ccUELuRe.s 			page 35


 1742 0b78 9902     		.2byte	0x299
 1743 0b7a 970B0000 		.4byte	0xb97
 1744 0b7e 26       		.uleb128 0x26
 1745 0b7f 38070000 		.4byte	.LASF168
 1746 0b83 7F       		.sleb128 -1
 1747 0b84 09       		.uleb128 0x9
 1748 0b85 11020000 		.4byte	.LASF169
 1749 0b89 00       		.byte	0
 1750 0b8a 09       		.uleb128 0x9
 1751 0b8b 60000000 		.4byte	.LASF170
 1752 0b8f 01       		.byte	0x1
 1753 0b90 09       		.uleb128 0x9
 1754 0b91 D7000000 		.4byte	.LASF171
 1755 0b95 02       		.byte	0x2
 1756 0b96 00       		.byte	0
 1757 0b97 06       		.uleb128 0x6
 1758 0b98 16010000 		.4byte	.LASF172
 1759 0b9c 0C       		.byte	0xc
 1760 0b9d A402     		.2byte	0x2a4
 1761 0b9f 6D0B0000 		.4byte	0xb6d
 1762 0ba3 11       		.uleb128 0x11
 1763 0ba4 5C080000 		.4byte	0x85c
 1764 0ba8 AE0B0000 		.4byte	0xbae
 1765 0bac 27       		.uleb128 0x27
 1766 0bad 00       		.byte	0
 1767 0bae 17       		.uleb128 0x17
 1768 0baf A30B0000 		.4byte	0xba3
 1769 0bb3 07       		.uleb128 0x7
 1770 0bb4 45020000 		.4byte	.LASF173
 1771 0bb8 0D       		.byte	0xd
 1772 0bb9 14       		.byte	0x14
 1773 0bba AE0B0000 		.4byte	0xbae
 1774 0bbe 07       		.uleb128 0x7
 1775 0bbf 6A050000 		.4byte	.LASF174
 1776 0bc3 0D       		.byte	0xd
 1777 0bc4 15       		.byte	0x15
 1778 0bc5 89000000 		.4byte	0x89
 1779 0bc9 28       		.uleb128 0x28
 1780 0bca 5A020000 		.4byte	.LASF175
 1781 0bce 01       		.byte	0x1
 1782 0bcf 04       		.byte	0x4
 1783 0bd0 A2000000 		.4byte	0xa2
 1784 0bd4 05       		.uleb128 0x5
 1785 0bd5 03       		.byte	0x3
 1786 0bd6 00000000 		.4byte	timer_counter
 1787 0bda 29       		.uleb128 0x29
 1788 0bdb 22050000 		.4byte	.LASF176
 1789 0bdf 01       		.byte	0x1
 1790 0be0 92       		.byte	0x92
 1791 0be1 64000000 		.4byte	.LFB73
 1792 0be5 44000000 		.4byte	.LFE73-.LFB73
 1793 0be9 01       		.uleb128 0x1
 1794 0bea 9C       		.byte	0x9c
 1795 0beb 860C0000 		.4byte	0xc86
 1796 0bef 2A       		.uleb128 0x2a
 1797 0bf0 6C000000 		.4byte	.LVL7
 1798 0bf4 D30D0000 		.4byte	0xdd3
ARM GAS  /tmp/ccUELuRe.s 			page 36


 1799 0bf8 020C0000 		.4byte	0xc02
 1800 0bfc 2B       		.uleb128 0x2b
 1801 0bfd 01       		.uleb128 0x1
 1802 0bfe 50       		.byte	0x50
 1803 0bff 01       		.uleb128 0x1
 1804 0c00 38       		.byte	0x38
 1805 0c01 00       		.byte	0
 1806 0c02 2A       		.uleb128 0x2a
 1807 0c03 74000000 		.4byte	.LVL8
 1808 0c07 D30D0000 		.4byte	0xdd3
 1809 0c0b 150C0000 		.4byte	0xc15
 1810 0c0f 2B       		.uleb128 0x2b
 1811 0c10 01       		.uleb128 0x1
 1812 0c11 50       		.byte	0x50
 1813 0c12 01       		.uleb128 0x1
 1814 0c13 40       		.byte	0x40
 1815 0c14 00       		.byte	0
 1816 0c15 2A       		.uleb128 0x2a
 1817 0c16 7E000000 		.4byte	.LVL9
 1818 0c1a DF0D0000 		.4byte	0xddf
 1819 0c1e 280C0000 		.4byte	0xc28
 1820 0c22 2B       		.uleb128 0x2b
 1821 0c23 01       		.uleb128 0x1
 1822 0c24 50       		.byte	0x50
 1823 0c25 01       		.uleb128 0x1
 1824 0c26 38       		.byte	0x38
 1825 0c27 00       		.byte	0
 1826 0c28 2A       		.uleb128 0x2a
 1827 0c29 84000000 		.4byte	.LVL10
 1828 0c2d EB0D0000 		.4byte	0xdeb
 1829 0c31 3C0C0000 		.4byte	0xc3c
 1830 0c35 2B       		.uleb128 0x2b
 1831 0c36 01       		.uleb128 0x1
 1832 0c37 50       		.byte	0x50
 1833 0c38 02       		.uleb128 0x2
 1834 0c39 08       		.byte	0x8
 1835 0c3a 31       		.byte	0x31
 1836 0c3b 00       		.byte	0
 1837 0c3c 2A       		.uleb128 0x2a
 1838 0c3d 8E000000 		.4byte	.LVL11
 1839 0c41 F70D0000 		.4byte	0xdf7
 1840 0c45 4F0C0000 		.4byte	0xc4f
 1841 0c49 2B       		.uleb128 0x2b
 1842 0c4a 01       		.uleb128 0x1
 1843 0c4b 50       		.byte	0x50
 1844 0c4c 01       		.uleb128 0x1
 1845 0c4d 31       		.byte	0x31
 1846 0c4e 00       		.byte	0
 1847 0c4f 2A       		.uleb128 0x2a
 1848 0c50 96000000 		.4byte	.LVL12
 1849 0c54 DF0D0000 		.4byte	0xddf
 1850 0c58 620C0000 		.4byte	0xc62
 1851 0c5c 2B       		.uleb128 0x2b
 1852 0c5d 01       		.uleb128 0x1
 1853 0c5e 50       		.byte	0x50
 1854 0c5f 01       		.uleb128 0x1
 1855 0c60 40       		.byte	0x40
ARM GAS  /tmp/ccUELuRe.s 			page 37


 1856 0c61 00       		.byte	0
 1857 0c62 2A       		.uleb128 0x2a
 1858 0c63 9C000000 		.4byte	.LVL13
 1859 0c67 EB0D0000 		.4byte	0xdeb
 1860 0c6b 760C0000 		.4byte	0xc76
 1861 0c6f 2B       		.uleb128 0x2b
 1862 0c70 01       		.uleb128 0x1
 1863 0c71 50       		.byte	0x50
 1864 0c72 02       		.uleb128 0x2
 1865 0c73 08       		.byte	0x8
 1866 0c74 39       		.byte	0x39
 1867 0c75 00       		.byte	0
 1868 0c76 2C       		.uleb128 0x2c
 1869 0c77 A6000000 		.4byte	.LVL14
 1870 0c7b 030E0000 		.4byte	0xe03
 1871 0c7f 2B       		.uleb128 0x2b
 1872 0c80 01       		.uleb128 0x1
 1873 0c81 50       		.byte	0x50
 1874 0c82 01       		.uleb128 0x1
 1875 0c83 32       		.byte	0x32
 1876 0c84 00       		.byte	0
 1877 0c85 00       		.byte	0
 1878 0c86 29       		.uleb128 0x29
 1879 0c87 4C080000 		.4byte	.LASF177
 1880 0c8b 01       		.byte	0x1
 1881 0c8c 83       		.byte	0x83
 1882 0c8d 3C000000 		.4byte	.LFB72
 1883 0c91 28000000 		.4byte	.LFE72-.LFB72
 1884 0c95 01       		.uleb128 0x1
 1885 0c96 9C       		.byte	0x9c
 1886 0c97 CC0C0000 		.4byte	0xccc
 1887 0c9b 2A       		.uleb128 0x2a
 1888 0c9c 48000000 		.4byte	.LVL5
 1889 0ca0 0F0E0000 		.4byte	0xe0f
 1890 0ca4 B50C0000 		.4byte	0xcb5
 1891 0ca8 2B       		.uleb128 0x2b
 1892 0ca9 01       		.uleb128 0x1
 1893 0caa 50       		.byte	0x50
 1894 0cab 03       		.uleb128 0x3
 1895 0cac 40       		.byte	0x40
 1896 0cad 4A       		.byte	0x4a
 1897 0cae 24       		.byte	0x24
 1898 0caf 2B       		.uleb128 0x2b
 1899 0cb0 01       		.uleb128 0x1
 1900 0cb1 51       		.byte	0x51
 1901 0cb2 01       		.uleb128 0x1
 1902 0cb3 31       		.byte	0x31
 1903 0cb4 00       		.byte	0
 1904 0cb5 2C       		.uleb128 0x2c
 1905 0cb6 56000000 		.4byte	.LVL6
 1906 0cba 1B0E0000 		.4byte	0xe1b
 1907 0cbe 2B       		.uleb128 0x2b
 1908 0cbf 01       		.uleb128 0x1
 1909 0cc0 50       		.byte	0x50
 1910 0cc1 03       		.uleb128 0x3
 1911 0cc2 40       		.byte	0x40
 1912 0cc3 4A       		.byte	0x4a
ARM GAS  /tmp/ccUELuRe.s 			page 38


 1913 0cc4 24       		.byte	0x24
 1914 0cc5 2B       		.uleb128 0x2b
 1915 0cc6 01       		.uleb128 0x1
 1916 0cc7 51       		.byte	0x51
 1917 0cc8 01       		.uleb128 0x1
 1918 0cc9 31       		.byte	0x31
 1919 0cca 00       		.byte	0
 1920 0ccb 00       		.byte	0
 1921 0ccc 2D       		.uleb128 0x2d
 1922 0ccd 08060000 		.4byte	.LASF178
 1923 0cd1 01       		.byte	0x1
 1924 0cd2 7B       		.byte	0x7b
 1925 0cd3 3A000000 		.4byte	.LFB71
 1926 0cd7 02000000 		.4byte	.LFE71-.LFB71
 1927 0cdb 01       		.uleb128 0x1
 1928 0cdc 9C       		.byte	0x9c
 1929 0cdd 2D       		.uleb128 0x2d
 1930 0cde 31080000 		.4byte	.LASF179
 1931 0ce2 01       		.byte	0x1
 1932 0ce3 72       		.byte	0x72
 1933 0ce4 38000000 		.4byte	.LFB70
 1934 0ce8 02000000 		.4byte	.LFE70-.LFB70
 1935 0cec 01       		.uleb128 0x1
 1936 0ced 9C       		.byte	0x9c
 1937 0cee 2D       		.uleb128 0x2d
 1938 0cef 47000000 		.4byte	.LASF180
 1939 0cf3 01       		.byte	0x1
 1940 0cf4 69       		.byte	0x69
 1941 0cf5 36000000 		.4byte	.LFB69
 1942 0cf9 02000000 		.4byte	.LFE69-.LFB69
 1943 0cfd 01       		.uleb128 0x1
 1944 0cfe 9C       		.byte	0x9c
 1945 0cff 2D       		.uleb128 0x2d
 1946 0d00 A4050000 		.4byte	.LASF181
 1947 0d04 01       		.byte	0x1
 1948 0d05 60       		.byte	0x60
 1949 0d06 34000000 		.4byte	.LFB68
 1950 0d0a 02000000 		.4byte	.LFE68-.LFB68
 1951 0d0e 01       		.uleb128 0x1
 1952 0d0f 9C       		.byte	0x9c
 1953 0d10 2D       		.uleb128 0x2d
 1954 0d11 68020000 		.4byte	.LASF182
 1955 0d15 01       		.byte	0x1
 1956 0d16 53       		.byte	0x53
 1957 0d17 32000000 		.4byte	.LFB67
 1958 0d1b 02000000 		.4byte	.LFE67-.LFB67
 1959 0d1f 01       		.uleb128 0x1
 1960 0d20 9C       		.byte	0x9c
 1961 0d21 2D       		.uleb128 0x2d
 1962 0d22 EF000000 		.4byte	.LASF183
 1963 0d26 01       		.byte	0x1
 1964 0d27 46       		.byte	0x46
 1965 0d28 30000000 		.4byte	.LFB66
 1966 0d2c 02000000 		.4byte	.LFE66-.LFB66
 1967 0d30 01       		.uleb128 0x1
 1968 0d31 9C       		.byte	0x9c
 1969 0d32 2D       		.uleb128 0x2d
ARM GAS  /tmp/ccUELuRe.s 			page 39


 1970 0d33 F5020000 		.4byte	.LASF184
 1971 0d37 01       		.byte	0x1
 1972 0d38 39       		.byte	0x39
 1973 0d39 2E000000 		.4byte	.LFB65
 1974 0d3d 02000000 		.4byte	.LFE65-.LFB65
 1975 0d41 01       		.uleb128 0x1
 1976 0d42 9C       		.byte	0x9c
 1977 0d43 2D       		.uleb128 0x2d
 1978 0d44 8C030000 		.4byte	.LASF185
 1979 0d48 01       		.byte	0x1
 1980 0d49 2C       		.byte	0x2c
 1981 0d4a 2C000000 		.4byte	.LFB64
 1982 0d4e 02000000 		.4byte	.LFE64-.LFB64
 1983 0d52 01       		.uleb128 0x1
 1984 0d53 9C       		.byte	0x9c
 1985 0d54 29       		.uleb128 0x29
 1986 0d55 27000000 		.4byte	.LASF186
 1987 0d59 01       		.byte	0x1
 1988 0d5a 06       		.byte	0x6
 1989 0d5b 00000000 		.4byte	.LFB63
 1990 0d5f 2C000000 		.4byte	.LFE63-.LFB63
 1991 0d63 01       		.uleb128 0x1
 1992 0d64 9C       		.byte	0x9c
 1993 0d65 D30D0000 		.4byte	0xdd3
 1994 0d69 2A       		.uleb128 0x2a
 1995 0d6a 08000000 		.4byte	.LVL0
 1996 0d6e D30D0000 		.4byte	0xdd3
 1997 0d72 7D0D0000 		.4byte	0xd7d
 1998 0d76 2B       		.uleb128 0x2b
 1999 0d77 01       		.uleb128 0x1
 2000 0d78 50       		.byte	0x50
 2001 0d79 02       		.uleb128 0x2
 2002 0d7a 09       		.byte	0x9
 2003 0d7b 80       		.byte	0x80
 2004 0d7c 00       		.byte	0
 2005 0d7d 2A       		.uleb128 0x2a
 2006 0d7e 14000000 		.4byte	.LVL1
 2007 0d82 270E0000 		.4byte	0xe27
 2008 0d86 920D0000 		.4byte	0xd92
 2009 0d8a 2B       		.uleb128 0x2b
 2010 0d8b 01       		.uleb128 0x1
 2011 0d8c 50       		.byte	0x50
 2012 0d8d 03       		.uleb128 0x3
 2013 0d8e 40       		.byte	0x40
 2014 0d8f 3C       		.byte	0x3c
 2015 0d90 24       		.byte	0x24
 2016 0d91 00       		.byte	0
 2017 0d92 2A       		.uleb128 0x2a
 2018 0d93 1C000000 		.4byte	.LVL2
 2019 0d97 330E0000 		.4byte	0xe33
 2020 0d9b AA0D0000 		.4byte	0xdaa
 2021 0d9f 2B       		.uleb128 0x2b
 2022 0da0 01       		.uleb128 0x1
 2023 0da1 50       		.byte	0x50
 2024 0da2 01       		.uleb128 0x1
 2025 0da3 38       		.byte	0x38
 2026 0da4 2B       		.uleb128 0x2b
ARM GAS  /tmp/ccUELuRe.s 			page 40


 2027 0da5 01       		.uleb128 0x1
 2028 0da6 51       		.byte	0x51
 2029 0da7 01       		.uleb128 0x1
 2030 0da8 31       		.byte	0x31
 2031 0da9 00       		.byte	0
 2032 0daa 2A       		.uleb128 0x2a
 2033 0dab 24000000 		.4byte	.LVL3
 2034 0daf 330E0000 		.4byte	0xe33
 2035 0db3 C20D0000 		.4byte	0xdc2
 2036 0db7 2B       		.uleb128 0x2b
 2037 0db8 01       		.uleb128 0x1
 2038 0db9 50       		.byte	0x50
 2039 0dba 01       		.uleb128 0x1
 2040 0dbb 40       		.byte	0x40
 2041 0dbc 2B       		.uleb128 0x2b
 2042 0dbd 01       		.uleb128 0x1
 2043 0dbe 51       		.byte	0x51
 2044 0dbf 01       		.uleb128 0x1
 2045 0dc0 31       		.byte	0x31
 2046 0dc1 00       		.byte	0
 2047 0dc2 2C       		.uleb128 0x2c
 2048 0dc3 2A000000 		.4byte	.LVL4
 2049 0dc7 DF0D0000 		.4byte	0xddf
 2050 0dcb 2B       		.uleb128 0x2b
 2051 0dcc 01       		.uleb128 0x1
 2052 0dcd 50       		.byte	0x50
 2053 0dce 02       		.uleb128 0x2
 2054 0dcf 09       		.byte	0x9
 2055 0dd0 80       		.byte	0x80
 2056 0dd1 00       		.byte	0
 2057 0dd2 00       		.byte	0
 2058 0dd3 2E       		.uleb128 0x2e
 2059 0dd4 92060000 		.4byte	.LASF187
 2060 0dd8 92060000 		.4byte	.LASF187
 2061 0ddc 0E       		.byte	0xe
 2062 0ddd C302     		.2byte	0x2c3
 2063 0ddf 2E       		.uleb128 0x2e
 2064 0de0 DA050000 		.4byte	.LASF188
 2065 0de4 DA050000 		.4byte	.LASF188
 2066 0de8 0E       		.byte	0xe
 2067 0de9 C402     		.2byte	0x2c4
 2068 0deb 2E       		.uleb128 0x2e
 2069 0dec B8060000 		.4byte	.LASF189
 2070 0df0 B8060000 		.4byte	.LASF189
 2071 0df4 0E       		.byte	0xe
 2072 0df5 C102     		.2byte	0x2c1
 2073 0df7 2E       		.uleb128 0x2e
 2074 0df8 B0050000 		.4byte	.LASF190
 2075 0dfc B0050000 		.4byte	.LASF190
 2076 0e00 0E       		.byte	0xe
 2077 0e01 8D02     		.2byte	0x28d
 2078 0e03 2E       		.uleb128 0x2e
 2079 0e04 0C000000 		.4byte	.LASF191
 2080 0e08 0C000000 		.4byte	.LASF191
 2081 0e0c 0E       		.byte	0xe
 2082 0e0d 9B02     		.2byte	0x29b
 2083 0e0f 2E       		.uleb128 0x2e
ARM GAS  /tmp/ccUELuRe.s 			page 41


 2084 0e10 28040000 		.4byte	.LASF192
 2085 0e14 28040000 		.4byte	.LASF192
 2086 0e18 0F       		.byte	0xf
 2087 0e19 7804     		.2byte	0x478
 2088 0e1b 2E       		.uleb128 0x2e
 2089 0e1c 72060000 		.4byte	.LASF193
 2090 0e20 72060000 		.4byte	.LASF193
 2091 0e24 0F       		.byte	0xf
 2092 0e25 7904     		.2byte	0x479
 2093 0e27 2E       		.uleb128 0x2e
 2094 0e28 C3040000 		.4byte	.LASF194
 2095 0e2c C3040000 		.4byte	.LASF194
 2096 0e30 0E       		.byte	0xe
 2097 0e31 8802     		.2byte	0x288
 2098 0e33 2E       		.uleb128 0x2e
 2099 0e34 7E070000 		.4byte	.LASF195
 2100 0e38 7E070000 		.4byte	.LASF195
 2101 0e3c 0E       		.byte	0xe
 2102 0e3d A002     		.2byte	0x2a0
 2103 0e3f 00       		.byte	0
 2104              		.section	.debug_abbrev,"",%progbits
 2105              	.Ldebug_abbrev0:
 2106 0000 01       		.uleb128 0x1
 2107 0001 11       		.uleb128 0x11
 2108 0002 01       		.byte	0x1
 2109 0003 25       		.uleb128 0x25
 2110 0004 0E       		.uleb128 0xe
 2111 0005 13       		.uleb128 0x13
 2112 0006 0B       		.uleb128 0xb
 2113 0007 03       		.uleb128 0x3
 2114 0008 0E       		.uleb128 0xe
 2115 0009 1B       		.uleb128 0x1b
 2116 000a 0E       		.uleb128 0xe
 2117 000b 11       		.uleb128 0x11
 2118 000c 01       		.uleb128 0x1
 2119 000d 12       		.uleb128 0x12
 2120 000e 06       		.uleb128 0x6
 2121 000f 10       		.uleb128 0x10
 2122 0010 17       		.uleb128 0x17
 2123 0011 00       		.byte	0
 2124 0012 00       		.byte	0
 2125 0013 02       		.uleb128 0x2
 2126 0014 24       		.uleb128 0x24
 2127 0015 00       		.byte	0
 2128 0016 0B       		.uleb128 0xb
 2129 0017 0B       		.uleb128 0xb
 2130 0018 3E       		.uleb128 0x3e
 2131 0019 0B       		.uleb128 0xb
 2132 001a 03       		.uleb128 0x3
 2133 001b 0E       		.uleb128 0xe
 2134 001c 00       		.byte	0
 2135 001d 00       		.byte	0
 2136 001e 03       		.uleb128 0x3
 2137 001f 16       		.uleb128 0x16
 2138 0020 00       		.byte	0
 2139 0021 03       		.uleb128 0x3
 2140 0022 0E       		.uleb128 0xe
ARM GAS  /tmp/ccUELuRe.s 			page 42


 2141 0023 3A       		.uleb128 0x3a
 2142 0024 0B       		.uleb128 0xb
 2143 0025 3B       		.uleb128 0x3b
 2144 0026 0B       		.uleb128 0xb
 2145 0027 49       		.uleb128 0x49
 2146 0028 13       		.uleb128 0x13
 2147 0029 00       		.byte	0
 2148 002a 00       		.byte	0
 2149 002b 04       		.uleb128 0x4
 2150 002c 24       		.uleb128 0x24
 2151 002d 00       		.byte	0
 2152 002e 0B       		.uleb128 0xb
 2153 002f 0B       		.uleb128 0xb
 2154 0030 3E       		.uleb128 0x3e
 2155 0031 0B       		.uleb128 0xb
 2156 0032 03       		.uleb128 0x3
 2157 0033 08       		.uleb128 0x8
 2158 0034 00       		.byte	0
 2159 0035 00       		.byte	0
 2160 0036 05       		.uleb128 0x5
 2161 0037 35       		.uleb128 0x35
 2162 0038 00       		.byte	0
 2163 0039 49       		.uleb128 0x49
 2164 003a 13       		.uleb128 0x13
 2165 003b 00       		.byte	0
 2166 003c 00       		.byte	0
 2167 003d 06       		.uleb128 0x6
 2168 003e 34       		.uleb128 0x34
 2169 003f 00       		.byte	0
 2170 0040 03       		.uleb128 0x3
 2171 0041 0E       		.uleb128 0xe
 2172 0042 3A       		.uleb128 0x3a
 2173 0043 0B       		.uleb128 0xb
 2174 0044 3B       		.uleb128 0x3b
 2175 0045 05       		.uleb128 0x5
 2176 0046 49       		.uleb128 0x49
 2177 0047 13       		.uleb128 0x13
 2178 0048 3F       		.uleb128 0x3f
 2179 0049 19       		.uleb128 0x19
 2180 004a 3C       		.uleb128 0x3c
 2181 004b 19       		.uleb128 0x19
 2182 004c 00       		.byte	0
 2183 004d 00       		.byte	0
 2184 004e 07       		.uleb128 0x7
 2185 004f 34       		.uleb128 0x34
 2186 0050 00       		.byte	0
 2187 0051 03       		.uleb128 0x3
 2188 0052 0E       		.uleb128 0xe
 2189 0053 3A       		.uleb128 0x3a
 2190 0054 0B       		.uleb128 0xb
 2191 0055 3B       		.uleb128 0x3b
 2192 0056 0B       		.uleb128 0xb
 2193 0057 49       		.uleb128 0x49
 2194 0058 13       		.uleb128 0x13
 2195 0059 3F       		.uleb128 0x3f
 2196 005a 19       		.uleb128 0x19
 2197 005b 3C       		.uleb128 0x3c
ARM GAS  /tmp/ccUELuRe.s 			page 43


 2198 005c 19       		.uleb128 0x19
 2199 005d 00       		.byte	0
 2200 005e 00       		.byte	0
 2201 005f 08       		.uleb128 0x8
 2202 0060 04       		.uleb128 0x4
 2203 0061 01       		.byte	0x1
 2204 0062 0B       		.uleb128 0xb
 2205 0063 0B       		.uleb128 0xb
 2206 0064 49       		.uleb128 0x49
 2207 0065 13       		.uleb128 0x13
 2208 0066 3A       		.uleb128 0x3a
 2209 0067 0B       		.uleb128 0xb
 2210 0068 3B       		.uleb128 0x3b
 2211 0069 05       		.uleb128 0x5
 2212 006a 01       		.uleb128 0x1
 2213 006b 13       		.uleb128 0x13
 2214 006c 00       		.byte	0
 2215 006d 00       		.byte	0
 2216 006e 09       		.uleb128 0x9
 2217 006f 28       		.uleb128 0x28
 2218 0070 00       		.byte	0
 2219 0071 03       		.uleb128 0x3
 2220 0072 0E       		.uleb128 0xe
 2221 0073 1C       		.uleb128 0x1c
 2222 0074 0B       		.uleb128 0xb
 2223 0075 00       		.byte	0
 2224 0076 00       		.byte	0
 2225 0077 0A       		.uleb128 0xa
 2226 0078 28       		.uleb128 0x28
 2227 0079 00       		.byte	0
 2228 007a 03       		.uleb128 0x3
 2229 007b 08       		.uleb128 0x8
 2230 007c 1C       		.uleb128 0x1c
 2231 007d 0B       		.uleb128 0xb
 2232 007e 00       		.byte	0
 2233 007f 00       		.byte	0
 2234 0080 0B       		.uleb128 0xb
 2235 0081 13       		.uleb128 0x13
 2236 0082 01       		.byte	0x1
 2237 0083 0B       		.uleb128 0xb
 2238 0084 0B       		.uleb128 0xb
 2239 0085 3A       		.uleb128 0x3a
 2240 0086 0B       		.uleb128 0xb
 2241 0087 3B       		.uleb128 0x3b
 2242 0088 05       		.uleb128 0x5
 2243 0089 01       		.uleb128 0x1
 2244 008a 13       		.uleb128 0x13
 2245 008b 00       		.byte	0
 2246 008c 00       		.byte	0
 2247 008d 0C       		.uleb128 0xc
 2248 008e 0D       		.uleb128 0xd
 2249 008f 00       		.byte	0
 2250 0090 03       		.uleb128 0x3
 2251 0091 08       		.uleb128 0x8
 2252 0092 3A       		.uleb128 0x3a
 2253 0093 0B       		.uleb128 0xb
 2254 0094 3B       		.uleb128 0x3b
ARM GAS  /tmp/ccUELuRe.s 			page 44


 2255 0095 05       		.uleb128 0x5
 2256 0096 49       		.uleb128 0x49
 2257 0097 13       		.uleb128 0x13
 2258 0098 38       		.uleb128 0x38
 2259 0099 0B       		.uleb128 0xb
 2260 009a 00       		.byte	0
 2261 009b 00       		.byte	0
 2262 009c 0D       		.uleb128 0xd
 2263 009d 0D       		.uleb128 0xd
 2264 009e 00       		.byte	0
 2265 009f 03       		.uleb128 0x3
 2266 00a0 0E       		.uleb128 0xe
 2267 00a1 3A       		.uleb128 0x3a
 2268 00a2 0B       		.uleb128 0xb
 2269 00a3 3B       		.uleb128 0x3b
 2270 00a4 05       		.uleb128 0x5
 2271 00a5 49       		.uleb128 0x49
 2272 00a6 13       		.uleb128 0x13
 2273 00a7 38       		.uleb128 0x38
 2274 00a8 0B       		.uleb128 0xb
 2275 00a9 00       		.byte	0
 2276 00aa 00       		.byte	0
 2277 00ab 0E       		.uleb128 0xe
 2278 00ac 16       		.uleb128 0x16
 2279 00ad 00       		.byte	0
 2280 00ae 03       		.uleb128 0x3
 2281 00af 0E       		.uleb128 0xe
 2282 00b0 3A       		.uleb128 0x3a
 2283 00b1 0B       		.uleb128 0xb
 2284 00b2 3B       		.uleb128 0x3b
 2285 00b3 05       		.uleb128 0x5
 2286 00b4 49       		.uleb128 0x49
 2287 00b5 13       		.uleb128 0x13
 2288 00b6 00       		.byte	0
 2289 00b7 00       		.byte	0
 2290 00b8 0F       		.uleb128 0xf
 2291 00b9 17       		.uleb128 0x17
 2292 00ba 01       		.byte	0x1
 2293 00bb 0B       		.uleb128 0xb
 2294 00bc 0B       		.uleb128 0xb
 2295 00bd 3A       		.uleb128 0x3a
 2296 00be 0B       		.uleb128 0xb
 2297 00bf 3B       		.uleb128 0x3b
 2298 00c0 0B       		.uleb128 0xb
 2299 00c1 01       		.uleb128 0x1
 2300 00c2 13       		.uleb128 0x13
 2301 00c3 00       		.byte	0
 2302 00c4 00       		.byte	0
 2303 00c5 10       		.uleb128 0x10
 2304 00c6 0D       		.uleb128 0xd
 2305 00c7 00       		.byte	0
 2306 00c8 03       		.uleb128 0x3
 2307 00c9 0E       		.uleb128 0xe
 2308 00ca 3A       		.uleb128 0x3a
 2309 00cb 0B       		.uleb128 0xb
 2310 00cc 3B       		.uleb128 0x3b
 2311 00cd 0B       		.uleb128 0xb
ARM GAS  /tmp/ccUELuRe.s 			page 45


 2312 00ce 49       		.uleb128 0x49
 2313 00cf 13       		.uleb128 0x13
 2314 00d0 00       		.byte	0
 2315 00d1 00       		.byte	0
 2316 00d2 11       		.uleb128 0x11
 2317 00d3 01       		.uleb128 0x1
 2318 00d4 01       		.byte	0x1
 2319 00d5 49       		.uleb128 0x49
 2320 00d6 13       		.uleb128 0x13
 2321 00d7 01       		.uleb128 0x1
 2322 00d8 13       		.uleb128 0x13
 2323 00d9 00       		.byte	0
 2324 00da 00       		.byte	0
 2325 00db 12       		.uleb128 0x12
 2326 00dc 21       		.uleb128 0x21
 2327 00dd 00       		.byte	0
 2328 00de 49       		.uleb128 0x49
 2329 00df 13       		.uleb128 0x13
 2330 00e0 2F       		.uleb128 0x2f
 2331 00e1 0B       		.uleb128 0xb
 2332 00e2 00       		.byte	0
 2333 00e3 00       		.byte	0
 2334 00e4 13       		.uleb128 0x13
 2335 00e5 13       		.uleb128 0x13
 2336 00e6 01       		.byte	0x1
 2337 00e7 0B       		.uleb128 0xb
 2338 00e8 0B       		.uleb128 0xb
 2339 00e9 3A       		.uleb128 0x3a
 2340 00ea 0B       		.uleb128 0xb
 2341 00eb 3B       		.uleb128 0x3b
 2342 00ec 0B       		.uleb128 0xb
 2343 00ed 01       		.uleb128 0x1
 2344 00ee 13       		.uleb128 0x13
 2345 00ef 00       		.byte	0
 2346 00f0 00       		.byte	0
 2347 00f1 14       		.uleb128 0x14
 2348 00f2 0D       		.uleb128 0xd
 2349 00f3 00       		.byte	0
 2350 00f4 03       		.uleb128 0x3
 2351 00f5 0E       		.uleb128 0xe
 2352 00f6 3A       		.uleb128 0x3a
 2353 00f7 0B       		.uleb128 0xb
 2354 00f8 3B       		.uleb128 0x3b
 2355 00f9 0B       		.uleb128 0xb
 2356 00fa 49       		.uleb128 0x49
 2357 00fb 13       		.uleb128 0x13
 2358 00fc 38       		.uleb128 0x38
 2359 00fd 0B       		.uleb128 0xb
 2360 00fe 00       		.byte	0
 2361 00ff 00       		.byte	0
 2362 0100 15       		.uleb128 0x15
 2363 0101 0F       		.uleb128 0xf
 2364 0102 00       		.byte	0
 2365 0103 0B       		.uleb128 0xb
 2366 0104 0B       		.uleb128 0xb
 2367 0105 00       		.byte	0
 2368 0106 00       		.byte	0
ARM GAS  /tmp/ccUELuRe.s 			page 46


 2369 0107 16       		.uleb128 0x16
 2370 0108 0F       		.uleb128 0xf
 2371 0109 00       		.byte	0
 2372 010a 0B       		.uleb128 0xb
 2373 010b 0B       		.uleb128 0xb
 2374 010c 49       		.uleb128 0x49
 2375 010d 13       		.uleb128 0x13
 2376 010e 00       		.byte	0
 2377 010f 00       		.byte	0
 2378 0110 17       		.uleb128 0x17
 2379 0111 26       		.uleb128 0x26
 2380 0112 00       		.byte	0
 2381 0113 49       		.uleb128 0x49
 2382 0114 13       		.uleb128 0x13
 2383 0115 00       		.byte	0
 2384 0116 00       		.byte	0
 2385 0117 18       		.uleb128 0x18
 2386 0118 13       		.uleb128 0x13
 2387 0119 01       		.byte	0x1
 2388 011a 03       		.uleb128 0x3
 2389 011b 0E       		.uleb128 0xe
 2390 011c 0B       		.uleb128 0xb
 2391 011d 0B       		.uleb128 0xb
 2392 011e 3A       		.uleb128 0x3a
 2393 011f 0B       		.uleb128 0xb
 2394 0120 3B       		.uleb128 0x3b
 2395 0121 0B       		.uleb128 0xb
 2396 0122 01       		.uleb128 0x1
 2397 0123 13       		.uleb128 0x13
 2398 0124 00       		.byte	0
 2399 0125 00       		.byte	0
 2400 0126 19       		.uleb128 0x19
 2401 0127 0D       		.uleb128 0xd
 2402 0128 00       		.byte	0
 2403 0129 03       		.uleb128 0x3
 2404 012a 08       		.uleb128 0x8
 2405 012b 3A       		.uleb128 0x3a
 2406 012c 0B       		.uleb128 0xb
 2407 012d 3B       		.uleb128 0x3b
 2408 012e 0B       		.uleb128 0xb
 2409 012f 49       		.uleb128 0x49
 2410 0130 13       		.uleb128 0x13
 2411 0131 38       		.uleb128 0x38
 2412 0132 0B       		.uleb128 0xb
 2413 0133 00       		.byte	0
 2414 0134 00       		.byte	0
 2415 0135 1A       		.uleb128 0x1a
 2416 0136 13       		.uleb128 0x13
 2417 0137 01       		.byte	0x1
 2418 0138 03       		.uleb128 0x3
 2419 0139 0E       		.uleb128 0xe
 2420 013a 0B       		.uleb128 0xb
 2421 013b 05       		.uleb128 0x5
 2422 013c 3A       		.uleb128 0x3a
 2423 013d 0B       		.uleb128 0xb
 2424 013e 3B       		.uleb128 0x3b
 2425 013f 0B       		.uleb128 0xb
ARM GAS  /tmp/ccUELuRe.s 			page 47


 2426 0140 01       		.uleb128 0x1
 2427 0141 13       		.uleb128 0x13
 2428 0142 00       		.byte	0
 2429 0143 00       		.byte	0
 2430 0144 1B       		.uleb128 0x1b
 2431 0145 0D       		.uleb128 0xd
 2432 0146 00       		.byte	0
 2433 0147 03       		.uleb128 0x3
 2434 0148 0E       		.uleb128 0xe
 2435 0149 3A       		.uleb128 0x3a
 2436 014a 0B       		.uleb128 0xb
 2437 014b 3B       		.uleb128 0x3b
 2438 014c 0B       		.uleb128 0xb
 2439 014d 49       		.uleb128 0x49
 2440 014e 13       		.uleb128 0x13
 2441 014f 38       		.uleb128 0x38
 2442 0150 05       		.uleb128 0x5
 2443 0151 00       		.byte	0
 2444 0152 00       		.byte	0
 2445 0153 1C       		.uleb128 0x1c
 2446 0154 15       		.uleb128 0x15
 2447 0155 00       		.byte	0
 2448 0156 27       		.uleb128 0x27
 2449 0157 19       		.uleb128 0x19
 2450 0158 00       		.byte	0
 2451 0159 00       		.byte	0
 2452 015a 1D       		.uleb128 0x1d
 2453 015b 15       		.uleb128 0x15
 2454 015c 01       		.byte	0x1
 2455 015d 27       		.uleb128 0x27
 2456 015e 19       		.uleb128 0x19
 2457 015f 49       		.uleb128 0x49
 2458 0160 13       		.uleb128 0x13
 2459 0161 01       		.uleb128 0x1
 2460 0162 13       		.uleb128 0x13
 2461 0163 00       		.byte	0
 2462 0164 00       		.byte	0
 2463 0165 1E       		.uleb128 0x1e
 2464 0166 05       		.uleb128 0x5
 2465 0167 00       		.byte	0
 2466 0168 49       		.uleb128 0x49
 2467 0169 13       		.uleb128 0x13
 2468 016a 00       		.byte	0
 2469 016b 00       		.byte	0
 2470 016c 1F       		.uleb128 0x1f
 2471 016d 13       		.uleb128 0x13
 2472 016e 01       		.byte	0x1
 2473 016f 03       		.uleb128 0x3
 2474 0170 0E       		.uleb128 0xe
 2475 0171 0B       		.uleb128 0xb
 2476 0172 05       		.uleb128 0x5
 2477 0173 3A       		.uleb128 0x3a
 2478 0174 0B       		.uleb128 0xb
 2479 0175 3B       		.uleb128 0x3b
 2480 0176 05       		.uleb128 0x5
 2481 0177 01       		.uleb128 0x1
 2482 0178 13       		.uleb128 0x13
ARM GAS  /tmp/ccUELuRe.s 			page 48


 2483 0179 00       		.byte	0
 2484 017a 00       		.byte	0
 2485 017b 20       		.uleb128 0x20
 2486 017c 0D       		.uleb128 0xd
 2487 017d 00       		.byte	0
 2488 017e 03       		.uleb128 0x3
 2489 017f 0E       		.uleb128 0xe
 2490 0180 3A       		.uleb128 0x3a
 2491 0181 0B       		.uleb128 0xb
 2492 0182 3B       		.uleb128 0x3b
 2493 0183 05       		.uleb128 0x5
 2494 0184 49       		.uleb128 0x49
 2495 0185 13       		.uleb128 0x13
 2496 0186 38       		.uleb128 0x38
 2497 0187 05       		.uleb128 0x5
 2498 0188 00       		.byte	0
 2499 0189 00       		.byte	0
 2500 018a 21       		.uleb128 0x21
 2501 018b 13       		.uleb128 0x13
 2502 018c 01       		.byte	0x1
 2503 018d 03       		.uleb128 0x3
 2504 018e 0E       		.uleb128 0xe
 2505 018f 0B       		.uleb128 0xb
 2506 0190 0B       		.uleb128 0xb
 2507 0191 3A       		.uleb128 0x3a
 2508 0192 0B       		.uleb128 0xb
 2509 0193 3B       		.uleb128 0x3b
 2510 0194 05       		.uleb128 0x5
 2511 0195 01       		.uleb128 0x1
 2512 0196 13       		.uleb128 0x13
 2513 0197 00       		.byte	0
 2514 0198 00       		.byte	0
 2515 0199 22       		.uleb128 0x22
 2516 019a 17       		.uleb128 0x17
 2517 019b 01       		.byte	0x1
 2518 019c 0B       		.uleb128 0xb
 2519 019d 0B       		.uleb128 0xb
 2520 019e 3A       		.uleb128 0x3a
 2521 019f 0B       		.uleb128 0xb
 2522 01a0 3B       		.uleb128 0x3b
 2523 01a1 05       		.uleb128 0x5
 2524 01a2 01       		.uleb128 0x1
 2525 01a3 13       		.uleb128 0x13
 2526 01a4 00       		.byte	0
 2527 01a5 00       		.byte	0
 2528 01a6 23       		.uleb128 0x23
 2529 01a7 0D       		.uleb128 0xd
 2530 01a8 00       		.byte	0
 2531 01a9 03       		.uleb128 0x3
 2532 01aa 0E       		.uleb128 0xe
 2533 01ab 3A       		.uleb128 0x3a
 2534 01ac 0B       		.uleb128 0xb
 2535 01ad 3B       		.uleb128 0x3b
 2536 01ae 05       		.uleb128 0x5
 2537 01af 49       		.uleb128 0x49
 2538 01b0 13       		.uleb128 0x13
 2539 01b1 00       		.byte	0
ARM GAS  /tmp/ccUELuRe.s 			page 49


 2540 01b2 00       		.byte	0
 2541 01b3 24       		.uleb128 0x24
 2542 01b4 15       		.uleb128 0x15
 2543 01b5 01       		.byte	0x1
 2544 01b6 27       		.uleb128 0x27
 2545 01b7 19       		.uleb128 0x19
 2546 01b8 01       		.uleb128 0x1
 2547 01b9 13       		.uleb128 0x13
 2548 01ba 00       		.byte	0
 2549 01bb 00       		.byte	0
 2550 01bc 25       		.uleb128 0x25
 2551 01bd 04       		.uleb128 0x4
 2552 01be 01       		.byte	0x1
 2553 01bf 03       		.uleb128 0x3
 2554 01c0 0E       		.uleb128 0xe
 2555 01c1 0B       		.uleb128 0xb
 2556 01c2 0B       		.uleb128 0xb
 2557 01c3 49       		.uleb128 0x49
 2558 01c4 13       		.uleb128 0x13
 2559 01c5 3A       		.uleb128 0x3a
 2560 01c6 0B       		.uleb128 0xb
 2561 01c7 3B       		.uleb128 0x3b
 2562 01c8 05       		.uleb128 0x5
 2563 01c9 01       		.uleb128 0x1
 2564 01ca 13       		.uleb128 0x13
 2565 01cb 00       		.byte	0
 2566 01cc 00       		.byte	0
 2567 01cd 26       		.uleb128 0x26
 2568 01ce 28       		.uleb128 0x28
 2569 01cf 00       		.byte	0
 2570 01d0 03       		.uleb128 0x3
 2571 01d1 0E       		.uleb128 0xe
 2572 01d2 1C       		.uleb128 0x1c
 2573 01d3 0D       		.uleb128 0xd
 2574 01d4 00       		.byte	0
 2575 01d5 00       		.byte	0
 2576 01d6 27       		.uleb128 0x27
 2577 01d7 21       		.uleb128 0x21
 2578 01d8 00       		.byte	0
 2579 01d9 00       		.byte	0
 2580 01da 00       		.byte	0
 2581 01db 28       		.uleb128 0x28
 2582 01dc 34       		.uleb128 0x34
 2583 01dd 00       		.byte	0
 2584 01de 03       		.uleb128 0x3
 2585 01df 0E       		.uleb128 0xe
 2586 01e0 3A       		.uleb128 0x3a
 2587 01e1 0B       		.uleb128 0xb
 2588 01e2 3B       		.uleb128 0x3b
 2589 01e3 0B       		.uleb128 0xb
 2590 01e4 49       		.uleb128 0x49
 2591 01e5 13       		.uleb128 0x13
 2592 01e6 3F       		.uleb128 0x3f
 2593 01e7 19       		.uleb128 0x19
 2594 01e8 02       		.uleb128 0x2
 2595 01e9 18       		.uleb128 0x18
 2596 01ea 00       		.byte	0
ARM GAS  /tmp/ccUELuRe.s 			page 50


 2597 01eb 00       		.byte	0
 2598 01ec 29       		.uleb128 0x29
 2599 01ed 2E       		.uleb128 0x2e
 2600 01ee 01       		.byte	0x1
 2601 01ef 3F       		.uleb128 0x3f
 2602 01f0 19       		.uleb128 0x19
 2603 01f1 03       		.uleb128 0x3
 2604 01f2 0E       		.uleb128 0xe
 2605 01f3 3A       		.uleb128 0x3a
 2606 01f4 0B       		.uleb128 0xb
 2607 01f5 3B       		.uleb128 0x3b
 2608 01f6 0B       		.uleb128 0xb
 2609 01f7 27       		.uleb128 0x27
 2610 01f8 19       		.uleb128 0x19
 2611 01f9 11       		.uleb128 0x11
 2612 01fa 01       		.uleb128 0x1
 2613 01fb 12       		.uleb128 0x12
 2614 01fc 06       		.uleb128 0x6
 2615 01fd 40       		.uleb128 0x40
 2616 01fe 18       		.uleb128 0x18
 2617 01ff 9742     		.uleb128 0x2117
 2618 0201 19       		.uleb128 0x19
 2619 0202 01       		.uleb128 0x1
 2620 0203 13       		.uleb128 0x13
 2621 0204 00       		.byte	0
 2622 0205 00       		.byte	0
 2623 0206 2A       		.uleb128 0x2a
 2624 0207 898201   		.uleb128 0x4109
 2625 020a 01       		.byte	0x1
 2626 020b 11       		.uleb128 0x11
 2627 020c 01       		.uleb128 0x1
 2628 020d 31       		.uleb128 0x31
 2629 020e 13       		.uleb128 0x13
 2630 020f 01       		.uleb128 0x1
 2631 0210 13       		.uleb128 0x13
 2632 0211 00       		.byte	0
 2633 0212 00       		.byte	0
 2634 0213 2B       		.uleb128 0x2b
 2635 0214 8A8201   		.uleb128 0x410a
 2636 0217 00       		.byte	0
 2637 0218 02       		.uleb128 0x2
 2638 0219 18       		.uleb128 0x18
 2639 021a 9142     		.uleb128 0x2111
 2640 021c 18       		.uleb128 0x18
 2641 021d 00       		.byte	0
 2642 021e 00       		.byte	0
 2643 021f 2C       		.uleb128 0x2c
 2644 0220 898201   		.uleb128 0x4109
 2645 0223 01       		.byte	0x1
 2646 0224 11       		.uleb128 0x11
 2647 0225 01       		.uleb128 0x1
 2648 0226 31       		.uleb128 0x31
 2649 0227 13       		.uleb128 0x13
 2650 0228 00       		.byte	0
 2651 0229 00       		.byte	0
 2652 022a 2D       		.uleb128 0x2d
 2653 022b 2E       		.uleb128 0x2e
ARM GAS  /tmp/ccUELuRe.s 			page 51


 2654 022c 00       		.byte	0
 2655 022d 3F       		.uleb128 0x3f
 2656 022e 19       		.uleb128 0x19
 2657 022f 03       		.uleb128 0x3
 2658 0230 0E       		.uleb128 0xe
 2659 0231 3A       		.uleb128 0x3a
 2660 0232 0B       		.uleb128 0xb
 2661 0233 3B       		.uleb128 0x3b
 2662 0234 0B       		.uleb128 0xb
 2663 0235 27       		.uleb128 0x27
 2664 0236 19       		.uleb128 0x19
 2665 0237 11       		.uleb128 0x11
 2666 0238 01       		.uleb128 0x1
 2667 0239 12       		.uleb128 0x12
 2668 023a 06       		.uleb128 0x6
 2669 023b 40       		.uleb128 0x40
 2670 023c 18       		.uleb128 0x18
 2671 023d 9742     		.uleb128 0x2117
 2672 023f 19       		.uleb128 0x19
 2673 0240 00       		.byte	0
 2674 0241 00       		.byte	0
 2675 0242 2E       		.uleb128 0x2e
 2676 0243 2E       		.uleb128 0x2e
 2677 0244 00       		.byte	0
 2678 0245 3F       		.uleb128 0x3f
 2679 0246 19       		.uleb128 0x19
 2680 0247 3C       		.uleb128 0x3c
 2681 0248 19       		.uleb128 0x19
 2682 0249 6E       		.uleb128 0x6e
 2683 024a 0E       		.uleb128 0xe
 2684 024b 03       		.uleb128 0x3
 2685 024c 0E       		.uleb128 0xe
 2686 024d 3A       		.uleb128 0x3a
 2687 024e 0B       		.uleb128 0xb
 2688 024f 3B       		.uleb128 0x3b
 2689 0250 05       		.uleb128 0x5
 2690 0251 00       		.byte	0
 2691 0252 00       		.byte	0
 2692 0253 00       		.byte	0
 2693              		.section	.debug_aranges,"",%progbits
 2694 0000 1C000000 		.4byte	0x1c
 2695 0004 0200     		.2byte	0x2
 2696 0006 00000000 		.4byte	.Ldebug_info0
 2697 000a 04       		.byte	0x4
 2698 000b 00       		.byte	0
 2699 000c 0000     		.2byte	0
 2700 000e 0000     		.2byte	0
 2701 0010 00000000 		.4byte	.Ltext0
 2702 0014 A8000000 		.4byte	.Letext0-.Ltext0
 2703 0018 00000000 		.4byte	0
 2704 001c 00000000 		.4byte	0
 2705              		.section	.debug_line,"",%progbits
 2706              	.Ldebug_line0:
 2707 0000 2C020000 		.section	.debug_str,"MS",%progbits,1
 2707      0200E501 
 2707      00000201 
 2707      FB0E0D00 
ARM GAS  /tmp/ccUELuRe.s 			page 52


 2707      01010101 
 2708              	.LASF85:
 2709 0000 5F64736F 		.ascii	"_dso_handle\000"
 2709      5F68616E 
 2709      646C6500 
 2710              	.LASF191:
 2711 000c 5243435F 		.ascii	"RCC_SYSCLKConfig\000"
 2711      53595343 
 2711      4C4B436F 
 2711      6E666967 
 2711      00
 2712              	.LASF2:
 2713 001d 73686F72 		.ascii	"short int\000"
 2713      7420696E 
 2713      7400
 2714              	.LASF186:
 2715 0027 4E4D495F 		.ascii	"NMI_Handler\000"
 2715      48616E64 
 2715      6C657200 
 2716              	.LASF27:
 2717 0033 44494552 		.ascii	"DIER\000"
 2717      00
 2718              	.LASF197:
 2719 0038 64726976 		.ascii	"drivers/nvic.c\000"
 2719      6572732F 
 2719      6E766963 
 2719      2E6300
 2720              	.LASF180:
 2721 0047 44656275 		.ascii	"DebugMon_Handler\000"
 2721      674D6F6E 
 2721      5F48616E 
 2721      646C6572 
 2721      00
 2722              	.LASF137:
 2723 0058 5F72616E 		.ascii	"_rand48\000"
 2723      64343800 
 2724              	.LASF170:
 2725 0060 5F5F6664 		.ascii	"__fdlibm_xopen\000"
 2725      6C69626D 
 2725      5F786F70 
 2725      656E00
 2726              	.LASF117:
 2727 006f 5F656D65 		.ascii	"_emergency\000"
 2727      7267656E 
 2727      637900
 2728              	.LASF3:
 2729 007a 5F5F7569 		.ascii	"__uint8_t\000"
 2729      6E74385F 
 2729      7400
 2730              	.LASF129:
 2731 0084 5F617465 		.ascii	"_atexit0\000"
 2731      78697430 
 2731      00
 2732              	.LASF57:
 2733 008d 5F6F6666 		.ascii	"_off_t\000"
 2733      5F7400
 2734              	.LASF54:
ARM GAS  /tmp/ccUELuRe.s 			page 53


 2735 0094 54494D5F 		.ascii	"TIM_TypeDef\000"
 2735      54797065 
 2735      44656600 
 2736              	.LASF157:
 2737 00a0 5F776372 		.ascii	"_wcrtomb_state\000"
 2737      746F6D62 
 2737      5F737461 
 2737      746500
 2738              	.LASF158:
 2739 00af 5F776373 		.ascii	"_wcsrtombs_state\000"
 2739      72746F6D 
 2739      62735F73 
 2739      74617465 
 2739      00
 2740              	.LASF11:
 2741 00c0 6C6F6E67 		.ascii	"long long unsigned int\000"
 2741      206C6F6E 
 2741      6720756E 
 2741      7369676E 
 2741      65642069 
 2742              	.LASF171:
 2743 00d7 5F5F6664 		.ascii	"__fdlibm_posix\000"
 2743      6C69626D 
 2743      5F706F73 
 2743      697800
 2744              	.LASF97:
 2745 00e6 5F6C6266 		.ascii	"_lbfsize\000"
 2745      73697A65 
 2745      00
 2746              	.LASF183:
 2747 00ef 42757346 		.ascii	"BusFault_Handler\000"
 2747      61756C74 
 2747      5F48616E 
 2747      646C6572 
 2747      00
 2748              	.LASF16:
 2749 0100 75696E74 		.ascii	"uint32_t\000"
 2749      33325F74 
 2749      00
 2750              	.LASF18:
 2751 0109 49544D5F 		.ascii	"ITM_RxBuffer\000"
 2751      52784275 
 2751      66666572 
 2751      00
 2752              	.LASF172:
 2753 0116 5F5F6664 		.ascii	"__fdlib_version\000"
 2753      6C69625F 
 2753      76657273 
 2753      696F6E00 
 2754              	.LASF155:
 2755 0126 5F6D6272 		.ascii	"_mbrtowc_state\000"
 2755      746F7763 
 2755      5F737461 
 2755      746500
 2756              	.LASF49:
 2757 0135 42445452 		.ascii	"BDTR\000"
 2757      00
ARM GAS  /tmp/ccUELuRe.s 			page 54


 2758              	.LASF150:
 2759 013a 5F776374 		.ascii	"_wctomb_state\000"
 2759      6F6D625F 
 2759      73746174 
 2759      6500
 2760              	.LASF74:
 2761 0148 5F5F746D 		.ascii	"__tm_sec\000"
 2761      5F736563 
 2761      00
 2762              	.LASF31:
 2763 0151 43434D52 		.ascii	"CCMR1\000"
 2763      3100
 2764              	.LASF33:
 2765 0157 43434D52 		.ascii	"CCMR2\000"
 2765      3200
 2766              	.LASF102:
 2767 015d 5F636C6F 		.ascii	"_close\000"
 2767      736500
 2768              	.LASF0:
 2769 0164 7369676E 		.ascii	"signed char\000"
 2769      65642063 
 2769      68617200 
 2770              	.LASF103:
 2771 0170 5F756275 		.ascii	"_ubuf\000"
 2771      6600
 2772              	.LASF92:
 2773 0176 5F626173 		.ascii	"_base\000"
 2773      6500
 2774              	.LASF76:
 2775 017c 5F5F746D 		.ascii	"__tm_hour\000"
 2775      5F686F75 
 2775      7200
 2776              	.LASF132:
 2777 0186 5F5F7366 		.ascii	"__sf\000"
 2777      00
 2778              	.LASF83:
 2779 018b 5F6F6E5F 		.ascii	"_on_exit_args\000"
 2779      65786974 
 2779      5F617267 
 2779      7300
 2780              	.LASF40:
 2781 0199 52455345 		.ascii	"RESERVED12\000"
 2781      52564544 
 2781      313200
 2782              	.LASF42:
 2783 01a4 52455345 		.ascii	"RESERVED13\000"
 2783      52564544 
 2783      313300
 2784              	.LASF44:
 2785 01af 52455345 		.ascii	"RESERVED14\000"
 2785      52564544 
 2785      313400
 2786              	.LASF46:
 2787 01ba 52455345 		.ascii	"RESERVED15\000"
 2787      52564544 
 2787      313500
 2788              	.LASF98:
ARM GAS  /tmp/ccUELuRe.s 			page 55


 2789 01c5 5F636F6F 		.ascii	"_cookie\000"
 2789      6B696500 
 2790              	.LASF50:
 2791 01cd 52455345 		.ascii	"RESERVED17\000"
 2791      52564544 
 2791      313700
 2792              	.LASF131:
 2793 01d8 5F5F7367 		.ascii	"__sglue\000"
 2793      6C756500 
 2794              	.LASF53:
 2795 01e0 52455345 		.ascii	"RESERVED19\000"
 2795      52564544 
 2795      313900
 2796              	.LASF7:
 2797 01eb 6C6F6E67 		.ascii	"long int\000"
 2797      20696E74 
 2797      00
 2798              	.LASF22:
 2799 01f4 454E4142 		.ascii	"ENABLE\000"
 2799      4C4500
 2800              	.LASF95:
 2801 01fb 5F666C61 		.ascii	"_flags\000"
 2801      677300
 2802              	.LASF87:
 2803 0202 5F69735F 		.ascii	"_is_cxa\000"
 2803      63786100 
 2804              	.LASF113:
 2805 020a 5F737464 		.ascii	"_stdin\000"
 2805      696E00
 2806              	.LASF169:
 2807 0211 5F5F6664 		.ascii	"__fdlibm_svid\000"
 2807      6C69626D 
 2807      5F737669 
 2807      6400
 2808              	.LASF123:
 2809 021f 5F726573 		.ascii	"_result_k\000"
 2809      756C745F 
 2809      6B00
 2810              	.LASF35:
 2811 0229 43434552 		.ascii	"CCER\000"
 2811      00
 2812              	.LASF10:
 2813 022e 6C6F6E67 		.ascii	"long long int\000"
 2813      206C6F6E 
 2813      6720696E 
 2813      7400
 2814              	.LASF14:
 2815 023c 75696E74 		.ascii	"uint16_t\000"
 2815      31365F74 
 2815      00
 2816              	.LASF173:
 2817 0245 5F737973 		.ascii	"_sys_errlist\000"
 2817      5F657272 
 2817      6C697374 
 2817      00
 2818              	.LASF127:
 2819 0252 5F637674 		.ascii	"_cvtbuf\000"
ARM GAS  /tmp/ccUELuRe.s 			page 56


 2819      62756600 
 2820              	.LASF175:
 2821 025a 74696D65 		.ascii	"timer_counter\000"
 2821      725F636F 
 2821      756E7465 
 2821      7200
 2822              	.LASF182:
 2823 0268 55736167 		.ascii	"UsageFault_Handler\000"
 2823      65466175 
 2823      6C745F48 
 2823      616E646C 
 2823      657200
 2824              	.LASF156:
 2825 027b 5F6D6273 		.ascii	"_mbsrtowcs_state\000"
 2825      72746F77 
 2825      63735F73 
 2825      74617465 
 2825      00
 2826              	.LASF154:
 2827 028c 5F6D6272 		.ascii	"_mbrlen_state\000"
 2827      6C656E5F 
 2827      73746174 
 2827      6500
 2828              	.LASF141:
 2829 029a 5F756E75 		.ascii	"_unused_rand\000"
 2829      7365645F 
 2829      72616E64 
 2829      00
 2830              	.LASF4:
 2831 02a7 5F5F7569 		.ascii	"__uint16_t\000"
 2831      6E743136 
 2831      5F7400
 2832              	.LASF90:
 2833 02b2 5F666E73 		.ascii	"_fns\000"
 2833      00
 2834              	.LASF8:
 2835 02b7 5F5F7569 		.ascii	"__uint32_t\000"
 2835      6E743332 
 2835      5F7400
 2836              	.LASF70:
 2837 02c2 5F736967 		.ascii	"_sign\000"
 2837      6E00
 2838              	.LASF163:
 2839 02c8 5F696D70 		.ascii	"_impure_ptr\000"
 2839      7572655F 
 2839      70747200 
 2840              	.LASF115:
 2841 02d4 5F737464 		.ascii	"_stderr\000"
 2841      65727200 
 2842              	.LASF72:
 2843 02dc 5F426967 		.ascii	"_Bigint\000"
 2843      696E7400 
 2844              	.LASF68:
 2845 02e4 5F6E6578 		.ascii	"_next\000"
 2845      7400
 2846              	.LASF99:
 2847 02ea 5F726561 		.ascii	"_read\000"
ARM GAS  /tmp/ccUELuRe.s 			page 57


 2847      6400
 2848              	.LASF73:
 2849 02f0 5F5F746D 		.ascii	"__tm\000"
 2849      00
 2850              	.LASF184:
 2851 02f5 4D656D4D 		.ascii	"MemManage_Handler\000"
 2851      616E6167 
 2851      655F4861 
 2851      6E646C65 
 2851      7200
 2852              	.LASF21:
 2853 0307 44495341 		.ascii	"DISABLE\000"
 2853      424C4500 
 2854              	.LASF61:
 2855 030f 5F5F7763 		.ascii	"__wchb\000"
 2855      686200
 2856              	.LASF19:
 2857 0316 53797374 		.ascii	"SystemCoreClock\000"
 2857      656D436F 
 2857      7265436C 
 2857      6F636B00 
 2858              	.LASF126:
 2859 0326 5F637674 		.ascii	"_cvtlen\000"
 2859      6C656E00 
 2860              	.LASF9:
 2861 032e 6C6F6E67 		.ascii	"long unsigned int\000"
 2861      20756E73 
 2861      69676E65 
 2861      6420696E 
 2861      7400
 2862              	.LASF96:
 2863 0340 5F66696C 		.ascii	"_file\000"
 2863      6500
 2864              	.LASF107:
 2865 0346 5F646174 		.ascii	"_data\000"
 2865      6100
 2866              	.LASF135:
 2867 034c 5F6E696F 		.ascii	"_niobs\000"
 2867      627300
 2868              	.LASF146:
 2869 0353 5F72616E 		.ascii	"_rand_next\000"
 2869      645F6E65 
 2869      787400
 2870              	.LASF152:
 2871 035e 5F736967 		.ascii	"_signal_buf\000"
 2871      6E616C5F 
 2871      62756600 
 2872              	.LASF143:
 2873 036a 5F617363 		.ascii	"_asctime_buf\000"
 2873      74696D65 
 2873      5F627566 
 2873      00
 2874              	.LASF122:
 2875 0377 5F726573 		.ascii	"_result\000"
 2875      756C7400 
 2876              	.LASF60:
 2877 037f 5F5F7763 		.ascii	"__wch\000"
ARM GAS  /tmp/ccUELuRe.s 			page 58


 2877      6800
 2878              	.LASF160:
 2879 0385 5F6E6578 		.ascii	"_nextf\000"
 2879      746600
 2880              	.LASF185:
 2881 038c 48617264 		.ascii	"HardFault_Handler\000"
 2881      4661756C 
 2881      745F4861 
 2881      6E646C65 
 2881      7200
 2882              	.LASF128:
 2883 039e 5F6E6577 		.ascii	"_new\000"
 2883      00
 2884              	.LASF108:
 2885 03a3 5F6C6F63 		.ascii	"_lock\000"
 2885      6B00
 2886              	.LASF165:
 2887 03a9 7375626F 		.ascii	"suboptarg\000"
 2887      70746172 
 2887      6700
 2888              	.LASF139:
 2889 03b3 5F6D756C 		.ascii	"_mult\000"
 2889      7400
 2890              	.LASF100:
 2891 03b9 5F777269 		.ascii	"_write\000"
 2891      746500
 2892              	.LASF20:
 2893 03c0 52455345 		.ascii	"RESET\000"
 2893      5400
 2894              	.LASF62:
 2895 03c6 5F5F636F 		.ascii	"__count\000"
 2895      756E7400 
 2896              	.LASF161:
 2897 03ce 5F6E6D61 		.ascii	"_nmalloc\000"
 2897      6C6C6F63 
 2897      00
 2898              	.LASF56:
 2899 03d7 5F4C4F43 		.ascii	"_LOCK_RECURSIVE_T\000"
 2899      4B5F5245 
 2899      43555253 
 2899      4956455F 
 2899      5400
 2900              	.LASF17:
 2901 03e9 73697A65 		.ascii	"sizetype\000"
 2901      74797065 
 2901      00
 2902              	.LASF106:
 2903 03f2 5F6F6666 		.ascii	"_offset\000"
 2903      73657400 
 2904              	.LASF71:
 2905 03fa 5F776473 		.ascii	"_wds\000"
 2905      00
 2906              	.LASF39:
 2907 03ff 52455345 		.ascii	"RESERVED11\000"
 2907      52564544 
 2907      313100
 2908              	.LASF147:
ARM GAS  /tmp/ccUELuRe.s 			page 59


 2909 040a 5F723438 		.ascii	"_r48\000"
 2909      00
 2910              	.LASF84:
 2911 040f 5F666E61 		.ascii	"_fnargs\000"
 2911      72677300 
 2912              	.LASF78:
 2913 0417 5F5F746D 		.ascii	"__tm_mon\000"
 2913      5F6D6F6E 
 2913      00
 2914              	.LASF88:
 2915 0420 5F617465 		.ascii	"_atexit\000"
 2915      78697400 
 2916              	.LASF192:
 2917 0428 54494D5F 		.ascii	"TIM_GetITStatus\000"
 2917      47657449 
 2917      54537461 
 2917      74757300 
 2918              	.LASF120:
 2919 0438 5F5F7364 		.ascii	"__sdidinit\000"
 2919      6964696E 
 2919      697400
 2920              	.LASF145:
 2921 0443 5F67616D 		.ascii	"_gamma_signgam\000"
 2921      6D615F73 
 2921      69676E67 
 2921      616D00
 2922              	.LASF59:
 2923 0452 77696E74 		.ascii	"wint_t\000"
 2923      5F7400
 2924              	.LASF167:
 2925 0459 666C6F61 		.ascii	"float\000"
 2925      7400
 2926              	.LASF125:
 2927 045f 5F667265 		.ascii	"_freelist\000"
 2927      656C6973 
 2927      7400
 2928              	.LASF23:
 2929 0469 52455345 		.ascii	"RESERVED0\000"
 2929      52564544 
 2929      3000
 2930              	.LASF24:
 2931 0473 52455345 		.ascii	"RESERVED1\000"
 2931      52564544 
 2931      3100
 2932              	.LASF26:
 2933 047d 52455345 		.ascii	"RESERVED2\000"
 2933      52564544 
 2933      3200
 2934              	.LASF28:
 2935 0487 52455345 		.ascii	"RESERVED3\000"
 2935      52564544 
 2935      3300
 2936              	.LASF29:
 2937 0491 52455345 		.ascii	"RESERVED4\000"
 2937      52564544 
 2937      3400
 2938              	.LASF30:
ARM GAS  /tmp/ccUELuRe.s 			page 60


 2939 049b 52455345 		.ascii	"RESERVED5\000"
 2939      52564544 
 2939      3500
 2940              	.LASF32:
 2941 04a5 52455345 		.ascii	"RESERVED6\000"
 2941      52564544 
 2941      3600
 2942              	.LASF36:
 2943 04af 52455345 		.ascii	"RESERVED8\000"
 2943      52564544 
 2943      3800
 2944              	.LASF37:
 2945 04b9 52455345 		.ascii	"RESERVED9\000"
 2945      52564544 
 2945      3900
 2946              	.LASF194:
 2947 04c3 5243435F 		.ascii	"RCC_HSEConfig\000"
 2947      48534543 
 2947      6F6E6669 
 2947      6700
 2948              	.LASF15:
 2949 04d1 696E7433 		.ascii	"int32_t\000"
 2949      325F7400 
 2950              	.LASF1:
 2951 04d9 756E7369 		.ascii	"unsigned char\000"
 2951      676E6564 
 2951      20636861 
 2951      7200
 2952              	.LASF198:
 2953 04e7 2F686F6D 		.ascii	"/home/faker/Documents/code/STM/stm32-quadrocopter\000"
 2953      652F6661 
 2953      6B65722F 
 2953      446F6375 
 2953      6D656E74 
 2954              	.LASF159:
 2955 0519 5F685F65 		.ascii	"_h_errno\000"
 2955      72726E6F 
 2955      00
 2956              	.LASF176:
 2957 0522 5243435F 		.ascii	"RCC_IRQHandler\000"
 2957      49525148 
 2957      616E646C 
 2957      657200
 2958              	.LASF81:
 2959 0531 5F5F746D 		.ascii	"__tm_yday\000"
 2959      5F796461 
 2959      7900
 2960              	.LASF91:
 2961 053b 5F5F7362 		.ascii	"__sbuf\000"
 2961      756600
 2962              	.LASF110:
 2963 0542 5F666C61 		.ascii	"_flags2\000"
 2963      67733200 
 2964              	.LASF136:
 2965 054a 5F696F62 		.ascii	"_iobs\000"
 2965      7300
 2966              	.LASF133:
ARM GAS  /tmp/ccUELuRe.s 			page 61


 2967 0550 5F5F4649 		.ascii	"__FILE\000"
 2967      4C4500
 2968              	.LASF64:
 2969 0557 5F6D6273 		.ascii	"_mbstate_t\000"
 2969      74617465 
 2969      5F7400
 2970              	.LASF94:
 2971 0562 5F5F7346 		.ascii	"__sFILE\000"
 2971      494C4500 
 2972              	.LASF174:
 2973 056a 5F737973 		.ascii	"_sys_nerr\000"
 2973      5F6E6572 
 2973      7200
 2974              	.LASF109:
 2975 0574 5F6D6273 		.ascii	"_mbstate\000"
 2975      74617465 
 2975      00
 2976              	.LASF148:
 2977 057d 5F6D626C 		.ascii	"_mblen_state\000"
 2977      656E5F73 
 2977      74617465 
 2977      00
 2978              	.LASF116:
 2979 058a 5F696E63 		.ascii	"_inc\000"
 2979      00
 2980              	.LASF89:
 2981 058f 5F696E64 		.ascii	"_ind\000"
 2981      00
 2982              	.LASF119:
 2983 0594 5F637572 		.ascii	"_current_locale\000"
 2983      72656E74 
 2983      5F6C6F63 
 2983      616C6500 
 2984              	.LASF181:
 2985 05a4 5356435F 		.ascii	"SVC_Handler\000"
 2985      48616E64 
 2985      6C657200 
 2986              	.LASF190:
 2987 05b0 5243435F 		.ascii	"RCC_PLLCmd\000"
 2987      504C4C43 
 2987      6D6400
 2988              	.LASF121:
 2989 05bb 5F5F636C 		.ascii	"__cleanup\000"
 2989      65616E75 
 2989      7000
 2990              	.LASF69:
 2991 05c5 5F6D6178 		.ascii	"_maxwds\000"
 2991      77647300 
 2992              	.LASF111:
 2993 05cd 5F726565 		.ascii	"_reent\000"
 2993      6E7400
 2994              	.LASF138:
 2995 05d4 5F736565 		.ascii	"_seed\000"
 2995      6400
 2996              	.LASF188:
 2997 05da 5243435F 		.ascii	"RCC_ClearITPendingBit\000"
 2997      436C6561 
ARM GAS  /tmp/ccUELuRe.s 			page 62


 2997      72495450 
 2997      656E6469 
 2997      6E674269 
 2998              	.LASF63:
 2999 05f0 5F5F7661 		.ascii	"__value\000"
 2999      6C756500 
 3000              	.LASF34:
 3001 05f8 52455345 		.ascii	"RESERVED7\000"
 3001      52564544 
 3001      3700
 3002              	.LASF101:
 3003 0602 5F736565 		.ascii	"_seek\000"
 3003      6B00
 3004              	.LASF178:
 3005 0608 53797354 		.ascii	"SysTick_Handler\000"
 3005      69636B5F 
 3005      48616E64 
 3005      6C657200 
 3006              	.LASF80:
 3007 0618 5F5F746D 		.ascii	"__tm_wday\000"
 3007      5F776461 
 3007      7900
 3008              	.LASF58:
 3009 0622 5F66706F 		.ascii	"_fpos_t\000"
 3009      735F7400 
 3010              	.LASF55:
 3011 062a 6C6F6E67 		.ascii	"long double\000"
 3011      20646F75 
 3011      626C6500 
 3012              	.LASF79:
 3013 0636 5F5F746D 		.ascii	"__tm_year\000"
 3013      5F796561 
 3013      7200
 3014              	.LASF112:
 3015 0640 5F657272 		.ascii	"_errno\000"
 3015      6E6F00
 3016              	.LASF66:
 3017 0647 63686172 		.ascii	"char\000"
 3017      00
 3018              	.LASF105:
 3019 064c 5F626C6B 		.ascii	"_blksize\000"
 3019      73697A65 
 3019      00
 3020              	.LASF25:
 3021 0655 534D4352 		.ascii	"SMCR\000"
 3021      00
 3022              	.LASF93:
 3023 065a 5F73697A 		.ascii	"_size\000"
 3023      6500
 3024              	.LASF12:
 3025 0660 756E7369 		.ascii	"unsigned int\000"
 3025      676E6564 
 3025      20696E74 
 3025      00
 3026              	.LASF52:
 3027 066d 444D4152 		.ascii	"DMAR\000"
 3027      00
ARM GAS  /tmp/ccUELuRe.s 			page 63


 3028              	.LASF193:
 3029 0672 54494D5F 		.ascii	"TIM_ClearITPendingBit\000"
 3029      436C6561 
 3029      72495450 
 3029      656E6469 
 3029      6E674269 
 3030              	.LASF6:
 3031 0688 5F5F696E 		.ascii	"__int32_t\000"
 3031      7433325F 
 3031      7400
 3032              	.LASF187:
 3033 0692 5243435F 		.ascii	"RCC_GetITStatus\000"
 3033      47657449 
 3033      54537461 
 3033      74757300 
 3034              	.LASF142:
 3035 06a2 5F737472 		.ascii	"_strtok_last\000"
 3035      746F6B5F 
 3035      6C617374 
 3035      00
 3036              	.LASF86:
 3037 06af 5F666E74 		.ascii	"_fntypes\000"
 3037      79706573 
 3037      00
 3038              	.LASF189:
 3039 06b8 5243435F 		.ascii	"RCC_GetFlagStatus\000"
 3039      47657446 
 3039      6C616753 
 3039      74617475 
 3039      7300
 3040              	.LASF5:
 3041 06ca 73686F72 		.ascii	"short unsigned int\000"
 3041      7420756E 
 3041      7369676E 
 3041      65642069 
 3041      6E7400
 3042              	.LASF140:
 3043 06dd 5F616464 		.ascii	"_add\000"
 3043      00
 3044              	.LASF67:
 3045 06e2 5F5F554C 		.ascii	"__ULong\000"
 3045      6F6E6700 
 3046              	.LASF153:
 3047 06ea 5F676574 		.ascii	"_getdate_err\000"
 3047      64617465 
 3047      5F657272 
 3047      00
 3048              	.LASF199:
 3049 06f7 5F5F6664 		.ascii	"__fdlibm_version\000"
 3049      6C69626D 
 3049      5F766572 
 3049      73696F6E 
 3049      00
 3050              	.LASF38:
 3051 0708 52455345 		.ascii	"RESERVED10\000"
 3051      52564544 
 3051      313000
ARM GAS  /tmp/ccUELuRe.s 			page 64


 3052              	.LASF164:
 3053 0713 5F676C6F 		.ascii	"_global_impure_ptr\000"
 3053      62616C5F 
 3053      696D7075 
 3053      72655F70 
 3053      747200
 3054              	.LASF118:
 3055 0726 5F637572 		.ascii	"_current_category\000"
 3055      72656E74 
 3055      5F636174 
 3055      65676F72 
 3055      7900
 3056              	.LASF168:
 3057 0738 5F5F6664 		.ascii	"__fdlibm_ieee\000"
 3057      6C69626D 
 3057      5F696565 
 3057      6500
 3058              	.LASF41:
 3059 0746 43435231 		.ascii	"CCR1\000"
 3059      00
 3060              	.LASF43:
 3061 074b 43435232 		.ascii	"CCR2\000"
 3061      00
 3062              	.LASF45:
 3063 0750 43435233 		.ascii	"CCR3\000"
 3063      00
 3064              	.LASF47:
 3065 0755 43435234 		.ascii	"CCR4\000"
 3065      00
 3066              	.LASF48:
 3067 075a 52455345 		.ascii	"RESERVED16\000"
 3067      52564544 
 3067      313600
 3068              	.LASF51:
 3069 0765 52455345 		.ascii	"RESERVED18\000"
 3069      52564544 
 3069      313800
 3070              	.LASF114:
 3071 0770 5F737464 		.ascii	"_stdout\000"
 3071      6F757400 
 3072              	.LASF134:
 3073 0778 5F676C75 		.ascii	"_glue\000"
 3073      6500
 3074              	.LASF195:
 3075 077e 5243435F 		.ascii	"RCC_ITConfig\000"
 3075      4954436F 
 3075      6E666967 
 3075      00
 3076              	.LASF13:
 3077 078b 75696E74 		.ascii	"uint8_t\000"
 3077      385F7400 
 3078              	.LASF151:
 3079 0793 5F6C3634 		.ascii	"_l64a_buf\000"
 3079      615F6275 
 3079      6600
 3080              	.LASF130:
 3081 079d 5F736967 		.ascii	"_sig_func\000"
ARM GAS  /tmp/ccUELuRe.s 			page 65


 3081      5F66756E 
 3081      6300
 3082              	.LASF65:
 3083 07a7 5F666C6F 		.ascii	"_flock_t\000"
 3083      636B5F74 
 3083      00
 3084              	.LASF104:
 3085 07b0 5F6E6275 		.ascii	"_nbuf\000"
 3085      6600
 3086              	.LASF162:
 3087 07b6 5F756E75 		.ascii	"_unused\000"
 3087      73656400 
 3088              	.LASF82:
 3089 07be 5F5F746D 		.ascii	"__tm_isdst\000"
 3089      5F697364 
 3089      737400
 3090              	.LASF144:
 3091 07c9 5F6C6F63 		.ascii	"_localtime_buf\000"
 3091      616C7469 
 3091      6D655F62 
 3091      756600
 3092              	.LASF75:
 3093 07d8 5F5F746D 		.ascii	"__tm_min\000"
 3093      5F6D696E 
 3093      00
 3094              	.LASF196:
 3095 07e1 474E5520 		.ascii	"GNU C11 6.1.1 20160526 -mcpu=cortex-m3 -mthumb -g -"
 3095      43313120 
 3095      362E312E 
 3095      31203230 
 3095      31363035 
 3096 0814 4F31202D 		.ascii	"O1 -fno-common\000"
 3096      666E6F2D 
 3096      636F6D6D 
 3096      6F6E00
 3097              	.LASF149:
 3098 0823 5F6D6274 		.ascii	"_mbtowc_state\000"
 3098      6F77635F 
 3098      73746174 
 3098      6500
 3099              	.LASF179:
 3100 0831 50656E64 		.ascii	"PendSV_Handler\000"
 3100      53565F48 
 3100      616E646C 
 3100      657200
 3101              	.LASF124:
 3102 0840 5F703573 		.ascii	"_p5s\000"
 3102      00
 3103              	.LASF166:
 3104 0845 646F7562 		.ascii	"double\000"
 3104      6C6500
 3105              	.LASF177:
 3106 084c 54494D32 		.ascii	"TIM2_IRQHandler\000"
 3106      5F495251 
 3106      48616E64 
 3106      6C657200 
 3107              	.LASF77:
ARM GAS  /tmp/ccUELuRe.s 			page 66


 3108 085c 5F5F746D 		.ascii	"__tm_mday\000"
 3108      5F6D6461 
 3108      7900
 3109              		.ident	"GCC: (Arch Repository) 6.1.1 20160526"
ARM GAS  /tmp/ccUELuRe.s 			page 67


DEFINED SYMBOLS
                            *ABS*:0000000000000000 nvic.c
     /tmp/ccUELuRe.s:15     .text:0000000000000000 $t
     /tmp/ccUELuRe.s:22     .text:0000000000000000 NMI_Handler
     /tmp/ccUELuRe.s:71     .text:000000000000002c HardFault_Handler
     /tmp/ccUELuRe.s:91     .text:000000000000002e MemManage_Handler
     /tmp/ccUELuRe.s:111    .text:0000000000000030 BusFault_Handler
     /tmp/ccUELuRe.s:131    .text:0000000000000032 UsageFault_Handler
     /tmp/ccUELuRe.s:151    .text:0000000000000034 SVC_Handler
     /tmp/ccUELuRe.s:169    .text:0000000000000036 DebugMon_Handler
     /tmp/ccUELuRe.s:187    .text:0000000000000038 PendSV_Handler
     /tmp/ccUELuRe.s:205    .text:000000000000003a SysTick_Handler
     /tmp/ccUELuRe.s:223    .text:000000000000003c TIM2_IRQHandler
     /tmp/ccUELuRe.s:258    .text:0000000000000060 $d
     /tmp/ccUELuRe.s:262    .text:0000000000000064 $t
     /tmp/ccUELuRe.s:269    .text:0000000000000064 RCC_IRQHandler
     /tmp/ccUELuRe.s:334    .bss:0000000000000000 timer_counter
     /tmp/ccUELuRe.s:330    .bss:0000000000000000 $d
                     .debug_frame:0000000000000010 $d

UNDEFINED SYMBOLS
RCC_GetITStatus
RCC_HSEConfig
RCC_ITConfig
RCC_ClearITPendingBit
TIM_GetITStatus
TIM_ClearITPendingBit
RCC_GetFlagStatus
RCC_PLLCmd
RCC_SYSCLKConfig
