ARM GAS  /tmp/cc1YujwN.s 			page 1


   1              		.cpu cortex-m3
   2              		.eabi_attribute 20, 1
   3              		.eabi_attribute 21, 1
   4              		.eabi_attribute 23, 3
   5              		.eabi_attribute 24, 1
   6              		.eabi_attribute 25, 1
   7              		.eabi_attribute 26, 1
   8              		.eabi_attribute 30, 1
   9              		.eabi_attribute 34, 1
  10              		.eabi_attribute 18, 4
  11              		.file	"nvic.c"
  12              		.text
  13              	.Ltext0:
  14              		.cfi_sections	.debug_frame
  15              		.align	1
  16              		.global	NMI_Handler
  17              		.syntax unified
  18              		.thumb
  19              		.thumb_func
  20              		.fpu softvfp
  21              		.type	NMI_Handler, %function
  22              	NMI_Handler:
  23              	.LFB64:
  24              		.file 1 "drivers/nvic.c"
   1:drivers/nvic.c **** /* Includes ------------------------------------------------------------------*/
   2:drivers/nvic.c **** #include "nvic.h"
   3:drivers/nvic.c **** 
   4:drivers/nvic.c **** uint16_t timer_counter;
   5:drivers/nvic.c **** 
   6:drivers/nvic.c **** void NMI_Handler(void)
   7:drivers/nvic.c **** {
  25              		.loc 1 7 0
  26              		.cfi_startproc
  27              		@ args = 0, pretend = 0, frame = 0
  28              		@ frame_needed = 0, uses_anonymous_args = 0
  29 0000 08B5     		push	{r3, lr}
  30              		.cfi_def_cfa_offset 8
  31              		.cfi_offset 3, -8
  32              		.cfi_offset 14, -4
   8:drivers/nvic.c ****   /* This interrupt is generated when HSE clock fails */
   9:drivers/nvic.c **** 
  10:drivers/nvic.c ****   if (RCC_GetITStatus(RCC_IT_CSS) != RESET)
  33              		.loc 1 10 0
  34 0002 8020     		movs	r0, #128
  35 0004 FFF7FEFF 		bl	RCC_GetITStatus
  36              	.LVL0:
  37 0008 00B9     		cbnz	r0, .L4
  38              	.L1:
  39 000a 08BD     		pop	{r3, pc}
  40              	.L4:
  11:drivers/nvic.c ****   {/* At this stage: HSE, PLL are disabled (but no change on PLL config) and HSI
  12:drivers/nvic.c ****        is selected as system clock source */
  13:drivers/nvic.c **** 
  14:drivers/nvic.c ****     /* Enable HSE */
  15:drivers/nvic.c ****     RCC_HSEConfig(RCC_HSE_ON);
  41              		.loc 1 15 0
  42 000c 4FF48030 		mov	r0, #65536
ARM GAS  /tmp/cc1YujwN.s 			page 2


  43 0010 FFF7FEFF 		bl	RCC_HSEConfig
  44              	.LVL1:
  16:drivers/nvic.c **** 
  17:drivers/nvic.c ****     /* Enable HSE Ready interrupt */
  18:drivers/nvic.c ****     RCC_ITConfig(RCC_IT_HSERDY, ENABLE);
  45              		.loc 1 18 0
  46 0014 0121     		movs	r1, #1
  47 0016 0820     		movs	r0, #8
  48 0018 FFF7FEFF 		bl	RCC_ITConfig
  49              	.LVL2:
  19:drivers/nvic.c **** 
  20:drivers/nvic.c **** #ifndef SYSCLK_HSE
  21:drivers/nvic.c ****  #ifdef STM32F10X_CL
  22:drivers/nvic.c ****     /* Enable PLL and PLL2 Ready interrupts */
  23:drivers/nvic.c ****     RCC_ITConfig(RCC_IT_PLLRDY | RCC_IT_PLL2RDY, ENABLE);
  24:drivers/nvic.c ****  #else
  25:drivers/nvic.c ****     /* Enable PLL Ready interrupt */
  26:drivers/nvic.c ****     RCC_ITConfig(RCC_IT_PLLRDY, ENABLE);
  50              		.loc 1 26 0
  51 001c 0121     		movs	r1, #1
  52 001e 1020     		movs	r0, #16
  53 0020 FFF7FEFF 		bl	RCC_ITConfig
  54              	.LVL3:
  27:drivers/nvic.c ****  #endif	/* STM32F10X_CL */
  28:drivers/nvic.c **** #endif /* SYSCLK_HSE */
  29:drivers/nvic.c **** 
  30:drivers/nvic.c ****     /* Clear Clock Security System interrupt pending bit */
  31:drivers/nvic.c ****     RCC_ClearITPendingBit(RCC_IT_CSS);
  55              		.loc 1 31 0
  56 0024 8020     		movs	r0, #128
  57 0026 FFF7FEFF 		bl	RCC_ClearITPendingBit
  58              	.LVL4:
  32:drivers/nvic.c **** 
  33:drivers/nvic.c ****     /* Once HSE clock recover, the HSERDY interrupt is generated and in the RCC ISR
  34:drivers/nvic.c ****        routine the system clock will be reconfigured to its previous state (before
  35:drivers/nvic.c ****        HSE clock failure) */
  36:drivers/nvic.c ****   }
  37:drivers/nvic.c **** }
  59              		.loc 1 37 0
  60 002a EEE7     		b	.L1
  61              		.cfi_endproc
  62              	.LFE64:
  63              		.size	NMI_Handler, .-NMI_Handler
  64              		.align	1
  65              		.global	HardFault_Handler
  66              		.syntax unified
  67              		.thumb
  68              		.thumb_func
  69              		.fpu softvfp
  70              		.type	HardFault_Handler, %function
  71              	HardFault_Handler:
  72              	.LFB65:
  38:drivers/nvic.c **** 
  39:drivers/nvic.c **** /**
  40:drivers/nvic.c ****   * @brief  This function handles Hard Fault exception.
  41:drivers/nvic.c ****   * @param  None
  42:drivers/nvic.c ****   * @retval None
ARM GAS  /tmp/cc1YujwN.s 			page 3


  43:drivers/nvic.c ****   */
  44:drivers/nvic.c **** void HardFault_Handler(void)
  45:drivers/nvic.c **** {
  73              		.loc 1 45 0
  74              		.cfi_startproc
  75              		@ Volatile: function does not return.
  76              		@ args = 0, pretend = 0, frame = 0
  77              		@ frame_needed = 0, uses_anonymous_args = 0
  78              		@ link register save eliminated.
  79              	.L6:
  80 002c FEE7     		b	.L6
  81              		.cfi_endproc
  82              	.LFE65:
  83              		.size	HardFault_Handler, .-HardFault_Handler
  84              		.align	1
  85              		.global	MemManage_Handler
  86              		.syntax unified
  87              		.thumb
  88              		.thumb_func
  89              		.fpu softvfp
  90              		.type	MemManage_Handler, %function
  91              	MemManage_Handler:
  92              	.LFB66:
  46:drivers/nvic.c ****   /* Go to infinite loop when Hard Fault exception occurs */
  47:drivers/nvic.c ****   while (1)
  48:drivers/nvic.c ****   {
  49:drivers/nvic.c ****   }
  50:drivers/nvic.c **** }
  51:drivers/nvic.c **** 
  52:drivers/nvic.c **** /**
  53:drivers/nvic.c ****   * @brief  This function handles Memory Manage exception.
  54:drivers/nvic.c ****   * @param  None
  55:drivers/nvic.c ****   * @retval None
  56:drivers/nvic.c ****   */
  57:drivers/nvic.c **** void MemManage_Handler(void)
  58:drivers/nvic.c **** {
  93              		.loc 1 58 0
  94              		.cfi_startproc
  95              		@ Volatile: function does not return.
  96              		@ args = 0, pretend = 0, frame = 0
  97              		@ frame_needed = 0, uses_anonymous_args = 0
  98              		@ link register save eliminated.
  99              	.L8:
 100 002e FEE7     		b	.L8
 101              		.cfi_endproc
 102              	.LFE66:
 103              		.size	MemManage_Handler, .-MemManage_Handler
 104              		.align	1
 105              		.global	BusFault_Handler
 106              		.syntax unified
 107              		.thumb
 108              		.thumb_func
 109              		.fpu softvfp
 110              		.type	BusFault_Handler, %function
 111              	BusFault_Handler:
 112              	.LFB67:
  59:drivers/nvic.c ****   /* Go to infinite loop when Memory Manage exception occurs */
ARM GAS  /tmp/cc1YujwN.s 			page 4


  60:drivers/nvic.c ****   while (1)
  61:drivers/nvic.c ****   {
  62:drivers/nvic.c ****   }
  63:drivers/nvic.c **** }
  64:drivers/nvic.c **** 
  65:drivers/nvic.c **** /**
  66:drivers/nvic.c ****   * @brief  This function handles Bus Fault exception.
  67:drivers/nvic.c ****   * @param  None
  68:drivers/nvic.c ****   * @retval None
  69:drivers/nvic.c ****   */
  70:drivers/nvic.c **** void BusFault_Handler(void)
  71:drivers/nvic.c **** {
 113              		.loc 1 71 0
 114              		.cfi_startproc
 115              		@ Volatile: function does not return.
 116              		@ args = 0, pretend = 0, frame = 0
 117              		@ frame_needed = 0, uses_anonymous_args = 0
 118              		@ link register save eliminated.
 119              	.L10:
 120 0030 FEE7     		b	.L10
 121              		.cfi_endproc
 122              	.LFE67:
 123              		.size	BusFault_Handler, .-BusFault_Handler
 124              		.align	1
 125              		.global	UsageFault_Handler
 126              		.syntax unified
 127              		.thumb
 128              		.thumb_func
 129              		.fpu softvfp
 130              		.type	UsageFault_Handler, %function
 131              	UsageFault_Handler:
 132              	.LFB68:
  72:drivers/nvic.c ****   /* Go to infinite loop when Bus Fault exception occurs */
  73:drivers/nvic.c ****   while (1)
  74:drivers/nvic.c ****   {
  75:drivers/nvic.c ****   }
  76:drivers/nvic.c **** }
  77:drivers/nvic.c **** 
  78:drivers/nvic.c **** /**
  79:drivers/nvic.c ****   * @brief  This function handles Usage Fault exception.
  80:drivers/nvic.c ****   * @param  None
  81:drivers/nvic.c ****   * @retval None
  82:drivers/nvic.c ****   */
  83:drivers/nvic.c **** void UsageFault_Handler(void)
  84:drivers/nvic.c **** {
 133              		.loc 1 84 0
 134              		.cfi_startproc
 135              		@ Volatile: function does not return.
 136              		@ args = 0, pretend = 0, frame = 0
 137              		@ frame_needed = 0, uses_anonymous_args = 0
 138              		@ link register save eliminated.
 139              	.L12:
 140 0032 FEE7     		b	.L12
 141              		.cfi_endproc
 142              	.LFE68:
 143              		.size	UsageFault_Handler, .-UsageFault_Handler
 144              		.align	1
ARM GAS  /tmp/cc1YujwN.s 			page 5


 145              		.global	SVC_Handler
 146              		.syntax unified
 147              		.thumb
 148              		.thumb_func
 149              		.fpu softvfp
 150              		.type	SVC_Handler, %function
 151              	SVC_Handler:
 152              	.LFB69:
  85:drivers/nvic.c ****   /* Go to infinite loop when Usage Fault exception occurs */
  86:drivers/nvic.c ****   while (1)
  87:drivers/nvic.c ****   {
  88:drivers/nvic.c ****   }
  89:drivers/nvic.c **** }
  90:drivers/nvic.c **** 
  91:drivers/nvic.c **** /**
  92:drivers/nvic.c ****   * @brief  This function handles SVCall exception.
  93:drivers/nvic.c ****   * @param  None
  94:drivers/nvic.c ****   * @retval None
  95:drivers/nvic.c ****   */
  96:drivers/nvic.c **** void SVC_Handler(void)
  97:drivers/nvic.c **** {
 153              		.loc 1 97 0
 154              		.cfi_startproc
 155              		@ args = 0, pretend = 0, frame = 0
 156              		@ frame_needed = 0, uses_anonymous_args = 0
 157              		@ link register save eliminated.
 158 0034 7047     		bx	lr
 159              		.cfi_endproc
 160              	.LFE69:
 161              		.size	SVC_Handler, .-SVC_Handler
 162              		.align	1
 163              		.global	DebugMon_Handler
 164              		.syntax unified
 165              		.thumb
 166              		.thumb_func
 167              		.fpu softvfp
 168              		.type	DebugMon_Handler, %function
 169              	DebugMon_Handler:
 170              	.LFB70:
  98:drivers/nvic.c **** }
  99:drivers/nvic.c **** 
 100:drivers/nvic.c **** /**
 101:drivers/nvic.c ****   * @brief  This function handles Debug Monitor exception.
 102:drivers/nvic.c ****   * @param  None
 103:drivers/nvic.c ****   * @retval None
 104:drivers/nvic.c ****   */
 105:drivers/nvic.c **** void DebugMon_Handler(void)
 106:drivers/nvic.c **** {
 171              		.loc 1 106 0
 172              		.cfi_startproc
 173              		@ args = 0, pretend = 0, frame = 0
 174              		@ frame_needed = 0, uses_anonymous_args = 0
 175              		@ link register save eliminated.
 176 0036 7047     		bx	lr
 177              		.cfi_endproc
 178              	.LFE70:
 179              		.size	DebugMon_Handler, .-DebugMon_Handler
ARM GAS  /tmp/cc1YujwN.s 			page 6


 180              		.align	1
 181              		.global	PendSV_Handler
 182              		.syntax unified
 183              		.thumb
 184              		.thumb_func
 185              		.fpu softvfp
 186              		.type	PendSV_Handler, %function
 187              	PendSV_Handler:
 188              	.LFB71:
 107:drivers/nvic.c **** }
 108:drivers/nvic.c **** 
 109:drivers/nvic.c **** /**
 110:drivers/nvic.c ****   * @brief  This function handles PendSV_Handler exception.
 111:drivers/nvic.c ****   * @param  None
 112:drivers/nvic.c ****   * @retval None
 113:drivers/nvic.c ****   */
 114:drivers/nvic.c **** void PendSV_Handler(void)
 115:drivers/nvic.c **** {
 189              		.loc 1 115 0
 190              		.cfi_startproc
 191              		@ args = 0, pretend = 0, frame = 0
 192              		@ frame_needed = 0, uses_anonymous_args = 0
 193              		@ link register save eliminated.
 194 0038 7047     		bx	lr
 195              		.cfi_endproc
 196              	.LFE71:
 197              		.size	PendSV_Handler, .-PendSV_Handler
 198              		.align	1
 199              		.global	SysTick_Handler
 200              		.syntax unified
 201              		.thumb
 202              		.thumb_func
 203              		.fpu softvfp
 204              		.type	SysTick_Handler, %function
 205              	SysTick_Handler:
 206              	.LFB72:
 116:drivers/nvic.c **** }
 117:drivers/nvic.c **** 
 118:drivers/nvic.c **** /**
 119:drivers/nvic.c ****   * @brief  This function handles SysTick Handler.
 120:drivers/nvic.c ****   * @param  None
 121:drivers/nvic.c ****   * @retval None
 122:drivers/nvic.c ****   */
 123:drivers/nvic.c **** void SysTick_Handler(void)
 124:drivers/nvic.c **** {
 207              		.loc 1 124 0
 208              		.cfi_startproc
 209              		@ args = 0, pretend = 0, frame = 0
 210              		@ frame_needed = 0, uses_anonymous_args = 0
 211              		@ link register save eliminated.
 212 003a 7047     		bx	lr
 213              		.cfi_endproc
 214              	.LFE72:
 215              		.size	SysTick_Handler, .-SysTick_Handler
 216              		.align	1
 217              		.global	TIM2_IRQHandler
 218              		.syntax unified
ARM GAS  /tmp/cc1YujwN.s 			page 7


 219              		.thumb
 220              		.thumb_func
 221              		.fpu softvfp
 222              		.type	TIM2_IRQHandler, %function
 223              	TIM2_IRQHandler:
 224              	.LFB73:
 125:drivers/nvic.c **** }
 126:drivers/nvic.c **** 
 127:drivers/nvic.c **** /******************************************************************************/
 128:drivers/nvic.c **** /*            STM32F10x Peripherals Interrupt Handlers                        */
 129:drivers/nvic.c **** /******************************************************************************/
 130:drivers/nvic.c **** 
 131:drivers/nvic.c **** void TIM2_IRQHandler(void)
 132:drivers/nvic.c **** {
 225              		.loc 1 132 0
 226              		.cfi_startproc
 227              		@ args = 0, pretend = 0, frame = 0
 228              		@ frame_needed = 0, uses_anonymous_args = 0
 229              		.loc 1 132 0
 230 003c 08B5     		push	{r3, lr}
 231              		.cfi_def_cfa_offset 8
 232              		.cfi_offset 3, -8
 233              		.cfi_offset 14, -4
 133:drivers/nvic.c ****   //检测是否发生溢出更新事件
 134:drivers/nvic.c ****   if(TIM_GetITStatus(TIM2, TIM_IT_Update) != RESET) {
 234              		.loc 1 134 0
 235 003e 0121     		movs	r1, #1
 236 0040 4FF08040 		mov	r0, #1073741824
 237 0044 FFF7FEFF 		bl	TIM_GetITStatus
 238              	.LVL5:
 239 0048 00B9     		cbnz	r0, .L20
 240              	.L17:
 241 004a 08BD     		pop	{r3, pc}
 242              	.L20:
 135:drivers/nvic.c ****     //清除TIM2的中断待处理位
 136:drivers/nvic.c ****     TIM_ClearITPendingBit(TIM2 , TIM_FLAG_Update);
 243              		.loc 1 136 0
 244 004c 0121     		movs	r1, #1
 245 004e 4FF08040 		mov	r0, #1073741824
 246 0052 FFF7FEFF 		bl	TIM_ClearITPendingBit
 247              	.LVL6:
 137:drivers/nvic.c ****     timer_counter++;
 248              		.loc 1 137 0
 249 0056 024A     		ldr	r2, .L21
 250 0058 1388     		ldrh	r3, [r2]
 251 005a 0133     		adds	r3, r3, #1
 252 005c 1380     		strh	r3, [r2]	@ movhi
 138:drivers/nvic.c ****   }
 139:drivers/nvic.c **** }
 253              		.loc 1 139 0
 254 005e F4E7     		b	.L17
 255              	.L22:
 256              		.align	2
 257              	.L21:
 258 0060 00000000 		.word	.LANCHOR0
 259              		.cfi_endproc
 260              	.LFE73:
ARM GAS  /tmp/cc1YujwN.s 			page 8


 261              		.size	TIM2_IRQHandler, .-TIM2_IRQHandler
 262              		.align	1
 263              		.global	RCC_IRQHandler
 264              		.syntax unified
 265              		.thumb
 266              		.thumb_func
 267              		.fpu softvfp
 268              		.type	RCC_IRQHandler, %function
 269              	RCC_IRQHandler:
 270              	.LFB74:
 140:drivers/nvic.c **** 
 141:drivers/nvic.c **** /**
 142:drivers/nvic.c ****   * @brief  This function handles RCC interrupt request. 
 143:drivers/nvic.c ****   * @param  None
 144:drivers/nvic.c ****   * @retval None
 145:drivers/nvic.c ****   */
 146:drivers/nvic.c **** void RCC_IRQHandler(void)
 147:drivers/nvic.c **** {
 271              		.loc 1 147 0
 272              		.cfi_startproc
 273              		@ args = 0, pretend = 0, frame = 0
 274              		@ frame_needed = 0, uses_anonymous_args = 0
 275 0064 08B5     		push	{r3, lr}
 276              		.cfi_def_cfa_offset 8
 277              		.cfi_offset 3, -8
 278              		.cfi_offset 14, -4
 148:drivers/nvic.c ****   if(RCC_GetITStatus(RCC_IT_HSERDY) != RESET)
 279              		.loc 1 148 0
 280 0066 0820     		movs	r0, #8
 281 0068 FFF7FEFF 		bl	RCC_GetITStatus
 282              	.LVL7:
 283 006c 20B9     		cbnz	r0, .L27
 284              	.L24:
 149:drivers/nvic.c ****   { 
 150:drivers/nvic.c ****     /* Clear HSERDY interrupt pending bit */
 151:drivers/nvic.c ****     RCC_ClearITPendingBit(RCC_IT_HSERDY);
 152:drivers/nvic.c **** 
 153:drivers/nvic.c ****     /* Check if the HSE clock is still available */
 154:drivers/nvic.c ****     if (RCC_GetFlagStatus(RCC_FLAG_HSERDY) != RESET)
 155:drivers/nvic.c ****     { 
 156:drivers/nvic.c **** #ifdef SYSCLK_HSE
 157:drivers/nvic.c ****       /* Select HSE as system clock source */
 158:drivers/nvic.c ****       RCC_SYSCLKConfig(RCC_SYSCLKSource_HSE);
 159:drivers/nvic.c **** #else
 160:drivers/nvic.c ****  #ifdef STM32F10X_CL
 161:drivers/nvic.c ****       /* Enable PLL2 */
 162:drivers/nvic.c ****       RCC_PLL2Cmd(ENABLE);
 163:drivers/nvic.c ****  #else
 164:drivers/nvic.c ****       /* Enable PLL: once the PLL is ready the PLLRDY interrupt is generated */ 
 165:drivers/nvic.c ****       RCC_PLLCmd(ENABLE);
 166:drivers/nvic.c ****  #endif	/* STM32F10X_CL */
 167:drivers/nvic.c **** #endif /* SYSCLK_HSE */      
 168:drivers/nvic.c ****     }
 169:drivers/nvic.c ****   }
 170:drivers/nvic.c **** 
 171:drivers/nvic.c **** #ifdef STM32F10X_CL
 172:drivers/nvic.c ****   if(RCC_GetITStatus(RCC_IT_PLL2RDY) != RESET)
ARM GAS  /tmp/cc1YujwN.s 			page 9


 173:drivers/nvic.c ****   { 
 174:drivers/nvic.c ****     /* Clear PLL2RDY interrupt pending bit */
 175:drivers/nvic.c ****     RCC_ClearITPendingBit(RCC_IT_PLL2RDY);
 176:drivers/nvic.c **** 
 177:drivers/nvic.c ****     /* Enable PLL: once the PLL is ready the PLLRDY interrupt is generated */ 
 178:drivers/nvic.c ****     RCC_PLLCmd(ENABLE);
 179:drivers/nvic.c ****   }
 180:drivers/nvic.c **** #endif /* STM32F10X_CL */   
 181:drivers/nvic.c **** 
 182:drivers/nvic.c ****   if(RCC_GetITStatus(RCC_IT_PLLRDY) != RESET)
 285              		.loc 1 182 0
 286 006e 1020     		movs	r0, #16
 287 0070 FFF7FEFF 		bl	RCC_GetITStatus
 288              	.LVL8:
 289 0074 60B9     		cbnz	r0, .L28
 290              	.L23:
 291 0076 08BD     		pop	{r3, pc}
 292              	.L27:
 151:drivers/nvic.c **** 
 293              		.loc 1 151 0
 294 0078 0820     		movs	r0, #8
 295 007a FFF7FEFF 		bl	RCC_ClearITPendingBit
 296              	.LVL9:
 154:drivers/nvic.c ****     { 
 297              		.loc 1 154 0
 298 007e 3120     		movs	r0, #49
 299 0080 FFF7FEFF 		bl	RCC_GetFlagStatus
 300              	.LVL10:
 301 0084 0028     		cmp	r0, #0
 302 0086 F2D0     		beq	.L24
 165:drivers/nvic.c ****  #endif	/* STM32F10X_CL */
 303              		.loc 1 165 0
 304 0088 0120     		movs	r0, #1
 305 008a FFF7FEFF 		bl	RCC_PLLCmd
 306              	.LVL11:
 307 008e EEE7     		b	.L24
 308              	.L28:
 183:drivers/nvic.c ****   { 
 184:drivers/nvic.c ****     /* Clear PLLRDY interrupt pending bit */
 185:drivers/nvic.c ****     RCC_ClearITPendingBit(RCC_IT_PLLRDY);
 309              		.loc 1 185 0
 310 0090 1020     		movs	r0, #16
 311 0092 FFF7FEFF 		bl	RCC_ClearITPendingBit
 312              	.LVL12:
 186:drivers/nvic.c **** 
 187:drivers/nvic.c ****     /* Check if the PLL is still locked */
 188:drivers/nvic.c ****     if (RCC_GetFlagStatus(RCC_FLAG_PLLRDY) != RESET)
 313              		.loc 1 188 0
 314 0096 3920     		movs	r0, #57
 315 0098 FFF7FEFF 		bl	RCC_GetFlagStatus
 316              	.LVL13:
 317 009c 0028     		cmp	r0, #0
 318 009e EAD0     		beq	.L23
 189:drivers/nvic.c ****     { 
 190:drivers/nvic.c ****       /* Select PLL as system clock source */
 191:drivers/nvic.c ****       RCC_SYSCLKConfig(RCC_SYSCLKSource_PLLCLK);
 319              		.loc 1 191 0
ARM GAS  /tmp/cc1YujwN.s 			page 10


 320 00a0 0220     		movs	r0, #2
 321 00a2 FFF7FEFF 		bl	RCC_SYSCLKConfig
 322              	.LVL14:
 192:drivers/nvic.c ****     }
 193:drivers/nvic.c ****   }
 194:drivers/nvic.c **** }
 323              		.loc 1 194 0
 324 00a6 E6E7     		b	.L23
 325              		.cfi_endproc
 326              	.LFE74:
 327              		.size	RCC_IRQHandler, .-RCC_IRQHandler
 328              		.global	timer_counter
 329              		.bss
 330              		.align	1
 331              		.set	.LANCHOR0,. + 0
 332              		.type	timer_counter, %object
 333              		.size	timer_counter, 2
 334              	timer_counter:
 335 0000 0000     		.space	2
 336              		.text
 337              	.Letext0:
 338              		.file 2 "/usr/arm-none-eabi/include/machine/_default_types.h"
 339              		.file 3 "/usr/arm-none-eabi/include/sys/_stdint.h"
 340              		.file 4 "/home/enbin/Documents/code/STM/stm32-quadrocopter/cmsis/core_cm3.h"
 341              		.file 5 "/home/enbin/Documents/code/STM/stm32-quadrocopter/lib/inc/system_stm32f10x.h"
 342              		.file 6 "/home/enbin/Documents/code/STM/stm32-quadrocopter/lib/inc/stm32f10x.h"
 343              		.file 7 "/home/enbin/Documents/code/STM/stm32-quadrocopter/drivers/MPU6050.h"
 344              		.file 8 "/usr/arm-none-eabi/include/sys/lock.h"
 345              		.file 9 "/usr/arm-none-eabi/include/sys/_types.h"
 346              		.file 10 "/usr/lib/gcc/arm-none-eabi/6.1.1/include/stddef.h"
 347              		.file 11 "/usr/arm-none-eabi/include/sys/reent.h"
 348              		.file 12 "/usr/arm-none-eabi/include/stdlib.h"
 349              		.file 13 "/usr/arm-none-eabi/include/math.h"
 350              		.file 14 "/usr/arm-none-eabi/include/sys/errno.h"
 351              		.file 15 "/home/enbin/Documents/code/STM/stm32-quadrocopter/lib/inc/stm32f10x_rcc.h"
 352              		.file 16 "/home/enbin/Documents/code/STM/stm32-quadrocopter/lib/inc/stm32f10x_tim.h"
 353              		.section	.debug_info,"",%progbits
 354              	.Ldebug_info0:
 355 0000 C20E0000 		.4byte	0xec2
 356 0004 0400     		.2byte	0x4
 357 0006 00000000 		.4byte	.Ldebug_abbrev0
 358 000a 04       		.byte	0x4
 359 000b 01       		.uleb128 0x1
 360 000c CC050000 		.4byte	.LASF206
 361 0010 01       		.byte	0x1
 362 0011 38000000 		.4byte	.LASF207
 363 0015 15020000 		.4byte	.LASF208
 364 0019 00000000 		.4byte	.Ltext0
 365 001d A8000000 		.4byte	.Letext0-.Ltext0
 366 0021 00000000 		.4byte	.Ldebug_line0
 367 0025 02       		.uleb128 0x2
 368 0026 01       		.byte	0x1
 369 0027 06       		.byte	0x6
 370 0028 72010000 		.4byte	.LASF0
 371 002c 03       		.uleb128 0x3
 372 002d 83000000 		.4byte	.LASF2
 373 0031 02       		.byte	0x2
ARM GAS  /tmp/cc1YujwN.s 			page 11


 374 0032 1D       		.byte	0x1d
 375 0033 37000000 		.4byte	0x37
 376 0037 02       		.uleb128 0x2
 377 0038 01       		.byte	0x1
 378 0039 08       		.byte	0x8
 379 003a 51050000 		.4byte	.LASF1
 380 003e 03       		.uleb128 0x3
 381 003f 5C080000 		.4byte	.LASF3
 382 0043 02       		.byte	0x2
 383 0044 29       		.byte	0x29
 384 0045 49000000 		.4byte	0x49
 385 0049 02       		.uleb128 0x2
 386 004a 02       		.byte	0x2
 387 004b 05       		.byte	0x5
 388 004c 1D000000 		.4byte	.LASF4
 389 0050 03       		.uleb128 0x3
 390 0051 EC020000 		.4byte	.LASF5
 391 0055 02       		.byte	0x2
 392 0056 2B       		.byte	0x2b
 393 0057 5B000000 		.4byte	0x5b
 394 005b 02       		.uleb128 0x2
 395 005c 02       		.byte	0x2
 396 005d 07       		.byte	0x7
 397 005e 7C070000 		.4byte	.LASF6
 398 0062 03       		.uleb128 0x3
 399 0063 3A070000 		.4byte	.LASF7
 400 0067 02       		.byte	0x2
 401 0068 3F       		.byte	0x3f
 402 0069 6D000000 		.4byte	0x6d
 403 006d 02       		.uleb128 0x2
 404 006e 04       		.byte	0x4
 405 006f 05       		.byte	0x5
 406 0070 05020000 		.4byte	.LASF8
 407 0074 03       		.uleb128 0x3
 408 0075 FC020000 		.4byte	.LASF9
 409 0079 02       		.byte	0x2
 410 007a 41       		.byte	0x41
 411 007b 7F000000 		.4byte	0x7f
 412 007f 02       		.uleb128 0x2
 413 0080 04       		.byte	0x4
 414 0081 07       		.byte	0x7
 415 0082 73030000 		.4byte	.LASF10
 416 0086 02       		.uleb128 0x2
 417 0087 08       		.byte	0x8
 418 0088 05       		.byte	0x5
 419 0089 73020000 		.4byte	.LASF11
 420 008d 02       		.uleb128 0x2
 421 008e 08       		.byte	0x8
 422 008f 07       		.byte	0x7
 423 0090 C9000000 		.4byte	.LASF12
 424 0094 04       		.uleb128 0x4
 425 0095 04       		.byte	0x4
 426 0096 05       		.byte	0x5
 427 0097 696E7400 		.ascii	"int\000"
 428 009b 02       		.uleb128 0x2
 429 009c 04       		.byte	0x4
 430 009d 07       		.byte	0x7
ARM GAS  /tmp/cc1YujwN.s 			page 12


 431 009e 12070000 		.4byte	.LASF13
 432 00a2 03       		.uleb128 0x3
 433 00a3 37080000 		.4byte	.LASF14
 434 00a7 03       		.byte	0x3
 435 00a8 18       		.byte	0x18
 436 00a9 2C000000 		.4byte	0x2c
 437 00ad 03       		.uleb128 0x3
 438 00ae BE080000 		.4byte	.LASF15
 439 00b2 03       		.byte	0x3
 440 00b3 20       		.byte	0x20
 441 00b4 3E000000 		.4byte	0x3e
 442 00b8 03       		.uleb128 0x3
 443 00b9 81020000 		.4byte	.LASF16
 444 00bd 03       		.byte	0x3
 445 00be 24       		.byte	0x24
 446 00bf 50000000 		.4byte	0x50
 447 00c3 05       		.uleb128 0x5
 448 00c4 B8000000 		.4byte	0xb8
 449 00c8 03       		.uleb128 0x3
 450 00c9 49050000 		.4byte	.LASF17
 451 00cd 03       		.byte	0x3
 452 00ce 2C       		.byte	0x2c
 453 00cf 62000000 		.4byte	0x62
 454 00d3 05       		.uleb128 0x5
 455 00d4 C8000000 		.4byte	0xc8
 456 00d8 03       		.uleb128 0x3
 457 00d9 09010000 		.4byte	.LASF18
 458 00dd 03       		.byte	0x3
 459 00de 30       		.byte	0x30
 460 00df 74000000 		.4byte	0x74
 461 00e3 02       		.uleb128 0x2
 462 00e4 04       		.byte	0x4
 463 00e5 07       		.byte	0x7
 464 00e6 3F040000 		.4byte	.LASF19
 465 00ea 06       		.uleb128 0x6
 466 00eb 12010000 		.4byte	.LASF20
 467 00ef 04       		.byte	0x4
 468 00f0 9606     		.2byte	0x696
 469 00f2 D3000000 		.4byte	0xd3
 470 00f6 07       		.uleb128 0x7
 471 00f7 5B030000 		.4byte	.LASF21
 472 00fb 05       		.byte	0x5
 473 00fc 35       		.byte	0x35
 474 00fd D8000000 		.4byte	0xd8
 475 0101 08       		.uleb128 0x8
 476 0102 01       		.byte	0x1
 477 0103 37000000 		.4byte	0x37
 478 0107 06       		.byte	0x6
 479 0108 0702     		.2byte	0x207
 480 010a 1B010000 		.4byte	0x11b
 481 010e 09       		.uleb128 0x9
 482 010f 05040000 		.4byte	.LASF22
 483 0113 00       		.byte	0
 484 0114 0A       		.uleb128 0xa
 485 0115 53455400 		.ascii	"SET\000"
 486 0119 01       		.byte	0x1
 487 011a 00       		.byte	0
ARM GAS  /tmp/cc1YujwN.s 			page 13


 488 011b 08       		.uleb128 0x8
 489 011c 01       		.byte	0x1
 490 011d 37000000 		.4byte	0x37
 491 0121 06       		.byte	0x6
 492 0122 0902     		.2byte	0x209
 493 0124 35010000 		.4byte	0x135
 494 0128 09       		.uleb128 0x9
 495 0129 4C030000 		.4byte	.LASF23
 496 012d 00       		.byte	0
 497 012e 09       		.uleb128 0x9
 498 012f 0E020000 		.4byte	.LASF24
 499 0133 01       		.byte	0x1
 500 0134 00       		.byte	0
 501 0135 0B       		.uleb128 0xb
 502 0136 50       		.byte	0x50
 503 0137 06       		.byte	0x6
 504 0138 A204     		.2byte	0x4a2
 505 013a 46030000 		.4byte	0x346
 506 013e 0C       		.uleb128 0xc
 507 013f 43523100 		.ascii	"CR1\000"
 508 0143 06       		.byte	0x6
 509 0144 A404     		.2byte	0x4a4
 510 0146 C3000000 		.4byte	0xc3
 511 014a 00       		.byte	0
 512 014b 0D       		.uleb128 0xd
 513 014c E1040000 		.4byte	.LASF25
 514 0150 06       		.byte	0x6
 515 0151 A504     		.2byte	0x4a5
 516 0153 B8000000 		.4byte	0xb8
 517 0157 02       		.byte	0x2
 518 0158 0C       		.uleb128 0xc
 519 0159 43523200 		.ascii	"CR2\000"
 520 015d 06       		.byte	0x6
 521 015e A604     		.2byte	0x4a6
 522 0160 C3000000 		.4byte	0xc3
 523 0164 04       		.byte	0x4
 524 0165 0D       		.uleb128 0xd
 525 0166 EB040000 		.4byte	.LASF26
 526 016a 06       		.byte	0x6
 527 016b A704     		.2byte	0x4a7
 528 016d B8000000 		.4byte	0xb8
 529 0171 06       		.byte	0x6
 530 0172 0D       		.uleb128 0xd
 531 0173 07070000 		.4byte	.LASF27
 532 0177 06       		.byte	0x6
 533 0178 A804     		.2byte	0x4a8
 534 017a C3000000 		.4byte	0xc3
 535 017e 08       		.byte	0x8
 536 017f 0D       		.uleb128 0xd
 537 0180 F5040000 		.4byte	.LASF28
 538 0184 06       		.byte	0x6
 539 0185 A904     		.2byte	0x4a9
 540 0187 B8000000 		.4byte	0xb8
 541 018b 0A       		.byte	0xa
 542 018c 0D       		.uleb128 0xd
 543 018d 33000000 		.4byte	.LASF29
 544 0191 06       		.byte	0x6
ARM GAS  /tmp/cc1YujwN.s 			page 14


 545 0192 AA04     		.2byte	0x4aa
 546 0194 C3000000 		.4byte	0xc3
 547 0198 0C       		.byte	0xc
 548 0199 0D       		.uleb128 0xd
 549 019a FF040000 		.4byte	.LASF30
 550 019e 06       		.byte	0x6
 551 019f AB04     		.2byte	0x4ab
 552 01a1 B8000000 		.4byte	0xb8
 553 01a5 0E       		.byte	0xe
 554 01a6 0C       		.uleb128 0xc
 555 01a7 535200   		.ascii	"SR\000"
 556 01aa 06       		.byte	0x6
 557 01ab AC04     		.2byte	0x4ac
 558 01ad C3000000 		.4byte	0xc3
 559 01b1 10       		.byte	0x10
 560 01b2 0D       		.uleb128 0xd
 561 01b3 09050000 		.4byte	.LASF31
 562 01b7 06       		.byte	0x6
 563 01b8 AD04     		.2byte	0x4ad
 564 01ba B8000000 		.4byte	0xb8
 565 01be 12       		.byte	0x12
 566 01bf 0C       		.uleb128 0xc
 567 01c0 45475200 		.ascii	"EGR\000"
 568 01c4 06       		.byte	0x6
 569 01c5 AE04     		.2byte	0x4ae
 570 01c7 C3000000 		.4byte	0xc3
 571 01cb 14       		.byte	0x14
 572 01cc 0D       		.uleb128 0xd
 573 01cd 13050000 		.4byte	.LASF32
 574 01d1 06       		.byte	0x6
 575 01d2 AF04     		.2byte	0x4af
 576 01d4 B8000000 		.4byte	0xb8
 577 01d8 16       		.byte	0x16
 578 01d9 0D       		.uleb128 0xd
 579 01da 5F010000 		.4byte	.LASF33
 580 01de 06       		.byte	0x6
 581 01df B004     		.2byte	0x4b0
 582 01e1 C3000000 		.4byte	0xc3
 583 01e5 18       		.byte	0x18
 584 01e6 0D       		.uleb128 0xd
 585 01e7 1D050000 		.4byte	.LASF34
 586 01eb 06       		.byte	0x6
 587 01ec B104     		.2byte	0x4b1
 588 01ee B8000000 		.4byte	0xb8
 589 01f2 1A       		.byte	0x1a
 590 01f3 0D       		.uleb128 0xd
 591 01f4 65010000 		.4byte	.LASF35
 592 01f8 06       		.byte	0x6
 593 01f9 B204     		.2byte	0x4b2
 594 01fb C3000000 		.4byte	0xc3
 595 01ff 1C       		.byte	0x1c
 596 0200 0D       		.uleb128 0xd
 597 0201 AA060000 		.4byte	.LASF36
 598 0205 06       		.byte	0x6
 599 0206 B304     		.2byte	0x4b3
 600 0208 B8000000 		.4byte	0xb8
 601 020c 1E       		.byte	0x1e
ARM GAS  /tmp/cc1YujwN.s 			page 15


 602 020d 0D       		.uleb128 0xd
 603 020e 6E020000 		.4byte	.LASF37
 604 0212 06       		.byte	0x6
 605 0213 B404     		.2byte	0x4b4
 606 0215 C3000000 		.4byte	0xc3
 607 0219 20       		.byte	0x20
 608 021a 0D       		.uleb128 0xd
 609 021b 27050000 		.4byte	.LASF38
 610 021f 06       		.byte	0x6
 611 0220 B504     		.2byte	0x4b5
 612 0222 B8000000 		.4byte	0xb8
 613 0226 22       		.byte	0x22
 614 0227 0C       		.uleb128 0xc
 615 0228 434E5400 		.ascii	"CNT\000"
 616 022c 06       		.byte	0x6
 617 022d B604     		.2byte	0x4b6
 618 022f C3000000 		.4byte	0xc3
 619 0233 24       		.byte	0x24
 620 0234 0D       		.uleb128 0xd
 621 0235 31050000 		.4byte	.LASF39
 622 0239 06       		.byte	0x6
 623 023a B704     		.2byte	0x4b7
 624 023c B8000000 		.4byte	0xb8
 625 0240 26       		.byte	0x26
 626 0241 0C       		.uleb128 0xc
 627 0242 50534300 		.ascii	"PSC\000"
 628 0246 06       		.byte	0x6
 629 0247 B804     		.2byte	0x4b8
 630 0249 C3000000 		.4byte	0xc3
 631 024d 28       		.byte	0x28
 632 024e 0D       		.uleb128 0xd
 633 024f B0070000 		.4byte	.LASF40
 634 0253 06       		.byte	0x6
 635 0254 B904     		.2byte	0x4b9
 636 0256 B8000000 		.4byte	0xb8
 637 025a 2A       		.byte	0x2a
 638 025b 0C       		.uleb128 0xc
 639 025c 41525200 		.ascii	"ARR\000"
 640 0260 06       		.byte	0x6
 641 0261 BA04     		.2byte	0x4ba
 642 0263 C3000000 		.4byte	0xc3
 643 0267 2C       		.byte	0x2c
 644 0268 0D       		.uleb128 0xd
 645 0269 5F040000 		.4byte	.LASF41
 646 026d 06       		.byte	0x6
 647 026e BB04     		.2byte	0x4bb
 648 0270 B8000000 		.4byte	0xb8
 649 0274 2E       		.byte	0x2e
 650 0275 0C       		.uleb128 0xc
 651 0276 52435200 		.ascii	"RCR\000"
 652 027a 06       		.byte	0x6
 653 027b BC04     		.2byte	0x4bc
 654 027d C3000000 		.4byte	0xc3
 655 0281 30       		.byte	0x30
 656 0282 0D       		.uleb128 0xd
 657 0283 E0070000 		.4byte	.LASF42
 658 0287 06       		.byte	0x6
ARM GAS  /tmp/cc1YujwN.s 			page 16


 659 0288 BD04     		.2byte	0x4bd
 660 028a B8000000 		.4byte	0xb8
 661 028e 32       		.byte	0x32
 662 028f 0D       		.uleb128 0xd
 663 0290 EB070000 		.4byte	.LASF43
 664 0294 06       		.byte	0x6
 665 0295 BE04     		.2byte	0x4be
 666 0297 C3000000 		.4byte	0xc3
 667 029b 34       		.byte	0x34
 668 029c 0D       		.uleb128 0xd
 669 029d BE010000 		.4byte	.LASF44
 670 02a1 06       		.byte	0x6
 671 02a2 BF04     		.2byte	0x4bf
 672 02a4 B8000000 		.4byte	0xb8
 673 02a8 36       		.byte	0x36
 674 02a9 0D       		.uleb128 0xd
 675 02aa F0070000 		.4byte	.LASF45
 676 02ae 06       		.byte	0x6
 677 02af C004     		.2byte	0x4c0
 678 02b1 C3000000 		.4byte	0xc3
 679 02b5 38       		.byte	0x38
 680 02b6 0D       		.uleb128 0xd
 681 02b7 C9010000 		.4byte	.LASF46
 682 02bb 06       		.byte	0x6
 683 02bc C104     		.2byte	0x4c1
 684 02be B8000000 		.4byte	0xb8
 685 02c2 3A       		.byte	0x3a
 686 02c3 0D       		.uleb128 0xd
 687 02c4 F5070000 		.4byte	.LASF47
 688 02c8 06       		.byte	0x6
 689 02c9 C204     		.2byte	0x4c2
 690 02cb C3000000 		.4byte	0xc3
 691 02cf 3C       		.byte	0x3c
 692 02d0 0D       		.uleb128 0xd
 693 02d1 D4010000 		.4byte	.LASF48
 694 02d5 06       		.byte	0x6
 695 02d6 C304     		.2byte	0x4c3
 696 02d8 B8000000 		.4byte	0xb8
 697 02dc 3E       		.byte	0x3e
 698 02dd 0D       		.uleb128 0xd
 699 02de FA070000 		.4byte	.LASF49
 700 02e2 06       		.byte	0x6
 701 02e3 C404     		.2byte	0x4c4
 702 02e5 C3000000 		.4byte	0xc3
 703 02e9 40       		.byte	0x40
 704 02ea 0D       		.uleb128 0xd
 705 02eb FF070000 		.4byte	.LASF50
 706 02ef 06       		.byte	0x6
 707 02f0 C504     		.2byte	0x4c5
 708 02f2 B8000000 		.4byte	0xb8
 709 02f6 42       		.byte	0x42
 710 02f7 0D       		.uleb128 0xd
 711 02f8 43010000 		.4byte	.LASF51
 712 02fc 06       		.byte	0x6
 713 02fd C604     		.2byte	0x4c6
 714 02ff C3000000 		.4byte	0xc3
 715 0303 44       		.byte	0x44
ARM GAS  /tmp/cc1YujwN.s 			page 17


 716 0304 0D       		.uleb128 0xd
 717 0305 E7010000 		.4byte	.LASF52
 718 0309 06       		.byte	0x6
 719 030a C704     		.2byte	0x4c7
 720 030c B8000000 		.4byte	0xb8
 721 0310 46       		.byte	0x46
 722 0311 0C       		.uleb128 0xc
 723 0312 44435200 		.ascii	"DCR\000"
 724 0316 06       		.byte	0x6
 725 0317 C804     		.2byte	0x4c8
 726 0319 C3000000 		.4byte	0xc3
 727 031d 48       		.byte	0x48
 728 031e 0D       		.uleb128 0xd
 729 031f 0A080000 		.4byte	.LASF53
 730 0323 06       		.byte	0x6
 731 0324 C904     		.2byte	0x4c9
 732 0326 B8000000 		.4byte	0xb8
 733 032a 4A       		.byte	0x4a
 734 032b 0D       		.uleb128 0xd
 735 032c 1F070000 		.4byte	.LASF54
 736 0330 06       		.byte	0x6
 737 0331 CA04     		.2byte	0x4ca
 738 0333 C3000000 		.4byte	0xc3
 739 0337 4C       		.byte	0x4c
 740 0338 0D       		.uleb128 0xd
 741 0339 FA010000 		.4byte	.LASF55
 742 033d 06       		.byte	0x6
 743 033e CB04     		.2byte	0x4cb
 744 0340 B8000000 		.4byte	0xb8
 745 0344 4E       		.byte	0x4e
 746 0345 00       		.byte	0
 747 0346 0E       		.uleb128 0xe
 748 0347 9D000000 		.4byte	.LASF56
 749 034b 06       		.byte	0x6
 750 034c CC04     		.2byte	0x4cc
 751 034e 35010000 		.4byte	0x135
 752 0352 0F       		.uleb128 0xf
 753 0353 10       		.uleb128 0x10
 754 0354 04       		.byte	0x4
 755 0355 52030000 		.4byte	0x352
 756 0359 11       		.uleb128 0x11
 757 035a 49000000 		.4byte	0x49
 758 035e 69030000 		.4byte	0x369
 759 0362 12       		.uleb128 0x12
 760 0363 E3000000 		.4byte	0xe3
 761 0367 02       		.byte	0x2
 762 0368 00       		.byte	0
 763 0369 06       		.uleb128 0x6
 764 036a 2F010000 		.4byte	.LASF57
 765 036e 07       		.byte	0x7
 766 036f 6401     		.2byte	0x164
 767 0371 59030000 		.4byte	0x359
 768 0375 06       		.uleb128 0x6
 769 0376 6A040000 		.4byte	.LASF58
 770 037a 07       		.byte	0x7
 771 037b 6401     		.2byte	0x164
 772 037d 59030000 		.4byte	0x359
ARM GAS  /tmp/cc1YujwN.s 			page 18


 773 0381 06       		.uleb128 0x6
 774 0382 84010000 		.4byte	.LASF59
 775 0386 07       		.byte	0x7
 776 0387 6501     		.2byte	0x165
 777 0389 AD000000 		.4byte	0xad
 778 038d 06       		.uleb128 0x6
 779 038e 50040000 		.4byte	.LASF60
 780 0392 07       		.byte	0x7
 781 0393 6501     		.2byte	0x165
 782 0395 AD000000 		.4byte	0xad
 783 0399 06       		.uleb128 0x6
 784 039a 70040000 		.4byte	.LASF61
 785 039e 07       		.byte	0x7
 786 039f 6501     		.2byte	0x165
 787 03a1 AD000000 		.4byte	0xad
 788 03a5 06       		.uleb128 0x6
 789 03a6 B1010000 		.4byte	.LASF62
 790 03aa 07       		.byte	0x7
 791 03ab 6601     		.2byte	0x166
 792 03ad B1030000 		.4byte	0x3b1
 793 03b1 02       		.uleb128 0x2
 794 03b2 04       		.byte	0x4
 795 03b3 04       		.byte	0x4
 796 03b4 C4040000 		.4byte	.LASF63
 797 03b8 06       		.uleb128 0x6
 798 03b9 D4040000 		.4byte	.LASF64
 799 03bd 07       		.byte	0x7
 800 03be 6701     		.2byte	0x167
 801 03c0 B1030000 		.4byte	0x3b1
 802 03c4 06       		.uleb128 0x6
 803 03c5 A9070000 		.4byte	.LASF65
 804 03c9 07       		.byte	0x7
 805 03ca 6801     		.2byte	0x168
 806 03cc B8000000 		.4byte	0xb8
 807 03d0 13       		.uleb128 0x13
 808 03d1 04       		.byte	0x4
 809 03d2 03       		.uleb128 0x3
 810 03d3 2D040000 		.4byte	.LASF66
 811 03d7 08       		.byte	0x8
 812 03d8 07       		.byte	0x7
 813 03d9 94000000 		.4byte	0x94
 814 03dd 03       		.uleb128 0x3
 815 03de 96000000 		.4byte	.LASF67
 816 03e2 09       		.byte	0x9
 817 03e3 2C       		.byte	0x2c
 818 03e4 6D000000 		.4byte	0x6d
 819 03e8 03       		.uleb128 0x3
 820 03e9 D4060000 		.4byte	.LASF68
 821 03ed 09       		.byte	0x9
 822 03ee 72       		.byte	0x72
 823 03ef 6D000000 		.4byte	0x6d
 824 03f3 0E       		.uleb128 0xe
 825 03f4 BD040000 		.4byte	.LASF69
 826 03f8 0A       		.byte	0xa
 827 03f9 6501     		.2byte	0x165
 828 03fb 9B000000 		.4byte	0x9b
 829 03ff 14       		.uleb128 0x14
ARM GAS  /tmp/cc1YujwN.s 			page 19


 830 0400 04       		.byte	0x4
 831 0401 09       		.byte	0x9
 832 0402 A6       		.byte	0xa6
 833 0403 1E040000 		.4byte	0x41e
 834 0407 15       		.uleb128 0x15
 835 0408 C4030000 		.4byte	.LASF70
 836 040c 09       		.byte	0x9
 837 040d A8       		.byte	0xa8
 838 040e F3030000 		.4byte	0x3f3
 839 0412 15       		.uleb128 0x15
 840 0413 54030000 		.4byte	.LASF71
 841 0417 09       		.byte	0x9
 842 0418 A9       		.byte	0xa9
 843 0419 1E040000 		.4byte	0x41e
 844 041d 00       		.byte	0
 845 041e 11       		.uleb128 0x11
 846 041f 37000000 		.4byte	0x37
 847 0423 2E040000 		.4byte	0x42e
 848 0427 12       		.uleb128 0x12
 849 0428 E3000000 		.4byte	0xe3
 850 042c 03       		.byte	0x3
 851 042d 00       		.byte	0
 852 042e 16       		.uleb128 0x16
 853 042f 08       		.byte	0x8
 854 0430 09       		.byte	0x9
 855 0431 A3       		.byte	0xa3
 856 0432 4F040000 		.4byte	0x44f
 857 0436 17       		.uleb128 0x17
 858 0437 0B040000 		.4byte	.LASF72
 859 043b 09       		.byte	0x9
 860 043c A5       		.byte	0xa5
 861 043d 94000000 		.4byte	0x94
 862 0441 00       		.byte	0
 863 0442 17       		.uleb128 0x17
 864 0443 A2060000 		.4byte	.LASF73
 865 0447 09       		.byte	0x9
 866 0448 AA       		.byte	0xaa
 867 0449 FF030000 		.4byte	0x3ff
 868 044d 04       		.byte	0x4
 869 044e 00       		.byte	0
 870 044f 03       		.uleb128 0x3
 871 0450 AF050000 		.4byte	.LASF74
 872 0454 09       		.byte	0x9
 873 0455 AB       		.byte	0xab
 874 0456 2E040000 		.4byte	0x42e
 875 045a 03       		.uleb128 0x3
 876 045b 53080000 		.4byte	.LASF75
 877 045f 09       		.byte	0x9
 878 0460 AF       		.byte	0xaf
 879 0461 D2030000 		.4byte	0x3d2
 880 0465 03       		.uleb128 0x3
 881 0466 94070000 		.4byte	.LASF76
 882 046a 0B       		.byte	0xb
 883 046b 16       		.byte	0x16
 884 046c 7F000000 		.4byte	0x7f
 885 0470 18       		.uleb128 0x18
 886 0471 21030000 		.4byte	.LASF81
ARM GAS  /tmp/cc1YujwN.s 			page 20


 887 0475 18       		.byte	0x18
 888 0476 0B       		.byte	0xb
 889 0477 2D       		.byte	0x2d
 890 0478 C3040000 		.4byte	0x4c3
 891 047c 17       		.uleb128 0x17
 892 047d 29030000 		.4byte	.LASF77
 893 0481 0B       		.byte	0xb
 894 0482 2F       		.byte	0x2f
 895 0483 C3040000 		.4byte	0x4c3
 896 0487 00       		.byte	0
 897 0488 19       		.uleb128 0x19
 898 0489 5F6B00   		.ascii	"_k\000"
 899 048c 0B       		.byte	0xb
 900 048d 30       		.byte	0x30
 901 048e 94000000 		.4byte	0x94
 902 0492 04       		.byte	0x4
 903 0493 17       		.uleb128 0x17
 904 0494 77060000 		.4byte	.LASF78
 905 0498 0B       		.byte	0xb
 906 0499 30       		.byte	0x30
 907 049a 94000000 		.4byte	0x94
 908 049e 08       		.byte	0x8
 909 049f 17       		.uleb128 0x17
 910 04a0 07030000 		.4byte	.LASF79
 911 04a4 0B       		.byte	0xb
 912 04a5 30       		.byte	0x30
 913 04a6 94000000 		.4byte	0x94
 914 04aa 0C       		.byte	0xc
 915 04ab 17       		.uleb128 0x17
 916 04ac 5A040000 		.4byte	.LASF80
 917 04b0 0B       		.byte	0xb
 918 04b1 30       		.byte	0x30
 919 04b2 94000000 		.4byte	0x94
 920 04b6 10       		.byte	0x10
 921 04b7 19       		.uleb128 0x19
 922 04b8 5F7800   		.ascii	"_x\000"
 923 04bb 0B       		.byte	0xb
 924 04bc 31       		.byte	0x31
 925 04bd C9040000 		.4byte	0x4c9
 926 04c1 14       		.byte	0x14
 927 04c2 00       		.byte	0
 928 04c3 10       		.uleb128 0x10
 929 04c4 04       		.byte	0x4
 930 04c5 70040000 		.4byte	0x470
 931 04c9 11       		.uleb128 0x11
 932 04ca 65040000 		.4byte	0x465
 933 04ce D9040000 		.4byte	0x4d9
 934 04d2 12       		.uleb128 0x12
 935 04d3 E3000000 		.4byte	0xe3
 936 04d7 00       		.byte	0
 937 04d8 00       		.byte	0
 938 04d9 18       		.uleb128 0x18
 939 04da 35030000 		.4byte	.LASF82
 940 04de 24       		.byte	0x24
 941 04df 0B       		.byte	0xb
 942 04e0 35       		.byte	0x35
 943 04e1 52050000 		.4byte	0x552
ARM GAS  /tmp/cc1YujwN.s 			page 21


 944 04e5 17       		.uleb128 0x17
 945 04e6 56010000 		.4byte	.LASF83
 946 04ea 0B       		.byte	0xb
 947 04eb 37       		.byte	0x37
 948 04ec 94000000 		.4byte	0x94
 949 04f0 00       		.byte	0
 950 04f1 17       		.uleb128 0x17
 951 04f2 8E080000 		.4byte	.LASF84
 952 04f6 0B       		.byte	0xb
 953 04f7 38       		.byte	0x38
 954 04f8 94000000 		.4byte	0x94
 955 04fc 04       		.byte	0x4
 956 04fd 17       		.uleb128 0x17
 957 04fe 94010000 		.4byte	.LASF85
 958 0502 0B       		.byte	0xb
 959 0503 39       		.byte	0x39
 960 0504 94000000 		.4byte	0x94
 961 0508 08       		.byte	0x8
 962 0509 17       		.uleb128 0x17
 963 050a DD080000 		.4byte	.LASF86
 964 050e 0B       		.byte	0xb
 965 050f 3A       		.byte	0x3a
 966 0510 94000000 		.4byte	0x94
 967 0514 0C       		.byte	0xc
 968 0515 17       		.uleb128 0x17
 969 0516 82040000 		.4byte	.LASF87
 970 051a 0B       		.byte	0xb
 971 051b 3B       		.byte	0x3b
 972 051c 94000000 		.4byte	0x94
 973 0520 10       		.byte	0x10
 974 0521 17       		.uleb128 0x17
 975 0522 E8060000 		.4byte	.LASF88
 976 0526 0B       		.byte	0xb
 977 0527 3C       		.byte	0x3c
 978 0528 94000000 		.4byte	0x94
 979 052c 14       		.byte	0x14
 980 052d 17       		.uleb128 0x17
 981 052e CA060000 		.4byte	.LASF89
 982 0532 0B       		.byte	0xb
 983 0533 3D       		.byte	0x3d
 984 0534 94000000 		.4byte	0x94
 985 0538 18       		.byte	0x18
 986 0539 17       		.uleb128 0x17
 987 053a 7D050000 		.4byte	.LASF90
 988 053e 0B       		.byte	0xb
 989 053f 3E       		.byte	0x3e
 990 0540 94000000 		.4byte	0x94
 991 0544 1C       		.byte	0x1c
 992 0545 17       		.uleb128 0x17
 993 0546 74080000 		.4byte	.LASF91
 994 054a 0B       		.byte	0xb
 995 054b 3F       		.byte	0x3f
 996 054c 94000000 		.4byte	0x94
 997 0550 20       		.byte	0x20
 998 0551 00       		.byte	0
 999 0552 1A       		.uleb128 0x1a
 1000 0553 A3010000 		.4byte	.LASF92
ARM GAS  /tmp/cc1YujwN.s 			page 22


 1001 0557 0801     		.2byte	0x108
 1002 0559 0B       		.byte	0xb
 1003 055a 48       		.byte	0x48
 1004 055b 92050000 		.4byte	0x592
 1005 055f 17       		.uleb128 0x17
 1006 0560 7A040000 		.4byte	.LASF93
 1007 0564 0B       		.byte	0xb
 1008 0565 49       		.byte	0x49
 1009 0566 92050000 		.4byte	0x592
 1010 056a 00       		.byte	0
 1011 056b 17       		.uleb128 0x17
 1012 056c 00000000 		.4byte	.LASF94
 1013 0570 0B       		.byte	0xb
 1014 0571 4A       		.byte	0x4a
 1015 0572 92050000 		.4byte	0x592
 1016 0576 80       		.byte	0x80
 1017 0577 1B       		.uleb128 0x1b
 1018 0578 61070000 		.4byte	.LASF95
 1019 057c 0B       		.byte	0xb
 1020 057d 4C       		.byte	0x4c
 1021 057e 65040000 		.4byte	0x465
 1022 0582 0001     		.2byte	0x100
 1023 0584 1B       		.uleb128 0x1b
 1024 0585 47020000 		.4byte	.LASF96
 1025 0589 0B       		.byte	0xb
 1026 058a 4F       		.byte	0x4f
 1027 058b 65040000 		.4byte	0x465
 1028 058f 0401     		.2byte	0x104
 1029 0591 00       		.byte	0
 1030 0592 11       		.uleb128 0x11
 1031 0593 D0030000 		.4byte	0x3d0
 1032 0597 A2050000 		.4byte	0x5a2
 1033 059b 12       		.uleb128 0x12
 1034 059c E3000000 		.4byte	0xe3
 1035 05a0 1F       		.byte	0x1f
 1036 05a1 00       		.byte	0
 1037 05a2 1A       		.uleb128 0x1a
 1038 05a3 8B040000 		.4byte	.LASF97
 1039 05a7 9001     		.2byte	0x190
 1040 05a9 0B       		.byte	0xb
 1041 05aa 5B       		.byte	0x5b
 1042 05ab E0050000 		.4byte	0x5e0
 1043 05af 17       		.uleb128 0x17
 1044 05b0 29030000 		.4byte	.LASF77
 1045 05b4 0B       		.byte	0xb
 1046 05b5 5C       		.byte	0x5c
 1047 05b6 E0050000 		.4byte	0x5e0
 1048 05ba 00       		.byte	0
 1049 05bb 17       		.uleb128 0x17
 1050 05bc 4C060000 		.4byte	.LASF98
 1051 05c0 0B       		.byte	0xb
 1052 05c1 5D       		.byte	0x5d
 1053 05c2 94000000 		.4byte	0x94
 1054 05c6 04       		.byte	0x4
 1055 05c7 17       		.uleb128 0x17
 1056 05c8 F7020000 		.4byte	.LASF99
 1057 05cc 0B       		.byte	0xb
ARM GAS  /tmp/cc1YujwN.s 			page 23


 1058 05cd 5F       		.byte	0x5f
 1059 05ce E6050000 		.4byte	0x5e6
 1060 05d2 08       		.byte	0x8
 1061 05d3 17       		.uleb128 0x17
 1062 05d4 A3010000 		.4byte	.LASF92
 1063 05d8 0B       		.byte	0xb
 1064 05d9 60       		.byte	0x60
 1065 05da 52050000 		.4byte	0x552
 1066 05de 88       		.byte	0x88
 1067 05df 00       		.byte	0
 1068 05e0 10       		.uleb128 0x10
 1069 05e1 04       		.byte	0x4
 1070 05e2 A2050000 		.4byte	0x5a2
 1071 05e6 11       		.uleb128 0x11
 1072 05e7 53030000 		.4byte	0x353
 1073 05eb F6050000 		.4byte	0x5f6
 1074 05ef 12       		.uleb128 0x12
 1075 05f0 E3000000 		.4byte	0xe3
 1076 05f4 1F       		.byte	0x1f
 1077 05f5 00       		.byte	0
 1078 05f6 18       		.uleb128 0x18
 1079 05f7 DA040000 		.4byte	.LASF100
 1080 05fb 08       		.byte	0x8
 1081 05fc 0B       		.byte	0xb
 1082 05fd 73       		.byte	0x73
 1083 05fe 1B060000 		.4byte	0x61b
 1084 0602 17       		.uleb128 0x17
 1085 0603 8E010000 		.4byte	.LASF101
 1086 0607 0B       		.byte	0xb
 1087 0608 74       		.byte	0x74
 1088 0609 1B060000 		.4byte	0x61b
 1089 060d 00       		.byte	0
 1090 060e 17       		.uleb128 0x17
 1091 060f 0C070000 		.4byte	.LASF102
 1092 0613 0B       		.byte	0xb
 1093 0614 75       		.byte	0x75
 1094 0615 94000000 		.4byte	0x94
 1095 0619 04       		.byte	0x4
 1096 061a 00       		.byte	0
 1097 061b 10       		.uleb128 0x10
 1098 061c 04       		.byte	0x4
 1099 061d 37000000 		.4byte	0x37
 1100 0621 18       		.uleb128 0x18
 1101 0622 BA050000 		.4byte	.LASF103
 1102 0626 68       		.byte	0x68
 1103 0627 0B       		.byte	0xb
 1104 0628 B3       		.byte	0xb3
 1105 0629 4B070000 		.4byte	0x74b
 1106 062d 19       		.uleb128 0x19
 1107 062e 5F7000   		.ascii	"_p\000"
 1108 0631 0B       		.byte	0xb
 1109 0632 B4       		.byte	0xb4
 1110 0633 1B060000 		.4byte	0x61b
 1111 0637 00       		.byte	0
 1112 0638 19       		.uleb128 0x19
 1113 0639 5F7200   		.ascii	"_r\000"
 1114 063c 0B       		.byte	0xb
ARM GAS  /tmp/cc1YujwN.s 			page 24


 1115 063d B5       		.byte	0xb5
 1116 063e 94000000 		.4byte	0x94
 1117 0642 04       		.byte	0x4
 1118 0643 19       		.uleb128 0x19
 1119 0644 5F7700   		.ascii	"_w\000"
 1120 0647 0B       		.byte	0xb
 1121 0648 B6       		.byte	0xb6
 1122 0649 94000000 		.4byte	0x94
 1123 064d 08       		.byte	0x8
 1124 064e 17       		.uleb128 0x17
 1125 064f 30080000 		.4byte	.LASF104
 1126 0653 0B       		.byte	0xb
 1127 0654 B7       		.byte	0xb7
 1128 0655 49000000 		.4byte	0x49
 1129 0659 0C       		.byte	0xc
 1130 065a 17       		.uleb128 0x17
 1131 065b 85030000 		.4byte	.LASF105
 1132 065f 0B       		.byte	0xb
 1133 0660 B8       		.byte	0xb8
 1134 0661 49000000 		.4byte	0x49
 1135 0665 0E       		.byte	0xe
 1136 0666 19       		.uleb128 0x19
 1137 0667 5F626600 		.ascii	"_bf\000"
 1138 066b 0B       		.byte	0xb
 1139 066c B9       		.byte	0xb9
 1140 066d F6050000 		.4byte	0x5f6
 1141 0671 10       		.byte	0x10
 1142 0672 17       		.uleb128 0x17
 1143 0673 EF000000 		.4byte	.LASF106
 1144 0677 0B       		.byte	0xb
 1145 0678 BA       		.byte	0xba
 1146 0679 94000000 		.4byte	0x94
 1147 067d 18       		.byte	0x18
 1148 067e 17       		.uleb128 0x17
 1149 067f DF010000 		.4byte	.LASF107
 1150 0683 0B       		.byte	0xb
 1151 0684 C1       		.byte	0xc1
 1152 0685 D0030000 		.4byte	0x3d0
 1153 0689 1C       		.byte	0x1c
 1154 068a 17       		.uleb128 0x17
 1155 068b 2F030000 		.4byte	.LASF108
 1156 068f 0B       		.byte	0xb
 1157 0690 C3       		.byte	0xc3
 1158 0691 B8080000 		.4byte	0x8b8
 1159 0695 20       		.byte	0x20
 1160 0696 17       		.uleb128 0x17
 1161 0697 FE030000 		.4byte	.LASF109
 1162 069b 0B       		.byte	0xb
 1163 069c C5       		.byte	0xc5
 1164 069d E7080000 		.4byte	0x8e7
 1165 06a1 24       		.byte	0x24
 1166 06a2 17       		.uleb128 0x17
 1167 06a3 B4060000 		.4byte	.LASF110
 1168 06a7 0B       		.byte	0xb
 1169 06a8 C8       		.byte	0xc8
 1170 06a9 0B090000 		.4byte	0x90b
 1171 06ad 28       		.byte	0x28
ARM GAS  /tmp/cc1YujwN.s 			page 25


 1172 06ae 17       		.uleb128 0x17
 1173 06af 6B010000 		.4byte	.LASF111
 1174 06b3 0B       		.byte	0xb
 1175 06b4 C9       		.byte	0xc9
 1176 06b5 25090000 		.4byte	0x925
 1177 06b9 2C       		.byte	0x2c
 1178 06ba 19       		.uleb128 0x19
 1179 06bb 5F756200 		.ascii	"_ub\000"
 1180 06bf 0B       		.byte	0xb
 1181 06c0 CC       		.byte	0xcc
 1182 06c1 F6050000 		.4byte	0x5f6
 1183 06c5 30       		.byte	0x30
 1184 06c6 19       		.uleb128 0x19
 1185 06c7 5F757000 		.ascii	"_up\000"
 1186 06cb 0B       		.byte	0xb
 1187 06cc CD       		.byte	0xcd
 1188 06cd 1B060000 		.4byte	0x61b
 1189 06d1 38       		.byte	0x38
 1190 06d2 19       		.uleb128 0x19
 1191 06d3 5F757200 		.ascii	"_ur\000"
 1192 06d7 0B       		.byte	0xb
 1193 06d8 CE       		.byte	0xce
 1194 06d9 94000000 		.4byte	0x94
 1195 06dd 3C       		.byte	0x3c
 1196 06de 17       		.uleb128 0x17
 1197 06df 7E010000 		.4byte	.LASF112
 1198 06e3 0B       		.byte	0xb
 1199 06e4 D1       		.byte	0xd1
 1200 06e5 2B090000 		.4byte	0x92b
 1201 06e9 40       		.byte	0x40
 1202 06ea 17       		.uleb128 0x17
 1203 06eb 66080000 		.4byte	.LASF113
 1204 06ef 0B       		.byte	0xb
 1205 06f0 D2       		.byte	0xd2
 1206 06f1 3B090000 		.4byte	0x93b
 1207 06f5 43       		.byte	0x43
 1208 06f6 19       		.uleb128 0x19
 1209 06f7 5F6C6200 		.ascii	"_lb\000"
 1210 06fb 0B       		.byte	0xb
 1211 06fc D5       		.byte	0xd5
 1212 06fd F6050000 		.4byte	0x5f6
 1213 0701 44       		.byte	0x44
 1214 0702 17       		.uleb128 0x17
 1215 0703 FE060000 		.4byte	.LASF114
 1216 0707 0B       		.byte	0xb
 1217 0708 D8       		.byte	0xd8
 1218 0709 94000000 		.4byte	0x94
 1219 070d 4C       		.byte	0x4c
 1220 070e 17       		.uleb128 0x17
 1221 070f 48040000 		.4byte	.LASF115
 1222 0713 0B       		.byte	0xb
 1223 0714 D9       		.byte	0xd9
 1224 0715 DD030000 		.4byte	0x3dd
 1225 0719 50       		.byte	0x50
 1226 071a 17       		.uleb128 0x17
 1227 071b 8B030000 		.4byte	.LASF116
 1228 071f 0B       		.byte	0xb
ARM GAS  /tmp/cc1YujwN.s 			page 26


 1229 0720 DC       		.byte	0xdc
 1230 0721 69070000 		.4byte	0x769
 1231 0725 54       		.byte	0x54
 1232 0726 17       		.uleb128 0x17
 1233 0727 E8030000 		.4byte	.LASF117
 1234 072b 0B       		.byte	0xb
 1235 072c E0       		.byte	0xe0
 1236 072d 5A040000 		.4byte	0x45a
 1237 0731 58       		.byte	0x58
 1238 0732 17       		.uleb128 0x17
 1239 0733 7A000000 		.4byte	.LASF118
 1240 0737 0B       		.byte	0xb
 1241 0738 E2       		.byte	0xe2
 1242 0739 4F040000 		.4byte	0x44f
 1243 073d 5C       		.byte	0x5c
 1244 073e 17       		.uleb128 0x17
 1245 073f 95050000 		.4byte	.LASF119
 1246 0743 0B       		.byte	0xb
 1247 0744 E3       		.byte	0xe3
 1248 0745 94000000 		.4byte	0x94
 1249 0749 64       		.byte	0x64
 1250 074a 00       		.byte	0
 1251 074b 1C       		.uleb128 0x1c
 1252 074c 94000000 		.4byte	0x94
 1253 0750 69070000 		.4byte	0x769
 1254 0754 1D       		.uleb128 0x1d
 1255 0755 69070000 		.4byte	0x769
 1256 0759 1D       		.uleb128 0x1d
 1257 075a D0030000 		.4byte	0x3d0
 1258 075e 1D       		.uleb128 0x1d
 1259 075f A6080000 		.4byte	0x8a6
 1260 0763 1D       		.uleb128 0x1d
 1261 0764 94000000 		.4byte	0x94
 1262 0768 00       		.byte	0
 1263 0769 10       		.uleb128 0x10
 1264 076a 04       		.byte	0x4
 1265 076b 74070000 		.4byte	0x774
 1266 076f 1E       		.uleb128 0x1e
 1267 0770 69070000 		.4byte	0x769
 1268 0774 1F       		.uleb128 0x1f
 1269 0775 7F060000 		.4byte	.LASF120
 1270 0779 2804     		.2byte	0x428
 1271 077b 0B       		.byte	0xb
 1272 077c 3802     		.2byte	0x238
 1273 077e A6080000 		.4byte	0x8a6
 1274 0782 0D       		.uleb128 0xd
 1275 0783 F2060000 		.4byte	.LASF121
 1276 0787 0B       		.byte	0xb
 1277 0788 3A02     		.2byte	0x23a
 1278 078a 94000000 		.4byte	0x94
 1279 078e 00       		.byte	0
 1280 078f 0D       		.uleb128 0xd
 1281 0790 4F020000 		.4byte	.LASF122
 1282 0794 0B       		.byte	0xb
 1283 0795 3F02     		.2byte	0x23f
 1284 0797 92090000 		.4byte	0x992
 1285 079b 04       		.byte	0x4
ARM GAS  /tmp/cc1YujwN.s 			page 27


 1286 079c 0D       		.uleb128 0xd
 1287 079d 15080000 		.4byte	.LASF123
 1288 07a1 0B       		.byte	0xb
 1289 07a2 3F02     		.2byte	0x23f
 1290 07a4 92090000 		.4byte	0x992
 1291 07a8 08       		.byte	0x8
 1292 07a9 0D       		.uleb128 0xd
 1293 07aa 19030000 		.4byte	.LASF124
 1294 07ae 0B       		.byte	0xb
 1295 07af 3F02     		.2byte	0x23f
 1296 07b1 92090000 		.4byte	0x992
 1297 07b5 0C       		.byte	0xc
 1298 07b6 0D       		.uleb128 0xd
 1299 07b7 47060000 		.4byte	.LASF125
 1300 07bb 0B       		.byte	0xb
 1301 07bc 4102     		.2byte	0x241
 1302 07be 94000000 		.4byte	0x94
 1303 07c2 10       		.byte	0x10
 1304 07c3 0D       		.uleb128 0xd
 1305 07c4 6F000000 		.4byte	.LASF126
 1306 07c8 0B       		.byte	0xb
 1307 07c9 4202     		.2byte	0x242
 1308 07cb 740B0000 		.4byte	0xb74
 1309 07cf 14       		.byte	0x14
 1310 07d0 0D       		.uleb128 0xd
 1311 07d1 CE070000 		.4byte	.LASF127
 1312 07d5 0B       		.byte	0xb
 1313 07d6 4402     		.2byte	0x244
 1314 07d8 94000000 		.4byte	0x94
 1315 07dc 30       		.byte	0x30
 1316 07dd 0D       		.uleb128 0xd
 1317 07de 51060000 		.4byte	.LASF128
 1318 07e2 0B       		.byte	0xb
 1319 07e3 4502     		.2byte	0x245
 1320 07e5 DC080000 		.4byte	0x8dc
 1321 07e9 34       		.byte	0x34
 1322 07ea 0D       		.uleb128 0xd
 1323 07eb A3040000 		.4byte	.LASF129
 1324 07ef 0B       		.byte	0xb
 1325 07f0 4702     		.2byte	0x247
 1326 07f2 94000000 		.4byte	0x94
 1327 07f6 38       		.byte	0x38
 1328 07f7 0D       		.uleb128 0xd
 1329 07f8 6D060000 		.4byte	.LASF130
 1330 07fc 0B       		.byte	0xb
 1331 07fd 4902     		.2byte	0x249
 1332 07ff 8F0B0000 		.4byte	0xb8f
 1333 0803 3C       		.byte	0x3c
 1334 0804 0D       		.uleb128 0xd
 1335 0805 BC030000 		.4byte	.LASF131
 1336 0809 0B       		.byte	0xb
 1337 080a 4C02     		.2byte	0x24c
 1338 080c C3040000 		.4byte	0x4c3
 1339 0810 40       		.byte	0x40
 1340 0811 0D       		.uleb128 0xd
 1341 0812 64020000 		.4byte	.LASF132
 1342 0816 0B       		.byte	0xb
ARM GAS  /tmp/cc1YujwN.s 			page 28


 1343 0817 4D02     		.2byte	0x24d
 1344 0819 94000000 		.4byte	0x94
 1345 081d 44       		.byte	0x44
 1346 081e 0D       		.uleb128 0xd
 1347 081f B9080000 		.4byte	.LASF133
 1348 0823 0B       		.byte	0xb
 1349 0824 4E02     		.2byte	0x24e
 1350 0826 C3040000 		.4byte	0x4c3
 1351 082a 48       		.byte	0x48
 1352 082b 0D       		.uleb128 0xd
 1353 082c CA040000 		.4byte	.LASF134
 1354 0830 0B       		.byte	0xb
 1355 0831 4F02     		.2byte	0x24f
 1356 0833 950B0000 		.4byte	0xb95
 1357 0837 4C       		.byte	0x4c
 1358 0838 0D       		.uleb128 0xd
 1359 0839 6B030000 		.4byte	.LASF135
 1360 083d 0B       		.byte	0xb
 1361 083e 5202     		.2byte	0x252
 1362 0840 94000000 		.4byte	0x94
 1363 0844 50       		.byte	0x50
 1364 0845 0D       		.uleb128 0xd
 1365 0846 97020000 		.4byte	.LASF136
 1366 084a 0B       		.byte	0xb
 1367 084b 5302     		.2byte	0x253
 1368 084d A6080000 		.4byte	0x8a6
 1369 0851 54       		.byte	0x54
 1370 0852 0D       		.uleb128 0xd
 1371 0853 E3030000 		.4byte	.LASF137
 1372 0857 0B       		.byte	0xb
 1373 0858 7602     		.2byte	0x276
 1374 085a 520B0000 		.4byte	0xb52
 1375 085e 58       		.byte	0x58
 1376 085f 20       		.uleb128 0x20
 1377 0860 8B040000 		.4byte	.LASF97
 1378 0864 0B       		.byte	0xb
 1379 0865 7A02     		.2byte	0x27a
 1380 0867 E0050000 		.4byte	0x5e0
 1381 086b 4801     		.2byte	0x148
 1382 086d 20       		.uleb128 0x20
 1383 086e 8D000000 		.4byte	.LASF138
 1384 0872 0B       		.byte	0xb
 1385 0873 7B02     		.2byte	0x27b
 1386 0875 A2050000 		.4byte	0x5a2
 1387 0879 4C01     		.2byte	0x14c
 1388 087b 20       		.uleb128 0x20
 1389 087c 49080000 		.4byte	.LASF139
 1390 0880 0B       		.byte	0xb
 1391 0881 7F02     		.2byte	0x27f
 1392 0883 A60B0000 		.4byte	0xba6
 1393 0887 DC02     		.2byte	0x2dc
 1394 0889 20       		.uleb128 0x20
 1395 088a F2010000 		.4byte	.LASF140
 1396 088e 0B       		.byte	0xb
 1397 088f 8402     		.2byte	0x284
 1398 0891 57090000 		.4byte	0x957
 1399 0895 E002     		.2byte	0x2e0
ARM GAS  /tmp/cc1YujwN.s 			page 29


 1400 0897 20       		.uleb128 0x20
 1401 0898 9E010000 		.4byte	.LASF141
 1402 089c 0B       		.byte	0xb
 1403 089d 8502     		.2byte	0x285
 1404 089f B20B0000 		.4byte	0xbb2
 1405 08a3 EC02     		.2byte	0x2ec
 1406 08a5 00       		.byte	0
 1407 08a6 10       		.uleb128 0x10
 1408 08a7 04       		.byte	0x4
 1409 08a8 AC080000 		.4byte	0x8ac
 1410 08ac 02       		.uleb128 0x2
 1411 08ad 01       		.byte	0x1
 1412 08ae 08       		.byte	0x8
 1413 08af F9060000 		.4byte	.LASF142
 1414 08b3 1E       		.uleb128 0x1e
 1415 08b4 AC080000 		.4byte	0x8ac
 1416 08b8 10       		.uleb128 0x10
 1417 08b9 04       		.byte	0x4
 1418 08ba 4B070000 		.4byte	0x74b
 1419 08be 1C       		.uleb128 0x1c
 1420 08bf 94000000 		.4byte	0x94
 1421 08c3 DC080000 		.4byte	0x8dc
 1422 08c7 1D       		.uleb128 0x1d
 1423 08c8 69070000 		.4byte	0x769
 1424 08cc 1D       		.uleb128 0x1d
 1425 08cd D0030000 		.4byte	0x3d0
 1426 08d1 1D       		.uleb128 0x1d
 1427 08d2 DC080000 		.4byte	0x8dc
 1428 08d6 1D       		.uleb128 0x1d
 1429 08d7 94000000 		.4byte	0x94
 1430 08db 00       		.byte	0
 1431 08dc 10       		.uleb128 0x10
 1432 08dd 04       		.byte	0x4
 1433 08de B3080000 		.4byte	0x8b3
 1434 08e2 1E       		.uleb128 0x1e
 1435 08e3 DC080000 		.4byte	0x8dc
 1436 08e7 10       		.uleb128 0x10
 1437 08e8 04       		.byte	0x4
 1438 08e9 BE080000 		.4byte	0x8be
 1439 08ed 1C       		.uleb128 0x1c
 1440 08ee E8030000 		.4byte	0x3e8
 1441 08f2 0B090000 		.4byte	0x90b
 1442 08f6 1D       		.uleb128 0x1d
 1443 08f7 69070000 		.4byte	0x769
 1444 08fb 1D       		.uleb128 0x1d
 1445 08fc D0030000 		.4byte	0x3d0
 1446 0900 1D       		.uleb128 0x1d
 1447 0901 E8030000 		.4byte	0x3e8
 1448 0905 1D       		.uleb128 0x1d
 1449 0906 94000000 		.4byte	0x94
 1450 090a 00       		.byte	0
 1451 090b 10       		.uleb128 0x10
 1452 090c 04       		.byte	0x4
 1453 090d ED080000 		.4byte	0x8ed
 1454 0911 1C       		.uleb128 0x1c
 1455 0912 94000000 		.4byte	0x94
 1456 0916 25090000 		.4byte	0x925
ARM GAS  /tmp/cc1YujwN.s 			page 30


 1457 091a 1D       		.uleb128 0x1d
 1458 091b 69070000 		.4byte	0x769
 1459 091f 1D       		.uleb128 0x1d
 1460 0920 D0030000 		.4byte	0x3d0
 1461 0924 00       		.byte	0
 1462 0925 10       		.uleb128 0x10
 1463 0926 04       		.byte	0x4
 1464 0927 11090000 		.4byte	0x911
 1465 092b 11       		.uleb128 0x11
 1466 092c 37000000 		.4byte	0x37
 1467 0930 3B090000 		.4byte	0x93b
 1468 0934 12       		.uleb128 0x12
 1469 0935 E3000000 		.4byte	0xe3
 1470 0939 02       		.byte	0x2
 1471 093a 00       		.byte	0
 1472 093b 11       		.uleb128 0x11
 1473 093c 37000000 		.4byte	0x37
 1474 0940 4B090000 		.4byte	0x94b
 1475 0944 12       		.uleb128 0x12
 1476 0945 E3000000 		.4byte	0xe3
 1477 0949 00       		.byte	0
 1478 094a 00       		.byte	0
 1479 094b 0E       		.uleb128 0xe
 1480 094c A8050000 		.4byte	.LASF143
 1481 0950 0B       		.byte	0xb
 1482 0951 1D01     		.2byte	0x11d
 1483 0953 21060000 		.4byte	0x621
 1484 0957 21       		.uleb128 0x21
 1485 0958 1D080000 		.4byte	.LASF144
 1486 095c 0C       		.byte	0xc
 1487 095d 0B       		.byte	0xb
 1488 095e 2101     		.2byte	0x121
 1489 0960 8C090000 		.4byte	0x98c
 1490 0964 0D       		.uleb128 0xd
 1491 0965 29030000 		.4byte	.LASF77
 1492 0969 0B       		.byte	0xb
 1493 096a 2301     		.2byte	0x123
 1494 096c 8C090000 		.4byte	0x98c
 1495 0970 00       		.byte	0
 1496 0971 0D       		.uleb128 0xd
 1497 0972 91030000 		.4byte	.LASF145
 1498 0976 0B       		.byte	0xb
 1499 0977 2401     		.2byte	0x124
 1500 0979 94000000 		.4byte	0x94
 1501 097d 04       		.byte	0x4
 1502 097e 0D       		.uleb128 0xd
 1503 097f 5F050000 		.4byte	.LASF146
 1504 0983 0B       		.byte	0xb
 1505 0984 2501     		.2byte	0x125
 1506 0986 92090000 		.4byte	0x992
 1507 098a 08       		.byte	0x8
 1508 098b 00       		.byte	0
 1509 098c 10       		.uleb128 0x10
 1510 098d 04       		.byte	0x4
 1511 098e 57090000 		.4byte	0x957
 1512 0992 10       		.uleb128 0x10
 1513 0993 04       		.byte	0x4
ARM GAS  /tmp/cc1YujwN.s 			page 31


 1514 0994 4B090000 		.4byte	0x94b
 1515 0998 21       		.uleb128 0x21
 1516 0999 58000000 		.4byte	.LASF147
 1517 099d 0E       		.byte	0xe
 1518 099e 0B       		.byte	0xb
 1519 099f 3D01     		.2byte	0x13d
 1520 09a1 CD090000 		.4byte	0x9cd
 1521 09a5 0D       		.uleb128 0xd
 1522 09a6 86060000 		.4byte	.LASF148
 1523 09aa 0B       		.byte	0xb
 1524 09ab 3E01     		.2byte	0x13e
 1525 09ad CD090000 		.4byte	0x9cd
 1526 09b1 00       		.byte	0
 1527 09b2 0D       		.uleb128 0xd
 1528 09b3 F8030000 		.4byte	.LASF149
 1529 09b7 0B       		.byte	0xb
 1530 09b8 3F01     		.2byte	0x13f
 1531 09ba CD090000 		.4byte	0x9cd
 1532 09be 06       		.byte	0x6
 1533 09bf 0D       		.uleb128 0xd
 1534 09c0 8F070000 		.4byte	.LASF150
 1535 09c4 0B       		.byte	0xb
 1536 09c5 4001     		.2byte	0x140
 1537 09c7 5B000000 		.4byte	0x5b
 1538 09cb 0C       		.byte	0xc
 1539 09cc 00       		.byte	0
 1540 09cd 11       		.uleb128 0x11
 1541 09ce 5B000000 		.4byte	0x5b
 1542 09d2 DD090000 		.4byte	0x9dd
 1543 09d6 12       		.uleb128 0x12
 1544 09d7 E3000000 		.4byte	0xe3
 1545 09db 02       		.byte	0x2
 1546 09dc 00       		.byte	0
 1547 09dd 0B       		.uleb128 0xb
 1548 09de D0       		.byte	0xd0
 1549 09df 0B       		.byte	0xb
 1550 09e0 5702     		.2byte	0x257
 1551 09e2 DE0A0000 		.4byte	0xade
 1552 09e6 0D       		.uleb128 0xd
 1553 09e7 DF020000 		.4byte	.LASF151
 1554 09eb 0B       		.byte	0xb
 1555 09ec 5902     		.2byte	0x259
 1556 09ee 9B000000 		.4byte	0x9b
 1557 09f2 00       		.byte	0
 1558 09f3 0D       		.uleb128 0xd
 1559 09f4 54070000 		.4byte	.LASF152
 1560 09f8 0B       		.byte	0xb
 1561 09f9 5A02     		.2byte	0x25a
 1562 09fb A6080000 		.4byte	0x8a6
 1563 09ff 04       		.byte	0x4
 1564 0a00 0D       		.uleb128 0xd
 1565 0a01 AF030000 		.4byte	.LASF153
 1566 0a05 0B       		.byte	0xb
 1567 0a06 5B02     		.2byte	0x25b
 1568 0a08 DE0A0000 		.4byte	0xade
 1569 0a0c 08       		.byte	0x8
 1570 0a0d 0D       		.uleb128 0xd
ARM GAS  /tmp/cc1YujwN.s 			page 32


 1571 0a0e 7F080000 		.4byte	.LASF154
 1572 0a12 0B       		.byte	0xb
 1573 0a13 5C02     		.2byte	0x25c
 1574 0a15 D9040000 		.4byte	0x4d9
 1575 0a19 24       		.byte	0x24
 1576 0a1a 0D       		.uleb128 0xd
 1577 0a1b AE040000 		.4byte	.LASF155
 1578 0a1f 0B       		.byte	0xb
 1579 0a20 5D02     		.2byte	0x25d
 1580 0a22 94000000 		.4byte	0x94
 1581 0a26 48       		.byte	0x48
 1582 0a27 0D       		.uleb128 0xd
 1583 0a28 98030000 		.4byte	.LASF156
 1584 0a2c 0B       		.byte	0xb
 1585 0a2d 5E02     		.2byte	0x25e
 1586 0a2f 8D000000 		.4byte	0x8d
 1587 0a33 50       		.byte	0x50
 1588 0a34 0D       		.uleb128 0xd
 1589 0a35 97080000 		.4byte	.LASF157
 1590 0a39 0B       		.byte	0xb
 1591 0a3a 5F02     		.2byte	0x25f
 1592 0a3c 98090000 		.4byte	0x998
 1593 0a40 58       		.byte	0x58
 1594 0a41 0D       		.uleb128 0xd
 1595 0a42 3A060000 		.4byte	.LASF158
 1596 0a46 0B       		.byte	0xb
 1597 0a47 6002     		.2byte	0x260
 1598 0a49 4F040000 		.4byte	0x44f
 1599 0a4d 68       		.byte	0x68
 1600 0a4e 0D       		.uleb128 0xd
 1601 0a4f 9C080000 		.4byte	.LASF159
 1602 0a53 0B       		.byte	0xb
 1603 0a54 6102     		.2byte	0x261
 1604 0a56 4F040000 		.4byte	0x44f
 1605 0a5a 70       		.byte	0x70
 1606 0a5b 0D       		.uleb128 0xd
 1607 0a5c 48010000 		.4byte	.LASF160
 1608 0a60 0B       		.byte	0xb
 1609 0a61 6202     		.2byte	0x262
 1610 0a63 4F040000 		.4byte	0x44f
 1611 0a67 78       		.byte	0x78
 1612 0a68 0D       		.uleb128 0xd
 1613 0a69 3F080000 		.4byte	.LASF161
 1614 0a6d 0B       		.byte	0xb
 1615 0a6e 6302     		.2byte	0x263
 1616 0a70 EE0A0000 		.4byte	0xaee
 1617 0a74 80       		.byte	0x80
 1618 0a75 0D       		.uleb128 0xd
 1619 0a76 A3030000 		.4byte	.LASF162
 1620 0a7a 0B       		.byte	0xb
 1621 0a7b 6402     		.2byte	0x264
 1622 0a7d FE0A0000 		.4byte	0xafe
 1623 0a81 88       		.byte	0x88
 1624 0a82 0D       		.uleb128 0xd
 1625 0a83 9C070000 		.4byte	.LASF163
 1626 0a87 0B       		.byte	0xb
 1627 0a88 6502     		.2byte	0x265
ARM GAS  /tmp/cc1YujwN.s 			page 33


 1628 0a8a 94000000 		.4byte	0x94
 1629 0a8e A0       		.byte	0xa0
 1630 0a8f 0D       		.uleb128 0xd
 1631 0a90 D1020000 		.4byte	.LASF164
 1632 0a94 0B       		.byte	0xb
 1633 0a95 6602     		.2byte	0x266
 1634 0a97 4F040000 		.4byte	0x44f
 1635 0a9b A4       		.byte	0xa4
 1636 0a9c 0D       		.uleb128 0xd
 1637 0a9d 34010000 		.4byte	.LASF165
 1638 0aa1 0B       		.byte	0xb
 1639 0aa2 6702     		.2byte	0x267
 1640 0aa4 4F040000 		.4byte	0x44f
 1641 0aa8 AC       		.byte	0xac
 1642 0aa9 0D       		.uleb128 0xd
 1643 0aaa C0020000 		.4byte	.LASF166
 1644 0aae 0B       		.byte	0xb
 1645 0aaf 6802     		.2byte	0x268
 1646 0ab1 4F040000 		.4byte	0x44f
 1647 0ab5 B4       		.byte	0xb4
 1648 0ab6 0D       		.uleb128 0xd
 1649 0ab7 A9000000 		.4byte	.LASF167
 1650 0abb 0B       		.byte	0xb
 1651 0abc 6902     		.2byte	0x269
 1652 0abe 4F040000 		.4byte	0x44f
 1653 0ac2 BC       		.byte	0xbc
 1654 0ac3 0D       		.uleb128 0xd
 1655 0ac4 B8000000 		.4byte	.LASF168
 1656 0ac8 0B       		.byte	0xb
 1657 0ac9 6A02     		.2byte	0x26a
 1658 0acb 4F040000 		.4byte	0x44f
 1659 0acf C4       		.byte	0xc4
 1660 0ad0 0D       		.uleb128 0xd
 1661 0ad1 65050000 		.4byte	.LASF169
 1662 0ad5 0B       		.byte	0xb
 1663 0ad6 6B02     		.2byte	0x26b
 1664 0ad8 94000000 		.4byte	0x94
 1665 0adc CC       		.byte	0xcc
 1666 0add 00       		.byte	0
 1667 0ade 11       		.uleb128 0x11
 1668 0adf AC080000 		.4byte	0x8ac
 1669 0ae3 EE0A0000 		.4byte	0xaee
 1670 0ae7 12       		.uleb128 0x12
 1671 0ae8 E3000000 		.4byte	0xe3
 1672 0aec 19       		.byte	0x19
 1673 0aed 00       		.byte	0
 1674 0aee 11       		.uleb128 0x11
 1675 0aef AC080000 		.4byte	0x8ac
 1676 0af3 FE0A0000 		.4byte	0xafe
 1677 0af7 12       		.uleb128 0x12
 1678 0af8 E3000000 		.4byte	0xe3
 1679 0afc 07       		.byte	0x7
 1680 0afd 00       		.byte	0
 1681 0afe 11       		.uleb128 0x11
 1682 0aff AC080000 		.4byte	0x8ac
 1683 0b03 0E0B0000 		.4byte	0xb0e
 1684 0b07 12       		.uleb128 0x12
ARM GAS  /tmp/cc1YujwN.s 			page 34


 1685 0b08 E3000000 		.4byte	0xe3
 1686 0b0c 17       		.byte	0x17
 1687 0b0d 00       		.byte	0
 1688 0b0e 0B       		.uleb128 0xb
 1689 0b0f F0       		.byte	0xf0
 1690 0b10 0B       		.byte	0xb
 1691 0b11 7002     		.2byte	0x270
 1692 0b13 320B0000 		.4byte	0xb32
 1693 0b17 0D       		.uleb128 0xd
 1694 0b18 CA030000 		.4byte	.LASF170
 1695 0b1c 0B       		.byte	0xb
 1696 0b1d 7302     		.2byte	0x273
 1697 0b1f 320B0000 		.4byte	0xb32
 1698 0b23 00       		.byte	0
 1699 0b24 0D       		.uleb128 0xd
 1700 0b25 13040000 		.4byte	.LASF171
 1701 0b29 0B       		.byte	0xb
 1702 0b2a 7402     		.2byte	0x274
 1703 0b2c 420B0000 		.4byte	0xb42
 1704 0b30 78       		.byte	0x78
 1705 0b31 00       		.byte	0
 1706 0b32 11       		.uleb128 0x11
 1707 0b33 1B060000 		.4byte	0x61b
 1708 0b37 420B0000 		.4byte	0xb42
 1709 0b3b 12       		.uleb128 0x12
 1710 0b3c E3000000 		.4byte	0xe3
 1711 0b40 1D       		.byte	0x1d
 1712 0b41 00       		.byte	0
 1713 0b42 11       		.uleb128 0x11
 1714 0b43 9B000000 		.4byte	0x9b
 1715 0b47 520B0000 		.4byte	0xb52
 1716 0b4b 12       		.uleb128 0x12
 1717 0b4c E3000000 		.4byte	0xe3
 1718 0b50 1D       		.byte	0x1d
 1719 0b51 00       		.byte	0
 1720 0b52 22       		.uleb128 0x22
 1721 0b53 F0       		.byte	0xf0
 1722 0b54 0B       		.byte	0xb
 1723 0b55 5502     		.2byte	0x255
 1724 0b57 740B0000 		.4byte	0xb74
 1725 0b5b 23       		.uleb128 0x23
 1726 0b5c 7F060000 		.4byte	.LASF120
 1727 0b60 0B       		.byte	0xb
 1728 0b61 6C02     		.2byte	0x26c
 1729 0b63 DD090000 		.4byte	0x9dd
 1730 0b67 23       		.uleb128 0x23
 1731 0b68 6C080000 		.4byte	.LASF172
 1732 0b6c 0B       		.byte	0xb
 1733 0b6d 7502     		.2byte	0x275
 1734 0b6f 0E0B0000 		.4byte	0xb0e
 1735 0b73 00       		.byte	0
 1736 0b74 11       		.uleb128 0x11
 1737 0b75 AC080000 		.4byte	0x8ac
 1738 0b79 840B0000 		.4byte	0xb84
 1739 0b7d 12       		.uleb128 0x12
 1740 0b7e E3000000 		.4byte	0xe3
 1741 0b82 18       		.byte	0x18
ARM GAS  /tmp/cc1YujwN.s 			page 35


 1742 0b83 00       		.byte	0
 1743 0b84 24       		.uleb128 0x24
 1744 0b85 8F0B0000 		.4byte	0xb8f
 1745 0b89 1D       		.uleb128 0x1d
 1746 0b8a 69070000 		.4byte	0x769
 1747 0b8e 00       		.byte	0
 1748 0b8f 10       		.uleb128 0x10
 1749 0b90 04       		.byte	0x4
 1750 0b91 840B0000 		.4byte	0xb84
 1751 0b95 10       		.uleb128 0x10
 1752 0b96 04       		.byte	0x4
 1753 0b97 C3040000 		.4byte	0x4c3
 1754 0b9b 24       		.uleb128 0x24
 1755 0b9c A60B0000 		.4byte	0xba6
 1756 0ba0 1D       		.uleb128 0x1d
 1757 0ba1 94000000 		.4byte	0x94
 1758 0ba5 00       		.byte	0
 1759 0ba6 10       		.uleb128 0x10
 1760 0ba7 04       		.byte	0x4
 1761 0ba8 AC0B0000 		.4byte	0xbac
 1762 0bac 10       		.uleb128 0x10
 1763 0bad 04       		.byte	0x4
 1764 0bae 9B0B0000 		.4byte	0xb9b
 1765 0bb2 11       		.uleb128 0x11
 1766 0bb3 4B090000 		.4byte	0x94b
 1767 0bb7 C20B0000 		.4byte	0xbc2
 1768 0bbb 12       		.uleb128 0x12
 1769 0bbc E3000000 		.4byte	0xe3
 1770 0bc0 02       		.byte	0x2
 1771 0bc1 00       		.byte	0
 1772 0bc2 06       		.uleb128 0x6
 1773 0bc3 0D030000 		.4byte	.LASF173
 1774 0bc7 0B       		.byte	0xb
 1775 0bc8 FD02     		.2byte	0x2fd
 1776 0bca 69070000 		.4byte	0x769
 1777 0bce 06       		.uleb128 0x6
 1778 0bcf BB070000 		.4byte	.LASF174
 1779 0bd3 0B       		.byte	0xb
 1780 0bd4 FE02     		.2byte	0x2fe
 1781 0bd6 6F070000 		.4byte	0x76f
 1782 0bda 07       		.uleb128 0x7
 1783 0bdb EE030000 		.4byte	.LASF175
 1784 0bdf 0C       		.byte	0xc
 1785 0be0 5F       		.byte	0x5f
 1786 0be1 A6080000 		.4byte	0x8a6
 1787 0be5 02       		.uleb128 0x2
 1788 0be6 08       		.byte	0x8
 1789 0be7 04       		.byte	0x4
 1790 0be8 C6080000 		.4byte	.LASF176
 1791 0bec 02       		.uleb128 0x2
 1792 0bed 08       		.byte	0x8
 1793 0bee 04       		.byte	0x4
 1794 0bef DC060000 		.4byte	.LASF177
 1795 0bf3 25       		.uleb128 0x25
 1796 0bf4 1C040000 		.4byte	.LASF209
 1797 0bf8 01       		.byte	0x1
 1798 0bf9 25000000 		.4byte	0x25
ARM GAS  /tmp/cc1YujwN.s 			page 36


 1799 0bfd 0D       		.byte	0xd
 1800 0bfe 9902     		.2byte	0x299
 1801 0c00 1D0C0000 		.4byte	0xc1d
 1802 0c04 26       		.uleb128 0x26
 1803 0c05 87050000 		.4byte	.LASF178
 1804 0c09 7F       		.sleb128 -1
 1805 0c0a 09       		.uleb128 0x9
 1806 0c0b 56020000 		.4byte	.LASF179
 1807 0c0f 00       		.byte	0
 1808 0c10 09       		.uleb128 0x9
 1809 0c11 60000000 		.4byte	.LASF180
 1810 0c15 01       		.byte	0x1
 1811 0c16 09       		.uleb128 0x9
 1812 0c17 E0000000 		.4byte	.LASF181
 1813 0c1b 02       		.byte	0x2
 1814 0c1c 00       		.byte	0
 1815 0c1d 06       		.uleb128 0x6
 1816 0c1e 1F010000 		.4byte	.LASF182
 1817 0c22 0D       		.byte	0xd
 1818 0c23 A402     		.2byte	0x2a4
 1819 0c25 F30B0000 		.4byte	0xbf3
 1820 0c29 11       		.uleb128 0x11
 1821 0c2a E2080000 		.4byte	0x8e2
 1822 0c2e 340C0000 		.4byte	0xc34
 1823 0c32 27       		.uleb128 0x27
 1824 0c33 00       		.byte	0
 1825 0c34 1E       		.uleb128 0x1e
 1826 0c35 290C0000 		.4byte	0xc29
 1827 0c39 07       		.uleb128 0x7
 1828 0c3a 8A020000 		.4byte	.LASF183
 1829 0c3e 0E       		.byte	0xe
 1830 0c3f 14       		.byte	0x14
 1831 0c40 340C0000 		.4byte	0xc34
 1832 0c44 07       		.uleb128 0x7
 1833 0c45 C2050000 		.4byte	.LASF184
 1834 0c49 0E       		.byte	0xe
 1835 0c4a 15       		.byte	0x15
 1836 0c4b 94000000 		.4byte	0x94
 1837 0c4f 28       		.uleb128 0x28
 1838 0c50 9F020000 		.4byte	.LASF185
 1839 0c54 01       		.byte	0x1
 1840 0c55 04       		.byte	0x4
 1841 0c56 B8000000 		.4byte	0xb8
 1842 0c5a 05       		.uleb128 0x5
 1843 0c5b 03       		.byte	0x3
 1844 0c5c 00000000 		.4byte	timer_counter
 1845 0c60 29       		.uleb128 0x29
 1846 0c61 6E050000 		.4byte	.LASF186
 1847 0c65 01       		.byte	0x1
 1848 0c66 92       		.byte	0x92
 1849 0c67 64000000 		.4byte	.LFB74
 1850 0c6b 44000000 		.4byte	.LFE74-.LFB74
 1851 0c6f 01       		.uleb128 0x1
 1852 0c70 9C       		.byte	0x9c
 1853 0c71 0C0D0000 		.4byte	0xd0c
 1854 0c75 2A       		.uleb128 0x2a
 1855 0c76 6C000000 		.4byte	.LVL7
ARM GAS  /tmp/cc1YujwN.s 			page 37


 1856 0c7a 590E0000 		.4byte	0xe59
 1857 0c7e 880C0000 		.4byte	0xc88
 1858 0c82 2B       		.uleb128 0x2b
 1859 0c83 01       		.uleb128 0x1
 1860 0c84 50       		.byte	0x50
 1861 0c85 01       		.uleb128 0x1
 1862 0c86 38       		.byte	0x38
 1863 0c87 00       		.byte	0
 1864 0c88 2A       		.uleb128 0x2a
 1865 0c89 74000000 		.4byte	.LVL8
 1866 0c8d 590E0000 		.4byte	0xe59
 1867 0c91 9B0C0000 		.4byte	0xc9b
 1868 0c95 2B       		.uleb128 0x2b
 1869 0c96 01       		.uleb128 0x1
 1870 0c97 50       		.byte	0x50
 1871 0c98 01       		.uleb128 0x1
 1872 0c99 40       		.byte	0x40
 1873 0c9a 00       		.byte	0
 1874 0c9b 2A       		.uleb128 0x2a
 1875 0c9c 7E000000 		.4byte	.LVL9
 1876 0ca0 650E0000 		.4byte	0xe65
 1877 0ca4 AE0C0000 		.4byte	0xcae
 1878 0ca8 2B       		.uleb128 0x2b
 1879 0ca9 01       		.uleb128 0x1
 1880 0caa 50       		.byte	0x50
 1881 0cab 01       		.uleb128 0x1
 1882 0cac 38       		.byte	0x38
 1883 0cad 00       		.byte	0
 1884 0cae 2A       		.uleb128 0x2a
 1885 0caf 84000000 		.4byte	.LVL10
 1886 0cb3 710E0000 		.4byte	0xe71
 1887 0cb7 C20C0000 		.4byte	0xcc2
 1888 0cbb 2B       		.uleb128 0x2b
 1889 0cbc 01       		.uleb128 0x1
 1890 0cbd 50       		.byte	0x50
 1891 0cbe 02       		.uleb128 0x2
 1892 0cbf 08       		.byte	0x8
 1893 0cc0 31       		.byte	0x31
 1894 0cc1 00       		.byte	0
 1895 0cc2 2A       		.uleb128 0x2a
 1896 0cc3 8E000000 		.4byte	.LVL11
 1897 0cc7 7D0E0000 		.4byte	0xe7d
 1898 0ccb D50C0000 		.4byte	0xcd5
 1899 0ccf 2B       		.uleb128 0x2b
 1900 0cd0 01       		.uleb128 0x1
 1901 0cd1 50       		.byte	0x50
 1902 0cd2 01       		.uleb128 0x1
 1903 0cd3 31       		.byte	0x31
 1904 0cd4 00       		.byte	0
 1905 0cd5 2A       		.uleb128 0x2a
 1906 0cd6 96000000 		.4byte	.LVL12
 1907 0cda 650E0000 		.4byte	0xe65
 1908 0cde E80C0000 		.4byte	0xce8
 1909 0ce2 2B       		.uleb128 0x2b
 1910 0ce3 01       		.uleb128 0x1
 1911 0ce4 50       		.byte	0x50
 1912 0ce5 01       		.uleb128 0x1
ARM GAS  /tmp/cc1YujwN.s 			page 38


 1913 0ce6 40       		.byte	0x40
 1914 0ce7 00       		.byte	0
 1915 0ce8 2A       		.uleb128 0x2a
 1916 0ce9 9C000000 		.4byte	.LVL13
 1917 0ced 710E0000 		.4byte	0xe71
 1918 0cf1 FC0C0000 		.4byte	0xcfc
 1919 0cf5 2B       		.uleb128 0x2b
 1920 0cf6 01       		.uleb128 0x1
 1921 0cf7 50       		.byte	0x50
 1922 0cf8 02       		.uleb128 0x2
 1923 0cf9 08       		.byte	0x8
 1924 0cfa 39       		.byte	0x39
 1925 0cfb 00       		.byte	0
 1926 0cfc 2C       		.uleb128 0x2c
 1927 0cfd A6000000 		.4byte	.LVL14
 1928 0d01 890E0000 		.4byte	0xe89
 1929 0d05 2B       		.uleb128 0x2b
 1930 0d06 01       		.uleb128 0x1
 1931 0d07 50       		.byte	0x50
 1932 0d08 01       		.uleb128 0x1
 1933 0d09 32       		.byte	0x32
 1934 0d0a 00       		.byte	0
 1935 0d0b 00       		.byte	0
 1936 0d0c 29       		.uleb128 0x29
 1937 0d0d CD080000 		.4byte	.LASF187
 1938 0d11 01       		.byte	0x1
 1939 0d12 83       		.byte	0x83
 1940 0d13 3C000000 		.4byte	.LFB73
 1941 0d17 28000000 		.4byte	.LFE73-.LFB73
 1942 0d1b 01       		.uleb128 0x1
 1943 0d1c 9C       		.byte	0x9c
 1944 0d1d 520D0000 		.4byte	0xd52
 1945 0d21 2A       		.uleb128 0x2a
 1946 0d22 48000000 		.4byte	.LVL5
 1947 0d26 950E0000 		.4byte	0xe95
 1948 0d2a 3B0D0000 		.4byte	0xd3b
 1949 0d2e 2B       		.uleb128 0x2b
 1950 0d2f 01       		.uleb128 0x1
 1951 0d30 50       		.byte	0x50
 1952 0d31 03       		.uleb128 0x3
 1953 0d32 40       		.byte	0x40
 1954 0d33 4A       		.byte	0x4a
 1955 0d34 24       		.byte	0x24
 1956 0d35 2B       		.uleb128 0x2b
 1957 0d36 01       		.uleb128 0x1
 1958 0d37 51       		.byte	0x51
 1959 0d38 01       		.uleb128 0x1
 1960 0d39 31       		.byte	0x31
 1961 0d3a 00       		.byte	0
 1962 0d3b 2C       		.uleb128 0x2c
 1963 0d3c 56000000 		.4byte	.LVL6
 1964 0d40 A10E0000 		.4byte	0xea1
 1965 0d44 2B       		.uleb128 0x2b
 1966 0d45 01       		.uleb128 0x1
 1967 0d46 50       		.byte	0x50
 1968 0d47 03       		.uleb128 0x3
 1969 0d48 40       		.byte	0x40
ARM GAS  /tmp/cc1YujwN.s 			page 39


 1970 0d49 4A       		.byte	0x4a
 1971 0d4a 24       		.byte	0x24
 1972 0d4b 2B       		.uleb128 0x2b
 1973 0d4c 01       		.uleb128 0x1
 1974 0d4d 51       		.byte	0x51
 1975 0d4e 01       		.uleb128 0x1
 1976 0d4f 31       		.byte	0x31
 1977 0d50 00       		.byte	0
 1978 0d51 00       		.byte	0
 1979 0d52 2D       		.uleb128 0x2d
 1980 0d53 BA060000 		.4byte	.LASF188
 1981 0d57 01       		.byte	0x1
 1982 0d58 7B       		.byte	0x7b
 1983 0d59 3A000000 		.4byte	.LFB72
 1984 0d5d 02000000 		.4byte	.LFE72-.LFB72
 1985 0d61 01       		.uleb128 0x1
 1986 0d62 9C       		.byte	0x9c
 1987 0d63 2D       		.uleb128 0x2d
 1988 0d64 AA080000 		.4byte	.LASF189
 1989 0d68 01       		.byte	0x1
 1990 0d69 72       		.byte	0x72
 1991 0d6a 38000000 		.4byte	.LFB71
 1992 0d6e 02000000 		.4byte	.LFE71-.LFB71
 1993 0d72 01       		.uleb128 0x1
 1994 0d73 9C       		.byte	0x9c
 1995 0d74 2D       		.uleb128 0x2d
 1996 0d75 47000000 		.4byte	.LASF190
 1997 0d79 01       		.byte	0x1
 1998 0d7a 69       		.byte	0x69
 1999 0d7b 36000000 		.4byte	.LFB70
 2000 0d7f 02000000 		.4byte	.LFE70-.LFB70
 2001 0d83 01       		.uleb128 0x1
 2002 0d84 9C       		.byte	0x9c
 2003 0d85 2D       		.uleb128 0x2d
 2004 0d86 61060000 		.4byte	.LASF191
 2005 0d8a 01       		.byte	0x1
 2006 0d8b 60       		.byte	0x60
 2007 0d8c 34000000 		.4byte	.LFB69
 2008 0d90 02000000 		.4byte	.LFE69-.LFB69
 2009 0d94 01       		.uleb128 0x1
 2010 0d95 9C       		.byte	0x9c
 2011 0d96 2D       		.uleb128 0x2d
 2012 0d97 AD020000 		.4byte	.LASF192
 2013 0d9b 01       		.byte	0x1
 2014 0d9c 53       		.byte	0x53
 2015 0d9d 32000000 		.4byte	.LFB68
 2016 0da1 02000000 		.4byte	.LFE68-.LFB68
 2017 0da5 01       		.uleb128 0x1
 2018 0da6 9C       		.byte	0x9c
 2019 0da7 2D       		.uleb128 0x2d
 2020 0da8 F8000000 		.4byte	.LASF193
 2021 0dac 01       		.byte	0x1
 2022 0dad 46       		.byte	0x46
 2023 0dae 30000000 		.4byte	.LFB67
 2024 0db2 02000000 		.4byte	.LFE67-.LFB67
 2025 0db6 01       		.uleb128 0x1
 2026 0db7 9C       		.byte	0x9c
ARM GAS  /tmp/cc1YujwN.s 			page 40


 2027 0db8 2D       		.uleb128 0x2d
 2028 0db9 3A030000 		.4byte	.LASF194
 2029 0dbd 01       		.byte	0x1
 2030 0dbe 39       		.byte	0x39
 2031 0dbf 2E000000 		.4byte	.LFB66
 2032 0dc3 02000000 		.4byte	.LFE66-.LFB66
 2033 0dc7 01       		.uleb128 0x1
 2034 0dc8 9C       		.byte	0x9c
 2035 0dc9 2D       		.uleb128 0x2d
 2036 0dca D1030000 		.4byte	.LASF195
 2037 0dce 01       		.byte	0x1
 2038 0dcf 2C       		.byte	0x2c
 2039 0dd0 2C000000 		.4byte	.LFB65
 2040 0dd4 02000000 		.4byte	.LFE65-.LFB65
 2041 0dd8 01       		.uleb128 0x1
 2042 0dd9 9C       		.byte	0x9c
 2043 0dda 29       		.uleb128 0x29
 2044 0ddb 27000000 		.4byte	.LASF196
 2045 0ddf 01       		.byte	0x1
 2046 0de0 06       		.byte	0x6
 2047 0de1 00000000 		.4byte	.LFB64
 2048 0de5 2C000000 		.4byte	.LFE64-.LFB64
 2049 0de9 01       		.uleb128 0x1
 2050 0dea 9C       		.byte	0x9c
 2051 0deb 590E0000 		.4byte	0xe59
 2052 0def 2A       		.uleb128 0x2a
 2053 0df0 08000000 		.4byte	.LVL0
 2054 0df4 590E0000 		.4byte	0xe59
 2055 0df8 030E0000 		.4byte	0xe03
 2056 0dfc 2B       		.uleb128 0x2b
 2057 0dfd 01       		.uleb128 0x1
 2058 0dfe 50       		.byte	0x50
 2059 0dff 02       		.uleb128 0x2
 2060 0e00 09       		.byte	0x9
 2061 0e01 80       		.byte	0x80
 2062 0e02 00       		.byte	0
 2063 0e03 2A       		.uleb128 0x2a
 2064 0e04 14000000 		.4byte	.LVL1
 2065 0e08 AD0E0000 		.4byte	0xead
 2066 0e0c 180E0000 		.4byte	0xe18
 2067 0e10 2B       		.uleb128 0x2b
 2068 0e11 01       		.uleb128 0x1
 2069 0e12 50       		.byte	0x50
 2070 0e13 03       		.uleb128 0x3
 2071 0e14 40       		.byte	0x40
 2072 0e15 3C       		.byte	0x3c
 2073 0e16 24       		.byte	0x24
 2074 0e17 00       		.byte	0
 2075 0e18 2A       		.uleb128 0x2a
 2076 0e19 1C000000 		.4byte	.LVL2
 2077 0e1d B90E0000 		.4byte	0xeb9
 2078 0e21 300E0000 		.4byte	0xe30
 2079 0e25 2B       		.uleb128 0x2b
 2080 0e26 01       		.uleb128 0x1
 2081 0e27 50       		.byte	0x50
 2082 0e28 01       		.uleb128 0x1
 2083 0e29 38       		.byte	0x38
ARM GAS  /tmp/cc1YujwN.s 			page 41


 2084 0e2a 2B       		.uleb128 0x2b
 2085 0e2b 01       		.uleb128 0x1
 2086 0e2c 51       		.byte	0x51
 2087 0e2d 01       		.uleb128 0x1
 2088 0e2e 31       		.byte	0x31
 2089 0e2f 00       		.byte	0
 2090 0e30 2A       		.uleb128 0x2a
 2091 0e31 24000000 		.4byte	.LVL3
 2092 0e35 B90E0000 		.4byte	0xeb9
 2093 0e39 480E0000 		.4byte	0xe48
 2094 0e3d 2B       		.uleb128 0x2b
 2095 0e3e 01       		.uleb128 0x1
 2096 0e3f 50       		.byte	0x50
 2097 0e40 01       		.uleb128 0x1
 2098 0e41 40       		.byte	0x40
 2099 0e42 2B       		.uleb128 0x2b
 2100 0e43 01       		.uleb128 0x1
 2101 0e44 51       		.byte	0x51
 2102 0e45 01       		.uleb128 0x1
 2103 0e46 31       		.byte	0x31
 2104 0e47 00       		.byte	0
 2105 0e48 2C       		.uleb128 0x2c
 2106 0e49 2A000000 		.4byte	.LVL4
 2107 0e4d 650E0000 		.4byte	0xe65
 2108 0e51 2B       		.uleb128 0x2b
 2109 0e52 01       		.uleb128 0x1
 2110 0e53 50       		.byte	0x50
 2111 0e54 02       		.uleb128 0x2
 2112 0e55 09       		.byte	0x9
 2113 0e56 80       		.byte	0x80
 2114 0e57 00       		.byte	0
 2115 0e58 00       		.byte	0
 2116 0e59 2E       		.uleb128 0x2e
 2117 0e5a 44070000 		.4byte	.LASF197
 2118 0e5e 44070000 		.4byte	.LASF197
 2119 0e62 0F       		.byte	0xf
 2120 0e63 C302     		.2byte	0x2c3
 2121 0e65 2E       		.uleb128 0x2e
 2122 0e66 8C060000 		.4byte	.LASF198
 2123 0e6a 8C060000 		.4byte	.LASF198
 2124 0e6e 0F       		.byte	0xf
 2125 0e6f C402     		.2byte	0x2c4
 2126 0e71 2E       		.uleb128 0x2e
 2127 0e72 6A070000 		.4byte	.LASF199
 2128 0e76 6A070000 		.4byte	.LASF199
 2129 0e7a 0F       		.byte	0xf
 2130 0e7b C102     		.2byte	0x2c1
 2131 0e7d 2E       		.uleb128 0x2e
 2132 0e7e 9D050000 		.4byte	.LASF200
 2133 0e82 9D050000 		.4byte	.LASF200
 2134 0e86 0F       		.byte	0xf
 2135 0e87 8D02     		.2byte	0x28d
 2136 0e89 2E       		.uleb128 0x2e
 2137 0e8a 0C000000 		.4byte	.LASF201
 2138 0e8e 0C000000 		.4byte	.LASF201
 2139 0e92 0F       		.byte	0xf
 2140 0e93 9B02     		.2byte	0x29b
ARM GAS  /tmp/cc1YujwN.s 			page 42


 2141 0e95 2E       		.uleb128 0x2e
 2142 0e96 93040000 		.4byte	.LASF202
 2143 0e9a 93040000 		.4byte	.LASF202
 2144 0e9e 10       		.byte	0x10
 2145 0e9f 7804     		.2byte	0x478
 2146 0ea1 2E       		.uleb128 0x2e
 2147 0ea2 24070000 		.4byte	.LASF203
 2148 0ea6 24070000 		.4byte	.LASF203
 2149 0eaa 10       		.byte	0x10
 2150 0eab 7904     		.2byte	0x479
 2151 0ead 2E       		.uleb128 0x2e
 2152 0eae 3B050000 		.4byte	.LASF204
 2153 0eb2 3B050000 		.4byte	.LASF204
 2154 0eb6 0F       		.byte	0xf
 2155 0eb7 8802     		.2byte	0x288
 2156 0eb9 2E       		.uleb128 0x2e
 2157 0eba 23080000 		.4byte	.LASF205
 2158 0ebe 23080000 		.4byte	.LASF205
 2159 0ec2 0F       		.byte	0xf
 2160 0ec3 A002     		.2byte	0x2a0
 2161 0ec5 00       		.byte	0
 2162              		.section	.debug_abbrev,"",%progbits
 2163              	.Ldebug_abbrev0:
 2164 0000 01       		.uleb128 0x1
 2165 0001 11       		.uleb128 0x11
 2166 0002 01       		.byte	0x1
 2167 0003 25       		.uleb128 0x25
 2168 0004 0E       		.uleb128 0xe
 2169 0005 13       		.uleb128 0x13
 2170 0006 0B       		.uleb128 0xb
 2171 0007 03       		.uleb128 0x3
 2172 0008 0E       		.uleb128 0xe
 2173 0009 1B       		.uleb128 0x1b
 2174 000a 0E       		.uleb128 0xe
 2175 000b 11       		.uleb128 0x11
 2176 000c 01       		.uleb128 0x1
 2177 000d 12       		.uleb128 0x12
 2178 000e 06       		.uleb128 0x6
 2179 000f 10       		.uleb128 0x10
 2180 0010 17       		.uleb128 0x17
 2181 0011 00       		.byte	0
 2182 0012 00       		.byte	0
 2183 0013 02       		.uleb128 0x2
 2184 0014 24       		.uleb128 0x24
 2185 0015 00       		.byte	0
 2186 0016 0B       		.uleb128 0xb
 2187 0017 0B       		.uleb128 0xb
 2188 0018 3E       		.uleb128 0x3e
 2189 0019 0B       		.uleb128 0xb
 2190 001a 03       		.uleb128 0x3
 2191 001b 0E       		.uleb128 0xe
 2192 001c 00       		.byte	0
 2193 001d 00       		.byte	0
 2194 001e 03       		.uleb128 0x3
 2195 001f 16       		.uleb128 0x16
 2196 0020 00       		.byte	0
 2197 0021 03       		.uleb128 0x3
ARM GAS  /tmp/cc1YujwN.s 			page 43


 2198 0022 0E       		.uleb128 0xe
 2199 0023 3A       		.uleb128 0x3a
 2200 0024 0B       		.uleb128 0xb
 2201 0025 3B       		.uleb128 0x3b
 2202 0026 0B       		.uleb128 0xb
 2203 0027 49       		.uleb128 0x49
 2204 0028 13       		.uleb128 0x13
 2205 0029 00       		.byte	0
 2206 002a 00       		.byte	0
 2207 002b 04       		.uleb128 0x4
 2208 002c 24       		.uleb128 0x24
 2209 002d 00       		.byte	0
 2210 002e 0B       		.uleb128 0xb
 2211 002f 0B       		.uleb128 0xb
 2212 0030 3E       		.uleb128 0x3e
 2213 0031 0B       		.uleb128 0xb
 2214 0032 03       		.uleb128 0x3
 2215 0033 08       		.uleb128 0x8
 2216 0034 00       		.byte	0
 2217 0035 00       		.byte	0
 2218 0036 05       		.uleb128 0x5
 2219 0037 35       		.uleb128 0x35
 2220 0038 00       		.byte	0
 2221 0039 49       		.uleb128 0x49
 2222 003a 13       		.uleb128 0x13
 2223 003b 00       		.byte	0
 2224 003c 00       		.byte	0
 2225 003d 06       		.uleb128 0x6
 2226 003e 34       		.uleb128 0x34
 2227 003f 00       		.byte	0
 2228 0040 03       		.uleb128 0x3
 2229 0041 0E       		.uleb128 0xe
 2230 0042 3A       		.uleb128 0x3a
 2231 0043 0B       		.uleb128 0xb
 2232 0044 3B       		.uleb128 0x3b
 2233 0045 05       		.uleb128 0x5
 2234 0046 49       		.uleb128 0x49
 2235 0047 13       		.uleb128 0x13
 2236 0048 3F       		.uleb128 0x3f
 2237 0049 19       		.uleb128 0x19
 2238 004a 3C       		.uleb128 0x3c
 2239 004b 19       		.uleb128 0x19
 2240 004c 00       		.byte	0
 2241 004d 00       		.byte	0
 2242 004e 07       		.uleb128 0x7
 2243 004f 34       		.uleb128 0x34
 2244 0050 00       		.byte	0
 2245 0051 03       		.uleb128 0x3
 2246 0052 0E       		.uleb128 0xe
 2247 0053 3A       		.uleb128 0x3a
 2248 0054 0B       		.uleb128 0xb
 2249 0055 3B       		.uleb128 0x3b
 2250 0056 0B       		.uleb128 0xb
 2251 0057 49       		.uleb128 0x49
 2252 0058 13       		.uleb128 0x13
 2253 0059 3F       		.uleb128 0x3f
 2254 005a 19       		.uleb128 0x19
ARM GAS  /tmp/cc1YujwN.s 			page 44


 2255 005b 3C       		.uleb128 0x3c
 2256 005c 19       		.uleb128 0x19
 2257 005d 00       		.byte	0
 2258 005e 00       		.byte	0
 2259 005f 08       		.uleb128 0x8
 2260 0060 04       		.uleb128 0x4
 2261 0061 01       		.byte	0x1
 2262 0062 0B       		.uleb128 0xb
 2263 0063 0B       		.uleb128 0xb
 2264 0064 49       		.uleb128 0x49
 2265 0065 13       		.uleb128 0x13
 2266 0066 3A       		.uleb128 0x3a
 2267 0067 0B       		.uleb128 0xb
 2268 0068 3B       		.uleb128 0x3b
 2269 0069 05       		.uleb128 0x5
 2270 006a 01       		.uleb128 0x1
 2271 006b 13       		.uleb128 0x13
 2272 006c 00       		.byte	0
 2273 006d 00       		.byte	0
 2274 006e 09       		.uleb128 0x9
 2275 006f 28       		.uleb128 0x28
 2276 0070 00       		.byte	0
 2277 0071 03       		.uleb128 0x3
 2278 0072 0E       		.uleb128 0xe
 2279 0073 1C       		.uleb128 0x1c
 2280 0074 0B       		.uleb128 0xb
 2281 0075 00       		.byte	0
 2282 0076 00       		.byte	0
 2283 0077 0A       		.uleb128 0xa
 2284 0078 28       		.uleb128 0x28
 2285 0079 00       		.byte	0
 2286 007a 03       		.uleb128 0x3
 2287 007b 08       		.uleb128 0x8
 2288 007c 1C       		.uleb128 0x1c
 2289 007d 0B       		.uleb128 0xb
 2290 007e 00       		.byte	0
 2291 007f 00       		.byte	0
 2292 0080 0B       		.uleb128 0xb
 2293 0081 13       		.uleb128 0x13
 2294 0082 01       		.byte	0x1
 2295 0083 0B       		.uleb128 0xb
 2296 0084 0B       		.uleb128 0xb
 2297 0085 3A       		.uleb128 0x3a
 2298 0086 0B       		.uleb128 0xb
 2299 0087 3B       		.uleb128 0x3b
 2300 0088 05       		.uleb128 0x5
 2301 0089 01       		.uleb128 0x1
 2302 008a 13       		.uleb128 0x13
 2303 008b 00       		.byte	0
 2304 008c 00       		.byte	0
 2305 008d 0C       		.uleb128 0xc
 2306 008e 0D       		.uleb128 0xd
 2307 008f 00       		.byte	0
 2308 0090 03       		.uleb128 0x3
 2309 0091 08       		.uleb128 0x8
 2310 0092 3A       		.uleb128 0x3a
 2311 0093 0B       		.uleb128 0xb
ARM GAS  /tmp/cc1YujwN.s 			page 45


 2312 0094 3B       		.uleb128 0x3b
 2313 0095 05       		.uleb128 0x5
 2314 0096 49       		.uleb128 0x49
 2315 0097 13       		.uleb128 0x13
 2316 0098 38       		.uleb128 0x38
 2317 0099 0B       		.uleb128 0xb
 2318 009a 00       		.byte	0
 2319 009b 00       		.byte	0
 2320 009c 0D       		.uleb128 0xd
 2321 009d 0D       		.uleb128 0xd
 2322 009e 00       		.byte	0
 2323 009f 03       		.uleb128 0x3
 2324 00a0 0E       		.uleb128 0xe
 2325 00a1 3A       		.uleb128 0x3a
 2326 00a2 0B       		.uleb128 0xb
 2327 00a3 3B       		.uleb128 0x3b
 2328 00a4 05       		.uleb128 0x5
 2329 00a5 49       		.uleb128 0x49
 2330 00a6 13       		.uleb128 0x13
 2331 00a7 38       		.uleb128 0x38
 2332 00a8 0B       		.uleb128 0xb
 2333 00a9 00       		.byte	0
 2334 00aa 00       		.byte	0
 2335 00ab 0E       		.uleb128 0xe
 2336 00ac 16       		.uleb128 0x16
 2337 00ad 00       		.byte	0
 2338 00ae 03       		.uleb128 0x3
 2339 00af 0E       		.uleb128 0xe
 2340 00b0 3A       		.uleb128 0x3a
 2341 00b1 0B       		.uleb128 0xb
 2342 00b2 3B       		.uleb128 0x3b
 2343 00b3 05       		.uleb128 0x5
 2344 00b4 49       		.uleb128 0x49
 2345 00b5 13       		.uleb128 0x13
 2346 00b6 00       		.byte	0
 2347 00b7 00       		.byte	0
 2348 00b8 0F       		.uleb128 0xf
 2349 00b9 15       		.uleb128 0x15
 2350 00ba 00       		.byte	0
 2351 00bb 27       		.uleb128 0x27
 2352 00bc 19       		.uleb128 0x19
 2353 00bd 00       		.byte	0
 2354 00be 00       		.byte	0
 2355 00bf 10       		.uleb128 0x10
 2356 00c0 0F       		.uleb128 0xf
 2357 00c1 00       		.byte	0
 2358 00c2 0B       		.uleb128 0xb
 2359 00c3 0B       		.uleb128 0xb
 2360 00c4 49       		.uleb128 0x49
 2361 00c5 13       		.uleb128 0x13
 2362 00c6 00       		.byte	0
 2363 00c7 00       		.byte	0
 2364 00c8 11       		.uleb128 0x11
 2365 00c9 01       		.uleb128 0x1
 2366 00ca 01       		.byte	0x1
 2367 00cb 49       		.uleb128 0x49
 2368 00cc 13       		.uleb128 0x13
ARM GAS  /tmp/cc1YujwN.s 			page 46


 2369 00cd 01       		.uleb128 0x1
 2370 00ce 13       		.uleb128 0x13
 2371 00cf 00       		.byte	0
 2372 00d0 00       		.byte	0
 2373 00d1 12       		.uleb128 0x12
 2374 00d2 21       		.uleb128 0x21
 2375 00d3 00       		.byte	0
 2376 00d4 49       		.uleb128 0x49
 2377 00d5 13       		.uleb128 0x13
 2378 00d6 2F       		.uleb128 0x2f
 2379 00d7 0B       		.uleb128 0xb
 2380 00d8 00       		.byte	0
 2381 00d9 00       		.byte	0
 2382 00da 13       		.uleb128 0x13
 2383 00db 0F       		.uleb128 0xf
 2384 00dc 00       		.byte	0
 2385 00dd 0B       		.uleb128 0xb
 2386 00de 0B       		.uleb128 0xb
 2387 00df 00       		.byte	0
 2388 00e0 00       		.byte	0
 2389 00e1 14       		.uleb128 0x14
 2390 00e2 17       		.uleb128 0x17
 2391 00e3 01       		.byte	0x1
 2392 00e4 0B       		.uleb128 0xb
 2393 00e5 0B       		.uleb128 0xb
 2394 00e6 3A       		.uleb128 0x3a
 2395 00e7 0B       		.uleb128 0xb
 2396 00e8 3B       		.uleb128 0x3b
 2397 00e9 0B       		.uleb128 0xb
 2398 00ea 01       		.uleb128 0x1
 2399 00eb 13       		.uleb128 0x13
 2400 00ec 00       		.byte	0
 2401 00ed 00       		.byte	0
 2402 00ee 15       		.uleb128 0x15
 2403 00ef 0D       		.uleb128 0xd
 2404 00f0 00       		.byte	0
 2405 00f1 03       		.uleb128 0x3
 2406 00f2 0E       		.uleb128 0xe
 2407 00f3 3A       		.uleb128 0x3a
 2408 00f4 0B       		.uleb128 0xb
 2409 00f5 3B       		.uleb128 0x3b
 2410 00f6 0B       		.uleb128 0xb
 2411 00f7 49       		.uleb128 0x49
 2412 00f8 13       		.uleb128 0x13
 2413 00f9 00       		.byte	0
 2414 00fa 00       		.byte	0
 2415 00fb 16       		.uleb128 0x16
 2416 00fc 13       		.uleb128 0x13
 2417 00fd 01       		.byte	0x1
 2418 00fe 0B       		.uleb128 0xb
 2419 00ff 0B       		.uleb128 0xb
 2420 0100 3A       		.uleb128 0x3a
 2421 0101 0B       		.uleb128 0xb
 2422 0102 3B       		.uleb128 0x3b
 2423 0103 0B       		.uleb128 0xb
 2424 0104 01       		.uleb128 0x1
 2425 0105 13       		.uleb128 0x13
ARM GAS  /tmp/cc1YujwN.s 			page 47


 2426 0106 00       		.byte	0
 2427 0107 00       		.byte	0
 2428 0108 17       		.uleb128 0x17
 2429 0109 0D       		.uleb128 0xd
 2430 010a 00       		.byte	0
 2431 010b 03       		.uleb128 0x3
 2432 010c 0E       		.uleb128 0xe
 2433 010d 3A       		.uleb128 0x3a
 2434 010e 0B       		.uleb128 0xb
 2435 010f 3B       		.uleb128 0x3b
 2436 0110 0B       		.uleb128 0xb
 2437 0111 49       		.uleb128 0x49
 2438 0112 13       		.uleb128 0x13
 2439 0113 38       		.uleb128 0x38
 2440 0114 0B       		.uleb128 0xb
 2441 0115 00       		.byte	0
 2442 0116 00       		.byte	0
 2443 0117 18       		.uleb128 0x18
 2444 0118 13       		.uleb128 0x13
 2445 0119 01       		.byte	0x1
 2446 011a 03       		.uleb128 0x3
 2447 011b 0E       		.uleb128 0xe
 2448 011c 0B       		.uleb128 0xb
 2449 011d 0B       		.uleb128 0xb
 2450 011e 3A       		.uleb128 0x3a
 2451 011f 0B       		.uleb128 0xb
 2452 0120 3B       		.uleb128 0x3b
 2453 0121 0B       		.uleb128 0xb
 2454 0122 01       		.uleb128 0x1
 2455 0123 13       		.uleb128 0x13
 2456 0124 00       		.byte	0
 2457 0125 00       		.byte	0
 2458 0126 19       		.uleb128 0x19
 2459 0127 0D       		.uleb128 0xd
 2460 0128 00       		.byte	0
 2461 0129 03       		.uleb128 0x3
 2462 012a 08       		.uleb128 0x8
 2463 012b 3A       		.uleb128 0x3a
 2464 012c 0B       		.uleb128 0xb
 2465 012d 3B       		.uleb128 0x3b
 2466 012e 0B       		.uleb128 0xb
 2467 012f 49       		.uleb128 0x49
 2468 0130 13       		.uleb128 0x13
 2469 0131 38       		.uleb128 0x38
 2470 0132 0B       		.uleb128 0xb
 2471 0133 00       		.byte	0
 2472 0134 00       		.byte	0
 2473 0135 1A       		.uleb128 0x1a
 2474 0136 13       		.uleb128 0x13
 2475 0137 01       		.byte	0x1
 2476 0138 03       		.uleb128 0x3
 2477 0139 0E       		.uleb128 0xe
 2478 013a 0B       		.uleb128 0xb
 2479 013b 05       		.uleb128 0x5
 2480 013c 3A       		.uleb128 0x3a
 2481 013d 0B       		.uleb128 0xb
 2482 013e 3B       		.uleb128 0x3b
ARM GAS  /tmp/cc1YujwN.s 			page 48


 2483 013f 0B       		.uleb128 0xb
 2484 0140 01       		.uleb128 0x1
 2485 0141 13       		.uleb128 0x13
 2486 0142 00       		.byte	0
 2487 0143 00       		.byte	0
 2488 0144 1B       		.uleb128 0x1b
 2489 0145 0D       		.uleb128 0xd
 2490 0146 00       		.byte	0
 2491 0147 03       		.uleb128 0x3
 2492 0148 0E       		.uleb128 0xe
 2493 0149 3A       		.uleb128 0x3a
 2494 014a 0B       		.uleb128 0xb
 2495 014b 3B       		.uleb128 0x3b
 2496 014c 0B       		.uleb128 0xb
 2497 014d 49       		.uleb128 0x49
 2498 014e 13       		.uleb128 0x13
 2499 014f 38       		.uleb128 0x38
 2500 0150 05       		.uleb128 0x5
 2501 0151 00       		.byte	0
 2502 0152 00       		.byte	0
 2503 0153 1C       		.uleb128 0x1c
 2504 0154 15       		.uleb128 0x15
 2505 0155 01       		.byte	0x1
 2506 0156 27       		.uleb128 0x27
 2507 0157 19       		.uleb128 0x19
 2508 0158 49       		.uleb128 0x49
 2509 0159 13       		.uleb128 0x13
 2510 015a 01       		.uleb128 0x1
 2511 015b 13       		.uleb128 0x13
 2512 015c 00       		.byte	0
 2513 015d 00       		.byte	0
 2514 015e 1D       		.uleb128 0x1d
 2515 015f 05       		.uleb128 0x5
 2516 0160 00       		.byte	0
 2517 0161 49       		.uleb128 0x49
 2518 0162 13       		.uleb128 0x13
 2519 0163 00       		.byte	0
 2520 0164 00       		.byte	0
 2521 0165 1E       		.uleb128 0x1e
 2522 0166 26       		.uleb128 0x26
 2523 0167 00       		.byte	0
 2524 0168 49       		.uleb128 0x49
 2525 0169 13       		.uleb128 0x13
 2526 016a 00       		.byte	0
 2527 016b 00       		.byte	0
 2528 016c 1F       		.uleb128 0x1f
 2529 016d 13       		.uleb128 0x13
 2530 016e 01       		.byte	0x1
 2531 016f 03       		.uleb128 0x3
 2532 0170 0E       		.uleb128 0xe
 2533 0171 0B       		.uleb128 0xb
 2534 0172 05       		.uleb128 0x5
 2535 0173 3A       		.uleb128 0x3a
 2536 0174 0B       		.uleb128 0xb
 2537 0175 3B       		.uleb128 0x3b
 2538 0176 05       		.uleb128 0x5
 2539 0177 01       		.uleb128 0x1
ARM GAS  /tmp/cc1YujwN.s 			page 49


 2540 0178 13       		.uleb128 0x13
 2541 0179 00       		.byte	0
 2542 017a 00       		.byte	0
 2543 017b 20       		.uleb128 0x20
 2544 017c 0D       		.uleb128 0xd
 2545 017d 00       		.byte	0
 2546 017e 03       		.uleb128 0x3
 2547 017f 0E       		.uleb128 0xe
 2548 0180 3A       		.uleb128 0x3a
 2549 0181 0B       		.uleb128 0xb
 2550 0182 3B       		.uleb128 0x3b
 2551 0183 05       		.uleb128 0x5
 2552 0184 49       		.uleb128 0x49
 2553 0185 13       		.uleb128 0x13
 2554 0186 38       		.uleb128 0x38
 2555 0187 05       		.uleb128 0x5
 2556 0188 00       		.byte	0
 2557 0189 00       		.byte	0
 2558 018a 21       		.uleb128 0x21
 2559 018b 13       		.uleb128 0x13
 2560 018c 01       		.byte	0x1
 2561 018d 03       		.uleb128 0x3
 2562 018e 0E       		.uleb128 0xe
 2563 018f 0B       		.uleb128 0xb
 2564 0190 0B       		.uleb128 0xb
 2565 0191 3A       		.uleb128 0x3a
 2566 0192 0B       		.uleb128 0xb
 2567 0193 3B       		.uleb128 0x3b
 2568 0194 05       		.uleb128 0x5
 2569 0195 01       		.uleb128 0x1
 2570 0196 13       		.uleb128 0x13
 2571 0197 00       		.byte	0
 2572 0198 00       		.byte	0
 2573 0199 22       		.uleb128 0x22
 2574 019a 17       		.uleb128 0x17
 2575 019b 01       		.byte	0x1
 2576 019c 0B       		.uleb128 0xb
 2577 019d 0B       		.uleb128 0xb
 2578 019e 3A       		.uleb128 0x3a
 2579 019f 0B       		.uleb128 0xb
 2580 01a0 3B       		.uleb128 0x3b
 2581 01a1 05       		.uleb128 0x5
 2582 01a2 01       		.uleb128 0x1
 2583 01a3 13       		.uleb128 0x13
 2584 01a4 00       		.byte	0
 2585 01a5 00       		.byte	0
 2586 01a6 23       		.uleb128 0x23
 2587 01a7 0D       		.uleb128 0xd
 2588 01a8 00       		.byte	0
 2589 01a9 03       		.uleb128 0x3
 2590 01aa 0E       		.uleb128 0xe
 2591 01ab 3A       		.uleb128 0x3a
 2592 01ac 0B       		.uleb128 0xb
 2593 01ad 3B       		.uleb128 0x3b
 2594 01ae 05       		.uleb128 0x5
 2595 01af 49       		.uleb128 0x49
 2596 01b0 13       		.uleb128 0x13
ARM GAS  /tmp/cc1YujwN.s 			page 50


 2597 01b1 00       		.byte	0
 2598 01b2 00       		.byte	0
 2599 01b3 24       		.uleb128 0x24
 2600 01b4 15       		.uleb128 0x15
 2601 01b5 01       		.byte	0x1
 2602 01b6 27       		.uleb128 0x27
 2603 01b7 19       		.uleb128 0x19
 2604 01b8 01       		.uleb128 0x1
 2605 01b9 13       		.uleb128 0x13
 2606 01ba 00       		.byte	0
 2607 01bb 00       		.byte	0
 2608 01bc 25       		.uleb128 0x25
 2609 01bd 04       		.uleb128 0x4
 2610 01be 01       		.byte	0x1
 2611 01bf 03       		.uleb128 0x3
 2612 01c0 0E       		.uleb128 0xe
 2613 01c1 0B       		.uleb128 0xb
 2614 01c2 0B       		.uleb128 0xb
 2615 01c3 49       		.uleb128 0x49
 2616 01c4 13       		.uleb128 0x13
 2617 01c5 3A       		.uleb128 0x3a
 2618 01c6 0B       		.uleb128 0xb
 2619 01c7 3B       		.uleb128 0x3b
 2620 01c8 05       		.uleb128 0x5
 2621 01c9 01       		.uleb128 0x1
 2622 01ca 13       		.uleb128 0x13
 2623 01cb 00       		.byte	0
 2624 01cc 00       		.byte	0
 2625 01cd 26       		.uleb128 0x26
 2626 01ce 28       		.uleb128 0x28
 2627 01cf 00       		.byte	0
 2628 01d0 03       		.uleb128 0x3
 2629 01d1 0E       		.uleb128 0xe
 2630 01d2 1C       		.uleb128 0x1c
 2631 01d3 0D       		.uleb128 0xd
 2632 01d4 00       		.byte	0
 2633 01d5 00       		.byte	0
 2634 01d6 27       		.uleb128 0x27
 2635 01d7 21       		.uleb128 0x21
 2636 01d8 00       		.byte	0
 2637 01d9 00       		.byte	0
 2638 01da 00       		.byte	0
 2639 01db 28       		.uleb128 0x28
 2640 01dc 34       		.uleb128 0x34
 2641 01dd 00       		.byte	0
 2642 01de 03       		.uleb128 0x3
 2643 01df 0E       		.uleb128 0xe
 2644 01e0 3A       		.uleb128 0x3a
 2645 01e1 0B       		.uleb128 0xb
 2646 01e2 3B       		.uleb128 0x3b
 2647 01e3 0B       		.uleb128 0xb
 2648 01e4 49       		.uleb128 0x49
 2649 01e5 13       		.uleb128 0x13
 2650 01e6 3F       		.uleb128 0x3f
 2651 01e7 19       		.uleb128 0x19
 2652 01e8 02       		.uleb128 0x2
 2653 01e9 18       		.uleb128 0x18
ARM GAS  /tmp/cc1YujwN.s 			page 51


 2654 01ea 00       		.byte	0
 2655 01eb 00       		.byte	0
 2656 01ec 29       		.uleb128 0x29
 2657 01ed 2E       		.uleb128 0x2e
 2658 01ee 01       		.byte	0x1
 2659 01ef 3F       		.uleb128 0x3f
 2660 01f0 19       		.uleb128 0x19
 2661 01f1 03       		.uleb128 0x3
 2662 01f2 0E       		.uleb128 0xe
 2663 01f3 3A       		.uleb128 0x3a
 2664 01f4 0B       		.uleb128 0xb
 2665 01f5 3B       		.uleb128 0x3b
 2666 01f6 0B       		.uleb128 0xb
 2667 01f7 27       		.uleb128 0x27
 2668 01f8 19       		.uleb128 0x19
 2669 01f9 11       		.uleb128 0x11
 2670 01fa 01       		.uleb128 0x1
 2671 01fb 12       		.uleb128 0x12
 2672 01fc 06       		.uleb128 0x6
 2673 01fd 40       		.uleb128 0x40
 2674 01fe 18       		.uleb128 0x18
 2675 01ff 9742     		.uleb128 0x2117
 2676 0201 19       		.uleb128 0x19
 2677 0202 01       		.uleb128 0x1
 2678 0203 13       		.uleb128 0x13
 2679 0204 00       		.byte	0
 2680 0205 00       		.byte	0
 2681 0206 2A       		.uleb128 0x2a
 2682 0207 898201   		.uleb128 0x4109
 2683 020a 01       		.byte	0x1
 2684 020b 11       		.uleb128 0x11
 2685 020c 01       		.uleb128 0x1
 2686 020d 31       		.uleb128 0x31
 2687 020e 13       		.uleb128 0x13
 2688 020f 01       		.uleb128 0x1
 2689 0210 13       		.uleb128 0x13
 2690 0211 00       		.byte	0
 2691 0212 00       		.byte	0
 2692 0213 2B       		.uleb128 0x2b
 2693 0214 8A8201   		.uleb128 0x410a
 2694 0217 00       		.byte	0
 2695 0218 02       		.uleb128 0x2
 2696 0219 18       		.uleb128 0x18
 2697 021a 9142     		.uleb128 0x2111
 2698 021c 18       		.uleb128 0x18
 2699 021d 00       		.byte	0
 2700 021e 00       		.byte	0
 2701 021f 2C       		.uleb128 0x2c
 2702 0220 898201   		.uleb128 0x4109
 2703 0223 01       		.byte	0x1
 2704 0224 11       		.uleb128 0x11
 2705 0225 01       		.uleb128 0x1
 2706 0226 31       		.uleb128 0x31
 2707 0227 13       		.uleb128 0x13
 2708 0228 00       		.byte	0
 2709 0229 00       		.byte	0
 2710 022a 2D       		.uleb128 0x2d
ARM GAS  /tmp/cc1YujwN.s 			page 52


 2711 022b 2E       		.uleb128 0x2e
 2712 022c 00       		.byte	0
 2713 022d 3F       		.uleb128 0x3f
 2714 022e 19       		.uleb128 0x19
 2715 022f 03       		.uleb128 0x3
 2716 0230 0E       		.uleb128 0xe
 2717 0231 3A       		.uleb128 0x3a
 2718 0232 0B       		.uleb128 0xb
 2719 0233 3B       		.uleb128 0x3b
 2720 0234 0B       		.uleb128 0xb
 2721 0235 27       		.uleb128 0x27
 2722 0236 19       		.uleb128 0x19
 2723 0237 11       		.uleb128 0x11
 2724 0238 01       		.uleb128 0x1
 2725 0239 12       		.uleb128 0x12
 2726 023a 06       		.uleb128 0x6
 2727 023b 40       		.uleb128 0x40
 2728 023c 18       		.uleb128 0x18
 2729 023d 9742     		.uleb128 0x2117
 2730 023f 19       		.uleb128 0x19
 2731 0240 00       		.byte	0
 2732 0241 00       		.byte	0
 2733 0242 2E       		.uleb128 0x2e
 2734 0243 2E       		.uleb128 0x2e
 2735 0244 00       		.byte	0
 2736 0245 3F       		.uleb128 0x3f
 2737 0246 19       		.uleb128 0x19
 2738 0247 3C       		.uleb128 0x3c
 2739 0248 19       		.uleb128 0x19
 2740 0249 6E       		.uleb128 0x6e
 2741 024a 0E       		.uleb128 0xe
 2742 024b 03       		.uleb128 0x3
 2743 024c 0E       		.uleb128 0xe
 2744 024d 3A       		.uleb128 0x3a
 2745 024e 0B       		.uleb128 0xb
 2746 024f 3B       		.uleb128 0x3b
 2747 0250 05       		.uleb128 0x5
 2748 0251 00       		.byte	0
 2749 0252 00       		.byte	0
 2750 0253 00       		.byte	0
 2751              		.section	.debug_aranges,"",%progbits
 2752 0000 1C000000 		.4byte	0x1c
 2753 0004 0200     		.2byte	0x2
 2754 0006 00000000 		.4byte	.Ldebug_info0
 2755 000a 04       		.byte	0x4
 2756 000b 00       		.byte	0
 2757 000c 0000     		.2byte	0
 2758 000e 0000     		.2byte	0
 2759 0010 00000000 		.4byte	.Ltext0
 2760 0014 A8000000 		.4byte	.Letext0-.Ltext0
 2761 0018 00000000 		.4byte	0
 2762 001c 00000000 		.4byte	0
 2763              		.section	.debug_line,"",%progbits
 2764              	.Ldebug_line0:
 2765 0000 73020000 		.section	.debug_str,"MS",%progbits,1
 2765      02002C02 
 2765      00000201 
ARM GAS  /tmp/cc1YujwN.s 			page 53


 2765      FB0E0D00 
 2765      01010101 
 2766              	.LASF94:
 2767 0000 5F64736F 		.ascii	"_dso_handle\000"
 2767      5F68616E 
 2767      646C6500 
 2768              	.LASF201:
 2769 000c 5243435F 		.ascii	"RCC_SYSCLKConfig\000"
 2769      53595343 
 2769      4C4B436F 
 2769      6E666967 
 2769      00
 2770              	.LASF4:
 2771 001d 73686F72 		.ascii	"short int\000"
 2771      7420696E 
 2771      7400
 2772              	.LASF196:
 2773 0027 4E4D495F 		.ascii	"NMI_Handler\000"
 2773      48616E64 
 2773      6C657200 
 2774              	.LASF29:
 2775 0033 44494552 		.ascii	"DIER\000"
 2775      00
 2776              	.LASF207:
 2777 0038 64726976 		.ascii	"drivers/nvic.c\000"
 2777      6572732F 
 2777      6E766963 
 2777      2E6300
 2778              	.LASF190:
 2779 0047 44656275 		.ascii	"DebugMon_Handler\000"
 2779      674D6F6E 
 2779      5F48616E 
 2779      646C6572 
 2779      00
 2780              	.LASF147:
 2781 0058 5F72616E 		.ascii	"_rand48\000"
 2781      64343800 
 2782              	.LASF180:
 2783 0060 5F5F6664 		.ascii	"__fdlibm_xopen\000"
 2783      6C69626D 
 2783      5F786F70 
 2783      656E00
 2784              	.LASF126:
 2785 006f 5F656D65 		.ascii	"_emergency\000"
 2785      7267656E 
 2785      637900
 2786              	.LASF118:
 2787 007a 5F6D6273 		.ascii	"_mbstate\000"
 2787      74617465 
 2787      00
 2788              	.LASF2:
 2789 0083 5F5F7569 		.ascii	"__uint8_t\000"
 2789      6E74385F 
 2789      7400
 2790              	.LASF138:
 2791 008d 5F617465 		.ascii	"_atexit0\000"
 2791      78697430 
ARM GAS  /tmp/cc1YujwN.s 			page 54


 2791      00
 2792              	.LASF67:
 2793 0096 5F6F6666 		.ascii	"_off_t\000"
 2793      5F7400
 2794              	.LASF56:
 2795 009d 54494D5F 		.ascii	"TIM_TypeDef\000"
 2795      54797065 
 2795      44656600 
 2796              	.LASF167:
 2797 00a9 5F776372 		.ascii	"_wcrtomb_state\000"
 2797      746F6D62 
 2797      5F737461 
 2797      746500
 2798              	.LASF168:
 2799 00b8 5F776373 		.ascii	"_wcsrtombs_state\000"
 2799      72746F6D 
 2799      62735F73 
 2799      74617465 
 2799      00
 2800              	.LASF12:
 2801 00c9 6C6F6E67 		.ascii	"long long unsigned int\000"
 2801      206C6F6E 
 2801      6720756E 
 2801      7369676E 
 2801      65642069 
 2802              	.LASF181:
 2803 00e0 5F5F6664 		.ascii	"__fdlibm_posix\000"
 2803      6C69626D 
 2803      5F706F73 
 2803      697800
 2804              	.LASF106:
 2805 00ef 5F6C6266 		.ascii	"_lbfsize\000"
 2805      73697A65 
 2805      00
 2806              	.LASF193:
 2807 00f8 42757346 		.ascii	"BusFault_Handler\000"
 2807      61756C74 
 2807      5F48616E 
 2807      646C6572 
 2807      00
 2808              	.LASF18:
 2809 0109 75696E74 		.ascii	"uint32_t\000"
 2809      33325F74 
 2809      00
 2810              	.LASF20:
 2811 0112 49544D5F 		.ascii	"ITM_RxBuffer\000"
 2811      52784275 
 2811      66666572 
 2811      00
 2812              	.LASF182:
 2813 011f 5F5F6664 		.ascii	"__fdlib_version\000"
 2813      6C69625F 
 2813      76657273 
 2813      696F6E00 
 2814              	.LASF57:
 2815 012f 6779726F 		.ascii	"gyro\000"
 2815      00
ARM GAS  /tmp/cc1YujwN.s 			page 55


 2816              	.LASF165:
 2817 0134 5F6D6272 		.ascii	"_mbrtowc_state\000"
 2817      746F7763 
 2817      5F737461 
 2817      746500
 2818              	.LASF51:
 2819 0143 42445452 		.ascii	"BDTR\000"
 2819      00
 2820              	.LASF160:
 2821 0148 5F776374 		.ascii	"_wctomb_state\000"
 2821      6F6D625F 
 2821      73746174 
 2821      6500
 2822              	.LASF83:
 2823 0156 5F5F746D 		.ascii	"__tm_sec\000"
 2823      5F736563 
 2823      00
 2824              	.LASF33:
 2825 015f 43434D52 		.ascii	"CCMR1\000"
 2825      3100
 2826              	.LASF35:
 2827 0165 43434D52 		.ascii	"CCMR2\000"
 2827      3200
 2828              	.LASF111:
 2829 016b 5F636C6F 		.ascii	"_close\000"
 2829      736500
 2830              	.LASF0:
 2831 0172 7369676E 		.ascii	"signed char\000"
 2831      65642063 
 2831      68617200 
 2832              	.LASF112:
 2833 017e 5F756275 		.ascii	"_ubuf\000"
 2833      6600
 2834              	.LASF59:
 2835 0184 47785F6F 		.ascii	"Gx_offset\000"
 2835      66667365 
 2835      7400
 2836              	.LASF101:
 2837 018e 5F626173 		.ascii	"_base\000"
 2837      6500
 2838              	.LASF85:
 2839 0194 5F5F746D 		.ascii	"__tm_hour\000"
 2839      5F686F75 
 2839      7200
 2840              	.LASF141:
 2841 019e 5F5F7366 		.ascii	"__sf\000"
 2841      00
 2842              	.LASF92:
 2843 01a3 5F6F6E5F 		.ascii	"_on_exit_args\000"
 2843      65786974 
 2843      5F617267 
 2843      7300
 2844              	.LASF62:
 2845 01b1 41636331 		.ascii	"Acc1G_Values\000"
 2845      475F5661 
 2845      6C756573 
 2845      00
ARM GAS  /tmp/cc1YujwN.s 			page 56


 2846              	.LASF44:
 2847 01be 52455345 		.ascii	"RESERVED13\000"
 2847      52564544 
 2847      313300
 2848              	.LASF46:
 2849 01c9 52455345 		.ascii	"RESERVED14\000"
 2849      52564544 
 2849      313400
 2850              	.LASF48:
 2851 01d4 52455345 		.ascii	"RESERVED15\000"
 2851      52564544 
 2851      313500
 2852              	.LASF107:
 2853 01df 5F636F6F 		.ascii	"_cookie\000"
 2853      6B696500 
 2854              	.LASF52:
 2855 01e7 52455345 		.ascii	"RESERVED17\000"
 2855      52564544 
 2855      313700
 2856              	.LASF140:
 2857 01f2 5F5F7367 		.ascii	"__sglue\000"
 2857      6C756500 
 2858              	.LASF55:
 2859 01fa 52455345 		.ascii	"RESERVED19\000"
 2859      52564544 
 2859      313900
 2860              	.LASF8:
 2861 0205 6C6F6E67 		.ascii	"long int\000"
 2861      20696E74 
 2861      00
 2862              	.LASF24:
 2863 020e 454E4142 		.ascii	"ENABLE\000"
 2863      4C4500
 2864              	.LASF208:
 2865 0215 2F686F6D 		.ascii	"/home/enbin/Documents/code/STM/stm32-quadrocopter\000"
 2865      652F656E 
 2865      62696E2F 
 2865      446F6375 
 2865      6D656E74 
 2866              	.LASF96:
 2867 0247 5F69735F 		.ascii	"_is_cxa\000"
 2867      63786100 
 2868              	.LASF122:
 2869 024f 5F737464 		.ascii	"_stdin\000"
 2869      696E00
 2870              	.LASF179:
 2871 0256 5F5F6664 		.ascii	"__fdlibm_svid\000"
 2871      6C69626D 
 2871      5F737669 
 2871      6400
 2872              	.LASF132:
 2873 0264 5F726573 		.ascii	"_result_k\000"
 2873      756C745F 
 2873      6B00
 2874              	.LASF37:
 2875 026e 43434552 		.ascii	"CCER\000"
 2875      00
ARM GAS  /tmp/cc1YujwN.s 			page 57


 2876              	.LASF11:
 2877 0273 6C6F6E67 		.ascii	"long long int\000"
 2877      206C6F6E 
 2877      6720696E 
 2877      7400
 2878              	.LASF16:
 2879 0281 75696E74 		.ascii	"uint16_t\000"
 2879      31365F74 
 2879      00
 2880              	.LASF183:
 2881 028a 5F737973 		.ascii	"_sys_errlist\000"
 2881      5F657272 
 2881      6C697374 
 2881      00
 2882              	.LASF136:
 2883 0297 5F637674 		.ascii	"_cvtbuf\000"
 2883      62756600 
 2884              	.LASF185:
 2885 029f 74696D65 		.ascii	"timer_counter\000"
 2885      725F636F 
 2885      756E7465 
 2885      7200
 2886              	.LASF192:
 2887 02ad 55736167 		.ascii	"UsageFault_Handler\000"
 2887      65466175 
 2887      6C745F48 
 2887      616E646C 
 2887      657200
 2888              	.LASF166:
 2889 02c0 5F6D6273 		.ascii	"_mbsrtowcs_state\000"
 2889      72746F77 
 2889      63735F73 
 2889      74617465 
 2889      00
 2890              	.LASF164:
 2891 02d1 5F6D6272 		.ascii	"_mbrlen_state\000"
 2891      6C656E5F 
 2891      73746174 
 2891      6500
 2892              	.LASF151:
 2893 02df 5F756E75 		.ascii	"_unused_rand\000"
 2893      7365645F 
 2893      72616E64 
 2893      00
 2894              	.LASF5:
 2895 02ec 5F5F7569 		.ascii	"__uint16_t\000"
 2895      6E743136 
 2895      5F7400
 2896              	.LASF99:
 2897 02f7 5F666E73 		.ascii	"_fns\000"
 2897      00
 2898              	.LASF9:
 2899 02fc 5F5F7569 		.ascii	"__uint32_t\000"
 2899      6E743332 
 2899      5F7400
 2900              	.LASF79:
 2901 0307 5F736967 		.ascii	"_sign\000"
ARM GAS  /tmp/cc1YujwN.s 			page 58


 2901      6E00
 2902              	.LASF173:
 2903 030d 5F696D70 		.ascii	"_impure_ptr\000"
 2903      7572655F 
 2903      70747200 
 2904              	.LASF124:
 2905 0319 5F737464 		.ascii	"_stderr\000"
 2905      65727200 
 2906              	.LASF81:
 2907 0321 5F426967 		.ascii	"_Bigint\000"
 2907      696E7400 
 2908              	.LASF77:
 2909 0329 5F6E6578 		.ascii	"_next\000"
 2909      7400
 2910              	.LASF108:
 2911 032f 5F726561 		.ascii	"_read\000"
 2911      6400
 2912              	.LASF82:
 2913 0335 5F5F746D 		.ascii	"__tm\000"
 2913      00
 2914              	.LASF194:
 2915 033a 4D656D4D 		.ascii	"MemManage_Handler\000"
 2915      616E6167 
 2915      655F4861 
 2915      6E646C65 
 2915      7200
 2916              	.LASF23:
 2917 034c 44495341 		.ascii	"DISABLE\000"
 2917      424C4500 
 2918              	.LASF71:
 2919 0354 5F5F7763 		.ascii	"__wchb\000"
 2919      686200
 2920              	.LASF21:
 2921 035b 53797374 		.ascii	"SystemCoreClock\000"
 2921      656D436F 
 2921      7265436C 
 2921      6F636B00 
 2922              	.LASF135:
 2923 036b 5F637674 		.ascii	"_cvtlen\000"
 2923      6C656E00 
 2924              	.LASF10:
 2925 0373 6C6F6E67 		.ascii	"long unsigned int\000"
 2925      20756E73 
 2925      69676E65 
 2925      6420696E 
 2925      7400
 2926              	.LASF105:
 2927 0385 5F66696C 		.ascii	"_file\000"
 2927      6500
 2928              	.LASF116:
 2929 038b 5F646174 		.ascii	"_data\000"
 2929      6100
 2930              	.LASF145:
 2931 0391 5F6E696F 		.ascii	"_niobs\000"
 2931      627300
 2932              	.LASF156:
 2933 0398 5F72616E 		.ascii	"_rand_next\000"
ARM GAS  /tmp/cc1YujwN.s 			page 59


 2933      645F6E65 
 2933      787400
 2934              	.LASF162:
 2935 03a3 5F736967 		.ascii	"_signal_buf\000"
 2935      6E616C5F 
 2935      62756600 
 2936              	.LASF153:
 2937 03af 5F617363 		.ascii	"_asctime_buf\000"
 2937      74696D65 
 2937      5F627566 
 2937      00
 2938              	.LASF131:
 2939 03bc 5F726573 		.ascii	"_result\000"
 2939      756C7400 
 2940              	.LASF70:
 2941 03c4 5F5F7763 		.ascii	"__wch\000"
 2941      6800
 2942              	.LASF170:
 2943 03ca 5F6E6578 		.ascii	"_nextf\000"
 2943      746600
 2944              	.LASF195:
 2945 03d1 48617264 		.ascii	"HardFault_Handler\000"
 2945      4661756C 
 2945      745F4861 
 2945      6E646C65 
 2945      7200
 2946              	.LASF137:
 2947 03e3 5F6E6577 		.ascii	"_new\000"
 2947      00
 2948              	.LASF117:
 2949 03e8 5F6C6F63 		.ascii	"_lock\000"
 2949      6B00
 2950              	.LASF175:
 2951 03ee 7375626F 		.ascii	"suboptarg\000"
 2951      70746172 
 2951      6700
 2952              	.LASF149:
 2953 03f8 5F6D756C 		.ascii	"_mult\000"
 2953      7400
 2954              	.LASF109:
 2955 03fe 5F777269 		.ascii	"_write\000"
 2955      746500
 2956              	.LASF22:
 2957 0405 52455345 		.ascii	"RESET\000"
 2957      5400
 2958              	.LASF72:
 2959 040b 5F5F636F 		.ascii	"__count\000"
 2959      756E7400 
 2960              	.LASF171:
 2961 0413 5F6E6D61 		.ascii	"_nmalloc\000"
 2961      6C6C6F63 
 2961      00
 2962              	.LASF209:
 2963 041c 5F5F6664 		.ascii	"__fdlibm_version\000"
 2963      6C69626D 
 2963      5F766572 
 2963      73696F6E 
ARM GAS  /tmp/cc1YujwN.s 			page 60


 2963      00
 2964              	.LASF66:
 2965 042d 5F4C4F43 		.ascii	"_LOCK_RECURSIVE_T\000"
 2965      4B5F5245 
 2965      43555253 
 2965      4956455F 
 2965      5400
 2966              	.LASF19:
 2967 043f 73697A65 		.ascii	"sizetype\000"
 2967      74797065 
 2967      00
 2968              	.LASF115:
 2969 0448 5F6F6666 		.ascii	"_offset\000"
 2969      73657400 
 2970              	.LASF60:
 2971 0450 47795F6F 		.ascii	"Gy_offset\000"
 2971      66667365 
 2971      7400
 2972              	.LASF80:
 2973 045a 5F776473 		.ascii	"_wds\000"
 2973      00
 2974              	.LASF41:
 2975 045f 52455345 		.ascii	"RESERVED11\000"
 2975      52564544 
 2975      313100
 2976              	.LASF58:
 2977 046a 61636365 		.ascii	"accel\000"
 2977      6C00
 2978              	.LASF61:
 2979 0470 477A5F6F 		.ascii	"Gz_offset\000"
 2979      66667365 
 2979      7400
 2980              	.LASF93:
 2981 047a 5F666E61 		.ascii	"_fnargs\000"
 2981      72677300 
 2982              	.LASF87:
 2983 0482 5F5F746D 		.ascii	"__tm_mon\000"
 2983      5F6D6F6E 
 2983      00
 2984              	.LASF97:
 2985 048b 5F617465 		.ascii	"_atexit\000"
 2985      78697400 
 2986              	.LASF202:
 2987 0493 54494D5F 		.ascii	"TIM_GetITStatus\000"
 2987      47657449 
 2987      54537461 
 2987      74757300 
 2988              	.LASF129:
 2989 04a3 5F5F7364 		.ascii	"__sdidinit\000"
 2989      6964696E 
 2989      697400
 2990              	.LASF155:
 2991 04ae 5F67616D 		.ascii	"_gamma_signgam\000"
 2991      6D615F73 
 2991      69676E67 
 2991      616D00
 2992              	.LASF69:
ARM GAS  /tmp/cc1YujwN.s 			page 61


 2993 04bd 77696E74 		.ascii	"wint_t\000"
 2993      5F7400
 2994              	.LASF63:
 2995 04c4 666C6F61 		.ascii	"float\000"
 2995      7400
 2996              	.LASF134:
 2997 04ca 5F667265 		.ascii	"_freelist\000"
 2997      656C6973 
 2997      7400
 2998              	.LASF64:
 2999 04d4 50697463 		.ascii	"Pitch\000"
 2999      6800
 3000              	.LASF100:
 3001 04da 5F5F7362 		.ascii	"__sbuf\000"
 3001      756600
 3002              	.LASF25:
 3003 04e1 52455345 		.ascii	"RESERVED0\000"
 3003      52564544 
 3003      3000
 3004              	.LASF26:
 3005 04eb 52455345 		.ascii	"RESERVED1\000"
 3005      52564544 
 3005      3100
 3006              	.LASF28:
 3007 04f5 52455345 		.ascii	"RESERVED2\000"
 3007      52564544 
 3007      3200
 3008              	.LASF30:
 3009 04ff 52455345 		.ascii	"RESERVED3\000"
 3009      52564544 
 3009      3300
 3010              	.LASF31:
 3011 0509 52455345 		.ascii	"RESERVED4\000"
 3011      52564544 
 3011      3400
 3012              	.LASF32:
 3013 0513 52455345 		.ascii	"RESERVED5\000"
 3013      52564544 
 3013      3500
 3014              	.LASF34:
 3015 051d 52455345 		.ascii	"RESERVED6\000"
 3015      52564544 
 3015      3600
 3016              	.LASF38:
 3017 0527 52455345 		.ascii	"RESERVED8\000"
 3017      52564544 
 3017      3800
 3018              	.LASF39:
 3019 0531 52455345 		.ascii	"RESERVED9\000"
 3019      52564544 
 3019      3900
 3020              	.LASF204:
 3021 053b 5243435F 		.ascii	"RCC_HSEConfig\000"
 3021      48534543 
 3021      6F6E6669 
 3021      6700
 3022              	.LASF17:
ARM GAS  /tmp/cc1YujwN.s 			page 62


 3023 0549 696E7433 		.ascii	"int32_t\000"
 3023      325F7400 
 3024              	.LASF1:
 3025 0551 756E7369 		.ascii	"unsigned char\000"
 3025      676E6564 
 3025      20636861 
 3025      7200
 3026              	.LASF146:
 3027 055f 5F696F62 		.ascii	"_iobs\000"
 3027      7300
 3028              	.LASF169:
 3029 0565 5F685F65 		.ascii	"_h_errno\000"
 3029      72726E6F 
 3029      00
 3030              	.LASF186:
 3031 056e 5243435F 		.ascii	"RCC_IRQHandler\000"
 3031      49525148 
 3031      616E646C 
 3031      657200
 3032              	.LASF90:
 3033 057d 5F5F746D 		.ascii	"__tm_yday\000"
 3033      5F796461 
 3033      7900
 3034              	.LASF178:
 3035 0587 5F5F6664 		.ascii	"__fdlibm_ieee\000"
 3035      6C69626D 
 3035      5F696565 
 3035      6500
 3036              	.LASF119:
 3037 0595 5F666C61 		.ascii	"_flags2\000"
 3037      67733200 
 3038              	.LASF200:
 3039 059d 5243435F 		.ascii	"RCC_PLLCmd\000"
 3039      504C4C43 
 3039      6D6400
 3040              	.LASF143:
 3041 05a8 5F5F4649 		.ascii	"__FILE\000"
 3041      4C4500
 3042              	.LASF74:
 3043 05af 5F6D6273 		.ascii	"_mbstate_t\000"
 3043      74617465 
 3043      5F7400
 3044              	.LASF103:
 3045 05ba 5F5F7346 		.ascii	"__sFILE\000"
 3045      494C4500 
 3046              	.LASF184:
 3047 05c2 5F737973 		.ascii	"_sys_nerr\000"
 3047      5F6E6572 
 3047      7200
 3048              	.LASF206:
 3049 05cc 474E5520 		.ascii	"GNU C89 6.1.1 20160526 -mcpu=cortex-m3 -mthumb -mfl"
 3049      43383920 
 3049      362E312E 
 3049      31203230 
 3049      31363035 
 3050 05ff 6F61742D 		.ascii	"oat-abi=soft -g -O1 -std=gnu90 -fno-common -fno-mat"
 3050      6162693D 
ARM GAS  /tmp/cc1YujwN.s 			page 63


 3050      736F6674 
 3050      202D6720 
 3050      2D4F3120 
 3051 0632 682D6572 		.ascii	"h-errno\000"
 3051      726E6F00 
 3052              	.LASF158:
 3053 063a 5F6D626C 		.ascii	"_mblen_state\000"
 3053      656E5F73 
 3053      74617465 
 3053      00
 3054              	.LASF125:
 3055 0647 5F696E63 		.ascii	"_inc\000"
 3055      00
 3056              	.LASF98:
 3057 064c 5F696E64 		.ascii	"_ind\000"
 3057      00
 3058              	.LASF128:
 3059 0651 5F637572 		.ascii	"_current_locale\000"
 3059      72656E74 
 3059      5F6C6F63 
 3059      616C6500 
 3060              	.LASF191:
 3061 0661 5356435F 		.ascii	"SVC_Handler\000"
 3061      48616E64 
 3061      6C657200 
 3062              	.LASF130:
 3063 066d 5F5F636C 		.ascii	"__cleanup\000"
 3063      65616E75 
 3063      7000
 3064              	.LASF78:
 3065 0677 5F6D6178 		.ascii	"_maxwds\000"
 3065      77647300 
 3066              	.LASF120:
 3067 067f 5F726565 		.ascii	"_reent\000"
 3067      6E7400
 3068              	.LASF148:
 3069 0686 5F736565 		.ascii	"_seed\000"
 3069      6400
 3070              	.LASF198:
 3071 068c 5243435F 		.ascii	"RCC_ClearITPendingBit\000"
 3071      436C6561 
 3071      72495450 
 3071      656E6469 
 3071      6E674269 
 3072              	.LASF73:
 3073 06a2 5F5F7661 		.ascii	"__value\000"
 3073      6C756500 
 3074              	.LASF36:
 3075 06aa 52455345 		.ascii	"RESERVED7\000"
 3075      52564544 
 3075      3700
 3076              	.LASF110:
 3077 06b4 5F736565 		.ascii	"_seek\000"
 3077      6B00
 3078              	.LASF188:
 3079 06ba 53797354 		.ascii	"SysTick_Handler\000"
 3079      69636B5F 
ARM GAS  /tmp/cc1YujwN.s 			page 64


 3079      48616E64 
 3079      6C657200 
 3080              	.LASF89:
 3081 06ca 5F5F746D 		.ascii	"__tm_wday\000"
 3081      5F776461 
 3081      7900
 3082              	.LASF68:
 3083 06d4 5F66706F 		.ascii	"_fpos_t\000"
 3083      735F7400 
 3084              	.LASF177:
 3085 06dc 6C6F6E67 		.ascii	"long double\000"
 3085      20646F75 
 3085      626C6500 
 3086              	.LASF88:
 3087 06e8 5F5F746D 		.ascii	"__tm_year\000"
 3087      5F796561 
 3087      7200
 3088              	.LASF121:
 3089 06f2 5F657272 		.ascii	"_errno\000"
 3089      6E6F00
 3090              	.LASF142:
 3091 06f9 63686172 		.ascii	"char\000"
 3091      00
 3092              	.LASF114:
 3093 06fe 5F626C6B 		.ascii	"_blksize\000"
 3093      73697A65 
 3093      00
 3094              	.LASF27:
 3095 0707 534D4352 		.ascii	"SMCR\000"
 3095      00
 3096              	.LASF102:
 3097 070c 5F73697A 		.ascii	"_size\000"
 3097      6500
 3098              	.LASF13:
 3099 0712 756E7369 		.ascii	"unsigned int\000"
 3099      676E6564 
 3099      20696E74 
 3099      00
 3100              	.LASF54:
 3101 071f 444D4152 		.ascii	"DMAR\000"
 3101      00
 3102              	.LASF203:
 3103 0724 54494D5F 		.ascii	"TIM_ClearITPendingBit\000"
 3103      436C6561 
 3103      72495450 
 3103      656E6469 
 3103      6E674269 
 3104              	.LASF7:
 3105 073a 5F5F696E 		.ascii	"__int32_t\000"
 3105      7433325F 
 3105      7400
 3106              	.LASF197:
 3107 0744 5243435F 		.ascii	"RCC_GetITStatus\000"
 3107      47657449 
 3107      54537461 
 3107      74757300 
 3108              	.LASF152:
ARM GAS  /tmp/cc1YujwN.s 			page 65


 3109 0754 5F737472 		.ascii	"_strtok_last\000"
 3109      746F6B5F 
 3109      6C617374 
 3109      00
 3110              	.LASF95:
 3111 0761 5F666E74 		.ascii	"_fntypes\000"
 3111      79706573 
 3111      00
 3112              	.LASF199:
 3113 076a 5243435F 		.ascii	"RCC_GetFlagStatus\000"
 3113      47657446 
 3113      6C616753 
 3113      74617475 
 3113      7300
 3114              	.LASF6:
 3115 077c 73686F72 		.ascii	"short unsigned int\000"
 3115      7420756E 
 3115      7369676E 
 3115      65642069 
 3115      6E7400
 3116              	.LASF150:
 3117 078f 5F616464 		.ascii	"_add\000"
 3117      00
 3118              	.LASF76:
 3119 0794 5F5F554C 		.ascii	"__ULong\000"
 3119      6F6E6700 
 3120              	.LASF163:
 3121 079c 5F676574 		.ascii	"_getdate_err\000"
 3121      64617465 
 3121      5F657272 
 3121      00
 3122              	.LASF65:
 3123 07a9 69506974 		.ascii	"iPitch\000"
 3123      636800
 3124              	.LASF40:
 3125 07b0 52455345 		.ascii	"RESERVED10\000"
 3125      52564544 
 3125      313000
 3126              	.LASF174:
 3127 07bb 5F676C6F 		.ascii	"_global_impure_ptr\000"
 3127      62616C5F 
 3127      696D7075 
 3127      72655F70 
 3127      747200
 3128              	.LASF127:
 3129 07ce 5F637572 		.ascii	"_current_category\000"
 3129      72656E74 
 3129      5F636174 
 3129      65676F72 
 3129      7900
 3130              	.LASF42:
 3131 07e0 52455345 		.ascii	"RESERVED12\000"
 3131      52564544 
 3131      313200
 3132              	.LASF43:
 3133 07eb 43435231 		.ascii	"CCR1\000"
 3133      00
ARM GAS  /tmp/cc1YujwN.s 			page 66


 3134              	.LASF45:
 3135 07f0 43435232 		.ascii	"CCR2\000"
 3135      00
 3136              	.LASF47:
 3137 07f5 43435233 		.ascii	"CCR3\000"
 3137      00
 3138              	.LASF49:
 3139 07fa 43435234 		.ascii	"CCR4\000"
 3139      00
 3140              	.LASF50:
 3141 07ff 52455345 		.ascii	"RESERVED16\000"
 3141      52564544 
 3141      313600
 3142              	.LASF53:
 3143 080a 52455345 		.ascii	"RESERVED18\000"
 3143      52564544 
 3143      313800
 3144              	.LASF123:
 3145 0815 5F737464 		.ascii	"_stdout\000"
 3145      6F757400 
 3146              	.LASF144:
 3147 081d 5F676C75 		.ascii	"_glue\000"
 3147      6500
 3148              	.LASF205:
 3149 0823 5243435F 		.ascii	"RCC_ITConfig\000"
 3149      4954436F 
 3149      6E666967 
 3149      00
 3150              	.LASF104:
 3151 0830 5F666C61 		.ascii	"_flags\000"
 3151      677300
 3152              	.LASF14:
 3153 0837 75696E74 		.ascii	"uint8_t\000"
 3153      385F7400 
 3154              	.LASF161:
 3155 083f 5F6C3634 		.ascii	"_l64a_buf\000"
 3155      615F6275 
 3155      6600
 3156              	.LASF139:
 3157 0849 5F736967 		.ascii	"_sig_func\000"
 3157      5F66756E 
 3157      6300
 3158              	.LASF75:
 3159 0853 5F666C6F 		.ascii	"_flock_t\000"
 3159      636B5F74 
 3159      00
 3160              	.LASF3:
 3161 085c 5F5F696E 		.ascii	"__int16_t\000"
 3161      7431365F 
 3161      7400
 3162              	.LASF113:
 3163 0866 5F6E6275 		.ascii	"_nbuf\000"
 3163      6600
 3164              	.LASF172:
 3165 086c 5F756E75 		.ascii	"_unused\000"
 3165      73656400 
 3166              	.LASF91:
ARM GAS  /tmp/cc1YujwN.s 			page 67


 3167 0874 5F5F746D 		.ascii	"__tm_isdst\000"
 3167      5F697364 
 3167      737400
 3168              	.LASF154:
 3169 087f 5F6C6F63 		.ascii	"_localtime_buf\000"
 3169      616C7469 
 3169      6D655F62 
 3169      756600
 3170              	.LASF84:
 3171 088e 5F5F746D 		.ascii	"__tm_min\000"
 3171      5F6D696E 
 3171      00
 3172              	.LASF157:
 3173 0897 5F723438 		.ascii	"_r48\000"
 3173      00
 3174              	.LASF159:
 3175 089c 5F6D6274 		.ascii	"_mbtowc_state\000"
 3175      6F77635F 
 3175      73746174 
 3175      6500
 3176              	.LASF189:
 3177 08aa 50656E64 		.ascii	"PendSV_Handler\000"
 3177      53565F48 
 3177      616E646C 
 3177      657200
 3178              	.LASF133:
 3179 08b9 5F703573 		.ascii	"_p5s\000"
 3179      00
 3180              	.LASF15:
 3181 08be 696E7431 		.ascii	"int16_t\000"
 3181      365F7400 
 3182              	.LASF176:
 3183 08c6 646F7562 		.ascii	"double\000"
 3183      6C6500
 3184              	.LASF187:
 3185 08cd 54494D32 		.ascii	"TIM2_IRQHandler\000"
 3185      5F495251 
 3185      48616E64 
 3185      6C657200 
 3186              	.LASF86:
 3187 08dd 5F5F746D 		.ascii	"__tm_mday\000"
 3187      5F6D6461 
 3187      7900
 3188              		.ident	"GCC: (Arch Repository) 6.1.1 20160526"
ARM GAS  /tmp/cc1YujwN.s 			page 68


DEFINED SYMBOLS
                            *ABS*:0000000000000000 nvic.c
     /tmp/cc1YujwN.s:15     .text:0000000000000000 $t
     /tmp/cc1YujwN.s:22     .text:0000000000000000 NMI_Handler
     /tmp/cc1YujwN.s:71     .text:000000000000002c HardFault_Handler
     /tmp/cc1YujwN.s:91     .text:000000000000002e MemManage_Handler
     /tmp/cc1YujwN.s:111    .text:0000000000000030 BusFault_Handler
     /tmp/cc1YujwN.s:131    .text:0000000000000032 UsageFault_Handler
     /tmp/cc1YujwN.s:151    .text:0000000000000034 SVC_Handler
     /tmp/cc1YujwN.s:169    .text:0000000000000036 DebugMon_Handler
     /tmp/cc1YujwN.s:187    .text:0000000000000038 PendSV_Handler
     /tmp/cc1YujwN.s:205    .text:000000000000003a SysTick_Handler
     /tmp/cc1YujwN.s:223    .text:000000000000003c TIM2_IRQHandler
     /tmp/cc1YujwN.s:258    .text:0000000000000060 $d
     /tmp/cc1YujwN.s:262    .text:0000000000000064 $t
     /tmp/cc1YujwN.s:269    .text:0000000000000064 RCC_IRQHandler
     /tmp/cc1YujwN.s:334    .bss:0000000000000000 timer_counter
     /tmp/cc1YujwN.s:330    .bss:0000000000000000 $d
                     .debug_frame:0000000000000010 $d

UNDEFINED SYMBOLS
RCC_GetITStatus
RCC_HSEConfig
RCC_ITConfig
RCC_ClearITPendingBit
TIM_GetITStatus
TIM_ClearITPendingBit
RCC_GetFlagStatus
RCC_PLLCmd
RCC_SYSCLKConfig
