ARM GAS  /tmp/ccuwQjW2.s 			page 1


   1              		.cpu cortex-m3
   2              		.eabi_attribute 20, 1
   3              		.eabi_attribute 21, 1
   4              		.eabi_attribute 23, 3
   5              		.eabi_attribute 24, 1
   6              		.eabi_attribute 25, 1
   7              		.eabi_attribute 26, 1
   8              		.eabi_attribute 30, 1
   9              		.eabi_attribute 34, 1
  10              		.eabi_attribute 18, 4
  11              		.file	"stm32f10x_i2c.c"
  12              		.text
  13              	.Ltext0:
  14              		.cfi_sections	.debug_frame
  15              		.align	1
  16              		.global	I2C_DeInit
  17              		.syntax unified
  18              		.thumb
  19              		.thumb_func
  20              		.fpu softvfp
  21              		.type	I2C_DeInit, %function
  22              	I2C_DeInit:
  23              	.LFB64:
  24              		.file 1 "lib/src/stm32f10x_i2c.c"
   1:lib/src/stm32f10x_i2c.c **** /**
   2:lib/src/stm32f10x_i2c.c ****   ******************************************************************************
   3:lib/src/stm32f10x_i2c.c ****   * @file    stm32f10x_i2c.c
   4:lib/src/stm32f10x_i2c.c ****   * @author  MCD Application Team
   5:lib/src/stm32f10x_i2c.c ****   * @version V3.5.0
   6:lib/src/stm32f10x_i2c.c ****   * @date    11-March-2011
   7:lib/src/stm32f10x_i2c.c ****   * @brief   This file provides all the I2C firmware functions.
   8:lib/src/stm32f10x_i2c.c ****   ******************************************************************************
   9:lib/src/stm32f10x_i2c.c ****   * @attention
  10:lib/src/stm32f10x_i2c.c ****   *
  11:lib/src/stm32f10x_i2c.c ****   * THE PRESENT FIRMWARE WHICH IS FOR GUIDANCE ONLY AIMS AT PROVIDING CUSTOMERS
  12:lib/src/stm32f10x_i2c.c ****   * WITH CODING INFORMATION REGARDING THEIR PRODUCTS IN ORDER FOR THEM TO SAVE
  13:lib/src/stm32f10x_i2c.c ****   * TIME. AS A RESULT, STMICROELECTRONICS SHALL NOT BE HELD LIABLE FOR ANY
  14:lib/src/stm32f10x_i2c.c ****   * DIRECT, INDIRECT OR CONSEQUENTIAL DAMAGES WITH RESPECT TO ANY CLAIMS ARISING
  15:lib/src/stm32f10x_i2c.c ****   * FROM THE CONTENT OF SUCH FIRMWARE AND/OR THE USE MADE BY CUSTOMERS OF THE
  16:lib/src/stm32f10x_i2c.c ****   * CODING INFORMATION CONTAINED HEREIN IN CONNECTION WITH THEIR PRODUCTS.
  17:lib/src/stm32f10x_i2c.c ****   *
  18:lib/src/stm32f10x_i2c.c ****   * <h2><center>&copy; COPYRIGHT 2011 STMicroelectronics</center></h2>
  19:lib/src/stm32f10x_i2c.c ****   ******************************************************************************
  20:lib/src/stm32f10x_i2c.c ****   */
  21:lib/src/stm32f10x_i2c.c **** 
  22:lib/src/stm32f10x_i2c.c **** /* Includes ------------------------------------------------------------------*/
  23:lib/src/stm32f10x_i2c.c **** #include "stm32f10x_i2c.h"
  24:lib/src/stm32f10x_i2c.c **** #include "stm32f10x_rcc.h"
  25:lib/src/stm32f10x_i2c.c **** #include "conf.h"
  26:lib/src/stm32f10x_i2c.c **** 
  27:lib/src/stm32f10x_i2c.c **** 
  28:lib/src/stm32f10x_i2c.c **** /** @addtogroup STM32F10x_StdPeriph_Driver
  29:lib/src/stm32f10x_i2c.c ****   * @{
  30:lib/src/stm32f10x_i2c.c ****   */
  31:lib/src/stm32f10x_i2c.c **** 
  32:lib/src/stm32f10x_i2c.c **** /** @defgroup I2C 
  33:lib/src/stm32f10x_i2c.c ****   * @brief I2C driver modules
ARM GAS  /tmp/ccuwQjW2.s 			page 2


  34:lib/src/stm32f10x_i2c.c ****   * @{
  35:lib/src/stm32f10x_i2c.c ****   */ 
  36:lib/src/stm32f10x_i2c.c **** 
  37:lib/src/stm32f10x_i2c.c **** /** @defgroup I2C_Private_TypesDefinitions
  38:lib/src/stm32f10x_i2c.c ****   * @{
  39:lib/src/stm32f10x_i2c.c ****   */
  40:lib/src/stm32f10x_i2c.c **** 
  41:lib/src/stm32f10x_i2c.c **** /**
  42:lib/src/stm32f10x_i2c.c ****   * @}
  43:lib/src/stm32f10x_i2c.c ****   */
  44:lib/src/stm32f10x_i2c.c **** 
  45:lib/src/stm32f10x_i2c.c **** /** @defgroup I2C_Private_Defines
  46:lib/src/stm32f10x_i2c.c ****   * @{
  47:lib/src/stm32f10x_i2c.c ****   */
  48:lib/src/stm32f10x_i2c.c **** 
  49:lib/src/stm32f10x_i2c.c **** /* I2C SPE mask */
  50:lib/src/stm32f10x_i2c.c **** #define CR1_PE_Set              ((uint16_t)0x0001)
  51:lib/src/stm32f10x_i2c.c **** #define CR1_PE_Reset            ((uint16_t)0xFFFE)
  52:lib/src/stm32f10x_i2c.c **** 
  53:lib/src/stm32f10x_i2c.c **** /* I2C START mask */
  54:lib/src/stm32f10x_i2c.c **** #define CR1_START_Set           ((uint16_t)0x0100)
  55:lib/src/stm32f10x_i2c.c **** #define CR1_START_Reset         ((uint16_t)0xFEFF)
  56:lib/src/stm32f10x_i2c.c **** 
  57:lib/src/stm32f10x_i2c.c **** /* I2C STOP mask */
  58:lib/src/stm32f10x_i2c.c **** #define CR1_STOP_Set            ((uint16_t)0x0200)
  59:lib/src/stm32f10x_i2c.c **** #define CR1_STOP_Reset          ((uint16_t)0xFDFF)
  60:lib/src/stm32f10x_i2c.c **** 
  61:lib/src/stm32f10x_i2c.c **** /* I2C ACK mask */
  62:lib/src/stm32f10x_i2c.c **** #define CR1_ACK_Set             ((uint16_t)0x0400)
  63:lib/src/stm32f10x_i2c.c **** #define CR1_ACK_Reset           ((uint16_t)0xFBFF)
  64:lib/src/stm32f10x_i2c.c **** 
  65:lib/src/stm32f10x_i2c.c **** /* I2C ENGC mask */
  66:lib/src/stm32f10x_i2c.c **** #define CR1_ENGC_Set            ((uint16_t)0x0040)
  67:lib/src/stm32f10x_i2c.c **** #define CR1_ENGC_Reset          ((uint16_t)0xFFBF)
  68:lib/src/stm32f10x_i2c.c **** 
  69:lib/src/stm32f10x_i2c.c **** /* I2C SWRST mask */
  70:lib/src/stm32f10x_i2c.c **** #define CR1_SWRST_Set           ((uint16_t)0x8000)
  71:lib/src/stm32f10x_i2c.c **** #define CR1_SWRST_Reset         ((uint16_t)0x7FFF)
  72:lib/src/stm32f10x_i2c.c **** 
  73:lib/src/stm32f10x_i2c.c **** /* I2C PEC mask */
  74:lib/src/stm32f10x_i2c.c **** #define CR1_PEC_Set             ((uint16_t)0x1000)
  75:lib/src/stm32f10x_i2c.c **** #define CR1_PEC_Reset           ((uint16_t)0xEFFF)
  76:lib/src/stm32f10x_i2c.c **** 
  77:lib/src/stm32f10x_i2c.c **** /* I2C ENPEC mask */
  78:lib/src/stm32f10x_i2c.c **** #define CR1_ENPEC_Set           ((uint16_t)0x0020)
  79:lib/src/stm32f10x_i2c.c **** #define CR1_ENPEC_Reset         ((uint16_t)0xFFDF)
  80:lib/src/stm32f10x_i2c.c **** 
  81:lib/src/stm32f10x_i2c.c **** /* I2C ENARP mask */
  82:lib/src/stm32f10x_i2c.c **** #define CR1_ENARP_Set           ((uint16_t)0x0010)
  83:lib/src/stm32f10x_i2c.c **** #define CR1_ENARP_Reset         ((uint16_t)0xFFEF)
  84:lib/src/stm32f10x_i2c.c **** 
  85:lib/src/stm32f10x_i2c.c **** /* I2C NOSTRETCH mask */
  86:lib/src/stm32f10x_i2c.c **** #define CR1_NOSTRETCH_Set       ((uint16_t)0x0080)
  87:lib/src/stm32f10x_i2c.c **** #define CR1_NOSTRETCH_Reset     ((uint16_t)0xFF7F)
  88:lib/src/stm32f10x_i2c.c **** 
  89:lib/src/stm32f10x_i2c.c **** /* I2C registers Masks */
  90:lib/src/stm32f10x_i2c.c **** #define CR1_CLEAR_Mask          ((uint16_t)0xFBF5)
ARM GAS  /tmp/ccuwQjW2.s 			page 3


  91:lib/src/stm32f10x_i2c.c **** 
  92:lib/src/stm32f10x_i2c.c **** /* I2C DMAEN mask */
  93:lib/src/stm32f10x_i2c.c **** #define CR2_DMAEN_Set           ((uint16_t)0x0800)
  94:lib/src/stm32f10x_i2c.c **** #define CR2_DMAEN_Reset         ((uint16_t)0xF7FF)
  95:lib/src/stm32f10x_i2c.c **** 
  96:lib/src/stm32f10x_i2c.c **** /* I2C LAST mask */
  97:lib/src/stm32f10x_i2c.c **** #define CR2_LAST_Set            ((uint16_t)0x1000)
  98:lib/src/stm32f10x_i2c.c **** #define CR2_LAST_Reset          ((uint16_t)0xEFFF)
  99:lib/src/stm32f10x_i2c.c **** 
 100:lib/src/stm32f10x_i2c.c **** /* I2C FREQ mask */
 101:lib/src/stm32f10x_i2c.c **** #define CR2_FREQ_Reset          ((uint16_t)0xFFC0)
 102:lib/src/stm32f10x_i2c.c **** 
 103:lib/src/stm32f10x_i2c.c **** /* I2C ADD0 mask */
 104:lib/src/stm32f10x_i2c.c **** #define OAR1_ADD0_Set           ((uint16_t)0x0001)
 105:lib/src/stm32f10x_i2c.c **** #define OAR1_ADD0_Reset         ((uint16_t)0xFFFE)
 106:lib/src/stm32f10x_i2c.c **** 
 107:lib/src/stm32f10x_i2c.c **** /* I2C ENDUAL mask */
 108:lib/src/stm32f10x_i2c.c **** #define OAR2_ENDUAL_Set         ((uint16_t)0x0001)
 109:lib/src/stm32f10x_i2c.c **** #define OAR2_ENDUAL_Reset       ((uint16_t)0xFFFE)
 110:lib/src/stm32f10x_i2c.c **** 
 111:lib/src/stm32f10x_i2c.c **** /* I2C ADD2 mask */
 112:lib/src/stm32f10x_i2c.c **** #define OAR2_ADD2_Reset         ((uint16_t)0xFF01)
 113:lib/src/stm32f10x_i2c.c **** 
 114:lib/src/stm32f10x_i2c.c **** /* I2C F/S mask */
 115:lib/src/stm32f10x_i2c.c **** #define CCR_FS_Set              ((uint16_t)0x8000)
 116:lib/src/stm32f10x_i2c.c **** 
 117:lib/src/stm32f10x_i2c.c **** /* I2C CCR mask */
 118:lib/src/stm32f10x_i2c.c **** #define CCR_CCR_Set             ((uint16_t)0x0FFF)
 119:lib/src/stm32f10x_i2c.c **** 
 120:lib/src/stm32f10x_i2c.c **** /* I2C FLAG mask */
 121:lib/src/stm32f10x_i2c.c **** #define FLAG_Mask               ((uint32_t)0x00FFFFFF)
 122:lib/src/stm32f10x_i2c.c **** 
 123:lib/src/stm32f10x_i2c.c **** /* I2C Interrupt Enable mask */
 124:lib/src/stm32f10x_i2c.c **** #define ITEN_Mask               ((uint32_t)0x07000000)
 125:lib/src/stm32f10x_i2c.c **** 
 126:lib/src/stm32f10x_i2c.c **** /**
 127:lib/src/stm32f10x_i2c.c ****   * @}
 128:lib/src/stm32f10x_i2c.c ****   */
 129:lib/src/stm32f10x_i2c.c **** 
 130:lib/src/stm32f10x_i2c.c **** /** @defgroup I2C_Private_Macros
 131:lib/src/stm32f10x_i2c.c ****   * @{
 132:lib/src/stm32f10x_i2c.c ****   */
 133:lib/src/stm32f10x_i2c.c **** 
 134:lib/src/stm32f10x_i2c.c **** /**
 135:lib/src/stm32f10x_i2c.c ****   * @}
 136:lib/src/stm32f10x_i2c.c ****   */
 137:lib/src/stm32f10x_i2c.c **** 
 138:lib/src/stm32f10x_i2c.c **** /** @defgroup I2C_Private_Variables
 139:lib/src/stm32f10x_i2c.c ****   * @{
 140:lib/src/stm32f10x_i2c.c ****   */
 141:lib/src/stm32f10x_i2c.c **** 
 142:lib/src/stm32f10x_i2c.c **** /**
 143:lib/src/stm32f10x_i2c.c ****   * @}
 144:lib/src/stm32f10x_i2c.c ****   */
 145:lib/src/stm32f10x_i2c.c **** 
 146:lib/src/stm32f10x_i2c.c **** /** @defgroup I2C_Private_FunctionPrototypes
 147:lib/src/stm32f10x_i2c.c ****   * @{
ARM GAS  /tmp/ccuwQjW2.s 			page 4


 148:lib/src/stm32f10x_i2c.c ****   */
 149:lib/src/stm32f10x_i2c.c **** 
 150:lib/src/stm32f10x_i2c.c **** /**
 151:lib/src/stm32f10x_i2c.c ****   * @}
 152:lib/src/stm32f10x_i2c.c ****   */
 153:lib/src/stm32f10x_i2c.c **** 
 154:lib/src/stm32f10x_i2c.c **** /** @defgroup I2C_Private_Functions
 155:lib/src/stm32f10x_i2c.c ****   * @{
 156:lib/src/stm32f10x_i2c.c ****   */
 157:lib/src/stm32f10x_i2c.c **** 
 158:lib/src/stm32f10x_i2c.c **** /**
 159:lib/src/stm32f10x_i2c.c ****   * @brief  Deinitializes the I2Cx peripheral registers to their default reset values.
 160:lib/src/stm32f10x_i2c.c ****   * @param  I2Cx: where x can be 1 or 2 to select the I2C peripheral.
 161:lib/src/stm32f10x_i2c.c ****   * @retval None
 162:lib/src/stm32f10x_i2c.c ****   */
 163:lib/src/stm32f10x_i2c.c **** void I2C_DeInit(I2C_TypeDef* I2Cx)
 164:lib/src/stm32f10x_i2c.c **** {
  25              		.loc 1 164 0
  26              		.cfi_startproc
  27              		@ args = 0, pretend = 0, frame = 0
  28              		@ frame_needed = 0, uses_anonymous_args = 0
  29              	.LVL0:
  30 0000 08B5     		push	{r3, lr}
  31              		.cfi_def_cfa_offset 8
  32              		.cfi_offset 3, -8
  33              		.cfi_offset 14, -4
 165:lib/src/stm32f10x_i2c.c ****   /* Check the parameters */
 166:lib/src/stm32f10x_i2c.c ****   assert_param(IS_I2C_ALL_PERIPH(I2Cx));
 167:lib/src/stm32f10x_i2c.c **** 
 168:lib/src/stm32f10x_i2c.c ****   if (I2Cx == I2C1)
  34              		.loc 1 168 0
  35 0002 0C4B     		ldr	r3, .L6
  36 0004 9842     		cmp	r0, r3
  37 0006 0AD0     		beq	.L5
 169:lib/src/stm32f10x_i2c.c ****   {
 170:lib/src/stm32f10x_i2c.c ****     /* Enable I2C1 reset state */
 171:lib/src/stm32f10x_i2c.c ****     RCC_APB1PeriphResetCmd(RCC_APB1Periph_I2C1, ENABLE);
 172:lib/src/stm32f10x_i2c.c ****     /* Release I2C1 from reset state */
 173:lib/src/stm32f10x_i2c.c ****     RCC_APB1PeriphResetCmd(RCC_APB1Periph_I2C1, DISABLE);
 174:lib/src/stm32f10x_i2c.c ****   }
 175:lib/src/stm32f10x_i2c.c ****   else
 176:lib/src/stm32f10x_i2c.c ****   {
 177:lib/src/stm32f10x_i2c.c ****     /* Enable I2C2 reset state */
 178:lib/src/stm32f10x_i2c.c ****     RCC_APB1PeriphResetCmd(RCC_APB1Periph_I2C2, ENABLE);
  38              		.loc 1 178 0
  39 0008 0121     		movs	r1, #1
  40 000a 4FF48000 		mov	r0, #4194304
  41              	.LVL1:
  42 000e FFF7FEFF 		bl	RCC_APB1PeriphResetCmd
  43              	.LVL2:
 179:lib/src/stm32f10x_i2c.c ****     /* Release I2C2 from reset state */
 180:lib/src/stm32f10x_i2c.c ****     RCC_APB1PeriphResetCmd(RCC_APB1Periph_I2C2, DISABLE);
  44              		.loc 1 180 0
  45 0012 0021     		movs	r1, #0
  46 0014 4FF48000 		mov	r0, #4194304
  47 0018 FFF7FEFF 		bl	RCC_APB1PeriphResetCmd
  48              	.LVL3:
ARM GAS  /tmp/ccuwQjW2.s 			page 5


  49 001c 08BD     		pop	{r3, pc}
  50              	.LVL4:
  51              	.L5:
 171:lib/src/stm32f10x_i2c.c ****     /* Release I2C1 from reset state */
  52              		.loc 1 171 0
  53 001e 0121     		movs	r1, #1
  54 0020 4FF40010 		mov	r0, #2097152
  55              	.LVL5:
  56 0024 FFF7FEFF 		bl	RCC_APB1PeriphResetCmd
  57              	.LVL6:
 173:lib/src/stm32f10x_i2c.c ****   }
  58              		.loc 1 173 0
  59 0028 0021     		movs	r1, #0
  60 002a 4FF40010 		mov	r0, #2097152
  61 002e FFF7FEFF 		bl	RCC_APB1PeriphResetCmd
  62              	.LVL7:
  63 0032 08BD     		pop	{r3, pc}
  64              	.L7:
  65              		.align	2
  66              	.L6:
  67 0034 00540040 		.word	1073763328
  68              		.cfi_endproc
  69              	.LFE64:
  70              		.size	I2C_DeInit, .-I2C_DeInit
  71              		.align	1
  72              		.global	I2C_Init
  73              		.syntax unified
  74              		.thumb
  75              		.thumb_func
  76              		.fpu softvfp
  77              		.type	I2C_Init, %function
  78              	I2C_Init:
  79              	.LFB65:
 181:lib/src/stm32f10x_i2c.c ****   }
 182:lib/src/stm32f10x_i2c.c **** }
 183:lib/src/stm32f10x_i2c.c **** 
 184:lib/src/stm32f10x_i2c.c **** /**
 185:lib/src/stm32f10x_i2c.c ****   * @brief  Initializes the I2Cx peripheral according to the specified 
 186:lib/src/stm32f10x_i2c.c ****   *   parameters in the I2C_InitStruct.
 187:lib/src/stm32f10x_i2c.c ****   * @param  I2Cx: where x can be 1 or 2 to select the I2C peripheral.
 188:lib/src/stm32f10x_i2c.c ****   * @param  I2C_InitStruct: pointer to a I2C_InitTypeDef structure that
 189:lib/src/stm32f10x_i2c.c ****   *   contains the configuration information for the specified I2C peripheral.
 190:lib/src/stm32f10x_i2c.c ****   * @retval None
 191:lib/src/stm32f10x_i2c.c ****   */
 192:lib/src/stm32f10x_i2c.c **** void I2C_Init(I2C_TypeDef* I2Cx, I2C_InitTypeDef* I2C_InitStruct)
 193:lib/src/stm32f10x_i2c.c **** {
  80              		.loc 1 193 0
  81              		.cfi_startproc
  82              		@ args = 0, pretend = 0, frame = 24
  83              		@ frame_needed = 0, uses_anonymous_args = 0
  84              	.LVL8:
  85 0038 F0B5     		push	{r4, r5, r6, r7, lr}
  86              		.cfi_def_cfa_offset 20
  87              		.cfi_offset 4, -20
  88              		.cfi_offset 5, -16
  89              		.cfi_offset 6, -12
  90              		.cfi_offset 7, -8
ARM GAS  /tmp/ccuwQjW2.s 			page 6


  91              		.cfi_offset 14, -4
  92 003a 87B0     		sub	sp, sp, #28
  93              		.cfi_def_cfa_offset 48
  94 003c 0446     		mov	r4, r0
  95 003e 0D46     		mov	r5, r1
  96              	.LVL9:
 194:lib/src/stm32f10x_i2c.c ****   uint16_t tmpreg = 0, freqrange = 0;
 195:lib/src/stm32f10x_i2c.c ****   uint16_t result = 0x04;
 196:lib/src/stm32f10x_i2c.c ****   uint32_t pclk1 = 8000000;
 197:lib/src/stm32f10x_i2c.c ****   RCC_ClocksTypeDef  rcc_clocks;
 198:lib/src/stm32f10x_i2c.c ****   /* Check the parameters */
 199:lib/src/stm32f10x_i2c.c ****   assert_param(IS_I2C_ALL_PERIPH(I2Cx));
 200:lib/src/stm32f10x_i2c.c ****   assert_param(IS_I2C_CLOCK_SPEED(I2C_InitStruct->I2C_ClockSpeed));
 201:lib/src/stm32f10x_i2c.c ****   assert_param(IS_I2C_MODE(I2C_InitStruct->I2C_Mode));
 202:lib/src/stm32f10x_i2c.c ****   assert_param(IS_I2C_DUTY_CYCLE(I2C_InitStruct->I2C_DutyCycle));
 203:lib/src/stm32f10x_i2c.c ****   assert_param(IS_I2C_OWN_ADDRESS1(I2C_InitStruct->I2C_OwnAddress1));
 204:lib/src/stm32f10x_i2c.c ****   assert_param(IS_I2C_ACK_STATE(I2C_InitStruct->I2C_Ack));
 205:lib/src/stm32f10x_i2c.c ****   assert_param(IS_I2C_ACKNOWLEDGE_ADDRESS(I2C_InitStruct->I2C_AcknowledgedAddress));
 206:lib/src/stm32f10x_i2c.c **** 
 207:lib/src/stm32f10x_i2c.c **** /*---------------------------- I2Cx CR2 Configuration ------------------------*/
 208:lib/src/stm32f10x_i2c.c ****   /* Get the I2Cx CR2 value */
 209:lib/src/stm32f10x_i2c.c ****   tmpreg = I2Cx->CR2;
  97              		.loc 1 209 0
  98 0040 8688     		ldrh	r6, [r0, #4]
  99              	.LVL10:
 210:lib/src/stm32f10x_i2c.c ****   /* Clear frequency FREQ[5:0] bits */
 211:lib/src/stm32f10x_i2c.c ****   tmpreg &= CR2_FREQ_Reset;
 100              		.loc 1 211 0
 101 0042 26F03F06 		bic	r6, r6, #63
 102              	.LVL11:
 103 0046 3604     		lsls	r6, r6, #16
 104 0048 360C     		lsrs	r6, r6, #16
 105              	.LVL12:
 212:lib/src/stm32f10x_i2c.c ****   /* Get pclk1 frequency value */
 213:lib/src/stm32f10x_i2c.c ****   RCC_GetClocksFreq(&rcc_clocks);
 106              		.loc 1 213 0
 107 004a 01A8     		add	r0, sp, #4
 108              	.LVL13:
 109 004c FFF7FEFF 		bl	RCC_GetClocksFreq
 110              	.LVL14:
 214:lib/src/stm32f10x_i2c.c ****   pclk1 = rcc_clocks.PCLK1_Frequency;
 111              		.loc 1 214 0
 112 0050 0398     		ldr	r0, [sp, #12]
 113              	.LVL15:
 215:lib/src/stm32f10x_i2c.c ****   /* Set frequency bits depending on pclk1 value */
 216:lib/src/stm32f10x_i2c.c ****   freqrange = (uint16_t)(pclk1 / 1000000);
 114              		.loc 1 216 0
 115 0052 2E4A     		ldr	r2, .L16
 116 0054 A2FB0032 		umull	r3, r2, r2, r0
 117 0058 920C     		lsrs	r2, r2, #18
 118 005a 97B2     		uxth	r7, r2
 119              	.LVL16:
 217:lib/src/stm32f10x_i2c.c ****   tmpreg |= freqrange;
 120              		.loc 1 217 0
 121 005c 3E43     		orrs	r6, r6, r7
 122              	.LVL17:
 218:lib/src/stm32f10x_i2c.c ****   /* Write to I2Cx CR2 */
ARM GAS  /tmp/ccuwQjW2.s 			page 7


 219:lib/src/stm32f10x_i2c.c ****   I2Cx->CR2 = tmpreg;
 123              		.loc 1 219 0
 124 005e A680     		strh	r6, [r4, #4]	@ movhi
 220:lib/src/stm32f10x_i2c.c **** 
 221:lib/src/stm32f10x_i2c.c **** /*---------------------------- I2Cx CCR Configuration ------------------------*/
 222:lib/src/stm32f10x_i2c.c ****   /* Disable the selected I2C peripheral to configure TRISE */
 223:lib/src/stm32f10x_i2c.c ****   I2Cx->CR1 &= CR1_PE_Reset;
 125              		.loc 1 223 0
 126 0060 2188     		ldrh	r1, [r4]
 127 0062 21F00101 		bic	r1, r1, #1
 128 0066 0904     		lsls	r1, r1, #16
 129 0068 090C     		lsrs	r1, r1, #16
 130 006a 2180     		strh	r1, [r4]	@ movhi
 131              	.LVL18:
 224:lib/src/stm32f10x_i2c.c ****   /* Reset tmpreg value */
 225:lib/src/stm32f10x_i2c.c ****   /* Clear F/S, DUTY and CCR[11:0] bits */
 226:lib/src/stm32f10x_i2c.c ****   tmpreg = 0;
 227:lib/src/stm32f10x_i2c.c **** 
 228:lib/src/stm32f10x_i2c.c ****   /* Configure speed in standard mode */
 229:lib/src/stm32f10x_i2c.c ****   if (I2C_InitStruct->I2C_ClockSpeed <= 100000)
 132              		.loc 1 229 0
 133 006c 2B68     		ldr	r3, [r5]
 134 006e 2849     		ldr	r1, .L16+4
 135 0070 8B42     		cmp	r3, r1
 136 0072 21D8     		bhi	.L9
 230:lib/src/stm32f10x_i2c.c ****   {
 231:lib/src/stm32f10x_i2c.c ****     /* Standard mode speed calculate */
 232:lib/src/stm32f10x_i2c.c ****     result = (uint16_t)(pclk1 / (I2C_InitStruct->I2C_ClockSpeed << 1));
 137              		.loc 1 232 0
 138 0074 5B00     		lsls	r3, r3, #1
 139 0076 B0FBF3F3 		udiv	r3, r0, r3
 140 007a 9BB2     		uxth	r3, r3
 141              	.LVL19:
 142 007c 042B     		cmp	r3, #4
 143 007e 38BF     		it	cc
 144 0080 0423     		movcc	r3, #4
 145              	.LVL20:
 233:lib/src/stm32f10x_i2c.c ****     /* Test if CCR value is under 0x4*/
 234:lib/src/stm32f10x_i2c.c ****     if (result < 0x04)
 235:lib/src/stm32f10x_i2c.c ****     {
 236:lib/src/stm32f10x_i2c.c ****       /* Set minimum allowed value */
 237:lib/src/stm32f10x_i2c.c ****       result = 0x04;  
 238:lib/src/stm32f10x_i2c.c ****     }
 239:lib/src/stm32f10x_i2c.c ****     /* Set speed value for standard mode */
 240:lib/src/stm32f10x_i2c.c ****     tmpreg |= result;	  
 241:lib/src/stm32f10x_i2c.c ****     /* Set Maximum Rise Time for standard mode */
 242:lib/src/stm32f10x_i2c.c ****     I2Cx->TRISE = freqrange + 1; 
 146              		.loc 1 242 0
 147 0082 0137     		adds	r7, r7, #1
 148              	.LVL21:
 149 0084 2784     		strh	r7, [r4, #32]	@ movhi
 150              	.LVL22:
 151              	.L10:
 243:lib/src/stm32f10x_i2c.c ****   }
 244:lib/src/stm32f10x_i2c.c ****   /* Configure speed in fast mode */
 245:lib/src/stm32f10x_i2c.c ****   else /*(I2C_InitStruct->I2C_ClockSpeed <= 400000)*/
 246:lib/src/stm32f10x_i2c.c ****   {
ARM GAS  /tmp/ccuwQjW2.s 			page 8


 247:lib/src/stm32f10x_i2c.c ****     if (I2C_InitStruct->I2C_DutyCycle == I2C_DutyCycle_2)
 248:lib/src/stm32f10x_i2c.c ****     {
 249:lib/src/stm32f10x_i2c.c ****       /* Fast mode speed calculate: Tlow/Thigh = 2 */
 250:lib/src/stm32f10x_i2c.c ****       result = (uint16_t)(pclk1 / (I2C_InitStruct->I2C_ClockSpeed * 3));
 251:lib/src/stm32f10x_i2c.c ****     }
 252:lib/src/stm32f10x_i2c.c ****     else /*I2C_InitStruct->I2C_DutyCycle == I2C_DutyCycle_16_9*/
 253:lib/src/stm32f10x_i2c.c ****     {
 254:lib/src/stm32f10x_i2c.c ****       /* Fast mode speed calculate: Tlow/Thigh = 16/9 */
 255:lib/src/stm32f10x_i2c.c ****       result = (uint16_t)(pclk1 / (I2C_InitStruct->I2C_ClockSpeed * 25));
 256:lib/src/stm32f10x_i2c.c ****       /* Set DUTY bit */
 257:lib/src/stm32f10x_i2c.c ****       result |= I2C_DutyCycle_16_9;
 258:lib/src/stm32f10x_i2c.c ****     }
 259:lib/src/stm32f10x_i2c.c **** 
 260:lib/src/stm32f10x_i2c.c ****     /* Test if CCR value is under 0x1*/
 261:lib/src/stm32f10x_i2c.c ****     if ((result & CCR_CCR_Set) == 0)
 262:lib/src/stm32f10x_i2c.c ****     {
 263:lib/src/stm32f10x_i2c.c ****       /* Set minimum allowed value */
 264:lib/src/stm32f10x_i2c.c ****       result |= (uint16_t)0x0001;  
 265:lib/src/stm32f10x_i2c.c ****     }
 266:lib/src/stm32f10x_i2c.c ****     /* Set speed value and set F/S bit for fast mode */
 267:lib/src/stm32f10x_i2c.c ****     tmpreg |= (uint16_t)(result | CCR_FS_Set);
 268:lib/src/stm32f10x_i2c.c ****     /* Set Maximum Rise Time for fast mode */
 269:lib/src/stm32f10x_i2c.c ****     I2Cx->TRISE = (uint16_t)(((freqrange * (uint16_t)300) / (uint16_t)1000) + (uint16_t)1);  
 270:lib/src/stm32f10x_i2c.c ****   }
 271:lib/src/stm32f10x_i2c.c **** 
 272:lib/src/stm32f10x_i2c.c ****   /* Write to I2Cx CCR */
 273:lib/src/stm32f10x_i2c.c ****   I2Cx->CCR = tmpreg;
 152              		.loc 1 273 0
 153 0086 A383     		strh	r3, [r4, #28]	@ movhi
 274:lib/src/stm32f10x_i2c.c ****   /* Enable the selected I2C peripheral */
 275:lib/src/stm32f10x_i2c.c ****   I2Cx->CR1 |= CR1_PE_Set;
 154              		.loc 1 275 0
 155 0088 2388     		ldrh	r3, [r4]
 156              	.LVL23:
 157 008a 9BB2     		uxth	r3, r3
 158 008c 43F00103 		orr	r3, r3, #1
 159 0090 2380     		strh	r3, [r4]	@ movhi
 160              	.LVL24:
 276:lib/src/stm32f10x_i2c.c **** 
 277:lib/src/stm32f10x_i2c.c **** /*---------------------------- I2Cx CR1 Configuration ------------------------*/
 278:lib/src/stm32f10x_i2c.c ****   /* Get the I2Cx CR1 value */
 279:lib/src/stm32f10x_i2c.c ****   tmpreg = I2Cx->CR1;
 161              		.loc 1 279 0
 162 0092 2388     		ldrh	r3, [r4]
 163 0094 9BB2     		uxth	r3, r3
 164              	.LVL25:
 280:lib/src/stm32f10x_i2c.c ****   /* Clear ACK, SMBTYPE and  SMBUS bits */
 281:lib/src/stm32f10x_i2c.c ****   tmpreg &= CR1_CLEAR_Mask;
 165              		.loc 1 281 0
 166 0096 23F48163 		bic	r3, r3, #1032
 167              	.LVL26:
 168 009a 23F00203 		bic	r3, r3, #2
 169              	.LVL27:
 282:lib/src/stm32f10x_i2c.c ****   /* Configure I2Cx: mode and acknowledgement */
 283:lib/src/stm32f10x_i2c.c ****   /* Set SMBTYPE and SMBUS bits according to I2C_Mode value */
 284:lib/src/stm32f10x_i2c.c ****   /* Set ACK bit according to I2C_Ack value */
 285:lib/src/stm32f10x_i2c.c ****   tmpreg |= (uint16_t)((uint32_t)I2C_InitStruct->I2C_Mode | I2C_InitStruct->I2C_Ack);
ARM GAS  /tmp/ccuwQjW2.s 			page 9


 170              		.loc 1 285 0
 171 009e AA88     		ldrh	r2, [r5, #4]
 172 00a0 6989     		ldrh	r1, [r5, #10]
 173 00a2 0A43     		orrs	r2, r2, r1
 174 00a4 1343     		orrs	r3, r3, r2
 175              	.LVL28:
 176 00a6 9BB2     		uxth	r3, r3
 177              	.LVL29:
 286:lib/src/stm32f10x_i2c.c ****   /* Write to I2Cx CR1 */
 287:lib/src/stm32f10x_i2c.c ****   I2Cx->CR1 = tmpreg;
 178              		.loc 1 287 0
 179 00a8 2380     		strh	r3, [r4]	@ movhi
 288:lib/src/stm32f10x_i2c.c **** 
 289:lib/src/stm32f10x_i2c.c **** /*---------------------------- I2Cx OAR1 Configuration -----------------------*/
 290:lib/src/stm32f10x_i2c.c ****   /* Set I2Cx Own Address1 and acknowledged address */
 291:lib/src/stm32f10x_i2c.c ****   I2Cx->OAR1 = (I2C_InitStruct->I2C_AcknowledgedAddress | I2C_InitStruct->I2C_OwnAddress1);
 180              		.loc 1 291 0
 181 00aa AB89     		ldrh	r3, [r5, #12]
 182              	.LVL30:
 183 00ac 2A89     		ldrh	r2, [r5, #8]
 184 00ae 1343     		orrs	r3, r3, r2
 185 00b0 9BB2     		uxth	r3, r3
 186 00b2 2381     		strh	r3, [r4, #8]	@ movhi
 187              	.LVL31:
 292:lib/src/stm32f10x_i2c.c **** }
 188              		.loc 1 292 0
 189 00b4 07B0     		add	sp, sp, #28
 190              		.cfi_remember_state
 191              		.cfi_def_cfa_offset 20
 192              		@ sp needed
 193 00b6 F0BD     		pop	{r4, r5, r6, r7, pc}
 194              	.LVL32:
 195              	.L9:
 196              		.cfi_restore_state
 247:lib/src/stm32f10x_i2c.c ****     {
 197              		.loc 1 247 0
 198 00b8 EE88     		ldrh	r6, [r5, #6]
 199 00ba 4BF6FF71 		movw	r1, #49151
 200 00be 8E42     		cmp	r6, r1
 201 00c0 1DD0     		beq	.L15
 255:lib/src/stm32f10x_i2c.c ****       /* Set DUTY bit */
 202              		.loc 1 255 0
 203 00c2 03EB8303 		add	r3, r3, r3, lsl #2
 204 00c6 03EB8303 		add	r3, r3, r3, lsl #2
 205 00ca B0FBF3F3 		udiv	r3, r0, r3
 206 00ce 9BB2     		uxth	r3, r3
 207              	.LVL33:
 257:lib/src/stm32f10x_i2c.c ****     }
 208              		.loc 1 257 0
 209 00d0 43F48043 		orr	r3, r3, #16384
 210              	.LVL34:
 211              	.L12:
 261:lib/src/stm32f10x_i2c.c ****     {
 212              		.loc 1 261 0
 213 00d4 C3F30B01 		ubfx	r1, r3, #0, #12
 214 00d8 09B9     		cbnz	r1, .L13
 264:lib/src/stm32f10x_i2c.c ****     }
ARM GAS  /tmp/ccuwQjW2.s 			page 10


 215              		.loc 1 264 0
 216 00da 43F00103 		orr	r3, r3, #1
 217              	.LVL35:
 218              	.L13:
 267:lib/src/stm32f10x_i2c.c ****     /* Set Maximum Rise Time for fast mode */
 219              		.loc 1 267 0
 220 00de 43F40043 		orr	r3, r3, #32768
 221              	.LVL36:
 269:lib/src/stm32f10x_i2c.c ****   }
 222              		.loc 1 269 0
 223 00e2 4FF49671 		mov	r1, #300
 224 00e6 02FB01F2 		mul	r2, r2, r1
 225 00ea 0A49     		ldr	r1, .L16+8
 226 00ec 81FB0201 		smull	r0, r1, r1, r2
 227              	.LVL37:
 228 00f0 D217     		asrs	r2, r2, #31
 229 00f2 C2EBA112 		rsb	r2, r2, r1, asr #6
 230 00f6 0132     		adds	r2, r2, #1
 231 00f8 92B2     		uxth	r2, r2
 232 00fa 2284     		strh	r2, [r4, #32]	@ movhi
 233 00fc C3E7     		b	.L10
 234              	.LVL38:
 235              	.L15:
 250:lib/src/stm32f10x_i2c.c ****     }
 236              		.loc 1 250 0
 237 00fe 03EB4303 		add	r3, r3, r3, lsl #1
 238 0102 B0FBF3F3 		udiv	r3, r0, r3
 239 0106 9BB2     		uxth	r3, r3
 240              	.LVL39:
 241 0108 E4E7     		b	.L12
 242              	.L17:
 243 010a 00BF     		.align	2
 244              	.L16:
 245 010c 83DE1B43 		.word	1125899907
 246 0110 A0860100 		.word	100000
 247 0114 D34D6210 		.word	274877907
 248              		.cfi_endproc
 249              	.LFE65:
 250              		.size	I2C_Init, .-I2C_Init
 251              		.align	1
 252              		.global	I2C_StructInit
 253              		.syntax unified
 254              		.thumb
 255              		.thumb_func
 256              		.fpu softvfp
 257              		.type	I2C_StructInit, %function
 258              	I2C_StructInit:
 259              	.LFB66:
 293:lib/src/stm32f10x_i2c.c **** 
 294:lib/src/stm32f10x_i2c.c **** /**
 295:lib/src/stm32f10x_i2c.c ****   * @brief  Fills each I2C_InitStruct member with its default value.
 296:lib/src/stm32f10x_i2c.c ****   * @param  I2C_InitStruct: pointer to an I2C_InitTypeDef structure which will be initialized.
 297:lib/src/stm32f10x_i2c.c ****   * @retval None
 298:lib/src/stm32f10x_i2c.c ****   */
 299:lib/src/stm32f10x_i2c.c **** void I2C_StructInit(I2C_InitTypeDef* I2C_InitStruct)
 300:lib/src/stm32f10x_i2c.c **** {
 260              		.loc 1 300 0
ARM GAS  /tmp/ccuwQjW2.s 			page 11


 261              		.cfi_startproc
 262              		@ args = 0, pretend = 0, frame = 0
 263              		@ frame_needed = 0, uses_anonymous_args = 0
 264              		@ link register save eliminated.
 265              	.LVL40:
 301:lib/src/stm32f10x_i2c.c **** /*---------------- Reset I2C init structure parameters values ----------------*/
 302:lib/src/stm32f10x_i2c.c ****   /* initialize the I2C_ClockSpeed member */
 303:lib/src/stm32f10x_i2c.c ****   I2C_InitStruct->I2C_ClockSpeed = 5000;
 266              		.loc 1 303 0
 267 0118 41F28833 		movw	r3, #5000
 268 011c 0360     		str	r3, [r0]
 304:lib/src/stm32f10x_i2c.c ****   /* Initialize the I2C_Mode member */
 305:lib/src/stm32f10x_i2c.c ****   I2C_InitStruct->I2C_Mode = I2C_Mode_I2C;
 269              		.loc 1 305 0
 270 011e 0023     		movs	r3, #0
 271 0120 8380     		strh	r3, [r0, #4]	@ movhi
 306:lib/src/stm32f10x_i2c.c ****   /* Initialize the I2C_DutyCycle member */
 307:lib/src/stm32f10x_i2c.c ****   I2C_InitStruct->I2C_DutyCycle = I2C_DutyCycle_2;
 272              		.loc 1 307 0
 273 0122 4BF6FF72 		movw	r2, #49151
 274 0126 C280     		strh	r2, [r0, #6]	@ movhi
 308:lib/src/stm32f10x_i2c.c ****   /* Initialize the I2C_OwnAddress1 member */
 309:lib/src/stm32f10x_i2c.c ****   I2C_InitStruct->I2C_OwnAddress1 = 0;
 275              		.loc 1 309 0
 276 0128 0381     		strh	r3, [r0, #8]	@ movhi
 310:lib/src/stm32f10x_i2c.c ****   /* Initialize the I2C_Ack member */
 311:lib/src/stm32f10x_i2c.c ****   I2C_InitStruct->I2C_Ack = I2C_Ack_Disable;
 277              		.loc 1 311 0
 278 012a 4381     		strh	r3, [r0, #10]	@ movhi
 312:lib/src/stm32f10x_i2c.c ****   /* Initialize the I2C_AcknowledgedAddress member */
 313:lib/src/stm32f10x_i2c.c ****   I2C_InitStruct->I2C_AcknowledgedAddress = I2C_AcknowledgedAddress_7bit;
 279              		.loc 1 313 0
 280 012c 4FF48043 		mov	r3, #16384
 281 0130 8381     		strh	r3, [r0, #12]	@ movhi
 282 0132 7047     		bx	lr
 283              		.cfi_endproc
 284              	.LFE66:
 285              		.size	I2C_StructInit, .-I2C_StructInit
 286              		.align	1
 287              		.global	I2C_Cmd
 288              		.syntax unified
 289              		.thumb
 290              		.thumb_func
 291              		.fpu softvfp
 292              		.type	I2C_Cmd, %function
 293              	I2C_Cmd:
 294              	.LFB67:
 314:lib/src/stm32f10x_i2c.c **** }
 315:lib/src/stm32f10x_i2c.c **** 
 316:lib/src/stm32f10x_i2c.c **** /**
 317:lib/src/stm32f10x_i2c.c ****   * @brief  Enables or disables the specified I2C peripheral.
 318:lib/src/stm32f10x_i2c.c ****   * @param  I2Cx: where x can be 1 or 2 to select the I2C peripheral.
 319:lib/src/stm32f10x_i2c.c ****   * @param  NewState: new state of the I2Cx peripheral. 
 320:lib/src/stm32f10x_i2c.c ****   *   This parameter can be: ENABLE or DISABLE.
 321:lib/src/stm32f10x_i2c.c ****   * @retval None
 322:lib/src/stm32f10x_i2c.c ****   */
 323:lib/src/stm32f10x_i2c.c **** void I2C_Cmd(I2C_TypeDef* I2Cx, FunctionalState NewState)
ARM GAS  /tmp/ccuwQjW2.s 			page 12


 324:lib/src/stm32f10x_i2c.c **** {
 295              		.loc 1 324 0
 296              		.cfi_startproc
 297              		@ args = 0, pretend = 0, frame = 0
 298              		@ frame_needed = 0, uses_anonymous_args = 0
 299              		@ link register save eliminated.
 300              	.LVL41:
 325:lib/src/stm32f10x_i2c.c ****   /* Check the parameters */
 326:lib/src/stm32f10x_i2c.c ****   assert_param(IS_I2C_ALL_PERIPH(I2Cx));
 327:lib/src/stm32f10x_i2c.c ****   assert_param(IS_FUNCTIONAL_STATE(NewState));
 328:lib/src/stm32f10x_i2c.c ****   if (NewState != DISABLE)
 301              		.loc 1 328 0
 302 0134 31B9     		cbnz	r1, .L22
 329:lib/src/stm32f10x_i2c.c ****   {
 330:lib/src/stm32f10x_i2c.c ****     /* Enable the selected I2C peripheral */
 331:lib/src/stm32f10x_i2c.c ****     I2Cx->CR1 |= CR1_PE_Set;
 332:lib/src/stm32f10x_i2c.c ****   }
 333:lib/src/stm32f10x_i2c.c ****   else
 334:lib/src/stm32f10x_i2c.c ****   {
 335:lib/src/stm32f10x_i2c.c ****     /* Disable the selected I2C peripheral */
 336:lib/src/stm32f10x_i2c.c ****     I2Cx->CR1 &= CR1_PE_Reset;
 303              		.loc 1 336 0
 304 0136 0388     		ldrh	r3, [r0]
 305 0138 23F00103 		bic	r3, r3, #1
 306 013c 1B04     		lsls	r3, r3, #16
 307 013e 1B0C     		lsrs	r3, r3, #16
 308 0140 0380     		strh	r3, [r0]	@ movhi
 309 0142 7047     		bx	lr
 310              	.L22:
 331:lib/src/stm32f10x_i2c.c ****   }
 311              		.loc 1 331 0
 312 0144 0388     		ldrh	r3, [r0]
 313 0146 9BB2     		uxth	r3, r3
 314 0148 43F00103 		orr	r3, r3, #1
 315 014c 0380     		strh	r3, [r0]	@ movhi
 316 014e 7047     		bx	lr
 317              		.cfi_endproc
 318              	.LFE67:
 319              		.size	I2C_Cmd, .-I2C_Cmd
 320              		.align	1
 321              		.global	I2C_DMACmd
 322              		.syntax unified
 323              		.thumb
 324              		.thumb_func
 325              		.fpu softvfp
 326              		.type	I2C_DMACmd, %function
 327              	I2C_DMACmd:
 328              	.LFB68:
 337:lib/src/stm32f10x_i2c.c ****   }
 338:lib/src/stm32f10x_i2c.c **** }
 339:lib/src/stm32f10x_i2c.c **** 
 340:lib/src/stm32f10x_i2c.c **** /**
 341:lib/src/stm32f10x_i2c.c ****   * @brief  Enables or disables the specified I2C DMA requests.
 342:lib/src/stm32f10x_i2c.c ****   * @param  I2Cx: where x can be 1 or 2 to select the I2C peripheral.
 343:lib/src/stm32f10x_i2c.c ****   * @param  NewState: new state of the I2C DMA transfer.
 344:lib/src/stm32f10x_i2c.c ****   *   This parameter can be: ENABLE or DISABLE.
 345:lib/src/stm32f10x_i2c.c ****   * @retval None
ARM GAS  /tmp/ccuwQjW2.s 			page 13


 346:lib/src/stm32f10x_i2c.c ****   */
 347:lib/src/stm32f10x_i2c.c **** void I2C_DMACmd(I2C_TypeDef* I2Cx, FunctionalState NewState)
 348:lib/src/stm32f10x_i2c.c **** {
 329              		.loc 1 348 0
 330              		.cfi_startproc
 331              		@ args = 0, pretend = 0, frame = 0
 332              		@ frame_needed = 0, uses_anonymous_args = 0
 333              		@ link register save eliminated.
 334              	.LVL42:
 349:lib/src/stm32f10x_i2c.c ****   /* Check the parameters */
 350:lib/src/stm32f10x_i2c.c ****   assert_param(IS_I2C_ALL_PERIPH(I2Cx));
 351:lib/src/stm32f10x_i2c.c ****   assert_param(IS_FUNCTIONAL_STATE(NewState));
 352:lib/src/stm32f10x_i2c.c ****   if (NewState != DISABLE)
 335              		.loc 1 352 0
 336 0150 31B9     		cbnz	r1, .L26
 353:lib/src/stm32f10x_i2c.c ****   {
 354:lib/src/stm32f10x_i2c.c ****     /* Enable the selected I2C DMA requests */
 355:lib/src/stm32f10x_i2c.c ****     I2Cx->CR2 |= CR2_DMAEN_Set;
 356:lib/src/stm32f10x_i2c.c ****   }
 357:lib/src/stm32f10x_i2c.c ****   else
 358:lib/src/stm32f10x_i2c.c ****   {
 359:lib/src/stm32f10x_i2c.c ****     /* Disable the selected I2C DMA requests */
 360:lib/src/stm32f10x_i2c.c ****     I2Cx->CR2 &= CR2_DMAEN_Reset;
 337              		.loc 1 360 0
 338 0152 8388     		ldrh	r3, [r0, #4]
 339 0154 23F40063 		bic	r3, r3, #2048
 340 0158 1B04     		lsls	r3, r3, #16
 341 015a 1B0C     		lsrs	r3, r3, #16
 342 015c 8380     		strh	r3, [r0, #4]	@ movhi
 343 015e 7047     		bx	lr
 344              	.L26:
 355:lib/src/stm32f10x_i2c.c ****   }
 345              		.loc 1 355 0
 346 0160 8388     		ldrh	r3, [r0, #4]
 347 0162 9BB2     		uxth	r3, r3
 348 0164 43F40063 		orr	r3, r3, #2048
 349 0168 8380     		strh	r3, [r0, #4]	@ movhi
 350 016a 7047     		bx	lr
 351              		.cfi_endproc
 352              	.LFE68:
 353              		.size	I2C_DMACmd, .-I2C_DMACmd
 354              		.align	1
 355              		.global	I2C_DMALastTransferCmd
 356              		.syntax unified
 357              		.thumb
 358              		.thumb_func
 359              		.fpu softvfp
 360              		.type	I2C_DMALastTransferCmd, %function
 361              	I2C_DMALastTransferCmd:
 362              	.LFB69:
 361:lib/src/stm32f10x_i2c.c ****   }
 362:lib/src/stm32f10x_i2c.c **** }
 363:lib/src/stm32f10x_i2c.c **** 
 364:lib/src/stm32f10x_i2c.c **** /**
 365:lib/src/stm32f10x_i2c.c ****   * @brief  Specifies if the next DMA transfer will be the last one.
 366:lib/src/stm32f10x_i2c.c ****   * @param  I2Cx: where x can be 1 or 2 to select the I2C peripheral.
 367:lib/src/stm32f10x_i2c.c ****   * @param  NewState: new state of the I2C DMA last transfer.
ARM GAS  /tmp/ccuwQjW2.s 			page 14


 368:lib/src/stm32f10x_i2c.c ****   *   This parameter can be: ENABLE or DISABLE.
 369:lib/src/stm32f10x_i2c.c ****   * @retval None
 370:lib/src/stm32f10x_i2c.c ****   */
 371:lib/src/stm32f10x_i2c.c **** void I2C_DMALastTransferCmd(I2C_TypeDef* I2Cx, FunctionalState NewState)
 372:lib/src/stm32f10x_i2c.c **** {
 363              		.loc 1 372 0
 364              		.cfi_startproc
 365              		@ args = 0, pretend = 0, frame = 0
 366              		@ frame_needed = 0, uses_anonymous_args = 0
 367              		@ link register save eliminated.
 368              	.LVL43:
 373:lib/src/stm32f10x_i2c.c ****   /* Check the parameters */
 374:lib/src/stm32f10x_i2c.c ****   assert_param(IS_I2C_ALL_PERIPH(I2Cx));
 375:lib/src/stm32f10x_i2c.c ****   assert_param(IS_FUNCTIONAL_STATE(NewState));
 376:lib/src/stm32f10x_i2c.c ****   if (NewState != DISABLE)
 369              		.loc 1 376 0
 370 016c 31B9     		cbnz	r1, .L30
 377:lib/src/stm32f10x_i2c.c ****   {
 378:lib/src/stm32f10x_i2c.c ****     /* Next DMA transfer is the last transfer */
 379:lib/src/stm32f10x_i2c.c ****     I2Cx->CR2 |= CR2_LAST_Set;
 380:lib/src/stm32f10x_i2c.c ****   }
 381:lib/src/stm32f10x_i2c.c ****   else
 382:lib/src/stm32f10x_i2c.c ****   {
 383:lib/src/stm32f10x_i2c.c ****     /* Next DMA transfer is not the last transfer */
 384:lib/src/stm32f10x_i2c.c ****     I2Cx->CR2 &= CR2_LAST_Reset;
 371              		.loc 1 384 0
 372 016e 8388     		ldrh	r3, [r0, #4]
 373 0170 23F48053 		bic	r3, r3, #4096
 374 0174 1B04     		lsls	r3, r3, #16
 375 0176 1B0C     		lsrs	r3, r3, #16
 376 0178 8380     		strh	r3, [r0, #4]	@ movhi
 377 017a 7047     		bx	lr
 378              	.L30:
 379:lib/src/stm32f10x_i2c.c ****   }
 379              		.loc 1 379 0
 380 017c 8388     		ldrh	r3, [r0, #4]
 381 017e 9BB2     		uxth	r3, r3
 382 0180 43F48053 		orr	r3, r3, #4096
 383 0184 8380     		strh	r3, [r0, #4]	@ movhi
 384 0186 7047     		bx	lr
 385              		.cfi_endproc
 386              	.LFE69:
 387              		.size	I2C_DMALastTransferCmd, .-I2C_DMALastTransferCmd
 388              		.align	1
 389              		.global	I2C_GenerateSTART
 390              		.syntax unified
 391              		.thumb
 392              		.thumb_func
 393              		.fpu softvfp
 394              		.type	I2C_GenerateSTART, %function
 395              	I2C_GenerateSTART:
 396              	.LFB70:
 385:lib/src/stm32f10x_i2c.c ****   }
 386:lib/src/stm32f10x_i2c.c **** }
 387:lib/src/stm32f10x_i2c.c **** 
 388:lib/src/stm32f10x_i2c.c **** /**
 389:lib/src/stm32f10x_i2c.c ****   * @brief  Generates I2Cx communication START condition.
ARM GAS  /tmp/ccuwQjW2.s 			page 15


 390:lib/src/stm32f10x_i2c.c ****   * @param  I2Cx: where x can be 1 or 2 to select the I2C peripheral.
 391:lib/src/stm32f10x_i2c.c ****   * @param  NewState: new state of the I2C START condition generation.
 392:lib/src/stm32f10x_i2c.c ****   *   This parameter can be: ENABLE or DISABLE.
 393:lib/src/stm32f10x_i2c.c ****   * @retval None.
 394:lib/src/stm32f10x_i2c.c ****   */
 395:lib/src/stm32f10x_i2c.c **** void I2C_GenerateSTART(I2C_TypeDef* I2Cx, FunctionalState NewState)
 396:lib/src/stm32f10x_i2c.c **** {
 397              		.loc 1 396 0
 398              		.cfi_startproc
 399              		@ args = 0, pretend = 0, frame = 0
 400              		@ frame_needed = 0, uses_anonymous_args = 0
 401              		@ link register save eliminated.
 402              	.LVL44:
 397:lib/src/stm32f10x_i2c.c ****   /* Check the parameters */
 398:lib/src/stm32f10x_i2c.c ****   assert_param(IS_I2C_ALL_PERIPH(I2Cx));
 399:lib/src/stm32f10x_i2c.c ****   assert_param(IS_FUNCTIONAL_STATE(NewState));
 400:lib/src/stm32f10x_i2c.c ****   if (NewState != DISABLE)
 403              		.loc 1 400 0
 404 0188 31B9     		cbnz	r1, .L34
 401:lib/src/stm32f10x_i2c.c ****   {
 402:lib/src/stm32f10x_i2c.c ****     /* Generate a START condition */
 403:lib/src/stm32f10x_i2c.c ****     I2Cx->CR1 |= CR1_START_Set;
 404:lib/src/stm32f10x_i2c.c ****   }
 405:lib/src/stm32f10x_i2c.c ****   else
 406:lib/src/stm32f10x_i2c.c ****   {
 407:lib/src/stm32f10x_i2c.c ****     /* Disable the START condition generation */
 408:lib/src/stm32f10x_i2c.c ****     I2Cx->CR1 &= CR1_START_Reset;
 405              		.loc 1 408 0
 406 018a 0388     		ldrh	r3, [r0]
 407 018c 23F48073 		bic	r3, r3, #256
 408 0190 1B04     		lsls	r3, r3, #16
 409 0192 1B0C     		lsrs	r3, r3, #16
 410 0194 0380     		strh	r3, [r0]	@ movhi
 411 0196 7047     		bx	lr
 412              	.L34:
 403:lib/src/stm32f10x_i2c.c ****   }
 413              		.loc 1 403 0
 414 0198 0388     		ldrh	r3, [r0]
 415 019a 9BB2     		uxth	r3, r3
 416 019c 43F48073 		orr	r3, r3, #256
 417 01a0 0380     		strh	r3, [r0]	@ movhi
 418 01a2 7047     		bx	lr
 419              		.cfi_endproc
 420              	.LFE70:
 421              		.size	I2C_GenerateSTART, .-I2C_GenerateSTART
 422              		.align	1
 423              		.global	I2C_GenerateSTOP
 424              		.syntax unified
 425              		.thumb
 426              		.thumb_func
 427              		.fpu softvfp
 428              		.type	I2C_GenerateSTOP, %function
 429              	I2C_GenerateSTOP:
 430              	.LFB71:
 409:lib/src/stm32f10x_i2c.c ****   }
 410:lib/src/stm32f10x_i2c.c **** }
 411:lib/src/stm32f10x_i2c.c **** 
ARM GAS  /tmp/ccuwQjW2.s 			page 16


 412:lib/src/stm32f10x_i2c.c **** /**
 413:lib/src/stm32f10x_i2c.c ****   * @brief  Generates I2Cx communication STOP condition.
 414:lib/src/stm32f10x_i2c.c ****   * @param  I2Cx: where x can be 1 or 2 to select the I2C peripheral.
 415:lib/src/stm32f10x_i2c.c ****   * @param  NewState: new state of the I2C STOP condition generation.
 416:lib/src/stm32f10x_i2c.c ****   *   This parameter can be: ENABLE or DISABLE.
 417:lib/src/stm32f10x_i2c.c ****   * @retval None.
 418:lib/src/stm32f10x_i2c.c ****   */
 419:lib/src/stm32f10x_i2c.c **** void I2C_GenerateSTOP(I2C_TypeDef* I2Cx, FunctionalState NewState)
 420:lib/src/stm32f10x_i2c.c **** {
 431              		.loc 1 420 0
 432              		.cfi_startproc
 433              		@ args = 0, pretend = 0, frame = 0
 434              		@ frame_needed = 0, uses_anonymous_args = 0
 435              		@ link register save eliminated.
 436              	.LVL45:
 421:lib/src/stm32f10x_i2c.c ****   /* Check the parameters */
 422:lib/src/stm32f10x_i2c.c ****   assert_param(IS_I2C_ALL_PERIPH(I2Cx));
 423:lib/src/stm32f10x_i2c.c ****   assert_param(IS_FUNCTIONAL_STATE(NewState));
 424:lib/src/stm32f10x_i2c.c ****   if (NewState != DISABLE)
 437              		.loc 1 424 0
 438 01a4 31B9     		cbnz	r1, .L38
 425:lib/src/stm32f10x_i2c.c ****   {
 426:lib/src/stm32f10x_i2c.c ****     /* Generate a STOP condition */
 427:lib/src/stm32f10x_i2c.c ****     I2Cx->CR1 |= CR1_STOP_Set;
 428:lib/src/stm32f10x_i2c.c ****   }
 429:lib/src/stm32f10x_i2c.c ****   else
 430:lib/src/stm32f10x_i2c.c ****   {
 431:lib/src/stm32f10x_i2c.c ****     /* Disable the STOP condition generation */
 432:lib/src/stm32f10x_i2c.c ****     I2Cx->CR1 &= CR1_STOP_Reset;
 439              		.loc 1 432 0
 440 01a6 0388     		ldrh	r3, [r0]
 441 01a8 23F40073 		bic	r3, r3, #512
 442 01ac 1B04     		lsls	r3, r3, #16
 443 01ae 1B0C     		lsrs	r3, r3, #16
 444 01b0 0380     		strh	r3, [r0]	@ movhi
 445 01b2 7047     		bx	lr
 446              	.L38:
 427:lib/src/stm32f10x_i2c.c ****   }
 447              		.loc 1 427 0
 448 01b4 0388     		ldrh	r3, [r0]
 449 01b6 9BB2     		uxth	r3, r3
 450 01b8 43F40073 		orr	r3, r3, #512
 451 01bc 0380     		strh	r3, [r0]	@ movhi
 452 01be 7047     		bx	lr
 453              		.cfi_endproc
 454              	.LFE71:
 455              		.size	I2C_GenerateSTOP, .-I2C_GenerateSTOP
 456              		.align	1
 457              		.global	I2C_AcknowledgeConfig
 458              		.syntax unified
 459              		.thumb
 460              		.thumb_func
 461              		.fpu softvfp
 462              		.type	I2C_AcknowledgeConfig, %function
 463              	I2C_AcknowledgeConfig:
 464              	.LFB72:
 433:lib/src/stm32f10x_i2c.c ****   }
ARM GAS  /tmp/ccuwQjW2.s 			page 17


 434:lib/src/stm32f10x_i2c.c **** }
 435:lib/src/stm32f10x_i2c.c **** 
 436:lib/src/stm32f10x_i2c.c **** /**
 437:lib/src/stm32f10x_i2c.c ****   * @brief  Enables or disables the specified I2C acknowledge feature.
 438:lib/src/stm32f10x_i2c.c ****   * @param  I2Cx: where x can be 1 or 2 to select the I2C peripheral.
 439:lib/src/stm32f10x_i2c.c ****   * @param  NewState: new state of the I2C Acknowledgement.
 440:lib/src/stm32f10x_i2c.c ****   *   This parameter can be: ENABLE or DISABLE.
 441:lib/src/stm32f10x_i2c.c ****   * @retval None.
 442:lib/src/stm32f10x_i2c.c ****   */
 443:lib/src/stm32f10x_i2c.c **** void I2C_AcknowledgeConfig(I2C_TypeDef* I2Cx, FunctionalState NewState)
 444:lib/src/stm32f10x_i2c.c **** {
 465              		.loc 1 444 0
 466              		.cfi_startproc
 467              		@ args = 0, pretend = 0, frame = 0
 468              		@ frame_needed = 0, uses_anonymous_args = 0
 469              		@ link register save eliminated.
 470              	.LVL46:
 445:lib/src/stm32f10x_i2c.c ****   /* Check the parameters */
 446:lib/src/stm32f10x_i2c.c ****   assert_param(IS_I2C_ALL_PERIPH(I2Cx));
 447:lib/src/stm32f10x_i2c.c ****   assert_param(IS_FUNCTIONAL_STATE(NewState));
 448:lib/src/stm32f10x_i2c.c ****   if (NewState != DISABLE)
 471              		.loc 1 448 0
 472 01c0 31B9     		cbnz	r1, .L42
 449:lib/src/stm32f10x_i2c.c ****   {
 450:lib/src/stm32f10x_i2c.c ****     /* Enable the acknowledgement */
 451:lib/src/stm32f10x_i2c.c ****     I2Cx->CR1 |= CR1_ACK_Set;
 452:lib/src/stm32f10x_i2c.c ****   }
 453:lib/src/stm32f10x_i2c.c ****   else
 454:lib/src/stm32f10x_i2c.c ****   {
 455:lib/src/stm32f10x_i2c.c ****     /* Disable the acknowledgement */
 456:lib/src/stm32f10x_i2c.c ****     I2Cx->CR1 &= CR1_ACK_Reset;
 473              		.loc 1 456 0
 474 01c2 0388     		ldrh	r3, [r0]
 475 01c4 23F48063 		bic	r3, r3, #1024
 476 01c8 1B04     		lsls	r3, r3, #16
 477 01ca 1B0C     		lsrs	r3, r3, #16
 478 01cc 0380     		strh	r3, [r0]	@ movhi
 479 01ce 7047     		bx	lr
 480              	.L42:
 451:lib/src/stm32f10x_i2c.c ****   }
 481              		.loc 1 451 0
 482 01d0 0388     		ldrh	r3, [r0]
 483 01d2 9BB2     		uxth	r3, r3
 484 01d4 43F48063 		orr	r3, r3, #1024
 485 01d8 0380     		strh	r3, [r0]	@ movhi
 486 01da 7047     		bx	lr
 487              		.cfi_endproc
 488              	.LFE72:
 489              		.size	I2C_AcknowledgeConfig, .-I2C_AcknowledgeConfig
 490              		.align	1
 491              		.global	I2C_OwnAddress2Config
 492              		.syntax unified
 493              		.thumb
 494              		.thumb_func
 495              		.fpu softvfp
 496              		.type	I2C_OwnAddress2Config, %function
 497              	I2C_OwnAddress2Config:
ARM GAS  /tmp/ccuwQjW2.s 			page 18


 498              	.LFB73:
 457:lib/src/stm32f10x_i2c.c ****   }
 458:lib/src/stm32f10x_i2c.c **** }
 459:lib/src/stm32f10x_i2c.c **** 
 460:lib/src/stm32f10x_i2c.c **** /**
 461:lib/src/stm32f10x_i2c.c ****   * @brief  Configures the specified I2C own address2.
 462:lib/src/stm32f10x_i2c.c ****   * @param  I2Cx: where x can be 1 or 2 to select the I2C peripheral.
 463:lib/src/stm32f10x_i2c.c ****   * @param  Address: specifies the 7bit I2C own address2.
 464:lib/src/stm32f10x_i2c.c ****   * @retval None.
 465:lib/src/stm32f10x_i2c.c ****   */
 466:lib/src/stm32f10x_i2c.c **** void I2C_OwnAddress2Config(I2C_TypeDef* I2Cx, uint8_t Address)
 467:lib/src/stm32f10x_i2c.c **** {
 499              		.loc 1 467 0
 500              		.cfi_startproc
 501              		@ args = 0, pretend = 0, frame = 0
 502              		@ frame_needed = 0, uses_anonymous_args = 0
 503              		@ link register save eliminated.
 504              	.LVL47:
 468:lib/src/stm32f10x_i2c.c ****   uint16_t tmpreg = 0;
 469:lib/src/stm32f10x_i2c.c **** 
 470:lib/src/stm32f10x_i2c.c ****   /* Check the parameters */
 471:lib/src/stm32f10x_i2c.c ****   assert_param(IS_I2C_ALL_PERIPH(I2Cx));
 472:lib/src/stm32f10x_i2c.c **** 
 473:lib/src/stm32f10x_i2c.c ****   /* Get the old register value */
 474:lib/src/stm32f10x_i2c.c ****   tmpreg = I2Cx->OAR2;
 505              		.loc 1 474 0
 506 01dc 8389     		ldrh	r3, [r0, #12]
 507 01de 9BB2     		uxth	r3, r3
 508              	.LVL48:
 475:lib/src/stm32f10x_i2c.c **** 
 476:lib/src/stm32f10x_i2c.c ****   /* Reset I2Cx Own address2 bit [7:1] */
 477:lib/src/stm32f10x_i2c.c ****   tmpreg &= OAR2_ADD2_Reset;
 478:lib/src/stm32f10x_i2c.c **** 
 479:lib/src/stm32f10x_i2c.c ****   /* Set I2Cx Own address2 */
 480:lib/src/stm32f10x_i2c.c ****   tmpreg |= (uint16_t)((uint16_t)Address & (uint16_t)0x00FE);
 509              		.loc 1 480 0
 510 01e0 01F0FE01 		and	r1, r1, #254
 511              	.LVL49:
 477:lib/src/stm32f10x_i2c.c **** 
 512              		.loc 1 477 0
 513 01e4 23F0FE03 		bic	r3, r3, #254
 514              	.LVL50:
 515              		.loc 1 480 0
 516 01e8 0B43     		orrs	r3, r3, r1
 517              	.LVL51:
 481:lib/src/stm32f10x_i2c.c **** 
 482:lib/src/stm32f10x_i2c.c ****   /* Store the new register value */
 483:lib/src/stm32f10x_i2c.c ****   I2Cx->OAR2 = tmpreg;
 518              		.loc 1 483 0
 519 01ea 8381     		strh	r3, [r0, #12]	@ movhi
 520 01ec 7047     		bx	lr
 521              		.cfi_endproc
 522              	.LFE73:
 523              		.size	I2C_OwnAddress2Config, .-I2C_OwnAddress2Config
 524              		.align	1
 525              		.global	I2C_DualAddressCmd
 526              		.syntax unified
ARM GAS  /tmp/ccuwQjW2.s 			page 19


 527              		.thumb
 528              		.thumb_func
 529              		.fpu softvfp
 530              		.type	I2C_DualAddressCmd, %function
 531              	I2C_DualAddressCmd:
 532              	.LFB74:
 484:lib/src/stm32f10x_i2c.c **** }
 485:lib/src/stm32f10x_i2c.c **** 
 486:lib/src/stm32f10x_i2c.c **** /**
 487:lib/src/stm32f10x_i2c.c ****   * @brief  Enables or disables the specified I2C dual addressing mode.
 488:lib/src/stm32f10x_i2c.c ****   * @param  I2Cx: where x can be 1 or 2 to select the I2C peripheral.
 489:lib/src/stm32f10x_i2c.c ****   * @param  NewState: new state of the I2C dual addressing mode.
 490:lib/src/stm32f10x_i2c.c ****   *   This parameter can be: ENABLE or DISABLE.
 491:lib/src/stm32f10x_i2c.c ****   * @retval None
 492:lib/src/stm32f10x_i2c.c ****   */
 493:lib/src/stm32f10x_i2c.c **** void I2C_DualAddressCmd(I2C_TypeDef* I2Cx, FunctionalState NewState)
 494:lib/src/stm32f10x_i2c.c **** {
 533              		.loc 1 494 0
 534              		.cfi_startproc
 535              		@ args = 0, pretend = 0, frame = 0
 536              		@ frame_needed = 0, uses_anonymous_args = 0
 537              		@ link register save eliminated.
 538              	.LVL52:
 495:lib/src/stm32f10x_i2c.c ****   /* Check the parameters */
 496:lib/src/stm32f10x_i2c.c ****   assert_param(IS_I2C_ALL_PERIPH(I2Cx));
 497:lib/src/stm32f10x_i2c.c ****   assert_param(IS_FUNCTIONAL_STATE(NewState));
 498:lib/src/stm32f10x_i2c.c ****   if (NewState != DISABLE)
 539              		.loc 1 498 0
 540 01ee 31B9     		cbnz	r1, .L47
 499:lib/src/stm32f10x_i2c.c ****   {
 500:lib/src/stm32f10x_i2c.c ****     /* Enable dual addressing mode */
 501:lib/src/stm32f10x_i2c.c ****     I2Cx->OAR2 |= OAR2_ENDUAL_Set;
 502:lib/src/stm32f10x_i2c.c ****   }
 503:lib/src/stm32f10x_i2c.c ****   else
 504:lib/src/stm32f10x_i2c.c ****   {
 505:lib/src/stm32f10x_i2c.c ****     /* Disable dual addressing mode */
 506:lib/src/stm32f10x_i2c.c ****     I2Cx->OAR2 &= OAR2_ENDUAL_Reset;
 541              		.loc 1 506 0
 542 01f0 8389     		ldrh	r3, [r0, #12]
 543 01f2 23F00103 		bic	r3, r3, #1
 544 01f6 1B04     		lsls	r3, r3, #16
 545 01f8 1B0C     		lsrs	r3, r3, #16
 546 01fa 8381     		strh	r3, [r0, #12]	@ movhi
 547 01fc 7047     		bx	lr
 548              	.L47:
 501:lib/src/stm32f10x_i2c.c ****   }
 549              		.loc 1 501 0
 550 01fe 8389     		ldrh	r3, [r0, #12]
 551 0200 9BB2     		uxth	r3, r3
 552 0202 43F00103 		orr	r3, r3, #1
 553 0206 8381     		strh	r3, [r0, #12]	@ movhi
 554 0208 7047     		bx	lr
 555              		.cfi_endproc
 556              	.LFE74:
 557              		.size	I2C_DualAddressCmd, .-I2C_DualAddressCmd
 558              		.align	1
 559              		.global	I2C_GeneralCallCmd
ARM GAS  /tmp/ccuwQjW2.s 			page 20


 560              		.syntax unified
 561              		.thumb
 562              		.thumb_func
 563              		.fpu softvfp
 564              		.type	I2C_GeneralCallCmd, %function
 565              	I2C_GeneralCallCmd:
 566              	.LFB75:
 507:lib/src/stm32f10x_i2c.c ****   }
 508:lib/src/stm32f10x_i2c.c **** }
 509:lib/src/stm32f10x_i2c.c **** 
 510:lib/src/stm32f10x_i2c.c **** /**
 511:lib/src/stm32f10x_i2c.c ****   * @brief  Enables or disables the specified I2C general call feature.
 512:lib/src/stm32f10x_i2c.c ****   * @param  I2Cx: where x can be 1 or 2 to select the I2C peripheral.
 513:lib/src/stm32f10x_i2c.c ****   * @param  NewState: new state of the I2C General call.
 514:lib/src/stm32f10x_i2c.c ****   *   This parameter can be: ENABLE or DISABLE.
 515:lib/src/stm32f10x_i2c.c ****   * @retval None
 516:lib/src/stm32f10x_i2c.c ****   */
 517:lib/src/stm32f10x_i2c.c **** void I2C_GeneralCallCmd(I2C_TypeDef* I2Cx, FunctionalState NewState)
 518:lib/src/stm32f10x_i2c.c **** {
 567              		.loc 1 518 0
 568              		.cfi_startproc
 569              		@ args = 0, pretend = 0, frame = 0
 570              		@ frame_needed = 0, uses_anonymous_args = 0
 571              		@ link register save eliminated.
 572              	.LVL53:
 519:lib/src/stm32f10x_i2c.c ****   /* Check the parameters */
 520:lib/src/stm32f10x_i2c.c ****   assert_param(IS_I2C_ALL_PERIPH(I2Cx));
 521:lib/src/stm32f10x_i2c.c ****   assert_param(IS_FUNCTIONAL_STATE(NewState));
 522:lib/src/stm32f10x_i2c.c ****   if (NewState != DISABLE)
 573              		.loc 1 522 0
 574 020a 31B9     		cbnz	r1, .L51
 523:lib/src/stm32f10x_i2c.c ****   {
 524:lib/src/stm32f10x_i2c.c ****     /* Enable generall call */
 525:lib/src/stm32f10x_i2c.c ****     I2Cx->CR1 |= CR1_ENGC_Set;
 526:lib/src/stm32f10x_i2c.c ****   }
 527:lib/src/stm32f10x_i2c.c ****   else
 528:lib/src/stm32f10x_i2c.c ****   {
 529:lib/src/stm32f10x_i2c.c ****     /* Disable generall call */
 530:lib/src/stm32f10x_i2c.c ****     I2Cx->CR1 &= CR1_ENGC_Reset;
 575              		.loc 1 530 0
 576 020c 0388     		ldrh	r3, [r0]
 577 020e 23F04003 		bic	r3, r3, #64
 578 0212 1B04     		lsls	r3, r3, #16
 579 0214 1B0C     		lsrs	r3, r3, #16
 580 0216 0380     		strh	r3, [r0]	@ movhi
 581 0218 7047     		bx	lr
 582              	.L51:
 525:lib/src/stm32f10x_i2c.c ****   }
 583              		.loc 1 525 0
 584 021a 0388     		ldrh	r3, [r0]
 585 021c 9BB2     		uxth	r3, r3
 586 021e 43F04003 		orr	r3, r3, #64
 587 0222 0380     		strh	r3, [r0]	@ movhi
 588 0224 7047     		bx	lr
 589              		.cfi_endproc
 590              	.LFE75:
 591              		.size	I2C_GeneralCallCmd, .-I2C_GeneralCallCmd
ARM GAS  /tmp/ccuwQjW2.s 			page 21


 592              		.align	1
 593              		.global	I2C_ITConfig
 594              		.syntax unified
 595              		.thumb
 596              		.thumb_func
 597              		.fpu softvfp
 598              		.type	I2C_ITConfig, %function
 599              	I2C_ITConfig:
 600              	.LFB76:
 531:lib/src/stm32f10x_i2c.c ****   }
 532:lib/src/stm32f10x_i2c.c **** }
 533:lib/src/stm32f10x_i2c.c **** 
 534:lib/src/stm32f10x_i2c.c **** /**
 535:lib/src/stm32f10x_i2c.c ****   * @brief  Enables or disables the specified I2C interrupts.
 536:lib/src/stm32f10x_i2c.c ****   * @param  I2Cx: where x can be 1 or 2 to select the I2C peripheral.
 537:lib/src/stm32f10x_i2c.c ****   * @param  I2C_IT: specifies the I2C interrupts sources to be enabled or disabled. 
 538:lib/src/stm32f10x_i2c.c ****   *   This parameter can be any combination of the following values:
 539:lib/src/stm32f10x_i2c.c ****   *     @arg I2C_IT_BUF: Buffer interrupt mask
 540:lib/src/stm32f10x_i2c.c ****   *     @arg I2C_IT_EVT: Event interrupt mask
 541:lib/src/stm32f10x_i2c.c ****   *     @arg I2C_IT_ERR: Error interrupt mask
 542:lib/src/stm32f10x_i2c.c ****   * @param  NewState: new state of the specified I2C interrupts.
 543:lib/src/stm32f10x_i2c.c ****   *   This parameter can be: ENABLE or DISABLE.
 544:lib/src/stm32f10x_i2c.c ****   * @retval None
 545:lib/src/stm32f10x_i2c.c ****   */
 546:lib/src/stm32f10x_i2c.c **** void I2C_ITConfig(I2C_TypeDef* I2Cx, uint16_t I2C_IT, FunctionalState NewState)
 547:lib/src/stm32f10x_i2c.c **** {
 601              		.loc 1 547 0
 602              		.cfi_startproc
 603              		@ args = 0, pretend = 0, frame = 0
 604              		@ frame_needed = 0, uses_anonymous_args = 0
 605              		@ link register save eliminated.
 606              	.LVL54:
 548:lib/src/stm32f10x_i2c.c ****   /* Check the parameters */
 549:lib/src/stm32f10x_i2c.c ****   assert_param(IS_I2C_ALL_PERIPH(I2Cx));
 550:lib/src/stm32f10x_i2c.c ****   assert_param(IS_FUNCTIONAL_STATE(NewState));
 551:lib/src/stm32f10x_i2c.c ****   assert_param(IS_I2C_CONFIG_IT(I2C_IT));
 552:lib/src/stm32f10x_i2c.c ****   
 553:lib/src/stm32f10x_i2c.c ****   if (NewState != DISABLE)
 607              		.loc 1 553 0
 608 0226 2AB9     		cbnz	r2, .L55
 554:lib/src/stm32f10x_i2c.c ****   {
 555:lib/src/stm32f10x_i2c.c ****     /* Enable the selected I2C interrupts */
 556:lib/src/stm32f10x_i2c.c ****     I2Cx->CR2 |= I2C_IT;
 557:lib/src/stm32f10x_i2c.c ****   }
 558:lib/src/stm32f10x_i2c.c ****   else
 559:lib/src/stm32f10x_i2c.c ****   {
 560:lib/src/stm32f10x_i2c.c ****     /* Disable the selected I2C interrupts */
 561:lib/src/stm32f10x_i2c.c ****     I2Cx->CR2 &= (uint16_t)~I2C_IT;
 609              		.loc 1 561 0
 610 0228 8388     		ldrh	r3, [r0, #4]
 611 022a 9BB2     		uxth	r3, r3
 612 022c 23EA0101 		bic	r1, r3, r1
 613              	.LVL55:
 614 0230 8180     		strh	r1, [r0, #4]	@ movhi
 615 0232 7047     		bx	lr
 616              	.LVL56:
 617              	.L55:
ARM GAS  /tmp/ccuwQjW2.s 			page 22


 556:lib/src/stm32f10x_i2c.c ****   }
 618              		.loc 1 556 0
 619 0234 8388     		ldrh	r3, [r0, #4]
 620 0236 9BB2     		uxth	r3, r3
 621 0238 1943     		orrs	r1, r1, r3
 622              	.LVL57:
 623 023a 8180     		strh	r1, [r0, #4]	@ movhi
 624 023c 7047     		bx	lr
 625              		.cfi_endproc
 626              	.LFE76:
 627              		.size	I2C_ITConfig, .-I2C_ITConfig
 628              		.align	1
 629              		.global	I2C_SendData
 630              		.syntax unified
 631              		.thumb
 632              		.thumb_func
 633              		.fpu softvfp
 634              		.type	I2C_SendData, %function
 635              	I2C_SendData:
 636              	.LFB77:
 562:lib/src/stm32f10x_i2c.c ****   }
 563:lib/src/stm32f10x_i2c.c **** }
 564:lib/src/stm32f10x_i2c.c **** 
 565:lib/src/stm32f10x_i2c.c **** /**
 566:lib/src/stm32f10x_i2c.c ****   * @brief  Sends a data byte through the I2Cx peripheral.
 567:lib/src/stm32f10x_i2c.c ****   * @param  I2Cx: where x can be 1 or 2 to select the I2C peripheral.
 568:lib/src/stm32f10x_i2c.c ****   * @param  Data: Byte to be transmitted..
 569:lib/src/stm32f10x_i2c.c ****   * @retval None
 570:lib/src/stm32f10x_i2c.c ****   */
 571:lib/src/stm32f10x_i2c.c **** void I2C_SendData(I2C_TypeDef* I2Cx, uint8_t Data)
 572:lib/src/stm32f10x_i2c.c **** {
 637              		.loc 1 572 0
 638              		.cfi_startproc
 639              		@ args = 0, pretend = 0, frame = 0
 640              		@ frame_needed = 0, uses_anonymous_args = 0
 641              		@ link register save eliminated.
 642              	.LVL58:
 573:lib/src/stm32f10x_i2c.c ****   /* Check the parameters */
 574:lib/src/stm32f10x_i2c.c ****   assert_param(IS_I2C_ALL_PERIPH(I2Cx));
 575:lib/src/stm32f10x_i2c.c ****   /* Write in the DR register the data to be sent */
 576:lib/src/stm32f10x_i2c.c ****   I2Cx->DR = Data;
 643              		.loc 1 576 0
 644 023e 0182     		strh	r1, [r0, #16]	@ movhi
 645 0240 7047     		bx	lr
 646              		.cfi_endproc
 647              	.LFE77:
 648              		.size	I2C_SendData, .-I2C_SendData
 649              		.align	1
 650              		.global	I2C_ReceiveData
 651              		.syntax unified
 652              		.thumb
 653              		.thumb_func
 654              		.fpu softvfp
 655              		.type	I2C_ReceiveData, %function
 656              	I2C_ReceiveData:
 657              	.LFB78:
 577:lib/src/stm32f10x_i2c.c **** }
ARM GAS  /tmp/ccuwQjW2.s 			page 23


 578:lib/src/stm32f10x_i2c.c **** 
 579:lib/src/stm32f10x_i2c.c **** /**
 580:lib/src/stm32f10x_i2c.c ****   * @brief  Returns the most recent received data by the I2Cx peripheral.
 581:lib/src/stm32f10x_i2c.c ****   * @param  I2Cx: where x can be 1 or 2 to select the I2C peripheral.
 582:lib/src/stm32f10x_i2c.c ****   * @retval The value of the received data.
 583:lib/src/stm32f10x_i2c.c ****   */
 584:lib/src/stm32f10x_i2c.c **** uint8_t I2C_ReceiveData(I2C_TypeDef* I2Cx)
 585:lib/src/stm32f10x_i2c.c **** {
 658              		.loc 1 585 0
 659              		.cfi_startproc
 660              		@ args = 0, pretend = 0, frame = 0
 661              		@ frame_needed = 0, uses_anonymous_args = 0
 662              		@ link register save eliminated.
 663              	.LVL59:
 586:lib/src/stm32f10x_i2c.c ****   /* Check the parameters */
 587:lib/src/stm32f10x_i2c.c ****   assert_param(IS_I2C_ALL_PERIPH(I2Cx));
 588:lib/src/stm32f10x_i2c.c ****   /* Return the data in the DR register */
 589:lib/src/stm32f10x_i2c.c ****   return (uint8_t)I2Cx->DR;
 664              		.loc 1 589 0
 665 0242 008A     		ldrh	r0, [r0, #16]
 666              	.LVL60:
 590:lib/src/stm32f10x_i2c.c **** }
 667              		.loc 1 590 0
 668 0244 C0B2     		uxtb	r0, r0
 669 0246 7047     		bx	lr
 670              		.cfi_endproc
 671              	.LFE78:
 672              		.size	I2C_ReceiveData, .-I2C_ReceiveData
 673              		.align	1
 674              		.global	I2C_Send7bitAddress
 675              		.syntax unified
 676              		.thumb
 677              		.thumb_func
 678              		.fpu softvfp
 679              		.type	I2C_Send7bitAddress, %function
 680              	I2C_Send7bitAddress:
 681              	.LFB79:
 591:lib/src/stm32f10x_i2c.c **** 
 592:lib/src/stm32f10x_i2c.c **** /**
 593:lib/src/stm32f10x_i2c.c ****   * @brief  Transmits the address byte to select the slave device.
 594:lib/src/stm32f10x_i2c.c ****   * @param  I2Cx: where x can be 1 or 2 to select the I2C peripheral.
 595:lib/src/stm32f10x_i2c.c ****   * @param  Address: specifies the slave address which will be transmitted
 596:lib/src/stm32f10x_i2c.c ****   * @param  I2C_Direction: specifies whether the I2C device will be a
 597:lib/src/stm32f10x_i2c.c ****   *   Transmitter or a Receiver. This parameter can be one of the following values
 598:lib/src/stm32f10x_i2c.c ****   *     @arg I2C_Direction_Transmitter: Transmitter mode
 599:lib/src/stm32f10x_i2c.c ****   *     @arg I2C_Direction_Receiver: Receiver mode
 600:lib/src/stm32f10x_i2c.c ****   * @retval None.
 601:lib/src/stm32f10x_i2c.c ****   */
 602:lib/src/stm32f10x_i2c.c **** void I2C_Send7bitAddress(I2C_TypeDef* I2Cx, uint8_t Address, uint8_t I2C_Direction)
 603:lib/src/stm32f10x_i2c.c **** {
 682              		.loc 1 603 0
 683              		.cfi_startproc
 684              		@ args = 0, pretend = 0, frame = 0
 685              		@ frame_needed = 0, uses_anonymous_args = 0
 686              		@ link register save eliminated.
 687              	.LVL61:
 604:lib/src/stm32f10x_i2c.c ****   /* Check the parameters */
ARM GAS  /tmp/ccuwQjW2.s 			page 24


 605:lib/src/stm32f10x_i2c.c ****   assert_param(IS_I2C_ALL_PERIPH(I2Cx));
 606:lib/src/stm32f10x_i2c.c ****   assert_param(IS_I2C_DIRECTION(I2C_Direction));
 607:lib/src/stm32f10x_i2c.c ****   /* Test on the direction to set/reset the read/write bit */
 608:lib/src/stm32f10x_i2c.c ****   if (I2C_Direction != I2C_Direction_Transmitter)
 688              		.loc 1 608 0
 689 0248 22B9     		cbnz	r2, .L61
 609:lib/src/stm32f10x_i2c.c ****   {
 610:lib/src/stm32f10x_i2c.c ****     /* Set the address bit0 for read */
 611:lib/src/stm32f10x_i2c.c ****     Address |= OAR1_ADD0_Set;
 612:lib/src/stm32f10x_i2c.c ****   }
 613:lib/src/stm32f10x_i2c.c ****   else
 614:lib/src/stm32f10x_i2c.c ****   {
 615:lib/src/stm32f10x_i2c.c ****     /* Reset the address bit0 for write */
 616:lib/src/stm32f10x_i2c.c ****     Address &= OAR1_ADD0_Reset;
 690              		.loc 1 616 0
 691 024a 01F0FE01 		and	r1, r1, #254
 692              	.LVL62:
 693              	.L60:
 617:lib/src/stm32f10x_i2c.c ****   }
 618:lib/src/stm32f10x_i2c.c ****   /* Send the address */
 619:lib/src/stm32f10x_i2c.c ****   I2Cx->DR = Address;
 694              		.loc 1 619 0
 695 024e 89B2     		uxth	r1, r1
 696              	.LVL63:
 697 0250 0182     		strh	r1, [r0, #16]	@ movhi
 698 0252 7047     		bx	lr
 699              	.LVL64:
 700              	.L61:
 611:lib/src/stm32f10x_i2c.c ****   }
 701              		.loc 1 611 0
 702 0254 41F00101 		orr	r1, r1, #1
 703              	.LVL65:
 704 0258 F9E7     		b	.L60
 705              		.cfi_endproc
 706              	.LFE79:
 707              		.size	I2C_Send7bitAddress, .-I2C_Send7bitAddress
 708              		.align	1
 709              		.global	I2C_ReadRegister
 710              		.syntax unified
 711              		.thumb
 712              		.thumb_func
 713              		.fpu softvfp
 714              		.type	I2C_ReadRegister, %function
 715              	I2C_ReadRegister:
 716              	.LFB80:
 620:lib/src/stm32f10x_i2c.c **** }
 621:lib/src/stm32f10x_i2c.c **** 
 622:lib/src/stm32f10x_i2c.c **** /**
 623:lib/src/stm32f10x_i2c.c ****   * @brief  Reads the specified I2C register and returns its value.
 624:lib/src/stm32f10x_i2c.c ****   * @param  I2C_Register: specifies the register to read.
 625:lib/src/stm32f10x_i2c.c ****   *   This parameter can be one of the following values:
 626:lib/src/stm32f10x_i2c.c ****   *     @arg I2C_Register_CR1:  CR1 register.
 627:lib/src/stm32f10x_i2c.c ****   *     @arg I2C_Register_CR2:   CR2 register.
 628:lib/src/stm32f10x_i2c.c ****   *     @arg I2C_Register_OAR1:  OAR1 register.
 629:lib/src/stm32f10x_i2c.c ****   *     @arg I2C_Register_OAR2:  OAR2 register.
 630:lib/src/stm32f10x_i2c.c ****   *     @arg I2C_Register_DR:    DR register.
 631:lib/src/stm32f10x_i2c.c ****   *     @arg I2C_Register_SR1:   SR1 register.
ARM GAS  /tmp/ccuwQjW2.s 			page 25


 632:lib/src/stm32f10x_i2c.c ****   *     @arg I2C_Register_SR2:   SR2 register.
 633:lib/src/stm32f10x_i2c.c ****   *     @arg I2C_Register_CCR:   CCR register.
 634:lib/src/stm32f10x_i2c.c ****   *     @arg I2C_Register_TRISE: TRISE register.
 635:lib/src/stm32f10x_i2c.c ****   * @retval The value of the read register.
 636:lib/src/stm32f10x_i2c.c ****   */
 637:lib/src/stm32f10x_i2c.c **** uint16_t I2C_ReadRegister(I2C_TypeDef* I2Cx, uint8_t I2C_Register)
 638:lib/src/stm32f10x_i2c.c **** {
 717              		.loc 1 638 0
 718              		.cfi_startproc
 719              		@ args = 0, pretend = 0, frame = 8
 720              		@ frame_needed = 0, uses_anonymous_args = 0
 721              		@ link register save eliminated.
 722              	.LVL66:
 723 025a 82B0     		sub	sp, sp, #8
 724              		.cfi_def_cfa_offset 8
 639:lib/src/stm32f10x_i2c.c ****   __IO uint32_t tmp = 0;
 725              		.loc 1 639 0
 726 025c 0023     		movs	r3, #0
 727 025e 0193     		str	r3, [sp, #4]
 640:lib/src/stm32f10x_i2c.c **** 
 641:lib/src/stm32f10x_i2c.c ****   /* Check the parameters */
 642:lib/src/stm32f10x_i2c.c ****   assert_param(IS_I2C_ALL_PERIPH(I2Cx));
 643:lib/src/stm32f10x_i2c.c ****   assert_param(IS_I2C_REGISTER(I2C_Register));
 644:lib/src/stm32f10x_i2c.c **** 
 645:lib/src/stm32f10x_i2c.c ****   tmp = (uint32_t) I2Cx;
 728              		.loc 1 645 0
 729 0260 0190     		str	r0, [sp, #4]
 646:lib/src/stm32f10x_i2c.c ****   tmp += I2C_Register;
 730              		.loc 1 646 0
 731 0262 019B     		ldr	r3, [sp, #4]
 732 0264 1944     		add	r1, r1, r3
 733              	.LVL67:
 734 0266 0191     		str	r1, [sp, #4]
 647:lib/src/stm32f10x_i2c.c **** 
 648:lib/src/stm32f10x_i2c.c ****   /* Return the selected register value */
 649:lib/src/stm32f10x_i2c.c ****   return (*(__IO uint16_t *) tmp);
 735              		.loc 1 649 0
 736 0268 019B     		ldr	r3, [sp, #4]
 737 026a 1888     		ldrh	r0, [r3]
 738              	.LVL68:
 650:lib/src/stm32f10x_i2c.c **** }
 739              		.loc 1 650 0
 740 026c 80B2     		uxth	r0, r0
 741 026e 02B0     		add	sp, sp, #8
 742              		.cfi_def_cfa_offset 0
 743              		@ sp needed
 744 0270 7047     		bx	lr
 745              		.cfi_endproc
 746              	.LFE80:
 747              		.size	I2C_ReadRegister, .-I2C_ReadRegister
 748              		.align	1
 749              		.global	I2C_SoftwareResetCmd
 750              		.syntax unified
 751              		.thumb
 752              		.thumb_func
 753              		.fpu softvfp
 754              		.type	I2C_SoftwareResetCmd, %function
ARM GAS  /tmp/ccuwQjW2.s 			page 26


 755              	I2C_SoftwareResetCmd:
 756              	.LFB81:
 651:lib/src/stm32f10x_i2c.c **** 
 652:lib/src/stm32f10x_i2c.c **** /**
 653:lib/src/stm32f10x_i2c.c ****   * @brief  Enables or disables the specified I2C software reset.
 654:lib/src/stm32f10x_i2c.c ****   * @param  I2Cx: where x can be 1 or 2 to select the I2C peripheral.
 655:lib/src/stm32f10x_i2c.c ****   * @param  NewState: new state of the I2C software reset.
 656:lib/src/stm32f10x_i2c.c ****   *   This parameter can be: ENABLE or DISABLE.
 657:lib/src/stm32f10x_i2c.c ****   * @retval None
 658:lib/src/stm32f10x_i2c.c ****   */
 659:lib/src/stm32f10x_i2c.c **** void I2C_SoftwareResetCmd(I2C_TypeDef* I2Cx, FunctionalState NewState)
 660:lib/src/stm32f10x_i2c.c **** {
 757              		.loc 1 660 0
 758              		.cfi_startproc
 759              		@ args = 0, pretend = 0, frame = 0
 760              		@ frame_needed = 0, uses_anonymous_args = 0
 761              		@ link register save eliminated.
 762              	.LVL69:
 661:lib/src/stm32f10x_i2c.c ****   /* Check the parameters */
 662:lib/src/stm32f10x_i2c.c ****   assert_param(IS_I2C_ALL_PERIPH(I2Cx));
 663:lib/src/stm32f10x_i2c.c ****   assert_param(IS_FUNCTIONAL_STATE(NewState));
 664:lib/src/stm32f10x_i2c.c ****   if (NewState != DISABLE)
 763              		.loc 1 664 0
 764 0272 21B9     		cbnz	r1, .L67
 665:lib/src/stm32f10x_i2c.c ****   {
 666:lib/src/stm32f10x_i2c.c ****     /* Peripheral under reset */
 667:lib/src/stm32f10x_i2c.c ****     I2Cx->CR1 |= CR1_SWRST_Set;
 668:lib/src/stm32f10x_i2c.c ****   }
 669:lib/src/stm32f10x_i2c.c ****   else
 670:lib/src/stm32f10x_i2c.c ****   {
 671:lib/src/stm32f10x_i2c.c ****     /* Peripheral not under reset */
 672:lib/src/stm32f10x_i2c.c ****     I2Cx->CR1 &= CR1_SWRST_Reset;
 765              		.loc 1 672 0
 766 0274 0388     		ldrh	r3, [r0]
 767 0276 C3F30E03 		ubfx	r3, r3, #0, #15
 768 027a 0380     		strh	r3, [r0]	@ movhi
 769 027c 7047     		bx	lr
 770              	.L67:
 667:lib/src/stm32f10x_i2c.c ****   }
 771              		.loc 1 667 0
 772 027e 0388     		ldrh	r3, [r0]
 773 0280 6FEA4343 		mvn	r3, r3, lsl #17
 774 0284 6FEA5343 		mvn	r3, r3, lsr #17
 775 0288 9BB2     		uxth	r3, r3
 776 028a 0380     		strh	r3, [r0]	@ movhi
 777 028c 7047     		bx	lr
 778              		.cfi_endproc
 779              	.LFE81:
 780              		.size	I2C_SoftwareResetCmd, .-I2C_SoftwareResetCmd
 781              		.align	1
 782              		.global	I2C_NACKPositionConfig
 783              		.syntax unified
 784              		.thumb
 785              		.thumb_func
 786              		.fpu softvfp
 787              		.type	I2C_NACKPositionConfig, %function
 788              	I2C_NACKPositionConfig:
ARM GAS  /tmp/ccuwQjW2.s 			page 27


 789              	.LFB82:
 673:lib/src/stm32f10x_i2c.c ****   }
 674:lib/src/stm32f10x_i2c.c **** }
 675:lib/src/stm32f10x_i2c.c **** 
 676:lib/src/stm32f10x_i2c.c **** /**
 677:lib/src/stm32f10x_i2c.c ****   * @brief  Selects the specified I2C NACK position in master receiver mode.
 678:lib/src/stm32f10x_i2c.c ****   *         This function is useful in I2C Master Receiver mode when the number
 679:lib/src/stm32f10x_i2c.c ****   *         of data to be received is equal to 2. In this case, this function 
 680:lib/src/stm32f10x_i2c.c ****   *         should be called (with parameter I2C_NACKPosition_Next) before data 
 681:lib/src/stm32f10x_i2c.c ****   *         reception starts,as described in the 2-byte reception procedure 
 682:lib/src/stm32f10x_i2c.c ****   *         recommended in Reference Manual in Section: Master receiver.                
 683:lib/src/stm32f10x_i2c.c ****   * @param  I2Cx: where x can be 1 or 2 to select the I2C peripheral.
 684:lib/src/stm32f10x_i2c.c ****   * @param  I2C_NACKPosition: specifies the NACK position. 
 685:lib/src/stm32f10x_i2c.c ****   *   This parameter can be one of the following values:
 686:lib/src/stm32f10x_i2c.c ****   *     @arg I2C_NACKPosition_Next: indicates that the next byte will be the last
 687:lib/src/stm32f10x_i2c.c ****   *          received byte.  
 688:lib/src/stm32f10x_i2c.c ****   *     @arg I2C_NACKPosition_Current: indicates that current byte is the last 
 689:lib/src/stm32f10x_i2c.c ****   *          received byte.
 690:lib/src/stm32f10x_i2c.c ****   *            
 691:lib/src/stm32f10x_i2c.c ****   * @note    This function configures the same bit (POS) as I2C_PECPositionConfig() 
 692:lib/src/stm32f10x_i2c.c ****   *          but is intended to be used in I2C mode while I2C_PECPositionConfig() 
 693:lib/src/stm32f10x_i2c.c ****   *          is intended to used in SMBUS mode. 
 694:lib/src/stm32f10x_i2c.c ****   *            
 695:lib/src/stm32f10x_i2c.c ****   * @retval None
 696:lib/src/stm32f10x_i2c.c ****   */
 697:lib/src/stm32f10x_i2c.c **** void I2C_NACKPositionConfig(I2C_TypeDef* I2Cx, uint16_t I2C_NACKPosition)
 698:lib/src/stm32f10x_i2c.c **** {
 790              		.loc 1 698 0
 791              		.cfi_startproc
 792              		@ args = 0, pretend = 0, frame = 0
 793              		@ frame_needed = 0, uses_anonymous_args = 0
 794              		@ link register save eliminated.
 795              	.LVL70:
 699:lib/src/stm32f10x_i2c.c ****   /* Check the parameters */
 700:lib/src/stm32f10x_i2c.c ****   assert_param(IS_I2C_ALL_PERIPH(I2Cx));
 701:lib/src/stm32f10x_i2c.c ****   assert_param(IS_I2C_NACK_POSITION(I2C_NACKPosition));
 702:lib/src/stm32f10x_i2c.c ****   
 703:lib/src/stm32f10x_i2c.c ****   /* Check the input parameter */
 704:lib/src/stm32f10x_i2c.c ****   if (I2C_NACKPosition == I2C_NACKPosition_Next)
 796              		.loc 1 704 0
 797 028e B1F5006F 		cmp	r1, #2048
 798 0292 06D0     		beq	.L71
 705:lib/src/stm32f10x_i2c.c ****   {
 706:lib/src/stm32f10x_i2c.c ****     /* Next byte in shift register is the last received byte */
 707:lib/src/stm32f10x_i2c.c ****     I2Cx->CR1 |= I2C_NACKPosition_Next;
 708:lib/src/stm32f10x_i2c.c ****   }
 709:lib/src/stm32f10x_i2c.c ****   else
 710:lib/src/stm32f10x_i2c.c ****   {
 711:lib/src/stm32f10x_i2c.c ****     /* Current byte in shift register is the last received byte */
 712:lib/src/stm32f10x_i2c.c ****     I2Cx->CR1 &= I2C_NACKPosition_Current;
 799              		.loc 1 712 0
 800 0294 0388     		ldrh	r3, [r0]
 801 0296 23F40063 		bic	r3, r3, #2048
 802 029a 1B04     		lsls	r3, r3, #16
 803 029c 1B0C     		lsrs	r3, r3, #16
 804 029e 0380     		strh	r3, [r0]	@ movhi
 805 02a0 7047     		bx	lr
ARM GAS  /tmp/ccuwQjW2.s 			page 28


 806              	.L71:
 707:lib/src/stm32f10x_i2c.c ****   }
 807              		.loc 1 707 0
 808 02a2 0388     		ldrh	r3, [r0]
 809 02a4 9BB2     		uxth	r3, r3
 810 02a6 43F40063 		orr	r3, r3, #2048
 811 02aa 0380     		strh	r3, [r0]	@ movhi
 812 02ac 7047     		bx	lr
 813              		.cfi_endproc
 814              	.LFE82:
 815              		.size	I2C_NACKPositionConfig, .-I2C_NACKPositionConfig
 816              		.align	1
 817              		.global	I2C_SMBusAlertConfig
 818              		.syntax unified
 819              		.thumb
 820              		.thumb_func
 821              		.fpu softvfp
 822              		.type	I2C_SMBusAlertConfig, %function
 823              	I2C_SMBusAlertConfig:
 824              	.LFB83:
 713:lib/src/stm32f10x_i2c.c ****   }
 714:lib/src/stm32f10x_i2c.c **** }
 715:lib/src/stm32f10x_i2c.c **** 
 716:lib/src/stm32f10x_i2c.c **** /**
 717:lib/src/stm32f10x_i2c.c ****   * @brief  Drives the SMBusAlert pin high or low for the specified I2C.
 718:lib/src/stm32f10x_i2c.c ****   * @param  I2Cx: where x can be 1 or 2 to select the I2C peripheral.
 719:lib/src/stm32f10x_i2c.c ****   * @param  I2C_SMBusAlert: specifies SMBAlert pin level. 
 720:lib/src/stm32f10x_i2c.c ****   *   This parameter can be one of the following values:
 721:lib/src/stm32f10x_i2c.c ****   *     @arg I2C_SMBusAlert_Low: SMBAlert pin driven low
 722:lib/src/stm32f10x_i2c.c ****   *     @arg I2C_SMBusAlert_High: SMBAlert pin driven high
 723:lib/src/stm32f10x_i2c.c ****   * @retval None
 724:lib/src/stm32f10x_i2c.c ****   */
 725:lib/src/stm32f10x_i2c.c **** void I2C_SMBusAlertConfig(I2C_TypeDef* I2Cx, uint16_t I2C_SMBusAlert)
 726:lib/src/stm32f10x_i2c.c **** {
 825              		.loc 1 726 0
 826              		.cfi_startproc
 827              		@ args = 0, pretend = 0, frame = 0
 828              		@ frame_needed = 0, uses_anonymous_args = 0
 829              		@ link register save eliminated.
 830              	.LVL71:
 727:lib/src/stm32f10x_i2c.c ****   /* Check the parameters */
 728:lib/src/stm32f10x_i2c.c ****   assert_param(IS_I2C_ALL_PERIPH(I2Cx));
 729:lib/src/stm32f10x_i2c.c ****   assert_param(IS_I2C_SMBUS_ALERT(I2C_SMBusAlert));
 730:lib/src/stm32f10x_i2c.c ****   if (I2C_SMBusAlert == I2C_SMBusAlert_Low)
 831              		.loc 1 730 0
 832 02ae B1F5005F 		cmp	r1, #8192
 833 02b2 06D0     		beq	.L75
 731:lib/src/stm32f10x_i2c.c ****   {
 732:lib/src/stm32f10x_i2c.c ****     /* Drive the SMBusAlert pin Low */
 733:lib/src/stm32f10x_i2c.c ****     I2Cx->CR1 |= I2C_SMBusAlert_Low;
 734:lib/src/stm32f10x_i2c.c ****   }
 735:lib/src/stm32f10x_i2c.c ****   else
 736:lib/src/stm32f10x_i2c.c ****   {
 737:lib/src/stm32f10x_i2c.c ****     /* Drive the SMBusAlert pin High  */
 738:lib/src/stm32f10x_i2c.c ****     I2Cx->CR1 &= I2C_SMBusAlert_High;
 834              		.loc 1 738 0
 835 02b4 0388     		ldrh	r3, [r0]
ARM GAS  /tmp/ccuwQjW2.s 			page 29


 836 02b6 23F40053 		bic	r3, r3, #8192
 837 02ba 1B04     		lsls	r3, r3, #16
 838 02bc 1B0C     		lsrs	r3, r3, #16
 839 02be 0380     		strh	r3, [r0]	@ movhi
 840 02c0 7047     		bx	lr
 841              	.L75:
 733:lib/src/stm32f10x_i2c.c ****   }
 842              		.loc 1 733 0
 843 02c2 0388     		ldrh	r3, [r0]
 844 02c4 9BB2     		uxth	r3, r3
 845 02c6 43F40053 		orr	r3, r3, #8192
 846 02ca 0380     		strh	r3, [r0]	@ movhi
 847 02cc 7047     		bx	lr
 848              		.cfi_endproc
 849              	.LFE83:
 850              		.size	I2C_SMBusAlertConfig, .-I2C_SMBusAlertConfig
 851              		.align	1
 852              		.global	I2C_TransmitPEC
 853              		.syntax unified
 854              		.thumb
 855              		.thumb_func
 856              		.fpu softvfp
 857              		.type	I2C_TransmitPEC, %function
 858              	I2C_TransmitPEC:
 859              	.LFB84:
 739:lib/src/stm32f10x_i2c.c ****   }
 740:lib/src/stm32f10x_i2c.c **** }
 741:lib/src/stm32f10x_i2c.c **** 
 742:lib/src/stm32f10x_i2c.c **** /**
 743:lib/src/stm32f10x_i2c.c ****   * @brief  Enables or disables the specified I2C PEC transfer.
 744:lib/src/stm32f10x_i2c.c ****   * @param  I2Cx: where x can be 1 or 2 to select the I2C peripheral.
 745:lib/src/stm32f10x_i2c.c ****   * @param  NewState: new state of the I2C PEC transmission.
 746:lib/src/stm32f10x_i2c.c ****   *   This parameter can be: ENABLE or DISABLE.
 747:lib/src/stm32f10x_i2c.c ****   * @retval None
 748:lib/src/stm32f10x_i2c.c ****   */
 749:lib/src/stm32f10x_i2c.c **** void I2C_TransmitPEC(I2C_TypeDef* I2Cx, FunctionalState NewState)
 750:lib/src/stm32f10x_i2c.c **** {
 860              		.loc 1 750 0
 861              		.cfi_startproc
 862              		@ args = 0, pretend = 0, frame = 0
 863              		@ frame_needed = 0, uses_anonymous_args = 0
 864              		@ link register save eliminated.
 865              	.LVL72:
 751:lib/src/stm32f10x_i2c.c ****   /* Check the parameters */
 752:lib/src/stm32f10x_i2c.c ****   assert_param(IS_I2C_ALL_PERIPH(I2Cx));
 753:lib/src/stm32f10x_i2c.c ****   assert_param(IS_FUNCTIONAL_STATE(NewState));
 754:lib/src/stm32f10x_i2c.c ****   if (NewState != DISABLE)
 866              		.loc 1 754 0
 867 02ce 31B9     		cbnz	r1, .L79
 755:lib/src/stm32f10x_i2c.c ****   {
 756:lib/src/stm32f10x_i2c.c ****     /* Enable the selected I2C PEC transmission */
 757:lib/src/stm32f10x_i2c.c ****     I2Cx->CR1 |= CR1_PEC_Set;
 758:lib/src/stm32f10x_i2c.c ****   }
 759:lib/src/stm32f10x_i2c.c ****   else
 760:lib/src/stm32f10x_i2c.c ****   {
 761:lib/src/stm32f10x_i2c.c ****     /* Disable the selected I2C PEC transmission */
 762:lib/src/stm32f10x_i2c.c ****     I2Cx->CR1 &= CR1_PEC_Reset;
ARM GAS  /tmp/ccuwQjW2.s 			page 30


 868              		.loc 1 762 0
 869 02d0 0388     		ldrh	r3, [r0]
 870 02d2 23F48053 		bic	r3, r3, #4096
 871 02d6 1B04     		lsls	r3, r3, #16
 872 02d8 1B0C     		lsrs	r3, r3, #16
 873 02da 0380     		strh	r3, [r0]	@ movhi
 874 02dc 7047     		bx	lr
 875              	.L79:
 757:lib/src/stm32f10x_i2c.c ****   }
 876              		.loc 1 757 0
 877 02de 0388     		ldrh	r3, [r0]
 878 02e0 9BB2     		uxth	r3, r3
 879 02e2 43F48053 		orr	r3, r3, #4096
 880 02e6 0380     		strh	r3, [r0]	@ movhi
 881 02e8 7047     		bx	lr
 882              		.cfi_endproc
 883              	.LFE84:
 884              		.size	I2C_TransmitPEC, .-I2C_TransmitPEC
 885              		.align	1
 886              		.global	I2C_PECPositionConfig
 887              		.syntax unified
 888              		.thumb
 889              		.thumb_func
 890              		.fpu softvfp
 891              		.type	I2C_PECPositionConfig, %function
 892              	I2C_PECPositionConfig:
 893              	.LFB85:
 763:lib/src/stm32f10x_i2c.c ****   }
 764:lib/src/stm32f10x_i2c.c **** }
 765:lib/src/stm32f10x_i2c.c **** 
 766:lib/src/stm32f10x_i2c.c **** /**
 767:lib/src/stm32f10x_i2c.c ****   * @brief  Selects the specified I2C PEC position.
 768:lib/src/stm32f10x_i2c.c ****   * @param  I2Cx: where x can be 1 or 2 to select the I2C peripheral.
 769:lib/src/stm32f10x_i2c.c ****   * @param  I2C_PECPosition: specifies the PEC position. 
 770:lib/src/stm32f10x_i2c.c ****   *   This parameter can be one of the following values:
 771:lib/src/stm32f10x_i2c.c ****   *     @arg I2C_PECPosition_Next: indicates that the next byte is PEC
 772:lib/src/stm32f10x_i2c.c ****   *     @arg I2C_PECPosition_Current: indicates that current byte is PEC
 773:lib/src/stm32f10x_i2c.c ****   *       
 774:lib/src/stm32f10x_i2c.c ****   * @note    This function configures the same bit (POS) as I2C_NACKPositionConfig()
 775:lib/src/stm32f10x_i2c.c ****   *          but is intended to be used in SMBUS mode while I2C_NACKPositionConfig() 
 776:lib/src/stm32f10x_i2c.c ****   *          is intended to used in I2C mode.
 777:lib/src/stm32f10x_i2c.c ****   *               
 778:lib/src/stm32f10x_i2c.c ****   * @retval None
 779:lib/src/stm32f10x_i2c.c ****   */
 780:lib/src/stm32f10x_i2c.c **** void I2C_PECPositionConfig(I2C_TypeDef* I2Cx, uint16_t I2C_PECPosition)
 781:lib/src/stm32f10x_i2c.c **** {
 894              		.loc 1 781 0
 895              		.cfi_startproc
 896              		@ args = 0, pretend = 0, frame = 0
 897              		@ frame_needed = 0, uses_anonymous_args = 0
 898              		@ link register save eliminated.
 899              	.LVL73:
 782:lib/src/stm32f10x_i2c.c ****   /* Check the parameters */
 783:lib/src/stm32f10x_i2c.c ****   assert_param(IS_I2C_ALL_PERIPH(I2Cx));
 784:lib/src/stm32f10x_i2c.c ****   assert_param(IS_I2C_PEC_POSITION(I2C_PECPosition));
 785:lib/src/stm32f10x_i2c.c ****   if (I2C_PECPosition == I2C_PECPosition_Next)
 900              		.loc 1 785 0
ARM GAS  /tmp/ccuwQjW2.s 			page 31


 901 02ea B1F5006F 		cmp	r1, #2048
 902 02ee 06D0     		beq	.L83
 786:lib/src/stm32f10x_i2c.c ****   {
 787:lib/src/stm32f10x_i2c.c ****     /* Next byte in shift register is PEC */
 788:lib/src/stm32f10x_i2c.c ****     I2Cx->CR1 |= I2C_PECPosition_Next;
 789:lib/src/stm32f10x_i2c.c ****   }
 790:lib/src/stm32f10x_i2c.c ****   else
 791:lib/src/stm32f10x_i2c.c ****   {
 792:lib/src/stm32f10x_i2c.c ****     /* Current byte in shift register is PEC */
 793:lib/src/stm32f10x_i2c.c ****     I2Cx->CR1 &= I2C_PECPosition_Current;
 903              		.loc 1 793 0
 904 02f0 0388     		ldrh	r3, [r0]
 905 02f2 23F40063 		bic	r3, r3, #2048
 906 02f6 1B04     		lsls	r3, r3, #16
 907 02f8 1B0C     		lsrs	r3, r3, #16
 908 02fa 0380     		strh	r3, [r0]	@ movhi
 909 02fc 7047     		bx	lr
 910              	.L83:
 788:lib/src/stm32f10x_i2c.c ****   }
 911              		.loc 1 788 0
 912 02fe 0388     		ldrh	r3, [r0]
 913 0300 9BB2     		uxth	r3, r3
 914 0302 43F40063 		orr	r3, r3, #2048
 915 0306 0380     		strh	r3, [r0]	@ movhi
 916 0308 7047     		bx	lr
 917              		.cfi_endproc
 918              	.LFE85:
 919              		.size	I2C_PECPositionConfig, .-I2C_PECPositionConfig
 920              		.align	1
 921              		.global	I2C_CalculatePEC
 922              		.syntax unified
 923              		.thumb
 924              		.thumb_func
 925              		.fpu softvfp
 926              		.type	I2C_CalculatePEC, %function
 927              	I2C_CalculatePEC:
 928              	.LFB86:
 794:lib/src/stm32f10x_i2c.c ****   }
 795:lib/src/stm32f10x_i2c.c **** }
 796:lib/src/stm32f10x_i2c.c **** 
 797:lib/src/stm32f10x_i2c.c **** /**
 798:lib/src/stm32f10x_i2c.c ****   * @brief  Enables or disables the PEC value calculation of the transferred bytes.
 799:lib/src/stm32f10x_i2c.c ****   * @param  I2Cx: where x can be 1 or 2 to select the I2C peripheral.
 800:lib/src/stm32f10x_i2c.c ****   * @param  NewState: new state of the I2Cx PEC value calculation.
 801:lib/src/stm32f10x_i2c.c ****   *   This parameter can be: ENABLE or DISABLE.
 802:lib/src/stm32f10x_i2c.c ****   * @retval None
 803:lib/src/stm32f10x_i2c.c ****   */
 804:lib/src/stm32f10x_i2c.c **** void I2C_CalculatePEC(I2C_TypeDef* I2Cx, FunctionalState NewState)
 805:lib/src/stm32f10x_i2c.c **** {
 929              		.loc 1 805 0
 930              		.cfi_startproc
 931              		@ args = 0, pretend = 0, frame = 0
 932              		@ frame_needed = 0, uses_anonymous_args = 0
 933              		@ link register save eliminated.
 934              	.LVL74:
 806:lib/src/stm32f10x_i2c.c ****   /* Check the parameters */
 807:lib/src/stm32f10x_i2c.c ****   assert_param(IS_I2C_ALL_PERIPH(I2Cx));
ARM GAS  /tmp/ccuwQjW2.s 			page 32


 808:lib/src/stm32f10x_i2c.c ****   assert_param(IS_FUNCTIONAL_STATE(NewState));
 809:lib/src/stm32f10x_i2c.c ****   if (NewState != DISABLE)
 935              		.loc 1 809 0
 936 030a 31B9     		cbnz	r1, .L87
 810:lib/src/stm32f10x_i2c.c ****   {
 811:lib/src/stm32f10x_i2c.c ****     /* Enable the selected I2C PEC calculation */
 812:lib/src/stm32f10x_i2c.c ****     I2Cx->CR1 |= CR1_ENPEC_Set;
 813:lib/src/stm32f10x_i2c.c ****   }
 814:lib/src/stm32f10x_i2c.c ****   else
 815:lib/src/stm32f10x_i2c.c ****   {
 816:lib/src/stm32f10x_i2c.c ****     /* Disable the selected I2C PEC calculation */
 817:lib/src/stm32f10x_i2c.c ****     I2Cx->CR1 &= CR1_ENPEC_Reset;
 937              		.loc 1 817 0
 938 030c 0388     		ldrh	r3, [r0]
 939 030e 23F02003 		bic	r3, r3, #32
 940 0312 1B04     		lsls	r3, r3, #16
 941 0314 1B0C     		lsrs	r3, r3, #16
 942 0316 0380     		strh	r3, [r0]	@ movhi
 943 0318 7047     		bx	lr
 944              	.L87:
 812:lib/src/stm32f10x_i2c.c ****   }
 945              		.loc 1 812 0
 946 031a 0388     		ldrh	r3, [r0]
 947 031c 9BB2     		uxth	r3, r3
 948 031e 43F02003 		orr	r3, r3, #32
 949 0322 0380     		strh	r3, [r0]	@ movhi
 950 0324 7047     		bx	lr
 951              		.cfi_endproc
 952              	.LFE86:
 953              		.size	I2C_CalculatePEC, .-I2C_CalculatePEC
 954              		.align	1
 955              		.global	I2C_GetPEC
 956              		.syntax unified
 957              		.thumb
 958              		.thumb_func
 959              		.fpu softvfp
 960              		.type	I2C_GetPEC, %function
 961              	I2C_GetPEC:
 962              	.LFB87:
 818:lib/src/stm32f10x_i2c.c ****   }
 819:lib/src/stm32f10x_i2c.c **** }
 820:lib/src/stm32f10x_i2c.c **** 
 821:lib/src/stm32f10x_i2c.c **** /**
 822:lib/src/stm32f10x_i2c.c ****   * @brief  Returns the PEC value for the specified I2C.
 823:lib/src/stm32f10x_i2c.c ****   * @param  I2Cx: where x can be 1 or 2 to select the I2C peripheral.
 824:lib/src/stm32f10x_i2c.c ****   * @retval The PEC value.
 825:lib/src/stm32f10x_i2c.c ****   */
 826:lib/src/stm32f10x_i2c.c **** uint8_t I2C_GetPEC(I2C_TypeDef* I2Cx)
 827:lib/src/stm32f10x_i2c.c **** {
 963              		.loc 1 827 0
 964              		.cfi_startproc
 965              		@ args = 0, pretend = 0, frame = 0
 966              		@ frame_needed = 0, uses_anonymous_args = 0
 967              		@ link register save eliminated.
 968              	.LVL75:
 828:lib/src/stm32f10x_i2c.c ****   /* Check the parameters */
 829:lib/src/stm32f10x_i2c.c ****   assert_param(IS_I2C_ALL_PERIPH(I2Cx));
ARM GAS  /tmp/ccuwQjW2.s 			page 33


 830:lib/src/stm32f10x_i2c.c ****   /* Return the selected I2C PEC value */
 831:lib/src/stm32f10x_i2c.c ****   return ((I2Cx->SR2) >> 8);
 969              		.loc 1 831 0
 970 0326 008B     		ldrh	r0, [r0, #24]
 971              	.LVL76:
 832:lib/src/stm32f10x_i2c.c **** }
 972              		.loc 1 832 0
 973 0328 C0F30720 		ubfx	r0, r0, #8, #8
 974 032c 7047     		bx	lr
 975              		.cfi_endproc
 976              	.LFE87:
 977              		.size	I2C_GetPEC, .-I2C_GetPEC
 978              		.align	1
 979              		.global	I2C_ARPCmd
 980              		.syntax unified
 981              		.thumb
 982              		.thumb_func
 983              		.fpu softvfp
 984              		.type	I2C_ARPCmd, %function
 985              	I2C_ARPCmd:
 986              	.LFB88:
 833:lib/src/stm32f10x_i2c.c **** 
 834:lib/src/stm32f10x_i2c.c **** /**
 835:lib/src/stm32f10x_i2c.c ****   * @brief  Enables or disables the specified I2C ARP.
 836:lib/src/stm32f10x_i2c.c ****   * @param  I2Cx: where x can be 1 or 2 to select the I2C peripheral.
 837:lib/src/stm32f10x_i2c.c ****   * @param  NewState: new state of the I2Cx ARP. 
 838:lib/src/stm32f10x_i2c.c ****   *   This parameter can be: ENABLE or DISABLE.
 839:lib/src/stm32f10x_i2c.c ****   * @retval None
 840:lib/src/stm32f10x_i2c.c ****   */
 841:lib/src/stm32f10x_i2c.c **** void I2C_ARPCmd(I2C_TypeDef* I2Cx, FunctionalState NewState)
 842:lib/src/stm32f10x_i2c.c **** {
 987              		.loc 1 842 0
 988              		.cfi_startproc
 989              		@ args = 0, pretend = 0, frame = 0
 990              		@ frame_needed = 0, uses_anonymous_args = 0
 991              		@ link register save eliminated.
 992              	.LVL77:
 843:lib/src/stm32f10x_i2c.c ****   /* Check the parameters */
 844:lib/src/stm32f10x_i2c.c ****   assert_param(IS_I2C_ALL_PERIPH(I2Cx));
 845:lib/src/stm32f10x_i2c.c ****   assert_param(IS_FUNCTIONAL_STATE(NewState));
 846:lib/src/stm32f10x_i2c.c ****   if (NewState != DISABLE)
 993              		.loc 1 846 0
 994 032e 31B9     		cbnz	r1, .L92
 847:lib/src/stm32f10x_i2c.c ****   {
 848:lib/src/stm32f10x_i2c.c ****     /* Enable the selected I2C ARP */
 849:lib/src/stm32f10x_i2c.c ****     I2Cx->CR1 |= CR1_ENARP_Set;
 850:lib/src/stm32f10x_i2c.c ****   }
 851:lib/src/stm32f10x_i2c.c ****   else
 852:lib/src/stm32f10x_i2c.c ****   {
 853:lib/src/stm32f10x_i2c.c ****     /* Disable the selected I2C ARP */
 854:lib/src/stm32f10x_i2c.c ****     I2Cx->CR1 &= CR1_ENARP_Reset;
 995              		.loc 1 854 0
 996 0330 0388     		ldrh	r3, [r0]
 997 0332 23F01003 		bic	r3, r3, #16
 998 0336 1B04     		lsls	r3, r3, #16
 999 0338 1B0C     		lsrs	r3, r3, #16
 1000 033a 0380     		strh	r3, [r0]	@ movhi
ARM GAS  /tmp/ccuwQjW2.s 			page 34


 1001 033c 7047     		bx	lr
 1002              	.L92:
 849:lib/src/stm32f10x_i2c.c ****   }
 1003              		.loc 1 849 0
 1004 033e 0388     		ldrh	r3, [r0]
 1005 0340 9BB2     		uxth	r3, r3
 1006 0342 43F01003 		orr	r3, r3, #16
 1007 0346 0380     		strh	r3, [r0]	@ movhi
 1008 0348 7047     		bx	lr
 1009              		.cfi_endproc
 1010              	.LFE88:
 1011              		.size	I2C_ARPCmd, .-I2C_ARPCmd
 1012              		.align	1
 1013              		.global	I2C_StretchClockCmd
 1014              		.syntax unified
 1015              		.thumb
 1016              		.thumb_func
 1017              		.fpu softvfp
 1018              		.type	I2C_StretchClockCmd, %function
 1019              	I2C_StretchClockCmd:
 1020              	.LFB89:
 855:lib/src/stm32f10x_i2c.c ****   }
 856:lib/src/stm32f10x_i2c.c **** }
 857:lib/src/stm32f10x_i2c.c **** 
 858:lib/src/stm32f10x_i2c.c **** /**
 859:lib/src/stm32f10x_i2c.c ****   * @brief  Enables or disables the specified I2C Clock stretching.
 860:lib/src/stm32f10x_i2c.c ****   * @param  I2Cx: where x can be 1 or 2 to select the I2C peripheral.
 861:lib/src/stm32f10x_i2c.c ****   * @param  NewState: new state of the I2Cx Clock stretching.
 862:lib/src/stm32f10x_i2c.c ****   *   This parameter can be: ENABLE or DISABLE.
 863:lib/src/stm32f10x_i2c.c ****   * @retval None
 864:lib/src/stm32f10x_i2c.c ****   */
 865:lib/src/stm32f10x_i2c.c **** void I2C_StretchClockCmd(I2C_TypeDef* I2Cx, FunctionalState NewState)
 866:lib/src/stm32f10x_i2c.c **** {
 1021              		.loc 1 866 0
 1022              		.cfi_startproc
 1023              		@ args = 0, pretend = 0, frame = 0
 1024              		@ frame_needed = 0, uses_anonymous_args = 0
 1025              		@ link register save eliminated.
 1026              	.LVL78:
 867:lib/src/stm32f10x_i2c.c ****   /* Check the parameters */
 868:lib/src/stm32f10x_i2c.c ****   assert_param(IS_I2C_ALL_PERIPH(I2Cx));
 869:lib/src/stm32f10x_i2c.c ****   assert_param(IS_FUNCTIONAL_STATE(NewState));
 870:lib/src/stm32f10x_i2c.c ****   if (NewState == DISABLE)
 1027              		.loc 1 870 0
 1028 034a 31B1     		cbz	r1, .L96
 871:lib/src/stm32f10x_i2c.c ****   {
 872:lib/src/stm32f10x_i2c.c ****     /* Enable the selected I2C Clock stretching */
 873:lib/src/stm32f10x_i2c.c ****     I2Cx->CR1 |= CR1_NOSTRETCH_Set;
 874:lib/src/stm32f10x_i2c.c ****   }
 875:lib/src/stm32f10x_i2c.c ****   else
 876:lib/src/stm32f10x_i2c.c ****   {
 877:lib/src/stm32f10x_i2c.c ****     /* Disable the selected I2C Clock stretching */
 878:lib/src/stm32f10x_i2c.c ****     I2Cx->CR1 &= CR1_NOSTRETCH_Reset;
 1029              		.loc 1 878 0
 1030 034c 0388     		ldrh	r3, [r0]
 1031 034e 23F08003 		bic	r3, r3, #128
 1032 0352 1B04     		lsls	r3, r3, #16
ARM GAS  /tmp/ccuwQjW2.s 			page 35


 1033 0354 1B0C     		lsrs	r3, r3, #16
 1034 0356 0380     		strh	r3, [r0]	@ movhi
 1035 0358 7047     		bx	lr
 1036              	.L96:
 873:lib/src/stm32f10x_i2c.c ****   }
 1037              		.loc 1 873 0
 1038 035a 0388     		ldrh	r3, [r0]
 1039 035c 9BB2     		uxth	r3, r3
 1040 035e 43F08003 		orr	r3, r3, #128
 1041 0362 0380     		strh	r3, [r0]	@ movhi
 1042 0364 7047     		bx	lr
 1043              		.cfi_endproc
 1044              	.LFE89:
 1045              		.size	I2C_StretchClockCmd, .-I2C_StretchClockCmd
 1046              		.align	1
 1047              		.global	I2C_FastModeDutyCycleConfig
 1048              		.syntax unified
 1049              		.thumb
 1050              		.thumb_func
 1051              		.fpu softvfp
 1052              		.type	I2C_FastModeDutyCycleConfig, %function
 1053              	I2C_FastModeDutyCycleConfig:
 1054              	.LFB90:
 879:lib/src/stm32f10x_i2c.c ****   }
 880:lib/src/stm32f10x_i2c.c **** }
 881:lib/src/stm32f10x_i2c.c **** 
 882:lib/src/stm32f10x_i2c.c **** /**
 883:lib/src/stm32f10x_i2c.c ****   * @brief  Selects the specified I2C fast mode duty cycle.
 884:lib/src/stm32f10x_i2c.c ****   * @param  I2Cx: where x can be 1 or 2 to select the I2C peripheral.
 885:lib/src/stm32f10x_i2c.c ****   * @param  I2C_DutyCycle: specifies the fast mode duty cycle.
 886:lib/src/stm32f10x_i2c.c ****   *   This parameter can be one of the following values:
 887:lib/src/stm32f10x_i2c.c ****   *     @arg I2C_DutyCycle_2: I2C fast mode Tlow/Thigh = 2
 888:lib/src/stm32f10x_i2c.c ****   *     @arg I2C_DutyCycle_16_9: I2C fast mode Tlow/Thigh = 16/9
 889:lib/src/stm32f10x_i2c.c ****   * @retval None
 890:lib/src/stm32f10x_i2c.c ****   */
 891:lib/src/stm32f10x_i2c.c **** void I2C_FastModeDutyCycleConfig(I2C_TypeDef* I2Cx, uint16_t I2C_DutyCycle)
 892:lib/src/stm32f10x_i2c.c **** {
 1055              		.loc 1 892 0
 1056              		.cfi_startproc
 1057              		@ args = 0, pretend = 0, frame = 0
 1058              		@ frame_needed = 0, uses_anonymous_args = 0
 1059              		@ link register save eliminated.
 1060              	.LVL79:
 893:lib/src/stm32f10x_i2c.c ****   /* Check the parameters */
 894:lib/src/stm32f10x_i2c.c ****   assert_param(IS_I2C_ALL_PERIPH(I2Cx));
 895:lib/src/stm32f10x_i2c.c ****   assert_param(IS_I2C_DUTY_CYCLE(I2C_DutyCycle));
 896:lib/src/stm32f10x_i2c.c ****   if (I2C_DutyCycle != I2C_DutyCycle_16_9)
 1061              		.loc 1 896 0
 1062 0366 B1F5804F 		cmp	r1, #16384
 1063 036a 06D0     		beq	.L98
 897:lib/src/stm32f10x_i2c.c ****   {
 898:lib/src/stm32f10x_i2c.c ****     /* I2C fast mode Tlow/Thigh=2 */
 899:lib/src/stm32f10x_i2c.c ****     I2Cx->CCR &= I2C_DutyCycle_2;
 1064              		.loc 1 899 0
 1065 036c 838B     		ldrh	r3, [r0, #28]
 1066 036e 23F48043 		bic	r3, r3, #16384
 1067 0372 1B04     		lsls	r3, r3, #16
ARM GAS  /tmp/ccuwQjW2.s 			page 36


 1068 0374 1B0C     		lsrs	r3, r3, #16
 1069 0376 8383     		strh	r3, [r0, #28]	@ movhi
 1070 0378 7047     		bx	lr
 1071              	.L98:
 900:lib/src/stm32f10x_i2c.c ****   }
 901:lib/src/stm32f10x_i2c.c ****   else
 902:lib/src/stm32f10x_i2c.c ****   {
 903:lib/src/stm32f10x_i2c.c ****     /* I2C fast mode Tlow/Thigh=16/9 */
 904:lib/src/stm32f10x_i2c.c ****     I2Cx->CCR |= I2C_DutyCycle_16_9;
 1072              		.loc 1 904 0
 1073 037a 838B     		ldrh	r3, [r0, #28]
 1074 037c 9BB2     		uxth	r3, r3
 1075 037e 43F48043 		orr	r3, r3, #16384
 1076 0382 8383     		strh	r3, [r0, #28]	@ movhi
 1077 0384 7047     		bx	lr
 1078              		.cfi_endproc
 1079              	.LFE90:
 1080              		.size	I2C_FastModeDutyCycleConfig, .-I2C_FastModeDutyCycleConfig
 1081              		.align	1
 1082              		.global	I2C_CheckEvent
 1083              		.syntax unified
 1084              		.thumb
 1085              		.thumb_func
 1086              		.fpu softvfp
 1087              		.type	I2C_CheckEvent, %function
 1088              	I2C_CheckEvent:
 1089              	.LFB91:
 905:lib/src/stm32f10x_i2c.c ****   }
 906:lib/src/stm32f10x_i2c.c **** }
 907:lib/src/stm32f10x_i2c.c **** 
 908:lib/src/stm32f10x_i2c.c **** 
 909:lib/src/stm32f10x_i2c.c **** 
 910:lib/src/stm32f10x_i2c.c **** /**
 911:lib/src/stm32f10x_i2c.c ****  * @brief
 912:lib/src/stm32f10x_i2c.c ****  ****************************************************************************************
 913:lib/src/stm32f10x_i2c.c ****  *
 914:lib/src/stm32f10x_i2c.c ****  *                         I2C State Monitoring Functions
 915:lib/src/stm32f10x_i2c.c ****  *                       
 916:lib/src/stm32f10x_i2c.c ****  ****************************************************************************************   
 917:lib/src/stm32f10x_i2c.c ****  * This I2C driver provides three different ways for I2C state monitoring
 918:lib/src/stm32f10x_i2c.c ****  *  depending on the application requirements and constraints:
 919:lib/src/stm32f10x_i2c.c ****  *        
 920:lib/src/stm32f10x_i2c.c ****  *  
 921:lib/src/stm32f10x_i2c.c ****  * 1) Basic state monitoring:
 922:lib/src/stm32f10x_i2c.c ****  *    Using I2C_CheckEvent() function:
 923:lib/src/stm32f10x_i2c.c ****  *    It compares the status registers (SR1 and SR2) content to a given event
 924:lib/src/stm32f10x_i2c.c ****  *    (can be the combination of one or more flags).
 925:lib/src/stm32f10x_i2c.c ****  *    It returns SUCCESS if the current status includes the given flags 
 926:lib/src/stm32f10x_i2c.c ****  *    and returns ERROR if one or more flags are missing in the current status.
 927:lib/src/stm32f10x_i2c.c ****  *    - When to use:
 928:lib/src/stm32f10x_i2c.c ****  *      - This function is suitable for most applications as well as for startup 
 929:lib/src/stm32f10x_i2c.c ****  *      activity since the events are fully described in the product reference manual 
 930:lib/src/stm32f10x_i2c.c ****  *      (RM0008).
 931:lib/src/stm32f10x_i2c.c ****  *      - It is also suitable for users who need to define their own events.
 932:lib/src/stm32f10x_i2c.c ****  *    - Limitations:
 933:lib/src/stm32f10x_i2c.c ****  *      - If an error occurs (ie. error flags are set besides to the monitored flags),
 934:lib/src/stm32f10x_i2c.c ****  *        the I2C_CheckEvent() function may return SUCCESS despite the communication
ARM GAS  /tmp/ccuwQjW2.s 			page 37


 935:lib/src/stm32f10x_i2c.c ****  *        hold or corrupted real state. 
 936:lib/src/stm32f10x_i2c.c ****  *        In this case, it is advised to use error interrupts to monitor the error
 937:lib/src/stm32f10x_i2c.c ****  *        events and handle them in the interrupt IRQ handler.
 938:lib/src/stm32f10x_i2c.c ****  *        
 939:lib/src/stm32f10x_i2c.c ****  *        @note 
 940:lib/src/stm32f10x_i2c.c ****  *        For error management, it is advised to use the following functions:
 941:lib/src/stm32f10x_i2c.c ****  *          - I2C_ITConfig() to configure and enable the error interrupts (I2C_IT_ERR).
 942:lib/src/stm32f10x_i2c.c ****  *          - I2Cx_ER_IRQHandler() which is called when the error interrupt occurs.
 943:lib/src/stm32f10x_i2c.c ****  *            Where x is the peripheral instance (I2C1, I2C2 ...)
 944:lib/src/stm32f10x_i2c.c ****  *          - I2C_GetFlagStatus() or I2C_GetITStatus() to be called into I2Cx_ER_IRQHandler() 
 945:lib/src/stm32f10x_i2c.c ****  *            in order to determine which error occured.
 946:lib/src/stm32f10x_i2c.c ****  *          - I2C_ClearFlag() or I2C_ClearITPendingBit() and/or I2C_SoftwareResetCmd()
 947:lib/src/stm32f10x_i2c.c ****  *            and/or I2C_GenerateStop() in order to clear the error flag and source,
 948:lib/src/stm32f10x_i2c.c ****  *            and return to correct communication status.
 949:lib/src/stm32f10x_i2c.c ****  *            
 950:lib/src/stm32f10x_i2c.c ****  *
 951:lib/src/stm32f10x_i2c.c ****  *  2) Advanced state monitoring:
 952:lib/src/stm32f10x_i2c.c ****  *     Using the function I2C_GetLastEvent() which returns the image of both status 
 953:lib/src/stm32f10x_i2c.c ****  *     registers in a single word (uint32_t) (Status Register 2 value is shifted left 
 954:lib/src/stm32f10x_i2c.c ****  *     by 16 bits and concatenated to Status Register 1).
 955:lib/src/stm32f10x_i2c.c ****  *     - When to use:
 956:lib/src/stm32f10x_i2c.c ****  *       - This function is suitable for the same applications above but it allows to
 957:lib/src/stm32f10x_i2c.c ****  *         overcome the mentioned limitation of I2C_GetFlagStatus() function.
 958:lib/src/stm32f10x_i2c.c ****  *         The returned value could be compared to events already defined in the 
 959:lib/src/stm32f10x_i2c.c ****  *         library (stm32f10x_i2c.h) or to custom values defined by user.
 960:lib/src/stm32f10x_i2c.c ****  *       - This function is suitable when multiple flags are monitored at the same time.
 961:lib/src/stm32f10x_i2c.c ****  *       - At the opposite of I2C_CheckEvent() function, this function allows user to
 962:lib/src/stm32f10x_i2c.c ****  *         choose when an event is accepted (when all events flags are set and no 
 963:lib/src/stm32f10x_i2c.c ****  *         other flags are set or just when the needed flags are set like 
 964:lib/src/stm32f10x_i2c.c ****  *         I2C_CheckEvent() function).
 965:lib/src/stm32f10x_i2c.c ****  *     - Limitations:
 966:lib/src/stm32f10x_i2c.c ****  *       - User may need to define his own events.
 967:lib/src/stm32f10x_i2c.c ****  *       - Same remark concerning the error management is applicable for this 
 968:lib/src/stm32f10x_i2c.c ****  *         function if user decides to check only regular communication flags (and 
 969:lib/src/stm32f10x_i2c.c ****  *         ignores error flags).
 970:lib/src/stm32f10x_i2c.c ****  *     
 971:lib/src/stm32f10x_i2c.c ****  *
 972:lib/src/stm32f10x_i2c.c ****  *  3) Flag-based state monitoring:
 973:lib/src/stm32f10x_i2c.c ****  *     Using the function I2C_GetFlagStatus() which simply returns the status of 
 974:lib/src/stm32f10x_i2c.c ****  *     one single flag (ie. I2C_FLAG_RXNE ...). 
 975:lib/src/stm32f10x_i2c.c ****  *     - When to use:
 976:lib/src/stm32f10x_i2c.c ****  *        - This function could be used for specific applications or in debug phase.
 977:lib/src/stm32f10x_i2c.c ****  *        - It is suitable when only one flag checking is needed (most I2C events 
 978:lib/src/stm32f10x_i2c.c ****  *          are monitored through multiple flags).
 979:lib/src/stm32f10x_i2c.c ****  *     - Limitations: 
 980:lib/src/stm32f10x_i2c.c ****  *        - When calling this function, the Status register is accessed. Some flags are
 981:lib/src/stm32f10x_i2c.c ****  *          cleared when the status register is accessed. So checking the status
 982:lib/src/stm32f10x_i2c.c ****  *          of one Flag, may clear other ones.
 983:lib/src/stm32f10x_i2c.c ****  *        - Function may need to be called twice or more in order to monitor one 
 984:lib/src/stm32f10x_i2c.c ****  *          single event.
 985:lib/src/stm32f10x_i2c.c ****  *
 986:lib/src/stm32f10x_i2c.c ****  *  For detailed description of Events, please refer to section I2C_Events in 
 987:lib/src/stm32f10x_i2c.c ****  *  stm32f10x_i2c.h file.
 988:lib/src/stm32f10x_i2c.c ****  *  
 989:lib/src/stm32f10x_i2c.c ****  */
 990:lib/src/stm32f10x_i2c.c **** 
 991:lib/src/stm32f10x_i2c.c **** /**
ARM GAS  /tmp/ccuwQjW2.s 			page 38


 992:lib/src/stm32f10x_i2c.c ****  * 
 993:lib/src/stm32f10x_i2c.c ****  *  1) Basic state monitoring
 994:lib/src/stm32f10x_i2c.c ****  *******************************************************************************
 995:lib/src/stm32f10x_i2c.c ****  */
 996:lib/src/stm32f10x_i2c.c **** 
 997:lib/src/stm32f10x_i2c.c **** /**
 998:lib/src/stm32f10x_i2c.c ****   * @brief  Checks whether the last I2Cx Event is equal to the one passed
 999:lib/src/stm32f10x_i2c.c ****   *   as parameter.
1000:lib/src/stm32f10x_i2c.c ****   * @param  I2Cx: where x can be 1 or 2 to select the I2C peripheral.
1001:lib/src/stm32f10x_i2c.c ****   * @param  I2C_EVENT: specifies the event to be checked. 
1002:lib/src/stm32f10x_i2c.c ****   *   This parameter can be one of the following values:
1003:lib/src/stm32f10x_i2c.c ****   *     @arg I2C_EVENT_SLAVE_TRANSMITTER_ADDRESS_MATCHED           : EV1
1004:lib/src/stm32f10x_i2c.c ****   *     @arg I2C_EVENT_SLAVE_RECEIVER_ADDRESS_MATCHED              : EV1
1005:lib/src/stm32f10x_i2c.c ****   *     @arg I2C_EVENT_SLAVE_TRANSMITTER_SECONDADDRESS_MATCHED     : EV1
1006:lib/src/stm32f10x_i2c.c ****   *     @arg I2C_EVENT_SLAVE_RECEIVER_SECONDADDRESS_MATCHED        : EV1
1007:lib/src/stm32f10x_i2c.c ****   *     @arg I2C_EVENT_SLAVE_GENERALCALLADDRESS_MATCHED            : EV1
1008:lib/src/stm32f10x_i2c.c ****   *     @arg I2C_EVENT_SLAVE_BYTE_RECEIVED                         : EV2
1009:lib/src/stm32f10x_i2c.c ****   *     @arg (I2C_EVENT_SLAVE_BYTE_RECEIVED | I2C_FLAG_DUALF)      : EV2
1010:lib/src/stm32f10x_i2c.c ****   *     @arg (I2C_EVENT_SLAVE_BYTE_RECEIVED | I2C_FLAG_GENCALL)    : EV2
1011:lib/src/stm32f10x_i2c.c ****   *     @arg I2C_EVENT_SLAVE_BYTE_TRANSMITTED                      : EV3
1012:lib/src/stm32f10x_i2c.c ****   *     @arg (I2C_EVENT_SLAVE_BYTE_TRANSMITTED | I2C_FLAG_DUALF)   : EV3
1013:lib/src/stm32f10x_i2c.c ****   *     @arg (I2C_EVENT_SLAVE_BYTE_TRANSMITTED | I2C_FLAG_GENCALL) : EV3
1014:lib/src/stm32f10x_i2c.c ****   *     @arg I2C_EVENT_SLAVE_ACK_FAILURE                           : EV3_2
1015:lib/src/stm32f10x_i2c.c ****   *     @arg I2C_EVENT_SLAVE_STOP_DETECTED                         : EV4
1016:lib/src/stm32f10x_i2c.c ****   *     @arg I2C_EVENT_MASTER_MODE_SELECT                          : EV5
1017:lib/src/stm32f10x_i2c.c ****   *     @arg I2C_EVENT_MASTER_TRANSMITTER_MODE_SELECTED            : EV6     
1018:lib/src/stm32f10x_i2c.c ****   *     @arg I2C_EVENT_MASTER_RECEIVER_MODE_SELECTED               : EV6
1019:lib/src/stm32f10x_i2c.c ****   *     @arg I2C_EVENT_MASTER_BYTE_RECEIVED                        : EV7
1020:lib/src/stm32f10x_i2c.c ****   *     @arg I2C_EVENT_MASTER_BYTE_TRANSMITTING                    : EV8
1021:lib/src/stm32f10x_i2c.c ****   *     @arg I2C_EVENT_MASTER_BYTE_TRANSMITTED                     : EV8_2
1022:lib/src/stm32f10x_i2c.c ****   *     @arg I2C_EVENT_MASTER_MODE_ADDRESS10                       : EV9
1023:lib/src/stm32f10x_i2c.c ****   *     
1024:lib/src/stm32f10x_i2c.c ****   * @note: For detailed description of Events, please refer to section 
1025:lib/src/stm32f10x_i2c.c ****   *    I2C_Events in stm32f10x_i2c.h file.
1026:lib/src/stm32f10x_i2c.c ****   *    
1027:lib/src/stm32f10x_i2c.c ****   * @retval An ErrorStatus enumeration value:
1028:lib/src/stm32f10x_i2c.c ****   * - SUCCESS: Last event is equal to the I2C_EVENT
1029:lib/src/stm32f10x_i2c.c ****   * - ERROR: Last event is different from the I2C_EVENT
1030:lib/src/stm32f10x_i2c.c ****   */
1031:lib/src/stm32f10x_i2c.c **** ErrorStatus I2C_CheckEvent(I2C_TypeDef* I2Cx, uint32_t I2C_EVENT)
1032:lib/src/stm32f10x_i2c.c **** {
 1090              		.loc 1 1032 0
 1091              		.cfi_startproc
 1092              		@ args = 0, pretend = 0, frame = 0
 1093              		@ frame_needed = 0, uses_anonymous_args = 0
 1094              		@ link register save eliminated.
 1095              	.LVL80:
1033:lib/src/stm32f10x_i2c.c ****   uint32_t lastevent = 0;
1034:lib/src/stm32f10x_i2c.c ****   uint32_t flag1 = 0, flag2 = 0;
1035:lib/src/stm32f10x_i2c.c ****   ErrorStatus status = ERROR;
1036:lib/src/stm32f10x_i2c.c **** 
1037:lib/src/stm32f10x_i2c.c ****   /* Check the parameters */
1038:lib/src/stm32f10x_i2c.c ****   assert_param(IS_I2C_ALL_PERIPH(I2Cx));
1039:lib/src/stm32f10x_i2c.c ****   assert_param(IS_I2C_EVENT(I2C_EVENT));
1040:lib/src/stm32f10x_i2c.c **** 
1041:lib/src/stm32f10x_i2c.c ****   /* Read the I2Cx status register */
1042:lib/src/stm32f10x_i2c.c ****   flag1 = I2Cx->SR1;
ARM GAS  /tmp/ccuwQjW2.s 			page 39


 1096              		.loc 1 1042 0
 1097 0386 838A     		ldrh	r3, [r0, #20]
 1098 0388 9BB2     		uxth	r3, r3
 1099              	.LVL81:
1043:lib/src/stm32f10x_i2c.c ****   flag2 = I2Cx->SR2;
 1100              		.loc 1 1043 0
 1101 038a 008B     		ldrh	r0, [r0, #24]
 1102              	.LVL82:
1044:lib/src/stm32f10x_i2c.c ****   flag2 = flag2 << 16;
1045:lib/src/stm32f10x_i2c.c **** 
1046:lib/src/stm32f10x_i2c.c ****   /* Get the last event value from I2C status register */
1047:lib/src/stm32f10x_i2c.c ****   lastevent = (flag1 | flag2) & FLAG_Mask;
 1103              		.loc 1 1047 0
 1104 038c 43EA0043 		orr	r3, r3, r0, lsl #16
 1105              	.LVL83:
1048:lib/src/stm32f10x_i2c.c **** 
1049:lib/src/stm32f10x_i2c.c ****   /* Check whether the last event contains the I2C_EVENT */
1050:lib/src/stm32f10x_i2c.c ****   if ((lastevent & I2C_EVENT) == I2C_EVENT)
 1106              		.loc 1 1050 0
 1107 0390 21F07F40 		bic	r0, r1, #-16777216
 1108              	.LVL84:
 1109 0394 1840     		ands	r0, r0, r3
1051:lib/src/stm32f10x_i2c.c ****   {
1052:lib/src/stm32f10x_i2c.c ****     /* SUCCESS: last event is equal to I2C_EVENT */
1053:lib/src/stm32f10x_i2c.c ****     status = SUCCESS;
1054:lib/src/stm32f10x_i2c.c ****   }
1055:lib/src/stm32f10x_i2c.c ****   else
1056:lib/src/stm32f10x_i2c.c ****   {
1057:lib/src/stm32f10x_i2c.c ****     /* ERROR: last event is different from I2C_EVENT */
1058:lib/src/stm32f10x_i2c.c ****     status = ERROR;
1059:lib/src/stm32f10x_i2c.c ****   }
1060:lib/src/stm32f10x_i2c.c ****   /* Return status */
1061:lib/src/stm32f10x_i2c.c ****   return status;
1062:lib/src/stm32f10x_i2c.c **** }
 1110              		.loc 1 1062 0
 1111 0396 8842     		cmp	r0, r1
 1112 0398 14BF     		ite	ne
 1113 039a 0020     		movne	r0, #0
 1114 039c 0120     		moveq	r0, #1
 1115 039e 7047     		bx	lr
 1116              		.cfi_endproc
 1117              	.LFE91:
 1118              		.size	I2C_CheckEvent, .-I2C_CheckEvent
 1119              		.align	1
 1120              		.global	I2C_GetLastEvent
 1121              		.syntax unified
 1122              		.thumb
 1123              		.thumb_func
 1124              		.fpu softvfp
 1125              		.type	I2C_GetLastEvent, %function
 1126              	I2C_GetLastEvent:
 1127              	.LFB92:
1063:lib/src/stm32f10x_i2c.c **** 
1064:lib/src/stm32f10x_i2c.c **** /**
1065:lib/src/stm32f10x_i2c.c ****  * 
1066:lib/src/stm32f10x_i2c.c ****  *  2) Advanced state monitoring
1067:lib/src/stm32f10x_i2c.c ****  *******************************************************************************
ARM GAS  /tmp/ccuwQjW2.s 			page 40


1068:lib/src/stm32f10x_i2c.c ****  */
1069:lib/src/stm32f10x_i2c.c **** 
1070:lib/src/stm32f10x_i2c.c **** /**
1071:lib/src/stm32f10x_i2c.c ****   * @brief  Returns the last I2Cx Event.
1072:lib/src/stm32f10x_i2c.c ****   * @param  I2Cx: where x can be 1 or 2 to select the I2C peripheral.
1073:lib/src/stm32f10x_i2c.c ****   *     
1074:lib/src/stm32f10x_i2c.c ****   * @note: For detailed description of Events, please refer to section 
1075:lib/src/stm32f10x_i2c.c ****   *    I2C_Events in stm32f10x_i2c.h file.
1076:lib/src/stm32f10x_i2c.c ****   *    
1077:lib/src/stm32f10x_i2c.c ****   * @retval The last event
1078:lib/src/stm32f10x_i2c.c ****   */
1079:lib/src/stm32f10x_i2c.c **** uint32_t I2C_GetLastEvent(I2C_TypeDef* I2Cx)
1080:lib/src/stm32f10x_i2c.c **** {
 1128              		.loc 1 1080 0
 1129              		.cfi_startproc
 1130              		@ args = 0, pretend = 0, frame = 0
 1131              		@ frame_needed = 0, uses_anonymous_args = 0
 1132              		@ link register save eliminated.
 1133              	.LVL85:
1081:lib/src/stm32f10x_i2c.c ****   uint32_t lastevent = 0;
1082:lib/src/stm32f10x_i2c.c ****   uint32_t flag1 = 0, flag2 = 0;
1083:lib/src/stm32f10x_i2c.c **** 
1084:lib/src/stm32f10x_i2c.c ****   /* Check the parameters */
1085:lib/src/stm32f10x_i2c.c ****   assert_param(IS_I2C_ALL_PERIPH(I2Cx));
1086:lib/src/stm32f10x_i2c.c **** 
1087:lib/src/stm32f10x_i2c.c ****   /* Read the I2Cx status register */
1088:lib/src/stm32f10x_i2c.c ****   flag1 = I2Cx->SR1;
 1134              		.loc 1 1088 0
 1135 03a0 838A     		ldrh	r3, [r0, #20]
 1136 03a2 9BB2     		uxth	r3, r3
 1137              	.LVL86:
1089:lib/src/stm32f10x_i2c.c ****   flag2 = I2Cx->SR2;
 1138              		.loc 1 1089 0
 1139 03a4 008B     		ldrh	r0, [r0, #24]
 1140              	.LVL87:
1090:lib/src/stm32f10x_i2c.c ****   flag2 = flag2 << 16;
1091:lib/src/stm32f10x_i2c.c **** 
1092:lib/src/stm32f10x_i2c.c ****   /* Get the last event value from I2C status register */
1093:lib/src/stm32f10x_i2c.c ****   lastevent = (flag1 | flag2) & FLAG_Mask;
 1141              		.loc 1 1093 0
 1142 03a6 43EA0040 		orr	r0, r3, r0, lsl #16
 1143              	.LVL88:
1094:lib/src/stm32f10x_i2c.c **** 
1095:lib/src/stm32f10x_i2c.c ****   /* Return status */
1096:lib/src/stm32f10x_i2c.c ****   return lastevent;
1097:lib/src/stm32f10x_i2c.c **** }
 1144              		.loc 1 1097 0
 1145 03aa 20F07F40 		bic	r0, r0, #-16777216
 1146 03ae 7047     		bx	lr
 1147              		.cfi_endproc
 1148              	.LFE92:
 1149              		.size	I2C_GetLastEvent, .-I2C_GetLastEvent
 1150              		.align	1
 1151              		.global	I2C_GetFlagStatus
 1152              		.syntax unified
 1153              		.thumb
 1154              		.thumb_func
ARM GAS  /tmp/ccuwQjW2.s 			page 41


 1155              		.fpu softvfp
 1156              		.type	I2C_GetFlagStatus, %function
 1157              	I2C_GetFlagStatus:
 1158              	.LFB93:
1098:lib/src/stm32f10x_i2c.c **** 
1099:lib/src/stm32f10x_i2c.c **** /**
1100:lib/src/stm32f10x_i2c.c ****  * 
1101:lib/src/stm32f10x_i2c.c ****  *  3) Flag-based state monitoring
1102:lib/src/stm32f10x_i2c.c ****  *******************************************************************************
1103:lib/src/stm32f10x_i2c.c ****  */
1104:lib/src/stm32f10x_i2c.c **** 
1105:lib/src/stm32f10x_i2c.c **** /**
1106:lib/src/stm32f10x_i2c.c ****   * @brief  Checks whether the specified I2C flag is set or not.
1107:lib/src/stm32f10x_i2c.c ****   * @param  I2Cx: where x can be 1 or 2 to select the I2C peripheral.
1108:lib/src/stm32f10x_i2c.c ****   * @param  I2C_FLAG: specifies the flag to check. 
1109:lib/src/stm32f10x_i2c.c ****   *   This parameter can be one of the following values:
1110:lib/src/stm32f10x_i2c.c ****   *     @arg I2C_FLAG_DUALF: Dual flag (Slave mode)
1111:lib/src/stm32f10x_i2c.c ****   *     @arg I2C_FLAG_SMBHOST: SMBus host header (Slave mode)
1112:lib/src/stm32f10x_i2c.c ****   *     @arg I2C_FLAG_SMBDEFAULT: SMBus default header (Slave mode)
1113:lib/src/stm32f10x_i2c.c ****   *     @arg I2C_FLAG_GENCALL: General call header flag (Slave mode)
1114:lib/src/stm32f10x_i2c.c ****   *     @arg I2C_FLAG_TRA: Transmitter/Receiver flag
1115:lib/src/stm32f10x_i2c.c ****   *     @arg I2C_FLAG_BUSY: Bus busy flag
1116:lib/src/stm32f10x_i2c.c ****   *     @arg I2C_FLAG_MSL: Master/Slave flag
1117:lib/src/stm32f10x_i2c.c ****   *     @arg I2C_FLAG_SMBALERT: SMBus Alert flag
1118:lib/src/stm32f10x_i2c.c ****   *     @arg I2C_FLAG_TIMEOUT: Timeout or Tlow error flag
1119:lib/src/stm32f10x_i2c.c ****   *     @arg I2C_FLAG_PECERR: PEC error in reception flag
1120:lib/src/stm32f10x_i2c.c ****   *     @arg I2C_FLAG_OVR: Overrun/Underrun flag (Slave mode)
1121:lib/src/stm32f10x_i2c.c ****   *     @arg I2C_FLAG_AF: Acknowledge failure flag
1122:lib/src/stm32f10x_i2c.c ****   *     @arg I2C_FLAG_ARLO: Arbitration lost flag (Master mode)
1123:lib/src/stm32f10x_i2c.c ****   *     @arg I2C_FLAG_BERR: Bus error flag
1124:lib/src/stm32f10x_i2c.c ****   *     @arg I2C_FLAG_TXE: Data register empty flag (Transmitter)
1125:lib/src/stm32f10x_i2c.c ****   *     @arg I2C_FLAG_RXNE: Data register not empty (Receiver) flag
1126:lib/src/stm32f10x_i2c.c ****   *     @arg I2C_FLAG_STOPF: Stop detection flag (Slave mode)
1127:lib/src/stm32f10x_i2c.c ****   *     @arg I2C_FLAG_ADD10: 10-bit header sent flag (Master mode)
1128:lib/src/stm32f10x_i2c.c ****   *     @arg I2C_FLAG_BTF: Byte transfer finished flag
1129:lib/src/stm32f10x_i2c.c ****   *     @arg I2C_FLAG_ADDR: Address sent flag (Master mode) "ADSL"
1130:lib/src/stm32f10x_i2c.c ****   *   Address matched flag (Slave mode)"ENDA"
1131:lib/src/stm32f10x_i2c.c ****   *     @arg I2C_FLAG_SB: Start bit flag (Master mode)
1132:lib/src/stm32f10x_i2c.c ****   * @retval The new state of I2C_FLAG (SET or RESET).
1133:lib/src/stm32f10x_i2c.c ****   */
1134:lib/src/stm32f10x_i2c.c **** FlagStatus I2C_GetFlagStatus(I2C_TypeDef* I2Cx, uint32_t I2C_FLAG)
1135:lib/src/stm32f10x_i2c.c **** {
 1159              		.loc 1 1135 0
 1160              		.cfi_startproc
 1161              		@ args = 0, pretend = 0, frame = 8
 1162              		@ frame_needed = 0, uses_anonymous_args = 0
 1163              		@ link register save eliminated.
 1164              	.LVL89:
 1165 03b0 82B0     		sub	sp, sp, #8
 1166              		.cfi_def_cfa_offset 8
 1167              	.LVL90:
1136:lib/src/stm32f10x_i2c.c ****   FlagStatus bitstatus = RESET;
1137:lib/src/stm32f10x_i2c.c ****   __IO uint32_t i2creg = 0, i2cxbase = 0;
 1168              		.loc 1 1137 0
 1169 03b2 0023     		movs	r3, #0
 1170 03b4 0193     		str	r3, [sp, #4]
 1171 03b6 0093     		str	r3, [sp]
ARM GAS  /tmp/ccuwQjW2.s 			page 42


1138:lib/src/stm32f10x_i2c.c **** 
1139:lib/src/stm32f10x_i2c.c ****   /* Check the parameters */
1140:lib/src/stm32f10x_i2c.c ****   assert_param(IS_I2C_ALL_PERIPH(I2Cx));
1141:lib/src/stm32f10x_i2c.c ****   assert_param(IS_I2C_GET_FLAG(I2C_FLAG));
1142:lib/src/stm32f10x_i2c.c **** 
1143:lib/src/stm32f10x_i2c.c ****   /* Get the I2Cx peripheral base address */
1144:lib/src/stm32f10x_i2c.c ****   i2cxbase = (uint32_t)I2Cx;
 1172              		.loc 1 1144 0
 1173 03b8 0090     		str	r0, [sp]
1145:lib/src/stm32f10x_i2c.c ****   
1146:lib/src/stm32f10x_i2c.c ****   /* Read flag register index */
1147:lib/src/stm32f10x_i2c.c ****   i2creg = I2C_FLAG >> 28;
 1174              		.loc 1 1147 0
 1175 03ba 0B0F     		lsrs	r3, r1, #28
 1176 03bc 0193     		str	r3, [sp, #4]
1148:lib/src/stm32f10x_i2c.c ****   
1149:lib/src/stm32f10x_i2c.c ****   /* Get bit[23:0] of the flag */
1150:lib/src/stm32f10x_i2c.c ****   I2C_FLAG &= FLAG_Mask;
 1177              		.loc 1 1150 0
 1178 03be 21F07F41 		bic	r1, r1, #-16777216
 1179              	.LVL91:
1151:lib/src/stm32f10x_i2c.c ****   
1152:lib/src/stm32f10x_i2c.c ****   if(i2creg != 0)
 1180              		.loc 1 1152 0
 1181 03c2 019B     		ldr	r3, [sp, #4]
 1182 03c4 53B1     		cbz	r3, .L103
1153:lib/src/stm32f10x_i2c.c ****   {
1154:lib/src/stm32f10x_i2c.c ****     /* Get the I2Cx SR1 register address */
1155:lib/src/stm32f10x_i2c.c ****     i2cxbase += 0x14;
 1183              		.loc 1 1155 0
 1184 03c6 009B     		ldr	r3, [sp]
 1185 03c8 1433     		adds	r3, r3, #20
 1186 03ca 0093     		str	r3, [sp]
 1187              	.L104:
1156:lib/src/stm32f10x_i2c.c ****   }
1157:lib/src/stm32f10x_i2c.c ****   else
1158:lib/src/stm32f10x_i2c.c ****   {
1159:lib/src/stm32f10x_i2c.c ****     /* Flag in I2Cx SR2 Register */
1160:lib/src/stm32f10x_i2c.c ****     I2C_FLAG = (uint32_t)(I2C_FLAG >> 16);
1161:lib/src/stm32f10x_i2c.c ****     /* Get the I2Cx SR2 register address */
1162:lib/src/stm32f10x_i2c.c ****     i2cxbase += 0x18;
1163:lib/src/stm32f10x_i2c.c ****   }
1164:lib/src/stm32f10x_i2c.c ****   
1165:lib/src/stm32f10x_i2c.c ****   if(((*(__IO uint32_t *)i2cxbase) & I2C_FLAG) != (uint32_t)RESET)
 1188              		.loc 1 1165 0
 1189 03cc 009B     		ldr	r3, [sp]
 1190 03ce 1B68     		ldr	r3, [r3]
 1191              	.LVL92:
 1192 03d0 1942     		tst	r1, r3
1166:lib/src/stm32f10x_i2c.c ****   {
1167:lib/src/stm32f10x_i2c.c ****     /* I2C_FLAG is set */
1168:lib/src/stm32f10x_i2c.c ****     bitstatus = SET;
1169:lib/src/stm32f10x_i2c.c ****   }
1170:lib/src/stm32f10x_i2c.c ****   else
1171:lib/src/stm32f10x_i2c.c ****   {
1172:lib/src/stm32f10x_i2c.c ****     /* I2C_FLAG is reset */
1173:lib/src/stm32f10x_i2c.c ****     bitstatus = RESET;
ARM GAS  /tmp/ccuwQjW2.s 			page 43


1174:lib/src/stm32f10x_i2c.c ****   }
1175:lib/src/stm32f10x_i2c.c ****   
1176:lib/src/stm32f10x_i2c.c ****   /* Return the I2C_FLAG status */
1177:lib/src/stm32f10x_i2c.c ****   return  bitstatus;
1178:lib/src/stm32f10x_i2c.c **** }
 1193              		.loc 1 1178 0
 1194 03d2 14BF     		ite	ne
 1195 03d4 0120     		movne	r0, #1
 1196              	.LVL93:
 1197 03d6 0020     		moveq	r0, #0
 1198 03d8 02B0     		add	sp, sp, #8
 1199              		.cfi_remember_state
 1200              		.cfi_def_cfa_offset 0
 1201              		@ sp needed
 1202 03da 7047     		bx	lr
 1203              	.LVL94:
 1204              	.L103:
 1205              		.cfi_restore_state
1160:lib/src/stm32f10x_i2c.c ****     /* Get the I2Cx SR2 register address */
 1206              		.loc 1 1160 0
 1207 03dc 090C     		lsrs	r1, r1, #16
 1208              	.LVL95:
1162:lib/src/stm32f10x_i2c.c ****   }
 1209              		.loc 1 1162 0
 1210 03de 009B     		ldr	r3, [sp]
 1211 03e0 1833     		adds	r3, r3, #24
 1212 03e2 0093     		str	r3, [sp]
 1213 03e4 F2E7     		b	.L104
 1214              		.cfi_endproc
 1215              	.LFE93:
 1216              		.size	I2C_GetFlagStatus, .-I2C_GetFlagStatus
 1217              		.align	1
 1218              		.global	I2C_ClearFlag
 1219              		.syntax unified
 1220              		.thumb
 1221              		.thumb_func
 1222              		.fpu softvfp
 1223              		.type	I2C_ClearFlag, %function
 1224              	I2C_ClearFlag:
 1225              	.LFB94:
1179:lib/src/stm32f10x_i2c.c **** 
1180:lib/src/stm32f10x_i2c.c **** 
1181:lib/src/stm32f10x_i2c.c **** 
1182:lib/src/stm32f10x_i2c.c **** /**
1183:lib/src/stm32f10x_i2c.c ****   * @brief  Clears the I2Cx's pending flags.
1184:lib/src/stm32f10x_i2c.c ****   * @param  I2Cx: where x can be 1 or 2 to select the I2C peripheral.
1185:lib/src/stm32f10x_i2c.c ****   * @param  I2C_FLAG: specifies the flag to clear. 
1186:lib/src/stm32f10x_i2c.c ****   *   This parameter can be any combination of the following values:
1187:lib/src/stm32f10x_i2c.c ****   *     @arg I2C_FLAG_SMBALERT: SMBus Alert flag
1188:lib/src/stm32f10x_i2c.c ****   *     @arg I2C_FLAG_TIMEOUT: Timeout or Tlow error flag
1189:lib/src/stm32f10x_i2c.c ****   *     @arg I2C_FLAG_PECERR: PEC error in reception flag
1190:lib/src/stm32f10x_i2c.c ****   *     @arg I2C_FLAG_OVR: Overrun/Underrun flag (Slave mode)
1191:lib/src/stm32f10x_i2c.c ****   *     @arg I2C_FLAG_AF: Acknowledge failure flag
1192:lib/src/stm32f10x_i2c.c ****   *     @arg I2C_FLAG_ARLO: Arbitration lost flag (Master mode)
1193:lib/src/stm32f10x_i2c.c ****   *     @arg I2C_FLAG_BERR: Bus error flag
1194:lib/src/stm32f10x_i2c.c ****   *   
1195:lib/src/stm32f10x_i2c.c ****   * @note
ARM GAS  /tmp/ccuwQjW2.s 			page 44


1196:lib/src/stm32f10x_i2c.c ****   *   - STOPF (STOP detection) is cleared by software sequence: a read operation 
1197:lib/src/stm32f10x_i2c.c ****   *     to I2C_SR1 register (I2C_GetFlagStatus()) followed by a write operation 
1198:lib/src/stm32f10x_i2c.c ****   *     to I2C_CR1 register (I2C_Cmd() to re-enable the I2C peripheral).
1199:lib/src/stm32f10x_i2c.c ****   *   - ADD10 (10-bit header sent) is cleared by software sequence: a read 
1200:lib/src/stm32f10x_i2c.c ****   *     operation to I2C_SR1 (I2C_GetFlagStatus()) followed by writing the 
1201:lib/src/stm32f10x_i2c.c ****   *     second byte of the address in DR register.
1202:lib/src/stm32f10x_i2c.c ****   *   - BTF (Byte Transfer Finished) is cleared by software sequence: a read 
1203:lib/src/stm32f10x_i2c.c ****   *     operation to I2C_SR1 register (I2C_GetFlagStatus()) followed by a 
1204:lib/src/stm32f10x_i2c.c ****   *     read/write to I2C_DR register (I2C_SendData()).
1205:lib/src/stm32f10x_i2c.c ****   *   - ADDR (Address sent) is cleared by software sequence: a read operation to 
1206:lib/src/stm32f10x_i2c.c ****   *     I2C_SR1 register (I2C_GetFlagStatus()) followed by a read operation to 
1207:lib/src/stm32f10x_i2c.c ****   *     I2C_SR2 register ((void)(I2Cx->SR2)).
1208:lib/src/stm32f10x_i2c.c ****   *   - SB (Start Bit) is cleared software sequence: a read operation to I2C_SR1
1209:lib/src/stm32f10x_i2c.c ****   *     register (I2C_GetFlagStatus()) followed by a write operation to I2C_DR
1210:lib/src/stm32f10x_i2c.c ****   *     register  (I2C_SendData()).
1211:lib/src/stm32f10x_i2c.c ****   * @retval None
1212:lib/src/stm32f10x_i2c.c ****   */
1213:lib/src/stm32f10x_i2c.c **** void I2C_ClearFlag(I2C_TypeDef* I2Cx, uint32_t I2C_FLAG)
1214:lib/src/stm32f10x_i2c.c **** {
 1226              		.loc 1 1214 0
 1227              		.cfi_startproc
 1228              		@ args = 0, pretend = 0, frame = 0
 1229              		@ frame_needed = 0, uses_anonymous_args = 0
 1230              		@ link register save eliminated.
 1231              	.LVL96:
1215:lib/src/stm32f10x_i2c.c ****   uint32_t flagpos = 0;
1216:lib/src/stm32f10x_i2c.c ****   /* Check the parameters */
1217:lib/src/stm32f10x_i2c.c ****   assert_param(IS_I2C_ALL_PERIPH(I2Cx));
1218:lib/src/stm32f10x_i2c.c ****   assert_param(IS_I2C_CLEAR_FLAG(I2C_FLAG));
1219:lib/src/stm32f10x_i2c.c ****   /* Get the I2C flag position */
1220:lib/src/stm32f10x_i2c.c ****   flagpos = I2C_FLAG & FLAG_Mask;
1221:lib/src/stm32f10x_i2c.c ****   /* Clear the selected I2C flag */
1222:lib/src/stm32f10x_i2c.c ****   I2Cx->SR1 = (uint16_t)~flagpos;
 1232              		.loc 1 1222 0
 1233 03e6 C943     		mvns	r1, r1
 1234              	.LVL97:
 1235 03e8 89B2     		uxth	r1, r1
 1236              	.LVL98:
 1237 03ea 8182     		strh	r1, [r0, #20]	@ movhi
 1238 03ec 7047     		bx	lr
 1239              		.cfi_endproc
 1240              	.LFE94:
 1241              		.size	I2C_ClearFlag, .-I2C_ClearFlag
 1242              		.align	1
 1243              		.global	I2C_GetITStatus
 1244              		.syntax unified
 1245              		.thumb
 1246              		.thumb_func
 1247              		.fpu softvfp
 1248              		.type	I2C_GetITStatus, %function
 1249              	I2C_GetITStatus:
 1250              	.LFB95:
1223:lib/src/stm32f10x_i2c.c **** }
1224:lib/src/stm32f10x_i2c.c **** 
1225:lib/src/stm32f10x_i2c.c **** /**
1226:lib/src/stm32f10x_i2c.c ****   * @brief  Checks whether the specified I2C interrupt has occurred or not.
1227:lib/src/stm32f10x_i2c.c ****   * @param  I2Cx: where x can be 1 or 2 to select the I2C peripheral.
ARM GAS  /tmp/ccuwQjW2.s 			page 45


1228:lib/src/stm32f10x_i2c.c ****   * @param  I2C_IT: specifies the interrupt source to check. 
1229:lib/src/stm32f10x_i2c.c ****   *   This parameter can be one of the following values:
1230:lib/src/stm32f10x_i2c.c ****   *     @arg I2C_IT_SMBALERT: SMBus Alert flag
1231:lib/src/stm32f10x_i2c.c ****   *     @arg I2C_IT_TIMEOUT: Timeout or Tlow error flag
1232:lib/src/stm32f10x_i2c.c ****   *     @arg I2C_IT_PECERR: PEC error in reception flag
1233:lib/src/stm32f10x_i2c.c ****   *     @arg I2C_IT_OVR: Overrun/Underrun flag (Slave mode)
1234:lib/src/stm32f10x_i2c.c ****   *     @arg I2C_IT_AF: Acknowledge failure flag
1235:lib/src/stm32f10x_i2c.c ****   *     @arg I2C_IT_ARLO: Arbitration lost flag (Master mode)
1236:lib/src/stm32f10x_i2c.c ****   *     @arg I2C_IT_BERR: Bus error flag
1237:lib/src/stm32f10x_i2c.c ****   *     @arg I2C_IT_TXE: Data register empty flag (Transmitter)
1238:lib/src/stm32f10x_i2c.c ****   *     @arg I2C_IT_RXNE: Data register not empty (Receiver) flag
1239:lib/src/stm32f10x_i2c.c ****   *     @arg I2C_IT_STOPF: Stop detection flag (Slave mode)
1240:lib/src/stm32f10x_i2c.c ****   *     @arg I2C_IT_ADD10: 10-bit header sent flag (Master mode)
1241:lib/src/stm32f10x_i2c.c ****   *     @arg I2C_IT_BTF: Byte transfer finished flag
1242:lib/src/stm32f10x_i2c.c ****   *     @arg I2C_IT_ADDR: Address sent flag (Master mode) "ADSL"
1243:lib/src/stm32f10x_i2c.c ****   *                       Address matched flag (Slave mode)"ENDAD"
1244:lib/src/stm32f10x_i2c.c ****   *     @arg I2C_IT_SB: Start bit flag (Master mode)
1245:lib/src/stm32f10x_i2c.c ****   * @retval The new state of I2C_IT (SET or RESET).
1246:lib/src/stm32f10x_i2c.c ****   */
1247:lib/src/stm32f10x_i2c.c **** ITStatus I2C_GetITStatus(I2C_TypeDef* I2Cx, uint32_t I2C_IT)
1248:lib/src/stm32f10x_i2c.c **** {
 1251              		.loc 1 1248 0
 1252              		.cfi_startproc
 1253              		@ args = 0, pretend = 0, frame = 0
 1254              		@ frame_needed = 0, uses_anonymous_args = 0
 1255              		@ link register save eliminated.
 1256              	.LVL99:
1249:lib/src/stm32f10x_i2c.c ****   ITStatus bitstatus = RESET;
1250:lib/src/stm32f10x_i2c.c ****   uint32_t enablestatus = 0;
1251:lib/src/stm32f10x_i2c.c **** 
1252:lib/src/stm32f10x_i2c.c ****   /* Check the parameters */
1253:lib/src/stm32f10x_i2c.c ****   assert_param(IS_I2C_ALL_PERIPH(I2Cx));
1254:lib/src/stm32f10x_i2c.c ****   assert_param(IS_I2C_GET_IT(I2C_IT));
1255:lib/src/stm32f10x_i2c.c **** 
1256:lib/src/stm32f10x_i2c.c ****   /* Check if the interrupt source is enabled or not */
1257:lib/src/stm32f10x_i2c.c ****   enablestatus = (uint32_t)(((I2C_IT & ITEN_Mask) >> 16) & (I2Cx->CR2)) ;
 1257              		.loc 1 1257 0
 1258 03ee 8388     		ldrh	r3, [r0, #4]
 1259 03f0 9BB2     		uxth	r3, r3
 1260              	.LVL100:
1258:lib/src/stm32f10x_i2c.c ****   
1259:lib/src/stm32f10x_i2c.c ****   /* Get bit[23:0] of the flag */
1260:lib/src/stm32f10x_i2c.c ****   I2C_IT &= FLAG_Mask;
1261:lib/src/stm32f10x_i2c.c **** 
1262:lib/src/stm32f10x_i2c.c ****   /* Check the status of the specified I2C flag */
1263:lib/src/stm32f10x_i2c.c ****   if (((I2Cx->SR1 & I2C_IT) != (uint32_t)RESET) && enablestatus)
 1261              		.loc 1 1263 0
 1262 03f2 828A     		ldrh	r2, [r0, #20]
 1263 03f4 92B2     		uxth	r2, r2
 1264 03f6 0A42     		tst	r2, r1
 1265 03f8 07D0     		beq	.L109
1257:lib/src/stm32f10x_i2c.c ****   
 1266              		.loc 1 1257 0 discriminator 1
 1267 03fa 03F4E063 		and	r3, r3, #1792
 1268              	.LVL101:
 1269              		.loc 1 1263 0 discriminator 1
 1270 03fe 13EA1143 		ands	r3, r3, r1, lsr #16
ARM GAS  /tmp/ccuwQjW2.s 			page 46


 1271 0402 14BF     		ite	ne
 1272 0404 0120     		movne	r0, #1
 1273              	.LVL102:
 1274 0406 0020     		moveq	r0, #0
 1275 0408 7047     		bx	lr
 1276              	.LVL103:
 1277              	.L109:
 1278 040a 0020     		movs	r0, #0
 1279              	.LVL104:
1264:lib/src/stm32f10x_i2c.c ****   {
1265:lib/src/stm32f10x_i2c.c ****     /* I2C_IT is set */
1266:lib/src/stm32f10x_i2c.c ****     bitstatus = SET;
1267:lib/src/stm32f10x_i2c.c ****   }
1268:lib/src/stm32f10x_i2c.c ****   else
1269:lib/src/stm32f10x_i2c.c ****   {
1270:lib/src/stm32f10x_i2c.c ****     /* I2C_IT is reset */
1271:lib/src/stm32f10x_i2c.c ****     bitstatus = RESET;
1272:lib/src/stm32f10x_i2c.c ****   }
1273:lib/src/stm32f10x_i2c.c ****   /* Return the I2C_IT status */
1274:lib/src/stm32f10x_i2c.c ****   return  bitstatus;
1275:lib/src/stm32f10x_i2c.c **** }
 1280              		.loc 1 1275 0
 1281 040c 7047     		bx	lr
 1282              		.cfi_endproc
 1283              	.LFE95:
 1284              		.size	I2C_GetITStatus, .-I2C_GetITStatus
 1285              		.align	1
 1286              		.global	I2C_ClearITPendingBit
 1287              		.syntax unified
 1288              		.thumb
 1289              		.thumb_func
 1290              		.fpu softvfp
 1291              		.type	I2C_ClearITPendingBit, %function
 1292              	I2C_ClearITPendingBit:
 1293              	.LFB96:
1276:lib/src/stm32f10x_i2c.c **** 
1277:lib/src/stm32f10x_i2c.c **** /**
1278:lib/src/stm32f10x_i2c.c ****   * @brief  Clears the I2Cxs interrupt pending bits.
1279:lib/src/stm32f10x_i2c.c ****   * @param  I2Cx: where x can be 1 or 2 to select the I2C peripheral.
1280:lib/src/stm32f10x_i2c.c ****   * @param  I2C_IT: specifies the interrupt pending bit to clear. 
1281:lib/src/stm32f10x_i2c.c ****   *   This parameter can be any combination of the following values:
1282:lib/src/stm32f10x_i2c.c ****   *     @arg I2C_IT_SMBALERT: SMBus Alert interrupt
1283:lib/src/stm32f10x_i2c.c ****   *     @arg I2C_IT_TIMEOUT: Timeout or Tlow error interrupt
1284:lib/src/stm32f10x_i2c.c ****   *     @arg I2C_IT_PECERR: PEC error in reception  interrupt
1285:lib/src/stm32f10x_i2c.c ****   *     @arg I2C_IT_OVR: Overrun/Underrun interrupt (Slave mode)
1286:lib/src/stm32f10x_i2c.c ****   *     @arg I2C_IT_AF: Acknowledge failure interrupt
1287:lib/src/stm32f10x_i2c.c ****   *     @arg I2C_IT_ARLO: Arbitration lost interrupt (Master mode)
1288:lib/src/stm32f10x_i2c.c ****   *     @arg I2C_IT_BERR: Bus error interrupt
1289:lib/src/stm32f10x_i2c.c ****   *   
1290:lib/src/stm32f10x_i2c.c ****   * @note
1291:lib/src/stm32f10x_i2c.c ****   *   - STOPF (STOP detection) is cleared by software sequence: a read operation 
1292:lib/src/stm32f10x_i2c.c ****   *     to I2C_SR1 register (I2C_GetITStatus()) followed by a write operation to 
1293:lib/src/stm32f10x_i2c.c ****   *     I2C_CR1 register (I2C_Cmd() to re-enable the I2C peripheral).
1294:lib/src/stm32f10x_i2c.c ****   *   - ADD10 (10-bit header sent) is cleared by software sequence: a read 
1295:lib/src/stm32f10x_i2c.c ****   *     operation to I2C_SR1 (I2C_GetITStatus()) followed by writing the second 
1296:lib/src/stm32f10x_i2c.c ****   *     byte of the address in I2C_DR register.
1297:lib/src/stm32f10x_i2c.c ****   *   - BTF (Byte Transfer Finished) is cleared by software sequence: a read 
ARM GAS  /tmp/ccuwQjW2.s 			page 47


1298:lib/src/stm32f10x_i2c.c ****   *     operation to I2C_SR1 register (I2C_GetITStatus()) followed by a 
1299:lib/src/stm32f10x_i2c.c ****   *     read/write to I2C_DR register (I2C_SendData()).
1300:lib/src/stm32f10x_i2c.c ****   *   - ADDR (Address sent) is cleared by software sequence: a read operation to 
1301:lib/src/stm32f10x_i2c.c ****   *     I2C_SR1 register (I2C_GetITStatus()) followed by a read operation to 
1302:lib/src/stm32f10x_i2c.c ****   *     I2C_SR2 register ((void)(I2Cx->SR2)).
1303:lib/src/stm32f10x_i2c.c ****   *   - SB (Start Bit) is cleared by software sequence: a read operation to 
1304:lib/src/stm32f10x_i2c.c ****   *     I2C_SR1 register (I2C_GetITStatus()) followed by a write operation to 
1305:lib/src/stm32f10x_i2c.c ****   *     I2C_DR register (I2C_SendData()).
1306:lib/src/stm32f10x_i2c.c ****   * @retval None
1307:lib/src/stm32f10x_i2c.c ****   */
1308:lib/src/stm32f10x_i2c.c **** void I2C_ClearITPendingBit(I2C_TypeDef* I2Cx, uint32_t I2C_IT)
1309:lib/src/stm32f10x_i2c.c **** {
 1294              		.loc 1 1309 0
 1295              		.cfi_startproc
 1296              		@ args = 0, pretend = 0, frame = 0
 1297              		@ frame_needed = 0, uses_anonymous_args = 0
 1298              		@ link register save eliminated.
 1299              	.LVL105:
1310:lib/src/stm32f10x_i2c.c ****   uint32_t flagpos = 0;
1311:lib/src/stm32f10x_i2c.c ****   /* Check the parameters */
1312:lib/src/stm32f10x_i2c.c ****   assert_param(IS_I2C_ALL_PERIPH(I2Cx));
1313:lib/src/stm32f10x_i2c.c ****   assert_param(IS_I2C_CLEAR_IT(I2C_IT));
1314:lib/src/stm32f10x_i2c.c ****   /* Get the I2C flag position */
1315:lib/src/stm32f10x_i2c.c ****   flagpos = I2C_IT & FLAG_Mask;
1316:lib/src/stm32f10x_i2c.c ****   /* Clear the selected I2C flag */
1317:lib/src/stm32f10x_i2c.c ****   I2Cx->SR1 = (uint16_t)~flagpos;
 1300              		.loc 1 1317 0
 1301 040e C943     		mvns	r1, r1
 1302              	.LVL106:
 1303 0410 89B2     		uxth	r1, r1
 1304              	.LVL107:
 1305 0412 8182     		strh	r1, [r0, #20]	@ movhi
 1306 0414 7047     		bx	lr
 1307              		.cfi_endproc
 1308              	.LFE96:
 1309              		.size	I2C_ClearITPendingBit, .-I2C_ClearITPendingBit
 1310              	.Letext0:
 1311              		.file 2 "/usr/arm-none-eabi/include/machine/_default_types.h"
 1312              		.file 3 "/usr/arm-none-eabi/include/sys/_stdint.h"
 1313              		.file 4 "/home/enbin/Documents/code/STM/stm32-quadrocopter/cmsis/core_cm3.h"
 1314              		.file 5 "/home/enbin/Documents/code/STM/stm32-quadrocopter/lib/inc/system_stm32f10x.h"
 1315              		.file 6 "/home/enbin/Documents/code/STM/stm32-quadrocopter/lib/inc/stm32f10x.h"
 1316              		.file 7 "/home/enbin/Documents/code/STM/stm32-quadrocopter/lib/inc/stm32f10x_i2c.h"
 1317              		.file 8 "/home/enbin/Documents/code/STM/stm32-quadrocopter/lib/inc/stm32f10x_rcc.h"
 1318              		.file 9 "/home/enbin/Documents/code/STM/stm32-quadrocopter/drivers/MPU6050.h"
 1319              		.file 10 "/usr/arm-none-eabi/include/sys/lock.h"
 1320              		.file 11 "/usr/arm-none-eabi/include/sys/_types.h"
 1321              		.file 12 "/usr/lib/gcc/arm-none-eabi/6.1.1/include/stddef.h"
 1322              		.file 13 "/usr/arm-none-eabi/include/sys/reent.h"
 1323              		.file 14 "/usr/arm-none-eabi/include/stdlib.h"
 1324              		.file 15 "/usr/arm-none-eabi/include/math.h"
 1325              		.file 16 "/usr/arm-none-eabi/include/sys/errno.h"