ARM GAS  /tmp/cc7BzgT5.s 			page 1


   1              		.cpu cortex-m3
   2              		.eabi_attribute 20, 1
   3              		.eabi_attribute 21, 1
   4              		.eabi_attribute 23, 3
   5              		.eabi_attribute 24, 1
   6              		.eabi_attribute 25, 1
   7              		.eabi_attribute 26, 1
   8              		.eabi_attribute 30, 6
   9              		.eabi_attribute 34, 1
  10              		.eabi_attribute 18, 4
  11              		.file	"stm32f10x_flash.c"
  12              		.text
  13              	.Ltext0:
  14              		.cfi_sections	.debug_frame
  15              		.align	1
  16              		.global	FLASH_SetLatency
  17              		.syntax unified
  18              		.thumb
  19              		.thumb_func
  20              		.fpu softvfp
  21              		.type	FLASH_SetLatency, %function
  22              	FLASH_SetLatency:
  23              	.LFB64:
  24              		.file 1 "lib/src/stm32f10x_flash.c"
   1:lib/src/stm32f10x_flash.c **** /**
   2:lib/src/stm32f10x_flash.c ****   ******************************************************************************
   3:lib/src/stm32f10x_flash.c ****   * @file    stm32f10x_flash.c
   4:lib/src/stm32f10x_flash.c ****   * @author  MCD Application Team
   5:lib/src/stm32f10x_flash.c ****   * @version V3.5.0
   6:lib/src/stm32f10x_flash.c ****   * @date    11-March-2011
   7:lib/src/stm32f10x_flash.c ****   * @brief   This file provides all the FLASH firmware functions.
   8:lib/src/stm32f10x_flash.c ****   ******************************************************************************
   9:lib/src/stm32f10x_flash.c ****   * @attention
  10:lib/src/stm32f10x_flash.c ****   *
  11:lib/src/stm32f10x_flash.c ****   * THE PRESENT FIRMWARE WHICH IS FOR GUIDANCE ONLY AIMS AT PROVIDING CUSTOMERS
  12:lib/src/stm32f10x_flash.c ****   * WITH CODING INFORMATION REGARDING THEIR PRODUCTS IN ORDER FOR THEM TO SAVE
  13:lib/src/stm32f10x_flash.c ****   * TIME. AS A RESULT, STMICROELECTRONICS SHALL NOT BE HELD LIABLE FOR ANY
  14:lib/src/stm32f10x_flash.c ****   * DIRECT, INDIRECT OR CONSEQUENTIAL DAMAGES WITH RESPECT TO ANY CLAIMS ARISING
  15:lib/src/stm32f10x_flash.c ****   * FROM THE CONTENT OF SUCH FIRMWARE AND/OR THE USE MADE BY CUSTOMERS OF THE
  16:lib/src/stm32f10x_flash.c ****   * CODING INFORMATION CONTAINED HEREIN IN CONNECTION WITH THEIR PRODUCTS.
  17:lib/src/stm32f10x_flash.c ****   *
  18:lib/src/stm32f10x_flash.c ****   * <h2><center>&copy; COPYRIGHT 2011 STMicroelectronics</center></h2>
  19:lib/src/stm32f10x_flash.c ****   ******************************************************************************
  20:lib/src/stm32f10x_flash.c ****   */
  21:lib/src/stm32f10x_flash.c **** 
  22:lib/src/stm32f10x_flash.c **** /* Includes ------------------------------------------------------------------*/
  23:lib/src/stm32f10x_flash.c **** #include "stm32f10x_flash.h"
  24:lib/src/stm32f10x_flash.c **** #include "conf.h"
  25:lib/src/stm32f10x_flash.c **** 
  26:lib/src/stm32f10x_flash.c **** /** @addtogroup STM32F10x_StdPeriph_Driver
  27:lib/src/stm32f10x_flash.c ****   * @{
  28:lib/src/stm32f10x_flash.c ****   */
  29:lib/src/stm32f10x_flash.c **** 
  30:lib/src/stm32f10x_flash.c **** /** @defgroup FLASH 
  31:lib/src/stm32f10x_flash.c ****   * @brief FLASH driver modules
  32:lib/src/stm32f10x_flash.c ****   * @{
  33:lib/src/stm32f10x_flash.c ****   */ 
ARM GAS  /tmp/cc7BzgT5.s 			page 2


  34:lib/src/stm32f10x_flash.c **** 
  35:lib/src/stm32f10x_flash.c **** /** @defgroup FLASH_Private_TypesDefinitions
  36:lib/src/stm32f10x_flash.c ****   * @{
  37:lib/src/stm32f10x_flash.c ****   */
  38:lib/src/stm32f10x_flash.c **** 
  39:lib/src/stm32f10x_flash.c **** /**
  40:lib/src/stm32f10x_flash.c ****   * @}
  41:lib/src/stm32f10x_flash.c ****   */ 
  42:lib/src/stm32f10x_flash.c **** 
  43:lib/src/stm32f10x_flash.c **** /** @defgroup FLASH_Private_Defines
  44:lib/src/stm32f10x_flash.c ****   * @{
  45:lib/src/stm32f10x_flash.c ****   */ 
  46:lib/src/stm32f10x_flash.c **** 
  47:lib/src/stm32f10x_flash.c **** /* Flash Access Control Register bits */
  48:lib/src/stm32f10x_flash.c **** #define ACR_LATENCY_Mask         ((uint32_t)0x00000038)
  49:lib/src/stm32f10x_flash.c **** #define ACR_HLFCYA_Mask          ((uint32_t)0xFFFFFFF7)
  50:lib/src/stm32f10x_flash.c **** #define ACR_PRFTBE_Mask          ((uint32_t)0xFFFFFFEF)
  51:lib/src/stm32f10x_flash.c **** 
  52:lib/src/stm32f10x_flash.c **** /* Flash Access Control Register bits */
  53:lib/src/stm32f10x_flash.c **** #define ACR_PRFTBS_Mask          ((uint32_t)0x00000020) 
  54:lib/src/stm32f10x_flash.c **** 
  55:lib/src/stm32f10x_flash.c **** /* Flash Control Register bits */
  56:lib/src/stm32f10x_flash.c **** #define CR_PG_Set                ((uint32_t)0x00000001)
  57:lib/src/stm32f10x_flash.c **** #define CR_PG_Reset              ((uint32_t)0x00001FFE) 
  58:lib/src/stm32f10x_flash.c **** #define CR_PER_Set               ((uint32_t)0x00000002)
  59:lib/src/stm32f10x_flash.c **** #define CR_PER_Reset             ((uint32_t)0x00001FFD)
  60:lib/src/stm32f10x_flash.c **** #define CR_MER_Set               ((uint32_t)0x00000004)
  61:lib/src/stm32f10x_flash.c **** #define CR_MER_Reset             ((uint32_t)0x00001FFB)
  62:lib/src/stm32f10x_flash.c **** #define CR_OPTPG_Set             ((uint32_t)0x00000010)
  63:lib/src/stm32f10x_flash.c **** #define CR_OPTPG_Reset           ((uint32_t)0x00001FEF)
  64:lib/src/stm32f10x_flash.c **** #define CR_OPTER_Set             ((uint32_t)0x00000020)
  65:lib/src/stm32f10x_flash.c **** #define CR_OPTER_Reset           ((uint32_t)0x00001FDF)
  66:lib/src/stm32f10x_flash.c **** #define CR_STRT_Set              ((uint32_t)0x00000040)
  67:lib/src/stm32f10x_flash.c **** #define CR_LOCK_Set              ((uint32_t)0x00000080)
  68:lib/src/stm32f10x_flash.c **** 
  69:lib/src/stm32f10x_flash.c **** /* FLASH Mask */
  70:lib/src/stm32f10x_flash.c **** #define RDPRT_Mask               ((uint32_t)0x00000002)
  71:lib/src/stm32f10x_flash.c **** #define WRP0_Mask                ((uint32_t)0x000000FF)
  72:lib/src/stm32f10x_flash.c **** #define WRP1_Mask                ((uint32_t)0x0000FF00)
  73:lib/src/stm32f10x_flash.c **** #define WRP2_Mask                ((uint32_t)0x00FF0000)
  74:lib/src/stm32f10x_flash.c **** #define WRP3_Mask                ((uint32_t)0xFF000000)
  75:lib/src/stm32f10x_flash.c **** #define OB_USER_BFB2             ((uint16_t)0x0008)
  76:lib/src/stm32f10x_flash.c **** 
  77:lib/src/stm32f10x_flash.c **** /* FLASH Keys */
  78:lib/src/stm32f10x_flash.c **** #define RDP_Key                  ((uint16_t)0x00A5)
  79:lib/src/stm32f10x_flash.c **** #define FLASH_KEY1               ((uint32_t)0x45670123)
  80:lib/src/stm32f10x_flash.c **** #define FLASH_KEY2               ((uint32_t)0xCDEF89AB)
  81:lib/src/stm32f10x_flash.c **** 
  82:lib/src/stm32f10x_flash.c **** /* FLASH BANK address */
  83:lib/src/stm32f10x_flash.c **** #define FLASH_BANK1_END_ADDRESS   ((uint32_t)0x807FFFF)
  84:lib/src/stm32f10x_flash.c **** 
  85:lib/src/stm32f10x_flash.c **** /* Delay definition */   
  86:lib/src/stm32f10x_flash.c **** #define EraseTimeout          ((uint32_t)0x000B0000)
  87:lib/src/stm32f10x_flash.c **** #define ProgramTimeout        ((uint32_t)0x00002000)
  88:lib/src/stm32f10x_flash.c **** /**
  89:lib/src/stm32f10x_flash.c ****   * @}
  90:lib/src/stm32f10x_flash.c ****   */ 
ARM GAS  /tmp/cc7BzgT5.s 			page 3


  91:lib/src/stm32f10x_flash.c **** 
  92:lib/src/stm32f10x_flash.c **** /** @defgroup FLASH_Private_Macros
  93:lib/src/stm32f10x_flash.c ****   * @{
  94:lib/src/stm32f10x_flash.c ****   */
  95:lib/src/stm32f10x_flash.c **** 
  96:lib/src/stm32f10x_flash.c **** /**
  97:lib/src/stm32f10x_flash.c ****   * @}
  98:lib/src/stm32f10x_flash.c ****   */ 
  99:lib/src/stm32f10x_flash.c **** 
 100:lib/src/stm32f10x_flash.c **** /** @defgroup FLASH_Private_Variables
 101:lib/src/stm32f10x_flash.c ****   * @{
 102:lib/src/stm32f10x_flash.c ****   */
 103:lib/src/stm32f10x_flash.c **** 
 104:lib/src/stm32f10x_flash.c **** /**
 105:lib/src/stm32f10x_flash.c ****   * @}
 106:lib/src/stm32f10x_flash.c ****   */ 
 107:lib/src/stm32f10x_flash.c **** 
 108:lib/src/stm32f10x_flash.c **** /** @defgroup FLASH_Private_FunctionPrototypes
 109:lib/src/stm32f10x_flash.c ****   * @{
 110:lib/src/stm32f10x_flash.c ****   */
 111:lib/src/stm32f10x_flash.c ****   
 112:lib/src/stm32f10x_flash.c **** /**
 113:lib/src/stm32f10x_flash.c ****   * @}
 114:lib/src/stm32f10x_flash.c ****   */
 115:lib/src/stm32f10x_flash.c **** 
 116:lib/src/stm32f10x_flash.c **** /** @defgroup FLASH_Private_Functions
 117:lib/src/stm32f10x_flash.c ****   * @{
 118:lib/src/stm32f10x_flash.c ****   */
 119:lib/src/stm32f10x_flash.c **** 
 120:lib/src/stm32f10x_flash.c **** /**
 121:lib/src/stm32f10x_flash.c **** @code  
 122:lib/src/stm32f10x_flash.c ****  
 123:lib/src/stm32f10x_flash.c ****  This driver provides functions to configure and program the Flash memory of all STM32F10x devices,
 124:lib/src/stm32f10x_flash.c ****  including the latest STM32F10x_XL density devices. 
 125:lib/src/stm32f10x_flash.c **** 
 126:lib/src/stm32f10x_flash.c ****  STM32F10x_XL devices feature up to 1 Mbyte with dual bank architecture for read-while-write (RWW) 
 127:lib/src/stm32f10x_flash.c ****     - bank1: fixed size of 512 Kbytes (256 pages of 2Kbytes each)
 128:lib/src/stm32f10x_flash.c ****     - bank2: up to 512 Kbytes (up to 256 pages of 2Kbytes each)
 129:lib/src/stm32f10x_flash.c ****  While other STM32F10x devices features only one bank with memory up to 512 Kbytes.
 130:lib/src/stm32f10x_flash.c **** 
 131:lib/src/stm32f10x_flash.c ****  In version V3.3.0, some functions were updated and new ones were added to support
 132:lib/src/stm32f10x_flash.c ****  STM32F10x_XL devices. Thus some functions manages all devices, while other are 
 133:lib/src/stm32f10x_flash.c ****  dedicated for XL devices only.
 134:lib/src/stm32f10x_flash.c ****  
 135:lib/src/stm32f10x_flash.c ****  The table below presents the list of available functions depending on the used STM32F10x devices. 
 136:lib/src/stm32f10x_flash.c ****       
 137:lib/src/stm32f10x_flash.c ****    ***************************************************
 138:lib/src/stm32f10x_flash.c ****    * Legacy functions used for all STM32F10x devices *
 139:lib/src/stm32f10x_flash.c ****    ***************************************************
 140:lib/src/stm32f10x_flash.c ****    +-----------------------------------------------------------------------------------------------
 141:lib/src/stm32f10x_flash.c ****    |       Functions prototypes         |STM32F10x_XL|Other STM32F10x|    Comments                 
 142:lib/src/stm32f10x_flash.c ****    |                                    |   devices  |  devices      |                             
 143:lib/src/stm32f10x_flash.c ****    |-----------------------------------------------------------------------------------------------
 144:lib/src/stm32f10x_flash.c ****    |FLASH_SetLatency                    |    Yes     |      Yes      | No change                   
 145:lib/src/stm32f10x_flash.c ****    |-----------------------------------------------------------------------------------------------
 146:lib/src/stm32f10x_flash.c ****    |FLASH_HalfCycleAccessCmd            |    Yes     |      Yes      | No change                   
 147:lib/src/stm32f10x_flash.c ****    |-----------------------------------------------------------------------------------------------
ARM GAS  /tmp/cc7BzgT5.s 			page 4


 148:lib/src/stm32f10x_flash.c ****    |FLASH_PrefetchBufferCmd             |    Yes     |      Yes      | No change                   
 149:lib/src/stm32f10x_flash.c ****    |-----------------------------------------------------------------------------------------------
 150:lib/src/stm32f10x_flash.c ****    |FLASH_Unlock                        |    Yes     |      Yes      | - For STM32F10X_XL devices: 
 151:lib/src/stm32f10x_flash.c ****    |                                    |            |               | - For other devices: unlock 
 152:lib/src/stm32f10x_flash.c ****    |                                    |            |               |   to FLASH_UnlockBank1 funct
 153:lib/src/stm32f10x_flash.c ****    |-----------------------------------------------------------------------------------------------
 154:lib/src/stm32f10x_flash.c ****    |FLASH_Lock                          |    Yes     |      Yes      | - For STM32F10X_XL devices: 
 155:lib/src/stm32f10x_flash.c ****    |                                    |            |               | - For other devices: lock Ba
 156:lib/src/stm32f10x_flash.c ****    |                                    |            |               |   to FLASH_LockBank1 functio
 157:lib/src/stm32f10x_flash.c ****    |-----------------------------------------------------------------------------------------------
 158:lib/src/stm32f10x_flash.c ****    |FLASH_ErasePage                     |    Yes     |      Yes      | - For STM32F10x_XL devices: 
 159:lib/src/stm32f10x_flash.c ****    |                                    |            |               | - For other devices: erase a
 160:lib/src/stm32f10x_flash.c ****    |-----------------------------------------------------------------------------------------------
 161:lib/src/stm32f10x_flash.c ****    |FLASH_EraseAllPages                 |    Yes     |      Yes      | - For STM32F10x_XL devices: 
 162:lib/src/stm32f10x_flash.c ****    |                                    |            |               | - For other devices: erase a
 163:lib/src/stm32f10x_flash.c ****    |-----------------------------------------------------------------------------------------------
 164:lib/src/stm32f10x_flash.c ****    |FLASH_EraseOptionBytes              |    Yes     |      Yes      | No change                   
 165:lib/src/stm32f10x_flash.c ****    |-----------------------------------------------------------------------------------------------
 166:lib/src/stm32f10x_flash.c ****    |FLASH_ProgramWord                   |    Yes     |      Yes      | Updated to program up to 1MB
 167:lib/src/stm32f10x_flash.c ****    |-----------------------------------------------------------------------------------------------
 168:lib/src/stm32f10x_flash.c ****    |FLASH_ProgramHalfWord               |    Yes     |      Yes      | Updated to program up to 1MB
 169:lib/src/stm32f10x_flash.c ****    |-----------------------------------------------------------------------------------------------
 170:lib/src/stm32f10x_flash.c ****    |FLASH_ProgramOptionByteData         |    Yes     |      Yes      | No change                   
 171:lib/src/stm32f10x_flash.c ****    |-----------------------------------------------------------------------------------------------
 172:lib/src/stm32f10x_flash.c ****    |FLASH_EnableWriteProtection         |    Yes     |      Yes      | No change                   
 173:lib/src/stm32f10x_flash.c ****    |-----------------------------------------------------------------------------------------------
 174:lib/src/stm32f10x_flash.c ****    |FLASH_ReadOutProtection             |    Yes     |      Yes      | No change                   
 175:lib/src/stm32f10x_flash.c ****    |-----------------------------------------------------------------------------------------------
 176:lib/src/stm32f10x_flash.c ****    |FLASH_UserOptionByteConfig          |    Yes     |      Yes      | No change                   
 177:lib/src/stm32f10x_flash.c ****    |-----------------------------------------------------------------------------------------------
 178:lib/src/stm32f10x_flash.c ****    |FLASH_GetUserOptionByte             |    Yes     |      Yes      | No change                   
 179:lib/src/stm32f10x_flash.c ****    |-----------------------------------------------------------------------------------------------
 180:lib/src/stm32f10x_flash.c ****    |FLASH_GetWriteProtectionOptionByte  |    Yes     |      Yes      | No change                   
 181:lib/src/stm32f10x_flash.c ****    |-----------------------------------------------------------------------------------------------
 182:lib/src/stm32f10x_flash.c ****    |FLASH_GetReadOutProtectionStatus    |    Yes     |      Yes      | No change                   
 183:lib/src/stm32f10x_flash.c ****    |-----------------------------------------------------------------------------------------------
 184:lib/src/stm32f10x_flash.c ****    |FLASH_GetPrefetchBufferStatus       |    Yes     |      Yes      | No change                   
 185:lib/src/stm32f10x_flash.c ****    |-----------------------------------------------------------------------------------------------
 186:lib/src/stm32f10x_flash.c ****    |FLASH_ITConfig                      |    Yes     |      Yes      | - For STM32F10x_XL devices: 
 187:lib/src/stm32f10x_flash.c ****    |                                    |            |               | - For other devices: enable 
 188:lib/src/stm32f10x_flash.c ****    |-----------------------------------------------------------------------------------------------
 189:lib/src/stm32f10x_flash.c ****    |FLASH_GetFlagStatus                 |    Yes     |      Yes      | - For STM32F10x_XL devices: 
 190:lib/src/stm32f10x_flash.c ****    |                                    |            |               | - For other devices: return 
 191:lib/src/stm32f10x_flash.c ****    |-----------------------------------------------------------------------------------------------
 192:lib/src/stm32f10x_flash.c ****    |FLASH_ClearFlag                     |    Yes     |      Yes      | - For STM32F10x_XL devices: 
 193:lib/src/stm32f10x_flash.c ****    |                                    |            |               | - For other devices: clear B
 194:lib/src/stm32f10x_flash.c ****    |-----------------------------------------------------------------------------------------------
 195:lib/src/stm32f10x_flash.c ****    |FLASH_GetStatus                     |    Yes     |      Yes      | - Return the status of Bank1
 196:lib/src/stm32f10x_flash.c ****    |                                    |            |               |   equivalent to FLASH_GetBan
 197:lib/src/stm32f10x_flash.c ****    |-----------------------------------------------------------------------------------------------
 198:lib/src/stm32f10x_flash.c ****    |FLASH_WaitForLastOperation          |    Yes     |      Yes      | - Wait for Bank1 last operat
 199:lib/src/stm32f10x_flash.c ****    |                                    |            |               |   equivalent to: FLASH_WaitF
 200:lib/src/stm32f10x_flash.c ****    +-----------------------------------------------------------------------------------------------
 201:lib/src/stm32f10x_flash.c **** 
 202:lib/src/stm32f10x_flash.c ****    ************************************************************************************************
 203:lib/src/stm32f10x_flash.c ****    * New functions used for all STM32F10x devices to manage Bank1:                                 
 204:lib/src/stm32f10x_flash.c ****    *   - These functions are mainly useful for STM32F10x_XL density devices, to have separate contr
ARM GAS  /tmp/cc7BzgT5.s 			page 5


 205:lib/src/stm32f10x_flash.c ****    *   - For other devices, these functions are optional (covered by functions listed above)       
 206:lib/src/stm32f10x_flash.c ****    ************************************************************************************************
 207:lib/src/stm32f10x_flash.c ****    +-----------------------------------------------------------------------------------------------
 208:lib/src/stm32f10x_flash.c ****    |       Functions prototypes         |STM32F10x_XL|Other STM32F10x|    Comments                 
 209:lib/src/stm32f10x_flash.c ****    |                                    |   devices  |  devices      |                             
 210:lib/src/stm32f10x_flash.c ****    |-----------------------------------------------------------------------------------------------
 211:lib/src/stm32f10x_flash.c ****    | FLASH_UnlockBank1                  |    Yes     |      Yes      | - Unlock Bank1              
 212:lib/src/stm32f10x_flash.c ****    |-----------------------------------------------------------------------------------------------
 213:lib/src/stm32f10x_flash.c ****    |FLASH_LockBank1                     |    Yes     |      Yes      | - Lock Bank1                
 214:lib/src/stm32f10x_flash.c ****    |-----------------------------------------------------------------------------------------------
 215:lib/src/stm32f10x_flash.c ****    | FLASH_EraseAllBank1Pages           |    Yes     |      Yes      | - Erase all pages in Bank1  
 216:lib/src/stm32f10x_flash.c ****    |-----------------------------------------------------------------------------------------------
 217:lib/src/stm32f10x_flash.c ****    | FLASH_GetBank1Status               |    Yes     |      Yes      | - Return the status of Bank1
 218:lib/src/stm32f10x_flash.c ****    |-----------------------------------------------------------------------------------------------
 219:lib/src/stm32f10x_flash.c ****    | FLASH_WaitForLastBank1Operation    |    Yes     |      Yes      | - Wait for Bank1 last operat
 220:lib/src/stm32f10x_flash.c ****    +-----------------------------------------------------------------------------------------------
 221:lib/src/stm32f10x_flash.c **** 
 222:lib/src/stm32f10x_flash.c ****    *****************************************************************************
 223:lib/src/stm32f10x_flash.c ****    * New Functions used only with STM32F10x_XL density devices to manage Bank2 *
 224:lib/src/stm32f10x_flash.c ****    *****************************************************************************
 225:lib/src/stm32f10x_flash.c ****    +-----------------------------------------------------------------------------------------------
 226:lib/src/stm32f10x_flash.c ****    |       Functions prototypes         |STM32F10x_XL|Other STM32F10x|    Comments                 
 227:lib/src/stm32f10x_flash.c ****    |                                    |   devices  |  devices      |                             
 228:lib/src/stm32f10x_flash.c ****    |-----------------------------------------------------------------------------------------------
 229:lib/src/stm32f10x_flash.c ****    | FLASH_UnlockBank2                  |    Yes     |      No       | - Unlock Bank2              
 230:lib/src/stm32f10x_flash.c ****    |-----------------------------------------------------------------------------------------------
 231:lib/src/stm32f10x_flash.c ****    |FLASH_LockBank2                     |    Yes     |      No       | - Lock Bank2                
 232:lib/src/stm32f10x_flash.c ****    |-----------------------------------------------------------------------------------------------
 233:lib/src/stm32f10x_flash.c ****    | FLASH_EraseAllBank2Pages           |    Yes     |      No       | - Erase all pages in Bank2  
 234:lib/src/stm32f10x_flash.c ****    |-----------------------------------------------------------------------------------------------
 235:lib/src/stm32f10x_flash.c ****    | FLASH_GetBank2Status               |    Yes     |      No       | - Return the status of Bank2
 236:lib/src/stm32f10x_flash.c ****    |-----------------------------------------------------------------------------------------------
 237:lib/src/stm32f10x_flash.c ****    | FLASH_WaitForLastBank2Operation    |    Yes     |      No       | - Wait for Bank2 last operat
 238:lib/src/stm32f10x_flash.c ****    |-----------------------------------------------------------------------------------------------
 239:lib/src/stm32f10x_flash.c ****    | FLASH_BootConfig                   |    Yes     |      No       | - Configure to boot from Ban
 240:lib/src/stm32f10x_flash.c ****    +-----------------------------------------------------------------------------------------------
 241:lib/src/stm32f10x_flash.c **** @endcode
 242:lib/src/stm32f10x_flash.c **** */
 243:lib/src/stm32f10x_flash.c **** 
 244:lib/src/stm32f10x_flash.c **** 
 245:lib/src/stm32f10x_flash.c **** /**
 246:lib/src/stm32f10x_flash.c ****   * @brief  Sets the code latency value.
 247:lib/src/stm32f10x_flash.c ****   * @note   This function can be used for all STM32F10x devices.
 248:lib/src/stm32f10x_flash.c ****   * @param  FLASH_Latency: specifies the FLASH Latency value.
 249:lib/src/stm32f10x_flash.c ****   *   This parameter can be one of the following values:
 250:lib/src/stm32f10x_flash.c ****   *     @arg FLASH_Latency_0: FLASH Zero Latency cycle
 251:lib/src/stm32f10x_flash.c ****   *     @arg FLASH_Latency_1: FLASH One Latency cycle
 252:lib/src/stm32f10x_flash.c ****   *     @arg FLASH_Latency_2: FLASH Two Latency cycles
 253:lib/src/stm32f10x_flash.c ****   * @retval None
 254:lib/src/stm32f10x_flash.c ****   */
 255:lib/src/stm32f10x_flash.c **** void FLASH_SetLatency(uint32_t FLASH_Latency)
 256:lib/src/stm32f10x_flash.c **** {
  25              		.loc 1 256 0
  26              		.cfi_startproc
  27              		@ args = 0, pretend = 0, frame = 16
  28              		@ frame_needed = 1, uses_anonymous_args = 0
  29              		@ link register save eliminated.
ARM GAS  /tmp/cc7BzgT5.s 			page 6


  30 0000 80B4     		push	{r7}
  31              		.cfi_def_cfa_offset 4
  32              		.cfi_offset 7, -4
  33 0002 85B0     		sub	sp, sp, #20
  34              		.cfi_def_cfa_offset 24
  35 0004 00AF     		add	r7, sp, #0
  36              		.cfi_def_cfa_register 7
  37 0006 7860     		str	r0, [r7, #4]
 257:lib/src/stm32f10x_flash.c ****   uint32_t tmpreg = 0;
  38              		.loc 1 257 0
  39 0008 0023     		movs	r3, #0
  40 000a FB60     		str	r3, [r7, #12]
 258:lib/src/stm32f10x_flash.c ****   
 259:lib/src/stm32f10x_flash.c ****   /* Check the parameters */
 260:lib/src/stm32f10x_flash.c ****   assert_param(IS_FLASH_LATENCY(FLASH_Latency));
 261:lib/src/stm32f10x_flash.c ****   
 262:lib/src/stm32f10x_flash.c ****   /* Read the ACR register */
 263:lib/src/stm32f10x_flash.c ****   tmpreg = FLASH->ACR;  
  41              		.loc 1 263 0
  42 000c 094B     		ldr	r3, .L2
  43 000e 1B68     		ldr	r3, [r3]
  44 0010 FB60     		str	r3, [r7, #12]
 264:lib/src/stm32f10x_flash.c ****   
 265:lib/src/stm32f10x_flash.c ****   /* Sets the Latency value */
 266:lib/src/stm32f10x_flash.c ****   tmpreg &= ACR_LATENCY_Mask;
  45              		.loc 1 266 0
  46 0012 FB68     		ldr	r3, [r7, #12]
  47 0014 03F03803 		and	r3, r3, #56
  48 0018 FB60     		str	r3, [r7, #12]
 267:lib/src/stm32f10x_flash.c ****   tmpreg |= FLASH_Latency;
  49              		.loc 1 267 0
  50 001a FA68     		ldr	r2, [r7, #12]
  51 001c 7B68     		ldr	r3, [r7, #4]
  52 001e 1343     		orrs	r3, r3, r2
  53 0020 FB60     		str	r3, [r7, #12]
 268:lib/src/stm32f10x_flash.c ****   
 269:lib/src/stm32f10x_flash.c ****   /* Write the ACR register */
 270:lib/src/stm32f10x_flash.c ****   FLASH->ACR = tmpreg;
  54              		.loc 1 270 0
  55 0022 044A     		ldr	r2, .L2
  56 0024 FB68     		ldr	r3, [r7, #12]
  57 0026 1360     		str	r3, [r2]
 271:lib/src/stm32f10x_flash.c **** }
  58              		.loc 1 271 0
  59 0028 00BF     		nop
  60 002a 1437     		adds	r7, r7, #20
  61              		.cfi_def_cfa_offset 4
  62 002c BD46     		mov	sp, r7
  63              		.cfi_def_cfa_register 13
  64              		@ sp needed
  65 002e 80BC     		pop	{r7}
  66              		.cfi_restore 7
  67              		.cfi_def_cfa_offset 0
  68 0030 7047     		bx	lr
  69              	.L3:
  70 0032 00BF     		.align	2
  71              	.L2:
ARM GAS  /tmp/cc7BzgT5.s 			page 7


  72 0034 00200240 		.word	1073881088
  73              		.cfi_endproc
  74              	.LFE64:
  75              		.size	FLASH_SetLatency, .-FLASH_SetLatency
  76              		.align	1
  77              		.global	FLASH_HalfCycleAccessCmd
  78              		.syntax unified
  79              		.thumb
  80              		.thumb_func
  81              		.fpu softvfp
  82              		.type	FLASH_HalfCycleAccessCmd, %function
  83              	FLASH_HalfCycleAccessCmd:
  84              	.LFB65:
 272:lib/src/stm32f10x_flash.c **** 
 273:lib/src/stm32f10x_flash.c **** /**
 274:lib/src/stm32f10x_flash.c ****   * @brief  Enables or disables the Half cycle flash access.
 275:lib/src/stm32f10x_flash.c ****   * @note   This function can be used for all STM32F10x devices.
 276:lib/src/stm32f10x_flash.c ****   * @param  FLASH_HalfCycleAccess: specifies the FLASH Half cycle Access mode.
 277:lib/src/stm32f10x_flash.c ****   *   This parameter can be one of the following values:
 278:lib/src/stm32f10x_flash.c ****   *     @arg FLASH_HalfCycleAccess_Enable: FLASH Half Cycle Enable
 279:lib/src/stm32f10x_flash.c ****   *     @arg FLASH_HalfCycleAccess_Disable: FLASH Half Cycle Disable
 280:lib/src/stm32f10x_flash.c ****   * @retval None
 281:lib/src/stm32f10x_flash.c ****   */
 282:lib/src/stm32f10x_flash.c **** void FLASH_HalfCycleAccessCmd(uint32_t FLASH_HalfCycleAccess)
 283:lib/src/stm32f10x_flash.c **** {
  85              		.loc 1 283 0
  86              		.cfi_startproc
  87              		@ args = 0, pretend = 0, frame = 8
  88              		@ frame_needed = 1, uses_anonymous_args = 0
  89              		@ link register save eliminated.
  90 0038 80B4     		push	{r7}
  91              		.cfi_def_cfa_offset 4
  92              		.cfi_offset 7, -4
  93 003a 83B0     		sub	sp, sp, #12
  94              		.cfi_def_cfa_offset 16
  95 003c 00AF     		add	r7, sp, #0
  96              		.cfi_def_cfa_register 7
  97 003e 7860     		str	r0, [r7, #4]
 284:lib/src/stm32f10x_flash.c ****   /* Check the parameters */
 285:lib/src/stm32f10x_flash.c ****   assert_param(IS_FLASH_HALFCYCLEACCESS_STATE(FLASH_HalfCycleAccess));
 286:lib/src/stm32f10x_flash.c ****   
 287:lib/src/stm32f10x_flash.c ****   /* Enable or disable the Half cycle access */
 288:lib/src/stm32f10x_flash.c ****   FLASH->ACR &= ACR_HLFCYA_Mask;
  98              		.loc 1 288 0
  99 0040 084A     		ldr	r2, .L5
 100 0042 084B     		ldr	r3, .L5
 101 0044 1B68     		ldr	r3, [r3]
 102 0046 23F00803 		bic	r3, r3, #8
 103 004a 1360     		str	r3, [r2]
 289:lib/src/stm32f10x_flash.c ****   FLASH->ACR |= FLASH_HalfCycleAccess;
 104              		.loc 1 289 0
 105 004c 0549     		ldr	r1, .L5
 106 004e 054B     		ldr	r3, .L5
 107 0050 1A68     		ldr	r2, [r3]
 108 0052 7B68     		ldr	r3, [r7, #4]
 109 0054 1343     		orrs	r3, r3, r2
 110 0056 0B60     		str	r3, [r1]
ARM GAS  /tmp/cc7BzgT5.s 			page 8


 290:lib/src/stm32f10x_flash.c **** }
 111              		.loc 1 290 0
 112 0058 00BF     		nop
 113 005a 0C37     		adds	r7, r7, #12
 114              		.cfi_def_cfa_offset 4
 115 005c BD46     		mov	sp, r7
 116              		.cfi_def_cfa_register 13
 117              		@ sp needed
 118 005e 80BC     		pop	{r7}
 119              		.cfi_restore 7
 120              		.cfi_def_cfa_offset 0
 121 0060 7047     		bx	lr
 122              	.L6:
 123 0062 00BF     		.align	2
 124              	.L5:
 125 0064 00200240 		.word	1073881088
 126              		.cfi_endproc
 127              	.LFE65:
 128              		.size	FLASH_HalfCycleAccessCmd, .-FLASH_HalfCycleAccessCmd
 129              		.align	1
 130              		.global	FLASH_PrefetchBufferCmd
 131              		.syntax unified
 132              		.thumb
 133              		.thumb_func
 134              		.fpu softvfp
 135              		.type	FLASH_PrefetchBufferCmd, %function
 136              	FLASH_PrefetchBufferCmd:
 137              	.LFB66:
 291:lib/src/stm32f10x_flash.c **** 
 292:lib/src/stm32f10x_flash.c **** /**
 293:lib/src/stm32f10x_flash.c ****   * @brief  Enables or disables the Prefetch Buffer.
 294:lib/src/stm32f10x_flash.c ****   * @note   This function can be used for all STM32F10x devices.
 295:lib/src/stm32f10x_flash.c ****   * @param  FLASH_PrefetchBuffer: specifies the Prefetch buffer status.
 296:lib/src/stm32f10x_flash.c ****   *   This parameter can be one of the following values:
 297:lib/src/stm32f10x_flash.c ****   *     @arg FLASH_PrefetchBuffer_Enable: FLASH Prefetch Buffer Enable
 298:lib/src/stm32f10x_flash.c ****   *     @arg FLASH_PrefetchBuffer_Disable: FLASH Prefetch Buffer Disable
 299:lib/src/stm32f10x_flash.c ****   * @retval None
 300:lib/src/stm32f10x_flash.c ****   */
 301:lib/src/stm32f10x_flash.c **** void FLASH_PrefetchBufferCmd(uint32_t FLASH_PrefetchBuffer)
 302:lib/src/stm32f10x_flash.c **** {
 138              		.loc 1 302 0
 139              		.cfi_startproc
 140              		@ args = 0, pretend = 0, frame = 8
 141              		@ frame_needed = 1, uses_anonymous_args = 0
 142              		@ link register save eliminated.
 143 0068 80B4     		push	{r7}
 144              		.cfi_def_cfa_offset 4
 145              		.cfi_offset 7, -4
 146 006a 83B0     		sub	sp, sp, #12
 147              		.cfi_def_cfa_offset 16
 148 006c 00AF     		add	r7, sp, #0
 149              		.cfi_def_cfa_register 7
 150 006e 7860     		str	r0, [r7, #4]
 303:lib/src/stm32f10x_flash.c ****   /* Check the parameters */
 304:lib/src/stm32f10x_flash.c ****   assert_param(IS_FLASH_PREFETCHBUFFER_STATE(FLASH_PrefetchBuffer));
 305:lib/src/stm32f10x_flash.c ****   
 306:lib/src/stm32f10x_flash.c ****   /* Enable or disable the Prefetch Buffer */
ARM GAS  /tmp/cc7BzgT5.s 			page 9


 307:lib/src/stm32f10x_flash.c ****   FLASH->ACR &= ACR_PRFTBE_Mask;
 151              		.loc 1 307 0
 152 0070 084A     		ldr	r2, .L8
 153 0072 084B     		ldr	r3, .L8
 154 0074 1B68     		ldr	r3, [r3]
 155 0076 23F01003 		bic	r3, r3, #16
 156 007a 1360     		str	r3, [r2]
 308:lib/src/stm32f10x_flash.c ****   FLASH->ACR |= FLASH_PrefetchBuffer;
 157              		.loc 1 308 0
 158 007c 0549     		ldr	r1, .L8
 159 007e 054B     		ldr	r3, .L8
 160 0080 1A68     		ldr	r2, [r3]
 161 0082 7B68     		ldr	r3, [r7, #4]
 162 0084 1343     		orrs	r3, r3, r2
 163 0086 0B60     		str	r3, [r1]
 309:lib/src/stm32f10x_flash.c **** }
 164              		.loc 1 309 0
 165 0088 00BF     		nop
 166 008a 0C37     		adds	r7, r7, #12
 167              		.cfi_def_cfa_offset 4
 168 008c BD46     		mov	sp, r7
 169              		.cfi_def_cfa_register 13
 170              		@ sp needed
 171 008e 80BC     		pop	{r7}
 172              		.cfi_restore 7
 173              		.cfi_def_cfa_offset 0
 174 0090 7047     		bx	lr
 175              	.L9:
 176 0092 00BF     		.align	2
 177              	.L8:
 178 0094 00200240 		.word	1073881088
 179              		.cfi_endproc
 180              	.LFE66:
 181              		.size	FLASH_PrefetchBufferCmd, .-FLASH_PrefetchBufferCmd
 182              		.align	1
 183              		.global	FLASH_Unlock
 184              		.syntax unified
 185              		.thumb
 186              		.thumb_func
 187              		.fpu softvfp
 188              		.type	FLASH_Unlock, %function
 189              	FLASH_Unlock:
 190              	.LFB67:
 310:lib/src/stm32f10x_flash.c **** 
 311:lib/src/stm32f10x_flash.c **** /**
 312:lib/src/stm32f10x_flash.c ****   * @brief  Unlocks the FLASH Program Erase Controller.
 313:lib/src/stm32f10x_flash.c ****   * @note   This function can be used for all STM32F10x devices.
 314:lib/src/stm32f10x_flash.c ****   *         - For STM32F10X_XL devices this function unlocks Bank1 and Bank2.
 315:lib/src/stm32f10x_flash.c ****   *         - For all other devices it unlocks Bank1 and it is equivalent 
 316:lib/src/stm32f10x_flash.c ****   *           to FLASH_UnlockBank1 function.. 
 317:lib/src/stm32f10x_flash.c ****   * @param  None
 318:lib/src/stm32f10x_flash.c ****   * @retval None
 319:lib/src/stm32f10x_flash.c ****   */
 320:lib/src/stm32f10x_flash.c **** void FLASH_Unlock(void)
 321:lib/src/stm32f10x_flash.c **** {
 191              		.loc 1 321 0
 192              		.cfi_startproc
ARM GAS  /tmp/cc7BzgT5.s 			page 10


 193              		@ args = 0, pretend = 0, frame = 0
 194              		@ frame_needed = 1, uses_anonymous_args = 0
 195              		@ link register save eliminated.
 196 0098 80B4     		push	{r7}
 197              		.cfi_def_cfa_offset 4
 198              		.cfi_offset 7, -4
 199 009a 00AF     		add	r7, sp, #0
 200              		.cfi_def_cfa_register 7
 322:lib/src/stm32f10x_flash.c ****   /* Authorize the FPEC of Bank1 Access */
 323:lib/src/stm32f10x_flash.c ****   FLASH->KEYR = FLASH_KEY1;
 201              		.loc 1 323 0
 202 009c 044B     		ldr	r3, .L11
 203 009e 054A     		ldr	r2, .L11+4
 204 00a0 5A60     		str	r2, [r3, #4]
 324:lib/src/stm32f10x_flash.c ****   FLASH->KEYR = FLASH_KEY2;
 205              		.loc 1 324 0
 206 00a2 034B     		ldr	r3, .L11
 207 00a4 044A     		ldr	r2, .L11+8
 208 00a6 5A60     		str	r2, [r3, #4]
 325:lib/src/stm32f10x_flash.c **** 
 326:lib/src/stm32f10x_flash.c **** #ifdef STM32F10X_XL
 327:lib/src/stm32f10x_flash.c ****   /* Authorize the FPEC of Bank2 Access */
 328:lib/src/stm32f10x_flash.c ****   FLASH->KEYR2 = FLASH_KEY1;
 329:lib/src/stm32f10x_flash.c ****   FLASH->KEYR2 = FLASH_KEY2;
 330:lib/src/stm32f10x_flash.c **** #endif /* STM32F10X_XL */
 331:lib/src/stm32f10x_flash.c **** }
 209              		.loc 1 331 0
 210 00a8 00BF     		nop
 211 00aa BD46     		mov	sp, r7
 212              		.cfi_def_cfa_register 13
 213              		@ sp needed
 214 00ac 80BC     		pop	{r7}
 215              		.cfi_restore 7
 216              		.cfi_def_cfa_offset 0
 217 00ae 7047     		bx	lr
 218              	.L12:
 219              		.align	2
 220              	.L11:
 221 00b0 00200240 		.word	1073881088
 222 00b4 23016745 		.word	1164378403
 223 00b8 AB89EFCD 		.word	-839939669
 224              		.cfi_endproc
 225              	.LFE67:
 226              		.size	FLASH_Unlock, .-FLASH_Unlock
 227              		.align	1
 228              		.global	FLASH_UnlockBank1
 229              		.syntax unified
 230              		.thumb
 231              		.thumb_func
 232              		.fpu softvfp
 233              		.type	FLASH_UnlockBank1, %function
 234              	FLASH_UnlockBank1:
 235              	.LFB68:
 332:lib/src/stm32f10x_flash.c **** /**
 333:lib/src/stm32f10x_flash.c ****   * @brief  Unlocks the FLASH Bank1 Program Erase Controller.
 334:lib/src/stm32f10x_flash.c ****   * @note   This function can be used for all STM32F10x devices.
 335:lib/src/stm32f10x_flash.c ****   *         - For STM32F10X_XL devices this function unlocks Bank1.
ARM GAS  /tmp/cc7BzgT5.s 			page 11


 336:lib/src/stm32f10x_flash.c ****   *         - For all other devices it unlocks Bank1 and it is 
 337:lib/src/stm32f10x_flash.c ****   *           equivalent to FLASH_Unlock function.
 338:lib/src/stm32f10x_flash.c ****   * @param  None
 339:lib/src/stm32f10x_flash.c ****   * @retval None
 340:lib/src/stm32f10x_flash.c ****   */
 341:lib/src/stm32f10x_flash.c **** void FLASH_UnlockBank1(void)
 342:lib/src/stm32f10x_flash.c **** {
 236              		.loc 1 342 0
 237              		.cfi_startproc
 238              		@ args = 0, pretend = 0, frame = 0
 239              		@ frame_needed = 1, uses_anonymous_args = 0
 240              		@ link register save eliminated.
 241 00bc 80B4     		push	{r7}
 242              		.cfi_def_cfa_offset 4
 243              		.cfi_offset 7, -4
 244 00be 00AF     		add	r7, sp, #0
 245              		.cfi_def_cfa_register 7
 343:lib/src/stm32f10x_flash.c ****   /* Authorize the FPEC of Bank1 Access */
 344:lib/src/stm32f10x_flash.c ****   FLASH->KEYR = FLASH_KEY1;
 246              		.loc 1 344 0
 247 00c0 044B     		ldr	r3, .L14
 248 00c2 054A     		ldr	r2, .L14+4
 249 00c4 5A60     		str	r2, [r3, #4]
 345:lib/src/stm32f10x_flash.c ****   FLASH->KEYR = FLASH_KEY2;
 250              		.loc 1 345 0
 251 00c6 034B     		ldr	r3, .L14
 252 00c8 044A     		ldr	r2, .L14+8
 253 00ca 5A60     		str	r2, [r3, #4]
 346:lib/src/stm32f10x_flash.c **** }
 254              		.loc 1 346 0
 255 00cc 00BF     		nop
 256 00ce BD46     		mov	sp, r7
 257              		.cfi_def_cfa_register 13
 258              		@ sp needed
 259 00d0 80BC     		pop	{r7}
 260              		.cfi_restore 7
 261              		.cfi_def_cfa_offset 0
 262 00d2 7047     		bx	lr
 263              	.L15:
 264              		.align	2
 265              	.L14:
 266 00d4 00200240 		.word	1073881088
 267 00d8 23016745 		.word	1164378403
 268 00dc AB89EFCD 		.word	-839939669
 269              		.cfi_endproc
 270              	.LFE68:
 271              		.size	FLASH_UnlockBank1, .-FLASH_UnlockBank1
 272              		.align	1
 273              		.global	FLASH_Lock
 274              		.syntax unified
 275              		.thumb
 276              		.thumb_func
 277              		.fpu softvfp
 278              		.type	FLASH_Lock, %function
 279              	FLASH_Lock:
 280              	.LFB69:
 347:lib/src/stm32f10x_flash.c **** 
ARM GAS  /tmp/cc7BzgT5.s 			page 12


 348:lib/src/stm32f10x_flash.c **** #ifdef STM32F10X_XL
 349:lib/src/stm32f10x_flash.c **** /**
 350:lib/src/stm32f10x_flash.c ****   * @brief  Unlocks the FLASH Bank2 Program Erase Controller.
 351:lib/src/stm32f10x_flash.c ****   * @note   This function can be used only for STM32F10X_XL density devices.
 352:lib/src/stm32f10x_flash.c ****   * @param  None
 353:lib/src/stm32f10x_flash.c ****   * @retval None
 354:lib/src/stm32f10x_flash.c ****   */
 355:lib/src/stm32f10x_flash.c **** void FLASH_UnlockBank2(void)
 356:lib/src/stm32f10x_flash.c **** {
 357:lib/src/stm32f10x_flash.c ****   /* Authorize the FPEC of Bank2 Access */
 358:lib/src/stm32f10x_flash.c ****   FLASH->KEYR2 = FLASH_KEY1;
 359:lib/src/stm32f10x_flash.c ****   FLASH->KEYR2 = FLASH_KEY2;
 360:lib/src/stm32f10x_flash.c **** 
 361:lib/src/stm32f10x_flash.c **** }
 362:lib/src/stm32f10x_flash.c **** #endif /* STM32F10X_XL */
 363:lib/src/stm32f10x_flash.c **** 
 364:lib/src/stm32f10x_flash.c **** /**
 365:lib/src/stm32f10x_flash.c ****   * @brief  Locks the FLASH Program Erase Controller.
 366:lib/src/stm32f10x_flash.c ****   * @note   This function can be used for all STM32F10x devices.
 367:lib/src/stm32f10x_flash.c ****   *         - For STM32F10X_XL devices this function Locks Bank1 and Bank2.
 368:lib/src/stm32f10x_flash.c ****   *         - For all other devices it Locks Bank1 and it is equivalent 
 369:lib/src/stm32f10x_flash.c ****   *           to FLASH_LockBank1 function.
 370:lib/src/stm32f10x_flash.c ****   * @param  None
 371:lib/src/stm32f10x_flash.c ****   * @retval None
 372:lib/src/stm32f10x_flash.c ****   */
 373:lib/src/stm32f10x_flash.c **** void FLASH_Lock(void)
 374:lib/src/stm32f10x_flash.c **** {
 281              		.loc 1 374 0
 282              		.cfi_startproc
 283              		@ args = 0, pretend = 0, frame = 0
 284              		@ frame_needed = 1, uses_anonymous_args = 0
 285              		@ link register save eliminated.
 286 00e0 80B4     		push	{r7}
 287              		.cfi_def_cfa_offset 4
 288              		.cfi_offset 7, -4
 289 00e2 00AF     		add	r7, sp, #0
 290              		.cfi_def_cfa_register 7
 375:lib/src/stm32f10x_flash.c ****   /* Set the Lock Bit to lock the FPEC and the CR of  Bank1 */
 376:lib/src/stm32f10x_flash.c ****   FLASH->CR |= CR_LOCK_Set;
 291              		.loc 1 376 0
 292 00e4 044A     		ldr	r2, .L17
 293 00e6 044B     		ldr	r3, .L17
 294 00e8 1B69     		ldr	r3, [r3, #16]
 295 00ea 43F08003 		orr	r3, r3, #128
 296 00ee 1361     		str	r3, [r2, #16]
 377:lib/src/stm32f10x_flash.c **** 
 378:lib/src/stm32f10x_flash.c **** #ifdef STM32F10X_XL
 379:lib/src/stm32f10x_flash.c ****   /* Set the Lock Bit to lock the FPEC and the CR of  Bank2 */
 380:lib/src/stm32f10x_flash.c ****   FLASH->CR2 |= CR_LOCK_Set;
 381:lib/src/stm32f10x_flash.c **** #endif /* STM32F10X_XL */
 382:lib/src/stm32f10x_flash.c **** }
 297              		.loc 1 382 0
 298 00f0 00BF     		nop
 299 00f2 BD46     		mov	sp, r7
 300              		.cfi_def_cfa_register 13
 301              		@ sp needed
 302 00f4 80BC     		pop	{r7}
ARM GAS  /tmp/cc7BzgT5.s 			page 13


 303              		.cfi_restore 7
 304              		.cfi_def_cfa_offset 0
 305 00f6 7047     		bx	lr
 306              	.L18:
 307              		.align	2
 308              	.L17:
 309 00f8 00200240 		.word	1073881088
 310              		.cfi_endproc
 311              	.LFE69:
 312              		.size	FLASH_Lock, .-FLASH_Lock
 313              		.align	1
 314              		.global	FLASH_LockBank1
 315              		.syntax unified
 316              		.thumb
 317              		.thumb_func
 318              		.fpu softvfp
 319              		.type	FLASH_LockBank1, %function
 320              	FLASH_LockBank1:
 321              	.LFB70:
 383:lib/src/stm32f10x_flash.c **** 
 384:lib/src/stm32f10x_flash.c **** /**
 385:lib/src/stm32f10x_flash.c ****   * @brief  Locks the FLASH Bank1 Program Erase Controller.
 386:lib/src/stm32f10x_flash.c ****   * @note   this function can be used for all STM32F10x devices.
 387:lib/src/stm32f10x_flash.c ****   *         - For STM32F10X_XL devices this function Locks Bank1.
 388:lib/src/stm32f10x_flash.c ****   *         - For all other devices it Locks Bank1 and it is equivalent 
 389:lib/src/stm32f10x_flash.c ****   *           to FLASH_Lock function.
 390:lib/src/stm32f10x_flash.c ****   * @param  None
 391:lib/src/stm32f10x_flash.c ****   * @retval None
 392:lib/src/stm32f10x_flash.c ****   */
 393:lib/src/stm32f10x_flash.c **** void FLASH_LockBank1(void)
 394:lib/src/stm32f10x_flash.c **** {
 322              		.loc 1 394 0
 323              		.cfi_startproc
 324              		@ args = 0, pretend = 0, frame = 0
 325              		@ frame_needed = 1, uses_anonymous_args = 0
 326              		@ link register save eliminated.
 327 00fc 80B4     		push	{r7}
 328              		.cfi_def_cfa_offset 4
 329              		.cfi_offset 7, -4
 330 00fe 00AF     		add	r7, sp, #0
 331              		.cfi_def_cfa_register 7
 395:lib/src/stm32f10x_flash.c ****   /* Set the Lock Bit to lock the FPEC and the CR of  Bank1 */
 396:lib/src/stm32f10x_flash.c ****   FLASH->CR |= CR_LOCK_Set;
 332              		.loc 1 396 0
 333 0100 044A     		ldr	r2, .L20
 334 0102 044B     		ldr	r3, .L20
 335 0104 1B69     		ldr	r3, [r3, #16]
 336 0106 43F08003 		orr	r3, r3, #128
 337 010a 1361     		str	r3, [r2, #16]
 397:lib/src/stm32f10x_flash.c **** }
 338              		.loc 1 397 0
 339 010c 00BF     		nop
 340 010e BD46     		mov	sp, r7
 341              		.cfi_def_cfa_register 13
 342              		@ sp needed
 343 0110 80BC     		pop	{r7}
 344              		.cfi_restore 7
ARM GAS  /tmp/cc7BzgT5.s 			page 14


 345              		.cfi_def_cfa_offset 0
 346 0112 7047     		bx	lr
 347              	.L21:
 348              		.align	2
 349              	.L20:
 350 0114 00200240 		.word	1073881088
 351              		.cfi_endproc
 352              	.LFE70:
 353              		.size	FLASH_LockBank1, .-FLASH_LockBank1
 354              		.align	1
 355              		.global	FLASH_ErasePage
 356              		.syntax unified
 357              		.thumb
 358              		.thumb_func
 359              		.fpu softvfp
 360              		.type	FLASH_ErasePage, %function
 361              	FLASH_ErasePage:
 362              	.LFB71:
 398:lib/src/stm32f10x_flash.c **** 
 399:lib/src/stm32f10x_flash.c **** #ifdef STM32F10X_XL
 400:lib/src/stm32f10x_flash.c **** /**
 401:lib/src/stm32f10x_flash.c ****   * @brief  Locks the FLASH Bank2 Program Erase Controller.
 402:lib/src/stm32f10x_flash.c ****   * @note   This function can be used only for STM32F10X_XL density devices.
 403:lib/src/stm32f10x_flash.c ****   * @param  None
 404:lib/src/stm32f10x_flash.c ****   * @retval None
 405:lib/src/stm32f10x_flash.c ****   */
 406:lib/src/stm32f10x_flash.c **** void FLASH_LockBank2(void)
 407:lib/src/stm32f10x_flash.c **** {
 408:lib/src/stm32f10x_flash.c ****   /* Set the Lock Bit to lock the FPEC and the CR of  Bank2 */
 409:lib/src/stm32f10x_flash.c ****   FLASH->CR2 |= CR_LOCK_Set;
 410:lib/src/stm32f10x_flash.c **** }
 411:lib/src/stm32f10x_flash.c **** #endif /* STM32F10X_XL */
 412:lib/src/stm32f10x_flash.c **** 
 413:lib/src/stm32f10x_flash.c **** /**
 414:lib/src/stm32f10x_flash.c ****   * @brief  Erases a specified FLASH page.
 415:lib/src/stm32f10x_flash.c ****   * @note   This function can be used for all STM32F10x devices.
 416:lib/src/stm32f10x_flash.c ****   * @param  Page_Address: The page address to be erased.
 417:lib/src/stm32f10x_flash.c ****   * @retval FLASH Status: The returned value can be: FLASH_BUSY, FLASH_ERROR_PG,
 418:lib/src/stm32f10x_flash.c ****   *         FLASH_ERROR_WRP, FLASH_COMPLETE or FLASH_TIMEOUT.
 419:lib/src/stm32f10x_flash.c ****   */
 420:lib/src/stm32f10x_flash.c **** FLASH_Status FLASH_ErasePage(uint32_t Page_Address)
 421:lib/src/stm32f10x_flash.c **** {
 363              		.loc 1 421 0
 364              		.cfi_startproc
 365              		@ args = 0, pretend = 0, frame = 16
 366              		@ frame_needed = 1, uses_anonymous_args = 0
 367 0118 80B5     		push	{r7, lr}
 368              		.cfi_def_cfa_offset 8
 369              		.cfi_offset 7, -8
 370              		.cfi_offset 14, -4
 371 011a 84B0     		sub	sp, sp, #16
 372              		.cfi_def_cfa_offset 24
 373 011c 00AF     		add	r7, sp, #0
 374              		.cfi_def_cfa_register 7
 375 011e 7860     		str	r0, [r7, #4]
 422:lib/src/stm32f10x_flash.c ****   FLASH_Status status = FLASH_COMPLETE;
 376              		.loc 1 422 0
ARM GAS  /tmp/cc7BzgT5.s 			page 15


 377 0120 0423     		movs	r3, #4
 378 0122 FB73     		strb	r3, [r7, #15]
 423:lib/src/stm32f10x_flash.c ****   /* Check the parameters */
 424:lib/src/stm32f10x_flash.c ****   assert_param(IS_FLASH_ADDRESS(Page_Address));
 425:lib/src/stm32f10x_flash.c **** 
 426:lib/src/stm32f10x_flash.c **** #ifdef STM32F10X_XL
 427:lib/src/stm32f10x_flash.c ****   if(Page_Address < FLASH_BANK1_END_ADDRESS)  
 428:lib/src/stm32f10x_flash.c ****   {
 429:lib/src/stm32f10x_flash.c ****     /* Wait for last operation to be completed */
 430:lib/src/stm32f10x_flash.c ****     status = FLASH_WaitForLastBank1Operation(EraseTimeout);
 431:lib/src/stm32f10x_flash.c ****     if(status == FLASH_COMPLETE)
 432:lib/src/stm32f10x_flash.c ****     { 
 433:lib/src/stm32f10x_flash.c ****       /* if the previous operation is completed, proceed to erase the page */
 434:lib/src/stm32f10x_flash.c ****       FLASH->CR|= CR_PER_Set;
 435:lib/src/stm32f10x_flash.c ****       FLASH->AR = Page_Address; 
 436:lib/src/stm32f10x_flash.c ****       FLASH->CR|= CR_STRT_Set;
 437:lib/src/stm32f10x_flash.c ****     
 438:lib/src/stm32f10x_flash.c ****       /* Wait for last operation to be completed */
 439:lib/src/stm32f10x_flash.c ****       status = FLASH_WaitForLastBank1Operation(EraseTimeout);
 440:lib/src/stm32f10x_flash.c **** 
 441:lib/src/stm32f10x_flash.c ****       /* Disable the PER Bit */
 442:lib/src/stm32f10x_flash.c ****       FLASH->CR &= CR_PER_Reset;
 443:lib/src/stm32f10x_flash.c ****     }
 444:lib/src/stm32f10x_flash.c ****   }
 445:lib/src/stm32f10x_flash.c ****   else
 446:lib/src/stm32f10x_flash.c ****   {
 447:lib/src/stm32f10x_flash.c ****     /* Wait for last operation to be completed */
 448:lib/src/stm32f10x_flash.c ****     status = FLASH_WaitForLastBank2Operation(EraseTimeout);
 449:lib/src/stm32f10x_flash.c ****     if(status == FLASH_COMPLETE)
 450:lib/src/stm32f10x_flash.c ****     { 
 451:lib/src/stm32f10x_flash.c ****       /* if the previous operation is completed, proceed to erase the page */
 452:lib/src/stm32f10x_flash.c ****       FLASH->CR2|= CR_PER_Set;
 453:lib/src/stm32f10x_flash.c ****       FLASH->AR2 = Page_Address; 
 454:lib/src/stm32f10x_flash.c ****       FLASH->CR2|= CR_STRT_Set;
 455:lib/src/stm32f10x_flash.c ****     
 456:lib/src/stm32f10x_flash.c ****       /* Wait for last operation to be completed */
 457:lib/src/stm32f10x_flash.c ****       status = FLASH_WaitForLastBank2Operation(EraseTimeout);
 458:lib/src/stm32f10x_flash.c ****       
 459:lib/src/stm32f10x_flash.c ****       /* Disable the PER Bit */
 460:lib/src/stm32f10x_flash.c ****       FLASH->CR2 &= CR_PER_Reset;
 461:lib/src/stm32f10x_flash.c ****     }
 462:lib/src/stm32f10x_flash.c ****   }
 463:lib/src/stm32f10x_flash.c **** #else
 464:lib/src/stm32f10x_flash.c ****   /* Wait for last operation to be completed */
 465:lib/src/stm32f10x_flash.c ****   status = FLASH_WaitForLastOperation(EraseTimeout);
 379              		.loc 1 465 0
 380 0124 4FF43020 		mov	r0, #720896
 381 0128 FFF7FEFF 		bl	FLASH_WaitForLastOperation
 382 012c 0346     		mov	r3, r0
 383 012e FB73     		strb	r3, [r7, #15]
 466:lib/src/stm32f10x_flash.c ****   
 467:lib/src/stm32f10x_flash.c ****   if(status == FLASH_COMPLETE)
 384              		.loc 1 467 0
 385 0130 FB7B     		ldrb	r3, [r7, #15]	@ zero_extendqisi2
 386 0132 042B     		cmp	r3, #4
 387 0134 1BD1     		bne	.L23
 468:lib/src/stm32f10x_flash.c ****   { 
ARM GAS  /tmp/cc7BzgT5.s 			page 16


 469:lib/src/stm32f10x_flash.c ****     /* if the previous operation is completed, proceed to erase the page */
 470:lib/src/stm32f10x_flash.c ****     FLASH->CR|= CR_PER_Set;
 388              		.loc 1 470 0
 389 0136 104A     		ldr	r2, .L25
 390 0138 0F4B     		ldr	r3, .L25
 391 013a 1B69     		ldr	r3, [r3, #16]
 392 013c 43F00203 		orr	r3, r3, #2
 393 0140 1361     		str	r3, [r2, #16]
 471:lib/src/stm32f10x_flash.c ****     FLASH->AR = Page_Address; 
 394              		.loc 1 471 0
 395 0142 0D4A     		ldr	r2, .L25
 396 0144 7B68     		ldr	r3, [r7, #4]
 397 0146 5361     		str	r3, [r2, #20]
 472:lib/src/stm32f10x_flash.c ****     FLASH->CR|= CR_STRT_Set;
 398              		.loc 1 472 0
 399 0148 0B4A     		ldr	r2, .L25
 400 014a 0B4B     		ldr	r3, .L25
 401 014c 1B69     		ldr	r3, [r3, #16]
 402 014e 43F04003 		orr	r3, r3, #64
 403 0152 1361     		str	r3, [r2, #16]
 473:lib/src/stm32f10x_flash.c ****     
 474:lib/src/stm32f10x_flash.c ****     /* Wait for last operation to be completed */
 475:lib/src/stm32f10x_flash.c ****     status = FLASH_WaitForLastOperation(EraseTimeout);
 404              		.loc 1 475 0
 405 0154 4FF43020 		mov	r0, #720896
 406 0158 FFF7FEFF 		bl	FLASH_WaitForLastOperation
 407 015c 0346     		mov	r3, r0
 408 015e FB73     		strb	r3, [r7, #15]
 476:lib/src/stm32f10x_flash.c ****     
 477:lib/src/stm32f10x_flash.c ****     /* Disable the PER Bit */
 478:lib/src/stm32f10x_flash.c ****     FLASH->CR &= CR_PER_Reset;
 409              		.loc 1 478 0
 410 0160 0549     		ldr	r1, .L25
 411 0162 054B     		ldr	r3, .L25
 412 0164 1A69     		ldr	r2, [r3, #16]
 413 0166 41F6FD73 		movw	r3, #8189
 414 016a 1340     		ands	r3, r3, r2
 415 016c 0B61     		str	r3, [r1, #16]
 416              	.L23:
 479:lib/src/stm32f10x_flash.c ****   }
 480:lib/src/stm32f10x_flash.c **** #endif /* STM32F10X_XL */
 481:lib/src/stm32f10x_flash.c **** 
 482:lib/src/stm32f10x_flash.c ****   /* Return the Erase Status */
 483:lib/src/stm32f10x_flash.c ****   return status;
 417              		.loc 1 483 0
 418 016e FB7B     		ldrb	r3, [r7, #15]	@ zero_extendqisi2
 484:lib/src/stm32f10x_flash.c **** }
 419              		.loc 1 484 0
 420 0170 1846     		mov	r0, r3
 421 0172 1037     		adds	r7, r7, #16
 422              		.cfi_def_cfa_offset 8
 423 0174 BD46     		mov	sp, r7
 424              		.cfi_def_cfa_register 13
 425              		@ sp needed
 426 0176 80BD     		pop	{r7, pc}
 427              	.L26:
 428              		.align	2
ARM GAS  /tmp/cc7BzgT5.s 			page 17


 429              	.L25:
 430 0178 00200240 		.word	1073881088
 431              		.cfi_endproc
 432              	.LFE71:
 433              		.size	FLASH_ErasePage, .-FLASH_ErasePage
 434              		.align	1
 435              		.global	FLASH_EraseAllPages
 436              		.syntax unified
 437              		.thumb
 438              		.thumb_func
 439              		.fpu softvfp
 440              		.type	FLASH_EraseAllPages, %function
 441              	FLASH_EraseAllPages:
 442              	.LFB72:
 485:lib/src/stm32f10x_flash.c **** 
 486:lib/src/stm32f10x_flash.c **** /**
 487:lib/src/stm32f10x_flash.c ****   * @brief  Erases all FLASH pages.
 488:lib/src/stm32f10x_flash.c ****   * @note   This function can be used for all STM32F10x devices.
 489:lib/src/stm32f10x_flash.c ****   * @param  None
 490:lib/src/stm32f10x_flash.c ****   * @retval FLASH Status: The returned value can be: FLASH_ERROR_PG,
 491:lib/src/stm32f10x_flash.c ****   *         FLASH_ERROR_WRP, FLASH_COMPLETE or FLASH_TIMEOUT.
 492:lib/src/stm32f10x_flash.c ****   */
 493:lib/src/stm32f10x_flash.c **** FLASH_Status FLASH_EraseAllPages(void)
 494:lib/src/stm32f10x_flash.c **** {
 443              		.loc 1 494 0
 444              		.cfi_startproc
 445              		@ args = 0, pretend = 0, frame = 8
 446              		@ frame_needed = 1, uses_anonymous_args = 0
 447 017c 80B5     		push	{r7, lr}
 448              		.cfi_def_cfa_offset 8
 449              		.cfi_offset 7, -8
 450              		.cfi_offset 14, -4
 451 017e 82B0     		sub	sp, sp, #8
 452              		.cfi_def_cfa_offset 16
 453 0180 00AF     		add	r7, sp, #0
 454              		.cfi_def_cfa_register 7
 495:lib/src/stm32f10x_flash.c ****   FLASH_Status status = FLASH_COMPLETE;
 455              		.loc 1 495 0
 456 0182 0423     		movs	r3, #4
 457 0184 FB71     		strb	r3, [r7, #7]
 496:lib/src/stm32f10x_flash.c **** 
 497:lib/src/stm32f10x_flash.c **** #ifdef STM32F10X_XL
 498:lib/src/stm32f10x_flash.c ****   /* Wait for last operation to be completed */
 499:lib/src/stm32f10x_flash.c ****   status = FLASH_WaitForLastBank1Operation(EraseTimeout);
 500:lib/src/stm32f10x_flash.c ****   
 501:lib/src/stm32f10x_flash.c ****   if(status == FLASH_COMPLETE)
 502:lib/src/stm32f10x_flash.c ****   {
 503:lib/src/stm32f10x_flash.c ****     /* if the previous operation is completed, proceed to erase all pages */
 504:lib/src/stm32f10x_flash.c ****      FLASH->CR |= CR_MER_Set;
 505:lib/src/stm32f10x_flash.c ****      FLASH->CR |= CR_STRT_Set;
 506:lib/src/stm32f10x_flash.c ****     
 507:lib/src/stm32f10x_flash.c ****     /* Wait for last operation to be completed */
 508:lib/src/stm32f10x_flash.c ****     status = FLASH_WaitForLastBank1Operation(EraseTimeout);
 509:lib/src/stm32f10x_flash.c ****     
 510:lib/src/stm32f10x_flash.c ****     /* Disable the MER Bit */
 511:lib/src/stm32f10x_flash.c ****     FLASH->CR &= CR_MER_Reset;
 512:lib/src/stm32f10x_flash.c ****   }    
ARM GAS  /tmp/cc7BzgT5.s 			page 18


 513:lib/src/stm32f10x_flash.c ****   if(status == FLASH_COMPLETE)
 514:lib/src/stm32f10x_flash.c ****   {
 515:lib/src/stm32f10x_flash.c ****     /* if the previous operation is completed, proceed to erase all pages */
 516:lib/src/stm32f10x_flash.c ****      FLASH->CR2 |= CR_MER_Set;
 517:lib/src/stm32f10x_flash.c ****      FLASH->CR2 |= CR_STRT_Set;
 518:lib/src/stm32f10x_flash.c ****     
 519:lib/src/stm32f10x_flash.c ****     /* Wait for last operation to be completed */
 520:lib/src/stm32f10x_flash.c ****     status = FLASH_WaitForLastBank2Operation(EraseTimeout);
 521:lib/src/stm32f10x_flash.c ****     
 522:lib/src/stm32f10x_flash.c ****     /* Disable the MER Bit */
 523:lib/src/stm32f10x_flash.c ****     FLASH->CR2 &= CR_MER_Reset;
 524:lib/src/stm32f10x_flash.c ****   }
 525:lib/src/stm32f10x_flash.c **** #else
 526:lib/src/stm32f10x_flash.c ****   /* Wait for last operation to be completed */
 527:lib/src/stm32f10x_flash.c ****   status = FLASH_WaitForLastOperation(EraseTimeout);
 458              		.loc 1 527 0
 459 0186 4FF43020 		mov	r0, #720896
 460 018a FFF7FEFF 		bl	FLASH_WaitForLastOperation
 461 018e 0346     		mov	r3, r0
 462 0190 FB71     		strb	r3, [r7, #7]
 528:lib/src/stm32f10x_flash.c ****   if(status == FLASH_COMPLETE)
 463              		.loc 1 528 0
 464 0192 FB79     		ldrb	r3, [r7, #7]	@ zero_extendqisi2
 465 0194 042B     		cmp	r3, #4
 466 0196 18D1     		bne	.L28
 529:lib/src/stm32f10x_flash.c ****   {
 530:lib/src/stm32f10x_flash.c ****     /* if the previous operation is completed, proceed to erase all pages */
 531:lib/src/stm32f10x_flash.c ****      FLASH->CR |= CR_MER_Set;
 467              		.loc 1 531 0
 468 0198 0E4A     		ldr	r2, .L30
 469 019a 0E4B     		ldr	r3, .L30
 470 019c 1B69     		ldr	r3, [r3, #16]
 471 019e 43F00403 		orr	r3, r3, #4
 472 01a2 1361     		str	r3, [r2, #16]
 532:lib/src/stm32f10x_flash.c ****      FLASH->CR |= CR_STRT_Set;
 473              		.loc 1 532 0
 474 01a4 0B4A     		ldr	r2, .L30
 475 01a6 0B4B     		ldr	r3, .L30
 476 01a8 1B69     		ldr	r3, [r3, #16]
 477 01aa 43F04003 		orr	r3, r3, #64
 478 01ae 1361     		str	r3, [r2, #16]
 533:lib/src/stm32f10x_flash.c ****     
 534:lib/src/stm32f10x_flash.c ****     /* Wait for last operation to be completed */
 535:lib/src/stm32f10x_flash.c ****     status = FLASH_WaitForLastOperation(EraseTimeout);
 479              		.loc 1 535 0
 480 01b0 4FF43020 		mov	r0, #720896
 481 01b4 FFF7FEFF 		bl	FLASH_WaitForLastOperation
 482 01b8 0346     		mov	r3, r0
 483 01ba FB71     		strb	r3, [r7, #7]
 536:lib/src/stm32f10x_flash.c **** 
 537:lib/src/stm32f10x_flash.c ****     /* Disable the MER Bit */
 538:lib/src/stm32f10x_flash.c ****     FLASH->CR &= CR_MER_Reset;
 484              		.loc 1 538 0
 485 01bc 0549     		ldr	r1, .L30
 486 01be 054B     		ldr	r3, .L30
 487 01c0 1A69     		ldr	r2, [r3, #16]
 488 01c2 41F6FB73 		movw	r3, #8187
ARM GAS  /tmp/cc7BzgT5.s 			page 19


 489 01c6 1340     		ands	r3, r3, r2
 490 01c8 0B61     		str	r3, [r1, #16]
 491              	.L28:
 539:lib/src/stm32f10x_flash.c ****   }
 540:lib/src/stm32f10x_flash.c **** #endif /* STM32F10X_XL */
 541:lib/src/stm32f10x_flash.c **** 
 542:lib/src/stm32f10x_flash.c ****   /* Return the Erase Status */
 543:lib/src/stm32f10x_flash.c ****   return status;
 492              		.loc 1 543 0
 493 01ca FB79     		ldrb	r3, [r7, #7]	@ zero_extendqisi2
 544:lib/src/stm32f10x_flash.c **** }
 494              		.loc 1 544 0
 495 01cc 1846     		mov	r0, r3
 496 01ce 0837     		adds	r7, r7, #8
 497              		.cfi_def_cfa_offset 8
 498 01d0 BD46     		mov	sp, r7
 499              		.cfi_def_cfa_register 13
 500              		@ sp needed
 501 01d2 80BD     		pop	{r7, pc}
 502              	.L31:
 503              		.align	2
 504              	.L30:
 505 01d4 00200240 		.word	1073881088
 506              		.cfi_endproc
 507              	.LFE72:
 508              		.size	FLASH_EraseAllPages, .-FLASH_EraseAllPages
 509              		.align	1
 510              		.global	FLASH_EraseAllBank1Pages
 511              		.syntax unified
 512              		.thumb
 513              		.thumb_func
 514              		.fpu softvfp
 515              		.type	FLASH_EraseAllBank1Pages, %function
 516              	FLASH_EraseAllBank1Pages:
 517              	.LFB73:
 545:lib/src/stm32f10x_flash.c **** 
 546:lib/src/stm32f10x_flash.c **** /**
 547:lib/src/stm32f10x_flash.c ****   * @brief  Erases all Bank1 FLASH pages.
 548:lib/src/stm32f10x_flash.c ****   * @note   This function can be used for all STM32F10x devices.
 549:lib/src/stm32f10x_flash.c ****   *         - For STM32F10X_XL devices this function erases all Bank1 pages.
 550:lib/src/stm32f10x_flash.c ****   *         - For all other devices it erases all Bank1 pages and it is equivalent 
 551:lib/src/stm32f10x_flash.c ****   *           to FLASH_EraseAllPages function.
 552:lib/src/stm32f10x_flash.c ****   * @param  None
 553:lib/src/stm32f10x_flash.c ****   * @retval FLASH Status: The returned value can be: FLASH_ERROR_PG,
 554:lib/src/stm32f10x_flash.c ****   *         FLASH_ERROR_WRP, FLASH_COMPLETE or FLASH_TIMEOUT.
 555:lib/src/stm32f10x_flash.c ****   */
 556:lib/src/stm32f10x_flash.c **** FLASH_Status FLASH_EraseAllBank1Pages(void)
 557:lib/src/stm32f10x_flash.c **** {
 518              		.loc 1 557 0
 519              		.cfi_startproc
 520              		@ args = 0, pretend = 0, frame = 8
 521              		@ frame_needed = 1, uses_anonymous_args = 0
 522 01d8 80B5     		push	{r7, lr}
 523              		.cfi_def_cfa_offset 8
 524              		.cfi_offset 7, -8
 525              		.cfi_offset 14, -4
 526 01da 82B0     		sub	sp, sp, #8
ARM GAS  /tmp/cc7BzgT5.s 			page 20


 527              		.cfi_def_cfa_offset 16
 528 01dc 00AF     		add	r7, sp, #0
 529              		.cfi_def_cfa_register 7
 558:lib/src/stm32f10x_flash.c ****   FLASH_Status status = FLASH_COMPLETE;
 530              		.loc 1 558 0
 531 01de 0423     		movs	r3, #4
 532 01e0 FB71     		strb	r3, [r7, #7]
 559:lib/src/stm32f10x_flash.c ****   /* Wait for last operation to be completed */
 560:lib/src/stm32f10x_flash.c ****   status = FLASH_WaitForLastBank1Operation(EraseTimeout);
 533              		.loc 1 560 0
 534 01e2 4FF43020 		mov	r0, #720896
 535 01e6 FFF7FEFF 		bl	FLASH_WaitForLastBank1Operation
 536 01ea 0346     		mov	r3, r0
 537 01ec FB71     		strb	r3, [r7, #7]
 561:lib/src/stm32f10x_flash.c ****   
 562:lib/src/stm32f10x_flash.c ****   if(status == FLASH_COMPLETE)
 538              		.loc 1 562 0
 539 01ee FB79     		ldrb	r3, [r7, #7]	@ zero_extendqisi2
 540 01f0 042B     		cmp	r3, #4
 541 01f2 18D1     		bne	.L33
 563:lib/src/stm32f10x_flash.c ****   {
 564:lib/src/stm32f10x_flash.c ****     /* if the previous operation is completed, proceed to erase all pages */
 565:lib/src/stm32f10x_flash.c ****      FLASH->CR |= CR_MER_Set;
 542              		.loc 1 565 0
 543 01f4 0E4A     		ldr	r2, .L35
 544 01f6 0E4B     		ldr	r3, .L35
 545 01f8 1B69     		ldr	r3, [r3, #16]
 546 01fa 43F00403 		orr	r3, r3, #4
 547 01fe 1361     		str	r3, [r2, #16]
 566:lib/src/stm32f10x_flash.c ****      FLASH->CR |= CR_STRT_Set;
 548              		.loc 1 566 0
 549 0200 0B4A     		ldr	r2, .L35
 550 0202 0B4B     		ldr	r3, .L35
 551 0204 1B69     		ldr	r3, [r3, #16]
 552 0206 43F04003 		orr	r3, r3, #64
 553 020a 1361     		str	r3, [r2, #16]
 567:lib/src/stm32f10x_flash.c ****     
 568:lib/src/stm32f10x_flash.c ****     /* Wait for last operation to be completed */
 569:lib/src/stm32f10x_flash.c ****     status = FLASH_WaitForLastBank1Operation(EraseTimeout);
 554              		.loc 1 569 0
 555 020c 4FF43020 		mov	r0, #720896
 556 0210 FFF7FEFF 		bl	FLASH_WaitForLastBank1Operation
 557 0214 0346     		mov	r3, r0
 558 0216 FB71     		strb	r3, [r7, #7]
 570:lib/src/stm32f10x_flash.c ****     
 571:lib/src/stm32f10x_flash.c ****     /* Disable the MER Bit */
 572:lib/src/stm32f10x_flash.c ****     FLASH->CR &= CR_MER_Reset;
 559              		.loc 1 572 0
 560 0218 0549     		ldr	r1, .L35
 561 021a 054B     		ldr	r3, .L35
 562 021c 1A69     		ldr	r2, [r3, #16]
 563 021e 41F6FB73 		movw	r3, #8187
 564 0222 1340     		ands	r3, r3, r2
 565 0224 0B61     		str	r3, [r1, #16]
 566              	.L33:
 573:lib/src/stm32f10x_flash.c ****   }    
 574:lib/src/stm32f10x_flash.c ****   /* Return the Erase Status */
ARM GAS  /tmp/cc7BzgT5.s 			page 21


 575:lib/src/stm32f10x_flash.c ****   return status;
 567              		.loc 1 575 0
 568 0226 FB79     		ldrb	r3, [r7, #7]	@ zero_extendqisi2
 576:lib/src/stm32f10x_flash.c **** }
 569              		.loc 1 576 0
 570 0228 1846     		mov	r0, r3
 571 022a 0837     		adds	r7, r7, #8
 572              		.cfi_def_cfa_offset 8
 573 022c BD46     		mov	sp, r7
 574              		.cfi_def_cfa_register 13
 575              		@ sp needed
 576 022e 80BD     		pop	{r7, pc}
 577              	.L36:
 578              		.align	2
 579              	.L35:
 580 0230 00200240 		.word	1073881088
 581              		.cfi_endproc
 582              	.LFE73:
 583              		.size	FLASH_EraseAllBank1Pages, .-FLASH_EraseAllBank1Pages
 584              		.align	1
 585              		.global	FLASH_EraseOptionBytes
 586              		.syntax unified
 587              		.thumb
 588              		.thumb_func
 589              		.fpu softvfp
 590              		.type	FLASH_EraseOptionBytes, %function
 591              	FLASH_EraseOptionBytes:
 592              	.LFB74:
 577:lib/src/stm32f10x_flash.c **** 
 578:lib/src/stm32f10x_flash.c **** #ifdef STM32F10X_XL
 579:lib/src/stm32f10x_flash.c **** /**
 580:lib/src/stm32f10x_flash.c ****   * @brief  Erases all Bank2 FLASH pages.
 581:lib/src/stm32f10x_flash.c ****   * @note   This function can be used only for STM32F10x_XL density devices.
 582:lib/src/stm32f10x_flash.c ****   * @param  None
 583:lib/src/stm32f10x_flash.c ****   * @retval FLASH Status: The returned value can be: FLASH_ERROR_PG,
 584:lib/src/stm32f10x_flash.c ****   *         FLASH_ERROR_WRP, FLASH_COMPLETE or FLASH_TIMEOUT.
 585:lib/src/stm32f10x_flash.c ****   */
 586:lib/src/stm32f10x_flash.c **** FLASH_Status FLASH_EraseAllBank2Pages(void)
 587:lib/src/stm32f10x_flash.c **** {
 588:lib/src/stm32f10x_flash.c ****   FLASH_Status status = FLASH_COMPLETE;
 589:lib/src/stm32f10x_flash.c ****   /* Wait for last operation to be completed */
 590:lib/src/stm32f10x_flash.c ****   status = FLASH_WaitForLastBank2Operation(EraseTimeout);
 591:lib/src/stm32f10x_flash.c ****   
 592:lib/src/stm32f10x_flash.c ****   if(status == FLASH_COMPLETE)
 593:lib/src/stm32f10x_flash.c ****   {
 594:lib/src/stm32f10x_flash.c ****     /* if the previous operation is completed, proceed to erase all pages */
 595:lib/src/stm32f10x_flash.c ****      FLASH->CR2 |= CR_MER_Set;
 596:lib/src/stm32f10x_flash.c ****      FLASH->CR2 |= CR_STRT_Set;
 597:lib/src/stm32f10x_flash.c ****     
 598:lib/src/stm32f10x_flash.c ****     /* Wait for last operation to be completed */
 599:lib/src/stm32f10x_flash.c ****     status = FLASH_WaitForLastBank2Operation(EraseTimeout);
 600:lib/src/stm32f10x_flash.c **** 
 601:lib/src/stm32f10x_flash.c ****     /* Disable the MER Bit */
 602:lib/src/stm32f10x_flash.c ****     FLASH->CR2 &= CR_MER_Reset;
 603:lib/src/stm32f10x_flash.c ****   }    
 604:lib/src/stm32f10x_flash.c ****   /* Return the Erase Status */
 605:lib/src/stm32f10x_flash.c ****   return status;
ARM GAS  /tmp/cc7BzgT5.s 			page 22


 606:lib/src/stm32f10x_flash.c **** }
 607:lib/src/stm32f10x_flash.c **** #endif /* STM32F10X_XL */
 608:lib/src/stm32f10x_flash.c **** 
 609:lib/src/stm32f10x_flash.c **** /**
 610:lib/src/stm32f10x_flash.c ****   * @brief  Erases the FLASH option bytes.
 611:lib/src/stm32f10x_flash.c ****   * @note   This functions erases all option bytes except the Read protection (RDP). 
 612:lib/src/stm32f10x_flash.c ****   * @note   This function can be used for all STM32F10x devices.
 613:lib/src/stm32f10x_flash.c ****   * @param  None
 614:lib/src/stm32f10x_flash.c ****   * @retval FLASH Status: The returned value can be: FLASH_ERROR_PG,
 615:lib/src/stm32f10x_flash.c ****   *         FLASH_ERROR_WRP, FLASH_COMPLETE or FLASH_TIMEOUT.
 616:lib/src/stm32f10x_flash.c ****   */
 617:lib/src/stm32f10x_flash.c **** FLASH_Status FLASH_EraseOptionBytes(void)
 618:lib/src/stm32f10x_flash.c **** {
 593              		.loc 1 618 0
 594              		.cfi_startproc
 595              		@ args = 0, pretend = 0, frame = 8
 596              		@ frame_needed = 1, uses_anonymous_args = 0
 597 0234 80B5     		push	{r7, lr}
 598              		.cfi_def_cfa_offset 8
 599              		.cfi_offset 7, -8
 600              		.cfi_offset 14, -4
 601 0236 82B0     		sub	sp, sp, #8
 602              		.cfi_def_cfa_offset 16
 603 0238 00AF     		add	r7, sp, #0
 604              		.cfi_def_cfa_register 7
 619:lib/src/stm32f10x_flash.c ****   uint16_t rdptmp = RDP_Key;
 605              		.loc 1 619 0
 606 023a A523     		movs	r3, #165
 607 023c FB80     		strh	r3, [r7, #6]	@ movhi
 620:lib/src/stm32f10x_flash.c **** 
 621:lib/src/stm32f10x_flash.c ****   FLASH_Status status = FLASH_COMPLETE;
 608              		.loc 1 621 0
 609 023e 0423     		movs	r3, #4
 610 0240 7B71     		strb	r3, [r7, #5]
 622:lib/src/stm32f10x_flash.c **** 
 623:lib/src/stm32f10x_flash.c ****   /* Get the actual read protection Option Byte value */ 
 624:lib/src/stm32f10x_flash.c ****   if(FLASH_GetReadOutProtectionStatus() != RESET)
 611              		.loc 1 624 0
 612 0242 FFF7FEFF 		bl	FLASH_GetReadOutProtectionStatus
 613 0246 0346     		mov	r3, r0
 614 0248 002B     		cmp	r3, #0
 615 024a 01D0     		beq	.L38
 625:lib/src/stm32f10x_flash.c ****   {
 626:lib/src/stm32f10x_flash.c ****     rdptmp = 0x00;  
 616              		.loc 1 626 0
 617 024c 0023     		movs	r3, #0
 618 024e FB80     		strh	r3, [r7, #6]	@ movhi
 619              	.L38:
 627:lib/src/stm32f10x_flash.c ****   }
 628:lib/src/stm32f10x_flash.c **** 
 629:lib/src/stm32f10x_flash.c ****   /* Wait for last operation to be completed */
 630:lib/src/stm32f10x_flash.c ****   status = FLASH_WaitForLastOperation(EraseTimeout);
 620              		.loc 1 630 0
 621 0250 4FF43020 		mov	r0, #720896
 622 0254 FFF7FEFF 		bl	FLASH_WaitForLastOperation
 623 0258 0346     		mov	r3, r0
 624 025a 7B71     		strb	r3, [r7, #5]
ARM GAS  /tmp/cc7BzgT5.s 			page 23


 631:lib/src/stm32f10x_flash.c ****   if(status == FLASH_COMPLETE)
 625              		.loc 1 631 0
 626 025c 7B79     		ldrb	r3, [r7, #5]	@ zero_extendqisi2
 627 025e 042B     		cmp	r3, #4
 628 0260 45D1     		bne	.L39
 632:lib/src/stm32f10x_flash.c ****   {
 633:lib/src/stm32f10x_flash.c ****     /* Authorize the small information block programming */
 634:lib/src/stm32f10x_flash.c ****     FLASH->OPTKEYR = FLASH_KEY1;
 629              		.loc 1 634 0
 630 0262 254B     		ldr	r3, .L43
 631 0264 254A     		ldr	r2, .L43+4
 632 0266 9A60     		str	r2, [r3, #8]
 635:lib/src/stm32f10x_flash.c ****     FLASH->OPTKEYR = FLASH_KEY2;
 633              		.loc 1 635 0
 634 0268 234B     		ldr	r3, .L43
 635 026a 254A     		ldr	r2, .L43+8
 636 026c 9A60     		str	r2, [r3, #8]
 636:lib/src/stm32f10x_flash.c ****     
 637:lib/src/stm32f10x_flash.c ****     /* if the previous operation is completed, proceed to erase the option bytes */
 638:lib/src/stm32f10x_flash.c ****     FLASH->CR |= CR_OPTER_Set;
 637              		.loc 1 638 0
 638 026e 224A     		ldr	r2, .L43
 639 0270 214B     		ldr	r3, .L43
 640 0272 1B69     		ldr	r3, [r3, #16]
 641 0274 43F02003 		orr	r3, r3, #32
 642 0278 1361     		str	r3, [r2, #16]
 639:lib/src/stm32f10x_flash.c ****     FLASH->CR |= CR_STRT_Set;
 643              		.loc 1 639 0
 644 027a 1F4A     		ldr	r2, .L43
 645 027c 1E4B     		ldr	r3, .L43
 646 027e 1B69     		ldr	r3, [r3, #16]
 647 0280 43F04003 		orr	r3, r3, #64
 648 0284 1361     		str	r3, [r2, #16]
 640:lib/src/stm32f10x_flash.c ****     /* Wait for last operation to be completed */
 641:lib/src/stm32f10x_flash.c ****     status = FLASH_WaitForLastOperation(EraseTimeout);
 649              		.loc 1 641 0
 650 0286 4FF43020 		mov	r0, #720896
 651 028a FFF7FEFF 		bl	FLASH_WaitForLastOperation
 652 028e 0346     		mov	r3, r0
 653 0290 7B71     		strb	r3, [r7, #5]
 642:lib/src/stm32f10x_flash.c ****     
 643:lib/src/stm32f10x_flash.c ****     if(status == FLASH_COMPLETE)
 654              		.loc 1 643 0
 655 0292 7B79     		ldrb	r3, [r7, #5]	@ zero_extendqisi2
 656 0294 042B     		cmp	r3, #4
 657 0296 20D1     		bne	.L40
 644:lib/src/stm32f10x_flash.c ****     {
 645:lib/src/stm32f10x_flash.c ****       /* if the erase operation is completed, disable the OPTER Bit */
 646:lib/src/stm32f10x_flash.c ****       FLASH->CR &= CR_OPTER_Reset;
 658              		.loc 1 646 0
 659 0298 1749     		ldr	r1, .L43
 660 029a 174B     		ldr	r3, .L43
 661 029c 1A69     		ldr	r2, [r3, #16]
 662 029e 41F6DF73 		movw	r3, #8159
 663 02a2 1340     		ands	r3, r3, r2
 664 02a4 0B61     		str	r3, [r1, #16]
 647:lib/src/stm32f10x_flash.c ****        
ARM GAS  /tmp/cc7BzgT5.s 			page 24


 648:lib/src/stm32f10x_flash.c ****       /* Enable the Option Bytes Programming operation */
 649:lib/src/stm32f10x_flash.c ****       FLASH->CR |= CR_OPTPG_Set;
 665              		.loc 1 649 0
 666 02a6 144A     		ldr	r2, .L43
 667 02a8 134B     		ldr	r3, .L43
 668 02aa 1B69     		ldr	r3, [r3, #16]
 669 02ac 43F01003 		orr	r3, r3, #16
 670 02b0 1361     		str	r3, [r2, #16]
 650:lib/src/stm32f10x_flash.c ****       /* Restore the last read protection Option Byte value */
 651:lib/src/stm32f10x_flash.c ****       OB->RDP = (uint16_t)rdptmp; 
 671              		.loc 1 651 0
 672 02b2 144A     		ldr	r2, .L43+12
 673 02b4 FB88     		ldrh	r3, [r7, #6]	@ movhi
 674 02b6 1380     		strh	r3, [r2]	@ movhi
 652:lib/src/stm32f10x_flash.c ****       /* Wait for last operation to be completed */
 653:lib/src/stm32f10x_flash.c ****       status = FLASH_WaitForLastOperation(ProgramTimeout);
 675              		.loc 1 653 0
 676 02b8 4FF40050 		mov	r0, #8192
 677 02bc FFF7FEFF 		bl	FLASH_WaitForLastOperation
 678 02c0 0346     		mov	r3, r0
 679 02c2 7B71     		strb	r3, [r7, #5]
 654:lib/src/stm32f10x_flash.c ****  
 655:lib/src/stm32f10x_flash.c ****       if(status != FLASH_TIMEOUT)
 680              		.loc 1 655 0
 681 02c4 7B79     		ldrb	r3, [r7, #5]	@ zero_extendqisi2
 682 02c6 052B     		cmp	r3, #5
 683 02c8 11D0     		beq	.L39
 656:lib/src/stm32f10x_flash.c ****       {
 657:lib/src/stm32f10x_flash.c ****         /* if the program operation is completed, disable the OPTPG Bit */
 658:lib/src/stm32f10x_flash.c ****         FLASH->CR &= CR_OPTPG_Reset;
 684              		.loc 1 658 0
 685 02ca 0B49     		ldr	r1, .L43
 686 02cc 0A4B     		ldr	r3, .L43
 687 02ce 1A69     		ldr	r2, [r3, #16]
 688 02d0 41F6EF73 		movw	r3, #8175
 689 02d4 1340     		ands	r3, r3, r2
 690 02d6 0B61     		str	r3, [r1, #16]
 691 02d8 09E0     		b	.L39
 692              	.L40:
 659:lib/src/stm32f10x_flash.c ****       }
 660:lib/src/stm32f10x_flash.c ****     }
 661:lib/src/stm32f10x_flash.c ****     else
 662:lib/src/stm32f10x_flash.c ****     {
 663:lib/src/stm32f10x_flash.c ****       if (status != FLASH_TIMEOUT)
 693              		.loc 1 663 0
 694 02da 7B79     		ldrb	r3, [r7, #5]	@ zero_extendqisi2
 695 02dc 052B     		cmp	r3, #5
 696 02de 06D0     		beq	.L39
 664:lib/src/stm32f10x_flash.c ****       {
 665:lib/src/stm32f10x_flash.c ****         /* Disable the OPTPG Bit */
 666:lib/src/stm32f10x_flash.c ****         FLASH->CR &= CR_OPTPG_Reset;
 697              		.loc 1 666 0
 698 02e0 0549     		ldr	r1, .L43
 699 02e2 054B     		ldr	r3, .L43
 700 02e4 1A69     		ldr	r2, [r3, #16]
 701 02e6 41F6EF73 		movw	r3, #8175
 702 02ea 1340     		ands	r3, r3, r2
ARM GAS  /tmp/cc7BzgT5.s 			page 25


 703 02ec 0B61     		str	r3, [r1, #16]
 704              	.L39:
 667:lib/src/stm32f10x_flash.c ****       }
 668:lib/src/stm32f10x_flash.c ****     }  
 669:lib/src/stm32f10x_flash.c ****   }
 670:lib/src/stm32f10x_flash.c ****   /* Return the erase status */
 671:lib/src/stm32f10x_flash.c ****   return status;
 705              		.loc 1 671 0
 706 02ee 7B79     		ldrb	r3, [r7, #5]	@ zero_extendqisi2
 672:lib/src/stm32f10x_flash.c **** }
 707              		.loc 1 672 0
 708 02f0 1846     		mov	r0, r3
 709 02f2 0837     		adds	r7, r7, #8
 710              		.cfi_def_cfa_offset 8
 711 02f4 BD46     		mov	sp, r7
 712              		.cfi_def_cfa_register 13
 713              		@ sp needed
 714 02f6 80BD     		pop	{r7, pc}
 715              	.L44:
 716              		.align	2
 717              	.L43:
 718 02f8 00200240 		.word	1073881088
 719 02fc 23016745 		.word	1164378403
 720 0300 AB89EFCD 		.word	-839939669
 721 0304 00F8FF1F 		.word	536868864
 722              		.cfi_endproc
 723              	.LFE74:
 724              		.size	FLASH_EraseOptionBytes, .-FLASH_EraseOptionBytes
 725              		.align	1
 726              		.global	FLASH_ProgramWord
 727              		.syntax unified
 728              		.thumb
 729              		.thumb_func
 730              		.fpu softvfp
 731              		.type	FLASH_ProgramWord, %function
 732              	FLASH_ProgramWord:
 733              	.LFB75:
 673:lib/src/stm32f10x_flash.c **** 
 674:lib/src/stm32f10x_flash.c **** /**
 675:lib/src/stm32f10x_flash.c ****   * @brief  Programs a word at a specified address.
 676:lib/src/stm32f10x_flash.c ****   * @note   This function can be used for all STM32F10x devices.
 677:lib/src/stm32f10x_flash.c ****   * @param  Address: specifies the address to be programmed.
 678:lib/src/stm32f10x_flash.c ****   * @param  Data: specifies the data to be programmed.
 679:lib/src/stm32f10x_flash.c ****   * @retval FLASH Status: The returned value can be: FLASH_ERROR_PG,
 680:lib/src/stm32f10x_flash.c ****   *         FLASH_ERROR_WRP, FLASH_COMPLETE or FLASH_TIMEOUT. 
 681:lib/src/stm32f10x_flash.c ****   */
 682:lib/src/stm32f10x_flash.c **** FLASH_Status FLASH_ProgramWord(uint32_t Address, uint32_t Data)
 683:lib/src/stm32f10x_flash.c **** {
 734              		.loc 1 683 0
 735              		.cfi_startproc
 736              		@ args = 0, pretend = 0, frame = 16
 737              		@ frame_needed = 1, uses_anonymous_args = 0
 738 0308 80B5     		push	{r7, lr}
 739              		.cfi_def_cfa_offset 8
 740              		.cfi_offset 7, -8
 741              		.cfi_offset 14, -4
 742 030a 84B0     		sub	sp, sp, #16
ARM GAS  /tmp/cc7BzgT5.s 			page 26


 743              		.cfi_def_cfa_offset 24
 744 030c 00AF     		add	r7, sp, #0
 745              		.cfi_def_cfa_register 7
 746 030e 7860     		str	r0, [r7, #4]
 747 0310 3960     		str	r1, [r7]
 684:lib/src/stm32f10x_flash.c ****   FLASH_Status status = FLASH_COMPLETE;
 748              		.loc 1 684 0
 749 0312 0423     		movs	r3, #4
 750 0314 FB73     		strb	r3, [r7, #15]
 685:lib/src/stm32f10x_flash.c ****   __IO uint32_t tmp = 0;
 751              		.loc 1 685 0
 752 0316 0023     		movs	r3, #0
 753 0318 BB60     		str	r3, [r7, #8]
 686:lib/src/stm32f10x_flash.c **** 
 687:lib/src/stm32f10x_flash.c ****   /* Check the parameters */
 688:lib/src/stm32f10x_flash.c ****   assert_param(IS_FLASH_ADDRESS(Address));
 689:lib/src/stm32f10x_flash.c **** 
 690:lib/src/stm32f10x_flash.c **** #ifdef STM32F10X_XL
 691:lib/src/stm32f10x_flash.c ****   if(Address < FLASH_BANK1_END_ADDRESS - 2)
 692:lib/src/stm32f10x_flash.c ****   { 
 693:lib/src/stm32f10x_flash.c ****     /* Wait for last operation to be completed */
 694:lib/src/stm32f10x_flash.c ****     status = FLASH_WaitForLastBank1Operation(ProgramTimeout); 
 695:lib/src/stm32f10x_flash.c ****     if(status == FLASH_COMPLETE)
 696:lib/src/stm32f10x_flash.c ****     {
 697:lib/src/stm32f10x_flash.c ****       /* if the previous operation is completed, proceed to program the new first 
 698:lib/src/stm32f10x_flash.c ****         half word */
 699:lib/src/stm32f10x_flash.c ****       FLASH->CR |= CR_PG_Set;
 700:lib/src/stm32f10x_flash.c ****   
 701:lib/src/stm32f10x_flash.c ****       *(__IO uint16_t*)Address = (uint16_t)Data;
 702:lib/src/stm32f10x_flash.c ****       /* Wait for last operation to be completed */
 703:lib/src/stm32f10x_flash.c ****       status = FLASH_WaitForLastOperation(ProgramTimeout);
 704:lib/src/stm32f10x_flash.c ****  
 705:lib/src/stm32f10x_flash.c ****       if(status == FLASH_COMPLETE)
 706:lib/src/stm32f10x_flash.c ****       {
 707:lib/src/stm32f10x_flash.c ****         /* if the previous operation is completed, proceed to program the new second 
 708:lib/src/stm32f10x_flash.c ****         half word */
 709:lib/src/stm32f10x_flash.c ****         tmp = Address + 2;
 710:lib/src/stm32f10x_flash.c **** 
 711:lib/src/stm32f10x_flash.c ****         *(__IO uint16_t*) tmp = Data >> 16;
 712:lib/src/stm32f10x_flash.c ****     
 713:lib/src/stm32f10x_flash.c ****         /* Wait for last operation to be completed */
 714:lib/src/stm32f10x_flash.c ****         status = FLASH_WaitForLastOperation(ProgramTimeout);
 715:lib/src/stm32f10x_flash.c ****         
 716:lib/src/stm32f10x_flash.c ****         /* Disable the PG Bit */
 717:lib/src/stm32f10x_flash.c ****         FLASH->CR &= CR_PG_Reset;
 718:lib/src/stm32f10x_flash.c ****       }
 719:lib/src/stm32f10x_flash.c ****       else
 720:lib/src/stm32f10x_flash.c ****       {
 721:lib/src/stm32f10x_flash.c ****         /* Disable the PG Bit */
 722:lib/src/stm32f10x_flash.c ****         FLASH->CR &= CR_PG_Reset;
 723:lib/src/stm32f10x_flash.c ****        }
 724:lib/src/stm32f10x_flash.c ****     }
 725:lib/src/stm32f10x_flash.c ****   }
 726:lib/src/stm32f10x_flash.c ****   else if(Address == (FLASH_BANK1_END_ADDRESS - 1))
 727:lib/src/stm32f10x_flash.c ****   {
 728:lib/src/stm32f10x_flash.c ****     /* Wait for last operation to be completed */
 729:lib/src/stm32f10x_flash.c ****     status = FLASH_WaitForLastBank1Operation(ProgramTimeout);
ARM GAS  /tmp/cc7BzgT5.s 			page 27


 730:lib/src/stm32f10x_flash.c **** 
 731:lib/src/stm32f10x_flash.c ****     if(status == FLASH_COMPLETE)
 732:lib/src/stm32f10x_flash.c ****     {
 733:lib/src/stm32f10x_flash.c ****       /* if the previous operation is completed, proceed to program the new first 
 734:lib/src/stm32f10x_flash.c ****         half word */
 735:lib/src/stm32f10x_flash.c ****       FLASH->CR |= CR_PG_Set;
 736:lib/src/stm32f10x_flash.c ****   
 737:lib/src/stm32f10x_flash.c ****       *(__IO uint16_t*)Address = (uint16_t)Data;
 738:lib/src/stm32f10x_flash.c **** 
 739:lib/src/stm32f10x_flash.c ****       /* Wait for last operation to be completed */
 740:lib/src/stm32f10x_flash.c ****       status = FLASH_WaitForLastBank1Operation(ProgramTimeout);
 741:lib/src/stm32f10x_flash.c ****       
 742:lib/src/stm32f10x_flash.c **** 	  /* Disable the PG Bit */
 743:lib/src/stm32f10x_flash.c ****       FLASH->CR &= CR_PG_Reset;
 744:lib/src/stm32f10x_flash.c ****     }
 745:lib/src/stm32f10x_flash.c ****     else
 746:lib/src/stm32f10x_flash.c ****     {
 747:lib/src/stm32f10x_flash.c ****       /* Disable the PG Bit */
 748:lib/src/stm32f10x_flash.c ****       FLASH->CR &= CR_PG_Reset;
 749:lib/src/stm32f10x_flash.c ****     }
 750:lib/src/stm32f10x_flash.c **** 
 751:lib/src/stm32f10x_flash.c ****     /* Wait for last operation to be completed */
 752:lib/src/stm32f10x_flash.c ****     status = FLASH_WaitForLastBank2Operation(ProgramTimeout);
 753:lib/src/stm32f10x_flash.c **** 
 754:lib/src/stm32f10x_flash.c ****     if(status == FLASH_COMPLETE)
 755:lib/src/stm32f10x_flash.c ****     {
 756:lib/src/stm32f10x_flash.c ****       /* if the previous operation is completed, proceed to program the new second 
 757:lib/src/stm32f10x_flash.c ****       half word */
 758:lib/src/stm32f10x_flash.c ****       FLASH->CR2 |= CR_PG_Set;
 759:lib/src/stm32f10x_flash.c ****       tmp = Address + 2;
 760:lib/src/stm32f10x_flash.c **** 
 761:lib/src/stm32f10x_flash.c ****       *(__IO uint16_t*) tmp = Data >> 16;
 762:lib/src/stm32f10x_flash.c ****     
 763:lib/src/stm32f10x_flash.c ****       /* Wait for last operation to be completed */
 764:lib/src/stm32f10x_flash.c ****       status = FLASH_WaitForLastBank2Operation(ProgramTimeout);
 765:lib/src/stm32f10x_flash.c ****         
 766:lib/src/stm32f10x_flash.c ****       /* Disable the PG Bit */
 767:lib/src/stm32f10x_flash.c ****       FLASH->CR2 &= CR_PG_Reset;
 768:lib/src/stm32f10x_flash.c ****     }
 769:lib/src/stm32f10x_flash.c ****     else
 770:lib/src/stm32f10x_flash.c ****     {
 771:lib/src/stm32f10x_flash.c ****       /* Disable the PG Bit */
 772:lib/src/stm32f10x_flash.c ****       FLASH->CR2 &= CR_PG_Reset;
 773:lib/src/stm32f10x_flash.c ****     }
 774:lib/src/stm32f10x_flash.c ****   }
 775:lib/src/stm32f10x_flash.c ****   else
 776:lib/src/stm32f10x_flash.c ****   {
 777:lib/src/stm32f10x_flash.c ****     /* Wait for last operation to be completed */
 778:lib/src/stm32f10x_flash.c ****     status = FLASH_WaitForLastBank2Operation(ProgramTimeout);
 779:lib/src/stm32f10x_flash.c **** 
 780:lib/src/stm32f10x_flash.c ****     if(status == FLASH_COMPLETE)
 781:lib/src/stm32f10x_flash.c ****     {
 782:lib/src/stm32f10x_flash.c ****       /* if the previous operation is completed, proceed to program the new first 
 783:lib/src/stm32f10x_flash.c ****         half word */
 784:lib/src/stm32f10x_flash.c ****       FLASH->CR2 |= CR_PG_Set;
 785:lib/src/stm32f10x_flash.c ****   
 786:lib/src/stm32f10x_flash.c ****       *(__IO uint16_t*)Address = (uint16_t)Data;
ARM GAS  /tmp/cc7BzgT5.s 			page 28


 787:lib/src/stm32f10x_flash.c ****       /* Wait for last operation to be completed */
 788:lib/src/stm32f10x_flash.c ****       status = FLASH_WaitForLastBank2Operation(ProgramTimeout);
 789:lib/src/stm32f10x_flash.c ****  
 790:lib/src/stm32f10x_flash.c ****       if(status == FLASH_COMPLETE)
 791:lib/src/stm32f10x_flash.c ****       {
 792:lib/src/stm32f10x_flash.c ****         /* if the previous operation is completed, proceed to program the new second 
 793:lib/src/stm32f10x_flash.c ****         half word */
 794:lib/src/stm32f10x_flash.c ****         tmp = Address + 2;
 795:lib/src/stm32f10x_flash.c **** 
 796:lib/src/stm32f10x_flash.c ****         *(__IO uint16_t*) tmp = Data >> 16;
 797:lib/src/stm32f10x_flash.c ****     
 798:lib/src/stm32f10x_flash.c ****         /* Wait for last operation to be completed */
 799:lib/src/stm32f10x_flash.c ****         status = FLASH_WaitForLastBank2Operation(ProgramTimeout);
 800:lib/src/stm32f10x_flash.c ****         
 801:lib/src/stm32f10x_flash.c ****         /* Disable the PG Bit */
 802:lib/src/stm32f10x_flash.c ****         FLASH->CR2 &= CR_PG_Reset;
 803:lib/src/stm32f10x_flash.c ****       }
 804:lib/src/stm32f10x_flash.c ****       else
 805:lib/src/stm32f10x_flash.c ****       {
 806:lib/src/stm32f10x_flash.c ****         /* Disable the PG Bit */
 807:lib/src/stm32f10x_flash.c ****         FLASH->CR2 &= CR_PG_Reset;
 808:lib/src/stm32f10x_flash.c ****       }
 809:lib/src/stm32f10x_flash.c ****     }
 810:lib/src/stm32f10x_flash.c ****   }
 811:lib/src/stm32f10x_flash.c **** #else
 812:lib/src/stm32f10x_flash.c ****   /* Wait for last operation to be completed */
 813:lib/src/stm32f10x_flash.c ****   status = FLASH_WaitForLastOperation(ProgramTimeout);
 754              		.loc 1 813 0
 755 031a 4FF40050 		mov	r0, #8192
 756 031e FFF7FEFF 		bl	FLASH_WaitForLastOperation
 757 0322 0346     		mov	r3, r0
 758 0324 FB73     		strb	r3, [r7, #15]
 814:lib/src/stm32f10x_flash.c ****   
 815:lib/src/stm32f10x_flash.c ****   if(status == FLASH_COMPLETE)
 759              		.loc 1 815 0
 760 0326 FB7B     		ldrb	r3, [r7, #15]	@ zero_extendqisi2
 761 0328 042B     		cmp	r3, #4
 762 032a 30D1     		bne	.L46
 816:lib/src/stm32f10x_flash.c ****   {
 817:lib/src/stm32f10x_flash.c ****     /* if the previous operation is completed, proceed to program the new first 
 818:lib/src/stm32f10x_flash.c ****     half word */
 819:lib/src/stm32f10x_flash.c ****     FLASH->CR |= CR_PG_Set;
 763              		.loc 1 819 0
 764 032c 1A4A     		ldr	r2, .L49
 765 032e 1A4B     		ldr	r3, .L49
 766 0330 1B69     		ldr	r3, [r3, #16]
 767 0332 43F00103 		orr	r3, r3, #1
 768 0336 1361     		str	r3, [r2, #16]
 820:lib/src/stm32f10x_flash.c ****   
 821:lib/src/stm32f10x_flash.c ****     *(__IO uint16_t*)Address = (uint16_t)Data;
 769              		.loc 1 821 0
 770 0338 7B68     		ldr	r3, [r7, #4]
 771 033a 3A68     		ldr	r2, [r7]
 772 033c 92B2     		uxth	r2, r2
 773 033e 1A80     		strh	r2, [r3]	@ movhi
 822:lib/src/stm32f10x_flash.c ****     /* Wait for last operation to be completed */
 823:lib/src/stm32f10x_flash.c ****     status = FLASH_WaitForLastOperation(ProgramTimeout);
ARM GAS  /tmp/cc7BzgT5.s 			page 29


 774              		.loc 1 823 0
 775 0340 4FF40050 		mov	r0, #8192
 776 0344 FFF7FEFF 		bl	FLASH_WaitForLastOperation
 777 0348 0346     		mov	r3, r0
 778 034a FB73     		strb	r3, [r7, #15]
 824:lib/src/stm32f10x_flash.c ****  
 825:lib/src/stm32f10x_flash.c ****     if(status == FLASH_COMPLETE)
 779              		.loc 1 825 0
 780 034c FB7B     		ldrb	r3, [r7, #15]	@ zero_extendqisi2
 781 034e 042B     		cmp	r3, #4
 782 0350 16D1     		bne	.L47
 826:lib/src/stm32f10x_flash.c ****     {
 827:lib/src/stm32f10x_flash.c ****       /* if the previous operation is completed, proceed to program the new second 
 828:lib/src/stm32f10x_flash.c ****       half word */
 829:lib/src/stm32f10x_flash.c ****       tmp = Address + 2;
 783              		.loc 1 829 0
 784 0352 7B68     		ldr	r3, [r7, #4]
 785 0354 0233     		adds	r3, r3, #2
 786 0356 BB60     		str	r3, [r7, #8]
 830:lib/src/stm32f10x_flash.c **** 
 831:lib/src/stm32f10x_flash.c ****       *(__IO uint16_t*) tmp = Data >> 16;
 787              		.loc 1 831 0
 788 0358 BB68     		ldr	r3, [r7, #8]
 789 035a 1A46     		mov	r2, r3
 790 035c 3B68     		ldr	r3, [r7]
 791 035e 1B0C     		lsrs	r3, r3, #16
 792 0360 9BB2     		uxth	r3, r3
 793 0362 1380     		strh	r3, [r2]	@ movhi
 832:lib/src/stm32f10x_flash.c ****     
 833:lib/src/stm32f10x_flash.c ****       /* Wait for last operation to be completed */
 834:lib/src/stm32f10x_flash.c ****       status = FLASH_WaitForLastOperation(ProgramTimeout);
 794              		.loc 1 834 0
 795 0364 4FF40050 		mov	r0, #8192
 796 0368 FFF7FEFF 		bl	FLASH_WaitForLastOperation
 797 036c 0346     		mov	r3, r0
 798 036e FB73     		strb	r3, [r7, #15]
 835:lib/src/stm32f10x_flash.c ****         
 836:lib/src/stm32f10x_flash.c ****       /* Disable the PG Bit */
 837:lib/src/stm32f10x_flash.c ****       FLASH->CR &= CR_PG_Reset;
 799              		.loc 1 837 0
 800 0370 0949     		ldr	r1, .L49
 801 0372 094B     		ldr	r3, .L49
 802 0374 1A69     		ldr	r2, [r3, #16]
 803 0376 41F6FE73 		movw	r3, #8190
 804 037a 1340     		ands	r3, r3, r2
 805 037c 0B61     		str	r3, [r1, #16]
 806 037e 06E0     		b	.L46
 807              	.L47:
 838:lib/src/stm32f10x_flash.c ****     }
 839:lib/src/stm32f10x_flash.c ****     else
 840:lib/src/stm32f10x_flash.c ****     {
 841:lib/src/stm32f10x_flash.c ****       /* Disable the PG Bit */
 842:lib/src/stm32f10x_flash.c ****       FLASH->CR &= CR_PG_Reset;
 808              		.loc 1 842 0
 809 0380 0549     		ldr	r1, .L49
 810 0382 054B     		ldr	r3, .L49
 811 0384 1A69     		ldr	r2, [r3, #16]
ARM GAS  /tmp/cc7BzgT5.s 			page 30


 812 0386 41F6FE73 		movw	r3, #8190
 813 038a 1340     		ands	r3, r3, r2
 814 038c 0B61     		str	r3, [r1, #16]
 815              	.L46:
 843:lib/src/stm32f10x_flash.c ****     }
 844:lib/src/stm32f10x_flash.c ****   }         
 845:lib/src/stm32f10x_flash.c **** #endif /* STM32F10X_XL */
 846:lib/src/stm32f10x_flash.c ****    
 847:lib/src/stm32f10x_flash.c ****   /* Return the Program Status */
 848:lib/src/stm32f10x_flash.c ****   return status;
 816              		.loc 1 848 0
 817 038e FB7B     		ldrb	r3, [r7, #15]	@ zero_extendqisi2
 849:lib/src/stm32f10x_flash.c **** }
 818              		.loc 1 849 0
 819 0390 1846     		mov	r0, r3
 820 0392 1037     		adds	r7, r7, #16
 821              		.cfi_def_cfa_offset 8
 822 0394 BD46     		mov	sp, r7
 823              		.cfi_def_cfa_register 13
 824              		@ sp needed
 825 0396 80BD     		pop	{r7, pc}
 826              	.L50:
 827              		.align	2
 828              	.L49:
 829 0398 00200240 		.word	1073881088
 830              		.cfi_endproc
 831              	.LFE75:
 832              		.size	FLASH_ProgramWord, .-FLASH_ProgramWord
 833              		.align	1
 834              		.global	FLASH_ProgramHalfWord
 835              		.syntax unified
 836              		.thumb
 837              		.thumb_func
 838              		.fpu softvfp
 839              		.type	FLASH_ProgramHalfWord, %function
 840              	FLASH_ProgramHalfWord:
 841              	.LFB76:
 850:lib/src/stm32f10x_flash.c **** 
 851:lib/src/stm32f10x_flash.c **** /**
 852:lib/src/stm32f10x_flash.c ****   * @brief  Programs a half word at a specified address.
 853:lib/src/stm32f10x_flash.c ****   * @note   This function can be used for all STM32F10x devices.
 854:lib/src/stm32f10x_flash.c ****   * @param  Address: specifies the address to be programmed.
 855:lib/src/stm32f10x_flash.c ****   * @param  Data: specifies the data to be programmed.
 856:lib/src/stm32f10x_flash.c ****   * @retval FLASH Status: The returned value can be: FLASH_ERROR_PG,
 857:lib/src/stm32f10x_flash.c ****   *         FLASH_ERROR_WRP, FLASH_COMPLETE or FLASH_TIMEOUT. 
 858:lib/src/stm32f10x_flash.c ****   */
 859:lib/src/stm32f10x_flash.c **** FLASH_Status FLASH_ProgramHalfWord(uint32_t Address, uint16_t Data)
 860:lib/src/stm32f10x_flash.c **** {
 842              		.loc 1 860 0
 843              		.cfi_startproc
 844              		@ args = 0, pretend = 0, frame = 16
 845              		@ frame_needed = 1, uses_anonymous_args = 0
 846 039c 80B5     		push	{r7, lr}
 847              		.cfi_def_cfa_offset 8
 848              		.cfi_offset 7, -8
 849              		.cfi_offset 14, -4
 850 039e 84B0     		sub	sp, sp, #16
ARM GAS  /tmp/cc7BzgT5.s 			page 31


 851              		.cfi_def_cfa_offset 24
 852 03a0 00AF     		add	r7, sp, #0
 853              		.cfi_def_cfa_register 7
 854 03a2 7860     		str	r0, [r7, #4]
 855 03a4 0B46     		mov	r3, r1
 856 03a6 7B80     		strh	r3, [r7, #2]	@ movhi
 861:lib/src/stm32f10x_flash.c ****   FLASH_Status status = FLASH_COMPLETE;
 857              		.loc 1 861 0
 858 03a8 0423     		movs	r3, #4
 859 03aa FB73     		strb	r3, [r7, #15]
 862:lib/src/stm32f10x_flash.c ****   /* Check the parameters */
 863:lib/src/stm32f10x_flash.c ****   assert_param(IS_FLASH_ADDRESS(Address));
 864:lib/src/stm32f10x_flash.c **** 
 865:lib/src/stm32f10x_flash.c **** #ifdef STM32F10X_XL
 866:lib/src/stm32f10x_flash.c ****   /* Wait for last operation to be completed */
 867:lib/src/stm32f10x_flash.c ****   status = FLASH_WaitForLastOperation(ProgramTimeout);
 868:lib/src/stm32f10x_flash.c ****   
 869:lib/src/stm32f10x_flash.c ****   if(Address < FLASH_BANK1_END_ADDRESS)
 870:lib/src/stm32f10x_flash.c ****   {
 871:lib/src/stm32f10x_flash.c ****     if(status == FLASH_COMPLETE)
 872:lib/src/stm32f10x_flash.c ****     {
 873:lib/src/stm32f10x_flash.c ****       /* if the previous operation is completed, proceed to program the new data */
 874:lib/src/stm32f10x_flash.c ****       FLASH->CR |= CR_PG_Set;
 875:lib/src/stm32f10x_flash.c ****   
 876:lib/src/stm32f10x_flash.c ****       *(__IO uint16_t*)Address = Data;
 877:lib/src/stm32f10x_flash.c ****       /* Wait for last operation to be completed */
 878:lib/src/stm32f10x_flash.c ****       status = FLASH_WaitForLastBank1Operation(ProgramTimeout);
 879:lib/src/stm32f10x_flash.c **** 
 880:lib/src/stm32f10x_flash.c ****       /* Disable the PG Bit */
 881:lib/src/stm32f10x_flash.c ****       FLASH->CR &= CR_PG_Reset;
 882:lib/src/stm32f10x_flash.c ****     }
 883:lib/src/stm32f10x_flash.c ****   }
 884:lib/src/stm32f10x_flash.c ****   else
 885:lib/src/stm32f10x_flash.c ****   {
 886:lib/src/stm32f10x_flash.c ****     if(status == FLASH_COMPLETE)
 887:lib/src/stm32f10x_flash.c ****     {
 888:lib/src/stm32f10x_flash.c ****       /* if the previous operation is completed, proceed to program the new data */
 889:lib/src/stm32f10x_flash.c ****       FLASH->CR2 |= CR_PG_Set;
 890:lib/src/stm32f10x_flash.c ****   
 891:lib/src/stm32f10x_flash.c ****       *(__IO uint16_t*)Address = Data;
 892:lib/src/stm32f10x_flash.c ****       /* Wait for last operation to be completed */
 893:lib/src/stm32f10x_flash.c ****       status = FLASH_WaitForLastBank2Operation(ProgramTimeout);
 894:lib/src/stm32f10x_flash.c **** 
 895:lib/src/stm32f10x_flash.c ****       /* Disable the PG Bit */
 896:lib/src/stm32f10x_flash.c ****       FLASH->CR2 &= CR_PG_Reset;
 897:lib/src/stm32f10x_flash.c ****     }
 898:lib/src/stm32f10x_flash.c ****   }
 899:lib/src/stm32f10x_flash.c **** #else
 900:lib/src/stm32f10x_flash.c ****   /* Wait for last operation to be completed */
 901:lib/src/stm32f10x_flash.c ****   status = FLASH_WaitForLastOperation(ProgramTimeout);
 860              		.loc 1 901 0
 861 03ac 4FF40050 		mov	r0, #8192
 862 03b0 FFF7FEFF 		bl	FLASH_WaitForLastOperation
 863 03b4 0346     		mov	r3, r0
 864 03b6 FB73     		strb	r3, [r7, #15]
 902:lib/src/stm32f10x_flash.c ****   
 903:lib/src/stm32f10x_flash.c ****   if(status == FLASH_COMPLETE)
ARM GAS  /tmp/cc7BzgT5.s 			page 32


 865              		.loc 1 903 0
 866 03b8 FB7B     		ldrb	r3, [r7, #15]	@ zero_extendqisi2
 867 03ba 042B     		cmp	r3, #4
 868 03bc 15D1     		bne	.L52
 904:lib/src/stm32f10x_flash.c ****   {
 905:lib/src/stm32f10x_flash.c ****     /* if the previous operation is completed, proceed to program the new data */
 906:lib/src/stm32f10x_flash.c ****     FLASH->CR |= CR_PG_Set;
 869              		.loc 1 906 0
 870 03be 0D4A     		ldr	r2, .L54
 871 03c0 0C4B     		ldr	r3, .L54
 872 03c2 1B69     		ldr	r3, [r3, #16]
 873 03c4 43F00103 		orr	r3, r3, #1
 874 03c8 1361     		str	r3, [r2, #16]
 907:lib/src/stm32f10x_flash.c ****   
 908:lib/src/stm32f10x_flash.c ****     *(__IO uint16_t*)Address = Data;
 875              		.loc 1 908 0
 876 03ca 7B68     		ldr	r3, [r7, #4]
 877 03cc 7A88     		ldrh	r2, [r7, #2]	@ movhi
 878 03ce 1A80     		strh	r2, [r3]	@ movhi
 909:lib/src/stm32f10x_flash.c ****     /* Wait for last operation to be completed */
 910:lib/src/stm32f10x_flash.c ****     status = FLASH_WaitForLastOperation(ProgramTimeout);
 879              		.loc 1 910 0
 880 03d0 4FF40050 		mov	r0, #8192
 881 03d4 FFF7FEFF 		bl	FLASH_WaitForLastOperation
 882 03d8 0346     		mov	r3, r0
 883 03da FB73     		strb	r3, [r7, #15]
 911:lib/src/stm32f10x_flash.c ****     
 912:lib/src/stm32f10x_flash.c ****     /* Disable the PG Bit */
 913:lib/src/stm32f10x_flash.c ****     FLASH->CR &= CR_PG_Reset;
 884              		.loc 1 913 0
 885 03dc 0549     		ldr	r1, .L54
 886 03de 054B     		ldr	r3, .L54
 887 03e0 1A69     		ldr	r2, [r3, #16]
 888 03e2 41F6FE73 		movw	r3, #8190
 889 03e6 1340     		ands	r3, r3, r2
 890 03e8 0B61     		str	r3, [r1, #16]
 891              	.L52:
 914:lib/src/stm32f10x_flash.c ****   } 
 915:lib/src/stm32f10x_flash.c **** #endif  /* STM32F10X_XL */
 916:lib/src/stm32f10x_flash.c ****   
 917:lib/src/stm32f10x_flash.c ****   /* Return the Program Status */
 918:lib/src/stm32f10x_flash.c ****   return status;
 892              		.loc 1 918 0
 893 03ea FB7B     		ldrb	r3, [r7, #15]	@ zero_extendqisi2
 919:lib/src/stm32f10x_flash.c **** }
 894              		.loc 1 919 0
 895 03ec 1846     		mov	r0, r3
 896 03ee 1037     		adds	r7, r7, #16
 897              		.cfi_def_cfa_offset 8
 898 03f0 BD46     		mov	sp, r7
 899              		.cfi_def_cfa_register 13
 900              		@ sp needed
 901 03f2 80BD     		pop	{r7, pc}
 902              	.L55:
 903              		.align	2
 904              	.L54:
 905 03f4 00200240 		.word	1073881088
ARM GAS  /tmp/cc7BzgT5.s 			page 33


 906              		.cfi_endproc
 907              	.LFE76:
 908              		.size	FLASH_ProgramHalfWord, .-FLASH_ProgramHalfWord
 909              		.align	1
 910              		.global	FLASH_ProgramOptionByteData
 911              		.syntax unified
 912              		.thumb
 913              		.thumb_func
 914              		.fpu softvfp
 915              		.type	FLASH_ProgramOptionByteData, %function
 916              	FLASH_ProgramOptionByteData:
 917              	.LFB77:
 920:lib/src/stm32f10x_flash.c **** 
 921:lib/src/stm32f10x_flash.c **** /**
 922:lib/src/stm32f10x_flash.c ****   * @brief  Programs a half word at a specified Option Byte Data address.
 923:lib/src/stm32f10x_flash.c ****   * @note   This function can be used for all STM32F10x devices.
 924:lib/src/stm32f10x_flash.c ****   * @param  Address: specifies the address to be programmed.
 925:lib/src/stm32f10x_flash.c ****   *   This parameter can be 0x1FFFF804 or 0x1FFFF806. 
 926:lib/src/stm32f10x_flash.c ****   * @param  Data: specifies the data to be programmed.
 927:lib/src/stm32f10x_flash.c ****   * @retval FLASH Status: The returned value can be: FLASH_ERROR_PG,
 928:lib/src/stm32f10x_flash.c ****   *         FLASH_ERROR_WRP, FLASH_COMPLETE or FLASH_TIMEOUT. 
 929:lib/src/stm32f10x_flash.c ****   */
 930:lib/src/stm32f10x_flash.c **** FLASH_Status FLASH_ProgramOptionByteData(uint32_t Address, uint8_t Data)
 931:lib/src/stm32f10x_flash.c **** {
 918              		.loc 1 931 0
 919              		.cfi_startproc
 920              		@ args = 0, pretend = 0, frame = 16
 921              		@ frame_needed = 1, uses_anonymous_args = 0
 922 03f8 80B5     		push	{r7, lr}
 923              		.cfi_def_cfa_offset 8
 924              		.cfi_offset 7, -8
 925              		.cfi_offset 14, -4
 926 03fa 84B0     		sub	sp, sp, #16
 927              		.cfi_def_cfa_offset 24
 928 03fc 00AF     		add	r7, sp, #0
 929              		.cfi_def_cfa_register 7
 930 03fe 7860     		str	r0, [r7, #4]
 931 0400 0B46     		mov	r3, r1
 932 0402 FB70     		strb	r3, [r7, #3]
 932:lib/src/stm32f10x_flash.c ****   FLASH_Status status = FLASH_COMPLETE;
 933              		.loc 1 932 0
 934 0404 0423     		movs	r3, #4
 935 0406 FB73     		strb	r3, [r7, #15]
 933:lib/src/stm32f10x_flash.c ****   /* Check the parameters */
 934:lib/src/stm32f10x_flash.c ****   assert_param(IS_OB_DATA_ADDRESS(Address));
 935:lib/src/stm32f10x_flash.c ****   status = FLASH_WaitForLastOperation(ProgramTimeout);
 936              		.loc 1 935 0
 937 0408 4FF40050 		mov	r0, #8192
 938 040c FFF7FEFF 		bl	FLASH_WaitForLastOperation
 939 0410 0346     		mov	r3, r0
 940 0412 FB73     		strb	r3, [r7, #15]
 936:lib/src/stm32f10x_flash.c **** 
 937:lib/src/stm32f10x_flash.c ****   if(status == FLASH_COMPLETE)
 941              		.loc 1 937 0
 942 0414 FB7B     		ldrb	r3, [r7, #15]	@ zero_extendqisi2
 943 0416 042B     		cmp	r3, #4
 944 0418 1FD1     		bne	.L57
ARM GAS  /tmp/cc7BzgT5.s 			page 34


 938:lib/src/stm32f10x_flash.c ****   {
 939:lib/src/stm32f10x_flash.c ****     /* Authorize the small information block programming */
 940:lib/src/stm32f10x_flash.c ****     FLASH->OPTKEYR = FLASH_KEY1;
 945              		.loc 1 940 0
 946 041a 124B     		ldr	r3, .L59
 947 041c 124A     		ldr	r2, .L59+4
 948 041e 9A60     		str	r2, [r3, #8]
 941:lib/src/stm32f10x_flash.c ****     FLASH->OPTKEYR = FLASH_KEY2;
 949              		.loc 1 941 0
 950 0420 104B     		ldr	r3, .L59
 951 0422 124A     		ldr	r2, .L59+8
 952 0424 9A60     		str	r2, [r3, #8]
 942:lib/src/stm32f10x_flash.c ****     /* Enables the Option Bytes Programming operation */
 943:lib/src/stm32f10x_flash.c ****     FLASH->CR |= CR_OPTPG_Set; 
 953              		.loc 1 943 0
 954 0426 0F4A     		ldr	r2, .L59
 955 0428 0E4B     		ldr	r3, .L59
 956 042a 1B69     		ldr	r3, [r3, #16]
 957 042c 43F01003 		orr	r3, r3, #16
 958 0430 1361     		str	r3, [r2, #16]
 944:lib/src/stm32f10x_flash.c ****     *(__IO uint16_t*)Address = Data;
 959              		.loc 1 944 0
 960 0432 7B68     		ldr	r3, [r7, #4]
 961 0434 FA78     		ldrb	r2, [r7, #3]	@ zero_extendqisi2
 962 0436 92B2     		uxth	r2, r2
 963 0438 1A80     		strh	r2, [r3]	@ movhi
 945:lib/src/stm32f10x_flash.c ****     
 946:lib/src/stm32f10x_flash.c ****     /* Wait for last operation to be completed */
 947:lib/src/stm32f10x_flash.c ****     status = FLASH_WaitForLastOperation(ProgramTimeout);
 964              		.loc 1 947 0
 965 043a 4FF40050 		mov	r0, #8192
 966 043e FFF7FEFF 		bl	FLASH_WaitForLastOperation
 967 0442 0346     		mov	r3, r0
 968 0444 FB73     		strb	r3, [r7, #15]
 948:lib/src/stm32f10x_flash.c ****     if(status != FLASH_TIMEOUT)
 969              		.loc 1 948 0
 970 0446 FB7B     		ldrb	r3, [r7, #15]	@ zero_extendqisi2
 971 0448 052B     		cmp	r3, #5
 972 044a 06D0     		beq	.L57
 949:lib/src/stm32f10x_flash.c ****     {
 950:lib/src/stm32f10x_flash.c ****       /* if the program operation is completed, disable the OPTPG Bit */
 951:lib/src/stm32f10x_flash.c ****       FLASH->CR &= CR_OPTPG_Reset;
 973              		.loc 1 951 0
 974 044c 0549     		ldr	r1, .L59
 975 044e 054B     		ldr	r3, .L59
 976 0450 1A69     		ldr	r2, [r3, #16]
 977 0452 41F6EF73 		movw	r3, #8175
 978 0456 1340     		ands	r3, r3, r2
 979 0458 0B61     		str	r3, [r1, #16]
 980              	.L57:
 952:lib/src/stm32f10x_flash.c ****     }
 953:lib/src/stm32f10x_flash.c ****   }
 954:lib/src/stm32f10x_flash.c ****   /* Return the Option Byte Data Program Status */
 955:lib/src/stm32f10x_flash.c ****   return status;
 981              		.loc 1 955 0
 982 045a FB7B     		ldrb	r3, [r7, #15]	@ zero_extendqisi2
 956:lib/src/stm32f10x_flash.c **** }
ARM GAS  /tmp/cc7BzgT5.s 			page 35


 983              		.loc 1 956 0
 984 045c 1846     		mov	r0, r3
 985 045e 1037     		adds	r7, r7, #16
 986              		.cfi_def_cfa_offset 8
 987 0460 BD46     		mov	sp, r7
 988              		.cfi_def_cfa_register 13
 989              		@ sp needed
 990 0462 80BD     		pop	{r7, pc}
 991              	.L60:
 992              		.align	2
 993              	.L59:
 994 0464 00200240 		.word	1073881088
 995 0468 23016745 		.word	1164378403
 996 046c AB89EFCD 		.word	-839939669
 997              		.cfi_endproc
 998              	.LFE77:
 999              		.size	FLASH_ProgramOptionByteData, .-FLASH_ProgramOptionByteData
 1000              		.align	1
 1001              		.global	FLASH_EnableWriteProtection
 1002              		.syntax unified
 1003              		.thumb
 1004              		.thumb_func
 1005              		.fpu softvfp
 1006              		.type	FLASH_EnableWriteProtection, %function
 1007              	FLASH_EnableWriteProtection:
 1008              	.LFB78:
 957:lib/src/stm32f10x_flash.c **** 
 958:lib/src/stm32f10x_flash.c **** /**
 959:lib/src/stm32f10x_flash.c ****   * @brief  Write protects the desired pages
 960:lib/src/stm32f10x_flash.c ****   * @note   This function can be used for all STM32F10x devices.
 961:lib/src/stm32f10x_flash.c ****   * @param  FLASH_Pages: specifies the address of the pages to be write protected.
 962:lib/src/stm32f10x_flash.c ****   *   This parameter can be:
 963:lib/src/stm32f10x_flash.c ****   *     @arg For @b STM32_Low-density_devices: value between FLASH_WRProt_Pages0to3 and FLASH_WRPro
 964:lib/src/stm32f10x_flash.c ****   *     @arg For @b STM32_Medium-density_devices: value between FLASH_WRProt_Pages0to3
 965:lib/src/stm32f10x_flash.c ****   *       and FLASH_WRProt_Pages124to127
 966:lib/src/stm32f10x_flash.c ****   *     @arg For @b STM32_High-density_devices: value between FLASH_WRProt_Pages0to1 and
 967:lib/src/stm32f10x_flash.c ****   *       FLASH_WRProt_Pages60to61 or FLASH_WRProt_Pages62to255
 968:lib/src/stm32f10x_flash.c ****   *     @arg For @b STM32_Connectivity_line_devices: value between FLASH_WRProt_Pages0to1 and
 969:lib/src/stm32f10x_flash.c ****   *       FLASH_WRProt_Pages60to61 or FLASH_WRProt_Pages62to127    
 970:lib/src/stm32f10x_flash.c ****   *     @arg For @b STM32_XL-density_devices: value between FLASH_WRProt_Pages0to1 and
 971:lib/src/stm32f10x_flash.c ****   *       FLASH_WRProt_Pages60to61 or FLASH_WRProt_Pages62to511
 972:lib/src/stm32f10x_flash.c ****   *     @arg FLASH_WRProt_AllPages
 973:lib/src/stm32f10x_flash.c ****   * @retval FLASH Status: The returned value can be: FLASH_ERROR_PG,
 974:lib/src/stm32f10x_flash.c ****   *         FLASH_ERROR_WRP, FLASH_COMPLETE or FLASH_TIMEOUT.
 975:lib/src/stm32f10x_flash.c ****   */
 976:lib/src/stm32f10x_flash.c **** FLASH_Status FLASH_EnableWriteProtection(uint32_t FLASH_Pages)
 977:lib/src/stm32f10x_flash.c **** {
 1009              		.loc 1 977 0
 1010              		.cfi_startproc
 1011              		@ args = 0, pretend = 0, frame = 24
 1012              		@ frame_needed = 1, uses_anonymous_args = 0
 1013 0470 80B5     		push	{r7, lr}
 1014              		.cfi_def_cfa_offset 8
 1015              		.cfi_offset 7, -8
 1016              		.cfi_offset 14, -4
 1017 0472 86B0     		sub	sp, sp, #24
 1018              		.cfi_def_cfa_offset 32
ARM GAS  /tmp/cc7BzgT5.s 			page 36


 1019 0474 00AF     		add	r7, sp, #0
 1020              		.cfi_def_cfa_register 7
 1021 0476 7860     		str	r0, [r7, #4]
 978:lib/src/stm32f10x_flash.c ****   uint16_t WRP0_Data = 0xFFFF, WRP1_Data = 0xFFFF, WRP2_Data = 0xFFFF, WRP3_Data = 0xFFFF;
 1022              		.loc 1 978 0
 1023 0478 4FF6FF73 		movw	r3, #65535
 1024 047c BB82     		strh	r3, [r7, #20]	@ movhi
 1025 047e 4FF6FF73 		movw	r3, #65535
 1026 0482 7B82     		strh	r3, [r7, #18]	@ movhi
 1027 0484 4FF6FF73 		movw	r3, #65535
 1028 0488 3B82     		strh	r3, [r7, #16]	@ movhi
 1029 048a 4FF6FF73 		movw	r3, #65535
 1030 048e FB81     		strh	r3, [r7, #14]	@ movhi
 979:lib/src/stm32f10x_flash.c ****   
 980:lib/src/stm32f10x_flash.c ****   FLASH_Status status = FLASH_COMPLETE;
 1031              		.loc 1 980 0
 1032 0490 0423     		movs	r3, #4
 1033 0492 FB75     		strb	r3, [r7, #23]
 981:lib/src/stm32f10x_flash.c ****   
 982:lib/src/stm32f10x_flash.c ****   /* Check the parameters */
 983:lib/src/stm32f10x_flash.c ****   assert_param(IS_FLASH_WRPROT_PAGE(FLASH_Pages));
 984:lib/src/stm32f10x_flash.c ****   
 985:lib/src/stm32f10x_flash.c ****   FLASH_Pages = (uint32_t)(~FLASH_Pages);
 1034              		.loc 1 985 0
 1035 0494 7B68     		ldr	r3, [r7, #4]
 1036 0496 DB43     		mvns	r3, r3
 1037 0498 7B60     		str	r3, [r7, #4]
 986:lib/src/stm32f10x_flash.c ****   WRP0_Data = (uint16_t)(FLASH_Pages & WRP0_Mask);
 1038              		.loc 1 986 0
 1039 049a 7B68     		ldr	r3, [r7, #4]
 1040 049c 9BB2     		uxth	r3, r3
 1041 049e DBB2     		uxtb	r3, r3
 1042 04a0 BB82     		strh	r3, [r7, #20]	@ movhi
 987:lib/src/stm32f10x_flash.c ****   WRP1_Data = (uint16_t)((FLASH_Pages & WRP1_Mask) >> 8);
 1043              		.loc 1 987 0
 1044 04a2 7B68     		ldr	r3, [r7, #4]
 1045 04a4 1B0A     		lsrs	r3, r3, #8
 1046 04a6 9BB2     		uxth	r3, r3
 1047 04a8 DBB2     		uxtb	r3, r3
 1048 04aa 7B82     		strh	r3, [r7, #18]	@ movhi
 988:lib/src/stm32f10x_flash.c ****   WRP2_Data = (uint16_t)((FLASH_Pages & WRP2_Mask) >> 16);
 1049              		.loc 1 988 0
 1050 04ac 7B68     		ldr	r3, [r7, #4]
 1051 04ae 1B0C     		lsrs	r3, r3, #16
 1052 04b0 9BB2     		uxth	r3, r3
 1053 04b2 DBB2     		uxtb	r3, r3
 1054 04b4 3B82     		strh	r3, [r7, #16]	@ movhi
 989:lib/src/stm32f10x_flash.c ****   WRP3_Data = (uint16_t)((FLASH_Pages & WRP3_Mask) >> 24);
 1055              		.loc 1 989 0
 1056 04b6 7B68     		ldr	r3, [r7, #4]
 1057 04b8 1B0E     		lsrs	r3, r3, #24
 1058 04ba FB81     		strh	r3, [r7, #14]	@ movhi
 990:lib/src/stm32f10x_flash.c ****   
 991:lib/src/stm32f10x_flash.c ****   /* Wait for last operation to be completed */
 992:lib/src/stm32f10x_flash.c ****   status = FLASH_WaitForLastOperation(ProgramTimeout);
 1059              		.loc 1 992 0
 1060 04bc 4FF40050 		mov	r0, #8192
ARM GAS  /tmp/cc7BzgT5.s 			page 37


 1061 04c0 FFF7FEFF 		bl	FLASH_WaitForLastOperation
 1062 04c4 0346     		mov	r3, r0
 1063 04c6 FB75     		strb	r3, [r7, #23]
 993:lib/src/stm32f10x_flash.c ****   
 994:lib/src/stm32f10x_flash.c ****   if(status == FLASH_COMPLETE)
 1064              		.loc 1 994 0
 1065 04c8 FB7D     		ldrb	r3, [r7, #23]	@ zero_extendqisi2
 1066 04ca 042B     		cmp	r3, #4
 1067 04cc 4ED1     		bne	.L62
 995:lib/src/stm32f10x_flash.c ****   {
 996:lib/src/stm32f10x_flash.c ****     /* Authorizes the small information block programming */
 997:lib/src/stm32f10x_flash.c ****     FLASH->OPTKEYR = FLASH_KEY1;
 1068              		.loc 1 997 0
 1069 04ce 2A4B     		ldr	r3, .L68
 1070 04d0 2A4A     		ldr	r2, .L68+4
 1071 04d2 9A60     		str	r2, [r3, #8]
 998:lib/src/stm32f10x_flash.c ****     FLASH->OPTKEYR = FLASH_KEY2;
 1072              		.loc 1 998 0
 1073 04d4 284B     		ldr	r3, .L68
 1074 04d6 2A4A     		ldr	r2, .L68+8
 1075 04d8 9A60     		str	r2, [r3, #8]
 999:lib/src/stm32f10x_flash.c ****     FLASH->CR |= CR_OPTPG_Set;
 1076              		.loc 1 999 0
 1077 04da 274A     		ldr	r2, .L68
 1078 04dc 264B     		ldr	r3, .L68
 1079 04de 1B69     		ldr	r3, [r3, #16]
 1080 04e0 43F01003 		orr	r3, r3, #16
 1081 04e4 1361     		str	r3, [r2, #16]
1000:lib/src/stm32f10x_flash.c ****     if(WRP0_Data != 0xFF)
 1082              		.loc 1 1000 0
 1083 04e6 BB8A     		ldrh	r3, [r7, #20]
 1084 04e8 FF2B     		cmp	r3, #255
 1085 04ea 08D0     		beq	.L63
1001:lib/src/stm32f10x_flash.c ****     {
1002:lib/src/stm32f10x_flash.c ****       OB->WRP0 = WRP0_Data;
 1086              		.loc 1 1002 0
 1087 04ec 254A     		ldr	r2, .L68+12
 1088 04ee BB8A     		ldrh	r3, [r7, #20]	@ movhi
 1089 04f0 1381     		strh	r3, [r2, #8]	@ movhi
1003:lib/src/stm32f10x_flash.c ****       
1004:lib/src/stm32f10x_flash.c ****       /* Wait for last operation to be completed */
1005:lib/src/stm32f10x_flash.c ****       status = FLASH_WaitForLastOperation(ProgramTimeout);
 1090              		.loc 1 1005 0
 1091 04f2 4FF40050 		mov	r0, #8192
 1092 04f6 FFF7FEFF 		bl	FLASH_WaitForLastOperation
 1093 04fa 0346     		mov	r3, r0
 1094 04fc FB75     		strb	r3, [r7, #23]
 1095              	.L63:
1006:lib/src/stm32f10x_flash.c ****     }
1007:lib/src/stm32f10x_flash.c ****     if((status == FLASH_COMPLETE) && (WRP1_Data != 0xFF))
 1096              		.loc 1 1007 0
 1097 04fe FB7D     		ldrb	r3, [r7, #23]	@ zero_extendqisi2
 1098 0500 042B     		cmp	r3, #4
 1099 0502 0BD1     		bne	.L64
 1100              		.loc 1 1007 0 is_stmt 0 discriminator 1
 1101 0504 7B8A     		ldrh	r3, [r7, #18]
 1102 0506 FF2B     		cmp	r3, #255
ARM GAS  /tmp/cc7BzgT5.s 			page 38


 1103 0508 08D0     		beq	.L64
1008:lib/src/stm32f10x_flash.c ****     {
1009:lib/src/stm32f10x_flash.c ****       OB->WRP1 = WRP1_Data;
 1104              		.loc 1 1009 0 is_stmt 1
 1105 050a 1E4A     		ldr	r2, .L68+12
 1106 050c 7B8A     		ldrh	r3, [r7, #18]	@ movhi
 1107 050e 5381     		strh	r3, [r2, #10]	@ movhi
1010:lib/src/stm32f10x_flash.c ****       
1011:lib/src/stm32f10x_flash.c ****       /* Wait for last operation to be completed */
1012:lib/src/stm32f10x_flash.c ****       status = FLASH_WaitForLastOperation(ProgramTimeout);
 1108              		.loc 1 1012 0
 1109 0510 4FF40050 		mov	r0, #8192
 1110 0514 FFF7FEFF 		bl	FLASH_WaitForLastOperation
 1111 0518 0346     		mov	r3, r0
 1112 051a FB75     		strb	r3, [r7, #23]
 1113              	.L64:
1013:lib/src/stm32f10x_flash.c ****     }
1014:lib/src/stm32f10x_flash.c ****     if((status == FLASH_COMPLETE) && (WRP2_Data != 0xFF))
 1114              		.loc 1 1014 0
 1115 051c FB7D     		ldrb	r3, [r7, #23]	@ zero_extendqisi2
 1116 051e 042B     		cmp	r3, #4
 1117 0520 0BD1     		bne	.L65
 1118              		.loc 1 1014 0 is_stmt 0 discriminator 1
 1119 0522 3B8A     		ldrh	r3, [r7, #16]
 1120 0524 FF2B     		cmp	r3, #255
 1121 0526 08D0     		beq	.L65
1015:lib/src/stm32f10x_flash.c ****     {
1016:lib/src/stm32f10x_flash.c ****       OB->WRP2 = WRP2_Data;
 1122              		.loc 1 1016 0 is_stmt 1
 1123 0528 164A     		ldr	r2, .L68+12
 1124 052a 3B8A     		ldrh	r3, [r7, #16]	@ movhi
 1125 052c 9381     		strh	r3, [r2, #12]	@ movhi
1017:lib/src/stm32f10x_flash.c ****       
1018:lib/src/stm32f10x_flash.c ****       /* Wait for last operation to be completed */
1019:lib/src/stm32f10x_flash.c ****       status = FLASH_WaitForLastOperation(ProgramTimeout);
 1126              		.loc 1 1019 0
 1127 052e 4FF40050 		mov	r0, #8192
 1128 0532 FFF7FEFF 		bl	FLASH_WaitForLastOperation
 1129 0536 0346     		mov	r3, r0
 1130 0538 FB75     		strb	r3, [r7, #23]
 1131              	.L65:
1020:lib/src/stm32f10x_flash.c ****     }
1021:lib/src/stm32f10x_flash.c ****     
1022:lib/src/stm32f10x_flash.c ****     if((status == FLASH_COMPLETE)&& (WRP3_Data != 0xFF))
 1132              		.loc 1 1022 0
 1133 053a FB7D     		ldrb	r3, [r7, #23]	@ zero_extendqisi2
 1134 053c 042B     		cmp	r3, #4
 1135 053e 0BD1     		bne	.L66
 1136              		.loc 1 1022 0 is_stmt 0 discriminator 1
 1137 0540 FB89     		ldrh	r3, [r7, #14]
 1138 0542 FF2B     		cmp	r3, #255
 1139 0544 08D0     		beq	.L66
1023:lib/src/stm32f10x_flash.c ****     {
1024:lib/src/stm32f10x_flash.c ****       OB->WRP3 = WRP3_Data;
 1140              		.loc 1 1024 0 is_stmt 1
 1141 0546 0F4A     		ldr	r2, .L68+12
 1142 0548 FB89     		ldrh	r3, [r7, #14]	@ movhi
ARM GAS  /tmp/cc7BzgT5.s 			page 39


 1143 054a D381     		strh	r3, [r2, #14]	@ movhi
1025:lib/src/stm32f10x_flash.c ****      
1026:lib/src/stm32f10x_flash.c ****       /* Wait for last operation to be completed */
1027:lib/src/stm32f10x_flash.c ****       status = FLASH_WaitForLastOperation(ProgramTimeout);
 1144              		.loc 1 1027 0
 1145 054c 4FF40050 		mov	r0, #8192
 1146 0550 FFF7FEFF 		bl	FLASH_WaitForLastOperation
 1147 0554 0346     		mov	r3, r0
 1148 0556 FB75     		strb	r3, [r7, #23]
 1149              	.L66:
1028:lib/src/stm32f10x_flash.c ****     }
1029:lib/src/stm32f10x_flash.c ****           
1030:lib/src/stm32f10x_flash.c ****     if(status != FLASH_TIMEOUT)
 1150              		.loc 1 1030 0
 1151 0558 FB7D     		ldrb	r3, [r7, #23]	@ zero_extendqisi2
 1152 055a 052B     		cmp	r3, #5
 1153 055c 06D0     		beq	.L62
1031:lib/src/stm32f10x_flash.c ****     {
1032:lib/src/stm32f10x_flash.c ****       /* if the program operation is completed, disable the OPTPG Bit */
1033:lib/src/stm32f10x_flash.c ****       FLASH->CR &= CR_OPTPG_Reset;
 1154              		.loc 1 1033 0
 1155 055e 0649     		ldr	r1, .L68
 1156 0560 054B     		ldr	r3, .L68
 1157 0562 1A69     		ldr	r2, [r3, #16]
 1158 0564 41F6EF73 		movw	r3, #8175
 1159 0568 1340     		ands	r3, r3, r2
 1160 056a 0B61     		str	r3, [r1, #16]
 1161              	.L62:
1034:lib/src/stm32f10x_flash.c ****     }
1035:lib/src/stm32f10x_flash.c ****   } 
1036:lib/src/stm32f10x_flash.c ****   /* Return the write protection operation Status */
1037:lib/src/stm32f10x_flash.c ****   return status;       
 1162              		.loc 1 1037 0
 1163 056c FB7D     		ldrb	r3, [r7, #23]	@ zero_extendqisi2
1038:lib/src/stm32f10x_flash.c **** }
 1164              		.loc 1 1038 0
 1165 056e 1846     		mov	r0, r3
 1166 0570 1837     		adds	r7, r7, #24
 1167              		.cfi_def_cfa_offset 8
 1168 0572 BD46     		mov	sp, r7
 1169              		.cfi_def_cfa_register 13
 1170              		@ sp needed
 1171 0574 80BD     		pop	{r7, pc}
 1172              	.L69:
 1173 0576 00BF     		.align	2
 1174              	.L68:
 1175 0578 00200240 		.word	1073881088
 1176 057c 23016745 		.word	1164378403
 1177 0580 AB89EFCD 		.word	-839939669
 1178 0584 00F8FF1F 		.word	536868864
 1179              		.cfi_endproc
 1180              	.LFE78:
 1181              		.size	FLASH_EnableWriteProtection, .-FLASH_EnableWriteProtection
 1182              		.align	1
 1183              		.global	FLASH_ReadOutProtection
 1184              		.syntax unified
 1185              		.thumb
ARM GAS  /tmp/cc7BzgT5.s 			page 40


 1186              		.thumb_func
 1187              		.fpu softvfp
 1188              		.type	FLASH_ReadOutProtection, %function
 1189              	FLASH_ReadOutProtection:
 1190              	.LFB79:
1039:lib/src/stm32f10x_flash.c **** 
1040:lib/src/stm32f10x_flash.c **** /**
1041:lib/src/stm32f10x_flash.c ****   * @brief  Enables or disables the read out protection.
1042:lib/src/stm32f10x_flash.c ****   * @note   If the user has already programmed the other option bytes before calling 
1043:lib/src/stm32f10x_flash.c ****   *   this function, he must re-program them since this function erases all option bytes.
1044:lib/src/stm32f10x_flash.c ****   * @note   This function can be used for all STM32F10x devices.
1045:lib/src/stm32f10x_flash.c ****   * @param  Newstate: new state of the ReadOut Protection.
1046:lib/src/stm32f10x_flash.c ****   *   This parameter can be: ENABLE or DISABLE.
1047:lib/src/stm32f10x_flash.c ****   * @retval FLASH Status: The returned value can be: FLASH_ERROR_PG,
1048:lib/src/stm32f10x_flash.c ****   *         FLASH_ERROR_WRP, FLASH_COMPLETE or FLASH_TIMEOUT.
1049:lib/src/stm32f10x_flash.c ****   */
1050:lib/src/stm32f10x_flash.c **** FLASH_Status FLASH_ReadOutProtection(FunctionalState NewState)
1051:lib/src/stm32f10x_flash.c **** {
 1191              		.loc 1 1051 0
 1192              		.cfi_startproc
 1193              		@ args = 0, pretend = 0, frame = 16
 1194              		@ frame_needed = 1, uses_anonymous_args = 0
 1195 0588 80B5     		push	{r7, lr}
 1196              		.cfi_def_cfa_offset 8
 1197              		.cfi_offset 7, -8
 1198              		.cfi_offset 14, -4
 1199 058a 84B0     		sub	sp, sp, #16
 1200              		.cfi_def_cfa_offset 24
 1201 058c 00AF     		add	r7, sp, #0
 1202              		.cfi_def_cfa_register 7
 1203 058e 0346     		mov	r3, r0
 1204 0590 FB71     		strb	r3, [r7, #7]
1052:lib/src/stm32f10x_flash.c ****   FLASH_Status status = FLASH_COMPLETE;
 1205              		.loc 1 1052 0
 1206 0592 0423     		movs	r3, #4
 1207 0594 FB73     		strb	r3, [r7, #15]
1053:lib/src/stm32f10x_flash.c ****   /* Check the parameters */
1054:lib/src/stm32f10x_flash.c ****   assert_param(IS_FUNCTIONAL_STATE(NewState));
1055:lib/src/stm32f10x_flash.c ****   status = FLASH_WaitForLastOperation(EraseTimeout);
 1208              		.loc 1 1055 0
 1209 0596 4FF43020 		mov	r0, #720896
 1210 059a FFF7FEFF 		bl	FLASH_WaitForLastOperation
 1211 059e 0346     		mov	r3, r0
 1212 05a0 FB73     		strb	r3, [r7, #15]
1056:lib/src/stm32f10x_flash.c ****   if(status == FLASH_COMPLETE)
 1213              		.loc 1 1056 0
 1214 05a2 FB7B     		ldrb	r3, [r7, #15]	@ zero_extendqisi2
 1215 05a4 042B     		cmp	r3, #4
 1216 05a6 4CD1     		bne	.L71
1057:lib/src/stm32f10x_flash.c ****   {
1058:lib/src/stm32f10x_flash.c ****     /* Authorizes the small information block programming */
1059:lib/src/stm32f10x_flash.c ****     FLASH->OPTKEYR = FLASH_KEY1;
 1217              		.loc 1 1059 0
 1218 05a8 284B     		ldr	r3, .L77
 1219 05aa 294A     		ldr	r2, .L77+4
 1220 05ac 9A60     		str	r2, [r3, #8]
1060:lib/src/stm32f10x_flash.c ****     FLASH->OPTKEYR = FLASH_KEY2;
ARM GAS  /tmp/cc7BzgT5.s 			page 41


 1221              		.loc 1 1060 0
 1222 05ae 274B     		ldr	r3, .L77
 1223 05b0 284A     		ldr	r2, .L77+8
 1224 05b2 9A60     		str	r2, [r3, #8]
1061:lib/src/stm32f10x_flash.c ****     FLASH->CR |= CR_OPTER_Set;
 1225              		.loc 1 1061 0
 1226 05b4 254A     		ldr	r2, .L77
 1227 05b6 254B     		ldr	r3, .L77
 1228 05b8 1B69     		ldr	r3, [r3, #16]
 1229 05ba 43F02003 		orr	r3, r3, #32
 1230 05be 1361     		str	r3, [r2, #16]
1062:lib/src/stm32f10x_flash.c ****     FLASH->CR |= CR_STRT_Set;
 1231              		.loc 1 1062 0
 1232 05c0 224A     		ldr	r2, .L77
 1233 05c2 224B     		ldr	r3, .L77
 1234 05c4 1B69     		ldr	r3, [r3, #16]
 1235 05c6 43F04003 		orr	r3, r3, #64
 1236 05ca 1361     		str	r3, [r2, #16]
1063:lib/src/stm32f10x_flash.c ****     /* Wait for last operation to be completed */
1064:lib/src/stm32f10x_flash.c ****     status = FLASH_WaitForLastOperation(EraseTimeout);
 1237              		.loc 1 1064 0
 1238 05cc 4FF43020 		mov	r0, #720896
 1239 05d0 FFF7FEFF 		bl	FLASH_WaitForLastOperation
 1240 05d4 0346     		mov	r3, r0
 1241 05d6 FB73     		strb	r3, [r7, #15]
1065:lib/src/stm32f10x_flash.c ****     if(status == FLASH_COMPLETE)
 1242              		.loc 1 1065 0
 1243 05d8 FB7B     		ldrb	r3, [r7, #15]	@ zero_extendqisi2
 1244 05da 042B     		cmp	r3, #4
 1245 05dc 27D1     		bne	.L72
1066:lib/src/stm32f10x_flash.c ****     {
1067:lib/src/stm32f10x_flash.c ****       /* if the erase operation is completed, disable the OPTER Bit */
1068:lib/src/stm32f10x_flash.c ****       FLASH->CR &= CR_OPTER_Reset;
 1246              		.loc 1 1068 0
 1247 05de 1B49     		ldr	r1, .L77
 1248 05e0 1A4B     		ldr	r3, .L77
 1249 05e2 1A69     		ldr	r2, [r3, #16]
 1250 05e4 41F6DF73 		movw	r3, #8159
 1251 05e8 1340     		ands	r3, r3, r2
 1252 05ea 0B61     		str	r3, [r1, #16]
1069:lib/src/stm32f10x_flash.c ****       /* Enable the Option Bytes Programming operation */
1070:lib/src/stm32f10x_flash.c ****       FLASH->CR |= CR_OPTPG_Set; 
 1253              		.loc 1 1070 0
 1254 05ec 174A     		ldr	r2, .L77
 1255 05ee 174B     		ldr	r3, .L77
 1256 05f0 1B69     		ldr	r3, [r3, #16]
 1257 05f2 43F01003 		orr	r3, r3, #16
 1258 05f6 1361     		str	r3, [r2, #16]
1071:lib/src/stm32f10x_flash.c ****       if(NewState != DISABLE)
 1259              		.loc 1 1071 0
 1260 05f8 FB79     		ldrb	r3, [r7, #7]	@ zero_extendqisi2
 1261 05fa 002B     		cmp	r3, #0
 1262 05fc 03D0     		beq	.L73
1072:lib/src/stm32f10x_flash.c ****       {
1073:lib/src/stm32f10x_flash.c ****         OB->RDP = 0x00;
 1263              		.loc 1 1073 0
 1264 05fe 164B     		ldr	r3, .L77+12
ARM GAS  /tmp/cc7BzgT5.s 			page 42


 1265 0600 0022     		movs	r2, #0
 1266 0602 1A80     		strh	r2, [r3]	@ movhi
 1267 0604 02E0     		b	.L74
 1268              	.L73:
1074:lib/src/stm32f10x_flash.c ****       }
1075:lib/src/stm32f10x_flash.c ****       else
1076:lib/src/stm32f10x_flash.c ****       {
1077:lib/src/stm32f10x_flash.c ****         OB->RDP = RDP_Key;  
 1269              		.loc 1 1077 0
 1270 0606 144B     		ldr	r3, .L77+12
 1271 0608 A522     		movs	r2, #165
 1272 060a 1A80     		strh	r2, [r3]	@ movhi
 1273              	.L74:
1078:lib/src/stm32f10x_flash.c ****       }
1079:lib/src/stm32f10x_flash.c ****       /* Wait for last operation to be completed */
1080:lib/src/stm32f10x_flash.c ****       status = FLASH_WaitForLastOperation(EraseTimeout); 
 1274              		.loc 1 1080 0
 1275 060c 4FF43020 		mov	r0, #720896
 1276 0610 FFF7FEFF 		bl	FLASH_WaitForLastOperation
 1277 0614 0346     		mov	r3, r0
 1278 0616 FB73     		strb	r3, [r7, #15]
1081:lib/src/stm32f10x_flash.c ****     
1082:lib/src/stm32f10x_flash.c ****       if(status != FLASH_TIMEOUT)
 1279              		.loc 1 1082 0
 1280 0618 FB7B     		ldrb	r3, [r7, #15]	@ zero_extendqisi2
 1281 061a 052B     		cmp	r3, #5
 1282 061c 11D0     		beq	.L71
1083:lib/src/stm32f10x_flash.c ****       {
1084:lib/src/stm32f10x_flash.c ****         /* if the program operation is completed, disable the OPTPG Bit */
1085:lib/src/stm32f10x_flash.c ****         FLASH->CR &= CR_OPTPG_Reset;
 1283              		.loc 1 1085 0
 1284 061e 0B49     		ldr	r1, .L77
 1285 0620 0A4B     		ldr	r3, .L77
 1286 0622 1A69     		ldr	r2, [r3, #16]
 1287 0624 41F6EF73 		movw	r3, #8175
 1288 0628 1340     		ands	r3, r3, r2
 1289 062a 0B61     		str	r3, [r1, #16]
 1290 062c 09E0     		b	.L71
 1291              	.L72:
1086:lib/src/stm32f10x_flash.c ****       }
1087:lib/src/stm32f10x_flash.c ****     }
1088:lib/src/stm32f10x_flash.c ****     else 
1089:lib/src/stm32f10x_flash.c ****     {
1090:lib/src/stm32f10x_flash.c ****       if(status != FLASH_TIMEOUT)
 1292              		.loc 1 1090 0
 1293 062e FB7B     		ldrb	r3, [r7, #15]	@ zero_extendqisi2
 1294 0630 052B     		cmp	r3, #5
 1295 0632 06D0     		beq	.L71
1091:lib/src/stm32f10x_flash.c ****       {
1092:lib/src/stm32f10x_flash.c ****         /* Disable the OPTER Bit */
1093:lib/src/stm32f10x_flash.c ****         FLASH->CR &= CR_OPTER_Reset;
 1296              		.loc 1 1093 0
 1297 0634 0549     		ldr	r1, .L77
 1298 0636 054B     		ldr	r3, .L77
 1299 0638 1A69     		ldr	r2, [r3, #16]
 1300 063a 41F6DF73 		movw	r3, #8159
 1301 063e 1340     		ands	r3, r3, r2
ARM GAS  /tmp/cc7BzgT5.s 			page 43


 1302 0640 0B61     		str	r3, [r1, #16]
 1303              	.L71:
1094:lib/src/stm32f10x_flash.c ****       }
1095:lib/src/stm32f10x_flash.c ****     }
1096:lib/src/stm32f10x_flash.c ****   }
1097:lib/src/stm32f10x_flash.c ****   /* Return the protection operation Status */
1098:lib/src/stm32f10x_flash.c ****   return status;       
 1304              		.loc 1 1098 0
 1305 0642 FB7B     		ldrb	r3, [r7, #15]	@ zero_extendqisi2
1099:lib/src/stm32f10x_flash.c **** }
 1306              		.loc 1 1099 0
 1307 0644 1846     		mov	r0, r3
 1308 0646 1037     		adds	r7, r7, #16
 1309              		.cfi_def_cfa_offset 8
 1310 0648 BD46     		mov	sp, r7
 1311              		.cfi_def_cfa_register 13
 1312              		@ sp needed
 1313 064a 80BD     		pop	{r7, pc}
 1314              	.L78:
 1315              		.align	2
 1316              	.L77:
 1317 064c 00200240 		.word	1073881088
 1318 0650 23016745 		.word	1164378403
 1319 0654 AB89EFCD 		.word	-839939669
 1320 0658 00F8FF1F 		.word	536868864
 1321              		.cfi_endproc
 1322              	.LFE79:
 1323              		.size	FLASH_ReadOutProtection, .-FLASH_ReadOutProtection
 1324              		.align	1
 1325              		.global	FLASH_UserOptionByteConfig
 1326              		.syntax unified
 1327              		.thumb
 1328              		.thumb_func
 1329              		.fpu softvfp
 1330              		.type	FLASH_UserOptionByteConfig, %function
 1331              	FLASH_UserOptionByteConfig:
 1332              	.LFB80:
1100:lib/src/stm32f10x_flash.c **** 
1101:lib/src/stm32f10x_flash.c **** /**
1102:lib/src/stm32f10x_flash.c ****   * @brief  Programs the FLASH User Option Byte: IWDG_SW / RST_STOP / RST_STDBY.
1103:lib/src/stm32f10x_flash.c ****   * @note   This function can be used for all STM32F10x devices.
1104:lib/src/stm32f10x_flash.c ****   * @param  OB_IWDG: Selects the IWDG mode
1105:lib/src/stm32f10x_flash.c ****   *   This parameter can be one of the following values:
1106:lib/src/stm32f10x_flash.c ****   *     @arg OB_IWDG_SW: Software IWDG selected
1107:lib/src/stm32f10x_flash.c ****   *     @arg OB_IWDG_HW: Hardware IWDG selected
1108:lib/src/stm32f10x_flash.c ****   * @param  OB_STOP: Reset event when entering STOP mode.
1109:lib/src/stm32f10x_flash.c ****   *   This parameter can be one of the following values:
1110:lib/src/stm32f10x_flash.c ****   *     @arg OB_STOP_NoRST: No reset generated when entering in STOP
1111:lib/src/stm32f10x_flash.c ****   *     @arg OB_STOP_RST: Reset generated when entering in STOP
1112:lib/src/stm32f10x_flash.c ****   * @param  OB_STDBY: Reset event when entering Standby mode.
1113:lib/src/stm32f10x_flash.c ****   *   This parameter can be one of the following values:
1114:lib/src/stm32f10x_flash.c ****   *     @arg OB_STDBY_NoRST: No reset generated when entering in STANDBY
1115:lib/src/stm32f10x_flash.c ****   *     @arg OB_STDBY_RST: Reset generated when entering in STANDBY
1116:lib/src/stm32f10x_flash.c ****   * @retval FLASH Status: The returned value can be: FLASH_ERROR_PG, 
1117:lib/src/stm32f10x_flash.c ****   *         FLASH_ERROR_WRP, FLASH_COMPLETE or FLASH_TIMEOUT.
1118:lib/src/stm32f10x_flash.c ****   */
1119:lib/src/stm32f10x_flash.c **** FLASH_Status FLASH_UserOptionByteConfig(uint16_t OB_IWDG, uint16_t OB_STOP, uint16_t OB_STDBY)
ARM GAS  /tmp/cc7BzgT5.s 			page 44


1120:lib/src/stm32f10x_flash.c **** {
 1333              		.loc 1 1120 0
 1334              		.cfi_startproc
 1335              		@ args = 0, pretend = 0, frame = 16
 1336              		@ frame_needed = 1, uses_anonymous_args = 0
 1337 065c 80B5     		push	{r7, lr}
 1338              		.cfi_def_cfa_offset 8
 1339              		.cfi_offset 7, -8
 1340              		.cfi_offset 14, -4
 1341 065e 84B0     		sub	sp, sp, #16
 1342              		.cfi_def_cfa_offset 24
 1343 0660 00AF     		add	r7, sp, #0
 1344              		.cfi_def_cfa_register 7
 1345 0662 0346     		mov	r3, r0
 1346 0664 FB80     		strh	r3, [r7, #6]	@ movhi
 1347 0666 0B46     		mov	r3, r1	@ movhi
 1348 0668 BB80     		strh	r3, [r7, #4]	@ movhi
 1349 066a 1346     		mov	r3, r2	@ movhi
 1350 066c 7B80     		strh	r3, [r7, #2]	@ movhi
1121:lib/src/stm32f10x_flash.c ****   FLASH_Status status = FLASH_COMPLETE; 
 1351              		.loc 1 1121 0
 1352 066e 0423     		movs	r3, #4
 1353 0670 FB73     		strb	r3, [r7, #15]
1122:lib/src/stm32f10x_flash.c **** 
1123:lib/src/stm32f10x_flash.c ****   /* Check the parameters */
1124:lib/src/stm32f10x_flash.c ****   assert_param(IS_OB_IWDG_SOURCE(OB_IWDG));
1125:lib/src/stm32f10x_flash.c ****   assert_param(IS_OB_STOP_SOURCE(OB_STOP));
1126:lib/src/stm32f10x_flash.c ****   assert_param(IS_OB_STDBY_SOURCE(OB_STDBY));
1127:lib/src/stm32f10x_flash.c **** 
1128:lib/src/stm32f10x_flash.c ****   /* Authorize the small information block programming */
1129:lib/src/stm32f10x_flash.c ****   FLASH->OPTKEYR = FLASH_KEY1;
 1354              		.loc 1 1129 0
 1355 0672 1B4B     		ldr	r3, .L82
 1356 0674 1B4A     		ldr	r2, .L82+4
 1357 0676 9A60     		str	r2, [r3, #8]
1130:lib/src/stm32f10x_flash.c ****   FLASH->OPTKEYR = FLASH_KEY2;
 1358              		.loc 1 1130 0
 1359 0678 194B     		ldr	r3, .L82
 1360 067a 1B4A     		ldr	r2, .L82+8
 1361 067c 9A60     		str	r2, [r3, #8]
1131:lib/src/stm32f10x_flash.c ****   
1132:lib/src/stm32f10x_flash.c ****   /* Wait for last operation to be completed */
1133:lib/src/stm32f10x_flash.c ****   status = FLASH_WaitForLastOperation(ProgramTimeout);
 1362              		.loc 1 1133 0
 1363 067e 4FF40050 		mov	r0, #8192
 1364 0682 FFF7FEFF 		bl	FLASH_WaitForLastOperation
 1365 0686 0346     		mov	r3, r0
 1366 0688 FB73     		strb	r3, [r7, #15]
1134:lib/src/stm32f10x_flash.c ****   
1135:lib/src/stm32f10x_flash.c ****   if(status == FLASH_COMPLETE)
 1367              		.loc 1 1135 0
 1368 068a FB7B     		ldrb	r3, [r7, #15]	@ zero_extendqisi2
 1369 068c 042B     		cmp	r3, #4
 1370 068e 21D1     		bne	.L80
1136:lib/src/stm32f10x_flash.c ****   {  
1137:lib/src/stm32f10x_flash.c ****     /* Enable the Option Bytes Programming operation */
1138:lib/src/stm32f10x_flash.c ****     FLASH->CR |= CR_OPTPG_Set; 
ARM GAS  /tmp/cc7BzgT5.s 			page 45


 1371              		.loc 1 1138 0
 1372 0690 134A     		ldr	r2, .L82
 1373 0692 134B     		ldr	r3, .L82
 1374 0694 1B69     		ldr	r3, [r3, #16]
 1375 0696 43F01003 		orr	r3, r3, #16
 1376 069a 1361     		str	r3, [r2, #16]
1139:lib/src/stm32f10x_flash.c ****            
1140:lib/src/stm32f10x_flash.c ****     OB->USER = OB_IWDG | (uint16_t)(OB_STOP | (uint16_t)(OB_STDBY | ((uint16_t)0xF8))); 
 1377              		.loc 1 1140 0
 1378 069c 1349     		ldr	r1, .L82+12
 1379 069e 7A88     		ldrh	r2, [r7, #2]	@ movhi
 1380 06a0 BB88     		ldrh	r3, [r7, #4]	@ movhi
 1381 06a2 1343     		orrs	r3, r3, r2
 1382 06a4 9AB2     		uxth	r2, r3
 1383 06a6 FB88     		ldrh	r3, [r7, #6]	@ movhi
 1384 06a8 1343     		orrs	r3, r3, r2
 1385 06aa 9BB2     		uxth	r3, r3
 1386 06ac 43F0F803 		orr	r3, r3, #248
 1387 06b0 9BB2     		uxth	r3, r3
 1388 06b2 4B80     		strh	r3, [r1, #2]	@ movhi
1141:lib/src/stm32f10x_flash.c ****   
1142:lib/src/stm32f10x_flash.c ****     /* Wait for last operation to be completed */
1143:lib/src/stm32f10x_flash.c ****     status = FLASH_WaitForLastOperation(ProgramTimeout);
 1389              		.loc 1 1143 0
 1390 06b4 4FF40050 		mov	r0, #8192
 1391 06b8 FFF7FEFF 		bl	FLASH_WaitForLastOperation
 1392 06bc 0346     		mov	r3, r0
 1393 06be FB73     		strb	r3, [r7, #15]
1144:lib/src/stm32f10x_flash.c ****     if(status != FLASH_TIMEOUT)
 1394              		.loc 1 1144 0
 1395 06c0 FB7B     		ldrb	r3, [r7, #15]	@ zero_extendqisi2
 1396 06c2 052B     		cmp	r3, #5
 1397 06c4 06D0     		beq	.L80
1145:lib/src/stm32f10x_flash.c ****     {
1146:lib/src/stm32f10x_flash.c ****       /* if the program operation is completed, disable the OPTPG Bit */
1147:lib/src/stm32f10x_flash.c ****       FLASH->CR &= CR_OPTPG_Reset;
 1398              		.loc 1 1147 0
 1399 06c6 0649     		ldr	r1, .L82
 1400 06c8 054B     		ldr	r3, .L82
 1401 06ca 1A69     		ldr	r2, [r3, #16]
 1402 06cc 41F6EF73 		movw	r3, #8175
 1403 06d0 1340     		ands	r3, r3, r2
 1404 06d2 0B61     		str	r3, [r1, #16]
 1405              	.L80:
1148:lib/src/stm32f10x_flash.c ****     }
1149:lib/src/stm32f10x_flash.c ****   }    
1150:lib/src/stm32f10x_flash.c ****   /* Return the Option Byte program Status */
1151:lib/src/stm32f10x_flash.c ****   return status;
 1406              		.loc 1 1151 0
 1407 06d4 FB7B     		ldrb	r3, [r7, #15]	@ zero_extendqisi2
1152:lib/src/stm32f10x_flash.c **** }
 1408              		.loc 1 1152 0
 1409 06d6 1846     		mov	r0, r3
 1410 06d8 1037     		adds	r7, r7, #16
 1411              		.cfi_def_cfa_offset 8
 1412 06da BD46     		mov	sp, r7
 1413              		.cfi_def_cfa_register 13
ARM GAS  /tmp/cc7BzgT5.s 			page 46


 1414              		@ sp needed
 1415 06dc 80BD     		pop	{r7, pc}
 1416              	.L83:
 1417 06de 00BF     		.align	2
 1418              	.L82:
 1419 06e0 00200240 		.word	1073881088
 1420 06e4 23016745 		.word	1164378403
 1421 06e8 AB89EFCD 		.word	-839939669
 1422 06ec 00F8FF1F 		.word	536868864
 1423              		.cfi_endproc
 1424              	.LFE80:
 1425              		.size	FLASH_UserOptionByteConfig, .-FLASH_UserOptionByteConfig
 1426              		.align	1
 1427              		.global	FLASH_GetUserOptionByte
 1428              		.syntax unified
 1429              		.thumb
 1430              		.thumb_func
 1431              		.fpu softvfp
 1432              		.type	FLASH_GetUserOptionByte, %function
 1433              	FLASH_GetUserOptionByte:
 1434              	.LFB81:
1153:lib/src/stm32f10x_flash.c **** 
1154:lib/src/stm32f10x_flash.c **** #ifdef STM32F10X_XL
1155:lib/src/stm32f10x_flash.c **** /**
1156:lib/src/stm32f10x_flash.c ****   * @brief  Configures to boot from Bank1 or Bank2.  
1157:lib/src/stm32f10x_flash.c ****   * @note   This function can be used only for STM32F10x_XL density devices.
1158:lib/src/stm32f10x_flash.c ****   * @param  FLASH_BOOT: select the FLASH Bank to boot from.
1159:lib/src/stm32f10x_flash.c ****   *   This parameter can be one of the following values:
1160:lib/src/stm32f10x_flash.c ****   *     @arg FLASH_BOOT_Bank1: At startup, if boot pins are set in boot from user Flash
1161:lib/src/stm32f10x_flash.c ****   *        position and this parameter is selected the device will boot from Bank1(Default).
1162:lib/src/stm32f10x_flash.c ****   *     @arg FLASH_BOOT_Bank2: At startup, if boot pins are set in boot from user Flash
1163:lib/src/stm32f10x_flash.c ****   *        position and this parameter is selected the device will boot from Bank2 or Bank1,
1164:lib/src/stm32f10x_flash.c ****   *        depending on the activation of the bank. The active banks are checked in
1165:lib/src/stm32f10x_flash.c ****   *        the following order: Bank2, followed by Bank1.
1166:lib/src/stm32f10x_flash.c ****   *        The active bank is recognized by the value programmed at the base address
1167:lib/src/stm32f10x_flash.c ****   *        of the respective bank (corresponding to the initial stack pointer value
1168:lib/src/stm32f10x_flash.c ****   *        in the interrupt vector table).
1169:lib/src/stm32f10x_flash.c ****   *        For more information, please refer to AN2606 from www.st.com.    
1170:lib/src/stm32f10x_flash.c ****   * @retval FLASH Status: The returned value can be: FLASH_ERROR_PG, 
1171:lib/src/stm32f10x_flash.c ****   *         FLASH_ERROR_WRP, FLASH_COMPLETE or FLASH_TIMEOUT.
1172:lib/src/stm32f10x_flash.c ****   */
1173:lib/src/stm32f10x_flash.c **** FLASH_Status FLASH_BootConfig(uint16_t FLASH_BOOT)
1174:lib/src/stm32f10x_flash.c **** { 
1175:lib/src/stm32f10x_flash.c ****   FLASH_Status status = FLASH_COMPLETE; 
1176:lib/src/stm32f10x_flash.c ****   assert_param(IS_FLASH_BOOT(FLASH_BOOT));
1177:lib/src/stm32f10x_flash.c ****   /* Authorize the small information block programming */
1178:lib/src/stm32f10x_flash.c ****   FLASH->OPTKEYR = FLASH_KEY1;
1179:lib/src/stm32f10x_flash.c ****   FLASH->OPTKEYR = FLASH_KEY2;
1180:lib/src/stm32f10x_flash.c ****   
1181:lib/src/stm32f10x_flash.c ****   /* Wait for last operation to be completed */
1182:lib/src/stm32f10x_flash.c ****   status = FLASH_WaitForLastOperation(ProgramTimeout);
1183:lib/src/stm32f10x_flash.c ****   
1184:lib/src/stm32f10x_flash.c ****   if(status == FLASH_COMPLETE)
1185:lib/src/stm32f10x_flash.c ****   {  
1186:lib/src/stm32f10x_flash.c ****     /* Enable the Option Bytes Programming operation */
1187:lib/src/stm32f10x_flash.c ****     FLASH->CR |= CR_OPTPG_Set; 
1188:lib/src/stm32f10x_flash.c **** 
ARM GAS  /tmp/cc7BzgT5.s 			page 47


1189:lib/src/stm32f10x_flash.c ****     if(FLASH_BOOT == FLASH_BOOT_Bank1)
1190:lib/src/stm32f10x_flash.c ****     {
1191:lib/src/stm32f10x_flash.c ****       OB->USER |= OB_USER_BFB2;
1192:lib/src/stm32f10x_flash.c ****     }
1193:lib/src/stm32f10x_flash.c ****     else
1194:lib/src/stm32f10x_flash.c ****     {
1195:lib/src/stm32f10x_flash.c ****       OB->USER &= (uint16_t)(~(uint16_t)(OB_USER_BFB2));
1196:lib/src/stm32f10x_flash.c ****     }
1197:lib/src/stm32f10x_flash.c ****     /* Wait for last operation to be completed */
1198:lib/src/stm32f10x_flash.c ****     status = FLASH_WaitForLastOperation(ProgramTimeout);
1199:lib/src/stm32f10x_flash.c ****     if(status != FLASH_TIMEOUT)
1200:lib/src/stm32f10x_flash.c ****     {
1201:lib/src/stm32f10x_flash.c ****       /* if the program operation is completed, disable the OPTPG Bit */
1202:lib/src/stm32f10x_flash.c ****       FLASH->CR &= CR_OPTPG_Reset;
1203:lib/src/stm32f10x_flash.c ****     }
1204:lib/src/stm32f10x_flash.c ****   }    
1205:lib/src/stm32f10x_flash.c ****   /* Return the Option Byte program Status */
1206:lib/src/stm32f10x_flash.c ****   return status;
1207:lib/src/stm32f10x_flash.c **** }
1208:lib/src/stm32f10x_flash.c **** #endif /* STM32F10X_XL */
1209:lib/src/stm32f10x_flash.c **** 
1210:lib/src/stm32f10x_flash.c **** /**
1211:lib/src/stm32f10x_flash.c ****   * @brief  Returns the FLASH User Option Bytes values.
1212:lib/src/stm32f10x_flash.c ****   * @note   This function can be used for all STM32F10x devices.
1213:lib/src/stm32f10x_flash.c ****   * @param  None
1214:lib/src/stm32f10x_flash.c ****   * @retval The FLASH User Option Bytes values:IWDG_SW(Bit0), RST_STOP(Bit1)
1215:lib/src/stm32f10x_flash.c ****   *         and RST_STDBY(Bit2).
1216:lib/src/stm32f10x_flash.c ****   */
1217:lib/src/stm32f10x_flash.c **** uint32_t FLASH_GetUserOptionByte(void)
1218:lib/src/stm32f10x_flash.c **** {
 1435              		.loc 1 1218 0
 1436              		.cfi_startproc
 1437              		@ args = 0, pretend = 0, frame = 0
 1438              		@ frame_needed = 1, uses_anonymous_args = 0
 1439              		@ link register save eliminated.
 1440 06f0 80B4     		push	{r7}
 1441              		.cfi_def_cfa_offset 4
 1442              		.cfi_offset 7, -4
 1443 06f2 00AF     		add	r7, sp, #0
 1444              		.cfi_def_cfa_register 7
1219:lib/src/stm32f10x_flash.c ****   /* Return the User Option Byte */
1220:lib/src/stm32f10x_flash.c ****   return (uint32_t)(FLASH->OBR >> 2);
 1445              		.loc 1 1220 0
 1446 06f4 034B     		ldr	r3, .L86
 1447 06f6 DB69     		ldr	r3, [r3, #28]
 1448 06f8 9B08     		lsrs	r3, r3, #2
1221:lib/src/stm32f10x_flash.c **** }
 1449              		.loc 1 1221 0
 1450 06fa 1846     		mov	r0, r3
 1451 06fc BD46     		mov	sp, r7
 1452              		.cfi_def_cfa_register 13
 1453              		@ sp needed
 1454 06fe 80BC     		pop	{r7}
 1455              		.cfi_restore 7
 1456              		.cfi_def_cfa_offset 0
 1457 0700 7047     		bx	lr
 1458              	.L87:
ARM GAS  /tmp/cc7BzgT5.s 			page 48


 1459 0702 00BF     		.align	2
 1460              	.L86:
 1461 0704 00200240 		.word	1073881088
 1462              		.cfi_endproc
 1463              	.LFE81:
 1464              		.size	FLASH_GetUserOptionByte, .-FLASH_GetUserOptionByte
 1465              		.align	1
 1466              		.global	FLASH_GetWriteProtectionOptionByte
 1467              		.syntax unified
 1468              		.thumb
 1469              		.thumb_func
 1470              		.fpu softvfp
 1471              		.type	FLASH_GetWriteProtectionOptionByte, %function
 1472              	FLASH_GetWriteProtectionOptionByte:
 1473              	.LFB82:
1222:lib/src/stm32f10x_flash.c **** 
1223:lib/src/stm32f10x_flash.c **** /**
1224:lib/src/stm32f10x_flash.c ****   * @brief  Returns the FLASH Write Protection Option Bytes Register value.
1225:lib/src/stm32f10x_flash.c ****   * @note   This function can be used for all STM32F10x devices.
1226:lib/src/stm32f10x_flash.c ****   * @param  None
1227:lib/src/stm32f10x_flash.c ****   * @retval The FLASH Write Protection  Option Bytes Register value
1228:lib/src/stm32f10x_flash.c ****   */
1229:lib/src/stm32f10x_flash.c **** uint32_t FLASH_GetWriteProtectionOptionByte(void)
1230:lib/src/stm32f10x_flash.c **** {
 1474              		.loc 1 1230 0
 1475              		.cfi_startproc
 1476              		@ args = 0, pretend = 0, frame = 0
 1477              		@ frame_needed = 1, uses_anonymous_args = 0
 1478              		@ link register save eliminated.
 1479 0708 80B4     		push	{r7}
 1480              		.cfi_def_cfa_offset 4
 1481              		.cfi_offset 7, -4
 1482 070a 00AF     		add	r7, sp, #0
 1483              		.cfi_def_cfa_register 7
1231:lib/src/stm32f10x_flash.c ****   /* Return the Flash write protection Register value */
1232:lib/src/stm32f10x_flash.c ****   return (uint32_t)(FLASH->WRPR);
 1484              		.loc 1 1232 0
 1485 070c 024B     		ldr	r3, .L90
 1486 070e 1B6A     		ldr	r3, [r3, #32]
1233:lib/src/stm32f10x_flash.c **** }
 1487              		.loc 1 1233 0
 1488 0710 1846     		mov	r0, r3
 1489 0712 BD46     		mov	sp, r7
 1490              		.cfi_def_cfa_register 13
 1491              		@ sp needed
 1492 0714 80BC     		pop	{r7}
 1493              		.cfi_restore 7
 1494              		.cfi_def_cfa_offset 0
 1495 0716 7047     		bx	lr
 1496              	.L91:
 1497              		.align	2
 1498              	.L90:
 1499 0718 00200240 		.word	1073881088
 1500              		.cfi_endproc
 1501              	.LFE82:
 1502              		.size	FLASH_GetWriteProtectionOptionByte, .-FLASH_GetWriteProtectionOptionByte
 1503              		.align	1
ARM GAS  /tmp/cc7BzgT5.s 			page 49


 1504              		.global	FLASH_GetReadOutProtectionStatus
 1505              		.syntax unified
 1506              		.thumb
 1507              		.thumb_func
 1508              		.fpu softvfp
 1509              		.type	FLASH_GetReadOutProtectionStatus, %function
 1510              	FLASH_GetReadOutProtectionStatus:
 1511              	.LFB83:
1234:lib/src/stm32f10x_flash.c **** 
1235:lib/src/stm32f10x_flash.c **** /**
1236:lib/src/stm32f10x_flash.c ****   * @brief  Checks whether the FLASH Read Out Protection Status is set or not.
1237:lib/src/stm32f10x_flash.c ****   * @note   This function can be used for all STM32F10x devices.
1238:lib/src/stm32f10x_flash.c ****   * @param  None
1239:lib/src/stm32f10x_flash.c ****   * @retval FLASH ReadOut Protection Status(SET or RESET)
1240:lib/src/stm32f10x_flash.c ****   */
1241:lib/src/stm32f10x_flash.c **** FlagStatus FLASH_GetReadOutProtectionStatus(void)
1242:lib/src/stm32f10x_flash.c **** {
 1512              		.loc 1 1242 0
 1513              		.cfi_startproc
 1514              		@ args = 0, pretend = 0, frame = 8
 1515              		@ frame_needed = 1, uses_anonymous_args = 0
 1516              		@ link register save eliminated.
 1517 071c 80B4     		push	{r7}
 1518              		.cfi_def_cfa_offset 4
 1519              		.cfi_offset 7, -4
 1520 071e 83B0     		sub	sp, sp, #12
 1521              		.cfi_def_cfa_offset 16
 1522 0720 00AF     		add	r7, sp, #0
 1523              		.cfi_def_cfa_register 7
1243:lib/src/stm32f10x_flash.c ****   FlagStatus readoutstatus = RESET;
 1524              		.loc 1 1243 0
 1525 0722 0023     		movs	r3, #0
 1526 0724 FB71     		strb	r3, [r7, #7]
1244:lib/src/stm32f10x_flash.c ****   if ((FLASH->OBR & RDPRT_Mask) != (uint32_t)RESET)
 1527              		.loc 1 1244 0
 1528 0726 084B     		ldr	r3, .L96
 1529 0728 DB69     		ldr	r3, [r3, #28]
 1530 072a 03F00203 		and	r3, r3, #2
 1531 072e 002B     		cmp	r3, #0
 1532 0730 02D0     		beq	.L93
1245:lib/src/stm32f10x_flash.c ****   {
1246:lib/src/stm32f10x_flash.c ****     readoutstatus = SET;
 1533              		.loc 1 1246 0
 1534 0732 0123     		movs	r3, #1
 1535 0734 FB71     		strb	r3, [r7, #7]
 1536 0736 01E0     		b	.L94
 1537              	.L93:
1247:lib/src/stm32f10x_flash.c ****   }
1248:lib/src/stm32f10x_flash.c ****   else
1249:lib/src/stm32f10x_flash.c ****   {
1250:lib/src/stm32f10x_flash.c ****     readoutstatus = RESET;
 1538              		.loc 1 1250 0
 1539 0738 0023     		movs	r3, #0
 1540 073a FB71     		strb	r3, [r7, #7]
 1541              	.L94:
1251:lib/src/stm32f10x_flash.c ****   }
1252:lib/src/stm32f10x_flash.c ****   return readoutstatus;
ARM GAS  /tmp/cc7BzgT5.s 			page 50


 1542              		.loc 1 1252 0
 1543 073c FB79     		ldrb	r3, [r7, #7]	@ zero_extendqisi2
1253:lib/src/stm32f10x_flash.c **** }
 1544              		.loc 1 1253 0
 1545 073e 1846     		mov	r0, r3
 1546 0740 0C37     		adds	r7, r7, #12
 1547              		.cfi_def_cfa_offset 4
 1548 0742 BD46     		mov	sp, r7
 1549              		.cfi_def_cfa_register 13
 1550              		@ sp needed
 1551 0744 80BC     		pop	{r7}
 1552              		.cfi_restore 7
 1553              		.cfi_def_cfa_offset 0
 1554 0746 7047     		bx	lr
 1555              	.L97:
 1556              		.align	2
 1557              	.L96:
 1558 0748 00200240 		.word	1073881088
 1559              		.cfi_endproc
 1560              	.LFE83:
 1561              		.size	FLASH_GetReadOutProtectionStatus, .-FLASH_GetReadOutProtectionStatus
 1562              		.align	1
 1563              		.global	FLASH_GetPrefetchBufferStatus
 1564              		.syntax unified
 1565              		.thumb
 1566              		.thumb_func
 1567              		.fpu softvfp
 1568              		.type	FLASH_GetPrefetchBufferStatus, %function
 1569              	FLASH_GetPrefetchBufferStatus:
 1570              	.LFB84:
1254:lib/src/stm32f10x_flash.c **** 
1255:lib/src/stm32f10x_flash.c **** /**
1256:lib/src/stm32f10x_flash.c ****   * @brief  Checks whether the FLASH Prefetch Buffer status is set or not.
1257:lib/src/stm32f10x_flash.c ****   * @note   This function can be used for all STM32F10x devices.
1258:lib/src/stm32f10x_flash.c ****   * @param  None
1259:lib/src/stm32f10x_flash.c ****   * @retval FLASH Prefetch Buffer Status (SET or RESET).
1260:lib/src/stm32f10x_flash.c ****   */
1261:lib/src/stm32f10x_flash.c **** FlagStatus FLASH_GetPrefetchBufferStatus(void)
1262:lib/src/stm32f10x_flash.c **** {
 1571              		.loc 1 1262 0
 1572              		.cfi_startproc
 1573              		@ args = 0, pretend = 0, frame = 8
 1574              		@ frame_needed = 1, uses_anonymous_args = 0
 1575              		@ link register save eliminated.
 1576 074c 80B4     		push	{r7}
 1577              		.cfi_def_cfa_offset 4
 1578              		.cfi_offset 7, -4
 1579 074e 83B0     		sub	sp, sp, #12
 1580              		.cfi_def_cfa_offset 16
 1581 0750 00AF     		add	r7, sp, #0
 1582              		.cfi_def_cfa_register 7
1263:lib/src/stm32f10x_flash.c ****   FlagStatus bitstatus = RESET;
 1583              		.loc 1 1263 0
 1584 0752 0023     		movs	r3, #0
 1585 0754 FB71     		strb	r3, [r7, #7]
1264:lib/src/stm32f10x_flash.c ****   
1265:lib/src/stm32f10x_flash.c ****   if ((FLASH->ACR & ACR_PRFTBS_Mask) != (uint32_t)RESET)
ARM GAS  /tmp/cc7BzgT5.s 			page 51


 1586              		.loc 1 1265 0
 1587 0756 084B     		ldr	r3, .L102
 1588 0758 1B68     		ldr	r3, [r3]
 1589 075a 03F02003 		and	r3, r3, #32
 1590 075e 002B     		cmp	r3, #0
 1591 0760 02D0     		beq	.L99
1266:lib/src/stm32f10x_flash.c ****   {
1267:lib/src/stm32f10x_flash.c ****     bitstatus = SET;
 1592              		.loc 1 1267 0
 1593 0762 0123     		movs	r3, #1
 1594 0764 FB71     		strb	r3, [r7, #7]
 1595 0766 01E0     		b	.L100
 1596              	.L99:
1268:lib/src/stm32f10x_flash.c ****   }
1269:lib/src/stm32f10x_flash.c ****   else
1270:lib/src/stm32f10x_flash.c ****   {
1271:lib/src/stm32f10x_flash.c ****     bitstatus = RESET;
 1597              		.loc 1 1271 0
 1598 0768 0023     		movs	r3, #0
 1599 076a FB71     		strb	r3, [r7, #7]
 1600              	.L100:
1272:lib/src/stm32f10x_flash.c ****   }
1273:lib/src/stm32f10x_flash.c ****   /* Return the new state of FLASH Prefetch Buffer Status (SET or RESET) */
1274:lib/src/stm32f10x_flash.c ****   return bitstatus; 
 1601              		.loc 1 1274 0
 1602 076c FB79     		ldrb	r3, [r7, #7]	@ zero_extendqisi2
1275:lib/src/stm32f10x_flash.c **** }
 1603              		.loc 1 1275 0
 1604 076e 1846     		mov	r0, r3
 1605 0770 0C37     		adds	r7, r7, #12
 1606              		.cfi_def_cfa_offset 4
 1607 0772 BD46     		mov	sp, r7
 1608              		.cfi_def_cfa_register 13
 1609              		@ sp needed
 1610 0774 80BC     		pop	{r7}
 1611              		.cfi_restore 7
 1612              		.cfi_def_cfa_offset 0
 1613 0776 7047     		bx	lr
 1614              	.L103:
 1615              		.align	2
 1616              	.L102:
 1617 0778 00200240 		.word	1073881088
 1618              		.cfi_endproc
 1619              	.LFE84:
 1620              		.size	FLASH_GetPrefetchBufferStatus, .-FLASH_GetPrefetchBufferStatus
 1621              		.align	1
 1622              		.global	FLASH_ITConfig
 1623              		.syntax unified
 1624              		.thumb
 1625              		.thumb_func
 1626              		.fpu softvfp
 1627              		.type	FLASH_ITConfig, %function
 1628              	FLASH_ITConfig:
 1629              	.LFB85:
1276:lib/src/stm32f10x_flash.c **** 
1277:lib/src/stm32f10x_flash.c **** /**
1278:lib/src/stm32f10x_flash.c ****   * @brief  Enables or disables the specified FLASH interrupts.
ARM GAS  /tmp/cc7BzgT5.s 			page 52


1279:lib/src/stm32f10x_flash.c ****   * @note   This function can be used for all STM32F10x devices.
1280:lib/src/stm32f10x_flash.c ****   *         - For STM32F10X_XL devices, enables or disables the specified FLASH interrupts
1281:lib/src/stm32f10x_flash.c ****               for Bank1 and Bank2.
1282:lib/src/stm32f10x_flash.c ****   *         - For other devices it enables or disables the specified FLASH interrupts for Bank1.
1283:lib/src/stm32f10x_flash.c ****   * @param  FLASH_IT: specifies the FLASH interrupt sources to be enabled or disabled.
1284:lib/src/stm32f10x_flash.c ****   *   This parameter can be any combination of the following values:
1285:lib/src/stm32f10x_flash.c ****   *     @arg FLASH_IT_ERROR: FLASH Error Interrupt
1286:lib/src/stm32f10x_flash.c ****   *     @arg FLASH_IT_EOP: FLASH end of operation Interrupt
1287:lib/src/stm32f10x_flash.c ****   * @param  NewState: new state of the specified Flash interrupts.
1288:lib/src/stm32f10x_flash.c ****   *   This parameter can be: ENABLE or DISABLE.      
1289:lib/src/stm32f10x_flash.c ****   * @retval None 
1290:lib/src/stm32f10x_flash.c ****   */
1291:lib/src/stm32f10x_flash.c **** void FLASH_ITConfig(uint32_t FLASH_IT, FunctionalState NewState)
1292:lib/src/stm32f10x_flash.c **** {
 1630              		.loc 1 1292 0
 1631              		.cfi_startproc
 1632              		@ args = 0, pretend = 0, frame = 8
 1633              		@ frame_needed = 1, uses_anonymous_args = 0
 1634              		@ link register save eliminated.
 1635 077c 80B4     		push	{r7}
 1636              		.cfi_def_cfa_offset 4
 1637              		.cfi_offset 7, -4
 1638 077e 83B0     		sub	sp, sp, #12
 1639              		.cfi_def_cfa_offset 16
 1640 0780 00AF     		add	r7, sp, #0
 1641              		.cfi_def_cfa_register 7
 1642 0782 7860     		str	r0, [r7, #4]
 1643 0784 0B46     		mov	r3, r1
 1644 0786 FB70     		strb	r3, [r7, #3]
1293:lib/src/stm32f10x_flash.c **** #ifdef STM32F10X_XL
1294:lib/src/stm32f10x_flash.c ****   /* Check the parameters */
1295:lib/src/stm32f10x_flash.c ****   assert_param(IS_FLASH_IT(FLASH_IT)); 
1296:lib/src/stm32f10x_flash.c ****   assert_param(IS_FUNCTIONAL_STATE(NewState));
1297:lib/src/stm32f10x_flash.c **** 
1298:lib/src/stm32f10x_flash.c ****   if((FLASH_IT & 0x80000000) != 0x0)
1299:lib/src/stm32f10x_flash.c ****   {
1300:lib/src/stm32f10x_flash.c ****     if(NewState != DISABLE)
1301:lib/src/stm32f10x_flash.c ****     {
1302:lib/src/stm32f10x_flash.c ****       /* Enable the interrupt sources */
1303:lib/src/stm32f10x_flash.c ****       FLASH->CR2 |= (FLASH_IT & 0x7FFFFFFF);
1304:lib/src/stm32f10x_flash.c ****     }
1305:lib/src/stm32f10x_flash.c ****     else
1306:lib/src/stm32f10x_flash.c ****     {
1307:lib/src/stm32f10x_flash.c ****       /* Disable the interrupt sources */
1308:lib/src/stm32f10x_flash.c ****       FLASH->CR2 &= ~(uint32_t)(FLASH_IT & 0x7FFFFFFF);
1309:lib/src/stm32f10x_flash.c ****     }
1310:lib/src/stm32f10x_flash.c ****   }
1311:lib/src/stm32f10x_flash.c ****   else
1312:lib/src/stm32f10x_flash.c ****   {
1313:lib/src/stm32f10x_flash.c ****     if(NewState != DISABLE)
1314:lib/src/stm32f10x_flash.c ****     {
1315:lib/src/stm32f10x_flash.c ****       /* Enable the interrupt sources */
1316:lib/src/stm32f10x_flash.c ****       FLASH->CR |= FLASH_IT;
1317:lib/src/stm32f10x_flash.c ****     }
1318:lib/src/stm32f10x_flash.c ****     else
1319:lib/src/stm32f10x_flash.c ****     {
1320:lib/src/stm32f10x_flash.c ****       /* Disable the interrupt sources */
ARM GAS  /tmp/cc7BzgT5.s 			page 53


1321:lib/src/stm32f10x_flash.c ****       FLASH->CR &= ~(uint32_t)FLASH_IT;
1322:lib/src/stm32f10x_flash.c ****     }
1323:lib/src/stm32f10x_flash.c ****   }
1324:lib/src/stm32f10x_flash.c **** #else
1325:lib/src/stm32f10x_flash.c ****   /* Check the parameters */
1326:lib/src/stm32f10x_flash.c ****   assert_param(IS_FLASH_IT(FLASH_IT)); 
1327:lib/src/stm32f10x_flash.c ****   assert_param(IS_FUNCTIONAL_STATE(NewState));
1328:lib/src/stm32f10x_flash.c **** 
1329:lib/src/stm32f10x_flash.c ****   if(NewState != DISABLE)
 1645              		.loc 1 1329 0
 1646 0788 FB78     		ldrb	r3, [r7, #3]	@ zero_extendqisi2
 1647 078a 002B     		cmp	r3, #0
 1648 078c 06D0     		beq	.L105
1330:lib/src/stm32f10x_flash.c ****   {
1331:lib/src/stm32f10x_flash.c ****     /* Enable the interrupt sources */
1332:lib/src/stm32f10x_flash.c ****     FLASH->CR |= FLASH_IT;
 1649              		.loc 1 1332 0
 1650 078e 0949     		ldr	r1, .L108
 1651 0790 084B     		ldr	r3, .L108
 1652 0792 1A69     		ldr	r2, [r3, #16]
 1653 0794 7B68     		ldr	r3, [r7, #4]
 1654 0796 1343     		orrs	r3, r3, r2
 1655 0798 0B61     		str	r3, [r1, #16]
1333:lib/src/stm32f10x_flash.c ****   }
1334:lib/src/stm32f10x_flash.c ****   else
1335:lib/src/stm32f10x_flash.c ****   {
1336:lib/src/stm32f10x_flash.c ****     /* Disable the interrupt sources */
1337:lib/src/stm32f10x_flash.c ****     FLASH->CR &= ~(uint32_t)FLASH_IT;
1338:lib/src/stm32f10x_flash.c ****   }
1339:lib/src/stm32f10x_flash.c **** #endif /* STM32F10X_XL */
1340:lib/src/stm32f10x_flash.c **** }
 1656              		.loc 1 1340 0
 1657 079a 06E0     		b	.L107
 1658              	.L105:
1337:lib/src/stm32f10x_flash.c ****   }
 1659              		.loc 1 1337 0
 1660 079c 0549     		ldr	r1, .L108
 1661 079e 054B     		ldr	r3, .L108
 1662 07a0 1A69     		ldr	r2, [r3, #16]
 1663 07a2 7B68     		ldr	r3, [r7, #4]
 1664 07a4 DB43     		mvns	r3, r3
 1665 07a6 1340     		ands	r3, r3, r2
 1666 07a8 0B61     		str	r3, [r1, #16]
 1667              	.L107:
 1668              		.loc 1 1340 0
 1669 07aa 00BF     		nop
 1670 07ac 0C37     		adds	r7, r7, #12
 1671              		.cfi_def_cfa_offset 4
 1672 07ae BD46     		mov	sp, r7
 1673              		.cfi_def_cfa_register 13
 1674              		@ sp needed
 1675 07b0 80BC     		pop	{r7}
 1676              		.cfi_restore 7
 1677              		.cfi_def_cfa_offset 0
 1678 07b2 7047     		bx	lr
 1679              	.L109:
 1680              		.align	2
ARM GAS  /tmp/cc7BzgT5.s 			page 54


 1681              	.L108:
 1682 07b4 00200240 		.word	1073881088
 1683              		.cfi_endproc
 1684              	.LFE85:
 1685              		.size	FLASH_ITConfig, .-FLASH_ITConfig
 1686              		.align	1
 1687              		.global	FLASH_GetFlagStatus
 1688              		.syntax unified
 1689              		.thumb
 1690              		.thumb_func
 1691              		.fpu softvfp
 1692              		.type	FLASH_GetFlagStatus, %function
 1693              	FLASH_GetFlagStatus:
 1694              	.LFB86:
1341:lib/src/stm32f10x_flash.c **** 
1342:lib/src/stm32f10x_flash.c **** /**
1343:lib/src/stm32f10x_flash.c ****   * @brief  Checks whether the specified FLASH flag is set or not.
1344:lib/src/stm32f10x_flash.c ****   * @note   This function can be used for all STM32F10x devices.
1345:lib/src/stm32f10x_flash.c ****   *         - For STM32F10X_XL devices, this function checks whether the specified 
1346:lib/src/stm32f10x_flash.c ****   *           Bank1 or Bank2 flag is set or not.
1347:lib/src/stm32f10x_flash.c ****   *         - For other devices, it checks whether the specified Bank1 flag is 
1348:lib/src/stm32f10x_flash.c ****   *           set or not.
1349:lib/src/stm32f10x_flash.c ****   * @param  FLASH_FLAG: specifies the FLASH flag to check.
1350:lib/src/stm32f10x_flash.c ****   *   This parameter can be one of the following values:
1351:lib/src/stm32f10x_flash.c ****   *     @arg FLASH_FLAG_BSY: FLASH Busy flag           
1352:lib/src/stm32f10x_flash.c ****   *     @arg FLASH_FLAG_PGERR: FLASH Program error flag       
1353:lib/src/stm32f10x_flash.c ****   *     @arg FLASH_FLAG_WRPRTERR: FLASH Write protected error flag      
1354:lib/src/stm32f10x_flash.c ****   *     @arg FLASH_FLAG_EOP: FLASH End of Operation flag           
1355:lib/src/stm32f10x_flash.c ****   *     @arg FLASH_FLAG_OPTERR:  FLASH Option Byte error flag     
1356:lib/src/stm32f10x_flash.c ****   * @retval The new state of FLASH_FLAG (SET or RESET).
1357:lib/src/stm32f10x_flash.c ****   */
1358:lib/src/stm32f10x_flash.c **** FlagStatus FLASH_GetFlagStatus(uint32_t FLASH_FLAG)
1359:lib/src/stm32f10x_flash.c **** {
 1695              		.loc 1 1359 0
 1696              		.cfi_startproc
 1697              		@ args = 0, pretend = 0, frame = 16
 1698              		@ frame_needed = 1, uses_anonymous_args = 0
 1699              		@ link register save eliminated.
 1700 07b8 80B4     		push	{r7}
 1701              		.cfi_def_cfa_offset 4
 1702              		.cfi_offset 7, -4
 1703 07ba 85B0     		sub	sp, sp, #20
 1704              		.cfi_def_cfa_offset 24
 1705 07bc 00AF     		add	r7, sp, #0
 1706              		.cfi_def_cfa_register 7
 1707 07be 7860     		str	r0, [r7, #4]
1360:lib/src/stm32f10x_flash.c ****   FlagStatus bitstatus = RESET;
 1708              		.loc 1 1360 0
 1709 07c0 0023     		movs	r3, #0
 1710 07c2 FB73     		strb	r3, [r7, #15]
1361:lib/src/stm32f10x_flash.c **** 
1362:lib/src/stm32f10x_flash.c **** #ifdef STM32F10X_XL
1363:lib/src/stm32f10x_flash.c ****   /* Check the parameters */
1364:lib/src/stm32f10x_flash.c ****   assert_param(IS_FLASH_GET_FLAG(FLASH_FLAG)) ;
1365:lib/src/stm32f10x_flash.c ****   if(FLASH_FLAG == FLASH_FLAG_OPTERR) 
1366:lib/src/stm32f10x_flash.c ****   {
1367:lib/src/stm32f10x_flash.c ****     if((FLASH->OBR & FLASH_FLAG_OPTERR) != (uint32_t)RESET)
ARM GAS  /tmp/cc7BzgT5.s 			page 55


1368:lib/src/stm32f10x_flash.c ****     {
1369:lib/src/stm32f10x_flash.c ****       bitstatus = SET;
1370:lib/src/stm32f10x_flash.c ****     }
1371:lib/src/stm32f10x_flash.c ****     else
1372:lib/src/stm32f10x_flash.c ****     {
1373:lib/src/stm32f10x_flash.c ****       bitstatus = RESET;
1374:lib/src/stm32f10x_flash.c ****     }
1375:lib/src/stm32f10x_flash.c ****   }
1376:lib/src/stm32f10x_flash.c ****   else
1377:lib/src/stm32f10x_flash.c ****   {
1378:lib/src/stm32f10x_flash.c ****     if((FLASH_FLAG & 0x80000000) != 0x0)
1379:lib/src/stm32f10x_flash.c ****     {
1380:lib/src/stm32f10x_flash.c ****       if((FLASH->SR2 & FLASH_FLAG) != (uint32_t)RESET)
1381:lib/src/stm32f10x_flash.c ****       {
1382:lib/src/stm32f10x_flash.c ****         bitstatus = SET;
1383:lib/src/stm32f10x_flash.c ****       }
1384:lib/src/stm32f10x_flash.c ****       else
1385:lib/src/stm32f10x_flash.c ****       {
1386:lib/src/stm32f10x_flash.c ****         bitstatus = RESET;
1387:lib/src/stm32f10x_flash.c ****       }
1388:lib/src/stm32f10x_flash.c ****     }
1389:lib/src/stm32f10x_flash.c ****     else
1390:lib/src/stm32f10x_flash.c ****     {
1391:lib/src/stm32f10x_flash.c ****       if((FLASH->SR & FLASH_FLAG) != (uint32_t)RESET)
1392:lib/src/stm32f10x_flash.c ****       {
1393:lib/src/stm32f10x_flash.c ****         bitstatus = SET;
1394:lib/src/stm32f10x_flash.c ****       }
1395:lib/src/stm32f10x_flash.c ****       else
1396:lib/src/stm32f10x_flash.c ****       {
1397:lib/src/stm32f10x_flash.c ****         bitstatus = RESET;
1398:lib/src/stm32f10x_flash.c ****       }
1399:lib/src/stm32f10x_flash.c ****     }
1400:lib/src/stm32f10x_flash.c ****   }
1401:lib/src/stm32f10x_flash.c **** #else
1402:lib/src/stm32f10x_flash.c ****   /* Check the parameters */
1403:lib/src/stm32f10x_flash.c ****   assert_param(IS_FLASH_GET_FLAG(FLASH_FLAG)) ;
1404:lib/src/stm32f10x_flash.c ****   if(FLASH_FLAG == FLASH_FLAG_OPTERR) 
 1711              		.loc 1 1404 0
 1712 07c4 7B68     		ldr	r3, [r7, #4]
 1713 07c6 012B     		cmp	r3, #1
 1714 07c8 0BD1     		bne	.L111
1405:lib/src/stm32f10x_flash.c ****   {
1406:lib/src/stm32f10x_flash.c ****     if((FLASH->OBR & FLASH_FLAG_OPTERR) != (uint32_t)RESET)
 1715              		.loc 1 1406 0
 1716 07ca 0E4B     		ldr	r3, .L117
 1717 07cc DB69     		ldr	r3, [r3, #28]
 1718 07ce 03F00103 		and	r3, r3, #1
 1719 07d2 002B     		cmp	r3, #0
 1720 07d4 02D0     		beq	.L112
1407:lib/src/stm32f10x_flash.c ****     {
1408:lib/src/stm32f10x_flash.c ****       bitstatus = SET;
 1721              		.loc 1 1408 0
 1722 07d6 0123     		movs	r3, #1
 1723 07d8 FB73     		strb	r3, [r7, #15]
 1724 07da 0DE0     		b	.L114
 1725              	.L112:
1409:lib/src/stm32f10x_flash.c ****     }
ARM GAS  /tmp/cc7BzgT5.s 			page 56


1410:lib/src/stm32f10x_flash.c ****     else
1411:lib/src/stm32f10x_flash.c ****     {
1412:lib/src/stm32f10x_flash.c ****       bitstatus = RESET;
 1726              		.loc 1 1412 0
 1727 07dc 0023     		movs	r3, #0
 1728 07de FB73     		strb	r3, [r7, #15]
 1729 07e0 0AE0     		b	.L114
 1730              	.L111:
1413:lib/src/stm32f10x_flash.c ****     }
1414:lib/src/stm32f10x_flash.c ****   }
1415:lib/src/stm32f10x_flash.c ****   else
1416:lib/src/stm32f10x_flash.c ****   {
1417:lib/src/stm32f10x_flash.c ****    if((FLASH->SR & FLASH_FLAG) != (uint32_t)RESET)
 1731              		.loc 1 1417 0
 1732 07e2 084B     		ldr	r3, .L117
 1733 07e4 DA68     		ldr	r2, [r3, #12]
 1734 07e6 7B68     		ldr	r3, [r7, #4]
 1735 07e8 1340     		ands	r3, r3, r2
 1736 07ea 002B     		cmp	r3, #0
 1737 07ec 02D0     		beq	.L115
1418:lib/src/stm32f10x_flash.c ****     {
1419:lib/src/stm32f10x_flash.c ****       bitstatus = SET;
 1738              		.loc 1 1419 0
 1739 07ee 0123     		movs	r3, #1
 1740 07f0 FB73     		strb	r3, [r7, #15]
 1741 07f2 01E0     		b	.L114
 1742              	.L115:
1420:lib/src/stm32f10x_flash.c ****     }
1421:lib/src/stm32f10x_flash.c ****     else
1422:lib/src/stm32f10x_flash.c ****     {
1423:lib/src/stm32f10x_flash.c ****       bitstatus = RESET;
 1743              		.loc 1 1423 0
 1744 07f4 0023     		movs	r3, #0
 1745 07f6 FB73     		strb	r3, [r7, #15]
 1746              	.L114:
1424:lib/src/stm32f10x_flash.c ****     }
1425:lib/src/stm32f10x_flash.c ****   }
1426:lib/src/stm32f10x_flash.c **** #endif /* STM32F10X_XL */
1427:lib/src/stm32f10x_flash.c **** 
1428:lib/src/stm32f10x_flash.c ****   /* Return the new state of FLASH_FLAG (SET or RESET) */
1429:lib/src/stm32f10x_flash.c ****   return bitstatus;
 1747              		.loc 1 1429 0
 1748 07f8 FB7B     		ldrb	r3, [r7, #15]	@ zero_extendqisi2
1430:lib/src/stm32f10x_flash.c **** }
 1749              		.loc 1 1430 0
 1750 07fa 1846     		mov	r0, r3
 1751 07fc 1437     		adds	r7, r7, #20
 1752              		.cfi_def_cfa_offset 4
 1753 07fe BD46     		mov	sp, r7
 1754              		.cfi_def_cfa_register 13
 1755              		@ sp needed
 1756 0800 80BC     		pop	{r7}
 1757              		.cfi_restore 7
 1758              		.cfi_def_cfa_offset 0
 1759 0802 7047     		bx	lr
 1760              	.L118:
 1761              		.align	2
ARM GAS  /tmp/cc7BzgT5.s 			page 57


 1762              	.L117:
 1763 0804 00200240 		.word	1073881088
 1764              		.cfi_endproc
 1765              	.LFE86:
 1766              		.size	FLASH_GetFlagStatus, .-FLASH_GetFlagStatus
 1767              		.align	1
 1768              		.global	FLASH_ClearFlag
 1769              		.syntax unified
 1770              		.thumb
 1771              		.thumb_func
 1772              		.fpu softvfp
 1773              		.type	FLASH_ClearFlag, %function
 1774              	FLASH_ClearFlag:
 1775              	.LFB87:
1431:lib/src/stm32f10x_flash.c **** 
1432:lib/src/stm32f10x_flash.c **** /**
1433:lib/src/stm32f10x_flash.c ****   * @brief  Clears the FLASH's pending flags.
1434:lib/src/stm32f10x_flash.c ****   * @note   This function can be used for all STM32F10x devices.
1435:lib/src/stm32f10x_flash.c ****   *         - For STM32F10X_XL devices, this function clears Bank1 or Bank2s pending flags
1436:lib/src/stm32f10x_flash.c ****   *         - For other devices, it clears Bank1s pending flags.
1437:lib/src/stm32f10x_flash.c ****   * @param  FLASH_FLAG: specifies the FLASH flags to clear.
1438:lib/src/stm32f10x_flash.c ****   *   This parameter can be any combination of the following values:         
1439:lib/src/stm32f10x_flash.c ****   *     @arg FLASH_FLAG_PGERR: FLASH Program error flag       
1440:lib/src/stm32f10x_flash.c ****   *     @arg FLASH_FLAG_WRPRTERR: FLASH Write protected error flag      
1441:lib/src/stm32f10x_flash.c ****   *     @arg FLASH_FLAG_EOP: FLASH End of Operation flag           
1442:lib/src/stm32f10x_flash.c ****   * @retval None
1443:lib/src/stm32f10x_flash.c ****   */
1444:lib/src/stm32f10x_flash.c **** void FLASH_ClearFlag(uint32_t FLASH_FLAG)
1445:lib/src/stm32f10x_flash.c **** {
 1776              		.loc 1 1445 0
 1777              		.cfi_startproc
 1778              		@ args = 0, pretend = 0, frame = 8
 1779              		@ frame_needed = 1, uses_anonymous_args = 0
 1780              		@ link register save eliminated.
 1781 0808 80B4     		push	{r7}
 1782              		.cfi_def_cfa_offset 4
 1783              		.cfi_offset 7, -4
 1784 080a 83B0     		sub	sp, sp, #12
 1785              		.cfi_def_cfa_offset 16
 1786 080c 00AF     		add	r7, sp, #0
 1787              		.cfi_def_cfa_register 7
 1788 080e 7860     		str	r0, [r7, #4]
1446:lib/src/stm32f10x_flash.c **** #ifdef STM32F10X_XL
1447:lib/src/stm32f10x_flash.c ****   /* Check the parameters */
1448:lib/src/stm32f10x_flash.c ****   assert_param(IS_FLASH_CLEAR_FLAG(FLASH_FLAG)) ;
1449:lib/src/stm32f10x_flash.c **** 
1450:lib/src/stm32f10x_flash.c ****   if((FLASH_FLAG & 0x80000000) != 0x0)
1451:lib/src/stm32f10x_flash.c ****   {
1452:lib/src/stm32f10x_flash.c ****     /* Clear the flags */
1453:lib/src/stm32f10x_flash.c ****     FLASH->SR2 = FLASH_FLAG;
1454:lib/src/stm32f10x_flash.c ****   }
1455:lib/src/stm32f10x_flash.c ****   else
1456:lib/src/stm32f10x_flash.c ****   {
1457:lib/src/stm32f10x_flash.c ****     /* Clear the flags */
1458:lib/src/stm32f10x_flash.c ****     FLASH->SR = FLASH_FLAG;
1459:lib/src/stm32f10x_flash.c ****   }  
1460:lib/src/stm32f10x_flash.c **** 
ARM GAS  /tmp/cc7BzgT5.s 			page 58


1461:lib/src/stm32f10x_flash.c **** #else
1462:lib/src/stm32f10x_flash.c ****   /* Check the parameters */
1463:lib/src/stm32f10x_flash.c ****   assert_param(IS_FLASH_CLEAR_FLAG(FLASH_FLAG)) ;
1464:lib/src/stm32f10x_flash.c ****   
1465:lib/src/stm32f10x_flash.c ****   /* Clear the flags */
1466:lib/src/stm32f10x_flash.c ****   FLASH->SR = FLASH_FLAG;
 1789              		.loc 1 1466 0
 1790 0810 034A     		ldr	r2, .L120
 1791 0812 7B68     		ldr	r3, [r7, #4]
 1792 0814 D360     		str	r3, [r2, #12]
1467:lib/src/stm32f10x_flash.c **** #endif /* STM32F10X_XL */
1468:lib/src/stm32f10x_flash.c **** }
 1793              		.loc 1 1468 0
 1794 0816 00BF     		nop
 1795 0818 0C37     		adds	r7, r7, #12
 1796              		.cfi_def_cfa_offset 4
 1797 081a BD46     		mov	sp, r7
 1798              		.cfi_def_cfa_register 13
 1799              		@ sp needed
 1800 081c 80BC     		pop	{r7}
 1801              		.cfi_restore 7
 1802              		.cfi_def_cfa_offset 0
 1803 081e 7047     		bx	lr
 1804              	.L121:
 1805              		.align	2
 1806              	.L120:
 1807 0820 00200240 		.word	1073881088
 1808              		.cfi_endproc
 1809              	.LFE87:
 1810              		.size	FLASH_ClearFlag, .-FLASH_ClearFlag
 1811              		.align	1
 1812              		.global	FLASH_GetStatus
 1813              		.syntax unified
 1814              		.thumb
 1815              		.thumb_func
 1816              		.fpu softvfp
 1817              		.type	FLASH_GetStatus, %function
 1818              	FLASH_GetStatus:
 1819              	.LFB88:
1469:lib/src/stm32f10x_flash.c **** 
1470:lib/src/stm32f10x_flash.c **** /**
1471:lib/src/stm32f10x_flash.c ****   * @brief  Returns the FLASH Status.
1472:lib/src/stm32f10x_flash.c ****   * @note   This function can be used for all STM32F10x devices, it is equivalent
1473:lib/src/stm32f10x_flash.c ****   *         to FLASH_GetBank1Status function.
1474:lib/src/stm32f10x_flash.c ****   * @param  None
1475:lib/src/stm32f10x_flash.c ****   * @retval FLASH Status: The returned value can be: FLASH_BUSY, FLASH_ERROR_PG,
1476:lib/src/stm32f10x_flash.c ****   *         FLASH_ERROR_WRP or FLASH_COMPLETE
1477:lib/src/stm32f10x_flash.c ****   */
1478:lib/src/stm32f10x_flash.c **** FLASH_Status FLASH_GetStatus(void)
1479:lib/src/stm32f10x_flash.c **** {
 1820              		.loc 1 1479 0
 1821              		.cfi_startproc
 1822              		@ args = 0, pretend = 0, frame = 8
 1823              		@ frame_needed = 1, uses_anonymous_args = 0
 1824              		@ link register save eliminated.
 1825 0824 80B4     		push	{r7}
 1826              		.cfi_def_cfa_offset 4
ARM GAS  /tmp/cc7BzgT5.s 			page 59


 1827              		.cfi_offset 7, -4
 1828 0826 83B0     		sub	sp, sp, #12
 1829              		.cfi_def_cfa_offset 16
 1830 0828 00AF     		add	r7, sp, #0
 1831              		.cfi_def_cfa_register 7
1480:lib/src/stm32f10x_flash.c ****   FLASH_Status flashstatus = FLASH_COMPLETE;
 1832              		.loc 1 1480 0
 1833 082a 0423     		movs	r3, #4
 1834 082c FB71     		strb	r3, [r7, #7]
1481:lib/src/stm32f10x_flash.c ****   
1482:lib/src/stm32f10x_flash.c ****   if((FLASH->SR & FLASH_FLAG_BSY) == FLASH_FLAG_BSY) 
 1835              		.loc 1 1482 0
 1836 082e 114B     		ldr	r3, .L128
 1837 0830 DB68     		ldr	r3, [r3, #12]
 1838 0832 03F00103 		and	r3, r3, #1
 1839 0836 012B     		cmp	r3, #1
 1840 0838 02D1     		bne	.L123
1483:lib/src/stm32f10x_flash.c ****   {
1484:lib/src/stm32f10x_flash.c ****     flashstatus = FLASH_BUSY;
 1841              		.loc 1 1484 0
 1842 083a 0123     		movs	r3, #1
 1843 083c FB71     		strb	r3, [r7, #7]
 1844 083e 13E0     		b	.L124
 1845              	.L123:
1485:lib/src/stm32f10x_flash.c ****   }
1486:lib/src/stm32f10x_flash.c ****   else 
1487:lib/src/stm32f10x_flash.c ****   {  
1488:lib/src/stm32f10x_flash.c ****     if((FLASH->SR & FLASH_FLAG_PGERR) != 0)
 1846              		.loc 1 1488 0
 1847 0840 0C4B     		ldr	r3, .L128
 1848 0842 DB68     		ldr	r3, [r3, #12]
 1849 0844 03F00403 		and	r3, r3, #4
 1850 0848 002B     		cmp	r3, #0
 1851 084a 02D0     		beq	.L125
1489:lib/src/stm32f10x_flash.c ****     { 
1490:lib/src/stm32f10x_flash.c ****       flashstatus = FLASH_ERROR_PG;
 1852              		.loc 1 1490 0
 1853 084c 0223     		movs	r3, #2
 1854 084e FB71     		strb	r3, [r7, #7]
 1855 0850 0AE0     		b	.L124
 1856              	.L125:
1491:lib/src/stm32f10x_flash.c ****     }
1492:lib/src/stm32f10x_flash.c ****     else 
1493:lib/src/stm32f10x_flash.c ****     {
1494:lib/src/stm32f10x_flash.c ****       if((FLASH->SR & FLASH_FLAG_WRPRTERR) != 0 )
 1857              		.loc 1 1494 0
 1858 0852 084B     		ldr	r3, .L128
 1859 0854 DB68     		ldr	r3, [r3, #12]
 1860 0856 03F01003 		and	r3, r3, #16
 1861 085a 002B     		cmp	r3, #0
 1862 085c 02D0     		beq	.L126
1495:lib/src/stm32f10x_flash.c ****       {
1496:lib/src/stm32f10x_flash.c ****         flashstatus = FLASH_ERROR_WRP;
 1863              		.loc 1 1496 0
 1864 085e 0323     		movs	r3, #3
 1865 0860 FB71     		strb	r3, [r7, #7]
 1866 0862 01E0     		b	.L124
ARM GAS  /tmp/cc7BzgT5.s 			page 60


 1867              	.L126:
1497:lib/src/stm32f10x_flash.c ****       }
1498:lib/src/stm32f10x_flash.c ****       else
1499:lib/src/stm32f10x_flash.c ****       {
1500:lib/src/stm32f10x_flash.c ****         flashstatus = FLASH_COMPLETE;
 1868              		.loc 1 1500 0
 1869 0864 0423     		movs	r3, #4
 1870 0866 FB71     		strb	r3, [r7, #7]
 1871              	.L124:
1501:lib/src/stm32f10x_flash.c ****       }
1502:lib/src/stm32f10x_flash.c ****     }
1503:lib/src/stm32f10x_flash.c ****   }
1504:lib/src/stm32f10x_flash.c ****   /* Return the Flash Status */
1505:lib/src/stm32f10x_flash.c ****   return flashstatus;
 1872              		.loc 1 1505 0
 1873 0868 FB79     		ldrb	r3, [r7, #7]	@ zero_extendqisi2
1506:lib/src/stm32f10x_flash.c **** }
 1874              		.loc 1 1506 0
 1875 086a 1846     		mov	r0, r3
 1876 086c 0C37     		adds	r7, r7, #12
 1877              		.cfi_def_cfa_offset 4
 1878 086e BD46     		mov	sp, r7
 1879              		.cfi_def_cfa_register 13
 1880              		@ sp needed
 1881 0870 80BC     		pop	{r7}
 1882              		.cfi_restore 7
 1883              		.cfi_def_cfa_offset 0
 1884 0872 7047     		bx	lr
 1885              	.L129:
 1886              		.align	2
 1887              	.L128:
 1888 0874 00200240 		.word	1073881088
 1889              		.cfi_endproc
 1890              	.LFE88:
 1891              		.size	FLASH_GetStatus, .-FLASH_GetStatus
 1892              		.align	1
 1893              		.global	FLASH_GetBank1Status
 1894              		.syntax unified
 1895              		.thumb
 1896              		.thumb_func
 1897              		.fpu softvfp
 1898              		.type	FLASH_GetBank1Status, %function
 1899              	FLASH_GetBank1Status:
 1900              	.LFB89:
1507:lib/src/stm32f10x_flash.c **** 
1508:lib/src/stm32f10x_flash.c **** /**
1509:lib/src/stm32f10x_flash.c ****   * @brief  Returns the FLASH Bank1 Status.
1510:lib/src/stm32f10x_flash.c ****   * @note   This function can be used for all STM32F10x devices, it is equivalent
1511:lib/src/stm32f10x_flash.c ****   *         to FLASH_GetStatus function.
1512:lib/src/stm32f10x_flash.c ****   * @param  None
1513:lib/src/stm32f10x_flash.c ****   * @retval FLASH Status: The returned value can be: FLASH_BUSY, FLASH_ERROR_PG,
1514:lib/src/stm32f10x_flash.c ****   *         FLASH_ERROR_WRP or FLASH_COMPLETE
1515:lib/src/stm32f10x_flash.c ****   */
1516:lib/src/stm32f10x_flash.c **** FLASH_Status FLASH_GetBank1Status(void)
1517:lib/src/stm32f10x_flash.c **** {
 1901              		.loc 1 1517 0
 1902              		.cfi_startproc
ARM GAS  /tmp/cc7BzgT5.s 			page 61


 1903              		@ args = 0, pretend = 0, frame = 8
 1904              		@ frame_needed = 1, uses_anonymous_args = 0
 1905              		@ link register save eliminated.
 1906 0878 80B4     		push	{r7}
 1907              		.cfi_def_cfa_offset 4
 1908              		.cfi_offset 7, -4
 1909 087a 83B0     		sub	sp, sp, #12
 1910              		.cfi_def_cfa_offset 16
 1911 087c 00AF     		add	r7, sp, #0
 1912              		.cfi_def_cfa_register 7
1518:lib/src/stm32f10x_flash.c ****   FLASH_Status flashstatus = FLASH_COMPLETE;
 1913              		.loc 1 1518 0
 1914 087e 0423     		movs	r3, #4
 1915 0880 FB71     		strb	r3, [r7, #7]
1519:lib/src/stm32f10x_flash.c ****   
1520:lib/src/stm32f10x_flash.c ****   if((FLASH->SR & FLASH_FLAG_BANK1_BSY) == FLASH_FLAG_BSY) 
 1916              		.loc 1 1520 0
 1917 0882 114B     		ldr	r3, .L136
 1918 0884 DB68     		ldr	r3, [r3, #12]
 1919 0886 03F00103 		and	r3, r3, #1
 1920 088a 012B     		cmp	r3, #1
 1921 088c 02D1     		bne	.L131
1521:lib/src/stm32f10x_flash.c ****   {
1522:lib/src/stm32f10x_flash.c ****     flashstatus = FLASH_BUSY;
 1922              		.loc 1 1522 0
 1923 088e 0123     		movs	r3, #1
 1924 0890 FB71     		strb	r3, [r7, #7]
 1925 0892 13E0     		b	.L132
 1926              	.L131:
1523:lib/src/stm32f10x_flash.c ****   }
1524:lib/src/stm32f10x_flash.c ****   else 
1525:lib/src/stm32f10x_flash.c ****   {  
1526:lib/src/stm32f10x_flash.c ****     if((FLASH->SR & FLASH_FLAG_BANK1_PGERR) != 0)
 1927              		.loc 1 1526 0
 1928 0894 0C4B     		ldr	r3, .L136
 1929 0896 DB68     		ldr	r3, [r3, #12]
 1930 0898 03F00403 		and	r3, r3, #4
 1931 089c 002B     		cmp	r3, #0
 1932 089e 02D0     		beq	.L133
1527:lib/src/stm32f10x_flash.c ****     { 
1528:lib/src/stm32f10x_flash.c ****       flashstatus = FLASH_ERROR_PG;
 1933              		.loc 1 1528 0
 1934 08a0 0223     		movs	r3, #2
 1935 08a2 FB71     		strb	r3, [r7, #7]
 1936 08a4 0AE0     		b	.L132
 1937              	.L133:
1529:lib/src/stm32f10x_flash.c ****     }
1530:lib/src/stm32f10x_flash.c ****     else 
1531:lib/src/stm32f10x_flash.c ****     {
1532:lib/src/stm32f10x_flash.c ****       if((FLASH->SR & FLASH_FLAG_BANK1_WRPRTERR) != 0 )
 1938              		.loc 1 1532 0
 1939 08a6 084B     		ldr	r3, .L136
 1940 08a8 DB68     		ldr	r3, [r3, #12]
 1941 08aa 03F01003 		and	r3, r3, #16
 1942 08ae 002B     		cmp	r3, #0
 1943 08b0 02D0     		beq	.L134
1533:lib/src/stm32f10x_flash.c ****       {
ARM GAS  /tmp/cc7BzgT5.s 			page 62


1534:lib/src/stm32f10x_flash.c ****         flashstatus = FLASH_ERROR_WRP;
 1944              		.loc 1 1534 0
 1945 08b2 0323     		movs	r3, #3
 1946 08b4 FB71     		strb	r3, [r7, #7]
 1947 08b6 01E0     		b	.L132
 1948              	.L134:
1535:lib/src/stm32f10x_flash.c ****       }
1536:lib/src/stm32f10x_flash.c ****       else
1537:lib/src/stm32f10x_flash.c ****       {
1538:lib/src/stm32f10x_flash.c ****         flashstatus = FLASH_COMPLETE;
 1949              		.loc 1 1538 0
 1950 08b8 0423     		movs	r3, #4
 1951 08ba FB71     		strb	r3, [r7, #7]
 1952              	.L132:
1539:lib/src/stm32f10x_flash.c ****       }
1540:lib/src/stm32f10x_flash.c ****     }
1541:lib/src/stm32f10x_flash.c ****   }
1542:lib/src/stm32f10x_flash.c ****   /* Return the Flash Status */
1543:lib/src/stm32f10x_flash.c ****   return flashstatus;
 1953              		.loc 1 1543 0
 1954 08bc FB79     		ldrb	r3, [r7, #7]	@ zero_extendqisi2
1544:lib/src/stm32f10x_flash.c **** }
 1955              		.loc 1 1544 0
 1956 08be 1846     		mov	r0, r3
 1957 08c0 0C37     		adds	r7, r7, #12
 1958              		.cfi_def_cfa_offset 4
 1959 08c2 BD46     		mov	sp, r7
 1960              		.cfi_def_cfa_register 13
 1961              		@ sp needed
 1962 08c4 80BC     		pop	{r7}
 1963              		.cfi_restore 7
 1964              		.cfi_def_cfa_offset 0
 1965 08c6 7047     		bx	lr
 1966              	.L137:
 1967              		.align	2
 1968              	.L136:
 1969 08c8 00200240 		.word	1073881088
 1970              		.cfi_endproc
 1971              	.LFE89:
 1972              		.size	FLASH_GetBank1Status, .-FLASH_GetBank1Status
 1973              		.align	1
 1974              		.global	FLASH_WaitForLastOperation
 1975              		.syntax unified
 1976              		.thumb
 1977              		.thumb_func
 1978              		.fpu softvfp
 1979              		.type	FLASH_WaitForLastOperation, %function
 1980              	FLASH_WaitForLastOperation:
 1981              	.LFB90:
1545:lib/src/stm32f10x_flash.c **** 
1546:lib/src/stm32f10x_flash.c **** #ifdef STM32F10X_XL
1547:lib/src/stm32f10x_flash.c **** /**
1548:lib/src/stm32f10x_flash.c ****   * @brief  Returns the FLASH Bank2 Status.
1549:lib/src/stm32f10x_flash.c ****   * @note   This function can be used for STM32F10x_XL density devices.
1550:lib/src/stm32f10x_flash.c ****   * @param  None
1551:lib/src/stm32f10x_flash.c ****   * @retval FLASH Status: The returned value can be: FLASH_BUSY, FLASH_ERROR_PG,
1552:lib/src/stm32f10x_flash.c ****   *        FLASH_ERROR_WRP or FLASH_COMPLETE
ARM GAS  /tmp/cc7BzgT5.s 			page 63


1553:lib/src/stm32f10x_flash.c ****   */
1554:lib/src/stm32f10x_flash.c **** FLASH_Status FLASH_GetBank2Status(void)
1555:lib/src/stm32f10x_flash.c **** {
1556:lib/src/stm32f10x_flash.c ****   FLASH_Status flashstatus = FLASH_COMPLETE;
1557:lib/src/stm32f10x_flash.c ****   
1558:lib/src/stm32f10x_flash.c ****   if((FLASH->SR2 & (FLASH_FLAG_BANK2_BSY & 0x7FFFFFFF)) == (FLASH_FLAG_BANK2_BSY & 0x7FFFFFFF)) 
1559:lib/src/stm32f10x_flash.c ****   {
1560:lib/src/stm32f10x_flash.c ****     flashstatus = FLASH_BUSY;
1561:lib/src/stm32f10x_flash.c ****   }
1562:lib/src/stm32f10x_flash.c ****   else 
1563:lib/src/stm32f10x_flash.c ****   {  
1564:lib/src/stm32f10x_flash.c ****     if((FLASH->SR2 & (FLASH_FLAG_BANK2_PGERR & 0x7FFFFFFF)) != 0)
1565:lib/src/stm32f10x_flash.c ****     { 
1566:lib/src/stm32f10x_flash.c ****       flashstatus = FLASH_ERROR_PG;
1567:lib/src/stm32f10x_flash.c ****     }
1568:lib/src/stm32f10x_flash.c ****     else 
1569:lib/src/stm32f10x_flash.c ****     {
1570:lib/src/stm32f10x_flash.c ****       if((FLASH->SR2 & (FLASH_FLAG_BANK2_WRPRTERR & 0x7FFFFFFF)) != 0 )
1571:lib/src/stm32f10x_flash.c ****       {
1572:lib/src/stm32f10x_flash.c ****         flashstatus = FLASH_ERROR_WRP;
1573:lib/src/stm32f10x_flash.c ****       }
1574:lib/src/stm32f10x_flash.c ****       else
1575:lib/src/stm32f10x_flash.c ****       {
1576:lib/src/stm32f10x_flash.c ****         flashstatus = FLASH_COMPLETE;
1577:lib/src/stm32f10x_flash.c ****       }
1578:lib/src/stm32f10x_flash.c ****     }
1579:lib/src/stm32f10x_flash.c ****   }
1580:lib/src/stm32f10x_flash.c ****   /* Return the Flash Status */
1581:lib/src/stm32f10x_flash.c ****   return flashstatus;
1582:lib/src/stm32f10x_flash.c **** }
1583:lib/src/stm32f10x_flash.c **** #endif /* STM32F10X_XL */
1584:lib/src/stm32f10x_flash.c **** /**
1585:lib/src/stm32f10x_flash.c ****   * @brief  Waits for a Flash operation to complete or a TIMEOUT to occur.
1586:lib/src/stm32f10x_flash.c ****   * @note   This function can be used for all STM32F10x devices, 
1587:lib/src/stm32f10x_flash.c ****   *         it is equivalent to FLASH_WaitForLastBank1Operation.
1588:lib/src/stm32f10x_flash.c ****   *         - For STM32F10X_XL devices this function waits for a Bank1 Flash operation
1589:lib/src/stm32f10x_flash.c ****   *           to complete or a TIMEOUT to occur.
1590:lib/src/stm32f10x_flash.c ****   *         - For all other devices it waits for a Flash operation to complete 
1591:lib/src/stm32f10x_flash.c ****   *           or a TIMEOUT to occur.
1592:lib/src/stm32f10x_flash.c ****   * @param  Timeout: FLASH programming Timeout
1593:lib/src/stm32f10x_flash.c ****   * @retval FLASH Status: The returned value can be: FLASH_ERROR_PG,
1594:lib/src/stm32f10x_flash.c ****   *         FLASH_ERROR_WRP, FLASH_COMPLETE or FLASH_TIMEOUT.
1595:lib/src/stm32f10x_flash.c ****   */
1596:lib/src/stm32f10x_flash.c **** FLASH_Status FLASH_WaitForLastOperation(uint32_t Timeout)
1597:lib/src/stm32f10x_flash.c **** { 
 1982              		.loc 1 1597 0
 1983              		.cfi_startproc
 1984              		@ args = 0, pretend = 0, frame = 16
 1985              		@ frame_needed = 1, uses_anonymous_args = 0
 1986 08cc 80B5     		push	{r7, lr}
 1987              		.cfi_def_cfa_offset 8
 1988              		.cfi_offset 7, -8
 1989              		.cfi_offset 14, -4
 1990 08ce 84B0     		sub	sp, sp, #16
 1991              		.cfi_def_cfa_offset 24
 1992 08d0 00AF     		add	r7, sp, #0
 1993              		.cfi_def_cfa_register 7
ARM GAS  /tmp/cc7BzgT5.s 			page 64


 1994 08d2 7860     		str	r0, [r7, #4]
1598:lib/src/stm32f10x_flash.c ****   FLASH_Status status = FLASH_COMPLETE;
 1995              		.loc 1 1598 0
 1996 08d4 0423     		movs	r3, #4
 1997 08d6 FB73     		strb	r3, [r7, #15]
1599:lib/src/stm32f10x_flash.c ****    
1600:lib/src/stm32f10x_flash.c ****   /* Check for the Flash Status */
1601:lib/src/stm32f10x_flash.c ****   status = FLASH_GetBank1Status();
 1998              		.loc 1 1601 0
 1999 08d8 FFF7FEFF 		bl	FLASH_GetBank1Status
 2000 08dc 0346     		mov	r3, r0
 2001 08de FB73     		strb	r3, [r7, #15]
1602:lib/src/stm32f10x_flash.c ****   /* Wait for a Flash operation to complete or a TIMEOUT to occur */
1603:lib/src/stm32f10x_flash.c ****   while((status == FLASH_BUSY) && (Timeout != 0x00))
 2002              		.loc 1 1603 0
 2003 08e0 06E0     		b	.L139
 2004              	.L141:
1604:lib/src/stm32f10x_flash.c ****   {
1605:lib/src/stm32f10x_flash.c ****     status = FLASH_GetBank1Status();
 2005              		.loc 1 1605 0
 2006 08e2 FFF7FEFF 		bl	FLASH_GetBank1Status
 2007 08e6 0346     		mov	r3, r0
 2008 08e8 FB73     		strb	r3, [r7, #15]
1606:lib/src/stm32f10x_flash.c ****     Timeout--;
 2009              		.loc 1 1606 0
 2010 08ea 7B68     		ldr	r3, [r7, #4]
 2011 08ec 013B     		subs	r3, r3, #1
 2012 08ee 7B60     		str	r3, [r7, #4]
 2013              	.L139:
1603:lib/src/stm32f10x_flash.c ****   {
 2014              		.loc 1 1603 0
 2015 08f0 FB7B     		ldrb	r3, [r7, #15]	@ zero_extendqisi2
 2016 08f2 012B     		cmp	r3, #1
 2017 08f4 02D1     		bne	.L140
1603:lib/src/stm32f10x_flash.c ****   {
 2018              		.loc 1 1603 0 is_stmt 0 discriminator 1
 2019 08f6 7B68     		ldr	r3, [r7, #4]
 2020 08f8 002B     		cmp	r3, #0
 2021 08fa F2D1     		bne	.L141
 2022              	.L140:
1607:lib/src/stm32f10x_flash.c ****   }
1608:lib/src/stm32f10x_flash.c ****   if(Timeout == 0x00 )
 2023              		.loc 1 1608 0 is_stmt 1
 2024 08fc 7B68     		ldr	r3, [r7, #4]
 2025 08fe 002B     		cmp	r3, #0
 2026 0900 01D1     		bne	.L142
1609:lib/src/stm32f10x_flash.c ****   {
1610:lib/src/stm32f10x_flash.c ****     status = FLASH_TIMEOUT;
 2027              		.loc 1 1610 0
 2028 0902 0523     		movs	r3, #5
 2029 0904 FB73     		strb	r3, [r7, #15]
 2030              	.L142:
1611:lib/src/stm32f10x_flash.c ****   }
1612:lib/src/stm32f10x_flash.c ****   /* Return the operation status */
1613:lib/src/stm32f10x_flash.c ****   return status;
 2031              		.loc 1 1613 0
 2032 0906 FB7B     		ldrb	r3, [r7, #15]	@ zero_extendqisi2
ARM GAS  /tmp/cc7BzgT5.s 			page 65


1614:lib/src/stm32f10x_flash.c **** }
 2033              		.loc 1 1614 0
 2034 0908 1846     		mov	r0, r3
 2035 090a 1037     		adds	r7, r7, #16
 2036              		.cfi_def_cfa_offset 8
 2037 090c BD46     		mov	sp, r7
 2038              		.cfi_def_cfa_register 13
 2039              		@ sp needed
 2040 090e 80BD     		pop	{r7, pc}
 2041              		.cfi_endproc
 2042              	.LFE90:
 2043              		.size	FLASH_WaitForLastOperation, .-FLASH_WaitForLastOperation
 2044              		.align	1
 2045              		.global	FLASH_WaitForLastBank1Operation
 2046              		.syntax unified
 2047              		.thumb
 2048              		.thumb_func
 2049              		.fpu softvfp
 2050              		.type	FLASH_WaitForLastBank1Operation, %function
 2051              	FLASH_WaitForLastBank1Operation:
 2052              	.LFB91:
1615:lib/src/stm32f10x_flash.c **** 
1616:lib/src/stm32f10x_flash.c **** /**
1617:lib/src/stm32f10x_flash.c ****   * @brief  Waits for a Flash operation on Bank1 to complete or a TIMEOUT to occur.
1618:lib/src/stm32f10x_flash.c ****   * @note   This function can be used for all STM32F10x devices, 
1619:lib/src/stm32f10x_flash.c ****   *         it is equivalent to FLASH_WaitForLastOperation.
1620:lib/src/stm32f10x_flash.c ****   * @param  Timeout: FLASH programming Timeout
1621:lib/src/stm32f10x_flash.c ****   * @retval FLASH Status: The returned value can be: FLASH_ERROR_PG,
1622:lib/src/stm32f10x_flash.c ****   *         FLASH_ERROR_WRP, FLASH_COMPLETE or FLASH_TIMEOUT.
1623:lib/src/stm32f10x_flash.c ****   */
1624:lib/src/stm32f10x_flash.c **** FLASH_Status FLASH_WaitForLastBank1Operation(uint32_t Timeout)
1625:lib/src/stm32f10x_flash.c **** { 
 2053              		.loc 1 1625 0
 2054              		.cfi_startproc
 2055              		@ args = 0, pretend = 0, frame = 16
 2056              		@ frame_needed = 1, uses_anonymous_args = 0
 2057 0910 80B5     		push	{r7, lr}
 2058              		.cfi_def_cfa_offset 8
 2059              		.cfi_offset 7, -8
 2060              		.cfi_offset 14, -4
 2061 0912 84B0     		sub	sp, sp, #16
 2062              		.cfi_def_cfa_offset 24
 2063 0914 00AF     		add	r7, sp, #0
 2064              		.cfi_def_cfa_register 7
 2065 0916 7860     		str	r0, [r7, #4]
1626:lib/src/stm32f10x_flash.c ****   FLASH_Status status = FLASH_COMPLETE;
 2066              		.loc 1 1626 0
 2067 0918 0423     		movs	r3, #4
 2068 091a FB73     		strb	r3, [r7, #15]
1627:lib/src/stm32f10x_flash.c ****    
1628:lib/src/stm32f10x_flash.c ****   /* Check for the Flash Status */
1629:lib/src/stm32f10x_flash.c ****   status = FLASH_GetBank1Status();
 2069              		.loc 1 1629 0
 2070 091c FFF7FEFF 		bl	FLASH_GetBank1Status
 2071 0920 0346     		mov	r3, r0
 2072 0922 FB73     		strb	r3, [r7, #15]
1630:lib/src/stm32f10x_flash.c ****   /* Wait for a Flash operation to complete or a TIMEOUT to occur */
ARM GAS  /tmp/cc7BzgT5.s 			page 66


1631:lib/src/stm32f10x_flash.c ****   while((status == FLASH_FLAG_BANK1_BSY) && (Timeout != 0x00))
 2073              		.loc 1 1631 0
 2074 0924 06E0     		b	.L145
 2075              	.L147:
1632:lib/src/stm32f10x_flash.c ****   {
1633:lib/src/stm32f10x_flash.c ****     status = FLASH_GetBank1Status();
 2076              		.loc 1 1633 0
 2077 0926 FFF7FEFF 		bl	FLASH_GetBank1Status
 2078 092a 0346     		mov	r3, r0
 2079 092c FB73     		strb	r3, [r7, #15]
1634:lib/src/stm32f10x_flash.c ****     Timeout--;
 2080              		.loc 1 1634 0
 2081 092e 7B68     		ldr	r3, [r7, #4]
 2082 0930 013B     		subs	r3, r3, #1
 2083 0932 7B60     		str	r3, [r7, #4]
 2084              	.L145:
1631:lib/src/stm32f10x_flash.c ****   {
 2085              		.loc 1 1631 0
 2086 0934 FB7B     		ldrb	r3, [r7, #15]	@ zero_extendqisi2
 2087 0936 012B     		cmp	r3, #1
 2088 0938 02D1     		bne	.L146
1631:lib/src/stm32f10x_flash.c ****   {
 2089              		.loc 1 1631 0 is_stmt 0 discriminator 1
 2090 093a 7B68     		ldr	r3, [r7, #4]
 2091 093c 002B     		cmp	r3, #0
 2092 093e F2D1     		bne	.L147
 2093              	.L146:
1635:lib/src/stm32f10x_flash.c ****   }
1636:lib/src/stm32f10x_flash.c ****   if(Timeout == 0x00 )
 2094              		.loc 1 1636 0 is_stmt 1
 2095 0940 7B68     		ldr	r3, [r7, #4]
 2096 0942 002B     		cmp	r3, #0
 2097 0944 01D1     		bne	.L148
1637:lib/src/stm32f10x_flash.c ****   {
1638:lib/src/stm32f10x_flash.c ****     status = FLASH_TIMEOUT;
 2098              		.loc 1 1638 0
 2099 0946 0523     		movs	r3, #5
 2100 0948 FB73     		strb	r3, [r7, #15]
 2101              	.L148:
1639:lib/src/stm32f10x_flash.c ****   }
1640:lib/src/stm32f10x_flash.c ****   /* Return the operation status */
1641:lib/src/stm32f10x_flash.c ****   return status;
 2102              		.loc 1 1641 0
 2103 094a FB7B     		ldrb	r3, [r7, #15]	@ zero_extendqisi2
1642:lib/src/stm32f10x_flash.c **** }
 2104              		.loc 1 1642 0
 2105 094c 1846     		mov	r0, r3
 2106 094e 1037     		adds	r7, r7, #16
 2107              		.cfi_def_cfa_offset 8
 2108 0950 BD46     		mov	sp, r7
 2109              		.cfi_def_cfa_register 13
 2110              		@ sp needed
 2111 0952 80BD     		pop	{r7, pc}
 2112              		.cfi_endproc
 2113              	.LFE91:
 2114              		.size	FLASH_WaitForLastBank1Operation, .-FLASH_WaitForLastBank1Operation
 2115              	.Letext0:
ARM GAS  /tmp/cc7BzgT5.s 			page 67


 2116              		.file 2 "/usr/arm-none-eabi/include/machine/_default_types.h"
 2117              		.file 3 "/usr/arm-none-eabi/include/sys/_stdint.h"
 2118              		.file 4 "/home/enbin/Documents/code/STM/stm32-quadrocopter/cmsis/core_cm3.h"
 2119              		.file 5 "/home/enbin/Documents/code/STM/stm32-quadrocopter/lib/inc/system_stm32f10x.h"
 2120              		.file 6 "/home/enbin/Documents/code/STM/stm32-quadrocopter/lib/inc/stm32f10x.h"
 2121              		.file 7 "/home/enbin/Documents/code/STM/stm32-quadrocopter/lib/inc/stm32f10x_flash.h"
 2122              		.file 8 "/home/enbin/Documents/code/STM/stm32-quadrocopter/drivers/mpu6050.h"
 2123              		.file 9 "/usr/arm-none-eabi/include/sys/lock.h"
 2124              		.file 10 "/usr/arm-none-eabi/include/sys/_types.h"
 2125              		.file 11 "/usr/lib/gcc/arm-none-eabi/6.1.1/include/stddef.h"
 2126              		.file 12 "/usr/arm-none-eabi/include/sys/reent.h"
 2127              		.file 13 "/usr/arm-none-eabi/include/math.h"