ARM GAS  /tmp/ccjSVZtz.s 			page 1


   1              		.cpu cortex-m3
   2              		.eabi_attribute 20, 1
   3              		.eabi_attribute 21, 1
   4              		.eabi_attribute 23, 3
   5              		.eabi_attribute 24, 1
   6              		.eabi_attribute 25, 1
   7              		.eabi_attribute 26, 1
   8              		.eabi_attribute 30, 1
   9              		.eabi_attribute 34, 1
  10              		.eabi_attribute 18, 4
  11              		.file	"stm32f10x_usart.c"
  12              		.text
  13              	.Ltext0:
  14              		.cfi_sections	.debug_frame
  15              		.align	1
  16              		.global	USART_DeInit
  17              		.syntax unified
  18              		.thumb
  19              		.thumb_func
  20              		.fpu softvfp
  21              		.type	USART_DeInit, %function
  22              	USART_DeInit:
  23              	.LFB64:
  24              		.file 1 "lib/src/stm32f10x_usart.c"
   1:lib/src/stm32f10x_usart.c **** /**
   2:lib/src/stm32f10x_usart.c ****   ******************************************************************************
   3:lib/src/stm32f10x_usart.c ****   * @file    stm32f10x_usart.c
   4:lib/src/stm32f10x_usart.c ****   * @author  MCD Application Team
   5:lib/src/stm32f10x_usart.c ****   * @version V3.5.0
   6:lib/src/stm32f10x_usart.c ****   * @date    11-March-2011
   7:lib/src/stm32f10x_usart.c ****   * @brief   This file provides all the USART firmware functions.
   8:lib/src/stm32f10x_usart.c ****   ******************************************************************************
   9:lib/src/stm32f10x_usart.c ****   * @attention
  10:lib/src/stm32f10x_usart.c ****   *
  11:lib/src/stm32f10x_usart.c ****   * THE PRESENT FIRMWARE WHICH IS FOR GUIDANCE ONLY AIMS AT PROVIDING CUSTOMERS
  12:lib/src/stm32f10x_usart.c ****   * WITH CODING INFORMATION REGARDING THEIR PRODUCTS IN ORDER FOR THEM TO SAVE
  13:lib/src/stm32f10x_usart.c ****   * TIME. AS A RESULT, STMICROELECTRONICS SHALL NOT BE HELD LIABLE FOR ANY
  14:lib/src/stm32f10x_usart.c ****   * DIRECT, INDIRECT OR CONSEQUENTIAL DAMAGES WITH RESPECT TO ANY CLAIMS ARISING
  15:lib/src/stm32f10x_usart.c ****   * FROM THE CONTENT OF SUCH FIRMWARE AND/OR THE USE MADE BY CUSTOMERS OF THE
  16:lib/src/stm32f10x_usart.c ****   * CODING INFORMATION CONTAINED HEREIN IN CONNECTION WITH THEIR PRODUCTS.
  17:lib/src/stm32f10x_usart.c ****   *
  18:lib/src/stm32f10x_usart.c ****   * <h2><center>&copy; COPYRIGHT 2011 STMicroelectronics</center></h2>
  19:lib/src/stm32f10x_usart.c ****   ******************************************************************************
  20:lib/src/stm32f10x_usart.c ****   */
  21:lib/src/stm32f10x_usart.c **** 
  22:lib/src/stm32f10x_usart.c **** /* Includes ------------------------------------------------------------------*/
  23:lib/src/stm32f10x_usart.c **** #include "stm32f10x_usart.h"
  24:lib/src/stm32f10x_usart.c **** #include "stm32f10x_rcc.h"
  25:lib/src/stm32f10x_usart.c **** #include "conf.h"
  26:lib/src/stm32f10x_usart.c **** 
  27:lib/src/stm32f10x_usart.c **** /** @addtogroup STM32F10x_StdPeriph_Driver
  28:lib/src/stm32f10x_usart.c ****   * @{
  29:lib/src/stm32f10x_usart.c ****   */
  30:lib/src/stm32f10x_usart.c **** 
  31:lib/src/stm32f10x_usart.c **** /** @defgroup USART 
  32:lib/src/stm32f10x_usart.c ****   * @brief USART driver modules
  33:lib/src/stm32f10x_usart.c ****   * @{
ARM GAS  /tmp/ccjSVZtz.s 			page 2


  34:lib/src/stm32f10x_usart.c ****   */
  35:lib/src/stm32f10x_usart.c **** 
  36:lib/src/stm32f10x_usart.c **** /** @defgroup USART_Private_TypesDefinitions
  37:lib/src/stm32f10x_usart.c ****   * @{
  38:lib/src/stm32f10x_usart.c ****   */
  39:lib/src/stm32f10x_usart.c **** 
  40:lib/src/stm32f10x_usart.c **** /**
  41:lib/src/stm32f10x_usart.c ****   * @}
  42:lib/src/stm32f10x_usart.c ****   */
  43:lib/src/stm32f10x_usart.c **** 
  44:lib/src/stm32f10x_usart.c **** /** @defgroup USART_Private_Defines
  45:lib/src/stm32f10x_usart.c ****   * @{
  46:lib/src/stm32f10x_usart.c ****   */
  47:lib/src/stm32f10x_usart.c **** 
  48:lib/src/stm32f10x_usart.c **** #define CR1_UE_Set                ((uint16_t)0x2000)  /*!< USART Enable Mask */
  49:lib/src/stm32f10x_usart.c **** #define CR1_UE_Reset              ((uint16_t)0xDFFF)  /*!< USART Disable Mask */
  50:lib/src/stm32f10x_usart.c **** 
  51:lib/src/stm32f10x_usart.c **** #define CR1_WAKE_Mask             ((uint16_t)0xF7FF)  /*!< USART WakeUp Method Mask */
  52:lib/src/stm32f10x_usart.c **** 
  53:lib/src/stm32f10x_usart.c **** #define CR1_RWU_Set               ((uint16_t)0x0002)  /*!< USART mute mode Enable Mask */
  54:lib/src/stm32f10x_usart.c **** #define CR1_RWU_Reset             ((uint16_t)0xFFFD)  /*!< USART mute mode Enable Mask */
  55:lib/src/stm32f10x_usart.c **** #define CR1_SBK_Set               ((uint16_t)0x0001)  /*!< USART Break Character send Mask */
  56:lib/src/stm32f10x_usart.c **** #define CR1_CLEAR_Mask            ((uint16_t)0xE9F3)  /*!< USART CR1 Mask */
  57:lib/src/stm32f10x_usart.c **** #define CR2_Address_Mask          ((uint16_t)0xFFF0)  /*!< USART address Mask */
  58:lib/src/stm32f10x_usart.c **** 
  59:lib/src/stm32f10x_usart.c **** #define CR2_LINEN_Set              ((uint16_t)0x4000)  /*!< USART LIN Enable Mask */
  60:lib/src/stm32f10x_usart.c **** #define CR2_LINEN_Reset            ((uint16_t)0xBFFF)  /*!< USART LIN Disable Mask */
  61:lib/src/stm32f10x_usart.c **** 
  62:lib/src/stm32f10x_usart.c **** #define CR2_LBDL_Mask             ((uint16_t)0xFFDF)  /*!< USART LIN Break detection Mask */
  63:lib/src/stm32f10x_usart.c **** #define CR2_STOP_CLEAR_Mask       ((uint16_t)0xCFFF)  /*!< USART CR2 STOP Bits Mask */
  64:lib/src/stm32f10x_usart.c **** #define CR2_CLOCK_CLEAR_Mask      ((uint16_t)0xF0FF)  /*!< USART CR2 Clock Mask */
  65:lib/src/stm32f10x_usart.c **** 
  66:lib/src/stm32f10x_usart.c **** #define CR3_SCEN_Set              ((uint16_t)0x0020)  /*!< USART SC Enable Mask */
  67:lib/src/stm32f10x_usart.c **** #define CR3_SCEN_Reset            ((uint16_t)0xFFDF)  /*!< USART SC Disable Mask */
  68:lib/src/stm32f10x_usart.c **** 
  69:lib/src/stm32f10x_usart.c **** #define CR3_NACK_Set              ((uint16_t)0x0010)  /*!< USART SC NACK Enable Mask */
  70:lib/src/stm32f10x_usart.c **** #define CR3_NACK_Reset            ((uint16_t)0xFFEF)  /*!< USART SC NACK Disable Mask */
  71:lib/src/stm32f10x_usart.c **** 
  72:lib/src/stm32f10x_usart.c **** #define CR3_HDSEL_Set             ((uint16_t)0x0008)  /*!< USART Half-Duplex Enable Mask */
  73:lib/src/stm32f10x_usart.c **** #define CR3_HDSEL_Reset           ((uint16_t)0xFFF7)  /*!< USART Half-Duplex Disable Mask */
  74:lib/src/stm32f10x_usart.c **** 
  75:lib/src/stm32f10x_usart.c **** #define CR3_IRLP_Mask             ((uint16_t)0xFFFB)  /*!< USART IrDA LowPower mode Mask */
  76:lib/src/stm32f10x_usart.c **** #define CR3_CLEAR_Mask            ((uint16_t)0xFCFF)  /*!< USART CR3 Mask */
  77:lib/src/stm32f10x_usart.c **** 
  78:lib/src/stm32f10x_usart.c **** #define CR3_IREN_Set              ((uint16_t)0x0002)  /*!< USART IrDA Enable Mask */
  79:lib/src/stm32f10x_usart.c **** #define CR3_IREN_Reset            ((uint16_t)0xFFFD)  /*!< USART IrDA Disable Mask */
  80:lib/src/stm32f10x_usart.c **** #define GTPR_LSB_Mask             ((uint16_t)0x00FF)  /*!< Guard Time Register LSB Mask */
  81:lib/src/stm32f10x_usart.c **** #define GTPR_MSB_Mask             ((uint16_t)0xFF00)  /*!< Guard Time Register MSB Mask */
  82:lib/src/stm32f10x_usart.c **** #define IT_Mask                   ((uint16_t)0x001F)  /*!< USART Interrupt Mask */
  83:lib/src/stm32f10x_usart.c **** 
  84:lib/src/stm32f10x_usart.c **** /* USART OverSampling-8 Mask */
  85:lib/src/stm32f10x_usart.c **** #define CR1_OVER8_Set             ((u16)0x8000)  /* USART OVER8 mode Enable Mask */
  86:lib/src/stm32f10x_usart.c **** #define CR1_OVER8_Reset           ((u16)0x7FFF)  /* USART OVER8 mode Disable Mask */
  87:lib/src/stm32f10x_usart.c **** 
  88:lib/src/stm32f10x_usart.c **** /* USART One Bit Sampling Mask */
  89:lib/src/stm32f10x_usart.c **** #define CR3_ONEBITE_Set           ((u16)0x0800)  /* USART ONEBITE mode Enable Mask */
  90:lib/src/stm32f10x_usart.c **** #define CR3_ONEBITE_Reset         ((u16)0xF7FF)  /* USART ONEBITE mode Disable Mask */
ARM GAS  /tmp/ccjSVZtz.s 			page 3


  91:lib/src/stm32f10x_usart.c **** 
  92:lib/src/stm32f10x_usart.c **** /**
  93:lib/src/stm32f10x_usart.c ****   * @}
  94:lib/src/stm32f10x_usart.c ****   */
  95:lib/src/stm32f10x_usart.c **** 
  96:lib/src/stm32f10x_usart.c **** /** @defgroup USART_Private_Macros
  97:lib/src/stm32f10x_usart.c ****   * @{
  98:lib/src/stm32f10x_usart.c ****   */
  99:lib/src/stm32f10x_usart.c **** 
 100:lib/src/stm32f10x_usart.c **** /**
 101:lib/src/stm32f10x_usart.c ****   * @}
 102:lib/src/stm32f10x_usart.c ****   */
 103:lib/src/stm32f10x_usart.c **** 
 104:lib/src/stm32f10x_usart.c **** /** @defgroup USART_Private_Variables
 105:lib/src/stm32f10x_usart.c ****   * @{
 106:lib/src/stm32f10x_usart.c ****   */
 107:lib/src/stm32f10x_usart.c **** 
 108:lib/src/stm32f10x_usart.c **** /**
 109:lib/src/stm32f10x_usart.c ****   * @}
 110:lib/src/stm32f10x_usart.c ****   */
 111:lib/src/stm32f10x_usart.c **** 
 112:lib/src/stm32f10x_usart.c **** /** @defgroup USART_Private_FunctionPrototypes
 113:lib/src/stm32f10x_usart.c ****   * @{
 114:lib/src/stm32f10x_usart.c ****   */
 115:lib/src/stm32f10x_usart.c **** 
 116:lib/src/stm32f10x_usart.c **** /**
 117:lib/src/stm32f10x_usart.c ****   * @}
 118:lib/src/stm32f10x_usart.c ****   */
 119:lib/src/stm32f10x_usart.c **** 
 120:lib/src/stm32f10x_usart.c **** /** @defgroup USART_Private_Functions
 121:lib/src/stm32f10x_usart.c ****   * @{
 122:lib/src/stm32f10x_usart.c ****   */
 123:lib/src/stm32f10x_usart.c **** 
 124:lib/src/stm32f10x_usart.c **** /**
 125:lib/src/stm32f10x_usart.c ****   * @brief  Deinitializes the USARTx peripheral registers to their default reset values.
 126:lib/src/stm32f10x_usart.c ****   * @param  USARTx: Select the USART or the UART peripheral. 
 127:lib/src/stm32f10x_usart.c ****   *   This parameter can be one of the following values: 
 128:lib/src/stm32f10x_usart.c ****   *      USART1, USART2, USART3, UART4 or UART5.
 129:lib/src/stm32f10x_usart.c ****   * @retval None
 130:lib/src/stm32f10x_usart.c ****   */
 131:lib/src/stm32f10x_usart.c **** void USART_DeInit(USART_TypeDef* USARTx)
 132:lib/src/stm32f10x_usart.c **** {
  25              		.loc 1 132 0
  26              		.cfi_startproc
  27              		@ args = 0, pretend = 0, frame = 0
  28              		@ frame_needed = 0, uses_anonymous_args = 0
  29              	.LVL0:
  30 0000 08B5     		push	{r3, lr}
  31              		.cfi_def_cfa_offset 8
  32              		.cfi_offset 3, -8
  33              		.cfi_offset 14, -4
 133:lib/src/stm32f10x_usart.c ****   /* Check the parameters */
 134:lib/src/stm32f10x_usart.c ****   assert_param(IS_USART_ALL_PERIPH(USARTx));
 135:lib/src/stm32f10x_usart.c **** 
 136:lib/src/stm32f10x_usart.c ****   if (USARTx == USART1)
  34              		.loc 1 136 0
  35 0002 234B     		ldr	r3, .L13
ARM GAS  /tmp/ccjSVZtz.s 			page 4


  36 0004 9842     		cmp	r0, r3
  37 0006 0CD0     		beq	.L8
 137:lib/src/stm32f10x_usart.c ****   {
 138:lib/src/stm32f10x_usart.c ****     RCC_APB2PeriphResetCmd(RCC_APB2Periph_USART1, ENABLE);
 139:lib/src/stm32f10x_usart.c ****     RCC_APB2PeriphResetCmd(RCC_APB2Periph_USART1, DISABLE);
 140:lib/src/stm32f10x_usart.c ****   }
 141:lib/src/stm32f10x_usart.c ****   else if (USARTx == USART2)
  38              		.loc 1 141 0
  39 0008 224B     		ldr	r3, .L13+4
  40 000a 9842     		cmp	r0, r3
  41 000c 14D0     		beq	.L9
 142:lib/src/stm32f10x_usart.c ****   {
 143:lib/src/stm32f10x_usart.c ****     RCC_APB1PeriphResetCmd(RCC_APB1Periph_USART2, ENABLE);
 144:lib/src/stm32f10x_usart.c ****     RCC_APB1PeriphResetCmd(RCC_APB1Periph_USART2, DISABLE);
 145:lib/src/stm32f10x_usart.c ****   }
 146:lib/src/stm32f10x_usart.c ****   else if (USARTx == USART3)
  42              		.loc 1 146 0
  43 000e 224B     		ldr	r3, .L13+8
  44 0010 9842     		cmp	r0, r3
  45 0012 1CD0     		beq	.L10
 147:lib/src/stm32f10x_usart.c ****   {
 148:lib/src/stm32f10x_usart.c ****     RCC_APB1PeriphResetCmd(RCC_APB1Periph_USART3, ENABLE);
 149:lib/src/stm32f10x_usart.c ****     RCC_APB1PeriphResetCmd(RCC_APB1Periph_USART3, DISABLE);
 150:lib/src/stm32f10x_usart.c ****   }    
 151:lib/src/stm32f10x_usart.c ****   else if (USARTx == UART4)
  46              		.loc 1 151 0
  47 0014 214B     		ldr	r3, .L13+12
  48 0016 9842     		cmp	r0, r3
  49 0018 24D0     		beq	.L11
 152:lib/src/stm32f10x_usart.c ****   {
 153:lib/src/stm32f10x_usart.c ****     RCC_APB1PeriphResetCmd(RCC_APB1Periph_UART4, ENABLE);
 154:lib/src/stm32f10x_usart.c ****     RCC_APB1PeriphResetCmd(RCC_APB1Periph_UART4, DISABLE);
 155:lib/src/stm32f10x_usart.c ****   }    
 156:lib/src/stm32f10x_usart.c ****   else
 157:lib/src/stm32f10x_usart.c ****   {
 158:lib/src/stm32f10x_usart.c ****     if (USARTx == UART5)
  50              		.loc 1 158 0
  51 001a 214B     		ldr	r3, .L13+16
  52 001c 9842     		cmp	r0, r3
  53 001e 2CD0     		beq	.L12
  54              	.LVL1:
  55              	.L1:
  56 0020 08BD     		pop	{r3, pc}
  57              	.LVL2:
  58              	.L8:
 138:lib/src/stm32f10x_usart.c ****     RCC_APB2PeriphResetCmd(RCC_APB2Periph_USART1, DISABLE);
  59              		.loc 1 138 0
  60 0022 0121     		movs	r1, #1
  61 0024 4FF48040 		mov	r0, #16384
  62              	.LVL3:
  63 0028 FFF7FEFF 		bl	RCC_APB2PeriphResetCmd
  64              	.LVL4:
 139:lib/src/stm32f10x_usart.c ****   }
  65              		.loc 1 139 0
  66 002c 0021     		movs	r1, #0
  67 002e 4FF48040 		mov	r0, #16384
  68 0032 FFF7FEFF 		bl	RCC_APB2PeriphResetCmd
ARM GAS  /tmp/ccjSVZtz.s 			page 5


  69              	.LVL5:
  70 0036 08BD     		pop	{r3, pc}
  71              	.LVL6:
  72              	.L9:
 143:lib/src/stm32f10x_usart.c ****     RCC_APB1PeriphResetCmd(RCC_APB1Periph_USART2, DISABLE);
  73              		.loc 1 143 0
  74 0038 0121     		movs	r1, #1
  75 003a 4FF40030 		mov	r0, #131072
  76              	.LVL7:
  77 003e FFF7FEFF 		bl	RCC_APB1PeriphResetCmd
  78              	.LVL8:
 144:lib/src/stm32f10x_usart.c ****   }
  79              		.loc 1 144 0
  80 0042 0021     		movs	r1, #0
  81 0044 4FF40030 		mov	r0, #131072
  82 0048 FFF7FEFF 		bl	RCC_APB1PeriphResetCmd
  83              	.LVL9:
  84 004c 08BD     		pop	{r3, pc}
  85              	.LVL10:
  86              	.L10:
 148:lib/src/stm32f10x_usart.c ****     RCC_APB1PeriphResetCmd(RCC_APB1Periph_USART3, DISABLE);
  87              		.loc 1 148 0
  88 004e 0121     		movs	r1, #1
  89 0050 4FF48020 		mov	r0, #262144
  90              	.LVL11:
  91 0054 FFF7FEFF 		bl	RCC_APB1PeriphResetCmd
  92              	.LVL12:
 149:lib/src/stm32f10x_usart.c ****   }    
  93              		.loc 1 149 0
  94 0058 0021     		movs	r1, #0
  95 005a 4FF48020 		mov	r0, #262144
  96 005e FFF7FEFF 		bl	RCC_APB1PeriphResetCmd
  97              	.LVL13:
  98 0062 08BD     		pop	{r3, pc}
  99              	.LVL14:
 100              	.L11:
 153:lib/src/stm32f10x_usart.c ****     RCC_APB1PeriphResetCmd(RCC_APB1Periph_UART4, DISABLE);
 101              		.loc 1 153 0
 102 0064 0121     		movs	r1, #1
 103 0066 4FF40020 		mov	r0, #524288
 104              	.LVL15:
 105 006a FFF7FEFF 		bl	RCC_APB1PeriphResetCmd
 106              	.LVL16:
 154:lib/src/stm32f10x_usart.c ****   }    
 107              		.loc 1 154 0
 108 006e 0021     		movs	r1, #0
 109 0070 4FF40020 		mov	r0, #524288
 110 0074 FFF7FEFF 		bl	RCC_APB1PeriphResetCmd
 111              	.LVL17:
 112 0078 08BD     		pop	{r3, pc}
 113              	.LVL18:
 114              	.L12:
 159:lib/src/stm32f10x_usart.c ****     { 
 160:lib/src/stm32f10x_usart.c ****       RCC_APB1PeriphResetCmd(RCC_APB1Periph_UART5, ENABLE);
 115              		.loc 1 160 0
 116 007a 0121     		movs	r1, #1
 117 007c 4FF48010 		mov	r0, #1048576
ARM GAS  /tmp/ccjSVZtz.s 			page 6


 118              	.LVL19:
 119 0080 FFF7FEFF 		bl	RCC_APB1PeriphResetCmd
 120              	.LVL20:
 161:lib/src/stm32f10x_usart.c ****       RCC_APB1PeriphResetCmd(RCC_APB1Periph_UART5, DISABLE);
 121              		.loc 1 161 0
 122 0084 0021     		movs	r1, #0
 123 0086 4FF48010 		mov	r0, #1048576
 124 008a FFF7FEFF 		bl	RCC_APB1PeriphResetCmd
 125              	.LVL21:
 162:lib/src/stm32f10x_usart.c ****     }
 163:lib/src/stm32f10x_usart.c ****   }
 164:lib/src/stm32f10x_usart.c **** }
 126              		.loc 1 164 0
 127 008e C7E7     		b	.L1
 128              	.L14:
 129              		.align	2
 130              	.L13:
 131 0090 00380140 		.word	1073821696
 132 0094 00440040 		.word	1073759232
 133 0098 00480040 		.word	1073760256
 134 009c 004C0040 		.word	1073761280
 135 00a0 00500040 		.word	1073762304
 136              		.cfi_endproc
 137              	.LFE64:
 138              		.size	USART_DeInit, .-USART_DeInit
 139              		.align	1
 140              		.global	USART_Init
 141              		.syntax unified
 142              		.thumb
 143              		.thumb_func
 144              		.fpu softvfp
 145              		.type	USART_Init, %function
 146              	USART_Init:
 147              	.LFB65:
 165:lib/src/stm32f10x_usart.c **** 
 166:lib/src/stm32f10x_usart.c **** /**
 167:lib/src/stm32f10x_usart.c ****   * @brief  Initializes the USARTx peripheral according to the specified
 168:lib/src/stm32f10x_usart.c ****   *         parameters in the USART_InitStruct .
 169:lib/src/stm32f10x_usart.c ****   * @param  USARTx: Select the USART or the UART peripheral. 
 170:lib/src/stm32f10x_usart.c ****   *   This parameter can be one of the following values:
 171:lib/src/stm32f10x_usart.c ****   *   USART1, USART2, USART3, UART4 or UART5.
 172:lib/src/stm32f10x_usart.c ****   * @param  USART_InitStruct: pointer to a USART_InitTypeDef structure
 173:lib/src/stm32f10x_usart.c ****   *         that contains the configuration information for the specified USART 
 174:lib/src/stm32f10x_usart.c ****   *         peripheral.
 175:lib/src/stm32f10x_usart.c ****   * @retval None
 176:lib/src/stm32f10x_usart.c ****   */
 177:lib/src/stm32f10x_usart.c **** void USART_Init(USART_TypeDef* USARTx, USART_InitTypeDef* USART_InitStruct)
 178:lib/src/stm32f10x_usart.c **** {
 148              		.loc 1 178 0
 149              		.cfi_startproc
 150              		@ args = 0, pretend = 0, frame = 24
 151              		@ frame_needed = 0, uses_anonymous_args = 0
 152              	.LVL22:
 153 00a4 30B5     		push	{r4, r5, lr}
 154              		.cfi_def_cfa_offset 12
 155              		.cfi_offset 4, -12
 156              		.cfi_offset 5, -8
ARM GAS  /tmp/ccjSVZtz.s 			page 7


 157              		.cfi_offset 14, -4
 158 00a6 87B0     		sub	sp, sp, #28
 159              		.cfi_def_cfa_offset 40
 160 00a8 0446     		mov	r4, r0
 161 00aa 0D46     		mov	r5, r1
 162              	.LVL23:
 179:lib/src/stm32f10x_usart.c ****   uint32_t tmpreg = 0x00, apbclock = 0x00;
 180:lib/src/stm32f10x_usart.c ****   uint32_t integerdivider = 0x00;
 181:lib/src/stm32f10x_usart.c ****   uint32_t fractionaldivider = 0x00;
 182:lib/src/stm32f10x_usart.c ****   uint32_t usartxbase = 0;
 183:lib/src/stm32f10x_usart.c ****   RCC_ClocksTypeDef RCC_ClocksStatus;
 184:lib/src/stm32f10x_usart.c ****   /* Check the parameters */
 185:lib/src/stm32f10x_usart.c ****   assert_param(IS_USART_ALL_PERIPH(USARTx));
 186:lib/src/stm32f10x_usart.c ****   assert_param(IS_USART_BAUDRATE(USART_InitStruct->USART_BaudRate));  
 187:lib/src/stm32f10x_usart.c ****   assert_param(IS_USART_WORD_LENGTH(USART_InitStruct->USART_WordLength));
 188:lib/src/stm32f10x_usart.c ****   assert_param(IS_USART_STOPBITS(USART_InitStruct->USART_StopBits));
 189:lib/src/stm32f10x_usart.c ****   assert_param(IS_USART_PARITY(USART_InitStruct->USART_Parity));
 190:lib/src/stm32f10x_usart.c ****   assert_param(IS_USART_MODE(USART_InitStruct->USART_Mode));
 191:lib/src/stm32f10x_usart.c ****   assert_param(IS_USART_HARDWARE_FLOW_CONTROL(USART_InitStruct->USART_HardwareFlowControl));
 192:lib/src/stm32f10x_usart.c ****   /* The hardware flow control is available only for USART1, USART2 and USART3 */
 193:lib/src/stm32f10x_usart.c ****   if (USART_InitStruct->USART_HardwareFlowControl != USART_HardwareFlowControl_None)
 194:lib/src/stm32f10x_usart.c ****   {
 195:lib/src/stm32f10x_usart.c ****     assert_param(IS_USART_123_PERIPH(USARTx));
 196:lib/src/stm32f10x_usart.c ****   }
 197:lib/src/stm32f10x_usart.c **** 
 198:lib/src/stm32f10x_usart.c ****   usartxbase = (uint32_t)USARTx;
 199:lib/src/stm32f10x_usart.c **** 
 200:lib/src/stm32f10x_usart.c **** /*---------------------------- USART CR2 Configuration -----------------------*/
 201:lib/src/stm32f10x_usart.c ****   tmpreg = USARTx->CR2;
 163              		.loc 1 201 0
 164 00ac 038A     		ldrh	r3, [r0, #16]
 165 00ae 9BB2     		uxth	r3, r3
 166              	.LVL24:
 167 00b0 23F44053 		bic	r3, r3, #12288
 168              	.LVL25:
 169 00b4 CA88     		ldrh	r2, [r1, #6]
 170 00b6 1343     		orrs	r3, r3, r2
 171              	.LVL26:
 202:lib/src/stm32f10x_usart.c ****   /* Clear STOP[13:12] bits */
 203:lib/src/stm32f10x_usart.c ****   tmpreg &= CR2_STOP_CLEAR_Mask;
 204:lib/src/stm32f10x_usart.c ****   /* Configure the USART Stop Bits, Clock, CPOL, CPHA and LastBit ------------*/
 205:lib/src/stm32f10x_usart.c ****   /* Set STOP[13:12] bits according to USART_StopBits value */
 206:lib/src/stm32f10x_usart.c ****   tmpreg |= (uint32_t)USART_InitStruct->USART_StopBits;
 207:lib/src/stm32f10x_usart.c ****   
 208:lib/src/stm32f10x_usart.c ****   /* Write to USART CR2 */
 209:lib/src/stm32f10x_usart.c ****   USARTx->CR2 = (uint16_t)tmpreg;
 172              		.loc 1 209 0
 173 00b8 0382     		strh	r3, [r0, #16]	@ movhi
 210:lib/src/stm32f10x_usart.c **** 
 211:lib/src/stm32f10x_usart.c **** /*---------------------------- USART CR1 Configuration -----------------------*/
 212:lib/src/stm32f10x_usart.c ****   tmpreg = USARTx->CR1;
 174              		.loc 1 212 0
 175 00ba 8389     		ldrh	r3, [r0, #12]
 176              	.LVL27:
 177 00bc 9BB2     		uxth	r3, r3
 178              	.LVL28:
 179 00be 23F4B053 		bic	r3, r3, #5632
ARM GAS  /tmp/ccjSVZtz.s 			page 8


 180              	.LVL29:
 181 00c2 23F00C03 		bic	r3, r3, #12
 182 00c6 8A88     		ldrh	r2, [r1, #4]
 183 00c8 1343     		orrs	r3, r3, r2
 184 00ca 0A89     		ldrh	r2, [r1, #8]
 185 00cc 1343     		orrs	r3, r3, r2
 186 00ce 4A89     		ldrh	r2, [r1, #10]
 187 00d0 1343     		orrs	r3, r3, r2
 188 00d2 9BB2     		uxth	r3, r3
 189              	.LVL30:
 213:lib/src/stm32f10x_usart.c ****   /* Clear M, PCE, PS, TE and RE bits */
 214:lib/src/stm32f10x_usart.c ****   tmpreg &= CR1_CLEAR_Mask;
 215:lib/src/stm32f10x_usart.c ****   /* Configure the USART Word Length, Parity and mode ----------------------- */
 216:lib/src/stm32f10x_usart.c ****   /* Set the M bits according to USART_WordLength value */
 217:lib/src/stm32f10x_usart.c ****   /* Set PCE and PS bits according to USART_Parity value */
 218:lib/src/stm32f10x_usart.c ****   /* Set TE and RE bits according to USART_Mode value */
 219:lib/src/stm32f10x_usart.c ****   tmpreg |= (uint32_t)USART_InitStruct->USART_WordLength | USART_InitStruct->USART_Parity |
 220:lib/src/stm32f10x_usart.c ****             USART_InitStruct->USART_Mode;
 221:lib/src/stm32f10x_usart.c ****   /* Write to USART CR1 */
 222:lib/src/stm32f10x_usart.c ****   USARTx->CR1 = (uint16_t)tmpreg;
 190              		.loc 1 222 0
 191 00d4 8381     		strh	r3, [r0, #12]	@ movhi
 223:lib/src/stm32f10x_usart.c **** 
 224:lib/src/stm32f10x_usart.c **** /*---------------------------- USART CR3 Configuration -----------------------*/  
 225:lib/src/stm32f10x_usart.c ****   tmpreg = USARTx->CR3;
 192              		.loc 1 225 0
 193 00d6 838A     		ldrh	r3, [r0, #20]
 194              	.LVL31:
 195 00d8 9BB2     		uxth	r3, r3
 196              	.LVL32:
 197 00da 23F44073 		bic	r3, r3, #768
 198              	.LVL33:
 199 00de 8A89     		ldrh	r2, [r1, #12]
 200 00e0 1343     		orrs	r3, r3, r2
 201              	.LVL34:
 226:lib/src/stm32f10x_usart.c ****   /* Clear CTSE and RTSE bits */
 227:lib/src/stm32f10x_usart.c ****   tmpreg &= CR3_CLEAR_Mask;
 228:lib/src/stm32f10x_usart.c ****   /* Configure the USART HFC -------------------------------------------------*/
 229:lib/src/stm32f10x_usart.c ****   /* Set CTSE and RTSE bits according to USART_HardwareFlowControl value */
 230:lib/src/stm32f10x_usart.c ****   tmpreg |= USART_InitStruct->USART_HardwareFlowControl;
 231:lib/src/stm32f10x_usart.c ****   /* Write to USART CR3 */
 232:lib/src/stm32f10x_usart.c ****   USARTx->CR3 = (uint16_t)tmpreg;
 202              		.loc 1 232 0
 203 00e2 8382     		strh	r3, [r0, #20]	@ movhi
 233:lib/src/stm32f10x_usart.c **** 
 234:lib/src/stm32f10x_usart.c **** /*---------------------------- USART BRR Configuration -----------------------*/
 235:lib/src/stm32f10x_usart.c ****   /* Configure the USART Baud Rate -------------------------------------------*/
 236:lib/src/stm32f10x_usart.c ****   RCC_GetClocksFreq(&RCC_ClocksStatus);
 204              		.loc 1 236 0
 205 00e4 01A8     		add	r0, sp, #4
 206              	.LVL35:
 207 00e6 FFF7FEFF 		bl	RCC_GetClocksFreq
 208              	.LVL36:
 237:lib/src/stm32f10x_usart.c ****   if (usartxbase == USART1_BASE)
 209              		.loc 1 237 0
 210 00ea 1A4B     		ldr	r3, .L24
 211 00ec 9C42     		cmp	r4, r3
ARM GAS  /tmp/ccjSVZtz.s 			page 9


 238:lib/src/stm32f10x_usart.c ****   {
 239:lib/src/stm32f10x_usart.c ****     apbclock = RCC_ClocksStatus.PCLK2_Frequency;
 212              		.loc 1 239 0
 213 00ee 0CBF     		ite	eq
 214 00f0 049B     		ldreq	r3, [sp, #16]
 215              	.LVL37:
 240:lib/src/stm32f10x_usart.c ****   }
 241:lib/src/stm32f10x_usart.c ****   else
 242:lib/src/stm32f10x_usart.c ****   {
 243:lib/src/stm32f10x_usart.c ****     apbclock = RCC_ClocksStatus.PCLK1_Frequency;
 216              		.loc 1 243 0
 217 00f2 039B     		ldrne	r3, [sp, #12]
 218              	.LVL38:
 244:lib/src/stm32f10x_usart.c ****   }
 245:lib/src/stm32f10x_usart.c ****   
 246:lib/src/stm32f10x_usart.c ****   /* Determine the integer part */
 247:lib/src/stm32f10x_usart.c ****   if ((USARTx->CR1 & CR1_OVER8_Set) != 0)
 219              		.loc 1 247 0
 220 00f4 A289     		ldrh	r2, [r4, #12]
 221 00f6 12F4004F 		tst	r2, #32768
 248:lib/src/stm32f10x_usart.c ****   {
 249:lib/src/stm32f10x_usart.c ****     /* Integer part computing in case Oversampling mode is 8 Samples */
 250:lib/src/stm32f10x_usart.c ****     integerdivider = ((25 * apbclock) / (2 * (USART_InitStruct->USART_BaudRate)));    
 222              		.loc 1 250 0
 223 00fa 03EB8303 		add	r3, r3, r3, lsl #2
 224              	.LVL39:
 225 00fe 03EB8303 		add	r3, r3, r3, lsl #2
 226 0102 2968     		ldr	r1, [r5]
 227 0104 14BF     		ite	ne
 228 0106 4900     		lslne	r1, r1, #1
 251:lib/src/stm32f10x_usart.c ****   }
 252:lib/src/stm32f10x_usart.c ****   else /* if ((USARTx->CR1 & CR1_OVER8_Set) == 0) */
 253:lib/src/stm32f10x_usart.c ****   {
 254:lib/src/stm32f10x_usart.c ****     /* Integer part computing in case Oversampling mode is 16 Samples */
 255:lib/src/stm32f10x_usart.c ****     integerdivider = ((25 * apbclock) / (4 * (USART_InitStruct->USART_BaudRate)));    
 229              		.loc 1 255 0
 230 0108 8900     		lsleq	r1, r1, #2
 231 010a B3FBF1F1 		udiv	r1, r3, r1
 232              	.LVL40:
 256:lib/src/stm32f10x_usart.c ****   }
 257:lib/src/stm32f10x_usart.c ****   tmpreg = (integerdivider / 100) << 4;
 233              		.loc 1 257 0
 234 010e 124B     		ldr	r3, .L24+4
 235 0110 A3FB0123 		umull	r2, r3, r3, r1
 236 0114 5809     		lsrs	r0, r3, #5
 237 0116 0501     		lsls	r5, r0, #4
 238              	.LVL41:
 258:lib/src/stm32f10x_usart.c **** 
 259:lib/src/stm32f10x_usart.c ****   /* Determine the fractional part */
 260:lib/src/stm32f10x_usart.c ****   fractionaldivider = integerdivider - (100 * (tmpreg >> 4));
 239              		.loc 1 260 0
 240 0118 6423     		movs	r3, #100
 241 011a 00FB1313 		mls	r3, r0, r3, r1
 242              	.LVL42:
 261:lib/src/stm32f10x_usart.c **** 
 262:lib/src/stm32f10x_usart.c ****   /* Implement the fractional part in the register */
 263:lib/src/stm32f10x_usart.c ****   if ((USARTx->CR1 & CR1_OVER8_Set) != 0)
ARM GAS  /tmp/ccjSVZtz.s 			page 10


 243              		.loc 1 263 0
 244 011e A289     		ldrh	r2, [r4, #12]
 245 0120 12F4004F 		tst	r2, #32768
 246 0124 0BD1     		bne	.L23
 264:lib/src/stm32f10x_usart.c ****   {
 265:lib/src/stm32f10x_usart.c ****     tmpreg |= ((((fractionaldivider * 8) + 50) / 100)) & ((uint8_t)0x07);
 266:lib/src/stm32f10x_usart.c ****   }
 267:lib/src/stm32f10x_usart.c ****   else /* if ((USARTx->CR1 & CR1_OVER8_Set) == 0) */
 268:lib/src/stm32f10x_usart.c ****   {
 269:lib/src/stm32f10x_usart.c ****     tmpreg |= ((((fractionaldivider * 16) + 50) / 100)) & ((uint8_t)0x0F);
 247              		.loc 1 269 0
 248 0126 1B01     		lsls	r3, r3, #4
 249              	.LVL43:
 250 0128 3233     		adds	r3, r3, #50
 251 012a 0B4A     		ldr	r2, .L24+4
 252 012c A2FB0323 		umull	r2, r3, r2, r3
 253 0130 C3F34313 		ubfx	r3, r3, #5, #4
 254 0134 2B43     		orrs	r3, r3, r5
 255              	.LVL44:
 256              	.L21:
 270:lib/src/stm32f10x_usart.c ****   }
 271:lib/src/stm32f10x_usart.c ****   
 272:lib/src/stm32f10x_usart.c ****   /* Write to USART BRR */
 273:lib/src/stm32f10x_usart.c ****   USARTx->BRR = (uint16_t)tmpreg;
 257              		.loc 1 273 0
 258 0136 9BB2     		uxth	r3, r3
 259              	.LVL45:
 260 0138 2381     		strh	r3, [r4, #8]	@ movhi
 274:lib/src/stm32f10x_usart.c **** }
 261              		.loc 1 274 0
 262 013a 07B0     		add	sp, sp, #28
 263              		.cfi_remember_state
 264              		.cfi_def_cfa_offset 12
 265              		@ sp needed
 266 013c 30BD     		pop	{r4, r5, pc}
 267              	.LVL46:
 268              	.L23:
 269              		.cfi_restore_state
 265:lib/src/stm32f10x_usart.c ****   }
 270              		.loc 1 265 0
 271 013e D900     		lsls	r1, r3, #3
 272              	.LVL47:
 273 0140 3231     		adds	r1, r1, #50
 274 0142 054A     		ldr	r2, .L24+4
 275 0144 A2FB0131 		umull	r3, r1, r2, r1
 276              	.LVL48:
 277 0148 C1F34212 		ubfx	r2, r1, #5, #3
 278 014c 42EA0503 		orr	r3, r2, r5
 279              	.LVL49:
 280 0150 F1E7     		b	.L21
 281              	.L25:
 282 0152 00BF     		.align	2
 283              	.L24:
 284 0154 00380140 		.word	1073821696
 285 0158 1F85EB51 		.word	1374389535
 286              		.cfi_endproc
 287              	.LFE65:
ARM GAS  /tmp/ccjSVZtz.s 			page 11


 288              		.size	USART_Init, .-USART_Init
 289              		.align	1
 290              		.global	USART_StructInit
 291              		.syntax unified
 292              		.thumb
 293              		.thumb_func
 294              		.fpu softvfp
 295              		.type	USART_StructInit, %function
 296              	USART_StructInit:
 297              	.LFB66:
 275:lib/src/stm32f10x_usart.c **** 
 276:lib/src/stm32f10x_usart.c **** /**
 277:lib/src/stm32f10x_usart.c ****   * @brief  Fills each USART_InitStruct member with its default value.
 278:lib/src/stm32f10x_usart.c ****   * @param  USART_InitStruct: pointer to a USART_InitTypeDef structure
 279:lib/src/stm32f10x_usart.c ****   *         which will be initialized.
 280:lib/src/stm32f10x_usart.c ****   * @retval None
 281:lib/src/stm32f10x_usart.c ****   */
 282:lib/src/stm32f10x_usart.c **** void USART_StructInit(USART_InitTypeDef* USART_InitStruct)
 283:lib/src/stm32f10x_usart.c **** {
 298              		.loc 1 283 0
 299              		.cfi_startproc
 300              		@ args = 0, pretend = 0, frame = 0
 301              		@ frame_needed = 0, uses_anonymous_args = 0
 302              		@ link register save eliminated.
 303              	.LVL50:
 284:lib/src/stm32f10x_usart.c ****   /* USART_InitStruct members default value */
 285:lib/src/stm32f10x_usart.c ****   USART_InitStruct->USART_BaudRate = 9600;
 304              		.loc 1 285 0
 305 015c 4FF41653 		mov	r3, #9600
 306 0160 0360     		str	r3, [r0]
 286:lib/src/stm32f10x_usart.c ****   USART_InitStruct->USART_WordLength = USART_WordLength_8b;
 307              		.loc 1 286 0
 308 0162 0023     		movs	r3, #0
 309 0164 8380     		strh	r3, [r0, #4]	@ movhi
 287:lib/src/stm32f10x_usart.c ****   USART_InitStruct->USART_StopBits = USART_StopBits_1;
 310              		.loc 1 287 0
 311 0166 C380     		strh	r3, [r0, #6]	@ movhi
 288:lib/src/stm32f10x_usart.c ****   USART_InitStruct->USART_Parity = USART_Parity_No ;
 312              		.loc 1 288 0
 313 0168 0381     		strh	r3, [r0, #8]	@ movhi
 289:lib/src/stm32f10x_usart.c ****   USART_InitStruct->USART_Mode = USART_Mode_Rx | USART_Mode_Tx;
 314              		.loc 1 289 0
 315 016a 0C22     		movs	r2, #12
 316 016c 4281     		strh	r2, [r0, #10]	@ movhi
 290:lib/src/stm32f10x_usart.c ****   USART_InitStruct->USART_HardwareFlowControl = USART_HardwareFlowControl_None;  
 317              		.loc 1 290 0
 318 016e 8381     		strh	r3, [r0, #12]	@ movhi
 319 0170 7047     		bx	lr
 320              		.cfi_endproc
 321              	.LFE66:
 322              		.size	USART_StructInit, .-USART_StructInit
 323              		.align	1
 324              		.global	USART_ClockInit
 325              		.syntax unified
 326              		.thumb
 327              		.thumb_func
 328              		.fpu softvfp
ARM GAS  /tmp/ccjSVZtz.s 			page 12


 329              		.type	USART_ClockInit, %function
 330              	USART_ClockInit:
 331              	.LFB67:
 291:lib/src/stm32f10x_usart.c **** }
 292:lib/src/stm32f10x_usart.c **** 
 293:lib/src/stm32f10x_usart.c **** /**
 294:lib/src/stm32f10x_usart.c ****   * @brief  Initializes the USARTx peripheral Clock according to the 
 295:lib/src/stm32f10x_usart.c ****   *          specified parameters in the USART_ClockInitStruct .
 296:lib/src/stm32f10x_usart.c ****   * @param  USARTx: where x can be 1, 2, 3 to select the USART peripheral.
 297:lib/src/stm32f10x_usart.c ****   * @param  USART_ClockInitStruct: pointer to a USART_ClockInitTypeDef
 298:lib/src/stm32f10x_usart.c ****   *         structure that contains the configuration information for the specified 
 299:lib/src/stm32f10x_usart.c ****   *         USART peripheral.  
 300:lib/src/stm32f10x_usart.c ****   * @note The Smart Card and Synchronous modes are not available for UART4 and UART5.
 301:lib/src/stm32f10x_usart.c ****   * @retval None
 302:lib/src/stm32f10x_usart.c ****   */
 303:lib/src/stm32f10x_usart.c **** void USART_ClockInit(USART_TypeDef* USARTx, USART_ClockInitTypeDef* USART_ClockInitStruct)
 304:lib/src/stm32f10x_usart.c **** {
 332              		.loc 1 304 0
 333              		.cfi_startproc
 334              		@ args = 0, pretend = 0, frame = 0
 335              		@ frame_needed = 0, uses_anonymous_args = 0
 336              		@ link register save eliminated.
 337              	.LVL51:
 338 0172 10B4     		push	{r4}
 339              		.cfi_def_cfa_offset 4
 340              		.cfi_offset 4, -4
 341              	.LVL52:
 305:lib/src/stm32f10x_usart.c ****   uint32_t tmpreg = 0x00;
 306:lib/src/stm32f10x_usart.c ****   /* Check the parameters */
 307:lib/src/stm32f10x_usart.c ****   assert_param(IS_USART_123_PERIPH(USARTx));
 308:lib/src/stm32f10x_usart.c ****   assert_param(IS_USART_CLOCK(USART_ClockInitStruct->USART_Clock));
 309:lib/src/stm32f10x_usart.c ****   assert_param(IS_USART_CPOL(USART_ClockInitStruct->USART_CPOL));
 310:lib/src/stm32f10x_usart.c ****   assert_param(IS_USART_CPHA(USART_ClockInitStruct->USART_CPHA));
 311:lib/src/stm32f10x_usart.c ****   assert_param(IS_USART_LASTBIT(USART_ClockInitStruct->USART_LastBit));
 312:lib/src/stm32f10x_usart.c ****   
 313:lib/src/stm32f10x_usart.c **** /*---------------------------- USART CR2 Configuration -----------------------*/
 314:lib/src/stm32f10x_usart.c ****   tmpreg = USARTx->CR2;
 342              		.loc 1 314 0
 343 0174 028A     		ldrh	r2, [r0, #16]
 344 0176 92B2     		uxth	r2, r2
 345              	.LVL53:
 315:lib/src/stm32f10x_usart.c ****   /* Clear CLKEN, CPOL, CPHA and LBCL bits */
 316:lib/src/stm32f10x_usart.c ****   tmpreg &= CR2_CLOCK_CLEAR_Mask;
 317:lib/src/stm32f10x_usart.c ****   /* Configure the USART Clock, CPOL, CPHA and LastBit ------------*/
 318:lib/src/stm32f10x_usart.c ****   /* Set CLKEN bit according to USART_Clock value */
 319:lib/src/stm32f10x_usart.c ****   /* Set CPOL bit according to USART_CPOL value */
 320:lib/src/stm32f10x_usart.c ****   /* Set CPHA bit according to USART_CPHA value */
 321:lib/src/stm32f10x_usart.c ****   /* Set LBCL bit according to USART_LastBit value */
 322:lib/src/stm32f10x_usart.c ****   tmpreg |= (uint32_t)USART_ClockInitStruct->USART_Clock | USART_ClockInitStruct->USART_CPOL | 
 323:lib/src/stm32f10x_usart.c ****                  USART_ClockInitStruct->USART_CPHA | USART_ClockInitStruct->USART_LastBit;
 346              		.loc 1 323 0
 347 0178 0B88     		ldrh	r3, [r1]
 348 017a 4C88     		ldrh	r4, [r1, #2]
 349 017c 2343     		orrs	r3, r3, r4
 350 017e 8C88     		ldrh	r4, [r1, #4]
 351 0180 2343     		orrs	r3, r3, r4
 352 0182 C988     		ldrh	r1, [r1, #6]
ARM GAS  /tmp/ccjSVZtz.s 			page 13


 353              	.LVL54:
 354 0184 0B43     		orrs	r3, r3, r1
 355 0186 22F47062 		bic	r2, r2, #3840
 356              	.LVL55:
 357 018a 1343     		orrs	r3, r3, r2
 358 018c 9BB2     		uxth	r3, r3
 359              	.LVL56:
 324:lib/src/stm32f10x_usart.c ****   /* Write to USART CR2 */
 325:lib/src/stm32f10x_usart.c ****   USARTx->CR2 = (uint16_t)tmpreg;
 360              		.loc 1 325 0
 361 018e 0382     		strh	r3, [r0, #16]	@ movhi
 326:lib/src/stm32f10x_usart.c **** }
 362              		.loc 1 326 0
 363 0190 10BC     		pop	{r4}
 364              		.cfi_restore 4
 365              		.cfi_def_cfa_offset 0
 366 0192 7047     		bx	lr
 367              		.cfi_endproc
 368              	.LFE67:
 369              		.size	USART_ClockInit, .-USART_ClockInit
 370              		.align	1
 371              		.global	USART_ClockStructInit
 372              		.syntax unified
 373              		.thumb
 374              		.thumb_func
 375              		.fpu softvfp
 376              		.type	USART_ClockStructInit, %function
 377              	USART_ClockStructInit:
 378              	.LFB68:
 327:lib/src/stm32f10x_usart.c **** 
 328:lib/src/stm32f10x_usart.c **** /**
 329:lib/src/stm32f10x_usart.c ****   * @brief  Fills each USART_ClockInitStruct member with its default value.
 330:lib/src/stm32f10x_usart.c ****   * @param  USART_ClockInitStruct: pointer to a USART_ClockInitTypeDef
 331:lib/src/stm32f10x_usart.c ****   *         structure which will be initialized.
 332:lib/src/stm32f10x_usart.c ****   * @retval None
 333:lib/src/stm32f10x_usart.c ****   */
 334:lib/src/stm32f10x_usart.c **** void USART_ClockStructInit(USART_ClockInitTypeDef* USART_ClockInitStruct)
 335:lib/src/stm32f10x_usart.c **** {
 379              		.loc 1 335 0
 380              		.cfi_startproc
 381              		@ args = 0, pretend = 0, frame = 0
 382              		@ frame_needed = 0, uses_anonymous_args = 0
 383              		@ link register save eliminated.
 384              	.LVL57:
 336:lib/src/stm32f10x_usart.c ****   /* USART_ClockInitStruct members default value */
 337:lib/src/stm32f10x_usart.c ****   USART_ClockInitStruct->USART_Clock = USART_Clock_Disable;
 385              		.loc 1 337 0
 386 0194 0023     		movs	r3, #0
 387 0196 0380     		strh	r3, [r0]	@ movhi
 338:lib/src/stm32f10x_usart.c ****   USART_ClockInitStruct->USART_CPOL = USART_CPOL_Low;
 388              		.loc 1 338 0
 389 0198 4380     		strh	r3, [r0, #2]	@ movhi
 339:lib/src/stm32f10x_usart.c ****   USART_ClockInitStruct->USART_CPHA = USART_CPHA_1Edge;
 390              		.loc 1 339 0
 391 019a 8380     		strh	r3, [r0, #4]	@ movhi
 340:lib/src/stm32f10x_usart.c ****   USART_ClockInitStruct->USART_LastBit = USART_LastBit_Disable;
 392              		.loc 1 340 0
ARM GAS  /tmp/ccjSVZtz.s 			page 14


 393 019c C380     		strh	r3, [r0, #6]	@ movhi
 394 019e 7047     		bx	lr
 395              		.cfi_endproc
 396              	.LFE68:
 397              		.size	USART_ClockStructInit, .-USART_ClockStructInit
 398              		.align	1
 399              		.global	USART_Cmd
 400              		.syntax unified
 401              		.thumb
 402              		.thumb_func
 403              		.fpu softvfp
 404              		.type	USART_Cmd, %function
 405              	USART_Cmd:
 406              	.LFB69:
 341:lib/src/stm32f10x_usart.c **** }
 342:lib/src/stm32f10x_usart.c **** 
 343:lib/src/stm32f10x_usart.c **** /**
 344:lib/src/stm32f10x_usart.c ****   * @brief  Enables or disables the specified USART peripheral.
 345:lib/src/stm32f10x_usart.c ****   * @param  USARTx: Select the USART or the UART peripheral. 
 346:lib/src/stm32f10x_usart.c ****   *         This parameter can be one of the following values:
 347:lib/src/stm32f10x_usart.c ****   *           USART1, USART2, USART3, UART4 or UART5.
 348:lib/src/stm32f10x_usart.c ****   * @param  NewState: new state of the USARTx peripheral.
 349:lib/src/stm32f10x_usart.c ****   *         This parameter can be: ENABLE or DISABLE.
 350:lib/src/stm32f10x_usart.c ****   * @retval None
 351:lib/src/stm32f10x_usart.c ****   */
 352:lib/src/stm32f10x_usart.c **** void USART_Cmd(USART_TypeDef* USARTx, FunctionalState NewState)
 353:lib/src/stm32f10x_usart.c **** {
 407              		.loc 1 353 0
 408              		.cfi_startproc
 409              		@ args = 0, pretend = 0, frame = 0
 410              		@ frame_needed = 0, uses_anonymous_args = 0
 411              		@ link register save eliminated.
 412              	.LVL58:
 354:lib/src/stm32f10x_usart.c ****   /* Check the parameters */
 355:lib/src/stm32f10x_usart.c ****   assert_param(IS_USART_ALL_PERIPH(USARTx));
 356:lib/src/stm32f10x_usart.c ****   assert_param(IS_FUNCTIONAL_STATE(NewState));
 357:lib/src/stm32f10x_usart.c ****   
 358:lib/src/stm32f10x_usart.c ****   if (NewState != DISABLE)
 413              		.loc 1 358 0
 414 01a0 31B9     		cbnz	r1, .L33
 359:lib/src/stm32f10x_usart.c ****   {
 360:lib/src/stm32f10x_usart.c ****     /* Enable the selected USART by setting the UE bit in the CR1 register */
 361:lib/src/stm32f10x_usart.c ****     USARTx->CR1 |= CR1_UE_Set;
 362:lib/src/stm32f10x_usart.c ****   }
 363:lib/src/stm32f10x_usart.c ****   else
 364:lib/src/stm32f10x_usart.c ****   {
 365:lib/src/stm32f10x_usart.c ****     /* Disable the selected USART by clearing the UE bit in the CR1 register */
 366:lib/src/stm32f10x_usart.c ****     USARTx->CR1 &= CR1_UE_Reset;
 415              		.loc 1 366 0
 416 01a2 8389     		ldrh	r3, [r0, #12]
 417 01a4 23F40053 		bic	r3, r3, #8192
 418 01a8 1B04     		lsls	r3, r3, #16
 419 01aa 1B0C     		lsrs	r3, r3, #16
 420 01ac 8381     		strh	r3, [r0, #12]	@ movhi
 421 01ae 7047     		bx	lr
 422              	.L33:
 361:lib/src/stm32f10x_usart.c ****   }
ARM GAS  /tmp/ccjSVZtz.s 			page 15


 423              		.loc 1 361 0
 424 01b0 8389     		ldrh	r3, [r0, #12]
 425 01b2 9BB2     		uxth	r3, r3
 426 01b4 43F40053 		orr	r3, r3, #8192
 427 01b8 8381     		strh	r3, [r0, #12]	@ movhi
 428 01ba 7047     		bx	lr
 429              		.cfi_endproc
 430              	.LFE69:
 431              		.size	USART_Cmd, .-USART_Cmd
 432              		.align	1
 433              		.global	USART_ITConfig
 434              		.syntax unified
 435              		.thumb
 436              		.thumb_func
 437              		.fpu softvfp
 438              		.type	USART_ITConfig, %function
 439              	USART_ITConfig:
 440              	.LFB70:
 367:lib/src/stm32f10x_usart.c ****   }
 368:lib/src/stm32f10x_usart.c **** }
 369:lib/src/stm32f10x_usart.c **** 
 370:lib/src/stm32f10x_usart.c **** /**
 371:lib/src/stm32f10x_usart.c ****   * @brief  Enables or disables the specified USART interrupts.
 372:lib/src/stm32f10x_usart.c ****   * @param  USARTx: Select the USART or the UART peripheral. 
 373:lib/src/stm32f10x_usart.c ****   *   This parameter can be one of the following values:
 374:lib/src/stm32f10x_usart.c ****   *   USART1, USART2, USART3, UART4 or UART5.
 375:lib/src/stm32f10x_usart.c ****   * @param  USART_IT: specifies the USART interrupt sources to be enabled or disabled.
 376:lib/src/stm32f10x_usart.c ****   *   This parameter can be one of the following values:
 377:lib/src/stm32f10x_usart.c ****   *     @arg USART_IT_CTS:  CTS change interrupt (not available for UART4 and UART5)
 378:lib/src/stm32f10x_usart.c ****   *     @arg USART_IT_LBD:  LIN Break detection interrupt
 379:lib/src/stm32f10x_usart.c ****   *     @arg USART_IT_TXE:  Transmit Data Register empty interrupt
 380:lib/src/stm32f10x_usart.c ****   *     @arg USART_IT_TC:   Transmission complete interrupt
 381:lib/src/stm32f10x_usart.c ****   *     @arg USART_IT_RXNE: Receive Data register not empty interrupt
 382:lib/src/stm32f10x_usart.c ****   *     @arg USART_IT_IDLE: Idle line detection interrupt
 383:lib/src/stm32f10x_usart.c ****   *     @arg USART_IT_PE:   Parity Error interrupt
 384:lib/src/stm32f10x_usart.c ****   *     @arg USART_IT_ERR:  Error interrupt(Frame error, noise error, overrun error)
 385:lib/src/stm32f10x_usart.c ****   * @param  NewState: new state of the specified USARTx interrupts.
 386:lib/src/stm32f10x_usart.c ****   *   This parameter can be: ENABLE or DISABLE.
 387:lib/src/stm32f10x_usart.c ****   * @retval None
 388:lib/src/stm32f10x_usart.c ****   */
 389:lib/src/stm32f10x_usart.c **** void USART_ITConfig(USART_TypeDef* USARTx, uint16_t USART_IT, FunctionalState NewState)
 390:lib/src/stm32f10x_usart.c **** {
 441              		.loc 1 390 0
 442              		.cfi_startproc
 443              		@ args = 0, pretend = 0, frame = 0
 444              		@ frame_needed = 0, uses_anonymous_args = 0
 445              		@ link register save eliminated.
 446              	.LVL59:
 447 01bc 10B4     		push	{r4}
 448              		.cfi_def_cfa_offset 4
 449              		.cfi_offset 4, -4
 450              	.LVL60:
 391:lib/src/stm32f10x_usart.c ****   uint32_t usartreg = 0x00, itpos = 0x00, itmask = 0x00;
 392:lib/src/stm32f10x_usart.c ****   uint32_t usartxbase = 0x00;
 393:lib/src/stm32f10x_usart.c ****   /* Check the parameters */
 394:lib/src/stm32f10x_usart.c ****   assert_param(IS_USART_ALL_PERIPH(USARTx));
 395:lib/src/stm32f10x_usart.c ****   assert_param(IS_USART_CONFIG_IT(USART_IT));
ARM GAS  /tmp/ccjSVZtz.s 			page 16


 396:lib/src/stm32f10x_usart.c ****   assert_param(IS_FUNCTIONAL_STATE(NewState));
 397:lib/src/stm32f10x_usart.c ****   /* The CTS interrupt is not available for UART4 and UART5 */
 398:lib/src/stm32f10x_usart.c ****   if (USART_IT == USART_IT_CTS)
 399:lib/src/stm32f10x_usart.c ****   {
 400:lib/src/stm32f10x_usart.c ****     assert_param(IS_USART_123_PERIPH(USARTx));
 401:lib/src/stm32f10x_usart.c ****   }   
 402:lib/src/stm32f10x_usart.c ****   
 403:lib/src/stm32f10x_usart.c ****   usartxbase = (uint32_t)USARTx;
 404:lib/src/stm32f10x_usart.c **** 
 405:lib/src/stm32f10x_usart.c ****   /* Get the USART register index */
 406:lib/src/stm32f10x_usart.c ****   usartreg = (((uint8_t)USART_IT) >> 0x05);
 451              		.loc 1 406 0
 452 01be C1F34214 		ubfx	r4, r1, #5, #3
 453              	.LVL61:
 407:lib/src/stm32f10x_usart.c **** 
 408:lib/src/stm32f10x_usart.c ****   /* Get the interrupt position */
 409:lib/src/stm32f10x_usart.c ****   itpos = USART_IT & IT_Mask;
 454              		.loc 1 409 0
 455 01c2 01F01F01 		and	r1, r1, #31
 456              	.LVL62:
 410:lib/src/stm32f10x_usart.c ****   itmask = (((uint32_t)0x01) << itpos);
 457              		.loc 1 410 0
 458 01c6 0123     		movs	r3, #1
 459 01c8 03FA01F1 		lsl	r1, r3, r1
 460              	.LVL63:
 411:lib/src/stm32f10x_usart.c ****     
 412:lib/src/stm32f10x_usart.c ****   if (usartreg == 0x01) /* The IT is in CR1 register */
 461              		.loc 1 412 0
 462 01cc 9C42     		cmp	r4, r3
 463 01ce 0AD0     		beq	.L41
 413:lib/src/stm32f10x_usart.c ****   {
 414:lib/src/stm32f10x_usart.c ****     usartxbase += 0x0C;
 415:lib/src/stm32f10x_usart.c ****   }
 416:lib/src/stm32f10x_usart.c ****   else if (usartreg == 0x02) /* The IT is in CR2 register */
 464              		.loc 1 416 0
 465 01d0 022C     		cmp	r4, #2
 417:lib/src/stm32f10x_usart.c ****   {
 418:lib/src/stm32f10x_usart.c ****     usartxbase += 0x10;
 466              		.loc 1 418 0
 467 01d2 0CBF     		ite	eq
 468 01d4 1030     		addeq	r0, r0, #16
 469              	.LVL64:
 419:lib/src/stm32f10x_usart.c ****   }
 420:lib/src/stm32f10x_usart.c ****   else /* The IT is in CR3 register */
 421:lib/src/stm32f10x_usart.c ****   {
 422:lib/src/stm32f10x_usart.c ****     usartxbase += 0x14; 
 470              		.loc 1 422 0
 471 01d6 1430     		addne	r0, r0, #20
 472              	.LVL65:
 473              	.L36:
 423:lib/src/stm32f10x_usart.c ****   }
 424:lib/src/stm32f10x_usart.c ****   if (NewState != DISABLE)
 474              		.loc 1 424 0
 475 01d8 3AB9     		cbnz	r2, .L42
 425:lib/src/stm32f10x_usart.c ****   {
 426:lib/src/stm32f10x_usart.c ****     *(__IO uint32_t*)usartxbase  |= itmask;
 427:lib/src/stm32f10x_usart.c ****   }
ARM GAS  /tmp/ccjSVZtz.s 			page 17


 428:lib/src/stm32f10x_usart.c ****   else
 429:lib/src/stm32f10x_usart.c ****   {
 430:lib/src/stm32f10x_usart.c ****     *(__IO uint32_t*)usartxbase &= ~itmask;
 476              		.loc 1 430 0
 477 01da 0368     		ldr	r3, [r0]
 478 01dc 23EA0101 		bic	r1, r3, r1
 479              	.LVL66:
 480 01e0 0160     		str	r1, [r0]
 481              	.L34:
 431:lib/src/stm32f10x_usart.c ****   }
 432:lib/src/stm32f10x_usart.c **** }
 482              		.loc 1 432 0
 483 01e2 10BC     		pop	{r4}
 484              		.cfi_remember_state
 485              		.cfi_restore 4
 486              		.cfi_def_cfa_offset 0
 487              	.LVL67:
 488 01e4 7047     		bx	lr
 489              	.LVL68:
 490              	.L41:
 491              		.cfi_restore_state
 414:lib/src/stm32f10x_usart.c ****   }
 492              		.loc 1 414 0
 493 01e6 0C30     		adds	r0, r0, #12
 494              	.LVL69:
 495 01e8 F6E7     		b	.L36
 496              	.LVL70:
 497              	.L42:
 426:lib/src/stm32f10x_usart.c ****   }
 498              		.loc 1 426 0
 499 01ea 0368     		ldr	r3, [r0]
 500 01ec 1943     		orrs	r1, r1, r3
 501              	.LVL71:
 502 01ee 0160     		str	r1, [r0]
 503 01f0 F7E7     		b	.L34
 504              		.cfi_endproc
 505              	.LFE70:
 506              		.size	USART_ITConfig, .-USART_ITConfig
 507              		.align	1
 508              		.global	USART_DMACmd
 509              		.syntax unified
 510              		.thumb
 511              		.thumb_func
 512              		.fpu softvfp
 513              		.type	USART_DMACmd, %function
 514              	USART_DMACmd:
 515              	.LFB71:
 433:lib/src/stm32f10x_usart.c **** 
 434:lib/src/stm32f10x_usart.c **** /**
 435:lib/src/stm32f10x_usart.c ****   * @brief  Enables or disables the USARTs DMA interface.
 436:lib/src/stm32f10x_usart.c ****   * @param  USARTx: Select the USART or the UART peripheral. 
 437:lib/src/stm32f10x_usart.c ****   *   This parameter can be one of the following values:
 438:lib/src/stm32f10x_usart.c ****   *   USART1, USART2, USART3, UART4 or UART5.
 439:lib/src/stm32f10x_usart.c ****   * @param  USART_DMAReq: specifies the DMA request.
 440:lib/src/stm32f10x_usart.c ****   *   This parameter can be any combination of the following values:
 441:lib/src/stm32f10x_usart.c ****   *     @arg USART_DMAReq_Tx: USART DMA transmit request
 442:lib/src/stm32f10x_usart.c ****   *     @arg USART_DMAReq_Rx: USART DMA receive request
ARM GAS  /tmp/ccjSVZtz.s 			page 18


 443:lib/src/stm32f10x_usart.c ****   * @param  NewState: new state of the DMA Request sources.
 444:lib/src/stm32f10x_usart.c ****   *   This parameter can be: ENABLE or DISABLE.
 445:lib/src/stm32f10x_usart.c ****   * @note The DMA mode is not available for UART5 except in the STM32
 446:lib/src/stm32f10x_usart.c ****   *       High density value line devices(STM32F10X_HD_VL).  
 447:lib/src/stm32f10x_usart.c ****   * @retval None
 448:lib/src/stm32f10x_usart.c ****   */
 449:lib/src/stm32f10x_usart.c **** void USART_DMACmd(USART_TypeDef* USARTx, uint16_t USART_DMAReq, FunctionalState NewState)
 450:lib/src/stm32f10x_usart.c **** {
 516              		.loc 1 450 0
 517              		.cfi_startproc
 518              		@ args = 0, pretend = 0, frame = 0
 519              		@ frame_needed = 0, uses_anonymous_args = 0
 520              		@ link register save eliminated.
 521              	.LVL72:
 451:lib/src/stm32f10x_usart.c ****   /* Check the parameters */
 452:lib/src/stm32f10x_usart.c ****   assert_param(IS_USART_ALL_PERIPH(USARTx));
 453:lib/src/stm32f10x_usart.c ****   assert_param(IS_USART_DMAREQ(USART_DMAReq));  
 454:lib/src/stm32f10x_usart.c ****   assert_param(IS_FUNCTIONAL_STATE(NewState)); 
 455:lib/src/stm32f10x_usart.c ****   if (NewState != DISABLE)
 522              		.loc 1 455 0
 523 01f2 2AB9     		cbnz	r2, .L46
 456:lib/src/stm32f10x_usart.c ****   {
 457:lib/src/stm32f10x_usart.c ****     /* Enable the DMA transfer for selected requests by setting the DMAT and/or
 458:lib/src/stm32f10x_usart.c ****        DMAR bits in the USART CR3 register */
 459:lib/src/stm32f10x_usart.c ****     USARTx->CR3 |= USART_DMAReq;
 460:lib/src/stm32f10x_usart.c ****   }
 461:lib/src/stm32f10x_usart.c ****   else
 462:lib/src/stm32f10x_usart.c ****   {
 463:lib/src/stm32f10x_usart.c ****     /* Disable the DMA transfer for selected requests by clearing the DMAT and/or
 464:lib/src/stm32f10x_usart.c ****        DMAR bits in the USART CR3 register */
 465:lib/src/stm32f10x_usart.c ****     USARTx->CR3 &= (uint16_t)~USART_DMAReq;
 524              		.loc 1 465 0
 525 01f4 838A     		ldrh	r3, [r0, #20]
 526 01f6 9BB2     		uxth	r3, r3
 527 01f8 23EA0101 		bic	r1, r3, r1
 528              	.LVL73:
 529 01fc 8182     		strh	r1, [r0, #20]	@ movhi
 530 01fe 7047     		bx	lr
 531              	.LVL74:
 532              	.L46:
 459:lib/src/stm32f10x_usart.c ****   }
 533              		.loc 1 459 0
 534 0200 838A     		ldrh	r3, [r0, #20]
 535 0202 9BB2     		uxth	r3, r3
 536 0204 1943     		orrs	r1, r1, r3
 537              	.LVL75:
 538 0206 8182     		strh	r1, [r0, #20]	@ movhi
 539 0208 7047     		bx	lr
 540              		.cfi_endproc
 541              	.LFE71:
 542              		.size	USART_DMACmd, .-USART_DMACmd
 543              		.align	1
 544              		.global	USART_SetAddress
 545              		.syntax unified
 546              		.thumb
 547              		.thumb_func
 548              		.fpu softvfp
ARM GAS  /tmp/ccjSVZtz.s 			page 19


 549              		.type	USART_SetAddress, %function
 550              	USART_SetAddress:
 551              	.LFB72:
 466:lib/src/stm32f10x_usart.c ****   }
 467:lib/src/stm32f10x_usart.c **** }
 468:lib/src/stm32f10x_usart.c **** 
 469:lib/src/stm32f10x_usart.c **** /**
 470:lib/src/stm32f10x_usart.c ****   * @brief  Sets the address of the USART node.
 471:lib/src/stm32f10x_usart.c ****   * @param  USARTx: Select the USART or the UART peripheral. 
 472:lib/src/stm32f10x_usart.c ****   *   This parameter can be one of the following values:
 473:lib/src/stm32f10x_usart.c ****   *   USART1, USART2, USART3, UART4 or UART5.
 474:lib/src/stm32f10x_usart.c ****   * @param  USART_Address: Indicates the address of the USART node.
 475:lib/src/stm32f10x_usart.c ****   * @retval None
 476:lib/src/stm32f10x_usart.c ****   */
 477:lib/src/stm32f10x_usart.c **** void USART_SetAddress(USART_TypeDef* USARTx, uint8_t USART_Address)
 478:lib/src/stm32f10x_usart.c **** {
 552              		.loc 1 478 0
 553              		.cfi_startproc
 554              		@ args = 0, pretend = 0, frame = 0
 555              		@ frame_needed = 0, uses_anonymous_args = 0
 556              		@ link register save eliminated.
 557              	.LVL76:
 479:lib/src/stm32f10x_usart.c ****   /* Check the parameters */
 480:lib/src/stm32f10x_usart.c ****   assert_param(IS_USART_ALL_PERIPH(USARTx));
 481:lib/src/stm32f10x_usart.c ****   assert_param(IS_USART_ADDRESS(USART_Address)); 
 482:lib/src/stm32f10x_usart.c ****     
 483:lib/src/stm32f10x_usart.c ****   /* Clear the USART address */
 484:lib/src/stm32f10x_usart.c ****   USARTx->CR2 &= CR2_Address_Mask;
 558              		.loc 1 484 0
 559 020a 038A     		ldrh	r3, [r0, #16]
 560 020c 23F00F03 		bic	r3, r3, #15
 561 0210 1B04     		lsls	r3, r3, #16
 562 0212 1B0C     		lsrs	r3, r3, #16
 563 0214 0382     		strh	r3, [r0, #16]	@ movhi
 485:lib/src/stm32f10x_usart.c ****   /* Set the USART address node */
 486:lib/src/stm32f10x_usart.c ****   USARTx->CR2 |= USART_Address;
 564              		.loc 1 486 0
 565 0216 038A     		ldrh	r3, [r0, #16]
 566 0218 9BB2     		uxth	r3, r3
 567 021a 1943     		orrs	r1, r1, r3
 568              	.LVL77:
 569 021c 0182     		strh	r1, [r0, #16]	@ movhi
 570 021e 7047     		bx	lr
 571              		.cfi_endproc
 572              	.LFE72:
 573              		.size	USART_SetAddress, .-USART_SetAddress
 574              		.align	1
 575              		.global	USART_WakeUpConfig
 576              		.syntax unified
 577              		.thumb
 578              		.thumb_func
 579              		.fpu softvfp
 580              		.type	USART_WakeUpConfig, %function
 581              	USART_WakeUpConfig:
 582              	.LFB73:
 487:lib/src/stm32f10x_usart.c **** }
 488:lib/src/stm32f10x_usart.c **** 
ARM GAS  /tmp/ccjSVZtz.s 			page 20


 489:lib/src/stm32f10x_usart.c **** /**
 490:lib/src/stm32f10x_usart.c ****   * @brief  Selects the USART WakeUp method.
 491:lib/src/stm32f10x_usart.c ****   * @param  USARTx: Select the USART or the UART peripheral. 
 492:lib/src/stm32f10x_usart.c ****   *   This parameter can be one of the following values:
 493:lib/src/stm32f10x_usart.c ****   *   USART1, USART2, USART3, UART4 or UART5.
 494:lib/src/stm32f10x_usart.c ****   * @param  USART_WakeUp: specifies the USART wakeup method.
 495:lib/src/stm32f10x_usart.c ****   *   This parameter can be one of the following values:
 496:lib/src/stm32f10x_usart.c ****   *     @arg USART_WakeUp_IdleLine: WakeUp by an idle line detection
 497:lib/src/stm32f10x_usart.c ****   *     @arg USART_WakeUp_AddressMark: WakeUp by an address mark
 498:lib/src/stm32f10x_usart.c ****   * @retval None
 499:lib/src/stm32f10x_usart.c ****   */
 500:lib/src/stm32f10x_usart.c **** void USART_WakeUpConfig(USART_TypeDef* USARTx, uint16_t USART_WakeUp)
 501:lib/src/stm32f10x_usart.c **** {
 583              		.loc 1 501 0
 584              		.cfi_startproc
 585              		@ args = 0, pretend = 0, frame = 0
 586              		@ frame_needed = 0, uses_anonymous_args = 0
 587              		@ link register save eliminated.
 588              	.LVL78:
 502:lib/src/stm32f10x_usart.c ****   /* Check the parameters */
 503:lib/src/stm32f10x_usart.c ****   assert_param(IS_USART_ALL_PERIPH(USARTx));
 504:lib/src/stm32f10x_usart.c ****   assert_param(IS_USART_WAKEUP(USART_WakeUp));
 505:lib/src/stm32f10x_usart.c ****   
 506:lib/src/stm32f10x_usart.c ****   USARTx->CR1 &= CR1_WAKE_Mask;
 589              		.loc 1 506 0
 590 0220 8389     		ldrh	r3, [r0, #12]
 591 0222 23F40063 		bic	r3, r3, #2048
 592 0226 1B04     		lsls	r3, r3, #16
 593 0228 1B0C     		lsrs	r3, r3, #16
 594 022a 8381     		strh	r3, [r0, #12]	@ movhi
 507:lib/src/stm32f10x_usart.c ****   USARTx->CR1 |= USART_WakeUp;
 595              		.loc 1 507 0
 596 022c 8389     		ldrh	r3, [r0, #12]
 597 022e 9BB2     		uxth	r3, r3
 598 0230 1943     		orrs	r1, r1, r3
 599              	.LVL79:
 600 0232 8181     		strh	r1, [r0, #12]	@ movhi
 601 0234 7047     		bx	lr
 602              		.cfi_endproc
 603              	.LFE73:
 604              		.size	USART_WakeUpConfig, .-USART_WakeUpConfig
 605              		.align	1
 606              		.global	USART_ReceiverWakeUpCmd
 607              		.syntax unified
 608              		.thumb
 609              		.thumb_func
 610              		.fpu softvfp
 611              		.type	USART_ReceiverWakeUpCmd, %function
 612              	USART_ReceiverWakeUpCmd:
 613              	.LFB74:
 508:lib/src/stm32f10x_usart.c **** }
 509:lib/src/stm32f10x_usart.c **** 
 510:lib/src/stm32f10x_usart.c **** /**
 511:lib/src/stm32f10x_usart.c ****   * @brief  Determines if the USART is in mute mode or not.
 512:lib/src/stm32f10x_usart.c ****   * @param  USARTx: Select the USART or the UART peripheral. 
 513:lib/src/stm32f10x_usart.c ****   *   This parameter can be one of the following values:
 514:lib/src/stm32f10x_usart.c ****   *   USART1, USART2, USART3, UART4 or UART5.
ARM GAS  /tmp/ccjSVZtz.s 			page 21


 515:lib/src/stm32f10x_usart.c ****   * @param  NewState: new state of the USART mute mode.
 516:lib/src/stm32f10x_usart.c ****   *   This parameter can be: ENABLE or DISABLE.
 517:lib/src/stm32f10x_usart.c ****   * @retval None
 518:lib/src/stm32f10x_usart.c ****   */
 519:lib/src/stm32f10x_usart.c **** void USART_ReceiverWakeUpCmd(USART_TypeDef* USARTx, FunctionalState NewState)
 520:lib/src/stm32f10x_usart.c **** {
 614              		.loc 1 520 0
 615              		.cfi_startproc
 616              		@ args = 0, pretend = 0, frame = 0
 617              		@ frame_needed = 0, uses_anonymous_args = 0
 618              		@ link register save eliminated.
 619              	.LVL80:
 521:lib/src/stm32f10x_usart.c ****   /* Check the parameters */
 522:lib/src/stm32f10x_usart.c ****   assert_param(IS_USART_ALL_PERIPH(USARTx));
 523:lib/src/stm32f10x_usart.c ****   assert_param(IS_FUNCTIONAL_STATE(NewState)); 
 524:lib/src/stm32f10x_usart.c ****   
 525:lib/src/stm32f10x_usart.c ****   if (NewState != DISABLE)
 620              		.loc 1 525 0
 621 0236 31B9     		cbnz	r1, .L52
 526:lib/src/stm32f10x_usart.c ****   {
 527:lib/src/stm32f10x_usart.c ****     /* Enable the USART mute mode  by setting the RWU bit in the CR1 register */
 528:lib/src/stm32f10x_usart.c ****     USARTx->CR1 |= CR1_RWU_Set;
 529:lib/src/stm32f10x_usart.c ****   }
 530:lib/src/stm32f10x_usart.c ****   else
 531:lib/src/stm32f10x_usart.c ****   {
 532:lib/src/stm32f10x_usart.c ****     /* Disable the USART mute mode by clearing the RWU bit in the CR1 register */
 533:lib/src/stm32f10x_usart.c ****     USARTx->CR1 &= CR1_RWU_Reset;
 622              		.loc 1 533 0
 623 0238 8389     		ldrh	r3, [r0, #12]
 624 023a 23F00203 		bic	r3, r3, #2
 625 023e 1B04     		lsls	r3, r3, #16
 626 0240 1B0C     		lsrs	r3, r3, #16
 627 0242 8381     		strh	r3, [r0, #12]	@ movhi
 628 0244 7047     		bx	lr
 629              	.L52:
 528:lib/src/stm32f10x_usart.c ****   }
 630              		.loc 1 528 0
 631 0246 8389     		ldrh	r3, [r0, #12]
 632 0248 9BB2     		uxth	r3, r3
 633 024a 43F00203 		orr	r3, r3, #2
 634 024e 8381     		strh	r3, [r0, #12]	@ movhi
 635 0250 7047     		bx	lr
 636              		.cfi_endproc
 637              	.LFE74:
 638              		.size	USART_ReceiverWakeUpCmd, .-USART_ReceiverWakeUpCmd
 639              		.align	1
 640              		.global	USART_LINBreakDetectLengthConfig
 641              		.syntax unified
 642              		.thumb
 643              		.thumb_func
 644              		.fpu softvfp
 645              		.type	USART_LINBreakDetectLengthConfig, %function
 646              	USART_LINBreakDetectLengthConfig:
 647              	.LFB75:
 534:lib/src/stm32f10x_usart.c ****   }
 535:lib/src/stm32f10x_usart.c **** }
 536:lib/src/stm32f10x_usart.c **** 
ARM GAS  /tmp/ccjSVZtz.s 			page 22


 537:lib/src/stm32f10x_usart.c **** /**
 538:lib/src/stm32f10x_usart.c ****   * @brief  Sets the USART LIN Break detection length.
 539:lib/src/stm32f10x_usart.c ****   * @param  USARTx: Select the USART or the UART peripheral. 
 540:lib/src/stm32f10x_usart.c ****   *   This parameter can be one of the following values:
 541:lib/src/stm32f10x_usart.c ****   *   USART1, USART2, USART3, UART4 or UART5.
 542:lib/src/stm32f10x_usart.c ****   * @param  USART_LINBreakDetectLength: specifies the LIN break detection length.
 543:lib/src/stm32f10x_usart.c ****   *   This parameter can be one of the following values:
 544:lib/src/stm32f10x_usart.c ****   *     @arg USART_LINBreakDetectLength_10b: 10-bit break detection
 545:lib/src/stm32f10x_usart.c ****   *     @arg USART_LINBreakDetectLength_11b: 11-bit break detection
 546:lib/src/stm32f10x_usart.c ****   * @retval None
 547:lib/src/stm32f10x_usart.c ****   */
 548:lib/src/stm32f10x_usart.c **** void USART_LINBreakDetectLengthConfig(USART_TypeDef* USARTx, uint16_t USART_LINBreakDetectLength)
 549:lib/src/stm32f10x_usart.c **** {
 648              		.loc 1 549 0
 649              		.cfi_startproc
 650              		@ args = 0, pretend = 0, frame = 0
 651              		@ frame_needed = 0, uses_anonymous_args = 0
 652              		@ link register save eliminated.
 653              	.LVL81:
 550:lib/src/stm32f10x_usart.c ****   /* Check the parameters */
 551:lib/src/stm32f10x_usart.c ****   assert_param(IS_USART_ALL_PERIPH(USARTx));
 552:lib/src/stm32f10x_usart.c ****   assert_param(IS_USART_LIN_BREAK_DETECT_LENGTH(USART_LINBreakDetectLength));
 553:lib/src/stm32f10x_usart.c ****   
 554:lib/src/stm32f10x_usart.c ****   USARTx->CR2 &= CR2_LBDL_Mask;
 654              		.loc 1 554 0
 655 0252 038A     		ldrh	r3, [r0, #16]
 656 0254 23F02003 		bic	r3, r3, #32
 657 0258 1B04     		lsls	r3, r3, #16
 658 025a 1B0C     		lsrs	r3, r3, #16
 659 025c 0382     		strh	r3, [r0, #16]	@ movhi
 555:lib/src/stm32f10x_usart.c ****   USARTx->CR2 |= USART_LINBreakDetectLength;  
 660              		.loc 1 555 0
 661 025e 038A     		ldrh	r3, [r0, #16]
 662 0260 9BB2     		uxth	r3, r3
 663 0262 1943     		orrs	r1, r1, r3
 664              	.LVL82:
 665 0264 0182     		strh	r1, [r0, #16]	@ movhi
 666 0266 7047     		bx	lr
 667              		.cfi_endproc
 668              	.LFE75:
 669              		.size	USART_LINBreakDetectLengthConfig, .-USART_LINBreakDetectLengthConfig
 670              		.align	1
 671              		.global	USART_LINCmd
 672              		.syntax unified
 673              		.thumb
 674              		.thumb_func
 675              		.fpu softvfp
 676              		.type	USART_LINCmd, %function
 677              	USART_LINCmd:
 678              	.LFB76:
 556:lib/src/stm32f10x_usart.c **** }
 557:lib/src/stm32f10x_usart.c **** 
 558:lib/src/stm32f10x_usart.c **** /**
 559:lib/src/stm32f10x_usart.c ****   * @brief  Enables or disables the USARTs LIN mode.
 560:lib/src/stm32f10x_usart.c ****   * @param  USARTx: Select the USART or the UART peripheral. 
 561:lib/src/stm32f10x_usart.c ****   *   This parameter can be one of the following values:
 562:lib/src/stm32f10x_usart.c ****   *   USART1, USART2, USART3, UART4 or UART5.
ARM GAS  /tmp/ccjSVZtz.s 			page 23


 563:lib/src/stm32f10x_usart.c ****   * @param  NewState: new state of the USART LIN mode.
 564:lib/src/stm32f10x_usart.c ****   *   This parameter can be: ENABLE or DISABLE.
 565:lib/src/stm32f10x_usart.c ****   * @retval None
 566:lib/src/stm32f10x_usart.c ****   */
 567:lib/src/stm32f10x_usart.c **** void USART_LINCmd(USART_TypeDef* USARTx, FunctionalState NewState)
 568:lib/src/stm32f10x_usart.c **** {
 679              		.loc 1 568 0
 680              		.cfi_startproc
 681              		@ args = 0, pretend = 0, frame = 0
 682              		@ frame_needed = 0, uses_anonymous_args = 0
 683              		@ link register save eliminated.
 684              	.LVL83:
 569:lib/src/stm32f10x_usart.c ****   /* Check the parameters */
 570:lib/src/stm32f10x_usart.c ****   assert_param(IS_USART_ALL_PERIPH(USARTx));
 571:lib/src/stm32f10x_usart.c ****   assert_param(IS_FUNCTIONAL_STATE(NewState));
 572:lib/src/stm32f10x_usart.c ****   
 573:lib/src/stm32f10x_usart.c ****   if (NewState != DISABLE)
 685              		.loc 1 573 0
 686 0268 31B9     		cbnz	r1, .L57
 574:lib/src/stm32f10x_usart.c ****   {
 575:lib/src/stm32f10x_usart.c ****     /* Enable the LIN mode by setting the LINEN bit in the CR2 register */
 576:lib/src/stm32f10x_usart.c ****     USARTx->CR2 |= CR2_LINEN_Set;
 577:lib/src/stm32f10x_usart.c ****   }
 578:lib/src/stm32f10x_usart.c ****   else
 579:lib/src/stm32f10x_usart.c ****   {
 580:lib/src/stm32f10x_usart.c ****     /* Disable the LIN mode by clearing the LINEN bit in the CR2 register */
 581:lib/src/stm32f10x_usart.c ****     USARTx->CR2 &= CR2_LINEN_Reset;
 687              		.loc 1 581 0
 688 026a 038A     		ldrh	r3, [r0, #16]
 689 026c 23F48043 		bic	r3, r3, #16384
 690 0270 1B04     		lsls	r3, r3, #16
 691 0272 1B0C     		lsrs	r3, r3, #16
 692 0274 0382     		strh	r3, [r0, #16]	@ movhi
 693 0276 7047     		bx	lr
 694              	.L57:
 576:lib/src/stm32f10x_usart.c ****   }
 695              		.loc 1 576 0
 696 0278 038A     		ldrh	r3, [r0, #16]
 697 027a 9BB2     		uxth	r3, r3
 698 027c 43F48043 		orr	r3, r3, #16384
 699 0280 0382     		strh	r3, [r0, #16]	@ movhi
 700 0282 7047     		bx	lr
 701              		.cfi_endproc
 702              	.LFE76:
 703              		.size	USART_LINCmd, .-USART_LINCmd
 704              		.align	1
 705              		.global	USART_SendData
 706              		.syntax unified
 707              		.thumb
 708              		.thumb_func
 709              		.fpu softvfp
 710              		.type	USART_SendData, %function
 711              	USART_SendData:
 712              	.LFB77:
 582:lib/src/stm32f10x_usart.c ****   }
 583:lib/src/stm32f10x_usart.c **** }
 584:lib/src/stm32f10x_usart.c **** 
ARM GAS  /tmp/ccjSVZtz.s 			page 24


 585:lib/src/stm32f10x_usart.c **** /**
 586:lib/src/stm32f10x_usart.c ****   * @brief  Transmits single data through the USARTx peripheral.
 587:lib/src/stm32f10x_usart.c ****   * @param  USARTx: Select the USART or the UART peripheral. 
 588:lib/src/stm32f10x_usart.c ****   *   This parameter can be one of the following values:
 589:lib/src/stm32f10x_usart.c ****   *   USART1, USART2, USART3, UART4 or UART5.
 590:lib/src/stm32f10x_usart.c ****   * @param  Data: the data to transmit.
 591:lib/src/stm32f10x_usart.c ****   * @retval None
 592:lib/src/stm32f10x_usart.c ****   */
 593:lib/src/stm32f10x_usart.c **** void USART_SendData(USART_TypeDef* USARTx, uint16_t Data)
 594:lib/src/stm32f10x_usart.c **** {
 713              		.loc 1 594 0
 714              		.cfi_startproc
 715              		@ args = 0, pretend = 0, frame = 0
 716              		@ frame_needed = 0, uses_anonymous_args = 0
 717              		@ link register save eliminated.
 718              	.LVL84:
 595:lib/src/stm32f10x_usart.c ****   /* Check the parameters */
 596:lib/src/stm32f10x_usart.c ****   assert_param(IS_USART_ALL_PERIPH(USARTx));
 597:lib/src/stm32f10x_usart.c ****   assert_param(IS_USART_DATA(Data)); 
 598:lib/src/stm32f10x_usart.c ****     
 599:lib/src/stm32f10x_usart.c ****   /* Transmit Data */
 600:lib/src/stm32f10x_usart.c ****   USARTx->DR = (Data & (uint16_t)0x01FF);
 719              		.loc 1 600 0
 720 0284 C1F30801 		ubfx	r1, r1, #0, #9
 721              	.LVL85:
 722 0288 8180     		strh	r1, [r0, #4]	@ movhi
 723 028a 7047     		bx	lr
 724              		.cfi_endproc
 725              	.LFE77:
 726              		.size	USART_SendData, .-USART_SendData
 727              		.align	1
 728              		.global	USART_ReceiveData
 729              		.syntax unified
 730              		.thumb
 731              		.thumb_func
 732              		.fpu softvfp
 733              		.type	USART_ReceiveData, %function
 734              	USART_ReceiveData:
 735              	.LFB78:
 601:lib/src/stm32f10x_usart.c **** }
 602:lib/src/stm32f10x_usart.c **** 
 603:lib/src/stm32f10x_usart.c **** /**
 604:lib/src/stm32f10x_usart.c ****   * @brief  Returns the most recent received data by the USARTx peripheral.
 605:lib/src/stm32f10x_usart.c ****   * @param  USARTx: Select the USART or the UART peripheral. 
 606:lib/src/stm32f10x_usart.c ****   *   This parameter can be one of the following values:
 607:lib/src/stm32f10x_usart.c ****   *   USART1, USART2, USART3, UART4 or UART5.
 608:lib/src/stm32f10x_usart.c ****   * @retval The received data.
 609:lib/src/stm32f10x_usart.c ****   */
 610:lib/src/stm32f10x_usart.c **** uint16_t USART_ReceiveData(USART_TypeDef* USARTx)
 611:lib/src/stm32f10x_usart.c **** {
 736              		.loc 1 611 0
 737              		.cfi_startproc
 738              		@ args = 0, pretend = 0, frame = 0
 739              		@ frame_needed = 0, uses_anonymous_args = 0
 740              		@ link register save eliminated.
 741              	.LVL86:
 612:lib/src/stm32f10x_usart.c ****   /* Check the parameters */
ARM GAS  /tmp/ccjSVZtz.s 			page 25


 613:lib/src/stm32f10x_usart.c ****   assert_param(IS_USART_ALL_PERIPH(USARTx));
 614:lib/src/stm32f10x_usart.c ****   
 615:lib/src/stm32f10x_usart.c ****   /* Receive Data */
 616:lib/src/stm32f10x_usart.c ****   return (uint16_t)(USARTx->DR & (uint16_t)0x01FF);
 742              		.loc 1 616 0
 743 028c 8088     		ldrh	r0, [r0, #4]
 744              	.LVL87:
 617:lib/src/stm32f10x_usart.c **** }
 745              		.loc 1 617 0
 746 028e C0F30800 		ubfx	r0, r0, #0, #9
 747 0292 7047     		bx	lr
 748              		.cfi_endproc
 749              	.LFE78:
 750              		.size	USART_ReceiveData, .-USART_ReceiveData
 751              		.align	1
 752              		.global	USART_SendBreak
 753              		.syntax unified
 754              		.thumb
 755              		.thumb_func
 756              		.fpu softvfp
 757              		.type	USART_SendBreak, %function
 758              	USART_SendBreak:
 759              	.LFB79:
 618:lib/src/stm32f10x_usart.c **** 
 619:lib/src/stm32f10x_usart.c **** /**
 620:lib/src/stm32f10x_usart.c ****   * @brief  Transmits break characters.
 621:lib/src/stm32f10x_usart.c ****   * @param  USARTx: Select the USART or the UART peripheral. 
 622:lib/src/stm32f10x_usart.c ****   *   This parameter can be one of the following values:
 623:lib/src/stm32f10x_usart.c ****   *   USART1, USART2, USART3, UART4 or UART5.
 624:lib/src/stm32f10x_usart.c ****   * @retval None
 625:lib/src/stm32f10x_usart.c ****   */
 626:lib/src/stm32f10x_usart.c **** void USART_SendBreak(USART_TypeDef* USARTx)
 627:lib/src/stm32f10x_usart.c **** {
 760              		.loc 1 627 0
 761              		.cfi_startproc
 762              		@ args = 0, pretend = 0, frame = 0
 763              		@ frame_needed = 0, uses_anonymous_args = 0
 764              		@ link register save eliminated.
 765              	.LVL88:
 628:lib/src/stm32f10x_usart.c ****   /* Check the parameters */
 629:lib/src/stm32f10x_usart.c ****   assert_param(IS_USART_ALL_PERIPH(USARTx));
 630:lib/src/stm32f10x_usart.c ****   
 631:lib/src/stm32f10x_usart.c ****   /* Send break characters */
 632:lib/src/stm32f10x_usart.c ****   USARTx->CR1 |= CR1_SBK_Set;
 766              		.loc 1 632 0
 767 0294 8389     		ldrh	r3, [r0, #12]
 768 0296 9BB2     		uxth	r3, r3
 769 0298 43F00103 		orr	r3, r3, #1
 770 029c 8381     		strh	r3, [r0, #12]	@ movhi
 771 029e 7047     		bx	lr
 772              		.cfi_endproc
 773              	.LFE79:
 774              		.size	USART_SendBreak, .-USART_SendBreak
 775              		.align	1
 776              		.global	USART_SetGuardTime
 777              		.syntax unified
 778              		.thumb
ARM GAS  /tmp/ccjSVZtz.s 			page 26


 779              		.thumb_func
 780              		.fpu softvfp
 781              		.type	USART_SetGuardTime, %function
 782              	USART_SetGuardTime:
 783              	.LFB80:
 633:lib/src/stm32f10x_usart.c **** }
 634:lib/src/stm32f10x_usart.c **** 
 635:lib/src/stm32f10x_usart.c **** /**
 636:lib/src/stm32f10x_usart.c ****   * @brief  Sets the specified USART guard time.
 637:lib/src/stm32f10x_usart.c ****   * @param  USARTx: where x can be 1, 2 or 3 to select the USART peripheral.
 638:lib/src/stm32f10x_usart.c ****   * @param  USART_GuardTime: specifies the guard time.
 639:lib/src/stm32f10x_usart.c ****   * @note The guard time bits are not available for UART4 and UART5.   
 640:lib/src/stm32f10x_usart.c ****   * @retval None
 641:lib/src/stm32f10x_usart.c ****   */
 642:lib/src/stm32f10x_usart.c **** void USART_SetGuardTime(USART_TypeDef* USARTx, uint8_t USART_GuardTime)
 643:lib/src/stm32f10x_usart.c **** {    
 784              		.loc 1 643 0
 785              		.cfi_startproc
 786              		@ args = 0, pretend = 0, frame = 0
 787              		@ frame_needed = 0, uses_anonymous_args = 0
 788              		@ link register save eliminated.
 789              	.LVL89:
 644:lib/src/stm32f10x_usart.c ****   /* Check the parameters */
 645:lib/src/stm32f10x_usart.c ****   assert_param(IS_USART_123_PERIPH(USARTx));
 646:lib/src/stm32f10x_usart.c ****   
 647:lib/src/stm32f10x_usart.c ****   /* Clear the USART Guard time */
 648:lib/src/stm32f10x_usart.c ****   USARTx->GTPR &= GTPR_LSB_Mask;
 790              		.loc 1 648 0
 791 02a0 038B     		ldrh	r3, [r0, #24]
 792 02a2 DBB2     		uxtb	r3, r3
 793 02a4 0383     		strh	r3, [r0, #24]	@ movhi
 649:lib/src/stm32f10x_usart.c ****   /* Set the USART guard time */
 650:lib/src/stm32f10x_usart.c ****   USARTx->GTPR |= (uint16_t)((uint16_t)USART_GuardTime << 0x08);
 794              		.loc 1 650 0
 795 02a6 038B     		ldrh	r3, [r0, #24]
 796 02a8 9BB2     		uxth	r3, r3
 797 02aa 43EA0121 		orr	r1, r3, r1, lsl #8
 798              	.LVL90:
 799 02ae 0183     		strh	r1, [r0, #24]	@ movhi
 800 02b0 7047     		bx	lr
 801              		.cfi_endproc
 802              	.LFE80:
 803              		.size	USART_SetGuardTime, .-USART_SetGuardTime
 804              		.align	1
 805              		.global	USART_SetPrescaler
 806              		.syntax unified
 807              		.thumb
 808              		.thumb_func
 809              		.fpu softvfp
 810              		.type	USART_SetPrescaler, %function
 811              	USART_SetPrescaler:
 812              	.LFB81:
 651:lib/src/stm32f10x_usart.c **** }
 652:lib/src/stm32f10x_usart.c **** 
 653:lib/src/stm32f10x_usart.c **** /**
 654:lib/src/stm32f10x_usart.c ****   * @brief  Sets the system clock prescaler.
 655:lib/src/stm32f10x_usart.c ****   * @param  USARTx: Select the USART or the UART peripheral. 
ARM GAS  /tmp/ccjSVZtz.s 			page 27


 656:lib/src/stm32f10x_usart.c ****   *   This parameter can be one of the following values:
 657:lib/src/stm32f10x_usart.c ****   *   USART1, USART2, USART3, UART4 or UART5.
 658:lib/src/stm32f10x_usart.c ****   * @param  USART_Prescaler: specifies the prescaler clock.  
 659:lib/src/stm32f10x_usart.c ****   * @note   The function is used for IrDA mode with UART4 and UART5.
 660:lib/src/stm32f10x_usart.c ****   * @retval None
 661:lib/src/stm32f10x_usart.c ****   */
 662:lib/src/stm32f10x_usart.c **** void USART_SetPrescaler(USART_TypeDef* USARTx, uint8_t USART_Prescaler)
 663:lib/src/stm32f10x_usart.c **** { 
 813              		.loc 1 663 0
 814              		.cfi_startproc
 815              		@ args = 0, pretend = 0, frame = 0
 816              		@ frame_needed = 0, uses_anonymous_args = 0
 817              		@ link register save eliminated.
 818              	.LVL91:
 664:lib/src/stm32f10x_usart.c ****   /* Check the parameters */
 665:lib/src/stm32f10x_usart.c ****   assert_param(IS_USART_ALL_PERIPH(USARTx));
 666:lib/src/stm32f10x_usart.c ****   
 667:lib/src/stm32f10x_usart.c ****   /* Clear the USART prescaler */
 668:lib/src/stm32f10x_usart.c ****   USARTx->GTPR &= GTPR_MSB_Mask;
 819              		.loc 1 668 0
 820 02b2 038B     		ldrh	r3, [r0, #24]
 821 02b4 03F47F43 		and	r3, r3, #65280
 822 02b8 0383     		strh	r3, [r0, #24]	@ movhi
 669:lib/src/stm32f10x_usart.c ****   /* Set the USART prescaler */
 670:lib/src/stm32f10x_usart.c ****   USARTx->GTPR |= USART_Prescaler;
 823              		.loc 1 670 0
 824 02ba 038B     		ldrh	r3, [r0, #24]
 825 02bc 9BB2     		uxth	r3, r3
 826 02be 1943     		orrs	r1, r1, r3
 827              	.LVL92:
 828 02c0 0183     		strh	r1, [r0, #24]	@ movhi
 829 02c2 7047     		bx	lr
 830              		.cfi_endproc
 831              	.LFE81:
 832              		.size	USART_SetPrescaler, .-USART_SetPrescaler
 833              		.align	1
 834              		.global	USART_SmartCardCmd
 835              		.syntax unified
 836              		.thumb
 837              		.thumb_func
 838              		.fpu softvfp
 839              		.type	USART_SmartCardCmd, %function
 840              	USART_SmartCardCmd:
 841              	.LFB82:
 671:lib/src/stm32f10x_usart.c **** }
 672:lib/src/stm32f10x_usart.c **** 
 673:lib/src/stm32f10x_usart.c **** /**
 674:lib/src/stm32f10x_usart.c ****   * @brief  Enables or disables the USARTs Smart Card mode.
 675:lib/src/stm32f10x_usart.c ****   * @param  USARTx: where x can be 1, 2 or 3 to select the USART peripheral.
 676:lib/src/stm32f10x_usart.c ****   * @param  NewState: new state of the Smart Card mode.
 677:lib/src/stm32f10x_usart.c ****   *   This parameter can be: ENABLE or DISABLE.     
 678:lib/src/stm32f10x_usart.c ****   * @note The Smart Card mode is not available for UART4 and UART5. 
 679:lib/src/stm32f10x_usart.c ****   * @retval None
 680:lib/src/stm32f10x_usart.c ****   */
 681:lib/src/stm32f10x_usart.c **** void USART_SmartCardCmd(USART_TypeDef* USARTx, FunctionalState NewState)
 682:lib/src/stm32f10x_usart.c **** {
 842              		.loc 1 682 0
ARM GAS  /tmp/ccjSVZtz.s 			page 28


 843              		.cfi_startproc
 844              		@ args = 0, pretend = 0, frame = 0
 845              		@ frame_needed = 0, uses_anonymous_args = 0
 846              		@ link register save eliminated.
 847              	.LVL93:
 683:lib/src/stm32f10x_usart.c ****   /* Check the parameters */
 684:lib/src/stm32f10x_usart.c ****   assert_param(IS_USART_123_PERIPH(USARTx));
 685:lib/src/stm32f10x_usart.c ****   assert_param(IS_FUNCTIONAL_STATE(NewState));
 686:lib/src/stm32f10x_usart.c ****   if (NewState != DISABLE)
 848              		.loc 1 686 0
 849 02c4 31B9     		cbnz	r1, .L66
 687:lib/src/stm32f10x_usart.c ****   {
 688:lib/src/stm32f10x_usart.c ****     /* Enable the SC mode by setting the SCEN bit in the CR3 register */
 689:lib/src/stm32f10x_usart.c ****     USARTx->CR3 |= CR3_SCEN_Set;
 690:lib/src/stm32f10x_usart.c ****   }
 691:lib/src/stm32f10x_usart.c ****   else
 692:lib/src/stm32f10x_usart.c ****   {
 693:lib/src/stm32f10x_usart.c ****     /* Disable the SC mode by clearing the SCEN bit in the CR3 register */
 694:lib/src/stm32f10x_usart.c ****     USARTx->CR3 &= CR3_SCEN_Reset;
 850              		.loc 1 694 0
 851 02c6 838A     		ldrh	r3, [r0, #20]
 852 02c8 23F02003 		bic	r3, r3, #32
 853 02cc 1B04     		lsls	r3, r3, #16
 854 02ce 1B0C     		lsrs	r3, r3, #16
 855 02d0 8382     		strh	r3, [r0, #20]	@ movhi
 856 02d2 7047     		bx	lr
 857              	.L66:
 689:lib/src/stm32f10x_usart.c ****   }
 858              		.loc 1 689 0
 859 02d4 838A     		ldrh	r3, [r0, #20]
 860 02d6 9BB2     		uxth	r3, r3
 861 02d8 43F02003 		orr	r3, r3, #32
 862 02dc 8382     		strh	r3, [r0, #20]	@ movhi
 863 02de 7047     		bx	lr
 864              		.cfi_endproc
 865              	.LFE82:
 866              		.size	USART_SmartCardCmd, .-USART_SmartCardCmd
 867              		.align	1
 868              		.global	USART_SmartCardNACKCmd
 869              		.syntax unified
 870              		.thumb
 871              		.thumb_func
 872              		.fpu softvfp
 873              		.type	USART_SmartCardNACKCmd, %function
 874              	USART_SmartCardNACKCmd:
 875              	.LFB83:
 695:lib/src/stm32f10x_usart.c ****   }
 696:lib/src/stm32f10x_usart.c **** }
 697:lib/src/stm32f10x_usart.c **** 
 698:lib/src/stm32f10x_usart.c **** /**
 699:lib/src/stm32f10x_usart.c ****   * @brief  Enables or disables NACK transmission.
 700:lib/src/stm32f10x_usart.c ****   * @param  USARTx: where x can be 1, 2 or 3 to select the USART peripheral. 
 701:lib/src/stm32f10x_usart.c ****   * @param  NewState: new state of the NACK transmission.
 702:lib/src/stm32f10x_usart.c ****   *   This parameter can be: ENABLE or DISABLE.  
 703:lib/src/stm32f10x_usart.c ****   * @note The Smart Card mode is not available for UART4 and UART5.
 704:lib/src/stm32f10x_usart.c ****   * @retval None
 705:lib/src/stm32f10x_usart.c ****   */
ARM GAS  /tmp/ccjSVZtz.s 			page 29


 706:lib/src/stm32f10x_usart.c **** void USART_SmartCardNACKCmd(USART_TypeDef* USARTx, FunctionalState NewState)
 707:lib/src/stm32f10x_usart.c **** {
 876              		.loc 1 707 0
 877              		.cfi_startproc
 878              		@ args = 0, pretend = 0, frame = 0
 879              		@ frame_needed = 0, uses_anonymous_args = 0
 880              		@ link register save eliminated.
 881              	.LVL94:
 708:lib/src/stm32f10x_usart.c ****   /* Check the parameters */
 709:lib/src/stm32f10x_usart.c ****   assert_param(IS_USART_123_PERIPH(USARTx));  
 710:lib/src/stm32f10x_usart.c ****   assert_param(IS_FUNCTIONAL_STATE(NewState));
 711:lib/src/stm32f10x_usart.c ****   if (NewState != DISABLE)
 882              		.loc 1 711 0
 883 02e0 31B9     		cbnz	r1, .L70
 712:lib/src/stm32f10x_usart.c ****   {
 713:lib/src/stm32f10x_usart.c ****     /* Enable the NACK transmission by setting the NACK bit in the CR3 register */
 714:lib/src/stm32f10x_usart.c ****     USARTx->CR3 |= CR3_NACK_Set;
 715:lib/src/stm32f10x_usart.c ****   }
 716:lib/src/stm32f10x_usart.c ****   else
 717:lib/src/stm32f10x_usart.c ****   {
 718:lib/src/stm32f10x_usart.c ****     /* Disable the NACK transmission by clearing the NACK bit in the CR3 register */
 719:lib/src/stm32f10x_usart.c ****     USARTx->CR3 &= CR3_NACK_Reset;
 884              		.loc 1 719 0
 885 02e2 838A     		ldrh	r3, [r0, #20]
 886 02e4 23F01003 		bic	r3, r3, #16
 887 02e8 1B04     		lsls	r3, r3, #16
 888 02ea 1B0C     		lsrs	r3, r3, #16
 889 02ec 8382     		strh	r3, [r0, #20]	@ movhi
 890 02ee 7047     		bx	lr
 891              	.L70:
 714:lib/src/stm32f10x_usart.c ****   }
 892              		.loc 1 714 0
 893 02f0 838A     		ldrh	r3, [r0, #20]
 894 02f2 9BB2     		uxth	r3, r3
 895 02f4 43F01003 		orr	r3, r3, #16
 896 02f8 8382     		strh	r3, [r0, #20]	@ movhi
 897 02fa 7047     		bx	lr
 898              		.cfi_endproc
 899              	.LFE83:
 900              		.size	USART_SmartCardNACKCmd, .-USART_SmartCardNACKCmd
 901              		.align	1
 902              		.global	USART_HalfDuplexCmd
 903              		.syntax unified
 904              		.thumb
 905              		.thumb_func
 906              		.fpu softvfp
 907              		.type	USART_HalfDuplexCmd, %function
 908              	USART_HalfDuplexCmd:
 909              	.LFB84:
 720:lib/src/stm32f10x_usart.c ****   }
 721:lib/src/stm32f10x_usart.c **** }
 722:lib/src/stm32f10x_usart.c **** 
 723:lib/src/stm32f10x_usart.c **** /**
 724:lib/src/stm32f10x_usart.c ****   * @brief  Enables or disables the USARTs Half Duplex communication.
 725:lib/src/stm32f10x_usart.c ****   * @param  USARTx: Select the USART or the UART peripheral. 
 726:lib/src/stm32f10x_usart.c ****   *   This parameter can be one of the following values:
 727:lib/src/stm32f10x_usart.c ****   *   USART1, USART2, USART3, UART4 or UART5.
ARM GAS  /tmp/ccjSVZtz.s 			page 30


 728:lib/src/stm32f10x_usart.c ****   * @param  NewState: new state of the USART Communication.
 729:lib/src/stm32f10x_usart.c ****   *   This parameter can be: ENABLE or DISABLE.
 730:lib/src/stm32f10x_usart.c ****   * @retval None
 731:lib/src/stm32f10x_usart.c ****   */
 732:lib/src/stm32f10x_usart.c **** void USART_HalfDuplexCmd(USART_TypeDef* USARTx, FunctionalState NewState)
 733:lib/src/stm32f10x_usart.c **** {
 910              		.loc 1 733 0
 911              		.cfi_startproc
 912              		@ args = 0, pretend = 0, frame = 0
 913              		@ frame_needed = 0, uses_anonymous_args = 0
 914              		@ link register save eliminated.
 915              	.LVL95:
 734:lib/src/stm32f10x_usart.c ****   /* Check the parameters */
 735:lib/src/stm32f10x_usart.c ****   assert_param(IS_USART_ALL_PERIPH(USARTx));
 736:lib/src/stm32f10x_usart.c ****   assert_param(IS_FUNCTIONAL_STATE(NewState));
 737:lib/src/stm32f10x_usart.c ****   
 738:lib/src/stm32f10x_usart.c ****   if (NewState != DISABLE)
 916              		.loc 1 738 0
 917 02fc 31B9     		cbnz	r1, .L74
 739:lib/src/stm32f10x_usart.c ****   {
 740:lib/src/stm32f10x_usart.c ****     /* Enable the Half-Duplex mode by setting the HDSEL bit in the CR3 register */
 741:lib/src/stm32f10x_usart.c ****     USARTx->CR3 |= CR3_HDSEL_Set;
 742:lib/src/stm32f10x_usart.c ****   }
 743:lib/src/stm32f10x_usart.c ****   else
 744:lib/src/stm32f10x_usart.c ****   {
 745:lib/src/stm32f10x_usart.c ****     /* Disable the Half-Duplex mode by clearing the HDSEL bit in the CR3 register */
 746:lib/src/stm32f10x_usart.c ****     USARTx->CR3 &= CR3_HDSEL_Reset;
 918              		.loc 1 746 0
 919 02fe 838A     		ldrh	r3, [r0, #20]
 920 0300 23F00803 		bic	r3, r3, #8
 921 0304 1B04     		lsls	r3, r3, #16
 922 0306 1B0C     		lsrs	r3, r3, #16
 923 0308 8382     		strh	r3, [r0, #20]	@ movhi
 924 030a 7047     		bx	lr
 925              	.L74:
 741:lib/src/stm32f10x_usart.c ****   }
 926              		.loc 1 741 0
 927 030c 838A     		ldrh	r3, [r0, #20]
 928 030e 9BB2     		uxth	r3, r3
 929 0310 43F00803 		orr	r3, r3, #8
 930 0314 8382     		strh	r3, [r0, #20]	@ movhi
 931 0316 7047     		bx	lr
 932              		.cfi_endproc
 933              	.LFE84:
 934              		.size	USART_HalfDuplexCmd, .-USART_HalfDuplexCmd
 935              		.align	1
 936              		.global	USART_OverSampling8Cmd
 937              		.syntax unified
 938              		.thumb
 939              		.thumb_func
 940              		.fpu softvfp
 941              		.type	USART_OverSampling8Cmd, %function
 942              	USART_OverSampling8Cmd:
 943              	.LFB85:
 747:lib/src/stm32f10x_usart.c ****   }
 748:lib/src/stm32f10x_usart.c **** }
 749:lib/src/stm32f10x_usart.c **** 
ARM GAS  /tmp/ccjSVZtz.s 			page 31


 750:lib/src/stm32f10x_usart.c **** 
 751:lib/src/stm32f10x_usart.c **** /**
 752:lib/src/stm32f10x_usart.c ****   * @brief  Enables or disables the USART's 8x oversampling mode.
 753:lib/src/stm32f10x_usart.c ****   * @param  USARTx: Select the USART or the UART peripheral.
 754:lib/src/stm32f10x_usart.c ****   *   This parameter can be one of the following values:
 755:lib/src/stm32f10x_usart.c ****   *   USART1, USART2, USART3, UART4 or UART5.
 756:lib/src/stm32f10x_usart.c ****   * @param  NewState: new state of the USART one bit sampling method.
 757:lib/src/stm32f10x_usart.c ****   *   This parameter can be: ENABLE or DISABLE.
 758:lib/src/stm32f10x_usart.c ****   * @note
 759:lib/src/stm32f10x_usart.c ****   *     This function has to be called before calling USART_Init()
 760:lib/src/stm32f10x_usart.c ****   *     function in order to have correct baudrate Divider value.   
 761:lib/src/stm32f10x_usart.c ****   * @retval None
 762:lib/src/stm32f10x_usart.c ****   */
 763:lib/src/stm32f10x_usart.c **** void USART_OverSampling8Cmd(USART_TypeDef* USARTx, FunctionalState NewState)
 764:lib/src/stm32f10x_usart.c **** {
 944              		.loc 1 764 0
 945              		.cfi_startproc
 946              		@ args = 0, pretend = 0, frame = 0
 947              		@ frame_needed = 0, uses_anonymous_args = 0
 948              		@ link register save eliminated.
 949              	.LVL96:
 765:lib/src/stm32f10x_usart.c ****   /* Check the parameters */
 766:lib/src/stm32f10x_usart.c ****   assert_param(IS_USART_ALL_PERIPH(USARTx));
 767:lib/src/stm32f10x_usart.c ****   assert_param(IS_FUNCTIONAL_STATE(NewState));
 768:lib/src/stm32f10x_usart.c ****   
 769:lib/src/stm32f10x_usart.c ****   if (NewState != DISABLE)
 950              		.loc 1 769 0
 951 0318 21B9     		cbnz	r1, .L78
 770:lib/src/stm32f10x_usart.c ****   {
 771:lib/src/stm32f10x_usart.c ****     /* Enable the 8x Oversampling mode by setting the OVER8 bit in the CR1 register */
 772:lib/src/stm32f10x_usart.c ****     USARTx->CR1 |= CR1_OVER8_Set;
 773:lib/src/stm32f10x_usart.c ****   }
 774:lib/src/stm32f10x_usart.c ****   else
 775:lib/src/stm32f10x_usart.c ****   {
 776:lib/src/stm32f10x_usart.c ****     /* Disable the 8x Oversampling mode by clearing the OVER8 bit in the CR1 register */
 777:lib/src/stm32f10x_usart.c ****     USARTx->CR1 &= CR1_OVER8_Reset;
 952              		.loc 1 777 0
 953 031a 8389     		ldrh	r3, [r0, #12]
 954 031c C3F30E03 		ubfx	r3, r3, #0, #15
 955 0320 8381     		strh	r3, [r0, #12]	@ movhi
 956 0322 7047     		bx	lr
 957              	.L78:
 772:lib/src/stm32f10x_usart.c ****   }
 958              		.loc 1 772 0
 959 0324 8389     		ldrh	r3, [r0, #12]
 960 0326 6FEA4343 		mvn	r3, r3, lsl #17
 961 032a 6FEA5343 		mvn	r3, r3, lsr #17
 962 032e 9BB2     		uxth	r3, r3
 963 0330 8381     		strh	r3, [r0, #12]	@ movhi
 964 0332 7047     		bx	lr
 965              		.cfi_endproc
 966              	.LFE85:
 967              		.size	USART_OverSampling8Cmd, .-USART_OverSampling8Cmd
 968              		.align	1
 969              		.global	USART_OneBitMethodCmd
 970              		.syntax unified
 971              		.thumb
ARM GAS  /tmp/ccjSVZtz.s 			page 32


 972              		.thumb_func
 973              		.fpu softvfp
 974              		.type	USART_OneBitMethodCmd, %function
 975              	USART_OneBitMethodCmd:
 976              	.LFB86:
 778:lib/src/stm32f10x_usart.c ****   }
 779:lib/src/stm32f10x_usart.c **** }
 780:lib/src/stm32f10x_usart.c **** 
 781:lib/src/stm32f10x_usart.c **** /**
 782:lib/src/stm32f10x_usart.c ****   * @brief  Enables or disables the USART's one bit sampling method.
 783:lib/src/stm32f10x_usart.c ****   * @param  USARTx: Select the USART or the UART peripheral.
 784:lib/src/stm32f10x_usart.c ****   *   This parameter can be one of the following values:
 785:lib/src/stm32f10x_usart.c ****   *   USART1, USART2, USART3, UART4 or UART5.
 786:lib/src/stm32f10x_usart.c ****   * @param  NewState: new state of the USART one bit sampling method.
 787:lib/src/stm32f10x_usart.c ****   *   This parameter can be: ENABLE or DISABLE.
 788:lib/src/stm32f10x_usart.c ****   * @retval None
 789:lib/src/stm32f10x_usart.c ****   */
 790:lib/src/stm32f10x_usart.c **** void USART_OneBitMethodCmd(USART_TypeDef* USARTx, FunctionalState NewState)
 791:lib/src/stm32f10x_usart.c **** {
 977              		.loc 1 791 0
 978              		.cfi_startproc
 979              		@ args = 0, pretend = 0, frame = 0
 980              		@ frame_needed = 0, uses_anonymous_args = 0
 981              		@ link register save eliminated.
 982              	.LVL97:
 792:lib/src/stm32f10x_usart.c ****   /* Check the parameters */
 793:lib/src/stm32f10x_usart.c ****   assert_param(IS_USART_ALL_PERIPH(USARTx));
 794:lib/src/stm32f10x_usart.c ****   assert_param(IS_FUNCTIONAL_STATE(NewState));
 795:lib/src/stm32f10x_usart.c ****   
 796:lib/src/stm32f10x_usart.c ****   if (NewState != DISABLE)
 983              		.loc 1 796 0
 984 0334 31B9     		cbnz	r1, .L82
 797:lib/src/stm32f10x_usart.c ****   {
 798:lib/src/stm32f10x_usart.c ****     /* Enable the one bit method by setting the ONEBITE bit in the CR3 register */
 799:lib/src/stm32f10x_usart.c ****     USARTx->CR3 |= CR3_ONEBITE_Set;
 800:lib/src/stm32f10x_usart.c ****   }
 801:lib/src/stm32f10x_usart.c ****   else
 802:lib/src/stm32f10x_usart.c ****   {
 803:lib/src/stm32f10x_usart.c ****     /* Disable tthe one bit method by clearing the ONEBITE bit in the CR3 register */
 804:lib/src/stm32f10x_usart.c ****     USARTx->CR3 &= CR3_ONEBITE_Reset;
 985              		.loc 1 804 0
 986 0336 838A     		ldrh	r3, [r0, #20]
 987 0338 23F40063 		bic	r3, r3, #2048
 988 033c 1B04     		lsls	r3, r3, #16
 989 033e 1B0C     		lsrs	r3, r3, #16
 990 0340 8382     		strh	r3, [r0, #20]	@ movhi
 991 0342 7047     		bx	lr
 992              	.L82:
 799:lib/src/stm32f10x_usart.c ****   }
 993              		.loc 1 799 0
 994 0344 838A     		ldrh	r3, [r0, #20]
 995 0346 9BB2     		uxth	r3, r3
 996 0348 43F40063 		orr	r3, r3, #2048
 997 034c 8382     		strh	r3, [r0, #20]	@ movhi
 998 034e 7047     		bx	lr
 999              		.cfi_endproc
 1000              	.LFE86:
ARM GAS  /tmp/ccjSVZtz.s 			page 33


 1001              		.size	USART_OneBitMethodCmd, .-USART_OneBitMethodCmd
 1002              		.align	1
 1003              		.global	USART_IrDAConfig
 1004              		.syntax unified
 1005              		.thumb
 1006              		.thumb_func
 1007              		.fpu softvfp
 1008              		.type	USART_IrDAConfig, %function
 1009              	USART_IrDAConfig:
 1010              	.LFB87:
 805:lib/src/stm32f10x_usart.c ****   }
 806:lib/src/stm32f10x_usart.c **** }
 807:lib/src/stm32f10x_usart.c **** 
 808:lib/src/stm32f10x_usart.c **** /**
 809:lib/src/stm32f10x_usart.c ****   * @brief  Configures the USART's IrDA interface.
 810:lib/src/stm32f10x_usart.c ****   * @param  USARTx: Select the USART or the UART peripheral. 
 811:lib/src/stm32f10x_usart.c ****   *   This parameter can be one of the following values:
 812:lib/src/stm32f10x_usart.c ****   *   USART1, USART2, USART3, UART4 or UART5.
 813:lib/src/stm32f10x_usart.c ****   * @param  USART_IrDAMode: specifies the IrDA mode.
 814:lib/src/stm32f10x_usart.c ****   *   This parameter can be one of the following values:
 815:lib/src/stm32f10x_usart.c ****   *     @arg USART_IrDAMode_LowPower
 816:lib/src/stm32f10x_usart.c ****   *     @arg USART_IrDAMode_Normal
 817:lib/src/stm32f10x_usart.c ****   * @retval None
 818:lib/src/stm32f10x_usart.c ****   */
 819:lib/src/stm32f10x_usart.c **** void USART_IrDAConfig(USART_TypeDef* USARTx, uint16_t USART_IrDAMode)
 820:lib/src/stm32f10x_usart.c **** {
 1011              		.loc 1 820 0
 1012              		.cfi_startproc
 1013              		@ args = 0, pretend = 0, frame = 0
 1014              		@ frame_needed = 0, uses_anonymous_args = 0
 1015              		@ link register save eliminated.
 1016              	.LVL98:
 821:lib/src/stm32f10x_usart.c ****   /* Check the parameters */
 822:lib/src/stm32f10x_usart.c ****   assert_param(IS_USART_ALL_PERIPH(USARTx));
 823:lib/src/stm32f10x_usart.c ****   assert_param(IS_USART_IRDA_MODE(USART_IrDAMode));
 824:lib/src/stm32f10x_usart.c ****     
 825:lib/src/stm32f10x_usart.c ****   USARTx->CR3 &= CR3_IRLP_Mask;
 1017              		.loc 1 825 0
 1018 0350 838A     		ldrh	r3, [r0, #20]
 1019 0352 23F00403 		bic	r3, r3, #4
 1020 0356 1B04     		lsls	r3, r3, #16
 1021 0358 1B0C     		lsrs	r3, r3, #16
 1022 035a 8382     		strh	r3, [r0, #20]	@ movhi
 826:lib/src/stm32f10x_usart.c ****   USARTx->CR3 |= USART_IrDAMode;
 1023              		.loc 1 826 0
 1024 035c 838A     		ldrh	r3, [r0, #20]
 1025 035e 9BB2     		uxth	r3, r3
 1026 0360 1943     		orrs	r1, r1, r3
 1027              	.LVL99:
 1028 0362 8182     		strh	r1, [r0, #20]	@ movhi
 1029 0364 7047     		bx	lr
 1030              		.cfi_endproc
 1031              	.LFE87:
 1032              		.size	USART_IrDAConfig, .-USART_IrDAConfig
 1033              		.align	1
 1034              		.global	USART_IrDACmd
 1035              		.syntax unified
ARM GAS  /tmp/ccjSVZtz.s 			page 34


 1036              		.thumb
 1037              		.thumb_func
 1038              		.fpu softvfp
 1039              		.type	USART_IrDACmd, %function
 1040              	USART_IrDACmd:
 1041              	.LFB88:
 827:lib/src/stm32f10x_usart.c **** }
 828:lib/src/stm32f10x_usart.c **** 
 829:lib/src/stm32f10x_usart.c **** /**
 830:lib/src/stm32f10x_usart.c ****   * @brief  Enables or disables the USART's IrDA interface.
 831:lib/src/stm32f10x_usart.c ****   * @param  USARTx: Select the USART or the UART peripheral. 
 832:lib/src/stm32f10x_usart.c ****   *   This parameter can be one of the following values:
 833:lib/src/stm32f10x_usart.c ****   *   USART1, USART2, USART3, UART4 or UART5.
 834:lib/src/stm32f10x_usart.c ****   * @param  NewState: new state of the IrDA mode.
 835:lib/src/stm32f10x_usart.c ****   *   This parameter can be: ENABLE or DISABLE.
 836:lib/src/stm32f10x_usart.c ****   * @retval None
 837:lib/src/stm32f10x_usart.c ****   */
 838:lib/src/stm32f10x_usart.c **** void USART_IrDACmd(USART_TypeDef* USARTx, FunctionalState NewState)
 839:lib/src/stm32f10x_usart.c **** {
 1042              		.loc 1 839 0
 1043              		.cfi_startproc
 1044              		@ args = 0, pretend = 0, frame = 0
 1045              		@ frame_needed = 0, uses_anonymous_args = 0
 1046              		@ link register save eliminated.
 1047              	.LVL100:
 840:lib/src/stm32f10x_usart.c ****   /* Check the parameters */
 841:lib/src/stm32f10x_usart.c ****   assert_param(IS_USART_ALL_PERIPH(USARTx));
 842:lib/src/stm32f10x_usart.c ****   assert_param(IS_FUNCTIONAL_STATE(NewState));
 843:lib/src/stm32f10x_usart.c ****     
 844:lib/src/stm32f10x_usart.c ****   if (NewState != DISABLE)
 1048              		.loc 1 844 0
 1049 0366 31B9     		cbnz	r1, .L87
 845:lib/src/stm32f10x_usart.c ****   {
 846:lib/src/stm32f10x_usart.c ****     /* Enable the IrDA mode by setting the IREN bit in the CR3 register */
 847:lib/src/stm32f10x_usart.c ****     USARTx->CR3 |= CR3_IREN_Set;
 848:lib/src/stm32f10x_usart.c ****   }
 849:lib/src/stm32f10x_usart.c ****   else
 850:lib/src/stm32f10x_usart.c ****   {
 851:lib/src/stm32f10x_usart.c ****     /* Disable the IrDA mode by clearing the IREN bit in the CR3 register */
 852:lib/src/stm32f10x_usart.c ****     USARTx->CR3 &= CR3_IREN_Reset;
 1050              		.loc 1 852 0
 1051 0368 838A     		ldrh	r3, [r0, #20]
 1052 036a 23F00203 		bic	r3, r3, #2
 1053 036e 1B04     		lsls	r3, r3, #16
 1054 0370 1B0C     		lsrs	r3, r3, #16
 1055 0372 8382     		strh	r3, [r0, #20]	@ movhi
 1056 0374 7047     		bx	lr
 1057              	.L87:
 847:lib/src/stm32f10x_usart.c ****   }
 1058              		.loc 1 847 0
 1059 0376 838A     		ldrh	r3, [r0, #20]
 1060 0378 9BB2     		uxth	r3, r3
 1061 037a 43F00203 		orr	r3, r3, #2
 1062 037e 8382     		strh	r3, [r0, #20]	@ movhi
 1063 0380 7047     		bx	lr
 1064              		.cfi_endproc
 1065              	.LFE88:
ARM GAS  /tmp/ccjSVZtz.s 			page 35


 1066              		.size	USART_IrDACmd, .-USART_IrDACmd
 1067              		.align	1
 1068              		.global	USART_GetFlagStatus
 1069              		.syntax unified
 1070              		.thumb
 1071              		.thumb_func
 1072              		.fpu softvfp
 1073              		.type	USART_GetFlagStatus, %function
 1074              	USART_GetFlagStatus:
 1075              	.LFB89:
 853:lib/src/stm32f10x_usart.c ****   }
 854:lib/src/stm32f10x_usart.c **** }
 855:lib/src/stm32f10x_usart.c **** 
 856:lib/src/stm32f10x_usart.c **** /**
 857:lib/src/stm32f10x_usart.c ****   * @brief  Checks whether the specified USART flag is set or not.
 858:lib/src/stm32f10x_usart.c ****   * @param  USARTx: Select the USART or the UART peripheral. 
 859:lib/src/stm32f10x_usart.c ****   *   This parameter can be one of the following values:
 860:lib/src/stm32f10x_usart.c ****   *   USART1, USART2, USART3, UART4 or UART5.
 861:lib/src/stm32f10x_usart.c ****   * @param  USART_FLAG: specifies the flag to check.
 862:lib/src/stm32f10x_usart.c ****   *   This parameter can be one of the following values:
 863:lib/src/stm32f10x_usart.c ****   *     @arg USART_FLAG_CTS:  CTS Change flag (not available for UART4 and UART5)
 864:lib/src/stm32f10x_usart.c ****   *     @arg USART_FLAG_LBD:  LIN Break detection flag
 865:lib/src/stm32f10x_usart.c ****   *     @arg USART_FLAG_TXE:  Transmit data register empty flag
 866:lib/src/stm32f10x_usart.c ****   *     @arg USART_FLAG_TC:   Transmission Complete flag
 867:lib/src/stm32f10x_usart.c ****   *     @arg USART_FLAG_RXNE: Receive data register not empty flag
 868:lib/src/stm32f10x_usart.c ****   *     @arg USART_FLAG_IDLE: Idle Line detection flag
 869:lib/src/stm32f10x_usart.c ****   *     @arg USART_FLAG_ORE:  OverRun Error flag
 870:lib/src/stm32f10x_usart.c ****   *     @arg USART_FLAG_NE:   Noise Error flag
 871:lib/src/stm32f10x_usart.c ****   *     @arg USART_FLAG_FE:   Framing Error flag
 872:lib/src/stm32f10x_usart.c ****   *     @arg USART_FLAG_PE:   Parity Error flag
 873:lib/src/stm32f10x_usart.c ****   * @retval The new state of USART_FLAG (SET or RESET).
 874:lib/src/stm32f10x_usart.c ****   */
 875:lib/src/stm32f10x_usart.c **** FlagStatus USART_GetFlagStatus(USART_TypeDef* USARTx, uint16_t USART_FLAG)
 876:lib/src/stm32f10x_usart.c **** {
 1076              		.loc 1 876 0
 1077              		.cfi_startproc
 1078              		@ args = 0, pretend = 0, frame = 0
 1079              		@ frame_needed = 0, uses_anonymous_args = 0
 1080              		@ link register save eliminated.
 1081              	.LVL101:
 877:lib/src/stm32f10x_usart.c ****   FlagStatus bitstatus = RESET;
 878:lib/src/stm32f10x_usart.c ****   /* Check the parameters */
 879:lib/src/stm32f10x_usart.c ****   assert_param(IS_USART_ALL_PERIPH(USARTx));
 880:lib/src/stm32f10x_usart.c ****   assert_param(IS_USART_FLAG(USART_FLAG));
 881:lib/src/stm32f10x_usart.c ****   /* The CTS flag is not available for UART4 and UART5 */
 882:lib/src/stm32f10x_usart.c ****   if (USART_FLAG == USART_FLAG_CTS)
 883:lib/src/stm32f10x_usart.c ****   {
 884:lib/src/stm32f10x_usart.c ****     assert_param(IS_USART_123_PERIPH(USARTx));
 885:lib/src/stm32f10x_usart.c ****   }  
 886:lib/src/stm32f10x_usart.c ****   
 887:lib/src/stm32f10x_usart.c ****   if ((USARTx->SR & USART_FLAG) != (uint16_t)RESET)
 1082              		.loc 1 887 0
 1083 0382 0388     		ldrh	r3, [r0]
 1084              	.LVL102:
 1085 0384 1942     		tst	r1, r3
 888:lib/src/stm32f10x_usart.c ****   {
 889:lib/src/stm32f10x_usart.c ****     bitstatus = SET;
ARM GAS  /tmp/ccjSVZtz.s 			page 36


 890:lib/src/stm32f10x_usart.c ****   }
 891:lib/src/stm32f10x_usart.c ****   else
 892:lib/src/stm32f10x_usart.c ****   {
 893:lib/src/stm32f10x_usart.c ****     bitstatus = RESET;
 894:lib/src/stm32f10x_usart.c ****   }
 895:lib/src/stm32f10x_usart.c ****   return bitstatus;
 896:lib/src/stm32f10x_usart.c **** }
 1086              		.loc 1 896 0
 1087 0386 14BF     		ite	ne
 1088 0388 0120     		movne	r0, #1
 1089              	.LVL103:
 1090 038a 0020     		moveq	r0, #0
 1091 038c 7047     		bx	lr
 1092              		.cfi_endproc
 1093              	.LFE89:
 1094              		.size	USART_GetFlagStatus, .-USART_GetFlagStatus
 1095              		.align	1
 1096              		.global	USART_ClearFlag
 1097              		.syntax unified
 1098              		.thumb
 1099              		.thumb_func
 1100              		.fpu softvfp
 1101              		.type	USART_ClearFlag, %function
 1102              	USART_ClearFlag:
 1103              	.LFB90:
 897:lib/src/stm32f10x_usart.c **** 
 898:lib/src/stm32f10x_usart.c **** /**
 899:lib/src/stm32f10x_usart.c ****   * @brief  Clears the USARTx's pending flags.
 900:lib/src/stm32f10x_usart.c ****   * @param  USARTx: Select the USART or the UART peripheral. 
 901:lib/src/stm32f10x_usart.c ****   *   This parameter can be one of the following values:
 902:lib/src/stm32f10x_usart.c ****   *   USART1, USART2, USART3, UART4 or UART5.
 903:lib/src/stm32f10x_usart.c ****   * @param  USART_FLAG: specifies the flag to clear.
 904:lib/src/stm32f10x_usart.c ****   *   This parameter can be any combination of the following values:
 905:lib/src/stm32f10x_usart.c ****   *     @arg USART_FLAG_CTS:  CTS Change flag (not available for UART4 and UART5).
 906:lib/src/stm32f10x_usart.c ****   *     @arg USART_FLAG_LBD:  LIN Break detection flag.
 907:lib/src/stm32f10x_usart.c ****   *     @arg USART_FLAG_TC:   Transmission Complete flag.
 908:lib/src/stm32f10x_usart.c ****   *     @arg USART_FLAG_RXNE: Receive data register not empty flag.
 909:lib/src/stm32f10x_usart.c ****   *   
 910:lib/src/stm32f10x_usart.c ****   * @note
 911:lib/src/stm32f10x_usart.c ****   *   - PE (Parity error), FE (Framing error), NE (Noise error), ORE (OverRun 
 912:lib/src/stm32f10x_usart.c ****   *     error) and IDLE (Idle line detected) flags are cleared by software 
 913:lib/src/stm32f10x_usart.c ****   *     sequence: a read operation to USART_SR register (USART_GetFlagStatus()) 
 914:lib/src/stm32f10x_usart.c ****   *     followed by a read operation to USART_DR register (USART_ReceiveData()).
 915:lib/src/stm32f10x_usart.c ****   *   - RXNE flag can be also cleared by a read to the USART_DR register 
 916:lib/src/stm32f10x_usart.c ****   *     (USART_ReceiveData()).
 917:lib/src/stm32f10x_usart.c ****   *   - TC flag can be also cleared by software sequence: a read operation to 
 918:lib/src/stm32f10x_usart.c ****   *     USART_SR register (USART_GetFlagStatus()) followed by a write operation
 919:lib/src/stm32f10x_usart.c ****   *     to USART_DR register (USART_SendData()).
 920:lib/src/stm32f10x_usart.c ****   *   - TXE flag is cleared only by a write to the USART_DR register 
 921:lib/src/stm32f10x_usart.c ****   *     (USART_SendData()).
 922:lib/src/stm32f10x_usart.c ****   * @retval None
 923:lib/src/stm32f10x_usart.c ****   */
 924:lib/src/stm32f10x_usart.c **** void USART_ClearFlag(USART_TypeDef* USARTx, uint16_t USART_FLAG)
 925:lib/src/stm32f10x_usart.c **** {
 1104              		.loc 1 925 0
 1105              		.cfi_startproc
 1106              		@ args = 0, pretend = 0, frame = 0
ARM GAS  /tmp/ccjSVZtz.s 			page 37


 1107              		@ frame_needed = 0, uses_anonymous_args = 0
 1108              		@ link register save eliminated.
 1109              	.LVL104:
 926:lib/src/stm32f10x_usart.c ****   /* Check the parameters */
 927:lib/src/stm32f10x_usart.c ****   assert_param(IS_USART_ALL_PERIPH(USARTx));
 928:lib/src/stm32f10x_usart.c ****   assert_param(IS_USART_CLEAR_FLAG(USART_FLAG));
 929:lib/src/stm32f10x_usart.c ****   /* The CTS flag is not available for UART4 and UART5 */
 930:lib/src/stm32f10x_usart.c ****   if ((USART_FLAG & USART_FLAG_CTS) == USART_FLAG_CTS)
 931:lib/src/stm32f10x_usart.c ****   {
 932:lib/src/stm32f10x_usart.c ****     assert_param(IS_USART_123_PERIPH(USARTx));
 933:lib/src/stm32f10x_usart.c ****   } 
 934:lib/src/stm32f10x_usart.c ****    
 935:lib/src/stm32f10x_usart.c ****   USARTx->SR = (uint16_t)~USART_FLAG;
 1110              		.loc 1 935 0
 1111 038e C943     		mvns	r1, r1
 1112              	.LVL105:
 1113 0390 89B2     		uxth	r1, r1
 1114 0392 0180     		strh	r1, [r0]	@ movhi
 1115 0394 7047     		bx	lr
 1116              		.cfi_endproc
 1117              	.LFE90:
 1118              		.size	USART_ClearFlag, .-USART_ClearFlag
 1119              		.align	1
 1120              		.global	USART_GetITStatus
 1121              		.syntax unified
 1122              		.thumb
 1123              		.thumb_func
 1124              		.fpu softvfp
 1125              		.type	USART_GetITStatus, %function
 1126              	USART_GetITStatus:
 1127              	.LFB91:
 936:lib/src/stm32f10x_usart.c **** }
 937:lib/src/stm32f10x_usart.c **** 
 938:lib/src/stm32f10x_usart.c **** /**
 939:lib/src/stm32f10x_usart.c ****   * @brief  Checks whether the specified USART interrupt has occurred or not.
 940:lib/src/stm32f10x_usart.c ****   * @param  USARTx: Select the USART or the UART peripheral. 
 941:lib/src/stm32f10x_usart.c ****   *   This parameter can be one of the following values:
 942:lib/src/stm32f10x_usart.c ****   *   USART1, USART2, USART3, UART4 or UART5.
 943:lib/src/stm32f10x_usart.c ****   * @param  USART_IT: specifies the USART interrupt source to check.
 944:lib/src/stm32f10x_usart.c ****   *   This parameter can be one of the following values:
 945:lib/src/stm32f10x_usart.c ****   *     @arg USART_IT_CTS:  CTS change interrupt (not available for UART4 and UART5)
 946:lib/src/stm32f10x_usart.c ****   *     @arg USART_IT_LBD:  LIN Break detection interrupt
 947:lib/src/stm32f10x_usart.c ****   *     @arg USART_IT_TXE:  Tansmit Data Register empty interrupt
 948:lib/src/stm32f10x_usart.c ****   *     @arg USART_IT_TC:   Transmission complete interrupt
 949:lib/src/stm32f10x_usart.c ****   *     @arg USART_IT_RXNE: Receive Data register not empty interrupt
 950:lib/src/stm32f10x_usart.c ****   *     @arg USART_IT_IDLE: Idle line detection interrupt
 951:lib/src/stm32f10x_usart.c ****   *     @arg USART_IT_ORE:  OverRun Error interrupt
 952:lib/src/stm32f10x_usart.c ****   *     @arg USART_IT_NE:   Noise Error interrupt
 953:lib/src/stm32f10x_usart.c ****   *     @arg USART_IT_FE:   Framing Error interrupt
 954:lib/src/stm32f10x_usart.c ****   *     @arg USART_IT_PE:   Parity Error interrupt
 955:lib/src/stm32f10x_usart.c ****   * @retval The new state of USART_IT (SET or RESET).
 956:lib/src/stm32f10x_usart.c ****   */
 957:lib/src/stm32f10x_usart.c **** ITStatus USART_GetITStatus(USART_TypeDef* USARTx, uint16_t USART_IT)
 958:lib/src/stm32f10x_usart.c **** {
 1128              		.loc 1 958 0
 1129              		.cfi_startproc
 1130              		@ args = 0, pretend = 0, frame = 0
ARM GAS  /tmp/ccjSVZtz.s 			page 38


 1131              		@ frame_needed = 0, uses_anonymous_args = 0
 1132              		@ link register save eliminated.
 1133              	.LVL106:
 1134 0396 10B4     		push	{r4}
 1135              		.cfi_def_cfa_offset 4
 1136              		.cfi_offset 4, -4
 1137              	.LVL107:
 959:lib/src/stm32f10x_usart.c ****   uint32_t bitpos = 0x00, itmask = 0x00, usartreg = 0x00;
 960:lib/src/stm32f10x_usart.c ****   ITStatus bitstatus = RESET;
 961:lib/src/stm32f10x_usart.c ****   /* Check the parameters */
 962:lib/src/stm32f10x_usart.c ****   assert_param(IS_USART_ALL_PERIPH(USARTx));
 963:lib/src/stm32f10x_usart.c ****   assert_param(IS_USART_GET_IT(USART_IT));
 964:lib/src/stm32f10x_usart.c ****   /* The CTS interrupt is not available for UART4 and UART5 */ 
 965:lib/src/stm32f10x_usart.c ****   if (USART_IT == USART_IT_CTS)
 966:lib/src/stm32f10x_usart.c ****   {
 967:lib/src/stm32f10x_usart.c ****     assert_param(IS_USART_123_PERIPH(USARTx));
 968:lib/src/stm32f10x_usart.c ****   }   
 969:lib/src/stm32f10x_usart.c ****   
 970:lib/src/stm32f10x_usart.c ****   /* Get the USART register index */
 971:lib/src/stm32f10x_usart.c ****   usartreg = (((uint8_t)USART_IT) >> 0x05);
 1138              		.loc 1 971 0
 1139 0398 C1F34212 		ubfx	r2, r1, #5, #3
 1140              	.LVL108:
 972:lib/src/stm32f10x_usart.c ****   /* Get the interrupt position */
 973:lib/src/stm32f10x_usart.c ****   itmask = USART_IT & IT_Mask;
 1141              		.loc 1 973 0
 1142 039c 01F01F04 		and	r4, r1, #31
 1143              	.LVL109:
 974:lib/src/stm32f10x_usart.c ****   itmask = (uint32_t)0x01 << itmask;
 1144              		.loc 1 974 0
 1145 03a0 0123     		movs	r3, #1
 1146 03a2 A340     		lsls	r3, r3, r4
 1147              	.LVL110:
 975:lib/src/stm32f10x_usart.c ****   
 976:lib/src/stm32f10x_usart.c ****   if (usartreg == 0x01) /* The IT  is in CR1 register */
 1148              		.loc 1 976 0
 1149 03a4 012A     		cmp	r2, #1
 1150 03a6 12D0     		beq	.L97
 977:lib/src/stm32f10x_usart.c ****   {
 978:lib/src/stm32f10x_usart.c ****     itmask &= USARTx->CR1;
 979:lib/src/stm32f10x_usart.c ****   }
 980:lib/src/stm32f10x_usart.c ****   else if (usartreg == 0x02) /* The IT  is in CR2 register */
 1151              		.loc 1 980 0
 1152 03a8 022A     		cmp	r2, #2
 981:lib/src/stm32f10x_usart.c ****   {
 982:lib/src/stm32f10x_usart.c ****     itmask &= USARTx->CR2;
 1153              		.loc 1 982 0
 1154 03aa 0CBF     		ite	eq
 1155 03ac 028A     		ldrheq	r2, [r0, #16]
 1156              	.LVL111:
 983:lib/src/stm32f10x_usart.c ****   }
 984:lib/src/stm32f10x_usart.c ****   else /* The IT  is in CR3 register */
 985:lib/src/stm32f10x_usart.c ****   {
 986:lib/src/stm32f10x_usart.c ****     itmask &= USARTx->CR3;
 1157              		.loc 1 986 0
 1158 03ae 828A     		ldrhne	r2, [r0, #20]
 1159 03b0 92B2     		uxth	r2, r2
ARM GAS  /tmp/ccjSVZtz.s 			page 39


 1160 03b2 1340     		ands	r3, r3, r2
 1161              	.LVL112:
 1162              	.L92:
 987:lib/src/stm32f10x_usart.c ****   }
 988:lib/src/stm32f10x_usart.c ****   
 989:lib/src/stm32f10x_usart.c ****   bitpos = USART_IT >> 0x08;
 990:lib/src/stm32f10x_usart.c ****   bitpos = (uint32_t)0x01 << bitpos;
 991:lib/src/stm32f10x_usart.c ****   bitpos &= USARTx->SR;
 1163              		.loc 1 991 0
 1164 03b4 0288     		ldrh	r2, [r0]
 1165 03b6 92B2     		uxth	r2, r2
 1166              	.LVL113:
 992:lib/src/stm32f10x_usart.c ****   if ((itmask != (uint16_t)RESET)&&(bitpos != (uint16_t)RESET))
 1167              		.loc 1 992 0
 1168 03b8 6BB1     		cbz	r3, .L95
 989:lib/src/stm32f10x_usart.c ****   bitpos = (uint32_t)0x01 << bitpos;
 1169              		.loc 1 989 0 discriminator 1
 1170 03ba 090A     		lsrs	r1, r1, #8
 1171              	.LVL114:
 990:lib/src/stm32f10x_usart.c ****   bitpos &= USARTx->SR;
 1172              		.loc 1 990 0 discriminator 1
 1173 03bc 0123     		movs	r3, #1
 1174              	.LVL115:
 1175 03be 03FA01F1 		lsl	r1, r3, r1
 1176              		.loc 1 992 0 discriminator 1
 1177 03c2 0A42     		tst	r2, r1
 1178 03c4 14BF     		ite	ne
 1179 03c6 1846     		movne	r0, r3
 1180              	.LVL116:
 1181 03c8 0020     		moveq	r0, #0
 1182              	.L94:
 1183              	.LVL117:
 993:lib/src/stm32f10x_usart.c ****   {
 994:lib/src/stm32f10x_usart.c ****     bitstatus = SET;
 995:lib/src/stm32f10x_usart.c ****   }
 996:lib/src/stm32f10x_usart.c ****   else
 997:lib/src/stm32f10x_usart.c ****   {
 998:lib/src/stm32f10x_usart.c ****     bitstatus = RESET;
 999:lib/src/stm32f10x_usart.c ****   }
1000:lib/src/stm32f10x_usart.c ****   
1001:lib/src/stm32f10x_usart.c ****   return bitstatus;  
1002:lib/src/stm32f10x_usart.c **** }
 1184              		.loc 1 1002 0
 1185 03ca 10BC     		pop	{r4}
 1186              		.cfi_remember_state
 1187              		.cfi_restore 4
 1188              		.cfi_def_cfa_offset 0
 1189 03cc 7047     		bx	lr
 1190              	.LVL118:
 1191              	.L97:
 1192              		.cfi_restore_state
 978:lib/src/stm32f10x_usart.c ****   }
 1193              		.loc 1 978 0
 1194 03ce 8289     		ldrh	r2, [r0, #12]
 1195              	.LVL119:
 1196 03d0 92B2     		uxth	r2, r2
 1197 03d2 1340     		ands	r3, r3, r2
ARM GAS  /tmp/ccjSVZtz.s 			page 40


 1198              	.LVL120:
 1199 03d4 EEE7     		b	.L92
 1200              	.LVL121:
 1201              	.L95:
 1202 03d6 0020     		movs	r0, #0
 1203              	.LVL122:
 1204 03d8 F7E7     		b	.L94
 1205              		.cfi_endproc
 1206              	.LFE91:
 1207              		.size	USART_GetITStatus, .-USART_GetITStatus
 1208              		.align	1
 1209              		.global	USART_ClearITPendingBit
 1210              		.syntax unified
 1211              		.thumb
 1212              		.thumb_func
 1213              		.fpu softvfp
 1214              		.type	USART_ClearITPendingBit, %function
 1215              	USART_ClearITPendingBit:
 1216              	.LFB92:
1003:lib/src/stm32f10x_usart.c **** 
1004:lib/src/stm32f10x_usart.c **** /**
1005:lib/src/stm32f10x_usart.c ****   * @brief  Clears the USARTx's interrupt pending bits.
1006:lib/src/stm32f10x_usart.c ****   * @param  USARTx: Select the USART or the UART peripheral. 
1007:lib/src/stm32f10x_usart.c ****   *   This parameter can be one of the following values:
1008:lib/src/stm32f10x_usart.c ****   *   USART1, USART2, USART3, UART4 or UART5.
1009:lib/src/stm32f10x_usart.c ****   * @param  USART_IT: specifies the interrupt pending bit to clear.
1010:lib/src/stm32f10x_usart.c ****   *   This parameter can be one of the following values:
1011:lib/src/stm32f10x_usart.c ****   *     @arg USART_IT_CTS:  CTS change interrupt (not available for UART4 and UART5)
1012:lib/src/stm32f10x_usart.c ****   *     @arg USART_IT_LBD:  LIN Break detection interrupt
1013:lib/src/stm32f10x_usart.c ****   *     @arg USART_IT_TC:   Transmission complete interrupt. 
1014:lib/src/stm32f10x_usart.c ****   *     @arg USART_IT_RXNE: Receive Data register not empty interrupt.
1015:lib/src/stm32f10x_usart.c ****   *   
1016:lib/src/stm32f10x_usart.c ****   * @note
1017:lib/src/stm32f10x_usart.c ****   *   - PE (Parity error), FE (Framing error), NE (Noise error), ORE (OverRun 
1018:lib/src/stm32f10x_usart.c ****   *     error) and IDLE (Idle line detected) pending bits are cleared by 
1019:lib/src/stm32f10x_usart.c ****   *     software sequence: a read operation to USART_SR register 
1020:lib/src/stm32f10x_usart.c ****   *     (USART_GetITStatus()) followed by a read operation to USART_DR register 
1021:lib/src/stm32f10x_usart.c ****   *     (USART_ReceiveData()).
1022:lib/src/stm32f10x_usart.c ****   *   - RXNE pending bit can be also cleared by a read to the USART_DR register 
1023:lib/src/stm32f10x_usart.c ****   *     (USART_ReceiveData()).
1024:lib/src/stm32f10x_usart.c ****   *   - TC pending bit can be also cleared by software sequence: a read 
1025:lib/src/stm32f10x_usart.c ****   *     operation to USART_SR register (USART_GetITStatus()) followed by a write 
1026:lib/src/stm32f10x_usart.c ****   *     operation to USART_DR register (USART_SendData()).
1027:lib/src/stm32f10x_usart.c ****   *   - TXE pending bit is cleared only by a write to the USART_DR register 
1028:lib/src/stm32f10x_usart.c ****   *     (USART_SendData()).
1029:lib/src/stm32f10x_usart.c ****   * @retval None
1030:lib/src/stm32f10x_usart.c ****   */
1031:lib/src/stm32f10x_usart.c **** void USART_ClearITPendingBit(USART_TypeDef* USARTx, uint16_t USART_IT)
1032:lib/src/stm32f10x_usart.c **** {
 1217              		.loc 1 1032 0
 1218              		.cfi_startproc
 1219              		@ args = 0, pretend = 0, frame = 0
 1220              		@ frame_needed = 0, uses_anonymous_args = 0
 1221              		@ link register save eliminated.
 1222              	.LVL123:
1033:lib/src/stm32f10x_usart.c ****   uint16_t bitpos = 0x00, itmask = 0x00;
1034:lib/src/stm32f10x_usart.c ****   /* Check the parameters */
ARM GAS  /tmp/ccjSVZtz.s 			page 41


1035:lib/src/stm32f10x_usart.c ****   assert_param(IS_USART_ALL_PERIPH(USARTx));
1036:lib/src/stm32f10x_usart.c ****   assert_param(IS_USART_CLEAR_IT(USART_IT));
1037:lib/src/stm32f10x_usart.c ****   /* The CTS interrupt is not available for UART4 and UART5 */
1038:lib/src/stm32f10x_usart.c ****   if (USART_IT == USART_IT_CTS)
1039:lib/src/stm32f10x_usart.c ****   {
1040:lib/src/stm32f10x_usart.c ****     assert_param(IS_USART_123_PERIPH(USARTx));
1041:lib/src/stm32f10x_usart.c ****   }   
1042:lib/src/stm32f10x_usart.c ****   
1043:lib/src/stm32f10x_usart.c ****   bitpos = USART_IT >> 0x08;
1044:lib/src/stm32f10x_usart.c ****   itmask = ((uint16_t)0x01 << (uint16_t)bitpos);
 1223              		.loc 1 1044 0
 1224 03da 0B0A     		lsrs	r3, r1, #8
 1225 03dc 0121     		movs	r1, #1
 1226              	.LVL124:
 1227 03de 9940     		lsls	r1, r1, r3
1045:lib/src/stm32f10x_usart.c ****   USARTx->SR = (uint16_t)~itmask;
 1228              		.loc 1 1045 0
 1229 03e0 C943     		mvns	r1, r1
 1230 03e2 89B2     		uxth	r1, r1
 1231 03e4 0180     		strh	r1, [r0]	@ movhi
 1232 03e6 7047     		bx	lr
 1233              		.cfi_endproc
 1234              	.LFE92:
 1235              		.size	USART_ClearITPendingBit, .-USART_ClearITPendingBit
 1236              	.Letext0:
 1237              		.file 2 "/usr/arm-none-eabi/include/machine/_default_types.h"
 1238              		.file 3 "/usr/arm-none-eabi/include/sys/_stdint.h"
 1239              		.file 4 "/home/enbin/Documents/code/STM/stm32-quadrocopter/cmsis/core_cm3.h"
 1240              		.file 5 "/home/enbin/Documents/code/STM/stm32-quadrocopter/lib/inc/system_stm32f10x.h"
 1241              		.file 6 "/home/enbin/Documents/code/STM/stm32-quadrocopter/lib/inc/stm32f10x.h"
 1242              		.file 7 "/home/enbin/Documents/code/STM/stm32-quadrocopter/lib/inc/stm32f10x_usart.h"
 1243              		.file 8 "/home/enbin/Documents/code/STM/stm32-quadrocopter/lib/inc/stm32f10x_rcc.h"
 1244              		.file 9 "/home/enbin/Documents/code/STM/stm32-quadrocopter/drivers/MPU6050.h"
 1245              		.file 10 "/usr/arm-none-eabi/include/sys/lock.h"
 1246              		.file 11 "/usr/arm-none-eabi/include/sys/_types.h"
 1247              		.file 12 "/usr/lib/gcc/arm-none-eabi/6.1.1/include/stddef.h"
 1248              		.file 13 "/usr/arm-none-eabi/include/sys/reent.h"
 1249              		.file 14 "/usr/arm-none-eabi/include/stdlib.h"
 1250              		.file 15 "/usr/arm-none-eabi/include/math.h"
 1251              		.file 16 "/usr/arm-none-eabi/include/sys/errno.h"