ARM GAS  /tmp/cc3TVymc.s 			page 1


   1              		.cpu cortex-m3
   2              		.eabi_attribute 20, 1
   3              		.eabi_attribute 21, 1
   4              		.eabi_attribute 23, 3
   5              		.eabi_attribute 24, 1
   6              		.eabi_attribute 25, 1
   7              		.eabi_attribute 26, 1
   8              		.eabi_attribute 30, 1
   9              		.eabi_attribute 34, 1
  10              		.eabi_attribute 18, 4
  11              		.file	"stm32f10x_rcc.c"
  12              		.text
  13              	.Ltext0:
  14              		.cfi_sections	.debug_frame
  15              		.align	1
  16              		.global	RCC_DeInit
  17              		.syntax unified
  18              		.thumb
  19              		.thumb_func
  20              		.fpu softvfp
  21              		.type	RCC_DeInit, %function
  22              	RCC_DeInit:
  23              	.LFB64:
  24              		.file 1 "lib/src/stm32f10x_rcc.c"
   1:lib/src/stm32f10x_rcc.c **** /**
   2:lib/src/stm32f10x_rcc.c ****   ******************************************************************************
   3:lib/src/stm32f10x_rcc.c ****   * @file    stm32f10x_rcc.c
   4:lib/src/stm32f10x_rcc.c ****   * @author  MCD Application Team
   5:lib/src/stm32f10x_rcc.c ****   * @version V3.5.0
   6:lib/src/stm32f10x_rcc.c ****   * @date    11-March-2011
   7:lib/src/stm32f10x_rcc.c ****   * @brief   This file provides all the RCC firmware functions.
   8:lib/src/stm32f10x_rcc.c ****   ******************************************************************************
   9:lib/src/stm32f10x_rcc.c ****   * @attention
  10:lib/src/stm32f10x_rcc.c ****   *
  11:lib/src/stm32f10x_rcc.c ****   * THE PRESENT FIRMWARE WHICH IS FOR GUIDANCE ONLY AIMS AT PROVIDING CUSTOMERS
  12:lib/src/stm32f10x_rcc.c ****   * WITH CODING INFORMATION REGARDING THEIR PRODUCTS IN ORDER FOR THEM TO SAVE
  13:lib/src/stm32f10x_rcc.c ****   * TIME. AS A RESULT, STMICROELECTRONICS SHALL NOT BE HELD LIABLE FOR ANY
  14:lib/src/stm32f10x_rcc.c ****   * DIRECT, INDIRECT OR CONSEQUENTIAL DAMAGES WITH RESPECT TO ANY CLAIMS ARISING
  15:lib/src/stm32f10x_rcc.c ****   * FROM THE CONTENT OF SUCH FIRMWARE AND/OR THE USE MADE BY CUSTOMERS OF THE
  16:lib/src/stm32f10x_rcc.c ****   * CODING INFORMATION CONTAINED HEREIN IN CONNECTION WITH THEIR PRODUCTS.
  17:lib/src/stm32f10x_rcc.c ****   *
  18:lib/src/stm32f10x_rcc.c ****   * <h2><center>&copy; COPYRIGHT 2011 STMicroelectronics</center></h2>
  19:lib/src/stm32f10x_rcc.c ****   ******************************************************************************
  20:lib/src/stm32f10x_rcc.c ****   */
  21:lib/src/stm32f10x_rcc.c **** 
  22:lib/src/stm32f10x_rcc.c **** /* Includes ------------------------------------------------------------------*/
  23:lib/src/stm32f10x_rcc.c **** #include "stm32f10x_rcc.h"
  24:lib/src/stm32f10x_rcc.c **** #include "conf.h"
  25:lib/src/stm32f10x_rcc.c **** 
  26:lib/src/stm32f10x_rcc.c **** /** @addtogroup STM32F10x_StdPeriph_Driver
  27:lib/src/stm32f10x_rcc.c ****   * @{
  28:lib/src/stm32f10x_rcc.c ****   */
  29:lib/src/stm32f10x_rcc.c **** 
  30:lib/src/stm32f10x_rcc.c **** /** @defgroup RCC 
  31:lib/src/stm32f10x_rcc.c ****   * @brief RCC driver modules
  32:lib/src/stm32f10x_rcc.c ****   * @{
  33:lib/src/stm32f10x_rcc.c ****   */ 
ARM GAS  /tmp/cc3TVymc.s 			page 2


  34:lib/src/stm32f10x_rcc.c **** 
  35:lib/src/stm32f10x_rcc.c **** /** @defgroup RCC_Private_TypesDefinitions
  36:lib/src/stm32f10x_rcc.c ****   * @{
  37:lib/src/stm32f10x_rcc.c ****   */
  38:lib/src/stm32f10x_rcc.c **** 
  39:lib/src/stm32f10x_rcc.c **** /**
  40:lib/src/stm32f10x_rcc.c ****   * @}
  41:lib/src/stm32f10x_rcc.c ****   */
  42:lib/src/stm32f10x_rcc.c **** 
  43:lib/src/stm32f10x_rcc.c **** /** @defgroup RCC_Private_Defines
  44:lib/src/stm32f10x_rcc.c ****   * @{
  45:lib/src/stm32f10x_rcc.c ****   */
  46:lib/src/stm32f10x_rcc.c **** 
  47:lib/src/stm32f10x_rcc.c **** /* ------------ RCC registers bit address in the alias region ----------- */
  48:lib/src/stm32f10x_rcc.c **** #define RCC_OFFSET                (RCC_BASE - PERIPH_BASE)
  49:lib/src/stm32f10x_rcc.c **** 
  50:lib/src/stm32f10x_rcc.c **** /* --- CR Register ---*/
  51:lib/src/stm32f10x_rcc.c **** 
  52:lib/src/stm32f10x_rcc.c **** /* Alias word address of HSION bit */
  53:lib/src/stm32f10x_rcc.c **** #define CR_OFFSET                 (RCC_OFFSET + 0x00)
  54:lib/src/stm32f10x_rcc.c **** #define HSION_BitNumber           0x00
  55:lib/src/stm32f10x_rcc.c **** #define CR_HSION_BB               (PERIPH_BB_BASE + (CR_OFFSET * 32) + (HSION_BitNumber * 4))
  56:lib/src/stm32f10x_rcc.c **** 
  57:lib/src/stm32f10x_rcc.c **** /* Alias word address of PLLON bit */
  58:lib/src/stm32f10x_rcc.c **** #define PLLON_BitNumber           0x18
  59:lib/src/stm32f10x_rcc.c **** #define CR_PLLON_BB               (PERIPH_BB_BASE + (CR_OFFSET * 32) + (PLLON_BitNumber * 4))
  60:lib/src/stm32f10x_rcc.c **** 
  61:lib/src/stm32f10x_rcc.c **** #ifdef STM32F10X_CL
  62:lib/src/stm32f10x_rcc.c ****  /* Alias word address of PLL2ON bit */
  63:lib/src/stm32f10x_rcc.c ****  #define PLL2ON_BitNumber          0x1A
  64:lib/src/stm32f10x_rcc.c ****  #define CR_PLL2ON_BB              (PERIPH_BB_BASE + (CR_OFFSET * 32) + (PLL2ON_BitNumber * 4))
  65:lib/src/stm32f10x_rcc.c **** 
  66:lib/src/stm32f10x_rcc.c ****  /* Alias word address of PLL3ON bit */
  67:lib/src/stm32f10x_rcc.c ****  #define PLL3ON_BitNumber          0x1C
  68:lib/src/stm32f10x_rcc.c ****  #define CR_PLL3ON_BB              (PERIPH_BB_BASE + (CR_OFFSET * 32) + (PLL3ON_BitNumber * 4))
  69:lib/src/stm32f10x_rcc.c **** #endif /* STM32F10X_CL */ 
  70:lib/src/stm32f10x_rcc.c **** 
  71:lib/src/stm32f10x_rcc.c **** /* Alias word address of CSSON bit */
  72:lib/src/stm32f10x_rcc.c **** #define CSSON_BitNumber           0x13
  73:lib/src/stm32f10x_rcc.c **** #define CR_CSSON_BB               (PERIPH_BB_BASE + (CR_OFFSET * 32) + (CSSON_BitNumber * 4))
  74:lib/src/stm32f10x_rcc.c **** 
  75:lib/src/stm32f10x_rcc.c **** /* --- CFGR Register ---*/
  76:lib/src/stm32f10x_rcc.c **** 
  77:lib/src/stm32f10x_rcc.c **** /* Alias word address of USBPRE bit */
  78:lib/src/stm32f10x_rcc.c **** #define CFGR_OFFSET               (RCC_OFFSET + 0x04)
  79:lib/src/stm32f10x_rcc.c **** 
  80:lib/src/stm32f10x_rcc.c **** #ifndef STM32F10X_CL
  81:lib/src/stm32f10x_rcc.c ****  #define USBPRE_BitNumber          0x16
  82:lib/src/stm32f10x_rcc.c ****  #define CFGR_USBPRE_BB            (PERIPH_BB_BASE + (CFGR_OFFSET * 32) + (USBPRE_BitNumber * 4))
  83:lib/src/stm32f10x_rcc.c **** #else
  84:lib/src/stm32f10x_rcc.c ****  #define OTGFSPRE_BitNumber        0x16
  85:lib/src/stm32f10x_rcc.c ****  #define CFGR_OTGFSPRE_BB          (PERIPH_BB_BASE + (CFGR_OFFSET * 32) + (OTGFSPRE_BitNumber * 4))
  86:lib/src/stm32f10x_rcc.c **** #endif /* STM32F10X_CL */ 
  87:lib/src/stm32f10x_rcc.c **** 
  88:lib/src/stm32f10x_rcc.c **** /* --- BDCR Register ---*/
  89:lib/src/stm32f10x_rcc.c **** 
  90:lib/src/stm32f10x_rcc.c **** /* Alias word address of RTCEN bit */
ARM GAS  /tmp/cc3TVymc.s 			page 3


  91:lib/src/stm32f10x_rcc.c **** #define BDCR_OFFSET               (RCC_OFFSET + 0x20)
  92:lib/src/stm32f10x_rcc.c **** #define RTCEN_BitNumber           0x0F
  93:lib/src/stm32f10x_rcc.c **** #define BDCR_RTCEN_BB             (PERIPH_BB_BASE + (BDCR_OFFSET * 32) + (RTCEN_BitNumber * 4))
  94:lib/src/stm32f10x_rcc.c **** 
  95:lib/src/stm32f10x_rcc.c **** /* Alias word address of BDRST bit */
  96:lib/src/stm32f10x_rcc.c **** #define BDRST_BitNumber           0x10
  97:lib/src/stm32f10x_rcc.c **** #define BDCR_BDRST_BB             (PERIPH_BB_BASE + (BDCR_OFFSET * 32) + (BDRST_BitNumber * 4))
  98:lib/src/stm32f10x_rcc.c **** 
  99:lib/src/stm32f10x_rcc.c **** /* --- CSR Register ---*/
 100:lib/src/stm32f10x_rcc.c **** 
 101:lib/src/stm32f10x_rcc.c **** /* Alias word address of LSION bit */
 102:lib/src/stm32f10x_rcc.c **** #define CSR_OFFSET                (RCC_OFFSET + 0x24)
 103:lib/src/stm32f10x_rcc.c **** #define LSION_BitNumber           0x00
 104:lib/src/stm32f10x_rcc.c **** #define CSR_LSION_BB              (PERIPH_BB_BASE + (CSR_OFFSET * 32) + (LSION_BitNumber * 4))
 105:lib/src/stm32f10x_rcc.c **** 
 106:lib/src/stm32f10x_rcc.c **** #ifdef STM32F10X_CL
 107:lib/src/stm32f10x_rcc.c **** /* --- CFGR2 Register ---*/
 108:lib/src/stm32f10x_rcc.c **** 
 109:lib/src/stm32f10x_rcc.c ****  /* Alias word address of I2S2SRC bit */
 110:lib/src/stm32f10x_rcc.c ****  #define CFGR2_OFFSET              (RCC_OFFSET + 0x2C)
 111:lib/src/stm32f10x_rcc.c ****  #define I2S2SRC_BitNumber         0x11
 112:lib/src/stm32f10x_rcc.c ****  #define CFGR2_I2S2SRC_BB          (PERIPH_BB_BASE + (CFGR2_OFFSET * 32) + (I2S2SRC_BitNumber * 4))
 113:lib/src/stm32f10x_rcc.c **** 
 114:lib/src/stm32f10x_rcc.c ****  /* Alias word address of I2S3SRC bit */
 115:lib/src/stm32f10x_rcc.c ****  #define I2S3SRC_BitNumber         0x12
 116:lib/src/stm32f10x_rcc.c ****  #define CFGR2_I2S3SRC_BB          (PERIPH_BB_BASE + (CFGR2_OFFSET * 32) + (I2S3SRC_BitNumber * 4))
 117:lib/src/stm32f10x_rcc.c **** #endif /* STM32F10X_CL */
 118:lib/src/stm32f10x_rcc.c **** 
 119:lib/src/stm32f10x_rcc.c **** /* ---------------------- RCC registers bit mask ------------------------ */
 120:lib/src/stm32f10x_rcc.c **** 
 121:lib/src/stm32f10x_rcc.c **** /* CR register bit mask */
 122:lib/src/stm32f10x_rcc.c **** #define CR_HSEBYP_Reset           ((uint32_t)0xFFFBFFFF)
 123:lib/src/stm32f10x_rcc.c **** #define CR_HSEBYP_Set             ((uint32_t)0x00040000)
 124:lib/src/stm32f10x_rcc.c **** #define CR_HSEON_Reset            ((uint32_t)0xFFFEFFFF)
 125:lib/src/stm32f10x_rcc.c **** #define CR_HSEON_Set              ((uint32_t)0x00010000)
 126:lib/src/stm32f10x_rcc.c **** #define CR_HSITRIM_Mask           ((uint32_t)0xFFFFFF07)
 127:lib/src/stm32f10x_rcc.c **** 
 128:lib/src/stm32f10x_rcc.c **** /* CFGR register bit mask */
 129:lib/src/stm32f10x_rcc.c **** #if defined (STM32F10X_LD_VL) || defined (STM32F10X_MD_VL) || defined (STM32F10X_HD_VL) || defined 
 130:lib/src/stm32f10x_rcc.c ****  #define CFGR_PLL_Mask            ((uint32_t)0xFFC2FFFF)
 131:lib/src/stm32f10x_rcc.c **** #else
 132:lib/src/stm32f10x_rcc.c ****  #define CFGR_PLL_Mask            ((uint32_t)0xFFC0FFFF)
 133:lib/src/stm32f10x_rcc.c **** #endif /* STM32F10X_CL */ 
 134:lib/src/stm32f10x_rcc.c **** 
 135:lib/src/stm32f10x_rcc.c **** #define CFGR_PLLMull_Mask         ((uint32_t)0x003C0000)
 136:lib/src/stm32f10x_rcc.c **** #define CFGR_PLLSRC_Mask          ((uint32_t)0x00010000)
 137:lib/src/stm32f10x_rcc.c **** #define CFGR_PLLXTPRE_Mask        ((uint32_t)0x00020000)
 138:lib/src/stm32f10x_rcc.c **** #define CFGR_SWS_Mask             ((uint32_t)0x0000000C)
 139:lib/src/stm32f10x_rcc.c **** #define CFGR_SW_Mask              ((uint32_t)0xFFFFFFFC)
 140:lib/src/stm32f10x_rcc.c **** #define CFGR_HPRE_Reset_Mask      ((uint32_t)0xFFFFFF0F)
 141:lib/src/stm32f10x_rcc.c **** #define CFGR_HPRE_Set_Mask        ((uint32_t)0x000000F0)
 142:lib/src/stm32f10x_rcc.c **** #define CFGR_PPRE1_Reset_Mask     ((uint32_t)0xFFFFF8FF)
 143:lib/src/stm32f10x_rcc.c **** #define CFGR_PPRE1_Set_Mask       ((uint32_t)0x00000700)
 144:lib/src/stm32f10x_rcc.c **** #define CFGR_PPRE2_Reset_Mask     ((uint32_t)0xFFFFC7FF)
 145:lib/src/stm32f10x_rcc.c **** #define CFGR_PPRE2_Set_Mask       ((uint32_t)0x00003800)
 146:lib/src/stm32f10x_rcc.c **** #define CFGR_ADCPRE_Reset_Mask    ((uint32_t)0xFFFF3FFF)
 147:lib/src/stm32f10x_rcc.c **** #define CFGR_ADCPRE_Set_Mask      ((uint32_t)0x0000C000)
ARM GAS  /tmp/cc3TVymc.s 			page 4


 148:lib/src/stm32f10x_rcc.c **** 
 149:lib/src/stm32f10x_rcc.c **** /* CSR register bit mask */
 150:lib/src/stm32f10x_rcc.c **** #define CSR_RMVF_Set              ((uint32_t)0x01000000)
 151:lib/src/stm32f10x_rcc.c **** 
 152:lib/src/stm32f10x_rcc.c **** #if defined (STM32F10X_LD_VL) || defined (STM32F10X_MD_VL) || defined (STM32F10X_HD_VL) || defined 
 153:lib/src/stm32f10x_rcc.c **** /* CFGR2 register bit mask */
 154:lib/src/stm32f10x_rcc.c ****  #define CFGR2_PREDIV1SRC         ((uint32_t)0x00010000)
 155:lib/src/stm32f10x_rcc.c ****  #define CFGR2_PREDIV1            ((uint32_t)0x0000000F)
 156:lib/src/stm32f10x_rcc.c **** #endif
 157:lib/src/stm32f10x_rcc.c **** #ifdef STM32F10X_CL
 158:lib/src/stm32f10x_rcc.c ****  #define CFGR2_PREDIV2            ((uint32_t)0x000000F0)
 159:lib/src/stm32f10x_rcc.c ****  #define CFGR2_PLL2MUL            ((uint32_t)0x00000F00)
 160:lib/src/stm32f10x_rcc.c ****  #define CFGR2_PLL3MUL            ((uint32_t)0x0000F000)
 161:lib/src/stm32f10x_rcc.c **** #endif /* STM32F10X_CL */ 
 162:lib/src/stm32f10x_rcc.c **** 
 163:lib/src/stm32f10x_rcc.c **** /* RCC Flag Mask */
 164:lib/src/stm32f10x_rcc.c **** #define FLAG_Mask                 ((uint8_t)0x1F)
 165:lib/src/stm32f10x_rcc.c **** 
 166:lib/src/stm32f10x_rcc.c **** /* CIR register byte 2 (Bits[15:8]) base address */
 167:lib/src/stm32f10x_rcc.c **** #define CIR_BYTE2_ADDRESS         ((uint32_t)0x40021009)
 168:lib/src/stm32f10x_rcc.c **** 
 169:lib/src/stm32f10x_rcc.c **** /* CIR register byte 3 (Bits[23:16]) base address */
 170:lib/src/stm32f10x_rcc.c **** #define CIR_BYTE3_ADDRESS         ((uint32_t)0x4002100A)
 171:lib/src/stm32f10x_rcc.c **** 
 172:lib/src/stm32f10x_rcc.c **** /* CFGR register byte 4 (Bits[31:24]) base address */
 173:lib/src/stm32f10x_rcc.c **** #define CFGR_BYTE4_ADDRESS        ((uint32_t)0x40021007)
 174:lib/src/stm32f10x_rcc.c **** 
 175:lib/src/stm32f10x_rcc.c **** /* BDCR register base address */
 176:lib/src/stm32f10x_rcc.c **** #define BDCR_ADDRESS              (PERIPH_BASE + BDCR_OFFSET)
 177:lib/src/stm32f10x_rcc.c **** 
 178:lib/src/stm32f10x_rcc.c **** /**
 179:lib/src/stm32f10x_rcc.c ****   * @}
 180:lib/src/stm32f10x_rcc.c ****   */ 
 181:lib/src/stm32f10x_rcc.c **** 
 182:lib/src/stm32f10x_rcc.c **** /** @defgroup RCC_Private_Macros
 183:lib/src/stm32f10x_rcc.c ****   * @{
 184:lib/src/stm32f10x_rcc.c ****   */ 
 185:lib/src/stm32f10x_rcc.c **** 
 186:lib/src/stm32f10x_rcc.c **** /**
 187:lib/src/stm32f10x_rcc.c ****   * @}
 188:lib/src/stm32f10x_rcc.c ****   */ 
 189:lib/src/stm32f10x_rcc.c **** 
 190:lib/src/stm32f10x_rcc.c **** /** @defgroup RCC_Private_Variables
 191:lib/src/stm32f10x_rcc.c ****   * @{
 192:lib/src/stm32f10x_rcc.c ****   */ 
 193:lib/src/stm32f10x_rcc.c **** 
 194:lib/src/stm32f10x_rcc.c **** static __I uint8_t APBAHBPrescTable[16] = {0, 0, 0, 0, 1, 2, 3, 4, 1, 2, 3, 4, 6, 7, 8, 9};
 195:lib/src/stm32f10x_rcc.c **** static __I uint8_t ADCPrescTable[4] = {2, 4, 6, 8};
 196:lib/src/stm32f10x_rcc.c **** 
 197:lib/src/stm32f10x_rcc.c **** /**
 198:lib/src/stm32f10x_rcc.c ****   * @}
 199:lib/src/stm32f10x_rcc.c ****   */
 200:lib/src/stm32f10x_rcc.c **** 
 201:lib/src/stm32f10x_rcc.c **** /** @defgroup RCC_Private_FunctionPrototypes
 202:lib/src/stm32f10x_rcc.c ****   * @{
 203:lib/src/stm32f10x_rcc.c ****   */
 204:lib/src/stm32f10x_rcc.c **** 
ARM GAS  /tmp/cc3TVymc.s 			page 5


 205:lib/src/stm32f10x_rcc.c **** /**
 206:lib/src/stm32f10x_rcc.c ****   * @}
 207:lib/src/stm32f10x_rcc.c ****   */
 208:lib/src/stm32f10x_rcc.c **** 
 209:lib/src/stm32f10x_rcc.c **** /** @defgroup RCC_Private_Functions
 210:lib/src/stm32f10x_rcc.c ****   * @{
 211:lib/src/stm32f10x_rcc.c ****   */
 212:lib/src/stm32f10x_rcc.c **** 
 213:lib/src/stm32f10x_rcc.c **** /**
 214:lib/src/stm32f10x_rcc.c ****   * @brief  Resets the RCC clock configuration to the default reset state.
 215:lib/src/stm32f10x_rcc.c ****   * @param  None
 216:lib/src/stm32f10x_rcc.c ****   * @retval None
 217:lib/src/stm32f10x_rcc.c ****   */
 218:lib/src/stm32f10x_rcc.c **** void RCC_DeInit(void)
 219:lib/src/stm32f10x_rcc.c **** {
  25              		.loc 1 219 0
  26              		.cfi_startproc
  27              		@ args = 0, pretend = 0, frame = 0
  28              		@ frame_needed = 0, uses_anonymous_args = 0
  29              		@ link register save eliminated.
 220:lib/src/stm32f10x_rcc.c ****   /* Set HSION bit */
 221:lib/src/stm32f10x_rcc.c ****   RCC->CR |= (uint32_t)0x00000001;
  30              		.loc 1 221 0
  31 0000 0D4B     		ldr	r3, .L2
  32 0002 1A68     		ldr	r2, [r3]
  33 0004 42F00102 		orr	r2, r2, #1
  34 0008 1A60     		str	r2, [r3]
 222:lib/src/stm32f10x_rcc.c **** 
 223:lib/src/stm32f10x_rcc.c ****   /* Reset SW, HPRE, PPRE1, PPRE2, ADCPRE and MCO bits */
 224:lib/src/stm32f10x_rcc.c **** #ifndef STM32F10X_CL
 225:lib/src/stm32f10x_rcc.c ****   RCC->CFGR &= (uint32_t)0xF8FF0000;
  35              		.loc 1 225 0
  36 000a 5968     		ldr	r1, [r3, #4]
  37 000c 0B4A     		ldr	r2, .L2+4
  38 000e 0A40     		ands	r2, r2, r1
  39 0010 5A60     		str	r2, [r3, #4]
 226:lib/src/stm32f10x_rcc.c **** #else
 227:lib/src/stm32f10x_rcc.c ****   RCC->CFGR &= (uint32_t)0xF0FF0000;
 228:lib/src/stm32f10x_rcc.c **** #endif /* STM32F10X_CL */   
 229:lib/src/stm32f10x_rcc.c ****   
 230:lib/src/stm32f10x_rcc.c ****   /* Reset HSEON, CSSON and PLLON bits */
 231:lib/src/stm32f10x_rcc.c ****   RCC->CR &= (uint32_t)0xFEF6FFFF;
  40              		.loc 1 231 0
  41 0012 1A68     		ldr	r2, [r3]
  42 0014 22F08472 		bic	r2, r2, #17301504
  43 0018 22F48032 		bic	r2, r2, #65536
  44 001c 1A60     		str	r2, [r3]
 232:lib/src/stm32f10x_rcc.c **** 
 233:lib/src/stm32f10x_rcc.c ****   /* Reset HSEBYP bit */
 234:lib/src/stm32f10x_rcc.c ****   RCC->CR &= (uint32_t)0xFFFBFFFF;
  45              		.loc 1 234 0
  46 001e 1A68     		ldr	r2, [r3]
  47 0020 22F48022 		bic	r2, r2, #262144
  48 0024 1A60     		str	r2, [r3]
 235:lib/src/stm32f10x_rcc.c **** 
 236:lib/src/stm32f10x_rcc.c ****   /* Reset PLLSRC, PLLXTPRE, PLLMUL and USBPRE/OTGFSPRE bits */
 237:lib/src/stm32f10x_rcc.c ****   RCC->CFGR &= (uint32_t)0xFF80FFFF;
ARM GAS  /tmp/cc3TVymc.s 			page 6


  49              		.loc 1 237 0
  50 0026 5A68     		ldr	r2, [r3, #4]
  51 0028 22F4FE02 		bic	r2, r2, #8323072
  52 002c 5A60     		str	r2, [r3, #4]
 238:lib/src/stm32f10x_rcc.c **** 
 239:lib/src/stm32f10x_rcc.c **** #ifdef STM32F10X_CL
 240:lib/src/stm32f10x_rcc.c ****   /* Reset PLL2ON and PLL3ON bits */
 241:lib/src/stm32f10x_rcc.c ****   RCC->CR &= (uint32_t)0xEBFFFFFF;
 242:lib/src/stm32f10x_rcc.c **** 
 243:lib/src/stm32f10x_rcc.c ****   /* Disable all interrupts and clear pending bits  */
 244:lib/src/stm32f10x_rcc.c ****   RCC->CIR = 0x00FF0000;
 245:lib/src/stm32f10x_rcc.c **** 
 246:lib/src/stm32f10x_rcc.c ****   /* Reset CFGR2 register */
 247:lib/src/stm32f10x_rcc.c ****   RCC->CFGR2 = 0x00000000;
 248:lib/src/stm32f10x_rcc.c **** #elif defined (STM32F10X_LD_VL) || defined (STM32F10X_MD_VL) || defined (STM32F10X_HD_VL)
 249:lib/src/stm32f10x_rcc.c ****   /* Disable all interrupts and clear pending bits  */
 250:lib/src/stm32f10x_rcc.c ****   RCC->CIR = 0x009F0000;
 251:lib/src/stm32f10x_rcc.c **** 
 252:lib/src/stm32f10x_rcc.c ****   /* Reset CFGR2 register */
 253:lib/src/stm32f10x_rcc.c ****   RCC->CFGR2 = 0x00000000;      
 254:lib/src/stm32f10x_rcc.c **** #else
 255:lib/src/stm32f10x_rcc.c ****   /* Disable all interrupts and clear pending bits  */
 256:lib/src/stm32f10x_rcc.c ****   RCC->CIR = 0x009F0000;
  53              		.loc 1 256 0
  54 002e 4FF41F02 		mov	r2, #10420224
  55 0032 9A60     		str	r2, [r3, #8]
  56 0034 7047     		bx	lr
  57              	.L3:
  58 0036 00BF     		.align	2
  59              	.L2:
  60 0038 00100240 		.word	1073876992
  61 003c 0000FFF8 		.word	-117506048
  62              		.cfi_endproc
  63              	.LFE64:
  64              		.size	RCC_DeInit, .-RCC_DeInit
  65              		.align	1
  66              		.global	RCC_HSEConfig
  67              		.syntax unified
  68              		.thumb
  69              		.thumb_func
  70              		.fpu softvfp
  71              		.type	RCC_HSEConfig, %function
  72              	RCC_HSEConfig:
  73              	.LFB65:
 257:lib/src/stm32f10x_rcc.c **** #endif /* STM32F10X_CL */
 258:lib/src/stm32f10x_rcc.c **** 
 259:lib/src/stm32f10x_rcc.c **** }
 260:lib/src/stm32f10x_rcc.c **** 
 261:lib/src/stm32f10x_rcc.c **** /**
 262:lib/src/stm32f10x_rcc.c ****   * @brief  Configures the External High Speed oscillator (HSE).
 263:lib/src/stm32f10x_rcc.c ****   * @note   HSE can not be stopped if it is used directly or through the PLL as system clock.
 264:lib/src/stm32f10x_rcc.c ****   * @param  RCC_HSE: specifies the new state of the HSE.
 265:lib/src/stm32f10x_rcc.c ****   *   This parameter can be one of the following values:
 266:lib/src/stm32f10x_rcc.c ****   *     @arg RCC_HSE_OFF: HSE oscillator OFF
 267:lib/src/stm32f10x_rcc.c ****   *     @arg RCC_HSE_ON: HSE oscillator ON
 268:lib/src/stm32f10x_rcc.c ****   *     @arg RCC_HSE_Bypass: HSE oscillator bypassed with external clock
 269:lib/src/stm32f10x_rcc.c ****   * @retval None
ARM GAS  /tmp/cc3TVymc.s 			page 7


 270:lib/src/stm32f10x_rcc.c ****   */
 271:lib/src/stm32f10x_rcc.c **** void RCC_HSEConfig(uint32_t RCC_HSE)
 272:lib/src/stm32f10x_rcc.c **** {
  74              		.loc 1 272 0
  75              		.cfi_startproc
  76              		@ args = 0, pretend = 0, frame = 0
  77              		@ frame_needed = 0, uses_anonymous_args = 0
  78              		@ link register save eliminated.
  79              	.LVL0:
 273:lib/src/stm32f10x_rcc.c ****   /* Check the parameters */
 274:lib/src/stm32f10x_rcc.c ****   assert_param(IS_RCC_HSE(RCC_HSE));
 275:lib/src/stm32f10x_rcc.c ****   /* Reset HSEON and HSEBYP bits before configuring the HSE ------------------*/
 276:lib/src/stm32f10x_rcc.c ****   /* Reset HSEON bit */
 277:lib/src/stm32f10x_rcc.c ****   RCC->CR &= CR_HSEON_Reset;
  80              		.loc 1 277 0
  81 0040 0D4B     		ldr	r3, .L8
  82 0042 1A68     		ldr	r2, [r3]
  83 0044 22F48032 		bic	r2, r2, #65536
  84 0048 1A60     		str	r2, [r3]
 278:lib/src/stm32f10x_rcc.c ****   /* Reset HSEBYP bit */
 279:lib/src/stm32f10x_rcc.c ****   RCC->CR &= CR_HSEBYP_Reset;
  85              		.loc 1 279 0
  86 004a 1A68     		ldr	r2, [r3]
  87 004c 22F48022 		bic	r2, r2, #262144
  88 0050 1A60     		str	r2, [r3]
 280:lib/src/stm32f10x_rcc.c ****   /* Configure HSE (RCC_HSE_OFF is already covered by the code section above) */
 281:lib/src/stm32f10x_rcc.c ****   switch(RCC_HSE)
  89              		.loc 1 281 0
  90 0052 B0F5803F 		cmp	r0, #65536
  91 0056 03D0     		beq	.L6
  92 0058 B0F5802F 		cmp	r0, #262144
  93 005c 06D0     		beq	.L7
  94 005e 7047     		bx	lr
  95              	.L6:
 282:lib/src/stm32f10x_rcc.c ****   {
 283:lib/src/stm32f10x_rcc.c ****     case RCC_HSE_ON:
 284:lib/src/stm32f10x_rcc.c ****       /* Set HSEON bit */
 285:lib/src/stm32f10x_rcc.c ****       RCC->CR |= CR_HSEON_Set;
  96              		.loc 1 285 0
  97 0060 054A     		ldr	r2, .L8
  98 0062 1368     		ldr	r3, [r2]
  99 0064 43F48033 		orr	r3, r3, #65536
 100 0068 1360     		str	r3, [r2]
 286:lib/src/stm32f10x_rcc.c ****       break;
 101              		.loc 1 286 0
 102 006a 7047     		bx	lr
 103              	.L7:
 287:lib/src/stm32f10x_rcc.c ****       
 288:lib/src/stm32f10x_rcc.c ****     case RCC_HSE_Bypass:
 289:lib/src/stm32f10x_rcc.c ****       /* Set HSEBYP and HSEON bits */
 290:lib/src/stm32f10x_rcc.c ****       RCC->CR |= CR_HSEBYP_Set | CR_HSEON_Set;
 104              		.loc 1 290 0
 105 006c 024A     		ldr	r2, .L8
 106 006e 1368     		ldr	r3, [r2]
 107 0070 43F4A023 		orr	r3, r3, #327680
 108 0074 1360     		str	r3, [r2]
 109 0076 7047     		bx	lr
ARM GAS  /tmp/cc3TVymc.s 			page 8


 110              	.L9:
 111              		.align	2
 112              	.L8:
 113 0078 00100240 		.word	1073876992
 114              		.cfi_endproc
 115              	.LFE65:
 116              		.size	RCC_HSEConfig, .-RCC_HSEConfig
 117              		.align	1
 118              		.global	RCC_AdjustHSICalibrationValue
 119              		.syntax unified
 120              		.thumb
 121              		.thumb_func
 122              		.fpu softvfp
 123              		.type	RCC_AdjustHSICalibrationValue, %function
 124              	RCC_AdjustHSICalibrationValue:
 125              	.LFB67:
 291:lib/src/stm32f10x_rcc.c ****       break;
 292:lib/src/stm32f10x_rcc.c ****       
 293:lib/src/stm32f10x_rcc.c ****     default:
 294:lib/src/stm32f10x_rcc.c ****       break;
 295:lib/src/stm32f10x_rcc.c ****   }
 296:lib/src/stm32f10x_rcc.c **** }
 297:lib/src/stm32f10x_rcc.c **** 
 298:lib/src/stm32f10x_rcc.c **** /**
 299:lib/src/stm32f10x_rcc.c ****   * @brief  Waits for HSE start-up.
 300:lib/src/stm32f10x_rcc.c ****   * @param  None
 301:lib/src/stm32f10x_rcc.c ****   * @retval An ErrorStatus enumuration value:
 302:lib/src/stm32f10x_rcc.c ****   * - SUCCESS: HSE oscillator is stable and ready to use
 303:lib/src/stm32f10x_rcc.c ****   * - ERROR: HSE oscillator not yet ready
 304:lib/src/stm32f10x_rcc.c ****   */
 305:lib/src/stm32f10x_rcc.c **** ErrorStatus RCC_WaitForHSEStartUp(void)
 306:lib/src/stm32f10x_rcc.c **** {
 307:lib/src/stm32f10x_rcc.c ****   __IO uint32_t StartUpCounter = 0;
 308:lib/src/stm32f10x_rcc.c ****   ErrorStatus status = ERROR;
 309:lib/src/stm32f10x_rcc.c ****   FlagStatus HSEStatus = RESET;
 310:lib/src/stm32f10x_rcc.c ****   
 311:lib/src/stm32f10x_rcc.c ****   /* Wait till HSE is ready and if Time out is reached exit */
 312:lib/src/stm32f10x_rcc.c ****   do
 313:lib/src/stm32f10x_rcc.c ****   {
 314:lib/src/stm32f10x_rcc.c ****     HSEStatus = RCC_GetFlagStatus(RCC_FLAG_HSERDY);
 315:lib/src/stm32f10x_rcc.c ****     StartUpCounter++;  
 316:lib/src/stm32f10x_rcc.c ****   } while((StartUpCounter != HSE_STARTUP_TIMEOUT) && (HSEStatus == RESET));
 317:lib/src/stm32f10x_rcc.c ****   
 318:lib/src/stm32f10x_rcc.c ****   if (RCC_GetFlagStatus(RCC_FLAG_HSERDY) != RESET)
 319:lib/src/stm32f10x_rcc.c ****   {
 320:lib/src/stm32f10x_rcc.c ****     status = SUCCESS;
 321:lib/src/stm32f10x_rcc.c ****   }
 322:lib/src/stm32f10x_rcc.c ****   else
 323:lib/src/stm32f10x_rcc.c ****   {
 324:lib/src/stm32f10x_rcc.c ****     status = ERROR;
 325:lib/src/stm32f10x_rcc.c ****   }  
 326:lib/src/stm32f10x_rcc.c ****   return (status);
 327:lib/src/stm32f10x_rcc.c **** }
 328:lib/src/stm32f10x_rcc.c **** 
 329:lib/src/stm32f10x_rcc.c **** /**
 330:lib/src/stm32f10x_rcc.c ****   * @brief  Adjusts the Internal High Speed oscillator (HSI) calibration value.
 331:lib/src/stm32f10x_rcc.c ****   * @param  HSICalibrationValue: specifies the calibration trimming value.
ARM GAS  /tmp/cc3TVymc.s 			page 9


 332:lib/src/stm32f10x_rcc.c ****   *   This parameter must be a number between 0 and 0x1F.
 333:lib/src/stm32f10x_rcc.c ****   * @retval None
 334:lib/src/stm32f10x_rcc.c ****   */
 335:lib/src/stm32f10x_rcc.c **** void RCC_AdjustHSICalibrationValue(uint8_t HSICalibrationValue)
 336:lib/src/stm32f10x_rcc.c **** {
 126              		.loc 1 336 0
 127              		.cfi_startproc
 128              		@ args = 0, pretend = 0, frame = 0
 129              		@ frame_needed = 0, uses_anonymous_args = 0
 130              		@ link register save eliminated.
 131              	.LVL1:
 337:lib/src/stm32f10x_rcc.c ****   uint32_t tmpreg = 0;
 338:lib/src/stm32f10x_rcc.c ****   /* Check the parameters */
 339:lib/src/stm32f10x_rcc.c ****   assert_param(IS_RCC_CALIBRATION_VALUE(HSICalibrationValue));
 340:lib/src/stm32f10x_rcc.c ****   tmpreg = RCC->CR;
 132              		.loc 1 340 0
 133 007c 034A     		ldr	r2, .L11
 134 007e 1368     		ldr	r3, [r2]
 135              	.LVL2:
 341:lib/src/stm32f10x_rcc.c ****   /* Clear HSITRIM[4:0] bits */
 342:lib/src/stm32f10x_rcc.c ****   tmpreg &= CR_HSITRIM_Mask;
 136              		.loc 1 342 0
 137 0080 23F0F803 		bic	r3, r3, #248
 138              	.LVL3:
 343:lib/src/stm32f10x_rcc.c ****   /* Set the HSITRIM[4:0] bits according to HSICalibrationValue value */
 344:lib/src/stm32f10x_rcc.c ****   tmpreg |= (uint32_t)HSICalibrationValue << 3;
 139              		.loc 1 344 0
 140 0084 43EAC000 		orr	r0, r3, r0, lsl #3
 141              	.LVL4:
 345:lib/src/stm32f10x_rcc.c ****   /* Store the new value */
 346:lib/src/stm32f10x_rcc.c ****   RCC->CR = tmpreg;
 142              		.loc 1 346 0
 143 0088 1060     		str	r0, [r2]
 144 008a 7047     		bx	lr
 145              	.L12:
 146              		.align	2
 147              	.L11:
 148 008c 00100240 		.word	1073876992
 149              		.cfi_endproc
 150              	.LFE67:
 151              		.size	RCC_AdjustHSICalibrationValue, .-RCC_AdjustHSICalibrationValue
 152              		.align	1
 153              		.global	RCC_HSICmd
 154              		.syntax unified
 155              		.thumb
 156              		.thumb_func
 157              		.fpu softvfp
 158              		.type	RCC_HSICmd, %function
 159              	RCC_HSICmd:
 160              	.LFB68:
 347:lib/src/stm32f10x_rcc.c **** }
 348:lib/src/stm32f10x_rcc.c **** 
 349:lib/src/stm32f10x_rcc.c **** /**
 350:lib/src/stm32f10x_rcc.c ****   * @brief  Enables or disables the Internal High Speed oscillator (HSI).
 351:lib/src/stm32f10x_rcc.c ****   * @note   HSI can not be stopped if it is used directly or through the PLL as system clock.
 352:lib/src/stm32f10x_rcc.c ****   * @param  NewState: new state of the HSI. This parameter can be: ENABLE or DISABLE.
 353:lib/src/stm32f10x_rcc.c ****   * @retval None
ARM GAS  /tmp/cc3TVymc.s 			page 10


 354:lib/src/stm32f10x_rcc.c ****   */
 355:lib/src/stm32f10x_rcc.c **** void RCC_HSICmd(FunctionalState NewState)
 356:lib/src/stm32f10x_rcc.c **** {
 161              		.loc 1 356 0
 162              		.cfi_startproc
 163              		@ args = 0, pretend = 0, frame = 0
 164              		@ frame_needed = 0, uses_anonymous_args = 0
 165              		@ link register save eliminated.
 166              	.LVL5:
 357:lib/src/stm32f10x_rcc.c ****   /* Check the parameters */
 358:lib/src/stm32f10x_rcc.c ****   assert_param(IS_FUNCTIONAL_STATE(NewState));
 359:lib/src/stm32f10x_rcc.c ****   *(__IO uint32_t *) CR_HSION_BB = (uint32_t)NewState;
 167              		.loc 1 359 0
 168 0090 014B     		ldr	r3, .L14
 169 0092 1860     		str	r0, [r3]
 170 0094 7047     		bx	lr
 171              	.L15:
 172 0096 00BF     		.align	2
 173              	.L14:
 174 0098 00004242 		.word	1111621632
 175              		.cfi_endproc
 176              	.LFE68:
 177              		.size	RCC_HSICmd, .-RCC_HSICmd
 178              		.align	1
 179              		.global	RCC_PLLConfig
 180              		.syntax unified
 181              		.thumb
 182              		.thumb_func
 183              		.fpu softvfp
 184              		.type	RCC_PLLConfig, %function
 185              	RCC_PLLConfig:
 186              	.LFB69:
 360:lib/src/stm32f10x_rcc.c **** }
 361:lib/src/stm32f10x_rcc.c **** 
 362:lib/src/stm32f10x_rcc.c **** /**
 363:lib/src/stm32f10x_rcc.c ****   * @brief  Configures the PLL clock source and multiplication factor.
 364:lib/src/stm32f10x_rcc.c ****   * @note   This function must be used only when the PLL is disabled.
 365:lib/src/stm32f10x_rcc.c ****   * @param  RCC_PLLSource: specifies the PLL entry clock source.
 366:lib/src/stm32f10x_rcc.c ****   *   For @b STM32_Connectivity_line_devices or @b STM32_Value_line_devices, 
 367:lib/src/stm32f10x_rcc.c ****   *   this parameter can be one of the following values:
 368:lib/src/stm32f10x_rcc.c ****   *     @arg RCC_PLLSource_HSI_Div2: HSI oscillator clock divided by 2 selected as PLL clock entry
 369:lib/src/stm32f10x_rcc.c ****   *     @arg RCC_PLLSource_PREDIV1: PREDIV1 clock selected as PLL clock entry
 370:lib/src/stm32f10x_rcc.c ****   *   For @b other_STM32_devices, this parameter can be one of the following values:
 371:lib/src/stm32f10x_rcc.c ****   *     @arg RCC_PLLSource_HSI_Div2: HSI oscillator clock divided by 2 selected as PLL clock entry
 372:lib/src/stm32f10x_rcc.c ****   *     @arg RCC_PLLSource_HSE_Div1: HSE oscillator clock selected as PLL clock entry
 373:lib/src/stm32f10x_rcc.c ****   *     @arg RCC_PLLSource_HSE_Div2: HSE oscillator clock divided by 2 selected as PLL clock entry 
 374:lib/src/stm32f10x_rcc.c ****   * @param  RCC_PLLMul: specifies the PLL multiplication factor.
 375:lib/src/stm32f10x_rcc.c ****   *   For @b STM32_Connectivity_line_devices, this parameter can be RCC_PLLMul_x where x:{[4,9], 6_
 376:lib/src/stm32f10x_rcc.c ****   *   For @b other_STM32_devices, this parameter can be RCC_PLLMul_x where x:[2,16]  
 377:lib/src/stm32f10x_rcc.c ****   * @retval None
 378:lib/src/stm32f10x_rcc.c ****   */
 379:lib/src/stm32f10x_rcc.c **** void RCC_PLLConfig(uint32_t RCC_PLLSource, uint32_t RCC_PLLMul)
 380:lib/src/stm32f10x_rcc.c **** {
 187              		.loc 1 380 0
 188              		.cfi_startproc
 189              		@ args = 0, pretend = 0, frame = 0
 190              		@ frame_needed = 0, uses_anonymous_args = 0
ARM GAS  /tmp/cc3TVymc.s 			page 11


 191              		@ link register save eliminated.
 192              	.LVL6:
 381:lib/src/stm32f10x_rcc.c ****   uint32_t tmpreg = 0;
 382:lib/src/stm32f10x_rcc.c **** 
 383:lib/src/stm32f10x_rcc.c ****   /* Check the parameters */
 384:lib/src/stm32f10x_rcc.c ****   assert_param(IS_RCC_PLL_SOURCE(RCC_PLLSource));
 385:lib/src/stm32f10x_rcc.c ****   assert_param(IS_RCC_PLL_MUL(RCC_PLLMul));
 386:lib/src/stm32f10x_rcc.c **** 
 387:lib/src/stm32f10x_rcc.c ****   tmpreg = RCC->CFGR;
 193              		.loc 1 387 0
 194 009c 034A     		ldr	r2, .L17
 195 009e 5368     		ldr	r3, [r2, #4]
 196              	.LVL7:
 388:lib/src/stm32f10x_rcc.c ****   /* Clear PLLSRC, PLLXTPRE and PLLMUL[3:0] bits */
 389:lib/src/stm32f10x_rcc.c ****   tmpreg &= CFGR_PLL_Mask;
 197              		.loc 1 389 0
 198 00a0 23F47C13 		bic	r3, r3, #4128768
 199              	.LVL8:
 200 00a4 1943     		orrs	r1, r1, r3
 201              	.LVL9:
 390:lib/src/stm32f10x_rcc.c ****   /* Set the PLL configuration bits */
 391:lib/src/stm32f10x_rcc.c ****   tmpreg |= RCC_PLLSource | RCC_PLLMul;
 202              		.loc 1 391 0
 203 00a6 0143     		orrs	r1, r1, r0
 204              	.LVL10:
 392:lib/src/stm32f10x_rcc.c ****   /* Store the new value */
 393:lib/src/stm32f10x_rcc.c ****   RCC->CFGR = tmpreg;
 205              		.loc 1 393 0
 206 00a8 5160     		str	r1, [r2, #4]
 207 00aa 7047     		bx	lr
 208              	.L18:
 209              		.align	2
 210              	.L17:
 211 00ac 00100240 		.word	1073876992
 212              		.cfi_endproc
 213              	.LFE69:
 214              		.size	RCC_PLLConfig, .-RCC_PLLConfig
 215              		.align	1
 216              		.global	RCC_PLLCmd
 217              		.syntax unified
 218              		.thumb
 219              		.thumb_func
 220              		.fpu softvfp
 221              		.type	RCC_PLLCmd, %function
 222              	RCC_PLLCmd:
 223              	.LFB70:
 394:lib/src/stm32f10x_rcc.c **** }
 395:lib/src/stm32f10x_rcc.c **** 
 396:lib/src/stm32f10x_rcc.c **** /**
 397:lib/src/stm32f10x_rcc.c ****   * @brief  Enables or disables the PLL.
 398:lib/src/stm32f10x_rcc.c ****   * @note   The PLL can not be disabled if it is used as system clock.
 399:lib/src/stm32f10x_rcc.c ****   * @param  NewState: new state of the PLL. This parameter can be: ENABLE or DISABLE.
 400:lib/src/stm32f10x_rcc.c ****   * @retval None
 401:lib/src/stm32f10x_rcc.c ****   */
 402:lib/src/stm32f10x_rcc.c **** void RCC_PLLCmd(FunctionalState NewState)
 403:lib/src/stm32f10x_rcc.c **** {
 224              		.loc 1 403 0
ARM GAS  /tmp/cc3TVymc.s 			page 12


 225              		.cfi_startproc
 226              		@ args = 0, pretend = 0, frame = 0
 227              		@ frame_needed = 0, uses_anonymous_args = 0
 228              		@ link register save eliminated.
 229              	.LVL11:
 404:lib/src/stm32f10x_rcc.c ****   /* Check the parameters */
 405:lib/src/stm32f10x_rcc.c ****   assert_param(IS_FUNCTIONAL_STATE(NewState));
 406:lib/src/stm32f10x_rcc.c **** 
 407:lib/src/stm32f10x_rcc.c ****   *(__IO uint32_t *) CR_PLLON_BB = (uint32_t)NewState;
 230              		.loc 1 407 0
 231 00b0 014B     		ldr	r3, .L20
 232 00b2 1860     		str	r0, [r3]
 233 00b4 7047     		bx	lr
 234              	.L21:
 235 00b6 00BF     		.align	2
 236              	.L20:
 237 00b8 60004242 		.word	1111621728
 238              		.cfi_endproc
 239              	.LFE70:
 240              		.size	RCC_PLLCmd, .-RCC_PLLCmd
 241              		.align	1
 242              		.global	RCC_SYSCLKConfig
 243              		.syntax unified
 244              		.thumb
 245              		.thumb_func
 246              		.fpu softvfp
 247              		.type	RCC_SYSCLKConfig, %function
 248              	RCC_SYSCLKConfig:
 249              	.LFB71:
 408:lib/src/stm32f10x_rcc.c **** }
 409:lib/src/stm32f10x_rcc.c **** 
 410:lib/src/stm32f10x_rcc.c **** #if defined (STM32F10X_LD_VL) || defined (STM32F10X_MD_VL) || defined (STM32F10X_HD_VL) || defined 
 411:lib/src/stm32f10x_rcc.c **** /**
 412:lib/src/stm32f10x_rcc.c ****   * @brief  Configures the PREDIV1 division factor.
 413:lib/src/stm32f10x_rcc.c ****   * @note 
 414:lib/src/stm32f10x_rcc.c ****   *   - This function must be used only when the PLL is disabled.
 415:lib/src/stm32f10x_rcc.c ****   *   - This function applies only to STM32 Connectivity line and Value line 
 416:lib/src/stm32f10x_rcc.c ****   *     devices.
 417:lib/src/stm32f10x_rcc.c ****   * @param  RCC_PREDIV1_Source: specifies the PREDIV1 clock source.
 418:lib/src/stm32f10x_rcc.c ****   *   This parameter can be one of the following values:
 419:lib/src/stm32f10x_rcc.c ****   *     @arg RCC_PREDIV1_Source_HSE: HSE selected as PREDIV1 clock
 420:lib/src/stm32f10x_rcc.c ****   *     @arg RCC_PREDIV1_Source_PLL2: PLL2 selected as PREDIV1 clock
 421:lib/src/stm32f10x_rcc.c ****   * @note 
 422:lib/src/stm32f10x_rcc.c ****   *   For @b STM32_Value_line_devices this parameter is always RCC_PREDIV1_Source_HSE  
 423:lib/src/stm32f10x_rcc.c ****   * @param  RCC_PREDIV1_Div: specifies the PREDIV1 clock division factor.
 424:lib/src/stm32f10x_rcc.c ****   *   This parameter can be RCC_PREDIV1_Divx where x:[1,16]
 425:lib/src/stm32f10x_rcc.c ****   * @retval None
 426:lib/src/stm32f10x_rcc.c ****   */
 427:lib/src/stm32f10x_rcc.c **** void RCC_PREDIV1Config(uint32_t RCC_PREDIV1_Source, uint32_t RCC_PREDIV1_Div)
 428:lib/src/stm32f10x_rcc.c **** {
 429:lib/src/stm32f10x_rcc.c ****   uint32_t tmpreg = 0;
 430:lib/src/stm32f10x_rcc.c ****   
 431:lib/src/stm32f10x_rcc.c ****   /* Check the parameters */
 432:lib/src/stm32f10x_rcc.c ****   assert_param(IS_RCC_PREDIV1_SOURCE(RCC_PREDIV1_Source));
 433:lib/src/stm32f10x_rcc.c ****   assert_param(IS_RCC_PREDIV1(RCC_PREDIV1_Div));
 434:lib/src/stm32f10x_rcc.c **** 
 435:lib/src/stm32f10x_rcc.c ****   tmpreg = RCC->CFGR2;
ARM GAS  /tmp/cc3TVymc.s 			page 13


 436:lib/src/stm32f10x_rcc.c ****   /* Clear PREDIV1[3:0] and PREDIV1SRC bits */
 437:lib/src/stm32f10x_rcc.c ****   tmpreg &= ~(CFGR2_PREDIV1 | CFGR2_PREDIV1SRC);
 438:lib/src/stm32f10x_rcc.c ****   /* Set the PREDIV1 clock source and division factor */
 439:lib/src/stm32f10x_rcc.c ****   tmpreg |= RCC_PREDIV1_Source | RCC_PREDIV1_Div ;
 440:lib/src/stm32f10x_rcc.c ****   /* Store the new value */
 441:lib/src/stm32f10x_rcc.c ****   RCC->CFGR2 = tmpreg;
 442:lib/src/stm32f10x_rcc.c **** }
 443:lib/src/stm32f10x_rcc.c **** #endif
 444:lib/src/stm32f10x_rcc.c **** 
 445:lib/src/stm32f10x_rcc.c **** #ifdef STM32F10X_CL
 446:lib/src/stm32f10x_rcc.c **** /**
 447:lib/src/stm32f10x_rcc.c ****   * @brief  Configures the PREDIV2 division factor.
 448:lib/src/stm32f10x_rcc.c ****   * @note 
 449:lib/src/stm32f10x_rcc.c ****   *   - This function must be used only when both PLL2 and PLL3 are disabled.
 450:lib/src/stm32f10x_rcc.c ****   *   - This function applies only to STM32 Connectivity line devices.
 451:lib/src/stm32f10x_rcc.c ****   * @param  RCC_PREDIV2_Div: specifies the PREDIV2 clock division factor.
 452:lib/src/stm32f10x_rcc.c ****   *   This parameter can be RCC_PREDIV2_Divx where x:[1,16]
 453:lib/src/stm32f10x_rcc.c ****   * @retval None
 454:lib/src/stm32f10x_rcc.c ****   */
 455:lib/src/stm32f10x_rcc.c **** void RCC_PREDIV2Config(uint32_t RCC_PREDIV2_Div)
 456:lib/src/stm32f10x_rcc.c **** {
 457:lib/src/stm32f10x_rcc.c ****   uint32_t tmpreg = 0;
 458:lib/src/stm32f10x_rcc.c **** 
 459:lib/src/stm32f10x_rcc.c ****   /* Check the parameters */
 460:lib/src/stm32f10x_rcc.c ****   assert_param(IS_RCC_PREDIV2(RCC_PREDIV2_Div));
 461:lib/src/stm32f10x_rcc.c **** 
 462:lib/src/stm32f10x_rcc.c ****   tmpreg = RCC->CFGR2;
 463:lib/src/stm32f10x_rcc.c ****   /* Clear PREDIV2[3:0] bits */
 464:lib/src/stm32f10x_rcc.c ****   tmpreg &= ~CFGR2_PREDIV2;
 465:lib/src/stm32f10x_rcc.c ****   /* Set the PREDIV2 division factor */
 466:lib/src/stm32f10x_rcc.c ****   tmpreg |= RCC_PREDIV2_Div;
 467:lib/src/stm32f10x_rcc.c ****   /* Store the new value */
 468:lib/src/stm32f10x_rcc.c ****   RCC->CFGR2 = tmpreg;
 469:lib/src/stm32f10x_rcc.c **** }
 470:lib/src/stm32f10x_rcc.c **** 
 471:lib/src/stm32f10x_rcc.c **** /**
 472:lib/src/stm32f10x_rcc.c ****   * @brief  Configures the PLL2 multiplication factor.
 473:lib/src/stm32f10x_rcc.c ****   * @note
 474:lib/src/stm32f10x_rcc.c ****   *   - This function must be used only when the PLL2 is disabled.
 475:lib/src/stm32f10x_rcc.c ****   *   - This function applies only to STM32 Connectivity line devices.
 476:lib/src/stm32f10x_rcc.c ****   * @param  RCC_PLL2Mul: specifies the PLL2 multiplication factor.
 477:lib/src/stm32f10x_rcc.c ****   *   This parameter can be RCC_PLL2Mul_x where x:{[8,14], 16, 20}
 478:lib/src/stm32f10x_rcc.c ****   * @retval None
 479:lib/src/stm32f10x_rcc.c ****   */
 480:lib/src/stm32f10x_rcc.c **** void RCC_PLL2Config(uint32_t RCC_PLL2Mul)
 481:lib/src/stm32f10x_rcc.c **** {
 482:lib/src/stm32f10x_rcc.c ****   uint32_t tmpreg = 0;
 483:lib/src/stm32f10x_rcc.c **** 
 484:lib/src/stm32f10x_rcc.c ****   /* Check the parameters */
 485:lib/src/stm32f10x_rcc.c ****   assert_param(IS_RCC_PLL2_MUL(RCC_PLL2Mul));
 486:lib/src/stm32f10x_rcc.c **** 
 487:lib/src/stm32f10x_rcc.c ****   tmpreg = RCC->CFGR2;
 488:lib/src/stm32f10x_rcc.c ****   /* Clear PLL2Mul[3:0] bits */
 489:lib/src/stm32f10x_rcc.c ****   tmpreg &= ~CFGR2_PLL2MUL;
 490:lib/src/stm32f10x_rcc.c ****   /* Set the PLL2 configuration bits */
 491:lib/src/stm32f10x_rcc.c ****   tmpreg |= RCC_PLL2Mul;
 492:lib/src/stm32f10x_rcc.c ****   /* Store the new value */
ARM GAS  /tmp/cc3TVymc.s 			page 14


 493:lib/src/stm32f10x_rcc.c ****   RCC->CFGR2 = tmpreg;
 494:lib/src/stm32f10x_rcc.c **** }
 495:lib/src/stm32f10x_rcc.c **** 
 496:lib/src/stm32f10x_rcc.c **** 
 497:lib/src/stm32f10x_rcc.c **** /**
 498:lib/src/stm32f10x_rcc.c ****   * @brief  Enables or disables the PLL2.
 499:lib/src/stm32f10x_rcc.c ****   * @note 
 500:lib/src/stm32f10x_rcc.c ****   *   - The PLL2 can not be disabled if it is used indirectly as system clock
 501:lib/src/stm32f10x_rcc.c ****   *     (i.e. it is used as PLL clock entry that is used as System clock).
 502:lib/src/stm32f10x_rcc.c ****   *   - This function applies only to STM32 Connectivity line devices.
 503:lib/src/stm32f10x_rcc.c ****   * @param  NewState: new state of the PLL2. This parameter can be: ENABLE or DISABLE.
 504:lib/src/stm32f10x_rcc.c ****   * @retval None
 505:lib/src/stm32f10x_rcc.c ****   */
 506:lib/src/stm32f10x_rcc.c **** void RCC_PLL2Cmd(FunctionalState NewState)
 507:lib/src/stm32f10x_rcc.c **** {
 508:lib/src/stm32f10x_rcc.c ****   /* Check the parameters */
 509:lib/src/stm32f10x_rcc.c ****   assert_param(IS_FUNCTIONAL_STATE(NewState));
 510:lib/src/stm32f10x_rcc.c **** 
 511:lib/src/stm32f10x_rcc.c ****   *(__IO uint32_t *) CR_PLL2ON_BB = (uint32_t)NewState;
 512:lib/src/stm32f10x_rcc.c **** }
 513:lib/src/stm32f10x_rcc.c **** 
 514:lib/src/stm32f10x_rcc.c **** 
 515:lib/src/stm32f10x_rcc.c **** /**
 516:lib/src/stm32f10x_rcc.c ****   * @brief  Configures the PLL3 multiplication factor.
 517:lib/src/stm32f10x_rcc.c ****   * @note 
 518:lib/src/stm32f10x_rcc.c ****   *   - This function must be used only when the PLL3 is disabled.
 519:lib/src/stm32f10x_rcc.c ****   *   - This function applies only to STM32 Connectivity line devices.
 520:lib/src/stm32f10x_rcc.c ****   * @param  RCC_PLL3Mul: specifies the PLL3 multiplication factor.
 521:lib/src/stm32f10x_rcc.c ****   *   This parameter can be RCC_PLL3Mul_x where x:{[8,14], 16, 20}
 522:lib/src/stm32f10x_rcc.c ****   * @retval None
 523:lib/src/stm32f10x_rcc.c ****   */
 524:lib/src/stm32f10x_rcc.c **** void RCC_PLL3Config(uint32_t RCC_PLL3Mul)
 525:lib/src/stm32f10x_rcc.c **** {
 526:lib/src/stm32f10x_rcc.c ****   uint32_t tmpreg = 0;
 527:lib/src/stm32f10x_rcc.c **** 
 528:lib/src/stm32f10x_rcc.c ****   /* Check the parameters */
 529:lib/src/stm32f10x_rcc.c ****   assert_param(IS_RCC_PLL3_MUL(RCC_PLL3Mul));
 530:lib/src/stm32f10x_rcc.c **** 
 531:lib/src/stm32f10x_rcc.c ****   tmpreg = RCC->CFGR2;
 532:lib/src/stm32f10x_rcc.c ****   /* Clear PLL3Mul[3:0] bits */
 533:lib/src/stm32f10x_rcc.c ****   tmpreg &= ~CFGR2_PLL3MUL;
 534:lib/src/stm32f10x_rcc.c ****   /* Set the PLL3 configuration bits */
 535:lib/src/stm32f10x_rcc.c ****   tmpreg |= RCC_PLL3Mul;
 536:lib/src/stm32f10x_rcc.c ****   /* Store the new value */
 537:lib/src/stm32f10x_rcc.c ****   RCC->CFGR2 = tmpreg;
 538:lib/src/stm32f10x_rcc.c **** }
 539:lib/src/stm32f10x_rcc.c **** 
 540:lib/src/stm32f10x_rcc.c **** 
 541:lib/src/stm32f10x_rcc.c **** /**
 542:lib/src/stm32f10x_rcc.c ****   * @brief  Enables or disables the PLL3.
 543:lib/src/stm32f10x_rcc.c ****   * @note   This function applies only to STM32 Connectivity line devices.
 544:lib/src/stm32f10x_rcc.c ****   * @param  NewState: new state of the PLL3. This parameter can be: ENABLE or DISABLE.
 545:lib/src/stm32f10x_rcc.c ****   * @retval None
 546:lib/src/stm32f10x_rcc.c ****   */
 547:lib/src/stm32f10x_rcc.c **** void RCC_PLL3Cmd(FunctionalState NewState)
 548:lib/src/stm32f10x_rcc.c **** {
 549:lib/src/stm32f10x_rcc.c ****   /* Check the parameters */
ARM GAS  /tmp/cc3TVymc.s 			page 15


 550:lib/src/stm32f10x_rcc.c **** 
 551:lib/src/stm32f10x_rcc.c ****   assert_param(IS_FUNCTIONAL_STATE(NewState));
 552:lib/src/stm32f10x_rcc.c ****   *(__IO uint32_t *) CR_PLL3ON_BB = (uint32_t)NewState;
 553:lib/src/stm32f10x_rcc.c **** }
 554:lib/src/stm32f10x_rcc.c **** #endif /* STM32F10X_CL */
 555:lib/src/stm32f10x_rcc.c **** 
 556:lib/src/stm32f10x_rcc.c **** /**
 557:lib/src/stm32f10x_rcc.c ****   * @brief  Configures the system clock (SYSCLK).
 558:lib/src/stm32f10x_rcc.c ****   * @param  RCC_SYSCLKSource: specifies the clock source used as system clock.
 559:lib/src/stm32f10x_rcc.c ****   *   This parameter can be one of the following values:
 560:lib/src/stm32f10x_rcc.c ****   *     @arg RCC_SYSCLKSource_HSI: HSI selected as system clock
 561:lib/src/stm32f10x_rcc.c ****   *     @arg RCC_SYSCLKSource_HSE: HSE selected as system clock
 562:lib/src/stm32f10x_rcc.c ****   *     @arg RCC_SYSCLKSource_PLLCLK: PLL selected as system clock
 563:lib/src/stm32f10x_rcc.c ****   * @retval None
 564:lib/src/stm32f10x_rcc.c ****   */
 565:lib/src/stm32f10x_rcc.c **** void RCC_SYSCLKConfig(uint32_t RCC_SYSCLKSource)
 566:lib/src/stm32f10x_rcc.c **** {
 250              		.loc 1 566 0
 251              		.cfi_startproc
 252              		@ args = 0, pretend = 0, frame = 0
 253              		@ frame_needed = 0, uses_anonymous_args = 0
 254              		@ link register save eliminated.
 255              	.LVL12:
 567:lib/src/stm32f10x_rcc.c ****   uint32_t tmpreg = 0;
 568:lib/src/stm32f10x_rcc.c ****   /* Check the parameters */
 569:lib/src/stm32f10x_rcc.c ****   assert_param(IS_RCC_SYSCLK_SOURCE(RCC_SYSCLKSource));
 570:lib/src/stm32f10x_rcc.c ****   tmpreg = RCC->CFGR;
 256              		.loc 1 570 0
 257 00bc 034A     		ldr	r2, .L23
 258 00be 5368     		ldr	r3, [r2, #4]
 259              	.LVL13:
 571:lib/src/stm32f10x_rcc.c ****   /* Clear SW[1:0] bits */
 572:lib/src/stm32f10x_rcc.c ****   tmpreg &= CFGR_SW_Mask;
 260              		.loc 1 572 0
 261 00c0 23F00303 		bic	r3, r3, #3
 262              	.LVL14:
 573:lib/src/stm32f10x_rcc.c ****   /* Set SW[1:0] bits according to RCC_SYSCLKSource value */
 574:lib/src/stm32f10x_rcc.c ****   tmpreg |= RCC_SYSCLKSource;
 263              		.loc 1 574 0
 264 00c4 1843     		orrs	r0, r0, r3
 265              	.LVL15:
 575:lib/src/stm32f10x_rcc.c ****   /* Store the new value */
 576:lib/src/stm32f10x_rcc.c ****   RCC->CFGR = tmpreg;
 266              		.loc 1 576 0
 267 00c6 5060     		str	r0, [r2, #4]
 268 00c8 7047     		bx	lr
 269              	.L24:
 270 00ca 00BF     		.align	2
 271              	.L23:
 272 00cc 00100240 		.word	1073876992
 273              		.cfi_endproc
 274              	.LFE71:
 275              		.size	RCC_SYSCLKConfig, .-RCC_SYSCLKConfig
 276              		.align	1
 277              		.global	RCC_GetSYSCLKSource
 278              		.syntax unified
 279              		.thumb
ARM GAS  /tmp/cc3TVymc.s 			page 16


 280              		.thumb_func
 281              		.fpu softvfp
 282              		.type	RCC_GetSYSCLKSource, %function
 283              	RCC_GetSYSCLKSource:
 284              	.LFB72:
 577:lib/src/stm32f10x_rcc.c **** }
 578:lib/src/stm32f10x_rcc.c **** 
 579:lib/src/stm32f10x_rcc.c **** /**
 580:lib/src/stm32f10x_rcc.c ****   * @brief  Returns the clock source used as system clock.
 581:lib/src/stm32f10x_rcc.c ****   * @param  None
 582:lib/src/stm32f10x_rcc.c ****   * @retval The clock source used as system clock. The returned value can
 583:lib/src/stm32f10x_rcc.c ****   *   be one of the following:
 584:lib/src/stm32f10x_rcc.c ****   *     - 0x00: HSI used as system clock
 585:lib/src/stm32f10x_rcc.c ****   *     - 0x04: HSE used as system clock
 586:lib/src/stm32f10x_rcc.c ****   *     - 0x08: PLL used as system clock
 587:lib/src/stm32f10x_rcc.c ****   */
 588:lib/src/stm32f10x_rcc.c **** uint8_t RCC_GetSYSCLKSource(void)
 589:lib/src/stm32f10x_rcc.c **** {
 285              		.loc 1 589 0
 286              		.cfi_startproc
 287              		@ args = 0, pretend = 0, frame = 0
 288              		@ frame_needed = 0, uses_anonymous_args = 0
 289              		@ link register save eliminated.
 590:lib/src/stm32f10x_rcc.c ****   return ((uint8_t)(RCC->CFGR & CFGR_SWS_Mask));
 290              		.loc 1 590 0
 291 00d0 024B     		ldr	r3, .L26
 292 00d2 5868     		ldr	r0, [r3, #4]
 591:lib/src/stm32f10x_rcc.c **** }
 293              		.loc 1 591 0
 294 00d4 00F00C00 		and	r0, r0, #12
 295 00d8 7047     		bx	lr
 296              	.L27:
 297 00da 00BF     		.align	2
 298              	.L26:
 299 00dc 00100240 		.word	1073876992
 300              		.cfi_endproc
 301              	.LFE72:
 302              		.size	RCC_GetSYSCLKSource, .-RCC_GetSYSCLKSource
 303              		.align	1
 304              		.global	RCC_HCLKConfig
 305              		.syntax unified
 306              		.thumb
 307              		.thumb_func
 308              		.fpu softvfp
 309              		.type	RCC_HCLKConfig, %function
 310              	RCC_HCLKConfig:
 311              	.LFB73:
 592:lib/src/stm32f10x_rcc.c **** 
 593:lib/src/stm32f10x_rcc.c **** /**
 594:lib/src/stm32f10x_rcc.c ****   * @brief  Configures the AHB clock (HCLK).
 595:lib/src/stm32f10x_rcc.c ****   * @param  RCC_SYSCLK: defines the AHB clock divider. This clock is derived from 
 596:lib/src/stm32f10x_rcc.c ****   *   the system clock (SYSCLK).
 597:lib/src/stm32f10x_rcc.c ****   *   This parameter can be one of the following values:
 598:lib/src/stm32f10x_rcc.c ****   *     @arg RCC_SYSCLK_Div1: AHB clock = SYSCLK
 599:lib/src/stm32f10x_rcc.c ****   *     @arg RCC_SYSCLK_Div2: AHB clock = SYSCLK/2
 600:lib/src/stm32f10x_rcc.c ****   *     @arg RCC_SYSCLK_Div4: AHB clock = SYSCLK/4
 601:lib/src/stm32f10x_rcc.c ****   *     @arg RCC_SYSCLK_Div8: AHB clock = SYSCLK/8
ARM GAS  /tmp/cc3TVymc.s 			page 17


 602:lib/src/stm32f10x_rcc.c ****   *     @arg RCC_SYSCLK_Div16: AHB clock = SYSCLK/16
 603:lib/src/stm32f10x_rcc.c ****   *     @arg RCC_SYSCLK_Div64: AHB clock = SYSCLK/64
 604:lib/src/stm32f10x_rcc.c ****   *     @arg RCC_SYSCLK_Div128: AHB clock = SYSCLK/128
 605:lib/src/stm32f10x_rcc.c ****   *     @arg RCC_SYSCLK_Div256: AHB clock = SYSCLK/256
 606:lib/src/stm32f10x_rcc.c ****   *     @arg RCC_SYSCLK_Div512: AHB clock = SYSCLK/512
 607:lib/src/stm32f10x_rcc.c ****   * @retval None
 608:lib/src/stm32f10x_rcc.c ****   */
 609:lib/src/stm32f10x_rcc.c **** void RCC_HCLKConfig(uint32_t RCC_SYSCLK)
 610:lib/src/stm32f10x_rcc.c **** {
 312              		.loc 1 610 0
 313              		.cfi_startproc
 314              		@ args = 0, pretend = 0, frame = 0
 315              		@ frame_needed = 0, uses_anonymous_args = 0
 316              		@ link register save eliminated.
 317              	.LVL16:
 611:lib/src/stm32f10x_rcc.c ****   uint32_t tmpreg = 0;
 612:lib/src/stm32f10x_rcc.c ****   /* Check the parameters */
 613:lib/src/stm32f10x_rcc.c ****   assert_param(IS_RCC_HCLK(RCC_SYSCLK));
 614:lib/src/stm32f10x_rcc.c ****   tmpreg = RCC->CFGR;
 318              		.loc 1 614 0
 319 00e0 034A     		ldr	r2, .L29
 320 00e2 5368     		ldr	r3, [r2, #4]
 321              	.LVL17:
 615:lib/src/stm32f10x_rcc.c ****   /* Clear HPRE[3:0] bits */
 616:lib/src/stm32f10x_rcc.c ****   tmpreg &= CFGR_HPRE_Reset_Mask;
 322              		.loc 1 616 0
 323 00e4 23F0F003 		bic	r3, r3, #240
 324              	.LVL18:
 617:lib/src/stm32f10x_rcc.c ****   /* Set HPRE[3:0] bits according to RCC_SYSCLK value */
 618:lib/src/stm32f10x_rcc.c ****   tmpreg |= RCC_SYSCLK;
 325              		.loc 1 618 0
 326 00e8 1843     		orrs	r0, r0, r3
 327              	.LVL19:
 619:lib/src/stm32f10x_rcc.c ****   /* Store the new value */
 620:lib/src/stm32f10x_rcc.c ****   RCC->CFGR = tmpreg;
 328              		.loc 1 620 0
 329 00ea 5060     		str	r0, [r2, #4]
 330 00ec 7047     		bx	lr
 331              	.L30:
 332 00ee 00BF     		.align	2
 333              	.L29:
 334 00f0 00100240 		.word	1073876992
 335              		.cfi_endproc
 336              	.LFE73:
 337              		.size	RCC_HCLKConfig, .-RCC_HCLKConfig
 338              		.align	1
 339              		.global	RCC_PCLK1Config
 340              		.syntax unified
 341              		.thumb
 342              		.thumb_func
 343              		.fpu softvfp
 344              		.type	RCC_PCLK1Config, %function
 345              	RCC_PCLK1Config:
 346              	.LFB74:
 621:lib/src/stm32f10x_rcc.c **** }
 622:lib/src/stm32f10x_rcc.c **** 
 623:lib/src/stm32f10x_rcc.c **** /**
ARM GAS  /tmp/cc3TVymc.s 			page 18


 624:lib/src/stm32f10x_rcc.c ****   * @brief  Configures the Low Speed APB clock (PCLK1).
 625:lib/src/stm32f10x_rcc.c ****   * @param  RCC_HCLK: defines the APB1 clock divider. This clock is derived from 
 626:lib/src/stm32f10x_rcc.c ****   *   the AHB clock (HCLK).
 627:lib/src/stm32f10x_rcc.c ****   *   This parameter can be one of the following values:
 628:lib/src/stm32f10x_rcc.c ****   *     @arg RCC_HCLK_Div1: APB1 clock = HCLK
 629:lib/src/stm32f10x_rcc.c ****   *     @arg RCC_HCLK_Div2: APB1 clock = HCLK/2
 630:lib/src/stm32f10x_rcc.c ****   *     @arg RCC_HCLK_Div4: APB1 clock = HCLK/4
 631:lib/src/stm32f10x_rcc.c ****   *     @arg RCC_HCLK_Div8: APB1 clock = HCLK/8
 632:lib/src/stm32f10x_rcc.c ****   *     @arg RCC_HCLK_Div16: APB1 clock = HCLK/16
 633:lib/src/stm32f10x_rcc.c ****   * @retval None
 634:lib/src/stm32f10x_rcc.c ****   */
 635:lib/src/stm32f10x_rcc.c **** void RCC_PCLK1Config(uint32_t RCC_HCLK)
 636:lib/src/stm32f10x_rcc.c **** {
 347              		.loc 1 636 0
 348              		.cfi_startproc
 349              		@ args = 0, pretend = 0, frame = 0
 350              		@ frame_needed = 0, uses_anonymous_args = 0
 351              		@ link register save eliminated.
 352              	.LVL20:
 637:lib/src/stm32f10x_rcc.c ****   uint32_t tmpreg = 0;
 638:lib/src/stm32f10x_rcc.c ****   /* Check the parameters */
 639:lib/src/stm32f10x_rcc.c ****   assert_param(IS_RCC_PCLK(RCC_HCLK));
 640:lib/src/stm32f10x_rcc.c ****   tmpreg = RCC->CFGR;
 353              		.loc 1 640 0
 354 00f4 034A     		ldr	r2, .L32
 355 00f6 5368     		ldr	r3, [r2, #4]
 356              	.LVL21:
 641:lib/src/stm32f10x_rcc.c ****   /* Clear PPRE1[2:0] bits */
 642:lib/src/stm32f10x_rcc.c ****   tmpreg &= CFGR_PPRE1_Reset_Mask;
 357              		.loc 1 642 0
 358 00f8 23F4E063 		bic	r3, r3, #1792
 359              	.LVL22:
 643:lib/src/stm32f10x_rcc.c ****   /* Set PPRE1[2:0] bits according to RCC_HCLK value */
 644:lib/src/stm32f10x_rcc.c ****   tmpreg |= RCC_HCLK;
 360              		.loc 1 644 0
 361 00fc 1843     		orrs	r0, r0, r3
 362              	.LVL23:
 645:lib/src/stm32f10x_rcc.c ****   /* Store the new value */
 646:lib/src/stm32f10x_rcc.c ****   RCC->CFGR = tmpreg;
 363              		.loc 1 646 0
 364 00fe 5060     		str	r0, [r2, #4]
 365 0100 7047     		bx	lr
 366              	.L33:
 367 0102 00BF     		.align	2
 368              	.L32:
 369 0104 00100240 		.word	1073876992
 370              		.cfi_endproc
 371              	.LFE74:
 372              		.size	RCC_PCLK1Config, .-RCC_PCLK1Config
 373              		.align	1
 374              		.global	RCC_PCLK2Config
 375              		.syntax unified
 376              		.thumb
 377              		.thumb_func
 378              		.fpu softvfp
 379              		.type	RCC_PCLK2Config, %function
 380              	RCC_PCLK2Config:
ARM GAS  /tmp/cc3TVymc.s 			page 19


 381              	.LFB75:
 647:lib/src/stm32f10x_rcc.c **** }
 648:lib/src/stm32f10x_rcc.c **** 
 649:lib/src/stm32f10x_rcc.c **** /**
 650:lib/src/stm32f10x_rcc.c ****   * @brief  Configures the High Speed APB clock (PCLK2).
 651:lib/src/stm32f10x_rcc.c ****   * @param  RCC_HCLK: defines the APB2 clock divider. This clock is derived from 
 652:lib/src/stm32f10x_rcc.c ****   *   the AHB clock (HCLK).
 653:lib/src/stm32f10x_rcc.c ****   *   This parameter can be one of the following values:
 654:lib/src/stm32f10x_rcc.c ****   *     @arg RCC_HCLK_Div1: APB2 clock = HCLK
 655:lib/src/stm32f10x_rcc.c ****   *     @arg RCC_HCLK_Div2: APB2 clock = HCLK/2
 656:lib/src/stm32f10x_rcc.c ****   *     @arg RCC_HCLK_Div4: APB2 clock = HCLK/4
 657:lib/src/stm32f10x_rcc.c ****   *     @arg RCC_HCLK_Div8: APB2 clock = HCLK/8
 658:lib/src/stm32f10x_rcc.c ****   *     @arg RCC_HCLK_Div16: APB2 clock = HCLK/16
 659:lib/src/stm32f10x_rcc.c ****   * @retval None
 660:lib/src/stm32f10x_rcc.c ****   */
 661:lib/src/stm32f10x_rcc.c **** void RCC_PCLK2Config(uint32_t RCC_HCLK)
 662:lib/src/stm32f10x_rcc.c **** {
 382              		.loc 1 662 0
 383              		.cfi_startproc
 384              		@ args = 0, pretend = 0, frame = 0
 385              		@ frame_needed = 0, uses_anonymous_args = 0
 386              		@ link register save eliminated.
 387              	.LVL24:
 663:lib/src/stm32f10x_rcc.c ****   uint32_t tmpreg = 0;
 664:lib/src/stm32f10x_rcc.c ****   /* Check the parameters */
 665:lib/src/stm32f10x_rcc.c ****   assert_param(IS_RCC_PCLK(RCC_HCLK));
 666:lib/src/stm32f10x_rcc.c ****   tmpreg = RCC->CFGR;
 388              		.loc 1 666 0
 389 0108 034A     		ldr	r2, .L35
 390 010a 5368     		ldr	r3, [r2, #4]
 391              	.LVL25:
 667:lib/src/stm32f10x_rcc.c ****   /* Clear PPRE2[2:0] bits */
 668:lib/src/stm32f10x_rcc.c ****   tmpreg &= CFGR_PPRE2_Reset_Mask;
 392              		.loc 1 668 0
 393 010c 23F46053 		bic	r3, r3, #14336
 394              	.LVL26:
 669:lib/src/stm32f10x_rcc.c ****   /* Set PPRE2[2:0] bits according to RCC_HCLK value */
 670:lib/src/stm32f10x_rcc.c ****   tmpreg |= RCC_HCLK << 3;
 395              		.loc 1 670 0
 396 0110 43EAC000 		orr	r0, r3, r0, lsl #3
 397              	.LVL27:
 671:lib/src/stm32f10x_rcc.c ****   /* Store the new value */
 672:lib/src/stm32f10x_rcc.c ****   RCC->CFGR = tmpreg;
 398              		.loc 1 672 0
 399 0114 5060     		str	r0, [r2, #4]
 400 0116 7047     		bx	lr
 401              	.L36:
 402              		.align	2
 403              	.L35:
 404 0118 00100240 		.word	1073876992
 405              		.cfi_endproc
 406              	.LFE75:
 407              		.size	RCC_PCLK2Config, .-RCC_PCLK2Config
 408              		.align	1
 409              		.global	RCC_ITConfig
 410              		.syntax unified
 411              		.thumb
ARM GAS  /tmp/cc3TVymc.s 			page 20


 412              		.thumb_func
 413              		.fpu softvfp
 414              		.type	RCC_ITConfig, %function
 415              	RCC_ITConfig:
 416              	.LFB76:
 673:lib/src/stm32f10x_rcc.c **** }
 674:lib/src/stm32f10x_rcc.c **** 
 675:lib/src/stm32f10x_rcc.c **** /**
 676:lib/src/stm32f10x_rcc.c ****   * @brief  Enables or disables the specified RCC interrupts.
 677:lib/src/stm32f10x_rcc.c ****   * @param  RCC_IT: specifies the RCC interrupt sources to be enabled or disabled.
 678:lib/src/stm32f10x_rcc.c ****   * 
 679:lib/src/stm32f10x_rcc.c ****   *   For @b STM32_Connectivity_line_devices, this parameter can be any combination
 680:lib/src/stm32f10x_rcc.c ****   *   of the following values        
 681:lib/src/stm32f10x_rcc.c ****   *     @arg RCC_IT_LSIRDY: LSI ready interrupt
 682:lib/src/stm32f10x_rcc.c ****   *     @arg RCC_IT_LSERDY: LSE ready interrupt
 683:lib/src/stm32f10x_rcc.c ****   *     @arg RCC_IT_HSIRDY: HSI ready interrupt
 684:lib/src/stm32f10x_rcc.c ****   *     @arg RCC_IT_HSERDY: HSE ready interrupt
 685:lib/src/stm32f10x_rcc.c ****   *     @arg RCC_IT_PLLRDY: PLL ready interrupt
 686:lib/src/stm32f10x_rcc.c ****   *     @arg RCC_IT_PLL2RDY: PLL2 ready interrupt
 687:lib/src/stm32f10x_rcc.c ****   *     @arg RCC_IT_PLL3RDY: PLL3 ready interrupt
 688:lib/src/stm32f10x_rcc.c ****   * 
 689:lib/src/stm32f10x_rcc.c ****   *   For @b other_STM32_devices, this parameter can be any combination of the 
 690:lib/src/stm32f10x_rcc.c ****   *   following values        
 691:lib/src/stm32f10x_rcc.c ****   *     @arg RCC_IT_LSIRDY: LSI ready interrupt
 692:lib/src/stm32f10x_rcc.c ****   *     @arg RCC_IT_LSERDY: LSE ready interrupt
 693:lib/src/stm32f10x_rcc.c ****   *     @arg RCC_IT_HSIRDY: HSI ready interrupt
 694:lib/src/stm32f10x_rcc.c ****   *     @arg RCC_IT_HSERDY: HSE ready interrupt
 695:lib/src/stm32f10x_rcc.c ****   *     @arg RCC_IT_PLLRDY: PLL ready interrupt
 696:lib/src/stm32f10x_rcc.c ****   *       
 697:lib/src/stm32f10x_rcc.c ****   * @param  NewState: new state of the specified RCC interrupts.
 698:lib/src/stm32f10x_rcc.c ****   *   This parameter can be: ENABLE or DISABLE.
 699:lib/src/stm32f10x_rcc.c ****   * @retval None
 700:lib/src/stm32f10x_rcc.c ****   */
 701:lib/src/stm32f10x_rcc.c **** void RCC_ITConfig(uint8_t RCC_IT, FunctionalState NewState)
 702:lib/src/stm32f10x_rcc.c **** {
 417              		.loc 1 702 0
 418              		.cfi_startproc
 419              		@ args = 0, pretend = 0, frame = 0
 420              		@ frame_needed = 0, uses_anonymous_args = 0
 421              		@ link register save eliminated.
 422              	.LVL28:
 703:lib/src/stm32f10x_rcc.c ****   /* Check the parameters */
 704:lib/src/stm32f10x_rcc.c ****   assert_param(IS_RCC_IT(RCC_IT));
 705:lib/src/stm32f10x_rcc.c ****   assert_param(IS_FUNCTIONAL_STATE(NewState));
 706:lib/src/stm32f10x_rcc.c ****   if (NewState != DISABLE)
 423              		.loc 1 706 0
 424 011c 29B9     		cbnz	r1, .L40
 707:lib/src/stm32f10x_rcc.c ****   {
 708:lib/src/stm32f10x_rcc.c ****     /* Perform Byte access to RCC_CIR bits to enable the selected interrupts */
 709:lib/src/stm32f10x_rcc.c ****     *(__IO uint8_t *) CIR_BYTE2_ADDRESS |= RCC_IT;
 710:lib/src/stm32f10x_rcc.c ****   }
 711:lib/src/stm32f10x_rcc.c ****   else
 712:lib/src/stm32f10x_rcc.c ****   {
 713:lib/src/stm32f10x_rcc.c ****     /* Perform Byte access to RCC_CIR bits to disable the selected interrupts */
 714:lib/src/stm32f10x_rcc.c ****     *(__IO uint8_t *) CIR_BYTE2_ADDRESS &= (uint8_t)~RCC_IT;
 425              		.loc 1 714 0
 426 011e 054A     		ldr	r2, .L41
ARM GAS  /tmp/cc3TVymc.s 			page 21


 427 0120 1378     		ldrb	r3, [r2]	@ zero_extendqisi2
 428 0122 23EA0000 		bic	r0, r3, r0
 429              	.LVL29:
 430 0126 1070     		strb	r0, [r2]
 431 0128 7047     		bx	lr
 432              	.LVL30:
 433              	.L40:
 709:lib/src/stm32f10x_rcc.c ****   }
 434              		.loc 1 709 0
 435 012a 024A     		ldr	r2, .L41
 436 012c 1378     		ldrb	r3, [r2]	@ zero_extendqisi2
 437 012e 1843     		orrs	r0, r0, r3
 438              	.LVL31:
 439 0130 1070     		strb	r0, [r2]
 440 0132 7047     		bx	lr
 441              	.L42:
 442              		.align	2
 443              	.L41:
 444 0134 09100240 		.word	1073877001
 445              		.cfi_endproc
 446              	.LFE76:
 447              		.size	RCC_ITConfig, .-RCC_ITConfig
 448              		.align	1
 449              		.global	RCC_USBCLKConfig
 450              		.syntax unified
 451              		.thumb
 452              		.thumb_func
 453              		.fpu softvfp
 454              		.type	RCC_USBCLKConfig, %function
 455              	RCC_USBCLKConfig:
 456              	.LFB77:
 715:lib/src/stm32f10x_rcc.c ****   }
 716:lib/src/stm32f10x_rcc.c **** }
 717:lib/src/stm32f10x_rcc.c **** 
 718:lib/src/stm32f10x_rcc.c **** #ifndef STM32F10X_CL
 719:lib/src/stm32f10x_rcc.c **** /**
 720:lib/src/stm32f10x_rcc.c ****   * @brief  Configures the USB clock (USBCLK).
 721:lib/src/stm32f10x_rcc.c ****   * @param  RCC_USBCLKSource: specifies the USB clock source. This clock is 
 722:lib/src/stm32f10x_rcc.c ****   *   derived from the PLL output.
 723:lib/src/stm32f10x_rcc.c ****   *   This parameter can be one of the following values:
 724:lib/src/stm32f10x_rcc.c ****   *     @arg RCC_USBCLKSource_PLLCLK_1Div5: PLL clock divided by 1,5 selected as USB 
 725:lib/src/stm32f10x_rcc.c ****   *                                     clock source
 726:lib/src/stm32f10x_rcc.c ****   *     @arg RCC_USBCLKSource_PLLCLK_Div1: PLL clock selected as USB clock source
 727:lib/src/stm32f10x_rcc.c ****   * @retval None
 728:lib/src/stm32f10x_rcc.c ****   */
 729:lib/src/stm32f10x_rcc.c **** void RCC_USBCLKConfig(uint32_t RCC_USBCLKSource)
 730:lib/src/stm32f10x_rcc.c **** {
 457              		.loc 1 730 0
 458              		.cfi_startproc
 459              		@ args = 0, pretend = 0, frame = 0
 460              		@ frame_needed = 0, uses_anonymous_args = 0
 461              		@ link register save eliminated.
 462              	.LVL32:
 731:lib/src/stm32f10x_rcc.c ****   /* Check the parameters */
 732:lib/src/stm32f10x_rcc.c ****   assert_param(IS_RCC_USBCLK_SOURCE(RCC_USBCLKSource));
 733:lib/src/stm32f10x_rcc.c **** 
 734:lib/src/stm32f10x_rcc.c ****   *(__IO uint32_t *) CFGR_USBPRE_BB = RCC_USBCLKSource;
ARM GAS  /tmp/cc3TVymc.s 			page 22


 463              		.loc 1 734 0
 464 0138 014B     		ldr	r3, .L44
 465 013a 1860     		str	r0, [r3]
 466 013c 7047     		bx	lr
 467              	.L45:
 468 013e 00BF     		.align	2
 469              	.L44:
 470 0140 D8004242 		.word	1111621848
 471              		.cfi_endproc
 472              	.LFE77:
 473              		.size	RCC_USBCLKConfig, .-RCC_USBCLKConfig
 474              		.align	1
 475              		.global	RCC_ADCCLKConfig
 476              		.syntax unified
 477              		.thumb
 478              		.thumb_func
 479              		.fpu softvfp
 480              		.type	RCC_ADCCLKConfig, %function
 481              	RCC_ADCCLKConfig:
 482              	.LFB78:
 735:lib/src/stm32f10x_rcc.c **** }
 736:lib/src/stm32f10x_rcc.c **** #else
 737:lib/src/stm32f10x_rcc.c **** /**
 738:lib/src/stm32f10x_rcc.c ****   * @brief  Configures the USB OTG FS clock (OTGFSCLK).
 739:lib/src/stm32f10x_rcc.c ****   *   This function applies only to STM32 Connectivity line devices.
 740:lib/src/stm32f10x_rcc.c ****   * @param  RCC_OTGFSCLKSource: specifies the USB OTG FS clock source.
 741:lib/src/stm32f10x_rcc.c ****   *   This clock is derived from the PLL output.
 742:lib/src/stm32f10x_rcc.c ****   *   This parameter can be one of the following values:
 743:lib/src/stm32f10x_rcc.c ****   *     @arg  RCC_OTGFSCLKSource_PLLVCO_Div3: PLL VCO clock divided by 2 selected as USB OTG FS clo
 744:lib/src/stm32f10x_rcc.c ****   *     @arg  RCC_OTGFSCLKSource_PLLVCO_Div2: PLL VCO clock divided by 2 selected as USB OTG FS clo
 745:lib/src/stm32f10x_rcc.c ****   * @retval None
 746:lib/src/stm32f10x_rcc.c ****   */
 747:lib/src/stm32f10x_rcc.c **** void RCC_OTGFSCLKConfig(uint32_t RCC_OTGFSCLKSource)
 748:lib/src/stm32f10x_rcc.c **** {
 749:lib/src/stm32f10x_rcc.c ****   /* Check the parameters */
 750:lib/src/stm32f10x_rcc.c ****   assert_param(IS_RCC_OTGFSCLK_SOURCE(RCC_OTGFSCLKSource));
 751:lib/src/stm32f10x_rcc.c **** 
 752:lib/src/stm32f10x_rcc.c ****   *(__IO uint32_t *) CFGR_OTGFSPRE_BB = RCC_OTGFSCLKSource;
 753:lib/src/stm32f10x_rcc.c **** }
 754:lib/src/stm32f10x_rcc.c **** #endif /* STM32F10X_CL */ 
 755:lib/src/stm32f10x_rcc.c **** 
 756:lib/src/stm32f10x_rcc.c **** /**
 757:lib/src/stm32f10x_rcc.c ****   * @brief  Configures the ADC clock (ADCCLK).
 758:lib/src/stm32f10x_rcc.c ****   * @param  RCC_PCLK2: defines the ADC clock divider. This clock is derived from 
 759:lib/src/stm32f10x_rcc.c ****   *   the APB2 clock (PCLK2).
 760:lib/src/stm32f10x_rcc.c ****   *   This parameter can be one of the following values:
 761:lib/src/stm32f10x_rcc.c ****   *     @arg RCC_PCLK2_Div2: ADC clock = PCLK2/2
 762:lib/src/stm32f10x_rcc.c ****   *     @arg RCC_PCLK2_Div4: ADC clock = PCLK2/4
 763:lib/src/stm32f10x_rcc.c ****   *     @arg RCC_PCLK2_Div6: ADC clock = PCLK2/6
 764:lib/src/stm32f10x_rcc.c ****   *     @arg RCC_PCLK2_Div8: ADC clock = PCLK2/8
 765:lib/src/stm32f10x_rcc.c ****   * @retval None
 766:lib/src/stm32f10x_rcc.c ****   */
 767:lib/src/stm32f10x_rcc.c **** void RCC_ADCCLKConfig(uint32_t RCC_PCLK2)
 768:lib/src/stm32f10x_rcc.c **** {
 483              		.loc 1 768 0
 484              		.cfi_startproc
 485              		@ args = 0, pretend = 0, frame = 0
ARM GAS  /tmp/cc3TVymc.s 			page 23


 486              		@ frame_needed = 0, uses_anonymous_args = 0
 487              		@ link register save eliminated.
 488              	.LVL33:
 769:lib/src/stm32f10x_rcc.c ****   uint32_t tmpreg = 0;
 770:lib/src/stm32f10x_rcc.c ****   /* Check the parameters */
 771:lib/src/stm32f10x_rcc.c ****   assert_param(IS_RCC_ADCCLK(RCC_PCLK2));
 772:lib/src/stm32f10x_rcc.c ****   tmpreg = RCC->CFGR;
 489              		.loc 1 772 0
 490 0144 034A     		ldr	r2, .L47
 491 0146 5368     		ldr	r3, [r2, #4]
 492              	.LVL34:
 773:lib/src/stm32f10x_rcc.c ****   /* Clear ADCPRE[1:0] bits */
 774:lib/src/stm32f10x_rcc.c ****   tmpreg &= CFGR_ADCPRE_Reset_Mask;
 493              		.loc 1 774 0
 494 0148 23F44043 		bic	r3, r3, #49152
 495              	.LVL35:
 775:lib/src/stm32f10x_rcc.c ****   /* Set ADCPRE[1:0] bits according to RCC_PCLK2 value */
 776:lib/src/stm32f10x_rcc.c ****   tmpreg |= RCC_PCLK2;
 496              		.loc 1 776 0
 497 014c 1843     		orrs	r0, r0, r3
 498              	.LVL36:
 777:lib/src/stm32f10x_rcc.c ****   /* Store the new value */
 778:lib/src/stm32f10x_rcc.c ****   RCC->CFGR = tmpreg;
 499              		.loc 1 778 0
 500 014e 5060     		str	r0, [r2, #4]
 501 0150 7047     		bx	lr
 502              	.L48:
 503 0152 00BF     		.align	2
 504              	.L47:
 505 0154 00100240 		.word	1073876992
 506              		.cfi_endproc
 507              	.LFE78:
 508              		.size	RCC_ADCCLKConfig, .-RCC_ADCCLKConfig
 509              		.align	1
 510              		.global	RCC_LSEConfig
 511              		.syntax unified
 512              		.thumb
 513              		.thumb_func
 514              		.fpu softvfp
 515              		.type	RCC_LSEConfig, %function
 516              	RCC_LSEConfig:
 517              	.LFB79:
 779:lib/src/stm32f10x_rcc.c **** }
 780:lib/src/stm32f10x_rcc.c **** 
 781:lib/src/stm32f10x_rcc.c **** #ifdef STM32F10X_CL
 782:lib/src/stm32f10x_rcc.c **** /**
 783:lib/src/stm32f10x_rcc.c ****   * @brief  Configures the I2S2 clock source(I2S2CLK).
 784:lib/src/stm32f10x_rcc.c ****   * @note
 785:lib/src/stm32f10x_rcc.c ****   *   - This function must be called before enabling I2S2 APB clock.
 786:lib/src/stm32f10x_rcc.c ****   *   - This function applies only to STM32 Connectivity line devices.
 787:lib/src/stm32f10x_rcc.c ****   * @param  RCC_I2S2CLKSource: specifies the I2S2 clock source.
 788:lib/src/stm32f10x_rcc.c ****   *   This parameter can be one of the following values:
 789:lib/src/stm32f10x_rcc.c ****   *     @arg RCC_I2S2CLKSource_SYSCLK: system clock selected as I2S2 clock entry
 790:lib/src/stm32f10x_rcc.c ****   *     @arg RCC_I2S2CLKSource_PLL3_VCO: PLL3 VCO clock selected as I2S2 clock entry
 791:lib/src/stm32f10x_rcc.c ****   * @retval None
 792:lib/src/stm32f10x_rcc.c ****   */
 793:lib/src/stm32f10x_rcc.c **** void RCC_I2S2CLKConfig(uint32_t RCC_I2S2CLKSource)
ARM GAS  /tmp/cc3TVymc.s 			page 24


 794:lib/src/stm32f10x_rcc.c **** {
 795:lib/src/stm32f10x_rcc.c ****   /* Check the parameters */
 796:lib/src/stm32f10x_rcc.c ****   assert_param(IS_RCC_I2S2CLK_SOURCE(RCC_I2S2CLKSource));
 797:lib/src/stm32f10x_rcc.c **** 
 798:lib/src/stm32f10x_rcc.c ****   *(__IO uint32_t *) CFGR2_I2S2SRC_BB = RCC_I2S2CLKSource;
 799:lib/src/stm32f10x_rcc.c **** }
 800:lib/src/stm32f10x_rcc.c **** 
 801:lib/src/stm32f10x_rcc.c **** /**
 802:lib/src/stm32f10x_rcc.c ****   * @brief  Configures the I2S3 clock source(I2S2CLK).
 803:lib/src/stm32f10x_rcc.c ****   * @note
 804:lib/src/stm32f10x_rcc.c ****   *   - This function must be called before enabling I2S3 APB clock.
 805:lib/src/stm32f10x_rcc.c ****   *   - This function applies only to STM32 Connectivity line devices.
 806:lib/src/stm32f10x_rcc.c ****   * @param  RCC_I2S3CLKSource: specifies the I2S3 clock source.
 807:lib/src/stm32f10x_rcc.c ****   *   This parameter can be one of the following values:
 808:lib/src/stm32f10x_rcc.c ****   *     @arg RCC_I2S3CLKSource_SYSCLK: system clock selected as I2S3 clock entry
 809:lib/src/stm32f10x_rcc.c ****   *     @arg RCC_I2S3CLKSource_PLL3_VCO: PLL3 VCO clock selected as I2S3 clock entry
 810:lib/src/stm32f10x_rcc.c ****   * @retval None
 811:lib/src/stm32f10x_rcc.c ****   */
 812:lib/src/stm32f10x_rcc.c **** void RCC_I2S3CLKConfig(uint32_t RCC_I2S3CLKSource)
 813:lib/src/stm32f10x_rcc.c **** {
 814:lib/src/stm32f10x_rcc.c ****   /* Check the parameters */
 815:lib/src/stm32f10x_rcc.c ****   assert_param(IS_RCC_I2S3CLK_SOURCE(RCC_I2S3CLKSource));
 816:lib/src/stm32f10x_rcc.c **** 
 817:lib/src/stm32f10x_rcc.c ****   *(__IO uint32_t *) CFGR2_I2S3SRC_BB = RCC_I2S3CLKSource;
 818:lib/src/stm32f10x_rcc.c **** }
 819:lib/src/stm32f10x_rcc.c **** #endif /* STM32F10X_CL */
 820:lib/src/stm32f10x_rcc.c **** 
 821:lib/src/stm32f10x_rcc.c **** /**
 822:lib/src/stm32f10x_rcc.c ****   * @brief  Configures the External Low Speed oscillator (LSE).
 823:lib/src/stm32f10x_rcc.c ****   * @param  RCC_LSE: specifies the new state of the LSE.
 824:lib/src/stm32f10x_rcc.c ****   *   This parameter can be one of the following values:
 825:lib/src/stm32f10x_rcc.c ****   *     @arg RCC_LSE_OFF: LSE oscillator OFF
 826:lib/src/stm32f10x_rcc.c ****   *     @arg RCC_LSE_ON: LSE oscillator ON
 827:lib/src/stm32f10x_rcc.c ****   *     @arg RCC_LSE_Bypass: LSE oscillator bypassed with external clock
 828:lib/src/stm32f10x_rcc.c ****   * @retval None
 829:lib/src/stm32f10x_rcc.c ****   */
 830:lib/src/stm32f10x_rcc.c **** void RCC_LSEConfig(uint8_t RCC_LSE)
 831:lib/src/stm32f10x_rcc.c **** {
 518              		.loc 1 831 0
 519              		.cfi_startproc
 520              		@ args = 0, pretend = 0, frame = 0
 521              		@ frame_needed = 0, uses_anonymous_args = 0
 522              		@ link register save eliminated.
 523              	.LVL37:
 832:lib/src/stm32f10x_rcc.c ****   /* Check the parameters */
 833:lib/src/stm32f10x_rcc.c ****   assert_param(IS_RCC_LSE(RCC_LSE));
 834:lib/src/stm32f10x_rcc.c ****   /* Reset LSEON and LSEBYP bits before configuring the LSE ------------------*/
 835:lib/src/stm32f10x_rcc.c ****   /* Reset LSEON bit */
 836:lib/src/stm32f10x_rcc.c ****   *(__IO uint8_t *) BDCR_ADDRESS = RCC_LSE_OFF;
 524              		.loc 1 836 0
 525 0158 084B     		ldr	r3, .L53
 526 015a 0022     		movs	r2, #0
 527 015c 1A70     		strb	r2, [r3]
 837:lib/src/stm32f10x_rcc.c ****   /* Reset LSEBYP bit */
 838:lib/src/stm32f10x_rcc.c ****   *(__IO uint8_t *) BDCR_ADDRESS = RCC_LSE_OFF;
 528              		.loc 1 838 0
 529 015e 1A70     		strb	r2, [r3]
ARM GAS  /tmp/cc3TVymc.s 			page 25


 839:lib/src/stm32f10x_rcc.c ****   /* Configure LSE (RCC_LSE_OFF is already covered by the code section above) */
 840:lib/src/stm32f10x_rcc.c ****   switch(RCC_LSE)
 530              		.loc 1 840 0
 531 0160 0128     		cmp	r0, #1
 532 0162 02D0     		beq	.L51
 533 0164 0428     		cmp	r0, #4
 534 0166 04D0     		beq	.L52
 535 0168 7047     		bx	lr
 536              	.L51:
 841:lib/src/stm32f10x_rcc.c ****   {
 842:lib/src/stm32f10x_rcc.c ****     case RCC_LSE_ON:
 843:lib/src/stm32f10x_rcc.c ****       /* Set LSEON bit */
 844:lib/src/stm32f10x_rcc.c ****       *(__IO uint8_t *) BDCR_ADDRESS = RCC_LSE_ON;
 537              		.loc 1 844 0
 538 016a 0122     		movs	r2, #1
 539 016c 034B     		ldr	r3, .L53
 540 016e 1A70     		strb	r2, [r3]
 845:lib/src/stm32f10x_rcc.c ****       break;
 541              		.loc 1 845 0
 542 0170 7047     		bx	lr
 543              	.L52:
 846:lib/src/stm32f10x_rcc.c ****       
 847:lib/src/stm32f10x_rcc.c ****     case RCC_LSE_Bypass:
 848:lib/src/stm32f10x_rcc.c ****       /* Set LSEBYP and LSEON bits */
 849:lib/src/stm32f10x_rcc.c ****       *(__IO uint8_t *) BDCR_ADDRESS = RCC_LSE_Bypass | RCC_LSE_ON;
 544              		.loc 1 849 0
 545 0172 0522     		movs	r2, #5
 546 0174 014B     		ldr	r3, .L53
 547 0176 1A70     		strb	r2, [r3]
 548 0178 7047     		bx	lr
 549              	.L54:
 550 017a 00BF     		.align	2
 551              	.L53:
 552 017c 20100240 		.word	1073877024
 553              		.cfi_endproc
 554              	.LFE79:
 555              		.size	RCC_LSEConfig, .-RCC_LSEConfig
 556              		.align	1
 557              		.global	RCC_LSICmd
 558              		.syntax unified
 559              		.thumb
 560              		.thumb_func
 561              		.fpu softvfp
 562              		.type	RCC_LSICmd, %function
 563              	RCC_LSICmd:
 564              	.LFB80:
 850:lib/src/stm32f10x_rcc.c ****       break;            
 851:lib/src/stm32f10x_rcc.c ****       
 852:lib/src/stm32f10x_rcc.c ****     default:
 853:lib/src/stm32f10x_rcc.c ****       break;      
 854:lib/src/stm32f10x_rcc.c ****   }
 855:lib/src/stm32f10x_rcc.c **** }
 856:lib/src/stm32f10x_rcc.c **** 
 857:lib/src/stm32f10x_rcc.c **** /**
 858:lib/src/stm32f10x_rcc.c ****   * @brief  Enables or disables the Internal Low Speed oscillator (LSI).
 859:lib/src/stm32f10x_rcc.c ****   * @note   LSI can not be disabled if the IWDG is running.
 860:lib/src/stm32f10x_rcc.c ****   * @param  NewState: new state of the LSI. This parameter can be: ENABLE or DISABLE.
ARM GAS  /tmp/cc3TVymc.s 			page 26


 861:lib/src/stm32f10x_rcc.c ****   * @retval None
 862:lib/src/stm32f10x_rcc.c ****   */
 863:lib/src/stm32f10x_rcc.c **** void RCC_LSICmd(FunctionalState NewState)
 864:lib/src/stm32f10x_rcc.c **** {
 565              		.loc 1 864 0
 566              		.cfi_startproc
 567              		@ args = 0, pretend = 0, frame = 0
 568              		@ frame_needed = 0, uses_anonymous_args = 0
 569              		@ link register save eliminated.
 570              	.LVL38:
 865:lib/src/stm32f10x_rcc.c ****   /* Check the parameters */
 866:lib/src/stm32f10x_rcc.c ****   assert_param(IS_FUNCTIONAL_STATE(NewState));
 867:lib/src/stm32f10x_rcc.c ****   *(__IO uint32_t *) CSR_LSION_BB = (uint32_t)NewState;
 571              		.loc 1 867 0
 572 0180 014B     		ldr	r3, .L56
 573 0182 1860     		str	r0, [r3]
 574 0184 7047     		bx	lr
 575              	.L57:
 576 0186 00BF     		.align	2
 577              	.L56:
 578 0188 80044242 		.word	1111622784
 579              		.cfi_endproc
 580              	.LFE80:
 581              		.size	RCC_LSICmd, .-RCC_LSICmd
 582              		.align	1
 583              		.global	RCC_RTCCLKConfig
 584              		.syntax unified
 585              		.thumb
 586              		.thumb_func
 587              		.fpu softvfp
 588              		.type	RCC_RTCCLKConfig, %function
 589              	RCC_RTCCLKConfig:
 590              	.LFB81:
 868:lib/src/stm32f10x_rcc.c **** }
 869:lib/src/stm32f10x_rcc.c **** 
 870:lib/src/stm32f10x_rcc.c **** /**
 871:lib/src/stm32f10x_rcc.c ****   * @brief  Configures the RTC clock (RTCCLK).
 872:lib/src/stm32f10x_rcc.c ****   * @note   Once the RTC clock is selected it can't be changed unless the Backup domain is reset.
 873:lib/src/stm32f10x_rcc.c ****   * @param  RCC_RTCCLKSource: specifies the RTC clock source.
 874:lib/src/stm32f10x_rcc.c ****   *   This parameter can be one of the following values:
 875:lib/src/stm32f10x_rcc.c ****   *     @arg RCC_RTCCLKSource_LSE: LSE selected as RTC clock
 876:lib/src/stm32f10x_rcc.c ****   *     @arg RCC_RTCCLKSource_LSI: LSI selected as RTC clock
 877:lib/src/stm32f10x_rcc.c ****   *     @arg RCC_RTCCLKSource_HSE_Div128: HSE clock divided by 128 selected as RTC clock
 878:lib/src/stm32f10x_rcc.c ****   * @retval None
 879:lib/src/stm32f10x_rcc.c ****   */
 880:lib/src/stm32f10x_rcc.c **** void RCC_RTCCLKConfig(uint32_t RCC_RTCCLKSource)
 881:lib/src/stm32f10x_rcc.c **** {
 591              		.loc 1 881 0
 592              		.cfi_startproc
 593              		@ args = 0, pretend = 0, frame = 0
 594              		@ frame_needed = 0, uses_anonymous_args = 0
 595              		@ link register save eliminated.
 596              	.LVL39:
 882:lib/src/stm32f10x_rcc.c ****   /* Check the parameters */
 883:lib/src/stm32f10x_rcc.c ****   assert_param(IS_RCC_RTCCLK_SOURCE(RCC_RTCCLKSource));
 884:lib/src/stm32f10x_rcc.c ****   /* Select the RTC clock source */
 885:lib/src/stm32f10x_rcc.c ****   RCC->BDCR |= RCC_RTCCLKSource;
ARM GAS  /tmp/cc3TVymc.s 			page 27


 597              		.loc 1 885 0
 598 018c 024A     		ldr	r2, .L59
 599 018e 136A     		ldr	r3, [r2, #32]
 600 0190 1843     		orrs	r0, r0, r3
 601              	.LVL40:
 602 0192 1062     		str	r0, [r2, #32]
 603 0194 7047     		bx	lr
 604              	.L60:
 605 0196 00BF     		.align	2
 606              	.L59:
 607 0198 00100240 		.word	1073876992
 608              		.cfi_endproc
 609              	.LFE81:
 610              		.size	RCC_RTCCLKConfig, .-RCC_RTCCLKConfig
 611              		.align	1
 612              		.global	RCC_RTCCLKCmd
 613              		.syntax unified
 614              		.thumb
 615              		.thumb_func
 616              		.fpu softvfp
 617              		.type	RCC_RTCCLKCmd, %function
 618              	RCC_RTCCLKCmd:
 619              	.LFB82:
 886:lib/src/stm32f10x_rcc.c **** }
 887:lib/src/stm32f10x_rcc.c **** 
 888:lib/src/stm32f10x_rcc.c **** /**
 889:lib/src/stm32f10x_rcc.c ****   * @brief  Enables or disables the RTC clock.
 890:lib/src/stm32f10x_rcc.c ****   * @note   This function must be used only after the RTC clock was selected using the RCC_RTCCLKCo
 891:lib/src/stm32f10x_rcc.c ****   * @param  NewState: new state of the RTC clock. This parameter can be: ENABLE or DISABLE.
 892:lib/src/stm32f10x_rcc.c ****   * @retval None
 893:lib/src/stm32f10x_rcc.c ****   */
 894:lib/src/stm32f10x_rcc.c **** void RCC_RTCCLKCmd(FunctionalState NewState)
 895:lib/src/stm32f10x_rcc.c **** {
 620              		.loc 1 895 0
 621              		.cfi_startproc
 622              		@ args = 0, pretend = 0, frame = 0
 623              		@ frame_needed = 0, uses_anonymous_args = 0
 624              		@ link register save eliminated.
 625              	.LVL41:
 896:lib/src/stm32f10x_rcc.c ****   /* Check the parameters */
 897:lib/src/stm32f10x_rcc.c ****   assert_param(IS_FUNCTIONAL_STATE(NewState));
 898:lib/src/stm32f10x_rcc.c ****   *(__IO uint32_t *) BDCR_RTCEN_BB = (uint32_t)NewState;
 626              		.loc 1 898 0
 627 019c 014B     		ldr	r3, .L62
 628 019e 1860     		str	r0, [r3]
 629 01a0 7047     		bx	lr
 630              	.L63:
 631 01a2 00BF     		.align	2
 632              	.L62:
 633 01a4 3C044242 		.word	1111622716
 634              		.cfi_endproc
 635              	.LFE82:
 636              		.size	RCC_RTCCLKCmd, .-RCC_RTCCLKCmd
 637              		.align	1
 638              		.global	RCC_GetClocksFreq
 639              		.syntax unified
 640              		.thumb
ARM GAS  /tmp/cc3TVymc.s 			page 28


 641              		.thumb_func
 642              		.fpu softvfp
 643              		.type	RCC_GetClocksFreq, %function
 644              	RCC_GetClocksFreq:
 645              	.LFB83:
 899:lib/src/stm32f10x_rcc.c **** }
 900:lib/src/stm32f10x_rcc.c **** 
 901:lib/src/stm32f10x_rcc.c **** /**
 902:lib/src/stm32f10x_rcc.c ****   * @brief  Returns the frequencies of different on chip clocks.
 903:lib/src/stm32f10x_rcc.c ****   * @param  RCC_Clocks: pointer to a RCC_ClocksTypeDef structure which will hold
 904:lib/src/stm32f10x_rcc.c ****   *         the clocks frequencies.
 905:lib/src/stm32f10x_rcc.c ****   * @note   The result of this function could be not correct when using 
 906:lib/src/stm32f10x_rcc.c ****   *         fractional value for HSE crystal.  
 907:lib/src/stm32f10x_rcc.c ****   * @retval None
 908:lib/src/stm32f10x_rcc.c ****   */
 909:lib/src/stm32f10x_rcc.c **** void RCC_GetClocksFreq(RCC_ClocksTypeDef* RCC_Clocks)
 910:lib/src/stm32f10x_rcc.c **** {
 646              		.loc 1 910 0
 647              		.cfi_startproc
 648              		@ args = 0, pretend = 0, frame = 0
 649              		@ frame_needed = 0, uses_anonymous_args = 0
 650              		@ link register save eliminated.
 651              	.LVL42:
 652 01a8 10B4     		push	{r4}
 653              		.cfi_def_cfa_offset 4
 654              		.cfi_offset 4, -4
 655              	.LVL43:
 911:lib/src/stm32f10x_rcc.c ****   uint32_t tmp = 0, pllmull = 0, pllsource = 0, presc = 0;
 912:lib/src/stm32f10x_rcc.c **** 
 913:lib/src/stm32f10x_rcc.c **** #ifdef  STM32F10X_CL
 914:lib/src/stm32f10x_rcc.c ****   uint32_t prediv1source = 0, prediv1factor = 0, prediv2factor = 0, pll2mull = 0;
 915:lib/src/stm32f10x_rcc.c **** #endif /* STM32F10X_CL */
 916:lib/src/stm32f10x_rcc.c **** 
 917:lib/src/stm32f10x_rcc.c **** #if defined (STM32F10X_LD_VL) || defined (STM32F10X_MD_VL) || defined (STM32F10X_HD_VL)
 918:lib/src/stm32f10x_rcc.c ****   uint32_t prediv1factor = 0;
 919:lib/src/stm32f10x_rcc.c **** #endif
 920:lib/src/stm32f10x_rcc.c ****     
 921:lib/src/stm32f10x_rcc.c ****   /* Get SYSCLK source -------------------------------------------------------*/
 922:lib/src/stm32f10x_rcc.c ****   tmp = RCC->CFGR & CFGR_SWS_Mask;
 656              		.loc 1 922 0
 657 01aa 274B     		ldr	r3, .L76
 658 01ac 5B68     		ldr	r3, [r3, #4]
 659              	.LVL44:
 660 01ae 03F00C03 		and	r3, r3, #12
 661              	.LVL45:
 923:lib/src/stm32f10x_rcc.c ****   
 924:lib/src/stm32f10x_rcc.c ****   switch (tmp)
 662              		.loc 1 924 0
 663 01b2 042B     		cmp	r3, #4
 664 01b4 2BD0     		beq	.L66
 665 01b6 082B     		cmp	r3, #8
 666 01b8 2CD0     		beq	.L67
 667 01ba 13B1     		cbz	r3, .L74
 925:lib/src/stm32f10x_rcc.c ****   {
 926:lib/src/stm32f10x_rcc.c ****     case 0x00:  /* HSI used as system clock */
 927:lib/src/stm32f10x_rcc.c ****       RCC_Clocks->SYSCLK_Frequency = HSI_VALUE;
 928:lib/src/stm32f10x_rcc.c ****       break;
ARM GAS  /tmp/cc3TVymc.s 			page 29


 929:lib/src/stm32f10x_rcc.c ****     case 0x04:  /* HSE used as system clock */
 930:lib/src/stm32f10x_rcc.c ****       RCC_Clocks->SYSCLK_Frequency = HSE_VALUE;
 931:lib/src/stm32f10x_rcc.c ****       break;
 932:lib/src/stm32f10x_rcc.c ****     case 0x08:  /* PLL used as system clock */
 933:lib/src/stm32f10x_rcc.c **** 
 934:lib/src/stm32f10x_rcc.c ****       /* Get PLL clock source and multiplication factor ----------------------*/
 935:lib/src/stm32f10x_rcc.c ****       pllmull = RCC->CFGR & CFGR_PLLMull_Mask;
 936:lib/src/stm32f10x_rcc.c ****       pllsource = RCC->CFGR & CFGR_PLLSRC_Mask;
 937:lib/src/stm32f10x_rcc.c ****       
 938:lib/src/stm32f10x_rcc.c **** #ifndef STM32F10X_CL      
 939:lib/src/stm32f10x_rcc.c ****       pllmull = ( pllmull >> 18) + 2;
 940:lib/src/stm32f10x_rcc.c ****       
 941:lib/src/stm32f10x_rcc.c ****       if (pllsource == 0x00)
 942:lib/src/stm32f10x_rcc.c ****       {/* HSI oscillator clock divided by 2 selected as PLL clock entry */
 943:lib/src/stm32f10x_rcc.c ****         RCC_Clocks->SYSCLK_Frequency = (HSI_VALUE >> 1) * pllmull;
 944:lib/src/stm32f10x_rcc.c ****       }
 945:lib/src/stm32f10x_rcc.c ****       else
 946:lib/src/stm32f10x_rcc.c ****       {
 947:lib/src/stm32f10x_rcc.c ****  #if defined (STM32F10X_LD_VL) || defined (STM32F10X_MD_VL) || defined (STM32F10X_HD_VL)
 948:lib/src/stm32f10x_rcc.c ****        prediv1factor = (RCC->CFGR2 & CFGR2_PREDIV1) + 1;
 949:lib/src/stm32f10x_rcc.c ****        /* HSE oscillator clock selected as PREDIV1 clock entry */
 950:lib/src/stm32f10x_rcc.c ****        RCC_Clocks->SYSCLK_Frequency = (HSE_VALUE / prediv1factor) * pllmull; 
 951:lib/src/stm32f10x_rcc.c ****  #else
 952:lib/src/stm32f10x_rcc.c ****         /* HSE selected as PLL clock entry */
 953:lib/src/stm32f10x_rcc.c ****         if ((RCC->CFGR & CFGR_PLLXTPRE_Mask) != (uint32_t)RESET)
 954:lib/src/stm32f10x_rcc.c ****         {/* HSE oscillator clock divided by 2 */
 955:lib/src/stm32f10x_rcc.c ****           RCC_Clocks->SYSCLK_Frequency = (HSE_VALUE >> 1) * pllmull;
 956:lib/src/stm32f10x_rcc.c ****         }
 957:lib/src/stm32f10x_rcc.c ****         else
 958:lib/src/stm32f10x_rcc.c ****         {
 959:lib/src/stm32f10x_rcc.c ****           RCC_Clocks->SYSCLK_Frequency = HSE_VALUE * pllmull;
 960:lib/src/stm32f10x_rcc.c ****         }
 961:lib/src/stm32f10x_rcc.c ****  #endif
 962:lib/src/stm32f10x_rcc.c ****       }
 963:lib/src/stm32f10x_rcc.c **** #else
 964:lib/src/stm32f10x_rcc.c ****       pllmull = pllmull >> 18;
 965:lib/src/stm32f10x_rcc.c ****       
 966:lib/src/stm32f10x_rcc.c ****       if (pllmull != 0x0D)
 967:lib/src/stm32f10x_rcc.c ****       {
 968:lib/src/stm32f10x_rcc.c ****          pllmull += 2;
 969:lib/src/stm32f10x_rcc.c ****       }
 970:lib/src/stm32f10x_rcc.c ****       else
 971:lib/src/stm32f10x_rcc.c ****       { /* PLL multiplication factor = PLL input clock * 6.5 */
 972:lib/src/stm32f10x_rcc.c ****         pllmull = 13 / 2; 
 973:lib/src/stm32f10x_rcc.c ****       }
 974:lib/src/stm32f10x_rcc.c ****             
 975:lib/src/stm32f10x_rcc.c ****       if (pllsource == 0x00)
 976:lib/src/stm32f10x_rcc.c ****       {/* HSI oscillator clock divided by 2 selected as PLL clock entry */
 977:lib/src/stm32f10x_rcc.c ****         RCC_Clocks->SYSCLK_Frequency = (HSI_VALUE >> 1) * pllmull;
 978:lib/src/stm32f10x_rcc.c ****       }
 979:lib/src/stm32f10x_rcc.c ****       else
 980:lib/src/stm32f10x_rcc.c ****       {/* PREDIV1 selected as PLL clock entry */
 981:lib/src/stm32f10x_rcc.c ****         
 982:lib/src/stm32f10x_rcc.c ****         /* Get PREDIV1 clock source and division factor */
 983:lib/src/stm32f10x_rcc.c ****         prediv1source = RCC->CFGR2 & CFGR2_PREDIV1SRC;
 984:lib/src/stm32f10x_rcc.c ****         prediv1factor = (RCC->CFGR2 & CFGR2_PREDIV1) + 1;
 985:lib/src/stm32f10x_rcc.c ****         
ARM GAS  /tmp/cc3TVymc.s 			page 30


 986:lib/src/stm32f10x_rcc.c ****         if (prediv1source == 0)
 987:lib/src/stm32f10x_rcc.c ****         { /* HSE oscillator clock selected as PREDIV1 clock entry */
 988:lib/src/stm32f10x_rcc.c ****           RCC_Clocks->SYSCLK_Frequency = (HSE_VALUE / prediv1factor) * pllmull;          
 989:lib/src/stm32f10x_rcc.c ****         }
 990:lib/src/stm32f10x_rcc.c ****         else
 991:lib/src/stm32f10x_rcc.c ****         {/* PLL2 clock selected as PREDIV1 clock entry */
 992:lib/src/stm32f10x_rcc.c ****           
 993:lib/src/stm32f10x_rcc.c ****           /* Get PREDIV2 division factor and PLL2 multiplication factor */
 994:lib/src/stm32f10x_rcc.c ****           prediv2factor = ((RCC->CFGR2 & CFGR2_PREDIV2) >> 4) + 1;
 995:lib/src/stm32f10x_rcc.c ****           pll2mull = ((RCC->CFGR2 & CFGR2_PLL2MUL) >> 8 ) + 2; 
 996:lib/src/stm32f10x_rcc.c ****           RCC_Clocks->SYSCLK_Frequency = (((HSE_VALUE / prediv2factor) * pll2mull) / prediv1factor)
 997:lib/src/stm32f10x_rcc.c ****         }
 998:lib/src/stm32f10x_rcc.c ****       }
 999:lib/src/stm32f10x_rcc.c **** #endif /* STM32F10X_CL */ 
1000:lib/src/stm32f10x_rcc.c ****       break;
1001:lib/src/stm32f10x_rcc.c **** 
1002:lib/src/stm32f10x_rcc.c ****     default:
1003:lib/src/stm32f10x_rcc.c ****       RCC_Clocks->SYSCLK_Frequency = HSI_VALUE;
 668              		.loc 1 1003 0
 669 01bc 234B     		ldr	r3, .L76+4
 670              	.LVL46:
 671 01be 0360     		str	r3, [r0]
1004:lib/src/stm32f10x_rcc.c ****       break;
 672              		.loc 1 1004 0
 673 01c0 01E0     		b	.L69
 674              	.LVL47:
 675              	.L74:
 927:lib/src/stm32f10x_rcc.c ****       break;
 676              		.loc 1 927 0
 677 01c2 224B     		ldr	r3, .L76+4
 678              	.LVL48:
 679 01c4 0360     		str	r3, [r0]
 680              	.LVL49:
 681              	.L69:
1005:lib/src/stm32f10x_rcc.c ****   }
1006:lib/src/stm32f10x_rcc.c **** 
1007:lib/src/stm32f10x_rcc.c ****   /* Compute HCLK, PCLK1, PCLK2 and ADCCLK clocks frequencies ----------------*/
1008:lib/src/stm32f10x_rcc.c ****   /* Get HCLK prescaler */
1009:lib/src/stm32f10x_rcc.c ****   tmp = RCC->CFGR & CFGR_HPRE_Set_Mask;
 682              		.loc 1 1009 0
 683 01c6 204C     		ldr	r4, .L76
 684 01c8 6368     		ldr	r3, [r4, #4]
 685              	.LVL50:
1010:lib/src/stm32f10x_rcc.c ****   tmp = tmp >> 4;
 686              		.loc 1 1010 0
 687 01ca C3F30313 		ubfx	r3, r3, #4, #4
 688              	.LVL51:
1011:lib/src/stm32f10x_rcc.c ****   presc = APBAHBPrescTable[tmp];
 689              		.loc 1 1011 0
 690 01ce 204A     		ldr	r2, .L76+8
 691 01d0 D35C     		ldrb	r3, [r2, r3]	@ zero_extendqisi2
 692              	.LVL52:
 693 01d2 D9B2     		uxtb	r1, r3
 694              	.LVL53:
1012:lib/src/stm32f10x_rcc.c ****   /* HCLK clock frequency */
1013:lib/src/stm32f10x_rcc.c ****   RCC_Clocks->HCLK_Frequency = RCC_Clocks->SYSCLK_Frequency >> presc;
 695              		.loc 1 1013 0
ARM GAS  /tmp/cc3TVymc.s 			page 31


 696 01d4 0368     		ldr	r3, [r0]
 697 01d6 CB40     		lsrs	r3, r3, r1
 698 01d8 4360     		str	r3, [r0, #4]
1014:lib/src/stm32f10x_rcc.c ****   /* Get PCLK1 prescaler */
1015:lib/src/stm32f10x_rcc.c ****   tmp = RCC->CFGR & CFGR_PPRE1_Set_Mask;
 699              		.loc 1 1015 0
 700 01da 6168     		ldr	r1, [r4, #4]
 701              	.LVL54:
1016:lib/src/stm32f10x_rcc.c ****   tmp = tmp >> 8;
 702              		.loc 1 1016 0
 703 01dc C1F30221 		ubfx	r1, r1, #8, #3
 704              	.LVL55:
1017:lib/src/stm32f10x_rcc.c ****   presc = APBAHBPrescTable[tmp];
 705              		.loc 1 1017 0
 706 01e0 515C     		ldrb	r1, [r2, r1]	@ zero_extendqisi2
 707              	.LVL56:
 708 01e2 C9B2     		uxtb	r1, r1
 709              	.LVL57:
1018:lib/src/stm32f10x_rcc.c ****   /* PCLK1 clock frequency */
1019:lib/src/stm32f10x_rcc.c ****   RCC_Clocks->PCLK1_Frequency = RCC_Clocks->HCLK_Frequency >> presc;
 710              		.loc 1 1019 0
 711 01e4 23FA01F1 		lsr	r1, r3, r1
 712              	.LVL58:
 713 01e8 8160     		str	r1, [r0, #8]
1020:lib/src/stm32f10x_rcc.c ****   /* Get PCLK2 prescaler */
1021:lib/src/stm32f10x_rcc.c ****   tmp = RCC->CFGR & CFGR_PPRE2_Set_Mask;
 714              		.loc 1 1021 0
 715 01ea 6168     		ldr	r1, [r4, #4]
 716              	.LVL59:
1022:lib/src/stm32f10x_rcc.c ****   tmp = tmp >> 11;
 717              		.loc 1 1022 0
 718 01ec C1F3C221 		ubfx	r1, r1, #11, #3
 719              	.LVL60:
1023:lib/src/stm32f10x_rcc.c ****   presc = APBAHBPrescTable[tmp];
 720              		.loc 1 1023 0
 721 01f0 515C     		ldrb	r1, [r2, r1]	@ zero_extendqisi2
 722              	.LVL61:
 723 01f2 C9B2     		uxtb	r1, r1
 724              	.LVL62:
1024:lib/src/stm32f10x_rcc.c ****   /* PCLK2 clock frequency */
1025:lib/src/stm32f10x_rcc.c ****   RCC_Clocks->PCLK2_Frequency = RCC_Clocks->HCLK_Frequency >> presc;
 725              		.loc 1 1025 0
 726 01f4 CB40     		lsrs	r3, r3, r1
 727 01f6 C360     		str	r3, [r0, #12]
1026:lib/src/stm32f10x_rcc.c ****   /* Get ADCCLK prescaler */
1027:lib/src/stm32f10x_rcc.c ****   tmp = RCC->CFGR & CFGR_ADCPRE_Set_Mask;
 728              		.loc 1 1027 0
 729 01f8 6168     		ldr	r1, [r4, #4]
 730              	.LVL63:
1028:lib/src/stm32f10x_rcc.c ****   tmp = tmp >> 14;
 731              		.loc 1 1028 0
 732 01fa C1F38131 		ubfx	r1, r1, #14, #2
 733              	.LVL64:
1029:lib/src/stm32f10x_rcc.c ****   presc = ADCPrescTable[tmp];
 734              		.loc 1 1029 0
 735 01fe 0A44     		add	r2, r2, r1
 736 0200 127C     		ldrb	r2, [r2, #16]	@ zero_extendqisi2
ARM GAS  /tmp/cc3TVymc.s 			page 32


 737 0202 D2B2     		uxtb	r2, r2
 738              	.LVL65:
1030:lib/src/stm32f10x_rcc.c ****   /* ADCCLK clock frequency */
1031:lib/src/stm32f10x_rcc.c ****   RCC_Clocks->ADCCLK_Frequency = RCC_Clocks->PCLK2_Frequency / presc;
 739              		.loc 1 1031 0
 740 0204 B3FBF2F3 		udiv	r3, r3, r2
 741 0208 0361     		str	r3, [r0, #16]
1032:lib/src/stm32f10x_rcc.c **** }
 742              		.loc 1 1032 0
 743 020a 10BC     		pop	{r4}
 744              		.cfi_remember_state
 745              		.cfi_restore 4
 746              		.cfi_def_cfa_offset 0
 747 020c 7047     		bx	lr
 748              	.LVL66:
 749              	.L66:
 750              		.cfi_restore_state
 930:lib/src/stm32f10x_rcc.c ****       break;
 751              		.loc 1 930 0
 752 020e 0F4B     		ldr	r3, .L76+4
 753              	.LVL67:
 754 0210 0360     		str	r3, [r0]
 931:lib/src/stm32f10x_rcc.c ****     case 0x08:  /* PLL used as system clock */
 755              		.loc 1 931 0
 756 0212 D8E7     		b	.L69
 757              	.LVL68:
 758              	.L67:
 935:lib/src/stm32f10x_rcc.c ****       pllsource = RCC->CFGR & CFGR_PLLSRC_Mask;
 759              		.loc 1 935 0
 760 0214 0C4A     		ldr	r2, .L76
 761 0216 5368     		ldr	r3, [r2, #4]
 762              	.LVL69:
 936:lib/src/stm32f10x_rcc.c ****       
 763              		.loc 1 936 0
 764 0218 5268     		ldr	r2, [r2, #4]
 765              	.LVL70:
 939:lib/src/stm32f10x_rcc.c ****       
 766              		.loc 1 939 0
 767 021a C3F38343 		ubfx	r3, r3, #18, #4
 768              	.LVL71:
 769 021e 0233     		adds	r3, r3, #2
 770              	.LVL72:
 941:lib/src/stm32f10x_rcc.c ****       {/* HSI oscillator clock divided by 2 selected as PLL clock entry */
 771              		.loc 1 941 0
 772 0220 12F4803F 		tst	r2, #65536
 773 0224 0AD0     		beq	.L75
 953:lib/src/stm32f10x_rcc.c ****         {/* HSE oscillator clock divided by 2 */
 774              		.loc 1 953 0
 775 0226 084A     		ldr	r2, .L76
 776              	.LVL73:
 777 0228 5268     		ldr	r2, [r2, #4]
 778 022a 12F4003F 		tst	r2, #131072
 955:lib/src/stm32f10x_rcc.c ****         }
 779              		.loc 1 955 0
 780 022e 14BF     		ite	ne
 781 0230 084A     		ldrne	r2, .L76+12
 959:lib/src/stm32f10x_rcc.c ****         }
ARM GAS  /tmp/cc3TVymc.s 			page 33


 782              		.loc 1 959 0
 783 0232 064A     		ldreq	r2, .L76+4
 784 0234 02FB03F3 		mul	r3, r2, r3
 785              	.LVL74:
 786 0238 0360     		str	r3, [r0]
 787 023a C4E7     		b	.L69
 788              	.LVL75:
 789              	.L75:
 943:lib/src/stm32f10x_rcc.c ****       }
 790              		.loc 1 943 0
 791 023c 054A     		ldr	r2, .L76+12
 792              	.LVL76:
 793 023e 02FB03F3 		mul	r3, r2, r3
 794              	.LVL77:
 795 0242 0360     		str	r3, [r0]
 796 0244 BFE7     		b	.L69
 797              	.L77:
 798 0246 00BF     		.align	2
 799              	.L76:
 800 0248 00100240 		.word	1073876992
 801 024c 00127A00 		.word	8000000
 802 0250 00000000 		.word	.LANCHOR0
 803 0254 00093D00 		.word	4000000
 804              		.cfi_endproc
 805              	.LFE83:
 806              		.size	RCC_GetClocksFreq, .-RCC_GetClocksFreq
 807              		.align	1
 808              		.global	RCC_AHBPeriphClockCmd
 809              		.syntax unified
 810              		.thumb
 811              		.thumb_func
 812              		.fpu softvfp
 813              		.type	RCC_AHBPeriphClockCmd, %function
 814              	RCC_AHBPeriphClockCmd:
 815              	.LFB84:
1033:lib/src/stm32f10x_rcc.c **** 
1034:lib/src/stm32f10x_rcc.c **** /**
1035:lib/src/stm32f10x_rcc.c ****   * @brief  Enables or disables the AHB peripheral clock.
1036:lib/src/stm32f10x_rcc.c ****   * @param  RCC_AHBPeriph: specifies the AHB peripheral to gates its clock.
1037:lib/src/stm32f10x_rcc.c ****   *   
1038:lib/src/stm32f10x_rcc.c ****   *   For @b STM32_Connectivity_line_devices, this parameter can be any combination
1039:lib/src/stm32f10x_rcc.c ****   *   of the following values:        
1040:lib/src/stm32f10x_rcc.c ****   *     @arg RCC_AHBPeriph_DMA1
1041:lib/src/stm32f10x_rcc.c ****   *     @arg RCC_AHBPeriph_DMA2
1042:lib/src/stm32f10x_rcc.c ****   *     @arg RCC_AHBPeriph_SRAM
1043:lib/src/stm32f10x_rcc.c ****   *     @arg RCC_AHBPeriph_FLITF
1044:lib/src/stm32f10x_rcc.c ****   *     @arg RCC_AHBPeriph_CRC
1045:lib/src/stm32f10x_rcc.c ****   *     @arg RCC_AHBPeriph_OTG_FS    
1046:lib/src/stm32f10x_rcc.c ****   *     @arg RCC_AHBPeriph_ETH_MAC   
1047:lib/src/stm32f10x_rcc.c ****   *     @arg RCC_AHBPeriph_ETH_MAC_Tx
1048:lib/src/stm32f10x_rcc.c ****   *     @arg RCC_AHBPeriph_ETH_MAC_Rx
1049:lib/src/stm32f10x_rcc.c ****   * 
1050:lib/src/stm32f10x_rcc.c ****   *   For @b other_STM32_devices, this parameter can be any combination of the 
1051:lib/src/stm32f10x_rcc.c ****   *   following values:        
1052:lib/src/stm32f10x_rcc.c ****   *     @arg RCC_AHBPeriph_DMA1
1053:lib/src/stm32f10x_rcc.c ****   *     @arg RCC_AHBPeriph_DMA2
1054:lib/src/stm32f10x_rcc.c ****   *     @arg RCC_AHBPeriph_SRAM
ARM GAS  /tmp/cc3TVymc.s 			page 34


1055:lib/src/stm32f10x_rcc.c ****   *     @arg RCC_AHBPeriph_FLITF
1056:lib/src/stm32f10x_rcc.c ****   *     @arg RCC_AHBPeriph_CRC
1057:lib/src/stm32f10x_rcc.c ****   *     @arg RCC_AHBPeriph_FSMC
1058:lib/src/stm32f10x_rcc.c ****   *     @arg RCC_AHBPeriph_SDIO
1059:lib/src/stm32f10x_rcc.c ****   *   
1060:lib/src/stm32f10x_rcc.c ****   * @note SRAM and FLITF clock can be disabled only during sleep mode.
1061:lib/src/stm32f10x_rcc.c ****   * @param  NewState: new state of the specified peripheral clock.
1062:lib/src/stm32f10x_rcc.c ****   *   This parameter can be: ENABLE or DISABLE.
1063:lib/src/stm32f10x_rcc.c ****   * @retval None
1064:lib/src/stm32f10x_rcc.c ****   */
1065:lib/src/stm32f10x_rcc.c **** void RCC_AHBPeriphClockCmd(uint32_t RCC_AHBPeriph, FunctionalState NewState)
1066:lib/src/stm32f10x_rcc.c **** {
 816              		.loc 1 1066 0
 817              		.cfi_startproc
 818              		@ args = 0, pretend = 0, frame = 0
 819              		@ frame_needed = 0, uses_anonymous_args = 0
 820              		@ link register save eliminated.
 821              	.LVL78:
1067:lib/src/stm32f10x_rcc.c ****   /* Check the parameters */
1068:lib/src/stm32f10x_rcc.c ****   assert_param(IS_RCC_AHB_PERIPH(RCC_AHBPeriph));
1069:lib/src/stm32f10x_rcc.c ****   assert_param(IS_FUNCTIONAL_STATE(NewState));
1070:lib/src/stm32f10x_rcc.c **** 
1071:lib/src/stm32f10x_rcc.c ****   if (NewState != DISABLE)
 822              		.loc 1 1071 0
 823 0258 29B9     		cbnz	r1, .L81
1072:lib/src/stm32f10x_rcc.c ****   {
1073:lib/src/stm32f10x_rcc.c ****     RCC->AHBENR |= RCC_AHBPeriph;
1074:lib/src/stm32f10x_rcc.c ****   }
1075:lib/src/stm32f10x_rcc.c ****   else
1076:lib/src/stm32f10x_rcc.c ****   {
1077:lib/src/stm32f10x_rcc.c ****     RCC->AHBENR &= ~RCC_AHBPeriph;
 824              		.loc 1 1077 0
 825 025a 054A     		ldr	r2, .L82
 826 025c 5369     		ldr	r3, [r2, #20]
 827 025e 23EA0000 		bic	r0, r3, r0
 828              	.LVL79:
 829 0262 5061     		str	r0, [r2, #20]
 830 0264 7047     		bx	lr
 831              	.LVL80:
 832              	.L81:
1073:lib/src/stm32f10x_rcc.c ****   }
 833              		.loc 1 1073 0
 834 0266 024A     		ldr	r2, .L82
 835 0268 5369     		ldr	r3, [r2, #20]
 836 026a 1843     		orrs	r0, r0, r3
 837              	.LVL81:
 838 026c 5061     		str	r0, [r2, #20]
 839 026e 7047     		bx	lr
 840              	.L83:
 841              		.align	2
 842              	.L82:
 843 0270 00100240 		.word	1073876992
 844              		.cfi_endproc
 845              	.LFE84:
 846              		.size	RCC_AHBPeriphClockCmd, .-RCC_AHBPeriphClockCmd
 847              		.align	1
 848              		.global	RCC_APB2PeriphClockCmd
ARM GAS  /tmp/cc3TVymc.s 			page 35


 849              		.syntax unified
 850              		.thumb
 851              		.thumb_func
 852              		.fpu softvfp
 853              		.type	RCC_APB2PeriphClockCmd, %function
 854              	RCC_APB2PeriphClockCmd:
 855              	.LFB85:
1078:lib/src/stm32f10x_rcc.c ****   }
1079:lib/src/stm32f10x_rcc.c **** }
1080:lib/src/stm32f10x_rcc.c **** 
1081:lib/src/stm32f10x_rcc.c **** /**
1082:lib/src/stm32f10x_rcc.c ****   * @brief  Enables or disables the High Speed APB (APB2) peripheral clock.
1083:lib/src/stm32f10x_rcc.c ****   * @param  RCC_APB2Periph: specifies the APB2 peripheral to gates its clock.
1084:lib/src/stm32f10x_rcc.c ****   *   This parameter can be any combination of the following values:
1085:lib/src/stm32f10x_rcc.c ****   *     @arg RCC_APB2Periph_AFIO, RCC_APB2Periph_GPIOA, RCC_APB2Periph_GPIOB,
1086:lib/src/stm32f10x_rcc.c ****   *          RCC_APB2Periph_GPIOC, RCC_APB2Periph_GPIOD, RCC_APB2Periph_GPIOE,
1087:lib/src/stm32f10x_rcc.c ****   *          RCC_APB2Periph_GPIOF, RCC_APB2Periph_GPIOG, RCC_APB2Periph_ADC1,
1088:lib/src/stm32f10x_rcc.c ****   *          RCC_APB2Periph_ADC2, RCC_APB2Periph_TIM1, RCC_APB2Periph_SPI1,
1089:lib/src/stm32f10x_rcc.c ****   *          RCC_APB2Periph_TIM8, RCC_APB2Periph_USART1, RCC_APB2Periph_ADC3,
1090:lib/src/stm32f10x_rcc.c ****   *          RCC_APB2Periph_TIM15, RCC_APB2Periph_TIM16, RCC_APB2Periph_TIM17,
1091:lib/src/stm32f10x_rcc.c ****   *          RCC_APB2Periph_TIM9, RCC_APB2Periph_TIM10, RCC_APB2Periph_TIM11     
1092:lib/src/stm32f10x_rcc.c ****   * @param  NewState: new state of the specified peripheral clock.
1093:lib/src/stm32f10x_rcc.c ****   *   This parameter can be: ENABLE or DISABLE.
1094:lib/src/stm32f10x_rcc.c ****   * @retval None
1095:lib/src/stm32f10x_rcc.c ****   */
1096:lib/src/stm32f10x_rcc.c **** void RCC_APB2PeriphClockCmd(uint32_t RCC_APB2Periph, FunctionalState NewState)
1097:lib/src/stm32f10x_rcc.c **** {
 856              		.loc 1 1097 0
 857              		.cfi_startproc
 858              		@ args = 0, pretend = 0, frame = 0
 859              		@ frame_needed = 0, uses_anonymous_args = 0
 860              		@ link register save eliminated.
 861              	.LVL82:
1098:lib/src/stm32f10x_rcc.c ****   /* Check the parameters */
1099:lib/src/stm32f10x_rcc.c ****   assert_param(IS_RCC_APB2_PERIPH(RCC_APB2Periph));
1100:lib/src/stm32f10x_rcc.c ****   assert_param(IS_FUNCTIONAL_STATE(NewState));
1101:lib/src/stm32f10x_rcc.c ****   if (NewState != DISABLE)
 862              		.loc 1 1101 0
 863 0274 29B9     		cbnz	r1, .L87
1102:lib/src/stm32f10x_rcc.c ****   {
1103:lib/src/stm32f10x_rcc.c ****     RCC->APB2ENR |= RCC_APB2Periph;
1104:lib/src/stm32f10x_rcc.c ****   }
1105:lib/src/stm32f10x_rcc.c ****   else
1106:lib/src/stm32f10x_rcc.c ****   {
1107:lib/src/stm32f10x_rcc.c ****     RCC->APB2ENR &= ~RCC_APB2Periph;
 864              		.loc 1 1107 0
 865 0276 054A     		ldr	r2, .L88
 866 0278 9369     		ldr	r3, [r2, #24]
 867 027a 23EA0000 		bic	r0, r3, r0
 868              	.LVL83:
 869 027e 9061     		str	r0, [r2, #24]
 870 0280 7047     		bx	lr
 871              	.LVL84:
 872              	.L87:
1103:lib/src/stm32f10x_rcc.c ****   }
 873              		.loc 1 1103 0
 874 0282 024A     		ldr	r2, .L88
ARM GAS  /tmp/cc3TVymc.s 			page 36


 875 0284 9369     		ldr	r3, [r2, #24]
 876 0286 1843     		orrs	r0, r0, r3
 877              	.LVL85:
 878 0288 9061     		str	r0, [r2, #24]
 879 028a 7047     		bx	lr
 880              	.L89:
 881              		.align	2
 882              	.L88:
 883 028c 00100240 		.word	1073876992
 884              		.cfi_endproc
 885              	.LFE85:
 886              		.size	RCC_APB2PeriphClockCmd, .-RCC_APB2PeriphClockCmd
 887              		.align	1
 888              		.global	RCC_APB1PeriphClockCmd
 889              		.syntax unified
 890              		.thumb
 891              		.thumb_func
 892              		.fpu softvfp
 893              		.type	RCC_APB1PeriphClockCmd, %function
 894              	RCC_APB1PeriphClockCmd:
 895              	.LFB86:
1108:lib/src/stm32f10x_rcc.c ****   }
1109:lib/src/stm32f10x_rcc.c **** }
1110:lib/src/stm32f10x_rcc.c **** 
1111:lib/src/stm32f10x_rcc.c **** /**
1112:lib/src/stm32f10x_rcc.c ****   * @brief  Enables or disables the Low Speed APB (APB1) peripheral clock.
1113:lib/src/stm32f10x_rcc.c ****   * @param  RCC_APB1Periph: specifies the APB1 peripheral to gates its clock.
1114:lib/src/stm32f10x_rcc.c ****   *   This parameter can be any combination of the following values:
1115:lib/src/stm32f10x_rcc.c ****   *     @arg RCC_APB1Periph_TIM2, RCC_APB1Periph_TIM3, RCC_APB1Periph_TIM4,
1116:lib/src/stm32f10x_rcc.c ****   *          RCC_APB1Periph_TIM5, RCC_APB1Periph_TIM6, RCC_APB1Periph_TIM7,
1117:lib/src/stm32f10x_rcc.c ****   *          RCC_APB1Periph_WWDG, RCC_APB1Periph_SPI2, RCC_APB1Periph_SPI3,
1118:lib/src/stm32f10x_rcc.c ****   *          RCC_APB1Periph_USART2, RCC_APB1Periph_USART3, RCC_APB1Periph_USART4, 
1119:lib/src/stm32f10x_rcc.c ****   *          RCC_APB1Periph_USART5, RCC_APB1Periph_I2C1, RCC_APB1Periph_I2C2,
1120:lib/src/stm32f10x_rcc.c ****   *          RCC_APB1Periph_USB, RCC_APB1Periph_CAN1, RCC_APB1Periph_BKP,
1121:lib/src/stm32f10x_rcc.c ****   *          RCC_APB1Periph_PWR, RCC_APB1Periph_DAC, RCC_APB1Periph_CEC,
1122:lib/src/stm32f10x_rcc.c ****   *          RCC_APB1Periph_TIM12, RCC_APB1Periph_TIM13, RCC_APB1Periph_TIM14
1123:lib/src/stm32f10x_rcc.c ****   * @param  NewState: new state of the specified peripheral clock.
1124:lib/src/stm32f10x_rcc.c ****   *   This parameter can be: ENABLE or DISABLE.
1125:lib/src/stm32f10x_rcc.c ****   * @retval None
1126:lib/src/stm32f10x_rcc.c ****   */
1127:lib/src/stm32f10x_rcc.c **** void RCC_APB1PeriphClockCmd(uint32_t RCC_APB1Periph, FunctionalState NewState)
1128:lib/src/stm32f10x_rcc.c **** {
 896              		.loc 1 1128 0
 897              		.cfi_startproc
 898              		@ args = 0, pretend = 0, frame = 0
 899              		@ frame_needed = 0, uses_anonymous_args = 0
 900              		@ link register save eliminated.
 901              	.LVL86:
1129:lib/src/stm32f10x_rcc.c ****   /* Check the parameters */
1130:lib/src/stm32f10x_rcc.c ****   assert_param(IS_RCC_APB1_PERIPH(RCC_APB1Periph));
1131:lib/src/stm32f10x_rcc.c ****   assert_param(IS_FUNCTIONAL_STATE(NewState));
1132:lib/src/stm32f10x_rcc.c ****   if (NewState != DISABLE)
 902              		.loc 1 1132 0
 903 0290 29B9     		cbnz	r1, .L93
1133:lib/src/stm32f10x_rcc.c ****   {
1134:lib/src/stm32f10x_rcc.c ****     RCC->APB1ENR |= RCC_APB1Periph;
1135:lib/src/stm32f10x_rcc.c ****   }
ARM GAS  /tmp/cc3TVymc.s 			page 37


1136:lib/src/stm32f10x_rcc.c ****   else
1137:lib/src/stm32f10x_rcc.c ****   {
1138:lib/src/stm32f10x_rcc.c ****     RCC->APB1ENR &= ~RCC_APB1Periph;
 904              		.loc 1 1138 0
 905 0292 054A     		ldr	r2, .L94
 906 0294 D369     		ldr	r3, [r2, #28]
 907 0296 23EA0000 		bic	r0, r3, r0
 908              	.LVL87:
 909 029a D061     		str	r0, [r2, #28]
 910 029c 7047     		bx	lr
 911              	.LVL88:
 912              	.L93:
1134:lib/src/stm32f10x_rcc.c ****   }
 913              		.loc 1 1134 0
 914 029e 024A     		ldr	r2, .L94
 915 02a0 D369     		ldr	r3, [r2, #28]
 916 02a2 1843     		orrs	r0, r0, r3
 917              	.LVL89:
 918 02a4 D061     		str	r0, [r2, #28]
 919 02a6 7047     		bx	lr
 920              	.L95:
 921              		.align	2
 922              	.L94:
 923 02a8 00100240 		.word	1073876992
 924              		.cfi_endproc
 925              	.LFE86:
 926              		.size	RCC_APB1PeriphClockCmd, .-RCC_APB1PeriphClockCmd
 927              		.align	1
 928              		.global	RCC_APB2PeriphResetCmd
 929              		.syntax unified
 930              		.thumb
 931              		.thumb_func
 932              		.fpu softvfp
 933              		.type	RCC_APB2PeriphResetCmd, %function
 934              	RCC_APB2PeriphResetCmd:
 935              	.LFB87:
1139:lib/src/stm32f10x_rcc.c ****   }
1140:lib/src/stm32f10x_rcc.c **** }
1141:lib/src/stm32f10x_rcc.c **** 
1142:lib/src/stm32f10x_rcc.c **** #ifdef STM32F10X_CL
1143:lib/src/stm32f10x_rcc.c **** /**
1144:lib/src/stm32f10x_rcc.c ****   * @brief  Forces or releases AHB peripheral reset.
1145:lib/src/stm32f10x_rcc.c ****   * @note   This function applies only to STM32 Connectivity line devices.
1146:lib/src/stm32f10x_rcc.c ****   * @param  RCC_AHBPeriph: specifies the AHB peripheral to reset.
1147:lib/src/stm32f10x_rcc.c ****   *   This parameter can be any combination of the following values:
1148:lib/src/stm32f10x_rcc.c ****   *     @arg RCC_AHBPeriph_OTG_FS 
1149:lib/src/stm32f10x_rcc.c ****   *     @arg RCC_AHBPeriph_ETH_MAC
1150:lib/src/stm32f10x_rcc.c ****   * @param  NewState: new state of the specified peripheral reset.
1151:lib/src/stm32f10x_rcc.c ****   *   This parameter can be: ENABLE or DISABLE.
1152:lib/src/stm32f10x_rcc.c ****   * @retval None
1153:lib/src/stm32f10x_rcc.c ****   */
1154:lib/src/stm32f10x_rcc.c **** void RCC_AHBPeriphResetCmd(uint32_t RCC_AHBPeriph, FunctionalState NewState)
1155:lib/src/stm32f10x_rcc.c **** {
1156:lib/src/stm32f10x_rcc.c ****   /* Check the parameters */
1157:lib/src/stm32f10x_rcc.c ****   assert_param(IS_RCC_AHB_PERIPH_RESET(RCC_AHBPeriph));
1158:lib/src/stm32f10x_rcc.c ****   assert_param(IS_FUNCTIONAL_STATE(NewState));
1159:lib/src/stm32f10x_rcc.c **** 
ARM GAS  /tmp/cc3TVymc.s 			page 38


1160:lib/src/stm32f10x_rcc.c ****   if (NewState != DISABLE)
1161:lib/src/stm32f10x_rcc.c ****   {
1162:lib/src/stm32f10x_rcc.c ****     RCC->AHBRSTR |= RCC_AHBPeriph;
1163:lib/src/stm32f10x_rcc.c ****   }
1164:lib/src/stm32f10x_rcc.c ****   else
1165:lib/src/stm32f10x_rcc.c ****   {
1166:lib/src/stm32f10x_rcc.c ****     RCC->AHBRSTR &= ~RCC_AHBPeriph;
1167:lib/src/stm32f10x_rcc.c ****   }
1168:lib/src/stm32f10x_rcc.c **** }
1169:lib/src/stm32f10x_rcc.c **** #endif /* STM32F10X_CL */ 
1170:lib/src/stm32f10x_rcc.c **** 
1171:lib/src/stm32f10x_rcc.c **** /**
1172:lib/src/stm32f10x_rcc.c ****   * @brief  Forces or releases High Speed APB (APB2) peripheral reset.
1173:lib/src/stm32f10x_rcc.c ****   * @param  RCC_APB2Periph: specifies the APB2 peripheral to reset.
1174:lib/src/stm32f10x_rcc.c ****   *   This parameter can be any combination of the following values:
1175:lib/src/stm32f10x_rcc.c ****   *     @arg RCC_APB2Periph_AFIO, RCC_APB2Periph_GPIOA, RCC_APB2Periph_GPIOB,
1176:lib/src/stm32f10x_rcc.c ****   *          RCC_APB2Periph_GPIOC, RCC_APB2Periph_GPIOD, RCC_APB2Periph_GPIOE,
1177:lib/src/stm32f10x_rcc.c ****   *          RCC_APB2Periph_GPIOF, RCC_APB2Periph_GPIOG, RCC_APB2Periph_ADC1,
1178:lib/src/stm32f10x_rcc.c ****   *          RCC_APB2Periph_ADC2, RCC_APB2Periph_TIM1, RCC_APB2Periph_SPI1,
1179:lib/src/stm32f10x_rcc.c ****   *          RCC_APB2Periph_TIM8, RCC_APB2Periph_USART1, RCC_APB2Periph_ADC3,
1180:lib/src/stm32f10x_rcc.c ****   *          RCC_APB2Periph_TIM15, RCC_APB2Periph_TIM16, RCC_APB2Periph_TIM17,
1181:lib/src/stm32f10x_rcc.c ****   *          RCC_APB2Periph_TIM9, RCC_APB2Periph_TIM10, RCC_APB2Periph_TIM11  
1182:lib/src/stm32f10x_rcc.c ****   * @param  NewState: new state of the specified peripheral reset.
1183:lib/src/stm32f10x_rcc.c ****   *   This parameter can be: ENABLE or DISABLE.
1184:lib/src/stm32f10x_rcc.c ****   * @retval None
1185:lib/src/stm32f10x_rcc.c ****   */
1186:lib/src/stm32f10x_rcc.c **** void RCC_APB2PeriphResetCmd(uint32_t RCC_APB2Periph, FunctionalState NewState)
1187:lib/src/stm32f10x_rcc.c **** {
 936              		.loc 1 1187 0
 937              		.cfi_startproc
 938              		@ args = 0, pretend = 0, frame = 0
 939              		@ frame_needed = 0, uses_anonymous_args = 0
 940              		@ link register save eliminated.
 941              	.LVL90:
1188:lib/src/stm32f10x_rcc.c ****   /* Check the parameters */
1189:lib/src/stm32f10x_rcc.c ****   assert_param(IS_RCC_APB2_PERIPH(RCC_APB2Periph));
1190:lib/src/stm32f10x_rcc.c ****   assert_param(IS_FUNCTIONAL_STATE(NewState));
1191:lib/src/stm32f10x_rcc.c ****   if (NewState != DISABLE)
 942              		.loc 1 1191 0
 943 02ac 29B9     		cbnz	r1, .L99
1192:lib/src/stm32f10x_rcc.c ****   {
1193:lib/src/stm32f10x_rcc.c ****     RCC->APB2RSTR |= RCC_APB2Periph;
1194:lib/src/stm32f10x_rcc.c ****   }
1195:lib/src/stm32f10x_rcc.c ****   else
1196:lib/src/stm32f10x_rcc.c ****   {
1197:lib/src/stm32f10x_rcc.c ****     RCC->APB2RSTR &= ~RCC_APB2Periph;
 944              		.loc 1 1197 0
 945 02ae 054A     		ldr	r2, .L100
 946 02b0 D368     		ldr	r3, [r2, #12]
 947 02b2 23EA0000 		bic	r0, r3, r0
 948              	.LVL91:
 949 02b6 D060     		str	r0, [r2, #12]
 950 02b8 7047     		bx	lr
 951              	.LVL92:
 952              	.L99:
1193:lib/src/stm32f10x_rcc.c ****   }
 953              		.loc 1 1193 0
ARM GAS  /tmp/cc3TVymc.s 			page 39


 954 02ba 024A     		ldr	r2, .L100
 955 02bc D368     		ldr	r3, [r2, #12]
 956 02be 1843     		orrs	r0, r0, r3
 957              	.LVL93:
 958 02c0 D060     		str	r0, [r2, #12]
 959 02c2 7047     		bx	lr
 960              	.L101:
 961              		.align	2
 962              	.L100:
 963 02c4 00100240 		.word	1073876992
 964              		.cfi_endproc
 965              	.LFE87:
 966              		.size	RCC_APB2PeriphResetCmd, .-RCC_APB2PeriphResetCmd
 967              		.align	1
 968              		.global	RCC_APB1PeriphResetCmd
 969              		.syntax unified
 970              		.thumb
 971              		.thumb_func
 972              		.fpu softvfp
 973              		.type	RCC_APB1PeriphResetCmd, %function
 974              	RCC_APB1PeriphResetCmd:
 975              	.LFB88:
1198:lib/src/stm32f10x_rcc.c ****   }
1199:lib/src/stm32f10x_rcc.c **** }
1200:lib/src/stm32f10x_rcc.c **** 
1201:lib/src/stm32f10x_rcc.c **** /**
1202:lib/src/stm32f10x_rcc.c ****   * @brief  Forces or releases Low Speed APB (APB1) peripheral reset.
1203:lib/src/stm32f10x_rcc.c ****   * @param  RCC_APB1Periph: specifies the APB1 peripheral to reset.
1204:lib/src/stm32f10x_rcc.c ****   *   This parameter can be any combination of the following values:
1205:lib/src/stm32f10x_rcc.c ****   *     @arg RCC_APB1Periph_TIM2, RCC_APB1Periph_TIM3, RCC_APB1Periph_TIM4,
1206:lib/src/stm32f10x_rcc.c ****   *          RCC_APB1Periph_TIM5, RCC_APB1Periph_TIM6, RCC_APB1Periph_TIM7,
1207:lib/src/stm32f10x_rcc.c ****   *          RCC_APB1Periph_WWDG, RCC_APB1Periph_SPI2, RCC_APB1Periph_SPI3,
1208:lib/src/stm32f10x_rcc.c ****   *          RCC_APB1Periph_USART2, RCC_APB1Periph_USART3, RCC_APB1Periph_USART4, 
1209:lib/src/stm32f10x_rcc.c ****   *          RCC_APB1Periph_USART5, RCC_APB1Periph_I2C1, RCC_APB1Periph_I2C2,
1210:lib/src/stm32f10x_rcc.c ****   *          RCC_APB1Periph_USB, RCC_APB1Periph_CAN1, RCC_APB1Periph_BKP,
1211:lib/src/stm32f10x_rcc.c ****   *          RCC_APB1Periph_PWR, RCC_APB1Periph_DAC, RCC_APB1Periph_CEC,
1212:lib/src/stm32f10x_rcc.c ****   *          RCC_APB1Periph_TIM12, RCC_APB1Periph_TIM13, RCC_APB1Periph_TIM14  
1213:lib/src/stm32f10x_rcc.c ****   * @param  NewState: new state of the specified peripheral clock.
1214:lib/src/stm32f10x_rcc.c ****   *   This parameter can be: ENABLE or DISABLE.
1215:lib/src/stm32f10x_rcc.c ****   * @retval None
1216:lib/src/stm32f10x_rcc.c ****   */
1217:lib/src/stm32f10x_rcc.c **** void RCC_APB1PeriphResetCmd(uint32_t RCC_APB1Periph, FunctionalState NewState)
1218:lib/src/stm32f10x_rcc.c **** {
 976              		.loc 1 1218 0
 977              		.cfi_startproc
 978              		@ args = 0, pretend = 0, frame = 0
 979              		@ frame_needed = 0, uses_anonymous_args = 0
 980              		@ link register save eliminated.
 981              	.LVL94:
1219:lib/src/stm32f10x_rcc.c ****   /* Check the parameters */
1220:lib/src/stm32f10x_rcc.c ****   assert_param(IS_RCC_APB1_PERIPH(RCC_APB1Periph));
1221:lib/src/stm32f10x_rcc.c ****   assert_param(IS_FUNCTIONAL_STATE(NewState));
1222:lib/src/stm32f10x_rcc.c ****   if (NewState != DISABLE)
 982              		.loc 1 1222 0
 983 02c8 29B9     		cbnz	r1, .L105
1223:lib/src/stm32f10x_rcc.c ****   {
1224:lib/src/stm32f10x_rcc.c ****     RCC->APB1RSTR |= RCC_APB1Periph;
ARM GAS  /tmp/cc3TVymc.s 			page 40


1225:lib/src/stm32f10x_rcc.c ****   }
1226:lib/src/stm32f10x_rcc.c ****   else
1227:lib/src/stm32f10x_rcc.c ****   {
1228:lib/src/stm32f10x_rcc.c ****     RCC->APB1RSTR &= ~RCC_APB1Periph;
 984              		.loc 1 1228 0
 985 02ca 054A     		ldr	r2, .L106
 986 02cc 1369     		ldr	r3, [r2, #16]
 987 02ce 23EA0000 		bic	r0, r3, r0
 988              	.LVL95:
 989 02d2 1061     		str	r0, [r2, #16]
 990 02d4 7047     		bx	lr
 991              	.LVL96:
 992              	.L105:
1224:lib/src/stm32f10x_rcc.c ****   }
 993              		.loc 1 1224 0
 994 02d6 024A     		ldr	r2, .L106
 995 02d8 1369     		ldr	r3, [r2, #16]
 996 02da 1843     		orrs	r0, r0, r3
 997              	.LVL97:
 998 02dc 1061     		str	r0, [r2, #16]
 999 02de 7047     		bx	lr
 1000              	.L107:
 1001              		.align	2
 1002              	.L106:
 1003 02e0 00100240 		.word	1073876992
 1004              		.cfi_endproc
 1005              	.LFE88:
 1006              		.size	RCC_APB1PeriphResetCmd, .-RCC_APB1PeriphResetCmd
 1007              		.align	1
 1008              		.global	RCC_BackupResetCmd
 1009              		.syntax unified
 1010              		.thumb
 1011              		.thumb_func
 1012              		.fpu softvfp
 1013              		.type	RCC_BackupResetCmd, %function
 1014              	RCC_BackupResetCmd:
 1015              	.LFB89:
1229:lib/src/stm32f10x_rcc.c ****   }
1230:lib/src/stm32f10x_rcc.c **** }
1231:lib/src/stm32f10x_rcc.c **** 
1232:lib/src/stm32f10x_rcc.c **** /**
1233:lib/src/stm32f10x_rcc.c ****   * @brief  Forces or releases the Backup domain reset.
1234:lib/src/stm32f10x_rcc.c ****   * @param  NewState: new state of the Backup domain reset.
1235:lib/src/stm32f10x_rcc.c ****   *   This parameter can be: ENABLE or DISABLE.
1236:lib/src/stm32f10x_rcc.c ****   * @retval None
1237:lib/src/stm32f10x_rcc.c ****   */
1238:lib/src/stm32f10x_rcc.c **** void RCC_BackupResetCmd(FunctionalState NewState)
1239:lib/src/stm32f10x_rcc.c **** {
 1016              		.loc 1 1239 0
 1017              		.cfi_startproc
 1018              		@ args = 0, pretend = 0, frame = 0
 1019              		@ frame_needed = 0, uses_anonymous_args = 0
 1020              		@ link register save eliminated.
 1021              	.LVL98:
1240:lib/src/stm32f10x_rcc.c ****   /* Check the parameters */
1241:lib/src/stm32f10x_rcc.c ****   assert_param(IS_FUNCTIONAL_STATE(NewState));
1242:lib/src/stm32f10x_rcc.c ****   *(__IO uint32_t *) BDCR_BDRST_BB = (uint32_t)NewState;
ARM GAS  /tmp/cc3TVymc.s 			page 41


 1022              		.loc 1 1242 0
 1023 02e4 014B     		ldr	r3, .L109
 1024 02e6 1860     		str	r0, [r3]
 1025 02e8 7047     		bx	lr
 1026              	.L110:
 1027 02ea 00BF     		.align	2
 1028              	.L109:
 1029 02ec 40044242 		.word	1111622720
 1030              		.cfi_endproc
 1031              	.LFE89:
 1032              		.size	RCC_BackupResetCmd, .-RCC_BackupResetCmd
 1033              		.align	1
 1034              		.global	RCC_ClockSecuritySystemCmd
 1035              		.syntax unified
 1036              		.thumb
 1037              		.thumb_func
 1038              		.fpu softvfp
 1039              		.type	RCC_ClockSecuritySystemCmd, %function
 1040              	RCC_ClockSecuritySystemCmd:
 1041              	.LFB90:
1243:lib/src/stm32f10x_rcc.c **** }
1244:lib/src/stm32f10x_rcc.c **** 
1245:lib/src/stm32f10x_rcc.c **** /**
1246:lib/src/stm32f10x_rcc.c ****   * @brief  Enables or disables the Clock Security System.
1247:lib/src/stm32f10x_rcc.c ****   * @param  NewState: new state of the Clock Security System..
1248:lib/src/stm32f10x_rcc.c ****   *   This parameter can be: ENABLE or DISABLE.
1249:lib/src/stm32f10x_rcc.c ****   * @retval None
1250:lib/src/stm32f10x_rcc.c ****   */
1251:lib/src/stm32f10x_rcc.c **** void RCC_ClockSecuritySystemCmd(FunctionalState NewState)
1252:lib/src/stm32f10x_rcc.c **** {
 1042              		.loc 1 1252 0
 1043              		.cfi_startproc
 1044              		@ args = 0, pretend = 0, frame = 0
 1045              		@ frame_needed = 0, uses_anonymous_args = 0
 1046              		@ link register save eliminated.
 1047              	.LVL99:
1253:lib/src/stm32f10x_rcc.c ****   /* Check the parameters */
1254:lib/src/stm32f10x_rcc.c ****   assert_param(IS_FUNCTIONAL_STATE(NewState));
1255:lib/src/stm32f10x_rcc.c ****   *(__IO uint32_t *) CR_CSSON_BB = (uint32_t)NewState;
 1048              		.loc 1 1255 0
 1049 02f0 014B     		ldr	r3, .L112
 1050 02f2 1860     		str	r0, [r3]
 1051 02f4 7047     		bx	lr
 1052              	.L113:
 1053 02f6 00BF     		.align	2
 1054              	.L112:
 1055 02f8 4C004242 		.word	1111621708
 1056              		.cfi_endproc
 1057              	.LFE90:
 1058              		.size	RCC_ClockSecuritySystemCmd, .-RCC_ClockSecuritySystemCmd
 1059              		.align	1
 1060              		.global	RCC_MCOConfig
 1061              		.syntax unified
 1062              		.thumb
 1063              		.thumb_func
 1064              		.fpu softvfp
 1065              		.type	RCC_MCOConfig, %function
ARM GAS  /tmp/cc3TVymc.s 			page 42


 1066              	RCC_MCOConfig:
 1067              	.LFB91:
1256:lib/src/stm32f10x_rcc.c **** }
1257:lib/src/stm32f10x_rcc.c **** 
1258:lib/src/stm32f10x_rcc.c **** /**
1259:lib/src/stm32f10x_rcc.c ****   * @brief  Selects the clock source to output on MCO pin.
1260:lib/src/stm32f10x_rcc.c ****   * @param  RCC_MCO: specifies the clock source to output.
1261:lib/src/stm32f10x_rcc.c ****   *   
1262:lib/src/stm32f10x_rcc.c ****   *   For @b STM32_Connectivity_line_devices, this parameter can be one of the
1263:lib/src/stm32f10x_rcc.c ****   *   following values:       
1264:lib/src/stm32f10x_rcc.c ****   *     @arg RCC_MCO_NoClock: No clock selected
1265:lib/src/stm32f10x_rcc.c ****   *     @arg RCC_MCO_SYSCLK: System clock selected
1266:lib/src/stm32f10x_rcc.c ****   *     @arg RCC_MCO_HSI: HSI oscillator clock selected
1267:lib/src/stm32f10x_rcc.c ****   *     @arg RCC_MCO_HSE: HSE oscillator clock selected
1268:lib/src/stm32f10x_rcc.c ****   *     @arg RCC_MCO_PLLCLK_Div2: PLL clock divided by 2 selected
1269:lib/src/stm32f10x_rcc.c ****   *     @arg RCC_MCO_PLL2CLK: PLL2 clock selected                     
1270:lib/src/stm32f10x_rcc.c ****   *     @arg RCC_MCO_PLL3CLK_Div2: PLL3 clock divided by 2 selected   
1271:lib/src/stm32f10x_rcc.c ****   *     @arg RCC_MCO_XT1: External 3-25 MHz oscillator clock selected  
1272:lib/src/stm32f10x_rcc.c ****   *     @arg RCC_MCO_PLL3CLK: PLL3 clock selected 
1273:lib/src/stm32f10x_rcc.c ****   * 
1274:lib/src/stm32f10x_rcc.c ****   *   For  @b other_STM32_devices, this parameter can be one of the following values:        
1275:lib/src/stm32f10x_rcc.c ****   *     @arg RCC_MCO_NoClock: No clock selected
1276:lib/src/stm32f10x_rcc.c ****   *     @arg RCC_MCO_SYSCLK: System clock selected
1277:lib/src/stm32f10x_rcc.c ****   *     @arg RCC_MCO_HSI: HSI oscillator clock selected
1278:lib/src/stm32f10x_rcc.c ****   *     @arg RCC_MCO_HSE: HSE oscillator clock selected
1279:lib/src/stm32f10x_rcc.c ****   *     @arg RCC_MCO_PLLCLK_Div2: PLL clock divided by 2 selected
1280:lib/src/stm32f10x_rcc.c ****   *   
1281:lib/src/stm32f10x_rcc.c ****   * @retval None
1282:lib/src/stm32f10x_rcc.c ****   */
1283:lib/src/stm32f10x_rcc.c **** void RCC_MCOConfig(uint8_t RCC_MCO)
1284:lib/src/stm32f10x_rcc.c **** {
 1068              		.loc 1 1284 0
 1069              		.cfi_startproc
 1070              		@ args = 0, pretend = 0, frame = 0
 1071              		@ frame_needed = 0, uses_anonymous_args = 0
 1072              		@ link register save eliminated.
 1073              	.LVL100:
1285:lib/src/stm32f10x_rcc.c ****   /* Check the parameters */
1286:lib/src/stm32f10x_rcc.c ****   assert_param(IS_RCC_MCO(RCC_MCO));
1287:lib/src/stm32f10x_rcc.c **** 
1288:lib/src/stm32f10x_rcc.c ****   /* Perform Byte access to MCO bits to select the MCO source */
1289:lib/src/stm32f10x_rcc.c ****   *(__IO uint8_t *) CFGR_BYTE4_ADDRESS = RCC_MCO;
 1074              		.loc 1 1289 0
 1075 02fc 014B     		ldr	r3, .L115
 1076 02fe 1870     		strb	r0, [r3]
 1077 0300 7047     		bx	lr
 1078              	.L116:
 1079 0302 00BF     		.align	2
 1080              	.L115:
 1081 0304 07100240 		.word	1073876999
 1082              		.cfi_endproc
 1083              	.LFE91:
 1084              		.size	RCC_MCOConfig, .-RCC_MCOConfig
 1085              		.align	1
 1086              		.global	RCC_GetFlagStatus
 1087              		.syntax unified
 1088              		.thumb
ARM GAS  /tmp/cc3TVymc.s 			page 43


 1089              		.thumb_func
 1090              		.fpu softvfp
 1091              		.type	RCC_GetFlagStatus, %function
 1092              	RCC_GetFlagStatus:
 1093              	.LFB92:
1290:lib/src/stm32f10x_rcc.c **** }
1291:lib/src/stm32f10x_rcc.c **** 
1292:lib/src/stm32f10x_rcc.c **** /**
1293:lib/src/stm32f10x_rcc.c ****   * @brief  Checks whether the specified RCC flag is set or not.
1294:lib/src/stm32f10x_rcc.c ****   * @param  RCC_FLAG: specifies the flag to check.
1295:lib/src/stm32f10x_rcc.c ****   *   
1296:lib/src/stm32f10x_rcc.c ****   *   For @b STM32_Connectivity_line_devices, this parameter can be one of the
1297:lib/src/stm32f10x_rcc.c ****   *   following values:
1298:lib/src/stm32f10x_rcc.c ****   *     @arg RCC_FLAG_HSIRDY: HSI oscillator clock ready
1299:lib/src/stm32f10x_rcc.c ****   *     @arg RCC_FLAG_HSERDY: HSE oscillator clock ready
1300:lib/src/stm32f10x_rcc.c ****   *     @arg RCC_FLAG_PLLRDY: PLL clock ready
1301:lib/src/stm32f10x_rcc.c ****   *     @arg RCC_FLAG_PLL2RDY: PLL2 clock ready      
1302:lib/src/stm32f10x_rcc.c ****   *     @arg RCC_FLAG_PLL3RDY: PLL3 clock ready                           
1303:lib/src/stm32f10x_rcc.c ****   *     @arg RCC_FLAG_LSERDY: LSE oscillator clock ready
1304:lib/src/stm32f10x_rcc.c ****   *     @arg RCC_FLAG_LSIRDY: LSI oscillator clock ready
1305:lib/src/stm32f10x_rcc.c ****   *     @arg RCC_FLAG_PINRST: Pin reset
1306:lib/src/stm32f10x_rcc.c ****   *     @arg RCC_FLAG_PORRST: POR/PDR reset
1307:lib/src/stm32f10x_rcc.c ****   *     @arg RCC_FLAG_SFTRST: Software reset
1308:lib/src/stm32f10x_rcc.c ****   *     @arg RCC_FLAG_IWDGRST: Independent Watchdog reset
1309:lib/src/stm32f10x_rcc.c ****   *     @arg RCC_FLAG_WWDGRST: Window Watchdog reset
1310:lib/src/stm32f10x_rcc.c ****   *     @arg RCC_FLAG_LPWRRST: Low Power reset
1311:lib/src/stm32f10x_rcc.c ****   * 
1312:lib/src/stm32f10x_rcc.c ****   *   For @b other_STM32_devices, this parameter can be one of the following values:        
1313:lib/src/stm32f10x_rcc.c ****   *     @arg RCC_FLAG_HSIRDY: HSI oscillator clock ready
1314:lib/src/stm32f10x_rcc.c ****   *     @arg RCC_FLAG_HSERDY: HSE oscillator clock ready
1315:lib/src/stm32f10x_rcc.c ****   *     @arg RCC_FLAG_PLLRDY: PLL clock ready
1316:lib/src/stm32f10x_rcc.c ****   *     @arg RCC_FLAG_LSERDY: LSE oscillator clock ready
1317:lib/src/stm32f10x_rcc.c ****   *     @arg RCC_FLAG_LSIRDY: LSI oscillator clock ready
1318:lib/src/stm32f10x_rcc.c ****   *     @arg RCC_FLAG_PINRST: Pin reset
1319:lib/src/stm32f10x_rcc.c ****   *     @arg RCC_FLAG_PORRST: POR/PDR reset
1320:lib/src/stm32f10x_rcc.c ****   *     @arg RCC_FLAG_SFTRST: Software reset
1321:lib/src/stm32f10x_rcc.c ****   *     @arg RCC_FLAG_IWDGRST: Independent Watchdog reset
1322:lib/src/stm32f10x_rcc.c ****   *     @arg RCC_FLAG_WWDGRST: Window Watchdog reset
1323:lib/src/stm32f10x_rcc.c ****   *     @arg RCC_FLAG_LPWRRST: Low Power reset
1324:lib/src/stm32f10x_rcc.c ****   *   
1325:lib/src/stm32f10x_rcc.c ****   * @retval The new state of RCC_FLAG (SET or RESET).
1326:lib/src/stm32f10x_rcc.c ****   */
1327:lib/src/stm32f10x_rcc.c **** FlagStatus RCC_GetFlagStatus(uint8_t RCC_FLAG)
1328:lib/src/stm32f10x_rcc.c **** {
 1094              		.loc 1 1328 0
 1095              		.cfi_startproc
 1096              		@ args = 0, pretend = 0, frame = 0
 1097              		@ frame_needed = 0, uses_anonymous_args = 0
 1098              		@ link register save eliminated.
 1099              	.LVL101:
1329:lib/src/stm32f10x_rcc.c ****   uint32_t tmp = 0;
1330:lib/src/stm32f10x_rcc.c ****   uint32_t statusreg = 0;
1331:lib/src/stm32f10x_rcc.c ****   FlagStatus bitstatus = RESET;
1332:lib/src/stm32f10x_rcc.c ****   /* Check the parameters */
1333:lib/src/stm32f10x_rcc.c ****   assert_param(IS_RCC_FLAG(RCC_FLAG));
1334:lib/src/stm32f10x_rcc.c **** 
1335:lib/src/stm32f10x_rcc.c ****   /* Get the RCC register index */
ARM GAS  /tmp/cc3TVymc.s 			page 44


1336:lib/src/stm32f10x_rcc.c ****   tmp = RCC_FLAG >> 5;
 1100              		.loc 1 1336 0
 1101 0308 4309     		lsrs	r3, r0, #5
 1102              	.LVL102:
1337:lib/src/stm32f10x_rcc.c ****   if (tmp == 1)               /* The flag to check is in CR register */
 1103              		.loc 1 1337 0
 1104 030a 012B     		cmp	r3, #1
 1105 030c 0BD0     		beq	.L121
1338:lib/src/stm32f10x_rcc.c ****   {
1339:lib/src/stm32f10x_rcc.c ****     statusreg = RCC->CR;
1340:lib/src/stm32f10x_rcc.c ****   }
1341:lib/src/stm32f10x_rcc.c ****   else if (tmp == 2)          /* The flag to check is in BDCR register */
 1106              		.loc 1 1341 0
 1107 030e 022B     		cmp	r3, #2
1342:lib/src/stm32f10x_rcc.c ****   {
1343:lib/src/stm32f10x_rcc.c ****     statusreg = RCC->BDCR;
 1108              		.loc 1 1343 0
 1109 0310 064B     		ldr	r3, .L122
 1110              	.LVL103:
 1111 0312 0CBF     		ite	eq
 1112 0314 1B6A     		ldreq	r3, [r3, #32]
 1113              	.LVL104:
1344:lib/src/stm32f10x_rcc.c ****   }
1345:lib/src/stm32f10x_rcc.c ****   else                       /* The flag to check is in CSR register */
1346:lib/src/stm32f10x_rcc.c ****   {
1347:lib/src/stm32f10x_rcc.c ****     statusreg = RCC->CSR;
 1114              		.loc 1 1347 0
 1115 0316 5B6A     		ldrne	r3, [r3, #36]
 1116              	.LVL105:
 1117              	.L119:
1348:lib/src/stm32f10x_rcc.c ****   }
1349:lib/src/stm32f10x_rcc.c **** 
1350:lib/src/stm32f10x_rcc.c ****   /* Get the flag position */
1351:lib/src/stm32f10x_rcc.c ****   tmp = RCC_FLAG & FLAG_Mask;
 1118              		.loc 1 1351 0
 1119 0318 00F01F00 		and	r0, r0, #31
 1120              	.LVL106:
1352:lib/src/stm32f10x_rcc.c ****   if ((statusreg & ((uint32_t)1 << tmp)) != (uint32_t)RESET)
 1121              		.loc 1 1352 0
 1122 031c 23FA00F0 		lsr	r0, r3, r0
1353:lib/src/stm32f10x_rcc.c ****   {
1354:lib/src/stm32f10x_rcc.c ****     bitstatus = SET;
1355:lib/src/stm32f10x_rcc.c ****   }
1356:lib/src/stm32f10x_rcc.c ****   else
1357:lib/src/stm32f10x_rcc.c ****   {
1358:lib/src/stm32f10x_rcc.c ****     bitstatus = RESET;
1359:lib/src/stm32f10x_rcc.c ****   }
1360:lib/src/stm32f10x_rcc.c **** 
1361:lib/src/stm32f10x_rcc.c ****   /* Return the flag status */
1362:lib/src/stm32f10x_rcc.c ****   return bitstatus;
1363:lib/src/stm32f10x_rcc.c **** }
 1123              		.loc 1 1363 0
 1124 0320 00F00100 		and	r0, r0, #1
 1125 0324 7047     		bx	lr
 1126              	.LVL107:
 1127              	.L121:
1339:lib/src/stm32f10x_rcc.c ****   }
ARM GAS  /tmp/cc3TVymc.s 			page 45


 1128              		.loc 1 1339 0
 1129 0326 014B     		ldr	r3, .L122
 1130              	.LVL108:
 1131 0328 1B68     		ldr	r3, [r3]
 1132              	.LVL109:
 1133 032a F5E7     		b	.L119
 1134              	.L123:
 1135              		.align	2
 1136              	.L122:
 1137 032c 00100240 		.word	1073876992
 1138              		.cfi_endproc
 1139              	.LFE92:
 1140              		.size	RCC_GetFlagStatus, .-RCC_GetFlagStatus
 1141              		.align	1
 1142              		.global	RCC_WaitForHSEStartUp
 1143              		.syntax unified
 1144              		.thumb
 1145              		.thumb_func
 1146              		.fpu softvfp
 1147              		.type	RCC_WaitForHSEStartUp, %function
 1148              	RCC_WaitForHSEStartUp:
 1149              	.LFB66:
 306:lib/src/stm32f10x_rcc.c ****   __IO uint32_t StartUpCounter = 0;
 1150              		.loc 1 306 0
 1151              		.cfi_startproc
 1152              		@ args = 0, pretend = 0, frame = 8
 1153              		@ frame_needed = 0, uses_anonymous_args = 0
 1154 0330 10B5     		push	{r4, lr}
 1155              		.cfi_def_cfa_offset 8
 1156              		.cfi_offset 4, -8
 1157              		.cfi_offset 14, -4
 1158 0332 82B0     		sub	sp, sp, #8
 1159              		.cfi_def_cfa_offset 16
 307:lib/src/stm32f10x_rcc.c ****   ErrorStatus status = ERROR;
 1160              		.loc 1 307 0
 1161 0334 0023     		movs	r3, #0
 1162 0336 0193     		str	r3, [sp, #4]
 1163              	.LVL110:
 314:lib/src/stm32f10x_rcc.c ****     StartUpCounter++;  
 1164              		.loc 1 314 0
 1165 0338 3124     		movs	r4, #49
 1166              	.LVL111:
 1167              	.L126:
 314:lib/src/stm32f10x_rcc.c ****     StartUpCounter++;  
 1168              		.loc 1 314 0 is_stmt 0 discriminator 2
 1169 033a 2046     		mov	r0, r4
 1170 033c FFF7FEFF 		bl	RCC_GetFlagStatus
 1171              	.LVL112:
 315:lib/src/stm32f10x_rcc.c ****   } while((StartUpCounter != HSE_STARTUP_TIMEOUT) && (HSEStatus == RESET));
 1172              		.loc 1 315 0 is_stmt 1 discriminator 2
 1173 0340 019B     		ldr	r3, [sp, #4]
 1174 0342 0133     		adds	r3, r3, #1
 1175 0344 0193     		str	r3, [sp, #4]
 316:lib/src/stm32f10x_rcc.c ****   
 1176              		.loc 1 316 0 discriminator 2
 1177 0346 019B     		ldr	r3, [sp, #4]
 1178 0348 B3F5A06F 		cmp	r3, #1280
ARM GAS  /tmp/cc3TVymc.s 			page 46


 1179 034c 01D0     		beq	.L125
 316:lib/src/stm32f10x_rcc.c ****   
 1180              		.loc 1 316 0 is_stmt 0 discriminator 1
 1181 034e 0028     		cmp	r0, #0
 1182 0350 F3D0     		beq	.L126
 1183              	.L125:
 318:lib/src/stm32f10x_rcc.c ****   {
 1184              		.loc 1 318 0 is_stmt 1
 1185 0352 3120     		movs	r0, #49
 1186              	.LVL113:
 1187 0354 FFF7FEFF 		bl	RCC_GetFlagStatus
 1188              	.LVL114:
 327:lib/src/stm32f10x_rcc.c **** 
 1189              		.loc 1 327 0
 1190 0358 0030     		adds	r0, r0, #0
 1191              	.LVL115:
 1192 035a 18BF     		it	ne
 1193 035c 0120     		movne	r0, #1
 1194 035e 02B0     		add	sp, sp, #8
 1195              		.cfi_def_cfa_offset 8
 1196              		@ sp needed
 1197 0360 10BD     		pop	{r4, pc}
 1198              		.cfi_endproc
 1199              	.LFE66:
 1200              		.size	RCC_WaitForHSEStartUp, .-RCC_WaitForHSEStartUp
 1201              		.align	1
 1202              		.global	RCC_ClearFlag
 1203              		.syntax unified
 1204              		.thumb
 1205              		.thumb_func
 1206              		.fpu softvfp
 1207              		.type	RCC_ClearFlag, %function
 1208              	RCC_ClearFlag:
 1209              	.LFB93:
1364:lib/src/stm32f10x_rcc.c **** 
1365:lib/src/stm32f10x_rcc.c **** /**
1366:lib/src/stm32f10x_rcc.c ****   * @brief  Clears the RCC reset flags.
1367:lib/src/stm32f10x_rcc.c ****   * @note   The reset flags are: RCC_FLAG_PINRST, RCC_FLAG_PORRST, RCC_FLAG_SFTRST,
1368:lib/src/stm32f10x_rcc.c ****   *   RCC_FLAG_IWDGRST, RCC_FLAG_WWDGRST, RCC_FLAG_LPWRRST
1369:lib/src/stm32f10x_rcc.c ****   * @param  None
1370:lib/src/stm32f10x_rcc.c ****   * @retval None
1371:lib/src/stm32f10x_rcc.c ****   */
1372:lib/src/stm32f10x_rcc.c **** void RCC_ClearFlag(void)
1373:lib/src/stm32f10x_rcc.c **** {
 1210              		.loc 1 1373 0
 1211              		.cfi_startproc
 1212              		@ args = 0, pretend = 0, frame = 0
 1213              		@ frame_needed = 0, uses_anonymous_args = 0
 1214              		@ link register save eliminated.
1374:lib/src/stm32f10x_rcc.c ****   /* Set RMVF bit to clear the reset flags */
1375:lib/src/stm32f10x_rcc.c ****   RCC->CSR |= CSR_RMVF_Set;
 1215              		.loc 1 1375 0
 1216 0362 034A     		ldr	r2, .L130
 1217 0364 536A     		ldr	r3, [r2, #36]
 1218 0366 43F08073 		orr	r3, r3, #16777216
 1219 036a 5362     		str	r3, [r2, #36]
 1220 036c 7047     		bx	lr
ARM GAS  /tmp/cc3TVymc.s 			page 47


 1221              	.L131:
 1222 036e 00BF     		.align	2
 1223              	.L130:
 1224 0370 00100240 		.word	1073876992
 1225              		.cfi_endproc
 1226              	.LFE93:
 1227              		.size	RCC_ClearFlag, .-RCC_ClearFlag
 1228              		.align	1
 1229              		.global	RCC_GetITStatus
 1230              		.syntax unified
 1231              		.thumb
 1232              		.thumb_func
 1233              		.fpu softvfp
 1234              		.type	RCC_GetITStatus, %function
 1235              	RCC_GetITStatus:
 1236              	.LFB94:
1376:lib/src/stm32f10x_rcc.c **** }
1377:lib/src/stm32f10x_rcc.c **** 
1378:lib/src/stm32f10x_rcc.c **** /**
1379:lib/src/stm32f10x_rcc.c ****   * @brief  Checks whether the specified RCC interrupt has occurred or not.
1380:lib/src/stm32f10x_rcc.c ****   * @param  RCC_IT: specifies the RCC interrupt source to check.
1381:lib/src/stm32f10x_rcc.c ****   *   
1382:lib/src/stm32f10x_rcc.c ****   *   For @b STM32_Connectivity_line_devices, this parameter can be one of the
1383:lib/src/stm32f10x_rcc.c ****   *   following values:
1384:lib/src/stm32f10x_rcc.c ****   *     @arg RCC_IT_LSIRDY: LSI ready interrupt
1385:lib/src/stm32f10x_rcc.c ****   *     @arg RCC_IT_LSERDY: LSE ready interrupt
1386:lib/src/stm32f10x_rcc.c ****   *     @arg RCC_IT_HSIRDY: HSI ready interrupt
1387:lib/src/stm32f10x_rcc.c ****   *     @arg RCC_IT_HSERDY: HSE ready interrupt
1388:lib/src/stm32f10x_rcc.c ****   *     @arg RCC_IT_PLLRDY: PLL ready interrupt
1389:lib/src/stm32f10x_rcc.c ****   *     @arg RCC_IT_PLL2RDY: PLL2 ready interrupt 
1390:lib/src/stm32f10x_rcc.c ****   *     @arg RCC_IT_PLL3RDY: PLL3 ready interrupt                      
1391:lib/src/stm32f10x_rcc.c ****   *     @arg RCC_IT_CSS: Clock Security System interrupt
1392:lib/src/stm32f10x_rcc.c ****   * 
1393:lib/src/stm32f10x_rcc.c ****   *   For @b other_STM32_devices, this parameter can be one of the following values:        
1394:lib/src/stm32f10x_rcc.c ****   *     @arg RCC_IT_LSIRDY: LSI ready interrupt
1395:lib/src/stm32f10x_rcc.c ****   *     @arg RCC_IT_LSERDY: LSE ready interrupt
1396:lib/src/stm32f10x_rcc.c ****   *     @arg RCC_IT_HSIRDY: HSI ready interrupt
1397:lib/src/stm32f10x_rcc.c ****   *     @arg RCC_IT_HSERDY: HSE ready interrupt
1398:lib/src/stm32f10x_rcc.c ****   *     @arg RCC_IT_PLLRDY: PLL ready interrupt
1399:lib/src/stm32f10x_rcc.c ****   *     @arg RCC_IT_CSS: Clock Security System interrupt
1400:lib/src/stm32f10x_rcc.c ****   *   
1401:lib/src/stm32f10x_rcc.c ****   * @retval The new state of RCC_IT (SET or RESET).
1402:lib/src/stm32f10x_rcc.c ****   */
1403:lib/src/stm32f10x_rcc.c **** ITStatus RCC_GetITStatus(uint8_t RCC_IT)
1404:lib/src/stm32f10x_rcc.c **** {
 1237              		.loc 1 1404 0
 1238              		.cfi_startproc
 1239              		@ args = 0, pretend = 0, frame = 0
 1240              		@ frame_needed = 0, uses_anonymous_args = 0
 1241              		@ link register save eliminated.
 1242              	.LVL116:
1405:lib/src/stm32f10x_rcc.c ****   ITStatus bitstatus = RESET;
1406:lib/src/stm32f10x_rcc.c ****   /* Check the parameters */
1407:lib/src/stm32f10x_rcc.c ****   assert_param(IS_RCC_GET_IT(RCC_IT));
1408:lib/src/stm32f10x_rcc.c **** 
1409:lib/src/stm32f10x_rcc.c ****   /* Check the status of the specified RCC interrupt */
1410:lib/src/stm32f10x_rcc.c ****   if ((RCC->CIR & RCC_IT) != (uint32_t)RESET)
ARM GAS  /tmp/cc3TVymc.s 			page 48


 1243              		.loc 1 1410 0
 1244 0374 034B     		ldr	r3, .L133
 1245 0376 9B68     		ldr	r3, [r3, #8]
 1246              	.LVL117:
 1247 0378 1842     		tst	r0, r3
1411:lib/src/stm32f10x_rcc.c ****   {
1412:lib/src/stm32f10x_rcc.c ****     bitstatus = SET;
1413:lib/src/stm32f10x_rcc.c ****   }
1414:lib/src/stm32f10x_rcc.c ****   else
1415:lib/src/stm32f10x_rcc.c ****   {
1416:lib/src/stm32f10x_rcc.c ****     bitstatus = RESET;
1417:lib/src/stm32f10x_rcc.c ****   }
1418:lib/src/stm32f10x_rcc.c **** 
1419:lib/src/stm32f10x_rcc.c ****   /* Return the RCC_IT status */
1420:lib/src/stm32f10x_rcc.c ****   return  bitstatus;
1421:lib/src/stm32f10x_rcc.c **** }
 1248              		.loc 1 1421 0
 1249 037a 14BF     		ite	ne
 1250 037c 0120     		movne	r0, #1
 1251              	.LVL118:
 1252 037e 0020     		moveq	r0, #0
 1253 0380 7047     		bx	lr
 1254              	.L134:
 1255 0382 00BF     		.align	2
 1256              	.L133:
 1257 0384 00100240 		.word	1073876992
 1258              		.cfi_endproc
 1259              	.LFE94:
 1260              		.size	RCC_GetITStatus, .-RCC_GetITStatus
 1261              		.align	1
 1262              		.global	RCC_ClearITPendingBit
 1263              		.syntax unified
 1264              		.thumb
 1265              		.thumb_func
 1266              		.fpu softvfp
 1267              		.type	RCC_ClearITPendingBit, %function
 1268              	RCC_ClearITPendingBit:
 1269              	.LFB95:
1422:lib/src/stm32f10x_rcc.c **** 
1423:lib/src/stm32f10x_rcc.c **** /**
1424:lib/src/stm32f10x_rcc.c ****   * @brief  Clears the RCC's interrupt pending bits.
1425:lib/src/stm32f10x_rcc.c ****   * @param  RCC_IT: specifies the interrupt pending bit to clear.
1426:lib/src/stm32f10x_rcc.c ****   *   
1427:lib/src/stm32f10x_rcc.c ****   *   For @b STM32_Connectivity_line_devices, this parameter can be any combination
1428:lib/src/stm32f10x_rcc.c ****   *   of the following values:
1429:lib/src/stm32f10x_rcc.c ****   *     @arg RCC_IT_LSIRDY: LSI ready interrupt
1430:lib/src/stm32f10x_rcc.c ****   *     @arg RCC_IT_LSERDY: LSE ready interrupt
1431:lib/src/stm32f10x_rcc.c ****   *     @arg RCC_IT_HSIRDY: HSI ready interrupt
1432:lib/src/stm32f10x_rcc.c ****   *     @arg RCC_IT_HSERDY: HSE ready interrupt
1433:lib/src/stm32f10x_rcc.c ****   *     @arg RCC_IT_PLLRDY: PLL ready interrupt
1434:lib/src/stm32f10x_rcc.c ****   *     @arg RCC_IT_PLL2RDY: PLL2 ready interrupt 
1435:lib/src/stm32f10x_rcc.c ****   *     @arg RCC_IT_PLL3RDY: PLL3 ready interrupt                      
1436:lib/src/stm32f10x_rcc.c ****   *     @arg RCC_IT_CSS: Clock Security System interrupt
1437:lib/src/stm32f10x_rcc.c ****   * 
1438:lib/src/stm32f10x_rcc.c ****   *   For @b other_STM32_devices, this parameter can be any combination of the
1439:lib/src/stm32f10x_rcc.c ****   *   following values:        
1440:lib/src/stm32f10x_rcc.c ****   *     @arg RCC_IT_LSIRDY: LSI ready interrupt
ARM GAS  /tmp/cc3TVymc.s 			page 49


1441:lib/src/stm32f10x_rcc.c ****   *     @arg RCC_IT_LSERDY: LSE ready interrupt
1442:lib/src/stm32f10x_rcc.c ****   *     @arg RCC_IT_HSIRDY: HSI ready interrupt
1443:lib/src/stm32f10x_rcc.c ****   *     @arg RCC_IT_HSERDY: HSE ready interrupt
1444:lib/src/stm32f10x_rcc.c ****   *     @arg RCC_IT_PLLRDY: PLL ready interrupt
1445:lib/src/stm32f10x_rcc.c ****   *   
1446:lib/src/stm32f10x_rcc.c ****   *     @arg RCC_IT_CSS: Clock Security System interrupt
1447:lib/src/stm32f10x_rcc.c ****   * @retval None
1448:lib/src/stm32f10x_rcc.c ****   */
1449:lib/src/stm32f10x_rcc.c **** void RCC_ClearITPendingBit(uint8_t RCC_IT)
1450:lib/src/stm32f10x_rcc.c **** {
 1270              		.loc 1 1450 0
 1271              		.cfi_startproc
 1272              		@ args = 0, pretend = 0, frame = 0
 1273              		@ frame_needed = 0, uses_anonymous_args = 0
 1274              		@ link register save eliminated.
 1275              	.LVL119:
1451:lib/src/stm32f10x_rcc.c ****   /* Check the parameters */
1452:lib/src/stm32f10x_rcc.c ****   assert_param(IS_RCC_CLEAR_IT(RCC_IT));
1453:lib/src/stm32f10x_rcc.c **** 
1454:lib/src/stm32f10x_rcc.c ****   /* Perform Byte access to RCC_CIR[23:16] bits to clear the selected interrupt
1455:lib/src/stm32f10x_rcc.c ****      pending bits */
1456:lib/src/stm32f10x_rcc.c ****   *(__IO uint8_t *) CIR_BYTE3_ADDRESS = RCC_IT;
 1276              		.loc 1 1456 0
 1277 0388 014B     		ldr	r3, .L136
 1278 038a 1870     		strb	r0, [r3]
 1279 038c 7047     		bx	lr
 1280              	.L137:
 1281 038e 00BF     		.align	2
 1282              	.L136:
 1283 0390 0A100240 		.word	1073877002
 1284              		.cfi_endproc
 1285              	.LFE95:
 1286              		.size	RCC_ClearITPendingBit, .-RCC_ClearITPendingBit
 1287              		.data
 1288              		.align	2
 1289              		.set	.LANCHOR0,. + 0
 1290              		.type	APBAHBPrescTable, %object
 1291              		.size	APBAHBPrescTable, 16
 1292              	APBAHBPrescTable:
 1293 0000 00       		.byte	0
 1294 0001 00       		.byte	0
 1295 0002 00       		.byte	0
 1296 0003 00       		.byte	0
 1297 0004 01       		.byte	1
 1298 0005 02       		.byte	2
 1299 0006 03       		.byte	3
 1300 0007 04       		.byte	4
 1301 0008 01       		.byte	1
 1302 0009 02       		.byte	2
 1303 000a 03       		.byte	3
 1304 000b 04       		.byte	4
 1305 000c 06       		.byte	6
 1306 000d 07       		.byte	7
 1307 000e 08       		.byte	8
 1308 000f 09       		.byte	9
 1309              		.type	ADCPrescTable, %object
 1310              		.size	ADCPrescTable, 4
ARM GAS  /tmp/cc3TVymc.s 			page 50


 1311              	ADCPrescTable:
 1312 0010 02       		.byte	2
 1313 0011 04       		.byte	4
 1314 0012 06       		.byte	6
 1315 0013 08       		.byte	8
 1316              		.text
 1317              	.Letext0:
 1318              		.file 2 "/usr/arm-none-eabi/include/machine/_default_types.h"
 1319              		.file 3 "/usr/arm-none-eabi/include/sys/_stdint.h"
 1320              		.file 4 "/home/enbin/Documents/code/STM/stm32-quadrocopter/cmsis/core_cm3.h"
 1321              		.file 5 "/home/enbin/Documents/code/STM/stm32-quadrocopter/lib/inc/system_stm32f10x.h"
 1322              		.file 6 "/home/enbin/Documents/code/STM/stm32-quadrocopter/lib/inc/stm32f10x.h"
 1323              		.file 7 "/home/enbin/Documents/code/STM/stm32-quadrocopter/lib/inc/stm32f10x_rcc.h"
 1324              		.file 8 "/home/enbin/Documents/code/STM/stm32-quadrocopter/drivers/MPU6050.h"
 1325              		.file 9 "/usr/arm-none-eabi/include/sys/lock.h"
 1326              		.file 10 "/usr/arm-none-eabi/include/sys/_types.h"
 1327              		.file 11 "/usr/lib/gcc/arm-none-eabi/6.1.1/include/stddef.h"
 1328              		.file 12 "/usr/arm-none-eabi/include/sys/reent.h"
 1329              		.file 13 "/usr/arm-none-eabi/include/stdlib.h"
 1330              		.file 14 "/usr/arm-none-eabi/include/math.h"
 1331              		.file 15 "/usr/arm-none-eabi/include/sys/errno.h"