ARM GAS  /tmp/ccLnU1Hk.s 			page 1


   1              		.cpu cortex-m3
   2              		.eabi_attribute 20, 1
   3              		.eabi_attribute 21, 1
   4              		.eabi_attribute 23, 3
   5              		.eabi_attribute 24, 1
   6              		.eabi_attribute 25, 1
   7              		.eabi_attribute 26, 1
   8              		.eabi_attribute 30, 1
   9              		.eabi_attribute 34, 1
  10              		.eabi_attribute 18, 4
  11              		.file	"stm32f10x_flash.c"
  12              		.text
  13              	.Ltext0:
  14              		.cfi_sections	.debug_frame
  15              		.align	1
  16              		.global	FLASH_SetLatency
  17              		.syntax unified
  18              		.thumb
  19              		.thumb_func
  20              		.fpu softvfp
  21              		.type	FLASH_SetLatency, %function
  22              	FLASH_SetLatency:
  23              	.LFB63:
  24              		.file 1 "lib/src/stm32f10x_flash.c"
   1:lib/src/stm32f10x_flash.c **** /**
   2:lib/src/stm32f10x_flash.c ****   ******************************************************************************
   3:lib/src/stm32f10x_flash.c ****   * @file    stm32f10x_flash.c
   4:lib/src/stm32f10x_flash.c ****   * @author  MCD Application Team
   5:lib/src/stm32f10x_flash.c ****   * @version V3.5.0
   6:lib/src/stm32f10x_flash.c ****   * @date    11-March-2011
   7:lib/src/stm32f10x_flash.c ****   * @brief   This file provides all the FLASH firmware functions.
   8:lib/src/stm32f10x_flash.c ****   ******************************************************************************
   9:lib/src/stm32f10x_flash.c ****   * @attention
  10:lib/src/stm32f10x_flash.c ****   *
  11:lib/src/stm32f10x_flash.c ****   * THE PRESENT FIRMWARE WHICH IS FOR GUIDANCE ONLY AIMS AT PROVIDING CUSTOMERS
  12:lib/src/stm32f10x_flash.c ****   * WITH CODING INFORMATION REGARDING THEIR PRODUCTS IN ORDER FOR THEM TO SAVE
  13:lib/src/stm32f10x_flash.c ****   * TIME. AS A RESULT, STMICROELECTRONICS SHALL NOT BE HELD LIABLE FOR ANY
  14:lib/src/stm32f10x_flash.c ****   * DIRECT, INDIRECT OR CONSEQUENTIAL DAMAGES WITH RESPECT TO ANY CLAIMS ARISING
  15:lib/src/stm32f10x_flash.c ****   * FROM THE CONTENT OF SUCH FIRMWARE AND/OR THE USE MADE BY CUSTOMERS OF THE
  16:lib/src/stm32f10x_flash.c ****   * CODING INFORMATION CONTAINED HEREIN IN CONNECTION WITH THEIR PRODUCTS.
  17:lib/src/stm32f10x_flash.c ****   *
  18:lib/src/stm32f10x_flash.c ****   * <h2><center>&copy; COPYRIGHT 2011 STMicroelectronics</center></h2>
  19:lib/src/stm32f10x_flash.c ****   ******************************************************************************
  20:lib/src/stm32f10x_flash.c ****   */
  21:lib/src/stm32f10x_flash.c **** 
  22:lib/src/stm32f10x_flash.c **** /* Includes ------------------------------------------------------------------*/
  23:lib/src/stm32f10x_flash.c **** #include "stm32f10x_flash.h"
  24:lib/src/stm32f10x_flash.c **** #include "conf.h"
  25:lib/src/stm32f10x_flash.c **** 
  26:lib/src/stm32f10x_flash.c **** /** @addtogroup STM32F10x_StdPeriph_Driver
  27:lib/src/stm32f10x_flash.c ****   * @{
  28:lib/src/stm32f10x_flash.c ****   */
  29:lib/src/stm32f10x_flash.c **** 
  30:lib/src/stm32f10x_flash.c **** /** @defgroup FLASH 
  31:lib/src/stm32f10x_flash.c ****   * @brief FLASH driver modules
  32:lib/src/stm32f10x_flash.c ****   * @{
  33:lib/src/stm32f10x_flash.c ****   */ 
ARM GAS  /tmp/ccLnU1Hk.s 			page 2


  34:lib/src/stm32f10x_flash.c **** 
  35:lib/src/stm32f10x_flash.c **** /** @defgroup FLASH_Private_TypesDefinitions
  36:lib/src/stm32f10x_flash.c ****   * @{
  37:lib/src/stm32f10x_flash.c ****   */
  38:lib/src/stm32f10x_flash.c **** 
  39:lib/src/stm32f10x_flash.c **** /**
  40:lib/src/stm32f10x_flash.c ****   * @}
  41:lib/src/stm32f10x_flash.c ****   */ 
  42:lib/src/stm32f10x_flash.c **** 
  43:lib/src/stm32f10x_flash.c **** /** @defgroup FLASH_Private_Defines
  44:lib/src/stm32f10x_flash.c ****   * @{
  45:lib/src/stm32f10x_flash.c ****   */ 
  46:lib/src/stm32f10x_flash.c **** 
  47:lib/src/stm32f10x_flash.c **** /* Flash Access Control Register bits */
  48:lib/src/stm32f10x_flash.c **** #define ACR_LATENCY_Mask         ((uint32_t)0x00000038)
  49:lib/src/stm32f10x_flash.c **** #define ACR_HLFCYA_Mask          ((uint32_t)0xFFFFFFF7)
  50:lib/src/stm32f10x_flash.c **** #define ACR_PRFTBE_Mask          ((uint32_t)0xFFFFFFEF)
  51:lib/src/stm32f10x_flash.c **** 
  52:lib/src/stm32f10x_flash.c **** /* Flash Access Control Register bits */
  53:lib/src/stm32f10x_flash.c **** #define ACR_PRFTBS_Mask          ((uint32_t)0x00000020) 
  54:lib/src/stm32f10x_flash.c **** 
  55:lib/src/stm32f10x_flash.c **** /* Flash Control Register bits */
  56:lib/src/stm32f10x_flash.c **** #define CR_PG_Set                ((uint32_t)0x00000001)
  57:lib/src/stm32f10x_flash.c **** #define CR_PG_Reset              ((uint32_t)0x00001FFE) 
  58:lib/src/stm32f10x_flash.c **** #define CR_PER_Set               ((uint32_t)0x00000002)
  59:lib/src/stm32f10x_flash.c **** #define CR_PER_Reset             ((uint32_t)0x00001FFD)
  60:lib/src/stm32f10x_flash.c **** #define CR_MER_Set               ((uint32_t)0x00000004)
  61:lib/src/stm32f10x_flash.c **** #define CR_MER_Reset             ((uint32_t)0x00001FFB)
  62:lib/src/stm32f10x_flash.c **** #define CR_OPTPG_Set             ((uint32_t)0x00000010)
  63:lib/src/stm32f10x_flash.c **** #define CR_OPTPG_Reset           ((uint32_t)0x00001FEF)
  64:lib/src/stm32f10x_flash.c **** #define CR_OPTER_Set             ((uint32_t)0x00000020)
  65:lib/src/stm32f10x_flash.c **** #define CR_OPTER_Reset           ((uint32_t)0x00001FDF)
  66:lib/src/stm32f10x_flash.c **** #define CR_STRT_Set              ((uint32_t)0x00000040)
  67:lib/src/stm32f10x_flash.c **** #define CR_LOCK_Set              ((uint32_t)0x00000080)
  68:lib/src/stm32f10x_flash.c **** 
  69:lib/src/stm32f10x_flash.c **** /* FLASH Mask */
  70:lib/src/stm32f10x_flash.c **** #define RDPRT_Mask               ((uint32_t)0x00000002)
  71:lib/src/stm32f10x_flash.c **** #define WRP0_Mask                ((uint32_t)0x000000FF)
  72:lib/src/stm32f10x_flash.c **** #define WRP1_Mask                ((uint32_t)0x0000FF00)
  73:lib/src/stm32f10x_flash.c **** #define WRP2_Mask                ((uint32_t)0x00FF0000)
  74:lib/src/stm32f10x_flash.c **** #define WRP3_Mask                ((uint32_t)0xFF000000)
  75:lib/src/stm32f10x_flash.c **** #define OB_USER_BFB2             ((uint16_t)0x0008)
  76:lib/src/stm32f10x_flash.c **** 
  77:lib/src/stm32f10x_flash.c **** /* FLASH Keys */
  78:lib/src/stm32f10x_flash.c **** #define RDP_Key                  ((uint16_t)0x00A5)
  79:lib/src/stm32f10x_flash.c **** #define FLASH_KEY1               ((uint32_t)0x45670123)
  80:lib/src/stm32f10x_flash.c **** #define FLASH_KEY2               ((uint32_t)0xCDEF89AB)
  81:lib/src/stm32f10x_flash.c **** 
  82:lib/src/stm32f10x_flash.c **** /* FLASH BANK address */
  83:lib/src/stm32f10x_flash.c **** #define FLASH_BANK1_END_ADDRESS   ((uint32_t)0x807FFFF)
  84:lib/src/stm32f10x_flash.c **** 
  85:lib/src/stm32f10x_flash.c **** /* Delay definition */   
  86:lib/src/stm32f10x_flash.c **** #define EraseTimeout          ((uint32_t)0x000B0000)
  87:lib/src/stm32f10x_flash.c **** #define ProgramTimeout        ((uint32_t)0x00002000)
  88:lib/src/stm32f10x_flash.c **** /**
  89:lib/src/stm32f10x_flash.c ****   * @}
  90:lib/src/stm32f10x_flash.c ****   */ 
ARM GAS  /tmp/ccLnU1Hk.s 			page 3


  91:lib/src/stm32f10x_flash.c **** 
  92:lib/src/stm32f10x_flash.c **** /** @defgroup FLASH_Private_Macros
  93:lib/src/stm32f10x_flash.c ****   * @{
  94:lib/src/stm32f10x_flash.c ****   */
  95:lib/src/stm32f10x_flash.c **** 
  96:lib/src/stm32f10x_flash.c **** /**
  97:lib/src/stm32f10x_flash.c ****   * @}
  98:lib/src/stm32f10x_flash.c ****   */ 
  99:lib/src/stm32f10x_flash.c **** 
 100:lib/src/stm32f10x_flash.c **** /** @defgroup FLASH_Private_Variables
 101:lib/src/stm32f10x_flash.c ****   * @{
 102:lib/src/stm32f10x_flash.c ****   */
 103:lib/src/stm32f10x_flash.c **** 
 104:lib/src/stm32f10x_flash.c **** /**
 105:lib/src/stm32f10x_flash.c ****   * @}
 106:lib/src/stm32f10x_flash.c ****   */ 
 107:lib/src/stm32f10x_flash.c **** 
 108:lib/src/stm32f10x_flash.c **** /** @defgroup FLASH_Private_FunctionPrototypes
 109:lib/src/stm32f10x_flash.c ****   * @{
 110:lib/src/stm32f10x_flash.c ****   */
 111:lib/src/stm32f10x_flash.c ****   
 112:lib/src/stm32f10x_flash.c **** /**
 113:lib/src/stm32f10x_flash.c ****   * @}
 114:lib/src/stm32f10x_flash.c ****   */
 115:lib/src/stm32f10x_flash.c **** 
 116:lib/src/stm32f10x_flash.c **** /** @defgroup FLASH_Private_Functions
 117:lib/src/stm32f10x_flash.c ****   * @{
 118:lib/src/stm32f10x_flash.c ****   */
 119:lib/src/stm32f10x_flash.c **** 
 120:lib/src/stm32f10x_flash.c **** /**
 121:lib/src/stm32f10x_flash.c **** @code  
 122:lib/src/stm32f10x_flash.c ****  
 123:lib/src/stm32f10x_flash.c ****  This driver provides functions to configure and program the Flash memory of all STM32F10x devices,
 124:lib/src/stm32f10x_flash.c ****  including the latest STM32F10x_XL density devices. 
 125:lib/src/stm32f10x_flash.c **** 
 126:lib/src/stm32f10x_flash.c ****  STM32F10x_XL devices feature up to 1 Mbyte with dual bank architecture for read-while-write (RWW) 
 127:lib/src/stm32f10x_flash.c ****     - bank1: fixed size of 512 Kbytes (256 pages of 2Kbytes each)
 128:lib/src/stm32f10x_flash.c ****     - bank2: up to 512 Kbytes (up to 256 pages of 2Kbytes each)
 129:lib/src/stm32f10x_flash.c ****  While other STM32F10x devices features only one bank with memory up to 512 Kbytes.
 130:lib/src/stm32f10x_flash.c **** 
 131:lib/src/stm32f10x_flash.c ****  In version V3.3.0, some functions were updated and new ones were added to support
 132:lib/src/stm32f10x_flash.c ****  STM32F10x_XL devices. Thus some functions manages all devices, while other are 
 133:lib/src/stm32f10x_flash.c ****  dedicated for XL devices only.
 134:lib/src/stm32f10x_flash.c ****  
 135:lib/src/stm32f10x_flash.c ****  The table below presents the list of available functions depending on the used STM32F10x devices. 
 136:lib/src/stm32f10x_flash.c ****       
 137:lib/src/stm32f10x_flash.c ****    ***************************************************
 138:lib/src/stm32f10x_flash.c ****    * Legacy functions used for all STM32F10x devices *
 139:lib/src/stm32f10x_flash.c ****    ***************************************************
 140:lib/src/stm32f10x_flash.c ****    +-----------------------------------------------------------------------------------------------
 141:lib/src/stm32f10x_flash.c ****    |       Functions prototypes         |STM32F10x_XL|Other STM32F10x|    Comments                 
 142:lib/src/stm32f10x_flash.c ****    |                                    |   devices  |  devices      |                             
 143:lib/src/stm32f10x_flash.c ****    |-----------------------------------------------------------------------------------------------
 144:lib/src/stm32f10x_flash.c ****    |FLASH_SetLatency                    |    Yes     |      Yes      | No change                   
 145:lib/src/stm32f10x_flash.c ****    |-----------------------------------------------------------------------------------------------
 146:lib/src/stm32f10x_flash.c ****    |FLASH_HalfCycleAccessCmd            |    Yes     |      Yes      | No change                   
 147:lib/src/stm32f10x_flash.c ****    |-----------------------------------------------------------------------------------------------
ARM GAS  /tmp/ccLnU1Hk.s 			page 4


 148:lib/src/stm32f10x_flash.c ****    |FLASH_PrefetchBufferCmd             |    Yes     |      Yes      | No change                   
 149:lib/src/stm32f10x_flash.c ****    |-----------------------------------------------------------------------------------------------
 150:lib/src/stm32f10x_flash.c ****    |FLASH_Unlock                        |    Yes     |      Yes      | - For STM32F10X_XL devices: 
 151:lib/src/stm32f10x_flash.c ****    |                                    |            |               | - For other devices: unlock 
 152:lib/src/stm32f10x_flash.c ****    |                                    |            |               |   to FLASH_UnlockBank1 funct
 153:lib/src/stm32f10x_flash.c ****    |-----------------------------------------------------------------------------------------------
 154:lib/src/stm32f10x_flash.c ****    |FLASH_Lock                          |    Yes     |      Yes      | - For STM32F10X_XL devices: 
 155:lib/src/stm32f10x_flash.c ****    |                                    |            |               | - For other devices: lock Ba
 156:lib/src/stm32f10x_flash.c ****    |                                    |            |               |   to FLASH_LockBank1 functio
 157:lib/src/stm32f10x_flash.c ****    |-----------------------------------------------------------------------------------------------
 158:lib/src/stm32f10x_flash.c ****    |FLASH_ErasePage                     |    Yes     |      Yes      | - For STM32F10x_XL devices: 
 159:lib/src/stm32f10x_flash.c ****    |                                    |            |               | - For other devices: erase a
 160:lib/src/stm32f10x_flash.c ****    |-----------------------------------------------------------------------------------------------
 161:lib/src/stm32f10x_flash.c ****    |FLASH_EraseAllPages                 |    Yes     |      Yes      | - For STM32F10x_XL devices: 
 162:lib/src/stm32f10x_flash.c ****    |                                    |            |               | - For other devices: erase a
 163:lib/src/stm32f10x_flash.c ****    |-----------------------------------------------------------------------------------------------
 164:lib/src/stm32f10x_flash.c ****    |FLASH_EraseOptionBytes              |    Yes     |      Yes      | No change                   
 165:lib/src/stm32f10x_flash.c ****    |-----------------------------------------------------------------------------------------------
 166:lib/src/stm32f10x_flash.c ****    |FLASH_ProgramWord                   |    Yes     |      Yes      | Updated to program up to 1MB
 167:lib/src/stm32f10x_flash.c ****    |-----------------------------------------------------------------------------------------------
 168:lib/src/stm32f10x_flash.c ****    |FLASH_ProgramHalfWord               |    Yes     |      Yes      | Updated to program up to 1MB
 169:lib/src/stm32f10x_flash.c ****    |-----------------------------------------------------------------------------------------------
 170:lib/src/stm32f10x_flash.c ****    |FLASH_ProgramOptionByteData         |    Yes     |      Yes      | No change                   
 171:lib/src/stm32f10x_flash.c ****    |-----------------------------------------------------------------------------------------------
 172:lib/src/stm32f10x_flash.c ****    |FLASH_EnableWriteProtection         |    Yes     |      Yes      | No change                   
 173:lib/src/stm32f10x_flash.c ****    |-----------------------------------------------------------------------------------------------
 174:lib/src/stm32f10x_flash.c ****    |FLASH_ReadOutProtection             |    Yes     |      Yes      | No change                   
 175:lib/src/stm32f10x_flash.c ****    |-----------------------------------------------------------------------------------------------
 176:lib/src/stm32f10x_flash.c ****    |FLASH_UserOptionByteConfig          |    Yes     |      Yes      | No change                   
 177:lib/src/stm32f10x_flash.c ****    |-----------------------------------------------------------------------------------------------
 178:lib/src/stm32f10x_flash.c ****    |FLASH_GetUserOptionByte             |    Yes     |      Yes      | No change                   
 179:lib/src/stm32f10x_flash.c ****    |-----------------------------------------------------------------------------------------------
 180:lib/src/stm32f10x_flash.c ****    |FLASH_GetWriteProtectionOptionByte  |    Yes     |      Yes      | No change                   
 181:lib/src/stm32f10x_flash.c ****    |-----------------------------------------------------------------------------------------------
 182:lib/src/stm32f10x_flash.c ****    |FLASH_GetReadOutProtectionStatus    |    Yes     |      Yes      | No change                   
 183:lib/src/stm32f10x_flash.c ****    |-----------------------------------------------------------------------------------------------
 184:lib/src/stm32f10x_flash.c ****    |FLASH_GetPrefetchBufferStatus       |    Yes     |      Yes      | No change                   
 185:lib/src/stm32f10x_flash.c ****    |-----------------------------------------------------------------------------------------------
 186:lib/src/stm32f10x_flash.c ****    |FLASH_ITConfig                      |    Yes     |      Yes      | - For STM32F10x_XL devices: 
 187:lib/src/stm32f10x_flash.c ****    |                                    |            |               | - For other devices: enable 
 188:lib/src/stm32f10x_flash.c ****    |-----------------------------------------------------------------------------------------------
 189:lib/src/stm32f10x_flash.c ****    |FLASH_GetFlagStatus                 |    Yes     |      Yes      | - For STM32F10x_XL devices: 
 190:lib/src/stm32f10x_flash.c ****    |                                    |            |               | - For other devices: return 
 191:lib/src/stm32f10x_flash.c ****    |-----------------------------------------------------------------------------------------------
 192:lib/src/stm32f10x_flash.c ****    |FLASH_ClearFlag                     |    Yes     |      Yes      | - For STM32F10x_XL devices: 
 193:lib/src/stm32f10x_flash.c ****    |                                    |            |               | - For other devices: clear B
 194:lib/src/stm32f10x_flash.c ****    |-----------------------------------------------------------------------------------------------
 195:lib/src/stm32f10x_flash.c ****    |FLASH_GetStatus                     |    Yes     |      Yes      | - Return the status of Bank1
 196:lib/src/stm32f10x_flash.c ****    |                                    |            |               |   equivalent to FLASH_GetBan
 197:lib/src/stm32f10x_flash.c ****    |-----------------------------------------------------------------------------------------------
 198:lib/src/stm32f10x_flash.c ****    |FLASH_WaitForLastOperation          |    Yes     |      Yes      | - Wait for Bank1 last operat
 199:lib/src/stm32f10x_flash.c ****    |                                    |            |               |   equivalent to: FLASH_WaitF
 200:lib/src/stm32f10x_flash.c ****    +-----------------------------------------------------------------------------------------------
 201:lib/src/stm32f10x_flash.c **** 
 202:lib/src/stm32f10x_flash.c ****    ************************************************************************************************
 203:lib/src/stm32f10x_flash.c ****    * New functions used for all STM32F10x devices to manage Bank1:                                 
 204:lib/src/stm32f10x_flash.c ****    *   - These functions are mainly useful for STM32F10x_XL density devices, to have separate contr
ARM GAS  /tmp/ccLnU1Hk.s 			page 5


 205:lib/src/stm32f10x_flash.c ****    *   - For other devices, these functions are optional (covered by functions listed above)       
 206:lib/src/stm32f10x_flash.c ****    ************************************************************************************************
 207:lib/src/stm32f10x_flash.c ****    +-----------------------------------------------------------------------------------------------
 208:lib/src/stm32f10x_flash.c ****    |       Functions prototypes         |STM32F10x_XL|Other STM32F10x|    Comments                 
 209:lib/src/stm32f10x_flash.c ****    |                                    |   devices  |  devices      |                             
 210:lib/src/stm32f10x_flash.c ****    |-----------------------------------------------------------------------------------------------
 211:lib/src/stm32f10x_flash.c ****    | FLASH_UnlockBank1                  |    Yes     |      Yes      | - Unlock Bank1              
 212:lib/src/stm32f10x_flash.c ****    |-----------------------------------------------------------------------------------------------
 213:lib/src/stm32f10x_flash.c ****    |FLASH_LockBank1                     |    Yes     |      Yes      | - Lock Bank1                
 214:lib/src/stm32f10x_flash.c ****    |-----------------------------------------------------------------------------------------------
 215:lib/src/stm32f10x_flash.c ****    | FLASH_EraseAllBank1Pages           |    Yes     |      Yes      | - Erase all pages in Bank1  
 216:lib/src/stm32f10x_flash.c ****    |-----------------------------------------------------------------------------------------------
 217:lib/src/stm32f10x_flash.c ****    | FLASH_GetBank1Status               |    Yes     |      Yes      | - Return the status of Bank1
 218:lib/src/stm32f10x_flash.c ****    |-----------------------------------------------------------------------------------------------
 219:lib/src/stm32f10x_flash.c ****    | FLASH_WaitForLastBank1Operation    |    Yes     |      Yes      | - Wait for Bank1 last operat
 220:lib/src/stm32f10x_flash.c ****    +-----------------------------------------------------------------------------------------------
 221:lib/src/stm32f10x_flash.c **** 
 222:lib/src/stm32f10x_flash.c ****    *****************************************************************************
 223:lib/src/stm32f10x_flash.c ****    * New Functions used only with STM32F10x_XL density devices to manage Bank2 *
 224:lib/src/stm32f10x_flash.c ****    *****************************************************************************
 225:lib/src/stm32f10x_flash.c ****    +-----------------------------------------------------------------------------------------------
 226:lib/src/stm32f10x_flash.c ****    |       Functions prototypes         |STM32F10x_XL|Other STM32F10x|    Comments                 
 227:lib/src/stm32f10x_flash.c ****    |                                    |   devices  |  devices      |                             
 228:lib/src/stm32f10x_flash.c ****    |-----------------------------------------------------------------------------------------------
 229:lib/src/stm32f10x_flash.c ****    | FLASH_UnlockBank2                  |    Yes     |      No       | - Unlock Bank2              
 230:lib/src/stm32f10x_flash.c ****    |-----------------------------------------------------------------------------------------------
 231:lib/src/stm32f10x_flash.c ****    |FLASH_LockBank2                     |    Yes     |      No       | - Lock Bank2                
 232:lib/src/stm32f10x_flash.c ****    |-----------------------------------------------------------------------------------------------
 233:lib/src/stm32f10x_flash.c ****    | FLASH_EraseAllBank2Pages           |    Yes     |      No       | - Erase all pages in Bank2  
 234:lib/src/stm32f10x_flash.c ****    |-----------------------------------------------------------------------------------------------
 235:lib/src/stm32f10x_flash.c ****    | FLASH_GetBank2Status               |    Yes     |      No       | - Return the status of Bank2
 236:lib/src/stm32f10x_flash.c ****    |-----------------------------------------------------------------------------------------------
 237:lib/src/stm32f10x_flash.c ****    | FLASH_WaitForLastBank2Operation    |    Yes     |      No       | - Wait for Bank2 last operat
 238:lib/src/stm32f10x_flash.c ****    |-----------------------------------------------------------------------------------------------
 239:lib/src/stm32f10x_flash.c ****    | FLASH_BootConfig                   |    Yes     |      No       | - Configure to boot from Ban
 240:lib/src/stm32f10x_flash.c ****    +-----------------------------------------------------------------------------------------------
 241:lib/src/stm32f10x_flash.c **** @endcode
 242:lib/src/stm32f10x_flash.c **** */
 243:lib/src/stm32f10x_flash.c **** 
 244:lib/src/stm32f10x_flash.c **** 
 245:lib/src/stm32f10x_flash.c **** /**
 246:lib/src/stm32f10x_flash.c ****   * @brief  Sets the code latency value.
 247:lib/src/stm32f10x_flash.c ****   * @note   This function can be used for all STM32F10x devices.
 248:lib/src/stm32f10x_flash.c ****   * @param  FLASH_Latency: specifies the FLASH Latency value.
 249:lib/src/stm32f10x_flash.c ****   *   This parameter can be one of the following values:
 250:lib/src/stm32f10x_flash.c ****   *     @arg FLASH_Latency_0: FLASH Zero Latency cycle
 251:lib/src/stm32f10x_flash.c ****   *     @arg FLASH_Latency_1: FLASH One Latency cycle
 252:lib/src/stm32f10x_flash.c ****   *     @arg FLASH_Latency_2: FLASH Two Latency cycles
 253:lib/src/stm32f10x_flash.c ****   * @retval None
 254:lib/src/stm32f10x_flash.c ****   */
 255:lib/src/stm32f10x_flash.c **** void FLASH_SetLatency(uint32_t FLASH_Latency)
 256:lib/src/stm32f10x_flash.c **** {
  25              		.loc 1 256 0
  26              		.cfi_startproc
  27              		@ args = 0, pretend = 0, frame = 0
  28              		@ frame_needed = 0, uses_anonymous_args = 0
  29              		@ link register save eliminated.
ARM GAS  /tmp/ccLnU1Hk.s 			page 6


  30              	.LVL0:
 257:lib/src/stm32f10x_flash.c ****   uint32_t tmpreg = 0;
 258:lib/src/stm32f10x_flash.c ****   
 259:lib/src/stm32f10x_flash.c ****   /* Check the parameters */
 260:lib/src/stm32f10x_flash.c ****   assert_param(IS_FLASH_LATENCY(FLASH_Latency));
 261:lib/src/stm32f10x_flash.c ****   
 262:lib/src/stm32f10x_flash.c ****   /* Read the ACR register */
 263:lib/src/stm32f10x_flash.c ****   tmpreg = FLASH->ACR;  
  31              		.loc 1 263 0
  32 0000 034A     		ldr	r2, .L2
  33 0002 1368     		ldr	r3, [r2]
  34              	.LVL1:
 264:lib/src/stm32f10x_flash.c ****   
 265:lib/src/stm32f10x_flash.c ****   /* Sets the Latency value */
 266:lib/src/stm32f10x_flash.c ****   tmpreg &= ACR_LATENCY_Mask;
  35              		.loc 1 266 0
  36 0004 03F03803 		and	r3, r3, #56
  37              	.LVL2:
 267:lib/src/stm32f10x_flash.c ****   tmpreg |= FLASH_Latency;
  38              		.loc 1 267 0
  39 0008 1843     		orrs	r0, r0, r3
  40              	.LVL3:
 268:lib/src/stm32f10x_flash.c ****   
 269:lib/src/stm32f10x_flash.c ****   /* Write the ACR register */
 270:lib/src/stm32f10x_flash.c ****   FLASH->ACR = tmpreg;
  41              		.loc 1 270 0
  42 000a 1060     		str	r0, [r2]
  43 000c 7047     		bx	lr
  44              	.L3:
  45 000e 00BF     		.align	2
  46              	.L2:
  47 0010 00200240 		.word	1073881088
  48              		.cfi_endproc
  49              	.LFE63:
  50              		.size	FLASH_SetLatency, .-FLASH_SetLatency
  51              		.align	1
  52              		.global	FLASH_HalfCycleAccessCmd
  53              		.syntax unified
  54              		.thumb
  55              		.thumb_func
  56              		.fpu softvfp
  57              		.type	FLASH_HalfCycleAccessCmd, %function
  58              	FLASH_HalfCycleAccessCmd:
  59              	.LFB64:
 271:lib/src/stm32f10x_flash.c **** }
 272:lib/src/stm32f10x_flash.c **** 
 273:lib/src/stm32f10x_flash.c **** /**
 274:lib/src/stm32f10x_flash.c ****   * @brief  Enables or disables the Half cycle flash access.
 275:lib/src/stm32f10x_flash.c ****   * @note   This function can be used for all STM32F10x devices.
 276:lib/src/stm32f10x_flash.c ****   * @param  FLASH_HalfCycleAccess: specifies the FLASH Half cycle Access mode.
 277:lib/src/stm32f10x_flash.c ****   *   This parameter can be one of the following values:
 278:lib/src/stm32f10x_flash.c ****   *     @arg FLASH_HalfCycleAccess_Enable: FLASH Half Cycle Enable
 279:lib/src/stm32f10x_flash.c ****   *     @arg FLASH_HalfCycleAccess_Disable: FLASH Half Cycle Disable
 280:lib/src/stm32f10x_flash.c ****   * @retval None
 281:lib/src/stm32f10x_flash.c ****   */
 282:lib/src/stm32f10x_flash.c **** void FLASH_HalfCycleAccessCmd(uint32_t FLASH_HalfCycleAccess)
 283:lib/src/stm32f10x_flash.c **** {
ARM GAS  /tmp/ccLnU1Hk.s 			page 7


  60              		.loc 1 283 0
  61              		.cfi_startproc
  62              		@ args = 0, pretend = 0, frame = 0
  63              		@ frame_needed = 0, uses_anonymous_args = 0
  64              		@ link register save eliminated.
  65              	.LVL4:
 284:lib/src/stm32f10x_flash.c ****   /* Check the parameters */
 285:lib/src/stm32f10x_flash.c ****   assert_param(IS_FLASH_HALFCYCLEACCESS_STATE(FLASH_HalfCycleAccess));
 286:lib/src/stm32f10x_flash.c ****   
 287:lib/src/stm32f10x_flash.c ****   /* Enable or disable the Half cycle access */
 288:lib/src/stm32f10x_flash.c ****   FLASH->ACR &= ACR_HLFCYA_Mask;
  66              		.loc 1 288 0
  67 0014 044B     		ldr	r3, .L5
  68 0016 1A68     		ldr	r2, [r3]
  69 0018 22F00802 		bic	r2, r2, #8
  70 001c 1A60     		str	r2, [r3]
 289:lib/src/stm32f10x_flash.c ****   FLASH->ACR |= FLASH_HalfCycleAccess;
  71              		.loc 1 289 0
  72 001e 1A68     		ldr	r2, [r3]
  73 0020 1043     		orrs	r0, r0, r2
  74              	.LVL5:
  75 0022 1860     		str	r0, [r3]
  76 0024 7047     		bx	lr
  77              	.L6:
  78 0026 00BF     		.align	2
  79              	.L5:
  80 0028 00200240 		.word	1073881088
  81              		.cfi_endproc
  82              	.LFE64:
  83              		.size	FLASH_HalfCycleAccessCmd, .-FLASH_HalfCycleAccessCmd
  84              		.align	1
  85              		.global	FLASH_PrefetchBufferCmd
  86              		.syntax unified
  87              		.thumb
  88              		.thumb_func
  89              		.fpu softvfp
  90              		.type	FLASH_PrefetchBufferCmd, %function
  91              	FLASH_PrefetchBufferCmd:
  92              	.LFB65:
 290:lib/src/stm32f10x_flash.c **** }
 291:lib/src/stm32f10x_flash.c **** 
 292:lib/src/stm32f10x_flash.c **** /**
 293:lib/src/stm32f10x_flash.c ****   * @brief  Enables or disables the Prefetch Buffer.
 294:lib/src/stm32f10x_flash.c ****   * @note   This function can be used for all STM32F10x devices.
 295:lib/src/stm32f10x_flash.c ****   * @param  FLASH_PrefetchBuffer: specifies the Prefetch buffer status.
 296:lib/src/stm32f10x_flash.c ****   *   This parameter can be one of the following values:
 297:lib/src/stm32f10x_flash.c ****   *     @arg FLASH_PrefetchBuffer_Enable: FLASH Prefetch Buffer Enable
 298:lib/src/stm32f10x_flash.c ****   *     @arg FLASH_PrefetchBuffer_Disable: FLASH Prefetch Buffer Disable
 299:lib/src/stm32f10x_flash.c ****   * @retval None
 300:lib/src/stm32f10x_flash.c ****   */
 301:lib/src/stm32f10x_flash.c **** void FLASH_PrefetchBufferCmd(uint32_t FLASH_PrefetchBuffer)
 302:lib/src/stm32f10x_flash.c **** {
  93              		.loc 1 302 0
  94              		.cfi_startproc
  95              		@ args = 0, pretend = 0, frame = 0
  96              		@ frame_needed = 0, uses_anonymous_args = 0
  97              		@ link register save eliminated.
ARM GAS  /tmp/ccLnU1Hk.s 			page 8


  98              	.LVL6:
 303:lib/src/stm32f10x_flash.c ****   /* Check the parameters */
 304:lib/src/stm32f10x_flash.c ****   assert_param(IS_FLASH_PREFETCHBUFFER_STATE(FLASH_PrefetchBuffer));
 305:lib/src/stm32f10x_flash.c ****   
 306:lib/src/stm32f10x_flash.c ****   /* Enable or disable the Prefetch Buffer */
 307:lib/src/stm32f10x_flash.c ****   FLASH->ACR &= ACR_PRFTBE_Mask;
  99              		.loc 1 307 0
 100 002c 044B     		ldr	r3, .L8
 101 002e 1A68     		ldr	r2, [r3]
 102 0030 22F01002 		bic	r2, r2, #16
 103 0034 1A60     		str	r2, [r3]
 308:lib/src/stm32f10x_flash.c ****   FLASH->ACR |= FLASH_PrefetchBuffer;
 104              		.loc 1 308 0
 105 0036 1A68     		ldr	r2, [r3]
 106 0038 1043     		orrs	r0, r0, r2
 107              	.LVL7:
 108 003a 1860     		str	r0, [r3]
 109 003c 7047     		bx	lr
 110              	.L9:
 111 003e 00BF     		.align	2
 112              	.L8:
 113 0040 00200240 		.word	1073881088
 114              		.cfi_endproc
 115              	.LFE65:
 116              		.size	FLASH_PrefetchBufferCmd, .-FLASH_PrefetchBufferCmd
 117              		.align	1
 118              		.global	FLASH_Unlock
 119              		.syntax unified
 120              		.thumb
 121              		.thumb_func
 122              		.fpu softvfp
 123              		.type	FLASH_Unlock, %function
 124              	FLASH_Unlock:
 125              	.LFB66:
 309:lib/src/stm32f10x_flash.c **** }
 310:lib/src/stm32f10x_flash.c **** 
 311:lib/src/stm32f10x_flash.c **** /**
 312:lib/src/stm32f10x_flash.c ****   * @brief  Unlocks the FLASH Program Erase Controller.
 313:lib/src/stm32f10x_flash.c ****   * @note   This function can be used for all STM32F10x devices.
 314:lib/src/stm32f10x_flash.c ****   *         - For STM32F10X_XL devices this function unlocks Bank1 and Bank2.
 315:lib/src/stm32f10x_flash.c ****   *         - For all other devices it unlocks Bank1 and it is equivalent 
 316:lib/src/stm32f10x_flash.c ****   *           to FLASH_UnlockBank1 function.. 
 317:lib/src/stm32f10x_flash.c ****   * @param  None
 318:lib/src/stm32f10x_flash.c ****   * @retval None
 319:lib/src/stm32f10x_flash.c ****   */
 320:lib/src/stm32f10x_flash.c **** void FLASH_Unlock(void)
 321:lib/src/stm32f10x_flash.c **** {
 126              		.loc 1 321 0
 127              		.cfi_startproc
 128              		@ args = 0, pretend = 0, frame = 0
 129              		@ frame_needed = 0, uses_anonymous_args = 0
 130              		@ link register save eliminated.
 322:lib/src/stm32f10x_flash.c ****   /* Authorize the FPEC of Bank1 Access */
 323:lib/src/stm32f10x_flash.c ****   FLASH->KEYR = FLASH_KEY1;
 131              		.loc 1 323 0
 132 0044 034B     		ldr	r3, .L11
 133 0046 044A     		ldr	r2, .L11+4
ARM GAS  /tmp/ccLnU1Hk.s 			page 9


 134 0048 5A60     		str	r2, [r3, #4]
 324:lib/src/stm32f10x_flash.c ****   FLASH->KEYR = FLASH_KEY2;
 135              		.loc 1 324 0
 136 004a 02F18832 		add	r2, r2, #-2004318072
 137 004e 5A60     		str	r2, [r3, #4]
 138 0050 7047     		bx	lr
 139              	.L12:
 140 0052 00BF     		.align	2
 141              	.L11:
 142 0054 00200240 		.word	1073881088
 143 0058 23016745 		.word	1164378403
 144              		.cfi_endproc
 145              	.LFE66:
 146              		.size	FLASH_Unlock, .-FLASH_Unlock
 147              		.align	1
 148              		.global	FLASH_UnlockBank1
 149              		.syntax unified
 150              		.thumb
 151              		.thumb_func
 152              		.fpu softvfp
 153              		.type	FLASH_UnlockBank1, %function
 154              	FLASH_UnlockBank1:
 155              	.LFB67:
 325:lib/src/stm32f10x_flash.c **** 
 326:lib/src/stm32f10x_flash.c **** #ifdef STM32F10X_XL
 327:lib/src/stm32f10x_flash.c ****   /* Authorize the FPEC of Bank2 Access */
 328:lib/src/stm32f10x_flash.c ****   FLASH->KEYR2 = FLASH_KEY1;
 329:lib/src/stm32f10x_flash.c ****   FLASH->KEYR2 = FLASH_KEY2;
 330:lib/src/stm32f10x_flash.c **** #endif /* STM32F10X_XL */
 331:lib/src/stm32f10x_flash.c **** }
 332:lib/src/stm32f10x_flash.c **** /**
 333:lib/src/stm32f10x_flash.c ****   * @brief  Unlocks the FLASH Bank1 Program Erase Controller.
 334:lib/src/stm32f10x_flash.c ****   * @note   This function can be used for all STM32F10x devices.
 335:lib/src/stm32f10x_flash.c ****   *         - For STM32F10X_XL devices this function unlocks Bank1.
 336:lib/src/stm32f10x_flash.c ****   *         - For all other devices it unlocks Bank1 and it is 
 337:lib/src/stm32f10x_flash.c ****   *           equivalent to FLASH_Unlock function.
 338:lib/src/stm32f10x_flash.c ****   * @param  None
 339:lib/src/stm32f10x_flash.c ****   * @retval None
 340:lib/src/stm32f10x_flash.c ****   */
 341:lib/src/stm32f10x_flash.c **** void FLASH_UnlockBank1(void)
 342:lib/src/stm32f10x_flash.c **** {
 156              		.loc 1 342 0
 157              		.cfi_startproc
 158              		@ args = 0, pretend = 0, frame = 0
 159              		@ frame_needed = 0, uses_anonymous_args = 0
 160              		@ link register save eliminated.
 343:lib/src/stm32f10x_flash.c ****   /* Authorize the FPEC of Bank1 Access */
 344:lib/src/stm32f10x_flash.c ****   FLASH->KEYR = FLASH_KEY1;
 161              		.loc 1 344 0
 162 005c 034B     		ldr	r3, .L14
 163 005e 044A     		ldr	r2, .L14+4
 164 0060 5A60     		str	r2, [r3, #4]
 345:lib/src/stm32f10x_flash.c ****   FLASH->KEYR = FLASH_KEY2;
 165              		.loc 1 345 0
 166 0062 02F18832 		add	r2, r2, #-2004318072
 167 0066 5A60     		str	r2, [r3, #4]
 168 0068 7047     		bx	lr
ARM GAS  /tmp/ccLnU1Hk.s 			page 10


 169              	.L15:
 170 006a 00BF     		.align	2
 171              	.L14:
 172 006c 00200240 		.word	1073881088
 173 0070 23016745 		.word	1164378403
 174              		.cfi_endproc
 175              	.LFE67:
 176              		.size	FLASH_UnlockBank1, .-FLASH_UnlockBank1
 177              		.align	1
 178              		.global	FLASH_Lock
 179              		.syntax unified
 180              		.thumb
 181              		.thumb_func
 182              		.fpu softvfp
 183              		.type	FLASH_Lock, %function
 184              	FLASH_Lock:
 185              	.LFB68:
 346:lib/src/stm32f10x_flash.c **** }
 347:lib/src/stm32f10x_flash.c **** 
 348:lib/src/stm32f10x_flash.c **** #ifdef STM32F10X_XL
 349:lib/src/stm32f10x_flash.c **** /**
 350:lib/src/stm32f10x_flash.c ****   * @brief  Unlocks the FLASH Bank2 Program Erase Controller.
 351:lib/src/stm32f10x_flash.c ****   * @note   This function can be used only for STM32F10X_XL density devices.
 352:lib/src/stm32f10x_flash.c ****   * @param  None
 353:lib/src/stm32f10x_flash.c ****   * @retval None
 354:lib/src/stm32f10x_flash.c ****   */
 355:lib/src/stm32f10x_flash.c **** void FLASH_UnlockBank2(void)
 356:lib/src/stm32f10x_flash.c **** {
 357:lib/src/stm32f10x_flash.c ****   /* Authorize the FPEC of Bank2 Access */
 358:lib/src/stm32f10x_flash.c ****   FLASH->KEYR2 = FLASH_KEY1;
 359:lib/src/stm32f10x_flash.c ****   FLASH->KEYR2 = FLASH_KEY2;
 360:lib/src/stm32f10x_flash.c **** 
 361:lib/src/stm32f10x_flash.c **** }
 362:lib/src/stm32f10x_flash.c **** #endif /* STM32F10X_XL */
 363:lib/src/stm32f10x_flash.c **** 
 364:lib/src/stm32f10x_flash.c **** /**
 365:lib/src/stm32f10x_flash.c ****   * @brief  Locks the FLASH Program Erase Controller.
 366:lib/src/stm32f10x_flash.c ****   * @note   This function can be used for all STM32F10x devices.
 367:lib/src/stm32f10x_flash.c ****   *         - For STM32F10X_XL devices this function Locks Bank1 and Bank2.
 368:lib/src/stm32f10x_flash.c ****   *         - For all other devices it Locks Bank1 and it is equivalent 
 369:lib/src/stm32f10x_flash.c ****   *           to FLASH_LockBank1 function.
 370:lib/src/stm32f10x_flash.c ****   * @param  None
 371:lib/src/stm32f10x_flash.c ****   * @retval None
 372:lib/src/stm32f10x_flash.c ****   */
 373:lib/src/stm32f10x_flash.c **** void FLASH_Lock(void)
 374:lib/src/stm32f10x_flash.c **** {
 186              		.loc 1 374 0
 187              		.cfi_startproc
 188              		@ args = 0, pretend = 0, frame = 0
 189              		@ frame_needed = 0, uses_anonymous_args = 0
 190              		@ link register save eliminated.
 375:lib/src/stm32f10x_flash.c ****   /* Set the Lock Bit to lock the FPEC and the CR of  Bank1 */
 376:lib/src/stm32f10x_flash.c ****   FLASH->CR |= CR_LOCK_Set;
 191              		.loc 1 376 0
 192 0074 024A     		ldr	r2, .L17
 193 0076 1369     		ldr	r3, [r2, #16]
 194 0078 43F08003 		orr	r3, r3, #128
ARM GAS  /tmp/ccLnU1Hk.s 			page 11


 195 007c 1361     		str	r3, [r2, #16]
 196 007e 7047     		bx	lr
 197              	.L18:
 198              		.align	2
 199              	.L17:
 200 0080 00200240 		.word	1073881088
 201              		.cfi_endproc
 202              	.LFE68:
 203              		.size	FLASH_Lock, .-FLASH_Lock
 204              		.align	1
 205              		.global	FLASH_LockBank1
 206              		.syntax unified
 207              		.thumb
 208              		.thumb_func
 209              		.fpu softvfp
 210              		.type	FLASH_LockBank1, %function
 211              	FLASH_LockBank1:
 212              	.LFB69:
 377:lib/src/stm32f10x_flash.c **** 
 378:lib/src/stm32f10x_flash.c **** #ifdef STM32F10X_XL
 379:lib/src/stm32f10x_flash.c ****   /* Set the Lock Bit to lock the FPEC and the CR of  Bank2 */
 380:lib/src/stm32f10x_flash.c ****   FLASH->CR2 |= CR_LOCK_Set;
 381:lib/src/stm32f10x_flash.c **** #endif /* STM32F10X_XL */
 382:lib/src/stm32f10x_flash.c **** }
 383:lib/src/stm32f10x_flash.c **** 
 384:lib/src/stm32f10x_flash.c **** /**
 385:lib/src/stm32f10x_flash.c ****   * @brief  Locks the FLASH Bank1 Program Erase Controller.
 386:lib/src/stm32f10x_flash.c ****   * @note   this function can be used for all STM32F10x devices.
 387:lib/src/stm32f10x_flash.c ****   *         - For STM32F10X_XL devices this function Locks Bank1.
 388:lib/src/stm32f10x_flash.c ****   *         - For all other devices it Locks Bank1 and it is equivalent 
 389:lib/src/stm32f10x_flash.c ****   *           to FLASH_Lock function.
 390:lib/src/stm32f10x_flash.c ****   * @param  None
 391:lib/src/stm32f10x_flash.c ****   * @retval None
 392:lib/src/stm32f10x_flash.c ****   */
 393:lib/src/stm32f10x_flash.c **** void FLASH_LockBank1(void)
 394:lib/src/stm32f10x_flash.c **** {
 213              		.loc 1 394 0
 214              		.cfi_startproc
 215              		@ args = 0, pretend = 0, frame = 0
 216              		@ frame_needed = 0, uses_anonymous_args = 0
 217              		@ link register save eliminated.
 395:lib/src/stm32f10x_flash.c ****   /* Set the Lock Bit to lock the FPEC and the CR of  Bank1 */
 396:lib/src/stm32f10x_flash.c ****   FLASH->CR |= CR_LOCK_Set;
 218              		.loc 1 396 0
 219 0084 024A     		ldr	r2, .L20
 220 0086 1369     		ldr	r3, [r2, #16]
 221 0088 43F08003 		orr	r3, r3, #128
 222 008c 1361     		str	r3, [r2, #16]
 223 008e 7047     		bx	lr
 224              	.L21:
 225              		.align	2
 226              	.L20:
 227 0090 00200240 		.word	1073881088
 228              		.cfi_endproc
 229              	.LFE69:
 230              		.size	FLASH_LockBank1, .-FLASH_LockBank1
 231              		.align	1
ARM GAS  /tmp/ccLnU1Hk.s 			page 12


 232              		.global	FLASH_GetUserOptionByte
 233              		.syntax unified
 234              		.thumb
 235              		.thumb_func
 236              		.fpu softvfp
 237              		.type	FLASH_GetUserOptionByte, %function
 238              	FLASH_GetUserOptionByte:
 239              	.LFB80:
 397:lib/src/stm32f10x_flash.c **** }
 398:lib/src/stm32f10x_flash.c **** 
 399:lib/src/stm32f10x_flash.c **** #ifdef STM32F10X_XL
 400:lib/src/stm32f10x_flash.c **** /**
 401:lib/src/stm32f10x_flash.c ****   * @brief  Locks the FLASH Bank2 Program Erase Controller.
 402:lib/src/stm32f10x_flash.c ****   * @note   This function can be used only for STM32F10X_XL density devices.
 403:lib/src/stm32f10x_flash.c ****   * @param  None
 404:lib/src/stm32f10x_flash.c ****   * @retval None
 405:lib/src/stm32f10x_flash.c ****   */
 406:lib/src/stm32f10x_flash.c **** void FLASH_LockBank2(void)
 407:lib/src/stm32f10x_flash.c **** {
 408:lib/src/stm32f10x_flash.c ****   /* Set the Lock Bit to lock the FPEC and the CR of  Bank2 */
 409:lib/src/stm32f10x_flash.c ****   FLASH->CR2 |= CR_LOCK_Set;
 410:lib/src/stm32f10x_flash.c **** }
 411:lib/src/stm32f10x_flash.c **** #endif /* STM32F10X_XL */
 412:lib/src/stm32f10x_flash.c **** 
 413:lib/src/stm32f10x_flash.c **** /**
 414:lib/src/stm32f10x_flash.c ****   * @brief  Erases a specified FLASH page.
 415:lib/src/stm32f10x_flash.c ****   * @note   This function can be used for all STM32F10x devices.
 416:lib/src/stm32f10x_flash.c ****   * @param  Page_Address: The page address to be erased.
 417:lib/src/stm32f10x_flash.c ****   * @retval FLASH Status: The returned value can be: FLASH_BUSY, FLASH_ERROR_PG,
 418:lib/src/stm32f10x_flash.c ****   *         FLASH_ERROR_WRP, FLASH_COMPLETE or FLASH_TIMEOUT.
 419:lib/src/stm32f10x_flash.c ****   */
 420:lib/src/stm32f10x_flash.c **** FLASH_Status FLASH_ErasePage(uint32_t Page_Address)
 421:lib/src/stm32f10x_flash.c **** {
 422:lib/src/stm32f10x_flash.c ****   FLASH_Status status = FLASH_COMPLETE;
 423:lib/src/stm32f10x_flash.c ****   /* Check the parameters */
 424:lib/src/stm32f10x_flash.c ****   assert_param(IS_FLASH_ADDRESS(Page_Address));
 425:lib/src/stm32f10x_flash.c **** 
 426:lib/src/stm32f10x_flash.c **** #ifdef STM32F10X_XL
 427:lib/src/stm32f10x_flash.c ****   if(Page_Address < FLASH_BANK1_END_ADDRESS)  
 428:lib/src/stm32f10x_flash.c ****   {
 429:lib/src/stm32f10x_flash.c ****     /* Wait for last operation to be completed */
 430:lib/src/stm32f10x_flash.c ****     status = FLASH_WaitForLastBank1Operation(EraseTimeout);
 431:lib/src/stm32f10x_flash.c ****     if(status == FLASH_COMPLETE)
 432:lib/src/stm32f10x_flash.c ****     { 
 433:lib/src/stm32f10x_flash.c ****       /* if the previous operation is completed, proceed to erase the page */
 434:lib/src/stm32f10x_flash.c ****       FLASH->CR|= CR_PER_Set;
 435:lib/src/stm32f10x_flash.c ****       FLASH->AR = Page_Address; 
 436:lib/src/stm32f10x_flash.c ****       FLASH->CR|= CR_STRT_Set;
 437:lib/src/stm32f10x_flash.c ****     
 438:lib/src/stm32f10x_flash.c ****       /* Wait for last operation to be completed */
 439:lib/src/stm32f10x_flash.c ****       status = FLASH_WaitForLastBank1Operation(EraseTimeout);
 440:lib/src/stm32f10x_flash.c **** 
 441:lib/src/stm32f10x_flash.c ****       /* Disable the PER Bit */
 442:lib/src/stm32f10x_flash.c ****       FLASH->CR &= CR_PER_Reset;
 443:lib/src/stm32f10x_flash.c ****     }
 444:lib/src/stm32f10x_flash.c ****   }
 445:lib/src/stm32f10x_flash.c ****   else
ARM GAS  /tmp/ccLnU1Hk.s 			page 13


 446:lib/src/stm32f10x_flash.c ****   {
 447:lib/src/stm32f10x_flash.c ****     /* Wait for last operation to be completed */
 448:lib/src/stm32f10x_flash.c ****     status = FLASH_WaitForLastBank2Operation(EraseTimeout);
 449:lib/src/stm32f10x_flash.c ****     if(status == FLASH_COMPLETE)
 450:lib/src/stm32f10x_flash.c ****     { 
 451:lib/src/stm32f10x_flash.c ****       /* if the previous operation is completed, proceed to erase the page */
 452:lib/src/stm32f10x_flash.c ****       FLASH->CR2|= CR_PER_Set;
 453:lib/src/stm32f10x_flash.c ****       FLASH->AR2 = Page_Address; 
 454:lib/src/stm32f10x_flash.c ****       FLASH->CR2|= CR_STRT_Set;
 455:lib/src/stm32f10x_flash.c ****     
 456:lib/src/stm32f10x_flash.c ****       /* Wait for last operation to be completed */
 457:lib/src/stm32f10x_flash.c ****       status = FLASH_WaitForLastBank2Operation(EraseTimeout);
 458:lib/src/stm32f10x_flash.c ****       
 459:lib/src/stm32f10x_flash.c ****       /* Disable the PER Bit */
 460:lib/src/stm32f10x_flash.c ****       FLASH->CR2 &= CR_PER_Reset;
 461:lib/src/stm32f10x_flash.c ****     }
 462:lib/src/stm32f10x_flash.c ****   }
 463:lib/src/stm32f10x_flash.c **** #else
 464:lib/src/stm32f10x_flash.c ****   /* Wait for last operation to be completed */
 465:lib/src/stm32f10x_flash.c ****   status = FLASH_WaitForLastOperation(EraseTimeout);
 466:lib/src/stm32f10x_flash.c ****   
 467:lib/src/stm32f10x_flash.c ****   if(status == FLASH_COMPLETE)
 468:lib/src/stm32f10x_flash.c ****   { 
 469:lib/src/stm32f10x_flash.c ****     /* if the previous operation is completed, proceed to erase the page */
 470:lib/src/stm32f10x_flash.c ****     FLASH->CR|= CR_PER_Set;
 471:lib/src/stm32f10x_flash.c ****     FLASH->AR = Page_Address; 
 472:lib/src/stm32f10x_flash.c ****     FLASH->CR|= CR_STRT_Set;
 473:lib/src/stm32f10x_flash.c ****     
 474:lib/src/stm32f10x_flash.c ****     /* Wait for last operation to be completed */
 475:lib/src/stm32f10x_flash.c ****     status = FLASH_WaitForLastOperation(EraseTimeout);
 476:lib/src/stm32f10x_flash.c ****     
 477:lib/src/stm32f10x_flash.c ****     /* Disable the PER Bit */
 478:lib/src/stm32f10x_flash.c ****     FLASH->CR &= CR_PER_Reset;
 479:lib/src/stm32f10x_flash.c ****   }
 480:lib/src/stm32f10x_flash.c **** #endif /* STM32F10X_XL */
 481:lib/src/stm32f10x_flash.c **** 
 482:lib/src/stm32f10x_flash.c ****   /* Return the Erase Status */
 483:lib/src/stm32f10x_flash.c ****   return status;
 484:lib/src/stm32f10x_flash.c **** }
 485:lib/src/stm32f10x_flash.c **** 
 486:lib/src/stm32f10x_flash.c **** /**
 487:lib/src/stm32f10x_flash.c ****   * @brief  Erases all FLASH pages.
 488:lib/src/stm32f10x_flash.c ****   * @note   This function can be used for all STM32F10x devices.
 489:lib/src/stm32f10x_flash.c ****   * @param  None
 490:lib/src/stm32f10x_flash.c ****   * @retval FLASH Status: The returned value can be: FLASH_ERROR_PG,
 491:lib/src/stm32f10x_flash.c ****   *         FLASH_ERROR_WRP, FLASH_COMPLETE or FLASH_TIMEOUT.
 492:lib/src/stm32f10x_flash.c ****   */
 493:lib/src/stm32f10x_flash.c **** FLASH_Status FLASH_EraseAllPages(void)
 494:lib/src/stm32f10x_flash.c **** {
 495:lib/src/stm32f10x_flash.c ****   FLASH_Status status = FLASH_COMPLETE;
 496:lib/src/stm32f10x_flash.c **** 
 497:lib/src/stm32f10x_flash.c **** #ifdef STM32F10X_XL
 498:lib/src/stm32f10x_flash.c ****   /* Wait for last operation to be completed */
 499:lib/src/stm32f10x_flash.c ****   status = FLASH_WaitForLastBank1Operation(EraseTimeout);
 500:lib/src/stm32f10x_flash.c ****   
 501:lib/src/stm32f10x_flash.c ****   if(status == FLASH_COMPLETE)
 502:lib/src/stm32f10x_flash.c ****   {
ARM GAS  /tmp/ccLnU1Hk.s 			page 14


 503:lib/src/stm32f10x_flash.c ****     /* if the previous operation is completed, proceed to erase all pages */
 504:lib/src/stm32f10x_flash.c ****      FLASH->CR |= CR_MER_Set;
 505:lib/src/stm32f10x_flash.c ****      FLASH->CR |= CR_STRT_Set;
 506:lib/src/stm32f10x_flash.c ****     
 507:lib/src/stm32f10x_flash.c ****     /* Wait for last operation to be completed */
 508:lib/src/stm32f10x_flash.c ****     status = FLASH_WaitForLastBank1Operation(EraseTimeout);
 509:lib/src/stm32f10x_flash.c ****     
 510:lib/src/stm32f10x_flash.c ****     /* Disable the MER Bit */
 511:lib/src/stm32f10x_flash.c ****     FLASH->CR &= CR_MER_Reset;
 512:lib/src/stm32f10x_flash.c ****   }    
 513:lib/src/stm32f10x_flash.c ****   if(status == FLASH_COMPLETE)
 514:lib/src/stm32f10x_flash.c ****   {
 515:lib/src/stm32f10x_flash.c ****     /* if the previous operation is completed, proceed to erase all pages */
 516:lib/src/stm32f10x_flash.c ****      FLASH->CR2 |= CR_MER_Set;
 517:lib/src/stm32f10x_flash.c ****      FLASH->CR2 |= CR_STRT_Set;
 518:lib/src/stm32f10x_flash.c ****     
 519:lib/src/stm32f10x_flash.c ****     /* Wait for last operation to be completed */
 520:lib/src/stm32f10x_flash.c ****     status = FLASH_WaitForLastBank2Operation(EraseTimeout);
 521:lib/src/stm32f10x_flash.c ****     
 522:lib/src/stm32f10x_flash.c ****     /* Disable the MER Bit */
 523:lib/src/stm32f10x_flash.c ****     FLASH->CR2 &= CR_MER_Reset;
 524:lib/src/stm32f10x_flash.c ****   }
 525:lib/src/stm32f10x_flash.c **** #else
 526:lib/src/stm32f10x_flash.c ****   /* Wait for last operation to be completed */
 527:lib/src/stm32f10x_flash.c ****   status = FLASH_WaitForLastOperation(EraseTimeout);
 528:lib/src/stm32f10x_flash.c ****   if(status == FLASH_COMPLETE)
 529:lib/src/stm32f10x_flash.c ****   {
 530:lib/src/stm32f10x_flash.c ****     /* if the previous operation is completed, proceed to erase all pages */
 531:lib/src/stm32f10x_flash.c ****      FLASH->CR |= CR_MER_Set;
 532:lib/src/stm32f10x_flash.c ****      FLASH->CR |= CR_STRT_Set;
 533:lib/src/stm32f10x_flash.c ****     
 534:lib/src/stm32f10x_flash.c ****     /* Wait for last operation to be completed */
 535:lib/src/stm32f10x_flash.c ****     status = FLASH_WaitForLastOperation(EraseTimeout);
 536:lib/src/stm32f10x_flash.c **** 
 537:lib/src/stm32f10x_flash.c ****     /* Disable the MER Bit */
 538:lib/src/stm32f10x_flash.c ****     FLASH->CR &= CR_MER_Reset;
 539:lib/src/stm32f10x_flash.c ****   }
 540:lib/src/stm32f10x_flash.c **** #endif /* STM32F10X_XL */
 541:lib/src/stm32f10x_flash.c **** 
 542:lib/src/stm32f10x_flash.c ****   /* Return the Erase Status */
 543:lib/src/stm32f10x_flash.c ****   return status;
 544:lib/src/stm32f10x_flash.c **** }
 545:lib/src/stm32f10x_flash.c **** 
 546:lib/src/stm32f10x_flash.c **** /**
 547:lib/src/stm32f10x_flash.c ****   * @brief  Erases all Bank1 FLASH pages.
 548:lib/src/stm32f10x_flash.c ****   * @note   This function can be used for all STM32F10x devices.
 549:lib/src/stm32f10x_flash.c ****   *         - For STM32F10X_XL devices this function erases all Bank1 pages.
 550:lib/src/stm32f10x_flash.c ****   *         - For all other devices it erases all Bank1 pages and it is equivalent 
 551:lib/src/stm32f10x_flash.c ****   *           to FLASH_EraseAllPages function.
 552:lib/src/stm32f10x_flash.c ****   * @param  None
 553:lib/src/stm32f10x_flash.c ****   * @retval FLASH Status: The returned value can be: FLASH_ERROR_PG,
 554:lib/src/stm32f10x_flash.c ****   *         FLASH_ERROR_WRP, FLASH_COMPLETE or FLASH_TIMEOUT.
 555:lib/src/stm32f10x_flash.c ****   */
 556:lib/src/stm32f10x_flash.c **** FLASH_Status FLASH_EraseAllBank1Pages(void)
 557:lib/src/stm32f10x_flash.c **** {
 558:lib/src/stm32f10x_flash.c ****   FLASH_Status status = FLASH_COMPLETE;
 559:lib/src/stm32f10x_flash.c ****   /* Wait for last operation to be completed */
ARM GAS  /tmp/ccLnU1Hk.s 			page 15


 560:lib/src/stm32f10x_flash.c ****   status = FLASH_WaitForLastBank1Operation(EraseTimeout);
 561:lib/src/stm32f10x_flash.c ****   
 562:lib/src/stm32f10x_flash.c ****   if(status == FLASH_COMPLETE)
 563:lib/src/stm32f10x_flash.c ****   {
 564:lib/src/stm32f10x_flash.c ****     /* if the previous operation is completed, proceed to erase all pages */
 565:lib/src/stm32f10x_flash.c ****      FLASH->CR |= CR_MER_Set;
 566:lib/src/stm32f10x_flash.c ****      FLASH->CR |= CR_STRT_Set;
 567:lib/src/stm32f10x_flash.c ****     
 568:lib/src/stm32f10x_flash.c ****     /* Wait for last operation to be completed */
 569:lib/src/stm32f10x_flash.c ****     status = FLASH_WaitForLastBank1Operation(EraseTimeout);
 570:lib/src/stm32f10x_flash.c ****     
 571:lib/src/stm32f10x_flash.c ****     /* Disable the MER Bit */
 572:lib/src/stm32f10x_flash.c ****     FLASH->CR &= CR_MER_Reset;
 573:lib/src/stm32f10x_flash.c ****   }    
 574:lib/src/stm32f10x_flash.c ****   /* Return the Erase Status */
 575:lib/src/stm32f10x_flash.c ****   return status;
 576:lib/src/stm32f10x_flash.c **** }
 577:lib/src/stm32f10x_flash.c **** 
 578:lib/src/stm32f10x_flash.c **** #ifdef STM32F10X_XL
 579:lib/src/stm32f10x_flash.c **** /**
 580:lib/src/stm32f10x_flash.c ****   * @brief  Erases all Bank2 FLASH pages.
 581:lib/src/stm32f10x_flash.c ****   * @note   This function can be used only for STM32F10x_XL density devices.
 582:lib/src/stm32f10x_flash.c ****   * @param  None
 583:lib/src/stm32f10x_flash.c ****   * @retval FLASH Status: The returned value can be: FLASH_ERROR_PG,
 584:lib/src/stm32f10x_flash.c ****   *         FLASH_ERROR_WRP, FLASH_COMPLETE or FLASH_TIMEOUT.
 585:lib/src/stm32f10x_flash.c ****   */
 586:lib/src/stm32f10x_flash.c **** FLASH_Status FLASH_EraseAllBank2Pages(void)
 587:lib/src/stm32f10x_flash.c **** {
 588:lib/src/stm32f10x_flash.c ****   FLASH_Status status = FLASH_COMPLETE;
 589:lib/src/stm32f10x_flash.c ****   /* Wait for last operation to be completed */
 590:lib/src/stm32f10x_flash.c ****   status = FLASH_WaitForLastBank2Operation(EraseTimeout);
 591:lib/src/stm32f10x_flash.c ****   
 592:lib/src/stm32f10x_flash.c ****   if(status == FLASH_COMPLETE)
 593:lib/src/stm32f10x_flash.c ****   {
 594:lib/src/stm32f10x_flash.c ****     /* if the previous operation is completed, proceed to erase all pages */
 595:lib/src/stm32f10x_flash.c ****      FLASH->CR2 |= CR_MER_Set;
 596:lib/src/stm32f10x_flash.c ****      FLASH->CR2 |= CR_STRT_Set;
 597:lib/src/stm32f10x_flash.c ****     
 598:lib/src/stm32f10x_flash.c ****     /* Wait for last operation to be completed */
 599:lib/src/stm32f10x_flash.c ****     status = FLASH_WaitForLastBank2Operation(EraseTimeout);
 600:lib/src/stm32f10x_flash.c **** 
 601:lib/src/stm32f10x_flash.c ****     /* Disable the MER Bit */
 602:lib/src/stm32f10x_flash.c ****     FLASH->CR2 &= CR_MER_Reset;
 603:lib/src/stm32f10x_flash.c ****   }    
 604:lib/src/stm32f10x_flash.c ****   /* Return the Erase Status */
 605:lib/src/stm32f10x_flash.c ****   return status;
 606:lib/src/stm32f10x_flash.c **** }
 607:lib/src/stm32f10x_flash.c **** #endif /* STM32F10X_XL */
 608:lib/src/stm32f10x_flash.c **** 
 609:lib/src/stm32f10x_flash.c **** /**
 610:lib/src/stm32f10x_flash.c ****   * @brief  Erases the FLASH option bytes.
 611:lib/src/stm32f10x_flash.c ****   * @note   This functions erases all option bytes except the Read protection (RDP). 
 612:lib/src/stm32f10x_flash.c ****   * @note   This function can be used for all STM32F10x devices.
 613:lib/src/stm32f10x_flash.c ****   * @param  None
 614:lib/src/stm32f10x_flash.c ****   * @retval FLASH Status: The returned value can be: FLASH_ERROR_PG,
 615:lib/src/stm32f10x_flash.c ****   *         FLASH_ERROR_WRP, FLASH_COMPLETE or FLASH_TIMEOUT.
 616:lib/src/stm32f10x_flash.c ****   */
ARM GAS  /tmp/ccLnU1Hk.s 			page 16


 617:lib/src/stm32f10x_flash.c **** FLASH_Status FLASH_EraseOptionBytes(void)
 618:lib/src/stm32f10x_flash.c **** {
 619:lib/src/stm32f10x_flash.c ****   uint16_t rdptmp = RDP_Key;
 620:lib/src/stm32f10x_flash.c **** 
 621:lib/src/stm32f10x_flash.c ****   FLASH_Status status = FLASH_COMPLETE;
 622:lib/src/stm32f10x_flash.c **** 
 623:lib/src/stm32f10x_flash.c ****   /* Get the actual read protection Option Byte value */ 
 624:lib/src/stm32f10x_flash.c ****   if(FLASH_GetReadOutProtectionStatus() != RESET)
 625:lib/src/stm32f10x_flash.c ****   {
 626:lib/src/stm32f10x_flash.c ****     rdptmp = 0x00;  
 627:lib/src/stm32f10x_flash.c ****   }
 628:lib/src/stm32f10x_flash.c **** 
 629:lib/src/stm32f10x_flash.c ****   /* Wait for last operation to be completed */
 630:lib/src/stm32f10x_flash.c ****   status = FLASH_WaitForLastOperation(EraseTimeout);
 631:lib/src/stm32f10x_flash.c ****   if(status == FLASH_COMPLETE)
 632:lib/src/stm32f10x_flash.c ****   {
 633:lib/src/stm32f10x_flash.c ****     /* Authorize the small information block programming */
 634:lib/src/stm32f10x_flash.c ****     FLASH->OPTKEYR = FLASH_KEY1;
 635:lib/src/stm32f10x_flash.c ****     FLASH->OPTKEYR = FLASH_KEY2;
 636:lib/src/stm32f10x_flash.c ****     
 637:lib/src/stm32f10x_flash.c ****     /* if the previous operation is completed, proceed to erase the option bytes */
 638:lib/src/stm32f10x_flash.c ****     FLASH->CR |= CR_OPTER_Set;
 639:lib/src/stm32f10x_flash.c ****     FLASH->CR |= CR_STRT_Set;
 640:lib/src/stm32f10x_flash.c ****     /* Wait for last operation to be completed */
 641:lib/src/stm32f10x_flash.c ****     status = FLASH_WaitForLastOperation(EraseTimeout);
 642:lib/src/stm32f10x_flash.c ****     
 643:lib/src/stm32f10x_flash.c ****     if(status == FLASH_COMPLETE)
 644:lib/src/stm32f10x_flash.c ****     {
 645:lib/src/stm32f10x_flash.c ****       /* if the erase operation is completed, disable the OPTER Bit */
 646:lib/src/stm32f10x_flash.c ****       FLASH->CR &= CR_OPTER_Reset;
 647:lib/src/stm32f10x_flash.c ****        
 648:lib/src/stm32f10x_flash.c ****       /* Enable the Option Bytes Programming operation */
 649:lib/src/stm32f10x_flash.c ****       FLASH->CR |= CR_OPTPG_Set;
 650:lib/src/stm32f10x_flash.c ****       /* Restore the last read protection Option Byte value */
 651:lib/src/stm32f10x_flash.c ****       OB->RDP = (uint16_t)rdptmp; 
 652:lib/src/stm32f10x_flash.c ****       /* Wait for last operation to be completed */
 653:lib/src/stm32f10x_flash.c ****       status = FLASH_WaitForLastOperation(ProgramTimeout);
 654:lib/src/stm32f10x_flash.c ****  
 655:lib/src/stm32f10x_flash.c ****       if(status != FLASH_TIMEOUT)
 656:lib/src/stm32f10x_flash.c ****       {
 657:lib/src/stm32f10x_flash.c ****         /* if the program operation is completed, disable the OPTPG Bit */
 658:lib/src/stm32f10x_flash.c ****         FLASH->CR &= CR_OPTPG_Reset;
 659:lib/src/stm32f10x_flash.c ****       }
 660:lib/src/stm32f10x_flash.c ****     }
 661:lib/src/stm32f10x_flash.c ****     else
 662:lib/src/stm32f10x_flash.c ****     {
 663:lib/src/stm32f10x_flash.c ****       if (status != FLASH_TIMEOUT)
 664:lib/src/stm32f10x_flash.c ****       {
 665:lib/src/stm32f10x_flash.c ****         /* Disable the OPTPG Bit */
 666:lib/src/stm32f10x_flash.c ****         FLASH->CR &= CR_OPTPG_Reset;
 667:lib/src/stm32f10x_flash.c ****       }
 668:lib/src/stm32f10x_flash.c ****     }  
 669:lib/src/stm32f10x_flash.c ****   }
 670:lib/src/stm32f10x_flash.c ****   /* Return the erase status */
 671:lib/src/stm32f10x_flash.c ****   return status;
 672:lib/src/stm32f10x_flash.c **** }
 673:lib/src/stm32f10x_flash.c **** 
ARM GAS  /tmp/ccLnU1Hk.s 			page 17


 674:lib/src/stm32f10x_flash.c **** /**
 675:lib/src/stm32f10x_flash.c ****   * @brief  Programs a word at a specified address.
 676:lib/src/stm32f10x_flash.c ****   * @note   This function can be used for all STM32F10x devices.
 677:lib/src/stm32f10x_flash.c ****   * @param  Address: specifies the address to be programmed.
 678:lib/src/stm32f10x_flash.c ****   * @param  Data: specifies the data to be programmed.
 679:lib/src/stm32f10x_flash.c ****   * @retval FLASH Status: The returned value can be: FLASH_ERROR_PG,
 680:lib/src/stm32f10x_flash.c ****   *         FLASH_ERROR_WRP, FLASH_COMPLETE or FLASH_TIMEOUT. 
 681:lib/src/stm32f10x_flash.c ****   */
 682:lib/src/stm32f10x_flash.c **** FLASH_Status FLASH_ProgramWord(uint32_t Address, uint32_t Data)
 683:lib/src/stm32f10x_flash.c **** {
 684:lib/src/stm32f10x_flash.c ****   FLASH_Status status = FLASH_COMPLETE;
 685:lib/src/stm32f10x_flash.c ****   __IO uint32_t tmp = 0;
 686:lib/src/stm32f10x_flash.c **** 
 687:lib/src/stm32f10x_flash.c ****   /* Check the parameters */
 688:lib/src/stm32f10x_flash.c ****   assert_param(IS_FLASH_ADDRESS(Address));
 689:lib/src/stm32f10x_flash.c **** 
 690:lib/src/stm32f10x_flash.c **** #ifdef STM32F10X_XL
 691:lib/src/stm32f10x_flash.c ****   if(Address < FLASH_BANK1_END_ADDRESS - 2)
 692:lib/src/stm32f10x_flash.c ****   { 
 693:lib/src/stm32f10x_flash.c ****     /* Wait for last operation to be completed */
 694:lib/src/stm32f10x_flash.c ****     status = FLASH_WaitForLastBank1Operation(ProgramTimeout); 
 695:lib/src/stm32f10x_flash.c ****     if(status == FLASH_COMPLETE)
 696:lib/src/stm32f10x_flash.c ****     {
 697:lib/src/stm32f10x_flash.c ****       /* if the previous operation is completed, proceed to program the new first 
 698:lib/src/stm32f10x_flash.c ****         half word */
 699:lib/src/stm32f10x_flash.c ****       FLASH->CR |= CR_PG_Set;
 700:lib/src/stm32f10x_flash.c ****   
 701:lib/src/stm32f10x_flash.c ****       *(__IO uint16_t*)Address = (uint16_t)Data;
 702:lib/src/stm32f10x_flash.c ****       /* Wait for last operation to be completed */
 703:lib/src/stm32f10x_flash.c ****       status = FLASH_WaitForLastOperation(ProgramTimeout);
 704:lib/src/stm32f10x_flash.c ****  
 705:lib/src/stm32f10x_flash.c ****       if(status == FLASH_COMPLETE)
 706:lib/src/stm32f10x_flash.c ****       {
 707:lib/src/stm32f10x_flash.c ****         /* if the previous operation is completed, proceed to program the new second 
 708:lib/src/stm32f10x_flash.c ****         half word */
 709:lib/src/stm32f10x_flash.c ****         tmp = Address + 2;
 710:lib/src/stm32f10x_flash.c **** 
 711:lib/src/stm32f10x_flash.c ****         *(__IO uint16_t*) tmp = Data >> 16;
 712:lib/src/stm32f10x_flash.c ****     
 713:lib/src/stm32f10x_flash.c ****         /* Wait for last operation to be completed */
 714:lib/src/stm32f10x_flash.c ****         status = FLASH_WaitForLastOperation(ProgramTimeout);
 715:lib/src/stm32f10x_flash.c ****         
 716:lib/src/stm32f10x_flash.c ****         /* Disable the PG Bit */
 717:lib/src/stm32f10x_flash.c ****         FLASH->CR &= CR_PG_Reset;
 718:lib/src/stm32f10x_flash.c ****       }
 719:lib/src/stm32f10x_flash.c ****       else
 720:lib/src/stm32f10x_flash.c ****       {
 721:lib/src/stm32f10x_flash.c ****         /* Disable the PG Bit */
 722:lib/src/stm32f10x_flash.c ****         FLASH->CR &= CR_PG_Reset;
 723:lib/src/stm32f10x_flash.c ****        }
 724:lib/src/stm32f10x_flash.c ****     }
 725:lib/src/stm32f10x_flash.c ****   }
 726:lib/src/stm32f10x_flash.c ****   else if(Address == (FLASH_BANK1_END_ADDRESS - 1))
 727:lib/src/stm32f10x_flash.c ****   {
 728:lib/src/stm32f10x_flash.c ****     /* Wait for last operation to be completed */
 729:lib/src/stm32f10x_flash.c ****     status = FLASH_WaitForLastBank1Operation(ProgramTimeout);
 730:lib/src/stm32f10x_flash.c **** 
ARM GAS  /tmp/ccLnU1Hk.s 			page 18


 731:lib/src/stm32f10x_flash.c ****     if(status == FLASH_COMPLETE)
 732:lib/src/stm32f10x_flash.c ****     {
 733:lib/src/stm32f10x_flash.c ****       /* if the previous operation is completed, proceed to program the new first 
 734:lib/src/stm32f10x_flash.c ****         half word */
 735:lib/src/stm32f10x_flash.c ****       FLASH->CR |= CR_PG_Set;
 736:lib/src/stm32f10x_flash.c ****   
 737:lib/src/stm32f10x_flash.c ****       *(__IO uint16_t*)Address = (uint16_t)Data;
 738:lib/src/stm32f10x_flash.c **** 
 739:lib/src/stm32f10x_flash.c ****       /* Wait for last operation to be completed */
 740:lib/src/stm32f10x_flash.c ****       status = FLASH_WaitForLastBank1Operation(ProgramTimeout);
 741:lib/src/stm32f10x_flash.c ****       
 742:lib/src/stm32f10x_flash.c **** 	  /* Disable the PG Bit */
 743:lib/src/stm32f10x_flash.c ****       FLASH->CR &= CR_PG_Reset;
 744:lib/src/stm32f10x_flash.c ****     }
 745:lib/src/stm32f10x_flash.c ****     else
 746:lib/src/stm32f10x_flash.c ****     {
 747:lib/src/stm32f10x_flash.c ****       /* Disable the PG Bit */
 748:lib/src/stm32f10x_flash.c ****       FLASH->CR &= CR_PG_Reset;
 749:lib/src/stm32f10x_flash.c ****     }
 750:lib/src/stm32f10x_flash.c **** 
 751:lib/src/stm32f10x_flash.c ****     /* Wait for last operation to be completed */
 752:lib/src/stm32f10x_flash.c ****     status = FLASH_WaitForLastBank2Operation(ProgramTimeout);
 753:lib/src/stm32f10x_flash.c **** 
 754:lib/src/stm32f10x_flash.c ****     if(status == FLASH_COMPLETE)
 755:lib/src/stm32f10x_flash.c ****     {
 756:lib/src/stm32f10x_flash.c ****       /* if the previous operation is completed, proceed to program the new second 
 757:lib/src/stm32f10x_flash.c ****       half word */
 758:lib/src/stm32f10x_flash.c ****       FLASH->CR2 |= CR_PG_Set;
 759:lib/src/stm32f10x_flash.c ****       tmp = Address + 2;
 760:lib/src/stm32f10x_flash.c **** 
 761:lib/src/stm32f10x_flash.c ****       *(__IO uint16_t*) tmp = Data >> 16;
 762:lib/src/stm32f10x_flash.c ****     
 763:lib/src/stm32f10x_flash.c ****       /* Wait for last operation to be completed */
 764:lib/src/stm32f10x_flash.c ****       status = FLASH_WaitForLastBank2Operation(ProgramTimeout);
 765:lib/src/stm32f10x_flash.c ****         
 766:lib/src/stm32f10x_flash.c ****       /* Disable the PG Bit */
 767:lib/src/stm32f10x_flash.c ****       FLASH->CR2 &= CR_PG_Reset;
 768:lib/src/stm32f10x_flash.c ****     }
 769:lib/src/stm32f10x_flash.c ****     else
 770:lib/src/stm32f10x_flash.c ****     {
 771:lib/src/stm32f10x_flash.c ****       /* Disable the PG Bit */
 772:lib/src/stm32f10x_flash.c ****       FLASH->CR2 &= CR_PG_Reset;
 773:lib/src/stm32f10x_flash.c ****     }
 774:lib/src/stm32f10x_flash.c ****   }
 775:lib/src/stm32f10x_flash.c ****   else
 776:lib/src/stm32f10x_flash.c ****   {
 777:lib/src/stm32f10x_flash.c ****     /* Wait for last operation to be completed */
 778:lib/src/stm32f10x_flash.c ****     status = FLASH_WaitForLastBank2Operation(ProgramTimeout);
 779:lib/src/stm32f10x_flash.c **** 
 780:lib/src/stm32f10x_flash.c ****     if(status == FLASH_COMPLETE)
 781:lib/src/stm32f10x_flash.c ****     {
 782:lib/src/stm32f10x_flash.c ****       /* if the previous operation is completed, proceed to program the new first 
 783:lib/src/stm32f10x_flash.c ****         half word */
 784:lib/src/stm32f10x_flash.c ****       FLASH->CR2 |= CR_PG_Set;
 785:lib/src/stm32f10x_flash.c ****   
 786:lib/src/stm32f10x_flash.c ****       *(__IO uint16_t*)Address = (uint16_t)Data;
 787:lib/src/stm32f10x_flash.c ****       /* Wait for last operation to be completed */
ARM GAS  /tmp/ccLnU1Hk.s 			page 19


 788:lib/src/stm32f10x_flash.c ****       status = FLASH_WaitForLastBank2Operation(ProgramTimeout);
 789:lib/src/stm32f10x_flash.c ****  
 790:lib/src/stm32f10x_flash.c ****       if(status == FLASH_COMPLETE)
 791:lib/src/stm32f10x_flash.c ****       {
 792:lib/src/stm32f10x_flash.c ****         /* if the previous operation is completed, proceed to program the new second 
 793:lib/src/stm32f10x_flash.c ****         half word */
 794:lib/src/stm32f10x_flash.c ****         tmp = Address + 2;
 795:lib/src/stm32f10x_flash.c **** 
 796:lib/src/stm32f10x_flash.c ****         *(__IO uint16_t*) tmp = Data >> 16;
 797:lib/src/stm32f10x_flash.c ****     
 798:lib/src/stm32f10x_flash.c ****         /* Wait for last operation to be completed */
 799:lib/src/stm32f10x_flash.c ****         status = FLASH_WaitForLastBank2Operation(ProgramTimeout);
 800:lib/src/stm32f10x_flash.c ****         
 801:lib/src/stm32f10x_flash.c ****         /* Disable the PG Bit */
 802:lib/src/stm32f10x_flash.c ****         FLASH->CR2 &= CR_PG_Reset;
 803:lib/src/stm32f10x_flash.c ****       }
 804:lib/src/stm32f10x_flash.c ****       else
 805:lib/src/stm32f10x_flash.c ****       {
 806:lib/src/stm32f10x_flash.c ****         /* Disable the PG Bit */
 807:lib/src/stm32f10x_flash.c ****         FLASH->CR2 &= CR_PG_Reset;
 808:lib/src/stm32f10x_flash.c ****       }
 809:lib/src/stm32f10x_flash.c ****     }
 810:lib/src/stm32f10x_flash.c ****   }
 811:lib/src/stm32f10x_flash.c **** #else
 812:lib/src/stm32f10x_flash.c ****   /* Wait for last operation to be completed */
 813:lib/src/stm32f10x_flash.c ****   status = FLASH_WaitForLastOperation(ProgramTimeout);
 814:lib/src/stm32f10x_flash.c ****   
 815:lib/src/stm32f10x_flash.c ****   if(status == FLASH_COMPLETE)
 816:lib/src/stm32f10x_flash.c ****   {
 817:lib/src/stm32f10x_flash.c ****     /* if the previous operation is completed, proceed to program the new first 
 818:lib/src/stm32f10x_flash.c ****     half word */
 819:lib/src/stm32f10x_flash.c ****     FLASH->CR |= CR_PG_Set;
 820:lib/src/stm32f10x_flash.c ****   
 821:lib/src/stm32f10x_flash.c ****     *(__IO uint16_t*)Address = (uint16_t)Data;
 822:lib/src/stm32f10x_flash.c ****     /* Wait for last operation to be completed */
 823:lib/src/stm32f10x_flash.c ****     status = FLASH_WaitForLastOperation(ProgramTimeout);
 824:lib/src/stm32f10x_flash.c ****  
 825:lib/src/stm32f10x_flash.c ****     if(status == FLASH_COMPLETE)
 826:lib/src/stm32f10x_flash.c ****     {
 827:lib/src/stm32f10x_flash.c ****       /* if the previous operation is completed, proceed to program the new second 
 828:lib/src/stm32f10x_flash.c ****       half word */
 829:lib/src/stm32f10x_flash.c ****       tmp = Address + 2;
 830:lib/src/stm32f10x_flash.c **** 
 831:lib/src/stm32f10x_flash.c ****       *(__IO uint16_t*) tmp = Data >> 16;
 832:lib/src/stm32f10x_flash.c ****     
 833:lib/src/stm32f10x_flash.c ****       /* Wait for last operation to be completed */
 834:lib/src/stm32f10x_flash.c ****       status = FLASH_WaitForLastOperation(ProgramTimeout);
 835:lib/src/stm32f10x_flash.c ****         
 836:lib/src/stm32f10x_flash.c ****       /* Disable the PG Bit */
 837:lib/src/stm32f10x_flash.c ****       FLASH->CR &= CR_PG_Reset;
 838:lib/src/stm32f10x_flash.c ****     }
 839:lib/src/stm32f10x_flash.c ****     else
 840:lib/src/stm32f10x_flash.c ****     {
 841:lib/src/stm32f10x_flash.c ****       /* Disable the PG Bit */
 842:lib/src/stm32f10x_flash.c ****       FLASH->CR &= CR_PG_Reset;
 843:lib/src/stm32f10x_flash.c ****     }
 844:lib/src/stm32f10x_flash.c ****   }         
ARM GAS  /tmp/ccLnU1Hk.s 			page 20


 845:lib/src/stm32f10x_flash.c **** #endif /* STM32F10X_XL */
 846:lib/src/stm32f10x_flash.c ****    
 847:lib/src/stm32f10x_flash.c ****   /* Return the Program Status */
 848:lib/src/stm32f10x_flash.c ****   return status;
 849:lib/src/stm32f10x_flash.c **** }
 850:lib/src/stm32f10x_flash.c **** 
 851:lib/src/stm32f10x_flash.c **** /**
 852:lib/src/stm32f10x_flash.c ****   * @brief  Programs a half word at a specified address.
 853:lib/src/stm32f10x_flash.c ****   * @note   This function can be used for all STM32F10x devices.
 854:lib/src/stm32f10x_flash.c ****   * @param  Address: specifies the address to be programmed.
 855:lib/src/stm32f10x_flash.c ****   * @param  Data: specifies the data to be programmed.
 856:lib/src/stm32f10x_flash.c ****   * @retval FLASH Status: The returned value can be: FLASH_ERROR_PG,
 857:lib/src/stm32f10x_flash.c ****   *         FLASH_ERROR_WRP, FLASH_COMPLETE or FLASH_TIMEOUT. 
 858:lib/src/stm32f10x_flash.c ****   */
 859:lib/src/stm32f10x_flash.c **** FLASH_Status FLASH_ProgramHalfWord(uint32_t Address, uint16_t Data)
 860:lib/src/stm32f10x_flash.c **** {
 861:lib/src/stm32f10x_flash.c ****   FLASH_Status status = FLASH_COMPLETE;
 862:lib/src/stm32f10x_flash.c ****   /* Check the parameters */
 863:lib/src/stm32f10x_flash.c ****   assert_param(IS_FLASH_ADDRESS(Address));
 864:lib/src/stm32f10x_flash.c **** 
 865:lib/src/stm32f10x_flash.c **** #ifdef STM32F10X_XL
 866:lib/src/stm32f10x_flash.c ****   /* Wait for last operation to be completed */
 867:lib/src/stm32f10x_flash.c ****   status = FLASH_WaitForLastOperation(ProgramTimeout);
 868:lib/src/stm32f10x_flash.c ****   
 869:lib/src/stm32f10x_flash.c ****   if(Address < FLASH_BANK1_END_ADDRESS)
 870:lib/src/stm32f10x_flash.c ****   {
 871:lib/src/stm32f10x_flash.c ****     if(status == FLASH_COMPLETE)
 872:lib/src/stm32f10x_flash.c ****     {
 873:lib/src/stm32f10x_flash.c ****       /* if the previous operation is completed, proceed to program the new data */
 874:lib/src/stm32f10x_flash.c ****       FLASH->CR |= CR_PG_Set;
 875:lib/src/stm32f10x_flash.c ****   
 876:lib/src/stm32f10x_flash.c ****       *(__IO uint16_t*)Address = Data;
 877:lib/src/stm32f10x_flash.c ****       /* Wait for last operation to be completed */
 878:lib/src/stm32f10x_flash.c ****       status = FLASH_WaitForLastBank1Operation(ProgramTimeout);
 879:lib/src/stm32f10x_flash.c **** 
 880:lib/src/stm32f10x_flash.c ****       /* Disable the PG Bit */
 881:lib/src/stm32f10x_flash.c ****       FLASH->CR &= CR_PG_Reset;
 882:lib/src/stm32f10x_flash.c ****     }
 883:lib/src/stm32f10x_flash.c ****   }
 884:lib/src/stm32f10x_flash.c ****   else
 885:lib/src/stm32f10x_flash.c ****   {
 886:lib/src/stm32f10x_flash.c ****     if(status == FLASH_COMPLETE)
 887:lib/src/stm32f10x_flash.c ****     {
 888:lib/src/stm32f10x_flash.c ****       /* if the previous operation is completed, proceed to program the new data */
 889:lib/src/stm32f10x_flash.c ****       FLASH->CR2 |= CR_PG_Set;
 890:lib/src/stm32f10x_flash.c ****   
 891:lib/src/stm32f10x_flash.c ****       *(__IO uint16_t*)Address = Data;
 892:lib/src/stm32f10x_flash.c ****       /* Wait for last operation to be completed */
 893:lib/src/stm32f10x_flash.c ****       status = FLASH_WaitForLastBank2Operation(ProgramTimeout);
 894:lib/src/stm32f10x_flash.c **** 
 895:lib/src/stm32f10x_flash.c ****       /* Disable the PG Bit */
 896:lib/src/stm32f10x_flash.c ****       FLASH->CR2 &= CR_PG_Reset;
 897:lib/src/stm32f10x_flash.c ****     }
 898:lib/src/stm32f10x_flash.c ****   }
 899:lib/src/stm32f10x_flash.c **** #else
 900:lib/src/stm32f10x_flash.c ****   /* Wait for last operation to be completed */
 901:lib/src/stm32f10x_flash.c ****   status = FLASH_WaitForLastOperation(ProgramTimeout);
ARM GAS  /tmp/ccLnU1Hk.s 			page 21


 902:lib/src/stm32f10x_flash.c ****   
 903:lib/src/stm32f10x_flash.c ****   if(status == FLASH_COMPLETE)
 904:lib/src/stm32f10x_flash.c ****   {
 905:lib/src/stm32f10x_flash.c ****     /* if the previous operation is completed, proceed to program the new data */
 906:lib/src/stm32f10x_flash.c ****     FLASH->CR |= CR_PG_Set;
 907:lib/src/stm32f10x_flash.c ****   
 908:lib/src/stm32f10x_flash.c ****     *(__IO uint16_t*)Address = Data;
 909:lib/src/stm32f10x_flash.c ****     /* Wait for last operation to be completed */
 910:lib/src/stm32f10x_flash.c ****     status = FLASH_WaitForLastOperation(ProgramTimeout);
 911:lib/src/stm32f10x_flash.c ****     
 912:lib/src/stm32f10x_flash.c ****     /* Disable the PG Bit */
 913:lib/src/stm32f10x_flash.c ****     FLASH->CR &= CR_PG_Reset;
 914:lib/src/stm32f10x_flash.c ****   } 
 915:lib/src/stm32f10x_flash.c **** #endif  /* STM32F10X_XL */
 916:lib/src/stm32f10x_flash.c ****   
 917:lib/src/stm32f10x_flash.c ****   /* Return the Program Status */
 918:lib/src/stm32f10x_flash.c ****   return status;
 919:lib/src/stm32f10x_flash.c **** }
 920:lib/src/stm32f10x_flash.c **** 
 921:lib/src/stm32f10x_flash.c **** /**
 922:lib/src/stm32f10x_flash.c ****   * @brief  Programs a half word at a specified Option Byte Data address.
 923:lib/src/stm32f10x_flash.c ****   * @note   This function can be used for all STM32F10x devices.
 924:lib/src/stm32f10x_flash.c ****   * @param  Address: specifies the address to be programmed.
 925:lib/src/stm32f10x_flash.c ****   *   This parameter can be 0x1FFFF804 or 0x1FFFF806. 
 926:lib/src/stm32f10x_flash.c ****   * @param  Data: specifies the data to be programmed.
 927:lib/src/stm32f10x_flash.c ****   * @retval FLASH Status: The returned value can be: FLASH_ERROR_PG,
 928:lib/src/stm32f10x_flash.c ****   *         FLASH_ERROR_WRP, FLASH_COMPLETE or FLASH_TIMEOUT. 
 929:lib/src/stm32f10x_flash.c ****   */
 930:lib/src/stm32f10x_flash.c **** FLASH_Status FLASH_ProgramOptionByteData(uint32_t Address, uint8_t Data)
 931:lib/src/stm32f10x_flash.c **** {
 932:lib/src/stm32f10x_flash.c ****   FLASH_Status status = FLASH_COMPLETE;
 933:lib/src/stm32f10x_flash.c ****   /* Check the parameters */
 934:lib/src/stm32f10x_flash.c ****   assert_param(IS_OB_DATA_ADDRESS(Address));
 935:lib/src/stm32f10x_flash.c ****   status = FLASH_WaitForLastOperation(ProgramTimeout);
 936:lib/src/stm32f10x_flash.c **** 
 937:lib/src/stm32f10x_flash.c ****   if(status == FLASH_COMPLETE)
 938:lib/src/stm32f10x_flash.c ****   {
 939:lib/src/stm32f10x_flash.c ****     /* Authorize the small information block programming */
 940:lib/src/stm32f10x_flash.c ****     FLASH->OPTKEYR = FLASH_KEY1;
 941:lib/src/stm32f10x_flash.c ****     FLASH->OPTKEYR = FLASH_KEY2;
 942:lib/src/stm32f10x_flash.c ****     /* Enables the Option Bytes Programming operation */
 943:lib/src/stm32f10x_flash.c ****     FLASH->CR |= CR_OPTPG_Set; 
 944:lib/src/stm32f10x_flash.c ****     *(__IO uint16_t*)Address = Data;
 945:lib/src/stm32f10x_flash.c ****     
 946:lib/src/stm32f10x_flash.c ****     /* Wait for last operation to be completed */
 947:lib/src/stm32f10x_flash.c ****     status = FLASH_WaitForLastOperation(ProgramTimeout);
 948:lib/src/stm32f10x_flash.c ****     if(status != FLASH_TIMEOUT)
 949:lib/src/stm32f10x_flash.c ****     {
 950:lib/src/stm32f10x_flash.c ****       /* if the program operation is completed, disable the OPTPG Bit */
 951:lib/src/stm32f10x_flash.c ****       FLASH->CR &= CR_OPTPG_Reset;
 952:lib/src/stm32f10x_flash.c ****     }
 953:lib/src/stm32f10x_flash.c ****   }
 954:lib/src/stm32f10x_flash.c ****   /* Return the Option Byte Data Program Status */
 955:lib/src/stm32f10x_flash.c ****   return status;
 956:lib/src/stm32f10x_flash.c **** }
 957:lib/src/stm32f10x_flash.c **** 
 958:lib/src/stm32f10x_flash.c **** /**
ARM GAS  /tmp/ccLnU1Hk.s 			page 22


 959:lib/src/stm32f10x_flash.c ****   * @brief  Write protects the desired pages
 960:lib/src/stm32f10x_flash.c ****   * @note   This function can be used for all STM32F10x devices.
 961:lib/src/stm32f10x_flash.c ****   * @param  FLASH_Pages: specifies the address of the pages to be write protected.
 962:lib/src/stm32f10x_flash.c ****   *   This parameter can be:
 963:lib/src/stm32f10x_flash.c ****   *     @arg For @b STM32_Low-density_devices: value between FLASH_WRProt_Pages0to3 and FLASH_WRPro
 964:lib/src/stm32f10x_flash.c ****   *     @arg For @b STM32_Medium-density_devices: value between FLASH_WRProt_Pages0to3
 965:lib/src/stm32f10x_flash.c ****   *       and FLASH_WRProt_Pages124to127
 966:lib/src/stm32f10x_flash.c ****   *     @arg For @b STM32_High-density_devices: value between FLASH_WRProt_Pages0to1 and
 967:lib/src/stm32f10x_flash.c ****   *       FLASH_WRProt_Pages60to61 or FLASH_WRProt_Pages62to255
 968:lib/src/stm32f10x_flash.c ****   *     @arg For @b STM32_Connectivity_line_devices: value between FLASH_WRProt_Pages0to1 and
 969:lib/src/stm32f10x_flash.c ****   *       FLASH_WRProt_Pages60to61 or FLASH_WRProt_Pages62to127    
 970:lib/src/stm32f10x_flash.c ****   *     @arg For @b STM32_XL-density_devices: value between FLASH_WRProt_Pages0to1 and
 971:lib/src/stm32f10x_flash.c ****   *       FLASH_WRProt_Pages60to61 or FLASH_WRProt_Pages62to511
 972:lib/src/stm32f10x_flash.c ****   *     @arg FLASH_WRProt_AllPages
 973:lib/src/stm32f10x_flash.c ****   * @retval FLASH Status: The returned value can be: FLASH_ERROR_PG,
 974:lib/src/stm32f10x_flash.c ****   *         FLASH_ERROR_WRP, FLASH_COMPLETE or FLASH_TIMEOUT.
 975:lib/src/stm32f10x_flash.c ****   */
 976:lib/src/stm32f10x_flash.c **** FLASH_Status FLASH_EnableWriteProtection(uint32_t FLASH_Pages)
 977:lib/src/stm32f10x_flash.c **** {
 978:lib/src/stm32f10x_flash.c ****   uint16_t WRP0_Data = 0xFFFF, WRP1_Data = 0xFFFF, WRP2_Data = 0xFFFF, WRP3_Data = 0xFFFF;
 979:lib/src/stm32f10x_flash.c ****   
 980:lib/src/stm32f10x_flash.c ****   FLASH_Status status = FLASH_COMPLETE;
 981:lib/src/stm32f10x_flash.c ****   
 982:lib/src/stm32f10x_flash.c ****   /* Check the parameters */
 983:lib/src/stm32f10x_flash.c ****   assert_param(IS_FLASH_WRPROT_PAGE(FLASH_Pages));
 984:lib/src/stm32f10x_flash.c ****   
 985:lib/src/stm32f10x_flash.c ****   FLASH_Pages = (uint32_t)(~FLASH_Pages);
 986:lib/src/stm32f10x_flash.c ****   WRP0_Data = (uint16_t)(FLASH_Pages & WRP0_Mask);
 987:lib/src/stm32f10x_flash.c ****   WRP1_Data = (uint16_t)((FLASH_Pages & WRP1_Mask) >> 8);
 988:lib/src/stm32f10x_flash.c ****   WRP2_Data = (uint16_t)((FLASH_Pages & WRP2_Mask) >> 16);
 989:lib/src/stm32f10x_flash.c ****   WRP3_Data = (uint16_t)((FLASH_Pages & WRP3_Mask) >> 24);
 990:lib/src/stm32f10x_flash.c ****   
 991:lib/src/stm32f10x_flash.c ****   /* Wait for last operation to be completed */
 992:lib/src/stm32f10x_flash.c ****   status = FLASH_WaitForLastOperation(ProgramTimeout);
 993:lib/src/stm32f10x_flash.c ****   
 994:lib/src/stm32f10x_flash.c ****   if(status == FLASH_COMPLETE)
 995:lib/src/stm32f10x_flash.c ****   {
 996:lib/src/stm32f10x_flash.c ****     /* Authorizes the small information block programming */
 997:lib/src/stm32f10x_flash.c ****     FLASH->OPTKEYR = FLASH_KEY1;
 998:lib/src/stm32f10x_flash.c ****     FLASH->OPTKEYR = FLASH_KEY2;
 999:lib/src/stm32f10x_flash.c ****     FLASH->CR |= CR_OPTPG_Set;
1000:lib/src/stm32f10x_flash.c ****     if(WRP0_Data != 0xFF)
1001:lib/src/stm32f10x_flash.c ****     {
1002:lib/src/stm32f10x_flash.c ****       OB->WRP0 = WRP0_Data;
1003:lib/src/stm32f10x_flash.c ****       
1004:lib/src/stm32f10x_flash.c ****       /* Wait for last operation to be completed */
1005:lib/src/stm32f10x_flash.c ****       status = FLASH_WaitForLastOperation(ProgramTimeout);
1006:lib/src/stm32f10x_flash.c ****     }
1007:lib/src/stm32f10x_flash.c ****     if((status == FLASH_COMPLETE) && (WRP1_Data != 0xFF))
1008:lib/src/stm32f10x_flash.c ****     {
1009:lib/src/stm32f10x_flash.c ****       OB->WRP1 = WRP1_Data;
1010:lib/src/stm32f10x_flash.c ****       
1011:lib/src/stm32f10x_flash.c ****       /* Wait for last operation to be completed */
1012:lib/src/stm32f10x_flash.c ****       status = FLASH_WaitForLastOperation(ProgramTimeout);
1013:lib/src/stm32f10x_flash.c ****     }
1014:lib/src/stm32f10x_flash.c ****     if((status == FLASH_COMPLETE) && (WRP2_Data != 0xFF))
1015:lib/src/stm32f10x_flash.c ****     {
ARM GAS  /tmp/ccLnU1Hk.s 			page 23


1016:lib/src/stm32f10x_flash.c ****       OB->WRP2 = WRP2_Data;
1017:lib/src/stm32f10x_flash.c ****       
1018:lib/src/stm32f10x_flash.c ****       /* Wait for last operation to be completed */
1019:lib/src/stm32f10x_flash.c ****       status = FLASH_WaitForLastOperation(ProgramTimeout);
1020:lib/src/stm32f10x_flash.c ****     }
1021:lib/src/stm32f10x_flash.c ****     
1022:lib/src/stm32f10x_flash.c ****     if((status == FLASH_COMPLETE)&& (WRP3_Data != 0xFF))
1023:lib/src/stm32f10x_flash.c ****     {
1024:lib/src/stm32f10x_flash.c ****       OB->WRP3 = WRP3_Data;
1025:lib/src/stm32f10x_flash.c ****      
1026:lib/src/stm32f10x_flash.c ****       /* Wait for last operation to be completed */
1027:lib/src/stm32f10x_flash.c ****       status = FLASH_WaitForLastOperation(ProgramTimeout);
1028:lib/src/stm32f10x_flash.c ****     }
1029:lib/src/stm32f10x_flash.c ****           
1030:lib/src/stm32f10x_flash.c ****     if(status != FLASH_TIMEOUT)
1031:lib/src/stm32f10x_flash.c ****     {
1032:lib/src/stm32f10x_flash.c ****       /* if the program operation is completed, disable the OPTPG Bit */
1033:lib/src/stm32f10x_flash.c ****       FLASH->CR &= CR_OPTPG_Reset;
1034:lib/src/stm32f10x_flash.c ****     }
1035:lib/src/stm32f10x_flash.c ****   } 
1036:lib/src/stm32f10x_flash.c ****   /* Return the write protection operation Status */
1037:lib/src/stm32f10x_flash.c ****   return status;       
1038:lib/src/stm32f10x_flash.c **** }
1039:lib/src/stm32f10x_flash.c **** 
1040:lib/src/stm32f10x_flash.c **** /**
1041:lib/src/stm32f10x_flash.c ****   * @brief  Enables or disables the read out protection.
1042:lib/src/stm32f10x_flash.c ****   * @note   If the user has already programmed the other option bytes before calling 
1043:lib/src/stm32f10x_flash.c ****   *   this function, he must re-program them since this function erases all option bytes.
1044:lib/src/stm32f10x_flash.c ****   * @note   This function can be used for all STM32F10x devices.
1045:lib/src/stm32f10x_flash.c ****   * @param  Newstate: new state of the ReadOut Protection.
1046:lib/src/stm32f10x_flash.c ****   *   This parameter can be: ENABLE or DISABLE.
1047:lib/src/stm32f10x_flash.c ****   * @retval FLASH Status: The returned value can be: FLASH_ERROR_PG,
1048:lib/src/stm32f10x_flash.c ****   *         FLASH_ERROR_WRP, FLASH_COMPLETE or FLASH_TIMEOUT.
1049:lib/src/stm32f10x_flash.c ****   */
1050:lib/src/stm32f10x_flash.c **** FLASH_Status FLASH_ReadOutProtection(FunctionalState NewState)
1051:lib/src/stm32f10x_flash.c **** {
1052:lib/src/stm32f10x_flash.c ****   FLASH_Status status = FLASH_COMPLETE;
1053:lib/src/stm32f10x_flash.c ****   /* Check the parameters */
1054:lib/src/stm32f10x_flash.c ****   assert_param(IS_FUNCTIONAL_STATE(NewState));
1055:lib/src/stm32f10x_flash.c ****   status = FLASH_WaitForLastOperation(EraseTimeout);
1056:lib/src/stm32f10x_flash.c ****   if(status == FLASH_COMPLETE)
1057:lib/src/stm32f10x_flash.c ****   {
1058:lib/src/stm32f10x_flash.c ****     /* Authorizes the small information block programming */
1059:lib/src/stm32f10x_flash.c ****     FLASH->OPTKEYR = FLASH_KEY1;
1060:lib/src/stm32f10x_flash.c ****     FLASH->OPTKEYR = FLASH_KEY2;
1061:lib/src/stm32f10x_flash.c ****     FLASH->CR |= CR_OPTER_Set;
1062:lib/src/stm32f10x_flash.c ****     FLASH->CR |= CR_STRT_Set;
1063:lib/src/stm32f10x_flash.c ****     /* Wait for last operation to be completed */
1064:lib/src/stm32f10x_flash.c ****     status = FLASH_WaitForLastOperation(EraseTimeout);
1065:lib/src/stm32f10x_flash.c ****     if(status == FLASH_COMPLETE)
1066:lib/src/stm32f10x_flash.c ****     {
1067:lib/src/stm32f10x_flash.c ****       /* if the erase operation is completed, disable the OPTER Bit */
1068:lib/src/stm32f10x_flash.c ****       FLASH->CR &= CR_OPTER_Reset;
1069:lib/src/stm32f10x_flash.c ****       /* Enable the Option Bytes Programming operation */
1070:lib/src/stm32f10x_flash.c ****       FLASH->CR |= CR_OPTPG_Set; 
1071:lib/src/stm32f10x_flash.c ****       if(NewState != DISABLE)
1072:lib/src/stm32f10x_flash.c ****       {
ARM GAS  /tmp/ccLnU1Hk.s 			page 24


1073:lib/src/stm32f10x_flash.c ****         OB->RDP = 0x00;
1074:lib/src/stm32f10x_flash.c ****       }
1075:lib/src/stm32f10x_flash.c ****       else
1076:lib/src/stm32f10x_flash.c ****       {
1077:lib/src/stm32f10x_flash.c ****         OB->RDP = RDP_Key;  
1078:lib/src/stm32f10x_flash.c ****       }
1079:lib/src/stm32f10x_flash.c ****       /* Wait for last operation to be completed */
1080:lib/src/stm32f10x_flash.c ****       status = FLASH_WaitForLastOperation(EraseTimeout); 
1081:lib/src/stm32f10x_flash.c ****     
1082:lib/src/stm32f10x_flash.c ****       if(status != FLASH_TIMEOUT)
1083:lib/src/stm32f10x_flash.c ****       {
1084:lib/src/stm32f10x_flash.c ****         /* if the program operation is completed, disable the OPTPG Bit */
1085:lib/src/stm32f10x_flash.c ****         FLASH->CR &= CR_OPTPG_Reset;
1086:lib/src/stm32f10x_flash.c ****       }
1087:lib/src/stm32f10x_flash.c ****     }
1088:lib/src/stm32f10x_flash.c ****     else 
1089:lib/src/stm32f10x_flash.c ****     {
1090:lib/src/stm32f10x_flash.c ****       if(status != FLASH_TIMEOUT)
1091:lib/src/stm32f10x_flash.c ****       {
1092:lib/src/stm32f10x_flash.c ****         /* Disable the OPTER Bit */
1093:lib/src/stm32f10x_flash.c ****         FLASH->CR &= CR_OPTER_Reset;
1094:lib/src/stm32f10x_flash.c ****       }
1095:lib/src/stm32f10x_flash.c ****     }
1096:lib/src/stm32f10x_flash.c ****   }
1097:lib/src/stm32f10x_flash.c ****   /* Return the protection operation Status */
1098:lib/src/stm32f10x_flash.c ****   return status;       
1099:lib/src/stm32f10x_flash.c **** }
1100:lib/src/stm32f10x_flash.c **** 
1101:lib/src/stm32f10x_flash.c **** /**
1102:lib/src/stm32f10x_flash.c ****   * @brief  Programs the FLASH User Option Byte: IWDG_SW / RST_STOP / RST_STDBY.
1103:lib/src/stm32f10x_flash.c ****   * @note   This function can be used for all STM32F10x devices.
1104:lib/src/stm32f10x_flash.c ****   * @param  OB_IWDG: Selects the IWDG mode
1105:lib/src/stm32f10x_flash.c ****   *   This parameter can be one of the following values:
1106:lib/src/stm32f10x_flash.c ****   *     @arg OB_IWDG_SW: Software IWDG selected
1107:lib/src/stm32f10x_flash.c ****   *     @arg OB_IWDG_HW: Hardware IWDG selected
1108:lib/src/stm32f10x_flash.c ****   * @param  OB_STOP: Reset event when entering STOP mode.
1109:lib/src/stm32f10x_flash.c ****   *   This parameter can be one of the following values:
1110:lib/src/stm32f10x_flash.c ****   *     @arg OB_STOP_NoRST: No reset generated when entering in STOP
1111:lib/src/stm32f10x_flash.c ****   *     @arg OB_STOP_RST: Reset generated when entering in STOP
1112:lib/src/stm32f10x_flash.c ****   * @param  OB_STDBY: Reset event when entering Standby mode.
1113:lib/src/stm32f10x_flash.c ****   *   This parameter can be one of the following values:
1114:lib/src/stm32f10x_flash.c ****   *     @arg OB_STDBY_NoRST: No reset generated when entering in STANDBY
1115:lib/src/stm32f10x_flash.c ****   *     @arg OB_STDBY_RST: Reset generated when entering in STANDBY
1116:lib/src/stm32f10x_flash.c ****   * @retval FLASH Status: The returned value can be: FLASH_ERROR_PG, 
1117:lib/src/stm32f10x_flash.c ****   *         FLASH_ERROR_WRP, FLASH_COMPLETE or FLASH_TIMEOUT.
1118:lib/src/stm32f10x_flash.c ****   */
1119:lib/src/stm32f10x_flash.c **** FLASH_Status FLASH_UserOptionByteConfig(uint16_t OB_IWDG, uint16_t OB_STOP, uint16_t OB_STDBY)
1120:lib/src/stm32f10x_flash.c **** {
1121:lib/src/stm32f10x_flash.c ****   FLASH_Status status = FLASH_COMPLETE; 
1122:lib/src/stm32f10x_flash.c **** 
1123:lib/src/stm32f10x_flash.c ****   /* Check the parameters */
1124:lib/src/stm32f10x_flash.c ****   assert_param(IS_OB_IWDG_SOURCE(OB_IWDG));
1125:lib/src/stm32f10x_flash.c ****   assert_param(IS_OB_STOP_SOURCE(OB_STOP));
1126:lib/src/stm32f10x_flash.c ****   assert_param(IS_OB_STDBY_SOURCE(OB_STDBY));
1127:lib/src/stm32f10x_flash.c **** 
1128:lib/src/stm32f10x_flash.c ****   /* Authorize the small information block programming */
1129:lib/src/stm32f10x_flash.c ****   FLASH->OPTKEYR = FLASH_KEY1;
ARM GAS  /tmp/ccLnU1Hk.s 			page 25


1130:lib/src/stm32f10x_flash.c ****   FLASH->OPTKEYR = FLASH_KEY2;
1131:lib/src/stm32f10x_flash.c ****   
1132:lib/src/stm32f10x_flash.c ****   /* Wait for last operation to be completed */
1133:lib/src/stm32f10x_flash.c ****   status = FLASH_WaitForLastOperation(ProgramTimeout);
1134:lib/src/stm32f10x_flash.c ****   
1135:lib/src/stm32f10x_flash.c ****   if(status == FLASH_COMPLETE)
1136:lib/src/stm32f10x_flash.c ****   {  
1137:lib/src/stm32f10x_flash.c ****     /* Enable the Option Bytes Programming operation */
1138:lib/src/stm32f10x_flash.c ****     FLASH->CR |= CR_OPTPG_Set; 
1139:lib/src/stm32f10x_flash.c ****            
1140:lib/src/stm32f10x_flash.c ****     OB->USER = OB_IWDG | (uint16_t)(OB_STOP | (uint16_t)(OB_STDBY | ((uint16_t)0xF8))); 
1141:lib/src/stm32f10x_flash.c ****   
1142:lib/src/stm32f10x_flash.c ****     /* Wait for last operation to be completed */
1143:lib/src/stm32f10x_flash.c ****     status = FLASH_WaitForLastOperation(ProgramTimeout);
1144:lib/src/stm32f10x_flash.c ****     if(status != FLASH_TIMEOUT)
1145:lib/src/stm32f10x_flash.c ****     {
1146:lib/src/stm32f10x_flash.c ****       /* if the program operation is completed, disable the OPTPG Bit */
1147:lib/src/stm32f10x_flash.c ****       FLASH->CR &= CR_OPTPG_Reset;
1148:lib/src/stm32f10x_flash.c ****     }
1149:lib/src/stm32f10x_flash.c ****   }    
1150:lib/src/stm32f10x_flash.c ****   /* Return the Option Byte program Status */
1151:lib/src/stm32f10x_flash.c ****   return status;
1152:lib/src/stm32f10x_flash.c **** }
1153:lib/src/stm32f10x_flash.c **** 
1154:lib/src/stm32f10x_flash.c **** #ifdef STM32F10X_XL
1155:lib/src/stm32f10x_flash.c **** /**
1156:lib/src/stm32f10x_flash.c ****   * @brief  Configures to boot from Bank1 or Bank2.  
1157:lib/src/stm32f10x_flash.c ****   * @note   This function can be used only for STM32F10x_XL density devices.
1158:lib/src/stm32f10x_flash.c ****   * @param  FLASH_BOOT: select the FLASH Bank to boot from.
1159:lib/src/stm32f10x_flash.c ****   *   This parameter can be one of the following values:
1160:lib/src/stm32f10x_flash.c ****   *     @arg FLASH_BOOT_Bank1: At startup, if boot pins are set in boot from user Flash
1161:lib/src/stm32f10x_flash.c ****   *        position and this parameter is selected the device will boot from Bank1(Default).
1162:lib/src/stm32f10x_flash.c ****   *     @arg FLASH_BOOT_Bank2: At startup, if boot pins are set in boot from user Flash
1163:lib/src/stm32f10x_flash.c ****   *        position and this parameter is selected the device will boot from Bank2 or Bank1,
1164:lib/src/stm32f10x_flash.c ****   *        depending on the activation of the bank. The active banks are checked in
1165:lib/src/stm32f10x_flash.c ****   *        the following order: Bank2, followed by Bank1.
1166:lib/src/stm32f10x_flash.c ****   *        The active bank is recognized by the value programmed at the base address
1167:lib/src/stm32f10x_flash.c ****   *        of the respective bank (corresponding to the initial stack pointer value
1168:lib/src/stm32f10x_flash.c ****   *        in the interrupt vector table).
1169:lib/src/stm32f10x_flash.c ****   *        For more information, please refer to AN2606 from www.st.com.    
1170:lib/src/stm32f10x_flash.c ****   * @retval FLASH Status: The returned value can be: FLASH_ERROR_PG, 
1171:lib/src/stm32f10x_flash.c ****   *         FLASH_ERROR_WRP, FLASH_COMPLETE or FLASH_TIMEOUT.
1172:lib/src/stm32f10x_flash.c ****   */
1173:lib/src/stm32f10x_flash.c **** FLASH_Status FLASH_BootConfig(uint16_t FLASH_BOOT)
1174:lib/src/stm32f10x_flash.c **** { 
1175:lib/src/stm32f10x_flash.c ****   FLASH_Status status = FLASH_COMPLETE; 
1176:lib/src/stm32f10x_flash.c ****   assert_param(IS_FLASH_BOOT(FLASH_BOOT));
1177:lib/src/stm32f10x_flash.c ****   /* Authorize the small information block programming */
1178:lib/src/stm32f10x_flash.c ****   FLASH->OPTKEYR = FLASH_KEY1;
1179:lib/src/stm32f10x_flash.c ****   FLASH->OPTKEYR = FLASH_KEY2;
1180:lib/src/stm32f10x_flash.c ****   
1181:lib/src/stm32f10x_flash.c ****   /* Wait for last operation to be completed */
1182:lib/src/stm32f10x_flash.c ****   status = FLASH_WaitForLastOperation(ProgramTimeout);
1183:lib/src/stm32f10x_flash.c ****   
1184:lib/src/stm32f10x_flash.c ****   if(status == FLASH_COMPLETE)
1185:lib/src/stm32f10x_flash.c ****   {  
1186:lib/src/stm32f10x_flash.c ****     /* Enable the Option Bytes Programming operation */
ARM GAS  /tmp/ccLnU1Hk.s 			page 26


1187:lib/src/stm32f10x_flash.c ****     FLASH->CR |= CR_OPTPG_Set; 
1188:lib/src/stm32f10x_flash.c **** 
1189:lib/src/stm32f10x_flash.c ****     if(FLASH_BOOT == FLASH_BOOT_Bank1)
1190:lib/src/stm32f10x_flash.c ****     {
1191:lib/src/stm32f10x_flash.c ****       OB->USER |= OB_USER_BFB2;
1192:lib/src/stm32f10x_flash.c ****     }
1193:lib/src/stm32f10x_flash.c ****     else
1194:lib/src/stm32f10x_flash.c ****     {
1195:lib/src/stm32f10x_flash.c ****       OB->USER &= (uint16_t)(~(uint16_t)(OB_USER_BFB2));
1196:lib/src/stm32f10x_flash.c ****     }
1197:lib/src/stm32f10x_flash.c ****     /* Wait for last operation to be completed */
1198:lib/src/stm32f10x_flash.c ****     status = FLASH_WaitForLastOperation(ProgramTimeout);
1199:lib/src/stm32f10x_flash.c ****     if(status != FLASH_TIMEOUT)
1200:lib/src/stm32f10x_flash.c ****     {
1201:lib/src/stm32f10x_flash.c ****       /* if the program operation is completed, disable the OPTPG Bit */
1202:lib/src/stm32f10x_flash.c ****       FLASH->CR &= CR_OPTPG_Reset;
1203:lib/src/stm32f10x_flash.c ****     }
1204:lib/src/stm32f10x_flash.c ****   }    
1205:lib/src/stm32f10x_flash.c ****   /* Return the Option Byte program Status */
1206:lib/src/stm32f10x_flash.c ****   return status;
1207:lib/src/stm32f10x_flash.c **** }
1208:lib/src/stm32f10x_flash.c **** #endif /* STM32F10X_XL */
1209:lib/src/stm32f10x_flash.c **** 
1210:lib/src/stm32f10x_flash.c **** /**
1211:lib/src/stm32f10x_flash.c ****   * @brief  Returns the FLASH User Option Bytes values.
1212:lib/src/stm32f10x_flash.c ****   * @note   This function can be used for all STM32F10x devices.
1213:lib/src/stm32f10x_flash.c ****   * @param  None
1214:lib/src/stm32f10x_flash.c ****   * @retval The FLASH User Option Bytes values:IWDG_SW(Bit0), RST_STOP(Bit1)
1215:lib/src/stm32f10x_flash.c ****   *         and RST_STDBY(Bit2).
1216:lib/src/stm32f10x_flash.c ****   */
1217:lib/src/stm32f10x_flash.c **** uint32_t FLASH_GetUserOptionByte(void)
1218:lib/src/stm32f10x_flash.c **** {
 240              		.loc 1 1218 0
 241              		.cfi_startproc
 242              		@ args = 0, pretend = 0, frame = 0
 243              		@ frame_needed = 0, uses_anonymous_args = 0
 244              		@ link register save eliminated.
1219:lib/src/stm32f10x_flash.c ****   /* Return the User Option Byte */
1220:lib/src/stm32f10x_flash.c ****   return (uint32_t)(FLASH->OBR >> 2);
 245              		.loc 1 1220 0
 246 0094 014B     		ldr	r3, .L23
 247 0096 D869     		ldr	r0, [r3, #28]
1221:lib/src/stm32f10x_flash.c **** }
 248              		.loc 1 1221 0
 249 0098 8008     		lsrs	r0, r0, #2
 250 009a 7047     		bx	lr
 251              	.L24:
 252              		.align	2
 253              	.L23:
 254 009c 00200240 		.word	1073881088
 255              		.cfi_endproc
 256              	.LFE80:
 257              		.size	FLASH_GetUserOptionByte, .-FLASH_GetUserOptionByte
 258              		.align	1
 259              		.global	FLASH_GetWriteProtectionOptionByte
 260              		.syntax unified
 261              		.thumb
ARM GAS  /tmp/ccLnU1Hk.s 			page 27


 262              		.thumb_func
 263              		.fpu softvfp
 264              		.type	FLASH_GetWriteProtectionOptionByte, %function
 265              	FLASH_GetWriteProtectionOptionByte:
 266              	.LFB81:
1222:lib/src/stm32f10x_flash.c **** 
1223:lib/src/stm32f10x_flash.c **** /**
1224:lib/src/stm32f10x_flash.c ****   * @brief  Returns the FLASH Write Protection Option Bytes Register value.
1225:lib/src/stm32f10x_flash.c ****   * @note   This function can be used for all STM32F10x devices.
1226:lib/src/stm32f10x_flash.c ****   * @param  None
1227:lib/src/stm32f10x_flash.c ****   * @retval The FLASH Write Protection  Option Bytes Register value
1228:lib/src/stm32f10x_flash.c ****   */
1229:lib/src/stm32f10x_flash.c **** uint32_t FLASH_GetWriteProtectionOptionByte(void)
1230:lib/src/stm32f10x_flash.c **** {
 267              		.loc 1 1230 0
 268              		.cfi_startproc
 269              		@ args = 0, pretend = 0, frame = 0
 270              		@ frame_needed = 0, uses_anonymous_args = 0
 271              		@ link register save eliminated.
1231:lib/src/stm32f10x_flash.c ****   /* Return the Flash write protection Register value */
1232:lib/src/stm32f10x_flash.c ****   return (uint32_t)(FLASH->WRPR);
 272              		.loc 1 1232 0
 273 00a0 014B     		ldr	r3, .L26
 274 00a2 186A     		ldr	r0, [r3, #32]
1233:lib/src/stm32f10x_flash.c **** }
 275              		.loc 1 1233 0
 276 00a4 7047     		bx	lr
 277              	.L27:
 278 00a6 00BF     		.align	2
 279              	.L26:
 280 00a8 00200240 		.word	1073881088
 281              		.cfi_endproc
 282              	.LFE81:
 283              		.size	FLASH_GetWriteProtectionOptionByte, .-FLASH_GetWriteProtectionOptionByte
 284              		.align	1
 285              		.global	FLASH_GetReadOutProtectionStatus
 286              		.syntax unified
 287              		.thumb
 288              		.thumb_func
 289              		.fpu softvfp
 290              		.type	FLASH_GetReadOutProtectionStatus, %function
 291              	FLASH_GetReadOutProtectionStatus:
 292              	.LFB82:
1234:lib/src/stm32f10x_flash.c **** 
1235:lib/src/stm32f10x_flash.c **** /**
1236:lib/src/stm32f10x_flash.c ****   * @brief  Checks whether the FLASH Read Out Protection Status is set or not.
1237:lib/src/stm32f10x_flash.c ****   * @note   This function can be used for all STM32F10x devices.
1238:lib/src/stm32f10x_flash.c ****   * @param  None
1239:lib/src/stm32f10x_flash.c ****   * @retval FLASH ReadOut Protection Status(SET or RESET)
1240:lib/src/stm32f10x_flash.c ****   */
1241:lib/src/stm32f10x_flash.c **** FlagStatus FLASH_GetReadOutProtectionStatus(void)
1242:lib/src/stm32f10x_flash.c **** {
 293              		.loc 1 1242 0
 294              		.cfi_startproc
 295              		@ args = 0, pretend = 0, frame = 0
 296              		@ frame_needed = 0, uses_anonymous_args = 0
 297              		@ link register save eliminated.
ARM GAS  /tmp/ccLnU1Hk.s 			page 28


 298              	.LVL8:
1243:lib/src/stm32f10x_flash.c ****   FlagStatus readoutstatus = RESET;
1244:lib/src/stm32f10x_flash.c ****   if ((FLASH->OBR & RDPRT_Mask) != (uint32_t)RESET)
 299              		.loc 1 1244 0
 300 00ac 024B     		ldr	r3, .L29
 301 00ae D869     		ldr	r0, [r3, #28]
 302              	.LVL9:
1245:lib/src/stm32f10x_flash.c ****   {
1246:lib/src/stm32f10x_flash.c ****     readoutstatus = SET;
1247:lib/src/stm32f10x_flash.c ****   }
1248:lib/src/stm32f10x_flash.c ****   else
1249:lib/src/stm32f10x_flash.c ****   {
1250:lib/src/stm32f10x_flash.c ****     readoutstatus = RESET;
1251:lib/src/stm32f10x_flash.c ****   }
1252:lib/src/stm32f10x_flash.c ****   return readoutstatus;
1253:lib/src/stm32f10x_flash.c **** }
 303              		.loc 1 1253 0
 304 00b0 C0F34000 		ubfx	r0, r0, #1, #1
 305              	.LVL10:
 306 00b4 7047     		bx	lr
 307              	.L30:
 308 00b6 00BF     		.align	2
 309              	.L29:
 310 00b8 00200240 		.word	1073881088
 311              		.cfi_endproc
 312              	.LFE82:
 313              		.size	FLASH_GetReadOutProtectionStatus, .-FLASH_GetReadOutProtectionStatus
 314              		.align	1
 315              		.global	FLASH_GetPrefetchBufferStatus
 316              		.syntax unified
 317              		.thumb
 318              		.thumb_func
 319              		.fpu softvfp
 320              		.type	FLASH_GetPrefetchBufferStatus, %function
 321              	FLASH_GetPrefetchBufferStatus:
 322              	.LFB83:
1254:lib/src/stm32f10x_flash.c **** 
1255:lib/src/stm32f10x_flash.c **** /**
1256:lib/src/stm32f10x_flash.c ****   * @brief  Checks whether the FLASH Prefetch Buffer status is set or not.
1257:lib/src/stm32f10x_flash.c ****   * @note   This function can be used for all STM32F10x devices.
1258:lib/src/stm32f10x_flash.c ****   * @param  None
1259:lib/src/stm32f10x_flash.c ****   * @retval FLASH Prefetch Buffer Status (SET or RESET).
1260:lib/src/stm32f10x_flash.c ****   */
1261:lib/src/stm32f10x_flash.c **** FlagStatus FLASH_GetPrefetchBufferStatus(void)
1262:lib/src/stm32f10x_flash.c **** {
 323              		.loc 1 1262 0
 324              		.cfi_startproc
 325              		@ args = 0, pretend = 0, frame = 0
 326              		@ frame_needed = 0, uses_anonymous_args = 0
 327              		@ link register save eliminated.
 328              	.LVL11:
1263:lib/src/stm32f10x_flash.c ****   FlagStatus bitstatus = RESET;
1264:lib/src/stm32f10x_flash.c ****   
1265:lib/src/stm32f10x_flash.c ****   if ((FLASH->ACR & ACR_PRFTBS_Mask) != (uint32_t)RESET)
 329              		.loc 1 1265 0
 330 00bc 024B     		ldr	r3, .L32
 331 00be 1868     		ldr	r0, [r3]
ARM GAS  /tmp/ccLnU1Hk.s 			page 29


 332              	.LVL12:
1266:lib/src/stm32f10x_flash.c ****   {
1267:lib/src/stm32f10x_flash.c ****     bitstatus = SET;
1268:lib/src/stm32f10x_flash.c ****   }
1269:lib/src/stm32f10x_flash.c ****   else
1270:lib/src/stm32f10x_flash.c ****   {
1271:lib/src/stm32f10x_flash.c ****     bitstatus = RESET;
1272:lib/src/stm32f10x_flash.c ****   }
1273:lib/src/stm32f10x_flash.c ****   /* Return the new state of FLASH Prefetch Buffer Status (SET or RESET) */
1274:lib/src/stm32f10x_flash.c ****   return bitstatus; 
1275:lib/src/stm32f10x_flash.c **** }
 333              		.loc 1 1275 0
 334 00c0 C0F34010 		ubfx	r0, r0, #5, #1
 335              	.LVL13:
 336 00c4 7047     		bx	lr
 337              	.L33:
 338 00c6 00BF     		.align	2
 339              	.L32:
 340 00c8 00200240 		.word	1073881088
 341              		.cfi_endproc
 342              	.LFE83:
 343              		.size	FLASH_GetPrefetchBufferStatus, .-FLASH_GetPrefetchBufferStatus
 344              		.align	1
 345              		.global	FLASH_ITConfig
 346              		.syntax unified
 347              		.thumb
 348              		.thumb_func
 349              		.fpu softvfp
 350              		.type	FLASH_ITConfig, %function
 351              	FLASH_ITConfig:
 352              	.LFB84:
1276:lib/src/stm32f10x_flash.c **** 
1277:lib/src/stm32f10x_flash.c **** /**
1278:lib/src/stm32f10x_flash.c ****   * @brief  Enables or disables the specified FLASH interrupts.
1279:lib/src/stm32f10x_flash.c ****   * @note   This function can be used for all STM32F10x devices.
1280:lib/src/stm32f10x_flash.c ****   *         - For STM32F10X_XL devices, enables or disables the specified FLASH interrupts
1281:lib/src/stm32f10x_flash.c ****               for Bank1 and Bank2.
1282:lib/src/stm32f10x_flash.c ****   *         - For other devices it enables or disables the specified FLASH interrupts for Bank1.
1283:lib/src/stm32f10x_flash.c ****   * @param  FLASH_IT: specifies the FLASH interrupt sources to be enabled or disabled.
1284:lib/src/stm32f10x_flash.c ****   *   This parameter can be any combination of the following values:
1285:lib/src/stm32f10x_flash.c ****   *     @arg FLASH_IT_ERROR: FLASH Error Interrupt
1286:lib/src/stm32f10x_flash.c ****   *     @arg FLASH_IT_EOP: FLASH end of operation Interrupt
1287:lib/src/stm32f10x_flash.c ****   * @param  NewState: new state of the specified Flash interrupts.
1288:lib/src/stm32f10x_flash.c ****   *   This parameter can be: ENABLE or DISABLE.      
1289:lib/src/stm32f10x_flash.c ****   * @retval None 
1290:lib/src/stm32f10x_flash.c ****   */
1291:lib/src/stm32f10x_flash.c **** void FLASH_ITConfig(uint32_t FLASH_IT, FunctionalState NewState)
1292:lib/src/stm32f10x_flash.c **** {
 353              		.loc 1 1292 0
 354              		.cfi_startproc
 355              		@ args = 0, pretend = 0, frame = 0
 356              		@ frame_needed = 0, uses_anonymous_args = 0
 357              		@ link register save eliminated.
 358              	.LVL14:
1293:lib/src/stm32f10x_flash.c **** #ifdef STM32F10X_XL
1294:lib/src/stm32f10x_flash.c ****   /* Check the parameters */
1295:lib/src/stm32f10x_flash.c ****   assert_param(IS_FLASH_IT(FLASH_IT)); 
ARM GAS  /tmp/ccLnU1Hk.s 			page 30


1296:lib/src/stm32f10x_flash.c ****   assert_param(IS_FUNCTIONAL_STATE(NewState));
1297:lib/src/stm32f10x_flash.c **** 
1298:lib/src/stm32f10x_flash.c ****   if((FLASH_IT & 0x80000000) != 0x0)
1299:lib/src/stm32f10x_flash.c ****   {
1300:lib/src/stm32f10x_flash.c ****     if(NewState != DISABLE)
1301:lib/src/stm32f10x_flash.c ****     {
1302:lib/src/stm32f10x_flash.c ****       /* Enable the interrupt sources */
1303:lib/src/stm32f10x_flash.c ****       FLASH->CR2 |= (FLASH_IT & 0x7FFFFFFF);
1304:lib/src/stm32f10x_flash.c ****     }
1305:lib/src/stm32f10x_flash.c ****     else
1306:lib/src/stm32f10x_flash.c ****     {
1307:lib/src/stm32f10x_flash.c ****       /* Disable the interrupt sources */
1308:lib/src/stm32f10x_flash.c ****       FLASH->CR2 &= ~(uint32_t)(FLASH_IT & 0x7FFFFFFF);
1309:lib/src/stm32f10x_flash.c ****     }
1310:lib/src/stm32f10x_flash.c ****   }
1311:lib/src/stm32f10x_flash.c ****   else
1312:lib/src/stm32f10x_flash.c ****   {
1313:lib/src/stm32f10x_flash.c ****     if(NewState != DISABLE)
1314:lib/src/stm32f10x_flash.c ****     {
1315:lib/src/stm32f10x_flash.c ****       /* Enable the interrupt sources */
1316:lib/src/stm32f10x_flash.c ****       FLASH->CR |= FLASH_IT;
1317:lib/src/stm32f10x_flash.c ****     }
1318:lib/src/stm32f10x_flash.c ****     else
1319:lib/src/stm32f10x_flash.c ****     {
1320:lib/src/stm32f10x_flash.c ****       /* Disable the interrupt sources */
1321:lib/src/stm32f10x_flash.c ****       FLASH->CR &= ~(uint32_t)FLASH_IT;
1322:lib/src/stm32f10x_flash.c ****     }
1323:lib/src/stm32f10x_flash.c ****   }
1324:lib/src/stm32f10x_flash.c **** #else
1325:lib/src/stm32f10x_flash.c ****   /* Check the parameters */
1326:lib/src/stm32f10x_flash.c ****   assert_param(IS_FLASH_IT(FLASH_IT)); 
1327:lib/src/stm32f10x_flash.c ****   assert_param(IS_FUNCTIONAL_STATE(NewState));
1328:lib/src/stm32f10x_flash.c **** 
1329:lib/src/stm32f10x_flash.c ****   if(NewState != DISABLE)
 359              		.loc 1 1329 0
 360 00cc 29B9     		cbnz	r1, .L37
1330:lib/src/stm32f10x_flash.c ****   {
1331:lib/src/stm32f10x_flash.c ****     /* Enable the interrupt sources */
1332:lib/src/stm32f10x_flash.c ****     FLASH->CR |= FLASH_IT;
1333:lib/src/stm32f10x_flash.c ****   }
1334:lib/src/stm32f10x_flash.c ****   else
1335:lib/src/stm32f10x_flash.c ****   {
1336:lib/src/stm32f10x_flash.c ****     /* Disable the interrupt sources */
1337:lib/src/stm32f10x_flash.c ****     FLASH->CR &= ~(uint32_t)FLASH_IT;
 361              		.loc 1 1337 0
 362 00ce 054A     		ldr	r2, .L38
 363 00d0 1369     		ldr	r3, [r2, #16]
 364 00d2 23EA0000 		bic	r0, r3, r0
 365              	.LVL15:
 366 00d6 1061     		str	r0, [r2, #16]
 367 00d8 7047     		bx	lr
 368              	.LVL16:
 369              	.L37:
1332:lib/src/stm32f10x_flash.c ****   }
 370              		.loc 1 1332 0
 371 00da 024A     		ldr	r2, .L38
 372 00dc 1369     		ldr	r3, [r2, #16]
ARM GAS  /tmp/ccLnU1Hk.s 			page 31


 373 00de 1843     		orrs	r0, r0, r3
 374              	.LVL17:
 375 00e0 1061     		str	r0, [r2, #16]
 376 00e2 7047     		bx	lr
 377              	.L39:
 378              		.align	2
 379              	.L38:
 380 00e4 00200240 		.word	1073881088
 381              		.cfi_endproc
 382              	.LFE84:
 383              		.size	FLASH_ITConfig, .-FLASH_ITConfig
 384              		.align	1
 385              		.global	FLASH_GetFlagStatus
 386              		.syntax unified
 387              		.thumb
 388              		.thumb_func
 389              		.fpu softvfp
 390              		.type	FLASH_GetFlagStatus, %function
 391              	FLASH_GetFlagStatus:
 392              	.LFB85:
1338:lib/src/stm32f10x_flash.c ****   }
1339:lib/src/stm32f10x_flash.c **** #endif /* STM32F10X_XL */
1340:lib/src/stm32f10x_flash.c **** }
1341:lib/src/stm32f10x_flash.c **** 
1342:lib/src/stm32f10x_flash.c **** /**
1343:lib/src/stm32f10x_flash.c ****   * @brief  Checks whether the specified FLASH flag is set or not.
1344:lib/src/stm32f10x_flash.c ****   * @note   This function can be used for all STM32F10x devices.
1345:lib/src/stm32f10x_flash.c ****   *         - For STM32F10X_XL devices, this function checks whether the specified 
1346:lib/src/stm32f10x_flash.c ****   *           Bank1 or Bank2 flag is set or not.
1347:lib/src/stm32f10x_flash.c ****   *         - For other devices, it checks whether the specified Bank1 flag is 
1348:lib/src/stm32f10x_flash.c ****   *           set or not.
1349:lib/src/stm32f10x_flash.c ****   * @param  FLASH_FLAG: specifies the FLASH flag to check.
1350:lib/src/stm32f10x_flash.c ****   *   This parameter can be one of the following values:
1351:lib/src/stm32f10x_flash.c ****   *     @arg FLASH_FLAG_BSY: FLASH Busy flag           
1352:lib/src/stm32f10x_flash.c ****   *     @arg FLASH_FLAG_PGERR: FLASH Program error flag       
1353:lib/src/stm32f10x_flash.c ****   *     @arg FLASH_FLAG_WRPRTERR: FLASH Write protected error flag      
1354:lib/src/stm32f10x_flash.c ****   *     @arg FLASH_FLAG_EOP: FLASH End of Operation flag           
1355:lib/src/stm32f10x_flash.c ****   *     @arg FLASH_FLAG_OPTERR:  FLASH Option Byte error flag     
1356:lib/src/stm32f10x_flash.c ****   * @retval The new state of FLASH_FLAG (SET or RESET).
1357:lib/src/stm32f10x_flash.c ****   */
1358:lib/src/stm32f10x_flash.c **** FlagStatus FLASH_GetFlagStatus(uint32_t FLASH_FLAG)
1359:lib/src/stm32f10x_flash.c **** {
 393              		.loc 1 1359 0
 394              		.cfi_startproc
 395              		@ args = 0, pretend = 0, frame = 0
 396              		@ frame_needed = 0, uses_anonymous_args = 0
 397              		@ link register save eliminated.
 398              	.LVL18:
1360:lib/src/stm32f10x_flash.c ****   FlagStatus bitstatus = RESET;
1361:lib/src/stm32f10x_flash.c **** 
1362:lib/src/stm32f10x_flash.c **** #ifdef STM32F10X_XL
1363:lib/src/stm32f10x_flash.c ****   /* Check the parameters */
1364:lib/src/stm32f10x_flash.c ****   assert_param(IS_FLASH_GET_FLAG(FLASH_FLAG)) ;
1365:lib/src/stm32f10x_flash.c ****   if(FLASH_FLAG == FLASH_FLAG_OPTERR) 
1366:lib/src/stm32f10x_flash.c ****   {
1367:lib/src/stm32f10x_flash.c ****     if((FLASH->OBR & FLASH_FLAG_OPTERR) != (uint32_t)RESET)
1368:lib/src/stm32f10x_flash.c ****     {
ARM GAS  /tmp/ccLnU1Hk.s 			page 32


1369:lib/src/stm32f10x_flash.c ****       bitstatus = SET;
1370:lib/src/stm32f10x_flash.c ****     }
1371:lib/src/stm32f10x_flash.c ****     else
1372:lib/src/stm32f10x_flash.c ****     {
1373:lib/src/stm32f10x_flash.c ****       bitstatus = RESET;
1374:lib/src/stm32f10x_flash.c ****     }
1375:lib/src/stm32f10x_flash.c ****   }
1376:lib/src/stm32f10x_flash.c ****   else
1377:lib/src/stm32f10x_flash.c ****   {
1378:lib/src/stm32f10x_flash.c ****     if((FLASH_FLAG & 0x80000000) != 0x0)
1379:lib/src/stm32f10x_flash.c ****     {
1380:lib/src/stm32f10x_flash.c ****       if((FLASH->SR2 & FLASH_FLAG) != (uint32_t)RESET)
1381:lib/src/stm32f10x_flash.c ****       {
1382:lib/src/stm32f10x_flash.c ****         bitstatus = SET;
1383:lib/src/stm32f10x_flash.c ****       }
1384:lib/src/stm32f10x_flash.c ****       else
1385:lib/src/stm32f10x_flash.c ****       {
1386:lib/src/stm32f10x_flash.c ****         bitstatus = RESET;
1387:lib/src/stm32f10x_flash.c ****       }
1388:lib/src/stm32f10x_flash.c ****     }
1389:lib/src/stm32f10x_flash.c ****     else
1390:lib/src/stm32f10x_flash.c ****     {
1391:lib/src/stm32f10x_flash.c ****       if((FLASH->SR & FLASH_FLAG) != (uint32_t)RESET)
1392:lib/src/stm32f10x_flash.c ****       {
1393:lib/src/stm32f10x_flash.c ****         bitstatus = SET;
1394:lib/src/stm32f10x_flash.c ****       }
1395:lib/src/stm32f10x_flash.c ****       else
1396:lib/src/stm32f10x_flash.c ****       {
1397:lib/src/stm32f10x_flash.c ****         bitstatus = RESET;
1398:lib/src/stm32f10x_flash.c ****       }
1399:lib/src/stm32f10x_flash.c ****     }
1400:lib/src/stm32f10x_flash.c ****   }
1401:lib/src/stm32f10x_flash.c **** #else
1402:lib/src/stm32f10x_flash.c ****   /* Check the parameters */
1403:lib/src/stm32f10x_flash.c ****   assert_param(IS_FLASH_GET_FLAG(FLASH_FLAG)) ;
1404:lib/src/stm32f10x_flash.c ****   if(FLASH_FLAG == FLASH_FLAG_OPTERR) 
 399              		.loc 1 1404 0
 400 00e8 0128     		cmp	r0, #1
 401 00ea 06D0     		beq	.L43
1405:lib/src/stm32f10x_flash.c ****   {
1406:lib/src/stm32f10x_flash.c ****     if((FLASH->OBR & FLASH_FLAG_OPTERR) != (uint32_t)RESET)
1407:lib/src/stm32f10x_flash.c ****     {
1408:lib/src/stm32f10x_flash.c ****       bitstatus = SET;
1409:lib/src/stm32f10x_flash.c ****     }
1410:lib/src/stm32f10x_flash.c ****     else
1411:lib/src/stm32f10x_flash.c ****     {
1412:lib/src/stm32f10x_flash.c ****       bitstatus = RESET;
1413:lib/src/stm32f10x_flash.c ****     }
1414:lib/src/stm32f10x_flash.c ****   }
1415:lib/src/stm32f10x_flash.c ****   else
1416:lib/src/stm32f10x_flash.c ****   {
1417:lib/src/stm32f10x_flash.c ****    if((FLASH->SR & FLASH_FLAG) != (uint32_t)RESET)
 402              		.loc 1 1417 0
 403 00ec 054B     		ldr	r3, .L44
 404 00ee DB68     		ldr	r3, [r3, #12]
 405 00f0 1842     		tst	r0, r3
1412:lib/src/stm32f10x_flash.c ****     }
ARM GAS  /tmp/ccLnU1Hk.s 			page 33


 406              		.loc 1 1412 0
 407 00f2 14BF     		ite	ne
 408 00f4 0120     		movne	r0, #1
 409              	.LVL19:
 410 00f6 0020     		moveq	r0, #0
 411              	.LVL20:
1418:lib/src/stm32f10x_flash.c ****     {
1419:lib/src/stm32f10x_flash.c ****       bitstatus = SET;
1420:lib/src/stm32f10x_flash.c ****     }
1421:lib/src/stm32f10x_flash.c ****     else
1422:lib/src/stm32f10x_flash.c ****     {
1423:lib/src/stm32f10x_flash.c ****       bitstatus = RESET;
1424:lib/src/stm32f10x_flash.c ****     }
1425:lib/src/stm32f10x_flash.c ****   }
1426:lib/src/stm32f10x_flash.c **** #endif /* STM32F10X_XL */
1427:lib/src/stm32f10x_flash.c **** 
1428:lib/src/stm32f10x_flash.c ****   /* Return the new state of FLASH_FLAG (SET or RESET) */
1429:lib/src/stm32f10x_flash.c ****   return bitstatus;
1430:lib/src/stm32f10x_flash.c **** }
 412              		.loc 1 1430 0
 413 00f8 7047     		bx	lr
 414              	.LVL21:
 415              	.L43:
1406:lib/src/stm32f10x_flash.c ****     {
 416              		.loc 1 1406 0
 417 00fa 024B     		ldr	r3, .L44
 418 00fc D869     		ldr	r0, [r3, #28]
 419              	.LVL22:
1412:lib/src/stm32f10x_flash.c ****     }
 420              		.loc 1 1412 0
 421 00fe 00F00100 		and	r0, r0, #1
 422 0102 7047     		bx	lr
 423              	.L45:
 424              		.align	2
 425              	.L44:
 426 0104 00200240 		.word	1073881088
 427              		.cfi_endproc
 428              	.LFE85:
 429              		.size	FLASH_GetFlagStatus, .-FLASH_GetFlagStatus
 430              		.align	1
 431              		.global	FLASH_ClearFlag
 432              		.syntax unified
 433              		.thumb
 434              		.thumb_func
 435              		.fpu softvfp
 436              		.type	FLASH_ClearFlag, %function
 437              	FLASH_ClearFlag:
 438              	.LFB86:
1431:lib/src/stm32f10x_flash.c **** 
1432:lib/src/stm32f10x_flash.c **** /**
1433:lib/src/stm32f10x_flash.c ****   * @brief  Clears the FLASH's pending flags.
1434:lib/src/stm32f10x_flash.c ****   * @note   This function can be used for all STM32F10x devices.
1435:lib/src/stm32f10x_flash.c ****   *         - For STM32F10X_XL devices, this function clears Bank1 or Bank2s pending flags
1436:lib/src/stm32f10x_flash.c ****   *         - For other devices, it clears Bank1s pending flags.
1437:lib/src/stm32f10x_flash.c ****   * @param  FLASH_FLAG: specifies the FLASH flags to clear.
1438:lib/src/stm32f10x_flash.c ****   *   This parameter can be any combination of the following values:         
1439:lib/src/stm32f10x_flash.c ****   *     @arg FLASH_FLAG_PGERR: FLASH Program error flag       
ARM GAS  /tmp/ccLnU1Hk.s 			page 34


1440:lib/src/stm32f10x_flash.c ****   *     @arg FLASH_FLAG_WRPRTERR: FLASH Write protected error flag      
1441:lib/src/stm32f10x_flash.c ****   *     @arg FLASH_FLAG_EOP: FLASH End of Operation flag           
1442:lib/src/stm32f10x_flash.c ****   * @retval None
1443:lib/src/stm32f10x_flash.c ****   */
1444:lib/src/stm32f10x_flash.c **** void FLASH_ClearFlag(uint32_t FLASH_FLAG)
1445:lib/src/stm32f10x_flash.c **** {
 439              		.loc 1 1445 0
 440              		.cfi_startproc
 441              		@ args = 0, pretend = 0, frame = 0
 442              		@ frame_needed = 0, uses_anonymous_args = 0
 443              		@ link register save eliminated.
 444              	.LVL23:
1446:lib/src/stm32f10x_flash.c **** #ifdef STM32F10X_XL
1447:lib/src/stm32f10x_flash.c ****   /* Check the parameters */
1448:lib/src/stm32f10x_flash.c ****   assert_param(IS_FLASH_CLEAR_FLAG(FLASH_FLAG)) ;
1449:lib/src/stm32f10x_flash.c **** 
1450:lib/src/stm32f10x_flash.c ****   if((FLASH_FLAG & 0x80000000) != 0x0)
1451:lib/src/stm32f10x_flash.c ****   {
1452:lib/src/stm32f10x_flash.c ****     /* Clear the flags */
1453:lib/src/stm32f10x_flash.c ****     FLASH->SR2 = FLASH_FLAG;
1454:lib/src/stm32f10x_flash.c ****   }
1455:lib/src/stm32f10x_flash.c ****   else
1456:lib/src/stm32f10x_flash.c ****   {
1457:lib/src/stm32f10x_flash.c ****     /* Clear the flags */
1458:lib/src/stm32f10x_flash.c ****     FLASH->SR = FLASH_FLAG;
1459:lib/src/stm32f10x_flash.c ****   }  
1460:lib/src/stm32f10x_flash.c **** 
1461:lib/src/stm32f10x_flash.c **** #else
1462:lib/src/stm32f10x_flash.c ****   /* Check the parameters */
1463:lib/src/stm32f10x_flash.c ****   assert_param(IS_FLASH_CLEAR_FLAG(FLASH_FLAG)) ;
1464:lib/src/stm32f10x_flash.c ****   
1465:lib/src/stm32f10x_flash.c ****   /* Clear the flags */
1466:lib/src/stm32f10x_flash.c ****   FLASH->SR = FLASH_FLAG;
 445              		.loc 1 1466 0
 446 0108 014B     		ldr	r3, .L47
 447 010a D860     		str	r0, [r3, #12]
 448 010c 7047     		bx	lr
 449              	.L48:
 450 010e 00BF     		.align	2
 451              	.L47:
 452 0110 00200240 		.word	1073881088
 453              		.cfi_endproc
 454              	.LFE86:
 455              		.size	FLASH_ClearFlag, .-FLASH_ClearFlag
 456              		.align	1
 457              		.global	FLASH_GetStatus
 458              		.syntax unified
 459              		.thumb
 460              		.thumb_func
 461              		.fpu softvfp
 462              		.type	FLASH_GetStatus, %function
 463              	FLASH_GetStatus:
 464              	.LFB87:
1467:lib/src/stm32f10x_flash.c **** #endif /* STM32F10X_XL */
1468:lib/src/stm32f10x_flash.c **** }
1469:lib/src/stm32f10x_flash.c **** 
1470:lib/src/stm32f10x_flash.c **** /**
ARM GAS  /tmp/ccLnU1Hk.s 			page 35


1471:lib/src/stm32f10x_flash.c ****   * @brief  Returns the FLASH Status.
1472:lib/src/stm32f10x_flash.c ****   * @note   This function can be used for all STM32F10x devices, it is equivalent
1473:lib/src/stm32f10x_flash.c ****   *         to FLASH_GetBank1Status function.
1474:lib/src/stm32f10x_flash.c ****   * @param  None
1475:lib/src/stm32f10x_flash.c ****   * @retval FLASH Status: The returned value can be: FLASH_BUSY, FLASH_ERROR_PG,
1476:lib/src/stm32f10x_flash.c ****   *         FLASH_ERROR_WRP or FLASH_COMPLETE
1477:lib/src/stm32f10x_flash.c ****   */
1478:lib/src/stm32f10x_flash.c **** FLASH_Status FLASH_GetStatus(void)
1479:lib/src/stm32f10x_flash.c **** {
 465              		.loc 1 1479 0
 466              		.cfi_startproc
 467              		@ args = 0, pretend = 0, frame = 0
 468              		@ frame_needed = 0, uses_anonymous_args = 0
 469              		@ link register save eliminated.
 470              	.LVL24:
1480:lib/src/stm32f10x_flash.c ****   FLASH_Status flashstatus = FLASH_COMPLETE;
1481:lib/src/stm32f10x_flash.c ****   
1482:lib/src/stm32f10x_flash.c ****   if((FLASH->SR & FLASH_FLAG_BSY) == FLASH_FLAG_BSY) 
 471              		.loc 1 1482 0
 472 0114 0B4B     		ldr	r3, .L55
 473 0116 DB68     		ldr	r3, [r3, #12]
 474 0118 13F0010F 		tst	r3, #1
 475 011c 0FD1     		bne	.L51
1483:lib/src/stm32f10x_flash.c ****   {
1484:lib/src/stm32f10x_flash.c ****     flashstatus = FLASH_BUSY;
1485:lib/src/stm32f10x_flash.c ****   }
1486:lib/src/stm32f10x_flash.c ****   else 
1487:lib/src/stm32f10x_flash.c ****   {  
1488:lib/src/stm32f10x_flash.c ****     if((FLASH->SR & FLASH_FLAG_PGERR) != 0)
 476              		.loc 1 1488 0
 477 011e 094B     		ldr	r3, .L55
 478 0120 DB68     		ldr	r3, [r3, #12]
 479 0122 13F0040F 		tst	r3, #4
 480 0126 01D0     		beq	.L54
1489:lib/src/stm32f10x_flash.c ****     { 
1490:lib/src/stm32f10x_flash.c ****       flashstatus = FLASH_ERROR_PG;
 481              		.loc 1 1490 0
 482 0128 0220     		movs	r0, #2
 483              	.LVL25:
1491:lib/src/stm32f10x_flash.c ****     }
1492:lib/src/stm32f10x_flash.c ****     else 
1493:lib/src/stm32f10x_flash.c ****     {
1494:lib/src/stm32f10x_flash.c ****       if((FLASH->SR & FLASH_FLAG_WRPRTERR) != 0 )
1495:lib/src/stm32f10x_flash.c ****       {
1496:lib/src/stm32f10x_flash.c ****         flashstatus = FLASH_ERROR_WRP;
1497:lib/src/stm32f10x_flash.c ****       }
1498:lib/src/stm32f10x_flash.c ****       else
1499:lib/src/stm32f10x_flash.c ****       {
1500:lib/src/stm32f10x_flash.c ****         flashstatus = FLASH_COMPLETE;
1501:lib/src/stm32f10x_flash.c ****       }
1502:lib/src/stm32f10x_flash.c ****     }
1503:lib/src/stm32f10x_flash.c ****   }
1504:lib/src/stm32f10x_flash.c ****   /* Return the Flash Status */
1505:lib/src/stm32f10x_flash.c ****   return flashstatus;
1506:lib/src/stm32f10x_flash.c **** }
 484              		.loc 1 1506 0
 485 012a 7047     		bx	lr
ARM GAS  /tmp/ccLnU1Hk.s 			page 36


 486              	.LVL26:
 487              	.L54:
1494:lib/src/stm32f10x_flash.c ****       {
 488              		.loc 1 1494 0
 489 012c 054B     		ldr	r3, .L55
 490 012e DB68     		ldr	r3, [r3, #12]
 491 0130 03F01003 		and	r3, r3, #16
1500:lib/src/stm32f10x_flash.c ****       }
 492              		.loc 1 1500 0
 493 0134 002B     		cmp	r3, #0
 494 0136 14BF     		ite	ne
 495 0138 0320     		movne	r0, #3
 496 013a 0420     		moveq	r0, #4
 497 013c 7047     		bx	lr
 498              	.L51:
1484:lib/src/stm32f10x_flash.c ****   }
 499              		.loc 1 1484 0
 500 013e 0120     		movs	r0, #1
 501 0140 7047     		bx	lr
 502              	.L56:
 503 0142 00BF     		.align	2
 504              	.L55:
 505 0144 00200240 		.word	1073881088
 506              		.cfi_endproc
 507              	.LFE87:
 508              		.size	FLASH_GetStatus, .-FLASH_GetStatus
 509              		.align	1
 510              		.global	FLASH_GetBank1Status
 511              		.syntax unified
 512              		.thumb
 513              		.thumb_func
 514              		.fpu softvfp
 515              		.type	FLASH_GetBank1Status, %function
 516              	FLASH_GetBank1Status:
 517              	.LFB88:
1507:lib/src/stm32f10x_flash.c **** 
1508:lib/src/stm32f10x_flash.c **** /**
1509:lib/src/stm32f10x_flash.c ****   * @brief  Returns the FLASH Bank1 Status.
1510:lib/src/stm32f10x_flash.c ****   * @note   This function can be used for all STM32F10x devices, it is equivalent
1511:lib/src/stm32f10x_flash.c ****   *         to FLASH_GetStatus function.
1512:lib/src/stm32f10x_flash.c ****   * @param  None
1513:lib/src/stm32f10x_flash.c ****   * @retval FLASH Status: The returned value can be: FLASH_BUSY, FLASH_ERROR_PG,
1514:lib/src/stm32f10x_flash.c ****   *         FLASH_ERROR_WRP or FLASH_COMPLETE
1515:lib/src/stm32f10x_flash.c ****   */
1516:lib/src/stm32f10x_flash.c **** FLASH_Status FLASH_GetBank1Status(void)
1517:lib/src/stm32f10x_flash.c **** {
 518              		.loc 1 1517 0
 519              		.cfi_startproc
 520              		@ args = 0, pretend = 0, frame = 0
 521              		@ frame_needed = 0, uses_anonymous_args = 0
 522              		@ link register save eliminated.
 523              	.LVL27:
1518:lib/src/stm32f10x_flash.c ****   FLASH_Status flashstatus = FLASH_COMPLETE;
1519:lib/src/stm32f10x_flash.c ****   
1520:lib/src/stm32f10x_flash.c ****   if((FLASH->SR & FLASH_FLAG_BANK1_BSY) == FLASH_FLAG_BSY) 
 524              		.loc 1 1520 0
 525 0148 0B4B     		ldr	r3, .L63
ARM GAS  /tmp/ccLnU1Hk.s 			page 37


 526 014a DB68     		ldr	r3, [r3, #12]
 527 014c 13F0010F 		tst	r3, #1
 528 0150 0FD1     		bne	.L59
1521:lib/src/stm32f10x_flash.c ****   {
1522:lib/src/stm32f10x_flash.c ****     flashstatus = FLASH_BUSY;
1523:lib/src/stm32f10x_flash.c ****   }
1524:lib/src/stm32f10x_flash.c ****   else 
1525:lib/src/stm32f10x_flash.c ****   {  
1526:lib/src/stm32f10x_flash.c ****     if((FLASH->SR & FLASH_FLAG_BANK1_PGERR) != 0)
 529              		.loc 1 1526 0
 530 0152 094B     		ldr	r3, .L63
 531 0154 DB68     		ldr	r3, [r3, #12]
 532 0156 13F0040F 		tst	r3, #4
 533 015a 01D0     		beq	.L62
1527:lib/src/stm32f10x_flash.c ****     { 
1528:lib/src/stm32f10x_flash.c ****       flashstatus = FLASH_ERROR_PG;
 534              		.loc 1 1528 0
 535 015c 0220     		movs	r0, #2
 536              	.LVL28:
1529:lib/src/stm32f10x_flash.c ****     }
1530:lib/src/stm32f10x_flash.c ****     else 
1531:lib/src/stm32f10x_flash.c ****     {
1532:lib/src/stm32f10x_flash.c ****       if((FLASH->SR & FLASH_FLAG_BANK1_WRPRTERR) != 0 )
1533:lib/src/stm32f10x_flash.c ****       {
1534:lib/src/stm32f10x_flash.c ****         flashstatus = FLASH_ERROR_WRP;
1535:lib/src/stm32f10x_flash.c ****       }
1536:lib/src/stm32f10x_flash.c ****       else
1537:lib/src/stm32f10x_flash.c ****       {
1538:lib/src/stm32f10x_flash.c ****         flashstatus = FLASH_COMPLETE;
1539:lib/src/stm32f10x_flash.c ****       }
1540:lib/src/stm32f10x_flash.c ****     }
1541:lib/src/stm32f10x_flash.c ****   }
1542:lib/src/stm32f10x_flash.c ****   /* Return the Flash Status */
1543:lib/src/stm32f10x_flash.c ****   return flashstatus;
1544:lib/src/stm32f10x_flash.c **** }
 537              		.loc 1 1544 0
 538 015e 7047     		bx	lr
 539              	.LVL29:
 540              	.L62:
1532:lib/src/stm32f10x_flash.c ****       {
 541              		.loc 1 1532 0
 542 0160 054B     		ldr	r3, .L63
 543 0162 DB68     		ldr	r3, [r3, #12]
 544 0164 03F01003 		and	r3, r3, #16
1538:lib/src/stm32f10x_flash.c ****       }
 545              		.loc 1 1538 0
 546 0168 002B     		cmp	r3, #0
 547 016a 14BF     		ite	ne
 548 016c 0320     		movne	r0, #3
 549 016e 0420     		moveq	r0, #4
 550 0170 7047     		bx	lr
 551              	.L59:
1522:lib/src/stm32f10x_flash.c ****   }
 552              		.loc 1 1522 0
 553 0172 0120     		movs	r0, #1
 554 0174 7047     		bx	lr
 555              	.L64:
ARM GAS  /tmp/ccLnU1Hk.s 			page 38


 556 0176 00BF     		.align	2
 557              	.L63:
 558 0178 00200240 		.word	1073881088
 559              		.cfi_endproc
 560              	.LFE88:
 561              		.size	FLASH_GetBank1Status, .-FLASH_GetBank1Status
 562              		.align	1
 563              		.global	FLASH_WaitForLastOperation
 564              		.syntax unified
 565              		.thumb
 566              		.thumb_func
 567              		.fpu softvfp
 568              		.type	FLASH_WaitForLastOperation, %function
 569              	FLASH_WaitForLastOperation:
 570              	.LFB89:
1545:lib/src/stm32f10x_flash.c **** 
1546:lib/src/stm32f10x_flash.c **** #ifdef STM32F10X_XL
1547:lib/src/stm32f10x_flash.c **** /**
1548:lib/src/stm32f10x_flash.c ****   * @brief  Returns the FLASH Bank2 Status.
1549:lib/src/stm32f10x_flash.c ****   * @note   This function can be used for STM32F10x_XL density devices.
1550:lib/src/stm32f10x_flash.c ****   * @param  None
1551:lib/src/stm32f10x_flash.c ****   * @retval FLASH Status: The returned value can be: FLASH_BUSY, FLASH_ERROR_PG,
1552:lib/src/stm32f10x_flash.c ****   *        FLASH_ERROR_WRP or FLASH_COMPLETE
1553:lib/src/stm32f10x_flash.c ****   */
1554:lib/src/stm32f10x_flash.c **** FLASH_Status FLASH_GetBank2Status(void)
1555:lib/src/stm32f10x_flash.c **** {
1556:lib/src/stm32f10x_flash.c ****   FLASH_Status flashstatus = FLASH_COMPLETE;
1557:lib/src/stm32f10x_flash.c ****   
1558:lib/src/stm32f10x_flash.c ****   if((FLASH->SR2 & (FLASH_FLAG_BANK2_BSY & 0x7FFFFFFF)) == (FLASH_FLAG_BANK2_BSY & 0x7FFFFFFF)) 
1559:lib/src/stm32f10x_flash.c ****   {
1560:lib/src/stm32f10x_flash.c ****     flashstatus = FLASH_BUSY;
1561:lib/src/stm32f10x_flash.c ****   }
1562:lib/src/stm32f10x_flash.c ****   else 
1563:lib/src/stm32f10x_flash.c ****   {  
1564:lib/src/stm32f10x_flash.c ****     if((FLASH->SR2 & (FLASH_FLAG_BANK2_PGERR & 0x7FFFFFFF)) != 0)
1565:lib/src/stm32f10x_flash.c ****     { 
1566:lib/src/stm32f10x_flash.c ****       flashstatus = FLASH_ERROR_PG;
1567:lib/src/stm32f10x_flash.c ****     }
1568:lib/src/stm32f10x_flash.c ****     else 
1569:lib/src/stm32f10x_flash.c ****     {
1570:lib/src/stm32f10x_flash.c ****       if((FLASH->SR2 & (FLASH_FLAG_BANK2_WRPRTERR & 0x7FFFFFFF)) != 0 )
1571:lib/src/stm32f10x_flash.c ****       {
1572:lib/src/stm32f10x_flash.c ****         flashstatus = FLASH_ERROR_WRP;
1573:lib/src/stm32f10x_flash.c ****       }
1574:lib/src/stm32f10x_flash.c ****       else
1575:lib/src/stm32f10x_flash.c ****       {
1576:lib/src/stm32f10x_flash.c ****         flashstatus = FLASH_COMPLETE;
1577:lib/src/stm32f10x_flash.c ****       }
1578:lib/src/stm32f10x_flash.c ****     }
1579:lib/src/stm32f10x_flash.c ****   }
1580:lib/src/stm32f10x_flash.c ****   /* Return the Flash Status */
1581:lib/src/stm32f10x_flash.c ****   return flashstatus;
1582:lib/src/stm32f10x_flash.c **** }
1583:lib/src/stm32f10x_flash.c **** #endif /* STM32F10X_XL */
1584:lib/src/stm32f10x_flash.c **** /**
1585:lib/src/stm32f10x_flash.c ****   * @brief  Waits for a Flash operation to complete or a TIMEOUT to occur.
1586:lib/src/stm32f10x_flash.c ****   * @note   This function can be used for all STM32F10x devices, 
ARM GAS  /tmp/ccLnU1Hk.s 			page 39


1587:lib/src/stm32f10x_flash.c ****   *         it is equivalent to FLASH_WaitForLastBank1Operation.
1588:lib/src/stm32f10x_flash.c ****   *         - For STM32F10X_XL devices this function waits for a Bank1 Flash operation
1589:lib/src/stm32f10x_flash.c ****   *           to complete or a TIMEOUT to occur.
1590:lib/src/stm32f10x_flash.c ****   *         - For all other devices it waits for a Flash operation to complete 
1591:lib/src/stm32f10x_flash.c ****   *           or a TIMEOUT to occur.
1592:lib/src/stm32f10x_flash.c ****   * @param  Timeout: FLASH programming Timeout
1593:lib/src/stm32f10x_flash.c ****   * @retval FLASH Status: The returned value can be: FLASH_ERROR_PG,
1594:lib/src/stm32f10x_flash.c ****   *         FLASH_ERROR_WRP, FLASH_COMPLETE or FLASH_TIMEOUT.
1595:lib/src/stm32f10x_flash.c ****   */
1596:lib/src/stm32f10x_flash.c **** FLASH_Status FLASH_WaitForLastOperation(uint32_t Timeout)
1597:lib/src/stm32f10x_flash.c **** { 
 571              		.loc 1 1597 0
 572              		.cfi_startproc
 573              		@ args = 0, pretend = 0, frame = 0
 574              		@ frame_needed = 0, uses_anonymous_args = 0
 575              	.LVL30:
 576 017c 10B5     		push	{r4, lr}
 577              		.cfi_def_cfa_offset 8
 578              		.cfi_offset 4, -8
 579              		.cfi_offset 14, -4
 580 017e 0446     		mov	r4, r0
 581              	.LVL31:
1598:lib/src/stm32f10x_flash.c ****   FLASH_Status status = FLASH_COMPLETE;
1599:lib/src/stm32f10x_flash.c ****    
1600:lib/src/stm32f10x_flash.c ****   /* Check for the Flash Status */
1601:lib/src/stm32f10x_flash.c ****   status = FLASH_GetBank1Status();
 582              		.loc 1 1601 0
 583 0180 FFF7FEFF 		bl	FLASH_GetBank1Status
 584              	.LVL32:
1602:lib/src/stm32f10x_flash.c ****   /* Wait for a Flash operation to complete or a TIMEOUT to occur */
1603:lib/src/stm32f10x_flash.c ****   while((status == FLASH_BUSY) && (Timeout != 0x00))
 585              		.loc 1 1603 0
 586 0184 0128     		cmp	r0, #1
 587 0186 09D1     		bne	.L66
 588 0188 34B1     		cbz	r4, .L67
 589              	.L71:
 590              	.LVL33:
1604:lib/src/stm32f10x_flash.c ****   {
1605:lib/src/stm32f10x_flash.c ****     status = FLASH_GetBank1Status();
 591              		.loc 1 1605 0
 592 018a FFF7FEFF 		bl	FLASH_GetBank1Status
 593              	.LVL34:
1606:lib/src/stm32f10x_flash.c ****     Timeout--;
 594              		.loc 1 1606 0
 595 018e 013C     		subs	r4, r4, #1
 596              	.LVL35:
1603:lib/src/stm32f10x_flash.c ****   {
 597              		.loc 1 1603 0
 598 0190 0128     		cmp	r0, #1
 599 0192 03D1     		bne	.L66
1603:lib/src/stm32f10x_flash.c ****   {
 600              		.loc 1 1603 0 is_stmt 0 discriminator 1
 601 0194 002C     		cmp	r4, #0
 602 0196 F8D1     		bne	.L71
 603              	.L67:
1607:lib/src/stm32f10x_flash.c ****   }
1608:lib/src/stm32f10x_flash.c ****   if(Timeout == 0x00 )
ARM GAS  /tmp/ccLnU1Hk.s 			page 40


1609:lib/src/stm32f10x_flash.c ****   {
1610:lib/src/stm32f10x_flash.c ****     status = FLASH_TIMEOUT;
 604              		.loc 1 1610 0 is_stmt 1
 605 0198 0520     		movs	r0, #5
 606              	.LVL36:
1611:lib/src/stm32f10x_flash.c ****   }
1612:lib/src/stm32f10x_flash.c ****   /* Return the operation status */
1613:lib/src/stm32f10x_flash.c ****   return status;
1614:lib/src/stm32f10x_flash.c **** }
 607              		.loc 1 1614 0
 608 019a 10BD     		pop	{r4, pc}
 609              	.LVL37:
 610              	.L66:
1610:lib/src/stm32f10x_flash.c ****   }
 611              		.loc 1 1610 0
 612 019c 002C     		cmp	r4, #0
 613 019e 08BF     		it	eq
 614 01a0 0520     		moveq	r0, #5
 615              	.LVL38:
 616 01a2 10BD     		pop	{r4, pc}
 617              		.cfi_endproc
 618              	.LFE89:
 619              		.size	FLASH_WaitForLastOperation, .-FLASH_WaitForLastOperation
 620              		.align	1
 621              		.global	FLASH_ErasePage
 622              		.syntax unified
 623              		.thumb
 624              		.thumb_func
 625              		.fpu softvfp
 626              		.type	FLASH_ErasePage, %function
 627              	FLASH_ErasePage:
 628              	.LFB70:
 421:lib/src/stm32f10x_flash.c ****   FLASH_Status status = FLASH_COMPLETE;
 629              		.loc 1 421 0
 630              		.cfi_startproc
 631              		@ args = 0, pretend = 0, frame = 0
 632              		@ frame_needed = 0, uses_anonymous_args = 0
 633              	.LVL39:
 634 01a4 38B5     		push	{r3, r4, r5, lr}
 635              		.cfi_def_cfa_offset 16
 636              		.cfi_offset 3, -16
 637              		.cfi_offset 4, -12
 638              		.cfi_offset 5, -8
 639              		.cfi_offset 14, -4
 640 01a6 0546     		mov	r5, r0
 641              	.LVL40:
 465:lib/src/stm32f10x_flash.c ****   
 642              		.loc 1 465 0
 643 01a8 4FF43020 		mov	r0, #720896
 644              	.LVL41:
 645 01ac FFF7FEFF 		bl	FLASH_WaitForLastOperation
 646              	.LVL42:
 467:lib/src/stm32f10x_flash.c ****   { 
 647              		.loc 1 467 0
 648 01b0 0428     		cmp	r0, #4
 649 01b2 00D0     		beq	.L77
 650              	.L75:
ARM GAS  /tmp/ccLnU1Hk.s 			page 41


 484:lib/src/stm32f10x_flash.c **** 
 651              		.loc 1 484 0
 652 01b4 38BD     		pop	{r3, r4, r5, pc}
 653              	.LVL43:
 654              	.L77:
 470:lib/src/stm32f10x_flash.c ****     FLASH->AR = Page_Address; 
 655              		.loc 1 470 0
 656 01b6 0A4C     		ldr	r4, .L78
 657 01b8 2369     		ldr	r3, [r4, #16]
 658 01ba 43F00203 		orr	r3, r3, #2
 659 01be 2361     		str	r3, [r4, #16]
 471:lib/src/stm32f10x_flash.c ****     FLASH->CR|= CR_STRT_Set;
 660              		.loc 1 471 0
 661 01c0 6561     		str	r5, [r4, #20]
 472:lib/src/stm32f10x_flash.c ****     
 662              		.loc 1 472 0
 663 01c2 2369     		ldr	r3, [r4, #16]
 664 01c4 43F04003 		orr	r3, r3, #64
 665 01c8 2361     		str	r3, [r4, #16]
 475:lib/src/stm32f10x_flash.c ****     
 666              		.loc 1 475 0
 667 01ca 4FF43020 		mov	r0, #720896
 668              	.LVL44:
 669 01ce FFF7FEFF 		bl	FLASH_WaitForLastOperation
 670              	.LVL45:
 478:lib/src/stm32f10x_flash.c ****   }
 671              		.loc 1 478 0
 672 01d2 2369     		ldr	r3, [r4, #16]
 673 01d4 23F00203 		bic	r3, r3, #2
 674 01d8 DB04     		lsls	r3, r3, #19
 675 01da DB0C     		lsrs	r3, r3, #19
 676 01dc 2361     		str	r3, [r4, #16]
 677 01de E9E7     		b	.L75
 678              	.L79:
 679              		.align	2
 680              	.L78:
 681 01e0 00200240 		.word	1073881088
 682              		.cfi_endproc
 683              	.LFE70:
 684              		.size	FLASH_ErasePage, .-FLASH_ErasePage
 685              		.align	1
 686              		.global	FLASH_EraseAllPages
 687              		.syntax unified
 688              		.thumb
 689              		.thumb_func
 690              		.fpu softvfp
 691              		.type	FLASH_EraseAllPages, %function
 692              	FLASH_EraseAllPages:
 693              	.LFB71:
 494:lib/src/stm32f10x_flash.c ****   FLASH_Status status = FLASH_COMPLETE;
 694              		.loc 1 494 0
 695              		.cfi_startproc
 696              		@ args = 0, pretend = 0, frame = 0
 697              		@ frame_needed = 0, uses_anonymous_args = 0
 698 01e4 10B5     		push	{r4, lr}
 699              		.cfi_def_cfa_offset 8
 700              		.cfi_offset 4, -8
ARM GAS  /tmp/ccLnU1Hk.s 			page 42


 701              		.cfi_offset 14, -4
 702              	.LVL46:
 527:lib/src/stm32f10x_flash.c ****   if(status == FLASH_COMPLETE)
 703              		.loc 1 527 0
 704 01e6 4FF43020 		mov	r0, #720896
 705 01ea FFF7FEFF 		bl	FLASH_WaitForLastOperation
 706              	.LVL47:
 528:lib/src/stm32f10x_flash.c ****   {
 707              		.loc 1 528 0
 708 01ee 0428     		cmp	r0, #4
 709 01f0 00D0     		beq	.L83
 710              	.L81:
 544:lib/src/stm32f10x_flash.c **** 
 711              		.loc 1 544 0
 712 01f2 10BD     		pop	{r4, pc}
 713              	.L83:
 531:lib/src/stm32f10x_flash.c ****      FLASH->CR |= CR_STRT_Set;
 714              		.loc 1 531 0
 715 01f4 094C     		ldr	r4, .L84
 716 01f6 2369     		ldr	r3, [r4, #16]
 717 01f8 43F00403 		orr	r3, r3, #4
 718 01fc 2361     		str	r3, [r4, #16]
 532:lib/src/stm32f10x_flash.c ****     
 719              		.loc 1 532 0
 720 01fe 2369     		ldr	r3, [r4, #16]
 721 0200 43F04003 		orr	r3, r3, #64
 722 0204 2361     		str	r3, [r4, #16]
 535:lib/src/stm32f10x_flash.c **** 
 723              		.loc 1 535 0
 724 0206 4FF43020 		mov	r0, #720896
 725              	.LVL48:
 726 020a FFF7FEFF 		bl	FLASH_WaitForLastOperation
 727              	.LVL49:
 538:lib/src/stm32f10x_flash.c ****   }
 728              		.loc 1 538 0
 729 020e 2369     		ldr	r3, [r4, #16]
 730 0210 23F00403 		bic	r3, r3, #4
 731 0214 DB04     		lsls	r3, r3, #19
 732 0216 DB0C     		lsrs	r3, r3, #19
 733 0218 2361     		str	r3, [r4, #16]
 734 021a EAE7     		b	.L81
 735              	.L85:
 736              		.align	2
 737              	.L84:
 738 021c 00200240 		.word	1073881088
 739              		.cfi_endproc
 740              	.LFE71:
 741              		.size	FLASH_EraseAllPages, .-FLASH_EraseAllPages
 742              		.align	1
 743              		.global	FLASH_EraseOptionBytes
 744              		.syntax unified
 745              		.thumb
 746              		.thumb_func
 747              		.fpu softvfp
 748              		.type	FLASH_EraseOptionBytes, %function
 749              	FLASH_EraseOptionBytes:
 750              	.LFB73:
ARM GAS  /tmp/ccLnU1Hk.s 			page 43


 618:lib/src/stm32f10x_flash.c ****   uint16_t rdptmp = RDP_Key;
 751              		.loc 1 618 0
 752              		.cfi_startproc
 753              		@ args = 0, pretend = 0, frame = 0
 754              		@ frame_needed = 0, uses_anonymous_args = 0
 755 0220 10B5     		push	{r4, lr}
 756              		.cfi_def_cfa_offset 8
 757              		.cfi_offset 4, -8
 758              		.cfi_offset 14, -4
 759              	.LVL50:
 624:lib/src/stm32f10x_flash.c ****   {
 760              		.loc 1 624 0
 761 0222 FFF7FEFF 		bl	FLASH_GetReadOutProtectionStatus
 762              	.LVL51:
 763 0226 0028     		cmp	r0, #0
 626:lib/src/stm32f10x_flash.c ****   }
 764              		.loc 1 626 0
 765 0228 0CBF     		ite	eq
 766 022a A524     		moveq	r4, #165
 767 022c 0024     		movne	r4, #0
 768              	.LVL52:
 630:lib/src/stm32f10x_flash.c ****   if(status == FLASH_COMPLETE)
 769              		.loc 1 630 0
 770 022e 4FF43020 		mov	r0, #720896
 771 0232 FFF7FEFF 		bl	FLASH_WaitForLastOperation
 772              	.LVL53:
 631:lib/src/stm32f10x_flash.c ****   {
 773              		.loc 1 631 0
 774 0236 0428     		cmp	r0, #4
 775 0238 00D0     		beq	.L92
 776              	.L88:
 672:lib/src/stm32f10x_flash.c **** 
 777              		.loc 1 672 0
 778 023a 10BD     		pop	{r4, pc}
 779              	.LVL54:
 780              	.L92:
 634:lib/src/stm32f10x_flash.c ****     FLASH->OPTKEYR = FLASH_KEY2;
 781              		.loc 1 634 0
 782 023c 1C4B     		ldr	r3, .L94
 783 023e 1D4A     		ldr	r2, .L94+4
 784 0240 9A60     		str	r2, [r3, #8]
 635:lib/src/stm32f10x_flash.c ****     
 785              		.loc 1 635 0
 786 0242 02F18832 		add	r2, r2, #-2004318072
 787 0246 9A60     		str	r2, [r3, #8]
 638:lib/src/stm32f10x_flash.c ****     FLASH->CR |= CR_STRT_Set;
 788              		.loc 1 638 0
 789 0248 1A69     		ldr	r2, [r3, #16]
 790 024a 42F02002 		orr	r2, r2, #32
 791 024e 1A61     		str	r2, [r3, #16]
 639:lib/src/stm32f10x_flash.c ****     /* Wait for last operation to be completed */
 792              		.loc 1 639 0
 793 0250 1A69     		ldr	r2, [r3, #16]
 794 0252 42F04002 		orr	r2, r2, #64
 795 0256 1A61     		str	r2, [r3, #16]
 641:lib/src/stm32f10x_flash.c ****     
 796              		.loc 1 641 0
ARM GAS  /tmp/ccLnU1Hk.s 			page 44


 797 0258 4FF43020 		mov	r0, #720896
 798              	.LVL55:
 799 025c FFF7FEFF 		bl	FLASH_WaitForLastOperation
 800              	.LVL56:
 643:lib/src/stm32f10x_flash.c ****     {
 801              		.loc 1 643 0
 802 0260 0428     		cmp	r0, #4
 803 0262 09D0     		beq	.L93
 663:lib/src/stm32f10x_flash.c ****       {
 804              		.loc 1 663 0
 805 0264 0528     		cmp	r0, #5
 806 0266 E8D0     		beq	.L88
 666:lib/src/stm32f10x_flash.c ****       }
 807              		.loc 1 666 0
 808 0268 114A     		ldr	r2, .L94
 809 026a 1369     		ldr	r3, [r2, #16]
 810 026c 23F01003 		bic	r3, r3, #16
 811 0270 DB04     		lsls	r3, r3, #19
 812 0272 DB0C     		lsrs	r3, r3, #19
 813 0274 1361     		str	r3, [r2, #16]
 814 0276 E0E7     		b	.L88
 815              	.L93:
 646:lib/src/stm32f10x_flash.c ****        
 816              		.loc 1 646 0
 817 0278 0D4B     		ldr	r3, .L94
 818 027a 1A69     		ldr	r2, [r3, #16]
 819 027c 22F02002 		bic	r2, r2, #32
 820 0280 D204     		lsls	r2, r2, #19
 821 0282 D20C     		lsrs	r2, r2, #19
 822 0284 1A61     		str	r2, [r3, #16]
 649:lib/src/stm32f10x_flash.c ****       /* Restore the last read protection Option Byte value */
 823              		.loc 1 649 0
 824 0286 1A69     		ldr	r2, [r3, #16]
 825 0288 42F01002 		orr	r2, r2, #16
 826 028c 1A61     		str	r2, [r3, #16]
 651:lib/src/stm32f10x_flash.c ****       /* Wait for last operation to be completed */
 827              		.loc 1 651 0
 828 028e 0A4B     		ldr	r3, .L94+8
 829 0290 1C80     		strh	r4, [r3]	@ movhi
 653:lib/src/stm32f10x_flash.c ****  
 830              		.loc 1 653 0
 831 0292 4FF40050 		mov	r0, #8192
 832              	.LVL57:
 833 0296 FFF7FEFF 		bl	FLASH_WaitForLastOperation
 834              	.LVL58:
 655:lib/src/stm32f10x_flash.c ****       {
 835              		.loc 1 655 0
 836 029a 0528     		cmp	r0, #5
 837 029c CDD0     		beq	.L88
 658:lib/src/stm32f10x_flash.c ****       }
 838              		.loc 1 658 0
 839 029e 044A     		ldr	r2, .L94
 840 02a0 1369     		ldr	r3, [r2, #16]
 841 02a2 23F01003 		bic	r3, r3, #16
 842 02a6 DB04     		lsls	r3, r3, #19
 843 02a8 DB0C     		lsrs	r3, r3, #19
 844 02aa 1361     		str	r3, [r2, #16]
ARM GAS  /tmp/ccLnU1Hk.s 			page 45


 845 02ac 10BD     		pop	{r4, pc}
 846              	.LVL59:
 847              	.L95:
 848 02ae 00BF     		.align	2
 849              	.L94:
 850 02b0 00200240 		.word	1073881088
 851 02b4 23016745 		.word	1164378403
 852 02b8 00F8FF1F 		.word	536868864
 853              		.cfi_endproc
 854              	.LFE73:
 855              		.size	FLASH_EraseOptionBytes, .-FLASH_EraseOptionBytes
 856              		.align	1
 857              		.global	FLASH_ProgramWord
 858              		.syntax unified
 859              		.thumb
 860              		.thumb_func
 861              		.fpu softvfp
 862              		.type	FLASH_ProgramWord, %function
 863              	FLASH_ProgramWord:
 864              	.LFB74:
 683:lib/src/stm32f10x_flash.c ****   FLASH_Status status = FLASH_COMPLETE;
 865              		.loc 1 683 0
 866              		.cfi_startproc
 867              		@ args = 0, pretend = 0, frame = 8
 868              		@ frame_needed = 0, uses_anonymous_args = 0
 869              	.LVL60:
 870 02bc 30B5     		push	{r4, r5, lr}
 871              		.cfi_def_cfa_offset 12
 872              		.cfi_offset 4, -12
 873              		.cfi_offset 5, -8
 874              		.cfi_offset 14, -4
 875 02be 83B0     		sub	sp, sp, #12
 876              		.cfi_def_cfa_offset 24
 877 02c0 0546     		mov	r5, r0
 878 02c2 0C46     		mov	r4, r1
 879              	.LVL61:
 685:lib/src/stm32f10x_flash.c **** 
 880              		.loc 1 685 0
 881 02c4 0023     		movs	r3, #0
 882 02c6 0193     		str	r3, [sp, #4]
 813:lib/src/stm32f10x_flash.c ****   
 883              		.loc 1 813 0
 884 02c8 4FF40050 		mov	r0, #8192
 885              	.LVL62:
 886 02cc FFF7FEFF 		bl	FLASH_WaitForLastOperation
 887              	.LVL63:
 815:lib/src/stm32f10x_flash.c ****   {
 888              		.loc 1 815 0
 889 02d0 0428     		cmp	r0, #4
 890 02d2 01D0     		beq	.L100
 891              	.LVL64:
 892              	.L97:
 849:lib/src/stm32f10x_flash.c **** 
 893              		.loc 1 849 0
 894 02d4 03B0     		add	sp, sp, #12
 895              		.cfi_remember_state
 896              		.cfi_def_cfa_offset 12
ARM GAS  /tmp/ccLnU1Hk.s 			page 46


 897              		@ sp needed
 898 02d6 30BD     		pop	{r4, r5, pc}
 899              	.LVL65:
 900              	.L100:
 901              		.cfi_restore_state
 819:lib/src/stm32f10x_flash.c ****   
 902              		.loc 1 819 0
 903 02d8 124A     		ldr	r2, .L102
 904 02da 1369     		ldr	r3, [r2, #16]
 905 02dc 43F00103 		orr	r3, r3, #1
 906 02e0 1361     		str	r3, [r2, #16]
 821:lib/src/stm32f10x_flash.c ****     /* Wait for last operation to be completed */
 907              		.loc 1 821 0
 908 02e2 A3B2     		uxth	r3, r4
 909 02e4 2B80     		strh	r3, [r5]	@ movhi
 823:lib/src/stm32f10x_flash.c ****  
 910              		.loc 1 823 0
 911 02e6 4FF40050 		mov	r0, #8192
 912              	.LVL66:
 913 02ea FFF7FEFF 		bl	FLASH_WaitForLastOperation
 914              	.LVL67:
 825:lib/src/stm32f10x_flash.c ****     {
 915              		.loc 1 825 0
 916 02ee 0428     		cmp	r0, #4
 917 02f0 07D0     		beq	.L101
 842:lib/src/stm32f10x_flash.c ****     }
 918              		.loc 1 842 0
 919 02f2 0C4A     		ldr	r2, .L102
 920 02f4 1369     		ldr	r3, [r2, #16]
 921 02f6 23F00103 		bic	r3, r3, #1
 922 02fa DB04     		lsls	r3, r3, #19
 923 02fc DB0C     		lsrs	r3, r3, #19
 924 02fe 1361     		str	r3, [r2, #16]
 925 0300 E8E7     		b	.L97
 926              	.L101:
 829:lib/src/stm32f10x_flash.c **** 
 927              		.loc 1 829 0
 928 0302 0235     		adds	r5, r5, #2
 929              	.LVL68:
 930 0304 0195     		str	r5, [sp, #4]
 831:lib/src/stm32f10x_flash.c ****     
 931              		.loc 1 831 0
 932 0306 019B     		ldr	r3, [sp, #4]
 933 0308 240C     		lsrs	r4, r4, #16
 934              	.LVL69:
 935 030a 1C80     		strh	r4, [r3]	@ movhi
 834:lib/src/stm32f10x_flash.c ****         
 936              		.loc 1 834 0
 937 030c 4FF40050 		mov	r0, #8192
 938              	.LVL70:
 939 0310 FFF7FEFF 		bl	FLASH_WaitForLastOperation
 940              	.LVL71:
 837:lib/src/stm32f10x_flash.c ****     }
 941              		.loc 1 837 0
 942 0314 034A     		ldr	r2, .L102
 943 0316 1369     		ldr	r3, [r2, #16]
 944 0318 23F00103 		bic	r3, r3, #1
ARM GAS  /tmp/ccLnU1Hk.s 			page 47


 945 031c DB04     		lsls	r3, r3, #19
 946 031e DB0C     		lsrs	r3, r3, #19
 947 0320 1361     		str	r3, [r2, #16]
 948 0322 D7E7     		b	.L97
 949              	.L103:
 950              		.align	2
 951              	.L102:
 952 0324 00200240 		.word	1073881088
 953              		.cfi_endproc
 954              	.LFE74:
 955              		.size	FLASH_ProgramWord, .-FLASH_ProgramWord
 956              		.align	1
 957              		.global	FLASH_ProgramHalfWord
 958              		.syntax unified
 959              		.thumb
 960              		.thumb_func
 961              		.fpu softvfp
 962              		.type	FLASH_ProgramHalfWord, %function
 963              	FLASH_ProgramHalfWord:
 964              	.LFB75:
 860:lib/src/stm32f10x_flash.c ****   FLASH_Status status = FLASH_COMPLETE;
 965              		.loc 1 860 0
 966              		.cfi_startproc
 967              		@ args = 0, pretend = 0, frame = 0
 968              		@ frame_needed = 0, uses_anonymous_args = 0
 969              	.LVL72:
 970 0328 70B5     		push	{r4, r5, r6, lr}
 971              		.cfi_def_cfa_offset 16
 972              		.cfi_offset 4, -16
 973              		.cfi_offset 5, -12
 974              		.cfi_offset 6, -8
 975              		.cfi_offset 14, -4
 976 032a 0446     		mov	r4, r0
 977 032c 0D46     		mov	r5, r1
 978              	.LVL73:
 901:lib/src/stm32f10x_flash.c ****   
 979              		.loc 1 901 0
 980 032e 4FF40050 		mov	r0, #8192
 981              	.LVL74:
 982 0332 FFF7FEFF 		bl	FLASH_WaitForLastOperation
 983              	.LVL75:
 903:lib/src/stm32f10x_flash.c ****   {
 984              		.loc 1 903 0
 985 0336 0428     		cmp	r0, #4
 986 0338 00D0     		beq	.L107
 987              	.L105:
 919:lib/src/stm32f10x_flash.c **** 
 988              		.loc 1 919 0
 989 033a 70BD     		pop	{r4, r5, r6, pc}
 990              	.LVL76:
 991              	.L107:
 906:lib/src/stm32f10x_flash.c ****   
 992              		.loc 1 906 0
 993 033c 084E     		ldr	r6, .L108
 994 033e 3369     		ldr	r3, [r6, #16]
 995 0340 43F00103 		orr	r3, r3, #1
 996 0344 3361     		str	r3, [r6, #16]
ARM GAS  /tmp/ccLnU1Hk.s 			page 48


 908:lib/src/stm32f10x_flash.c ****     /* Wait for last operation to be completed */
 997              		.loc 1 908 0
 998 0346 2580     		strh	r5, [r4]	@ movhi
 910:lib/src/stm32f10x_flash.c ****     
 999              		.loc 1 910 0
 1000 0348 4FF40050 		mov	r0, #8192
 1001              	.LVL77:
 1002 034c FFF7FEFF 		bl	FLASH_WaitForLastOperation
 1003              	.LVL78:
 913:lib/src/stm32f10x_flash.c ****   } 
 1004              		.loc 1 913 0
 1005 0350 3369     		ldr	r3, [r6, #16]
 1006 0352 23F00103 		bic	r3, r3, #1
 1007 0356 DB04     		lsls	r3, r3, #19
 1008 0358 DB0C     		lsrs	r3, r3, #19
 1009 035a 3361     		str	r3, [r6, #16]
 1010 035c EDE7     		b	.L105
 1011              	.L109:
 1012 035e 00BF     		.align	2
 1013              	.L108:
 1014 0360 00200240 		.word	1073881088
 1015              		.cfi_endproc
 1016              	.LFE75:
 1017              		.size	FLASH_ProgramHalfWord, .-FLASH_ProgramHalfWord
 1018              		.align	1
 1019              		.global	FLASH_ProgramOptionByteData
 1020              		.syntax unified
 1021              		.thumb
 1022              		.thumb_func
 1023              		.fpu softvfp
 1024              		.type	FLASH_ProgramOptionByteData, %function
 1025              	FLASH_ProgramOptionByteData:
 1026              	.LFB76:
 931:lib/src/stm32f10x_flash.c ****   FLASH_Status status = FLASH_COMPLETE;
 1027              		.loc 1 931 0
 1028              		.cfi_startproc
 1029              		@ args = 0, pretend = 0, frame = 0
 1030              		@ frame_needed = 0, uses_anonymous_args = 0
 1031              	.LVL79:
 1032 0364 38B5     		push	{r3, r4, r5, lr}
 1033              		.cfi_def_cfa_offset 16
 1034              		.cfi_offset 3, -16
 1035              		.cfi_offset 4, -12
 1036              		.cfi_offset 5, -8
 1037              		.cfi_offset 14, -4
 1038 0366 0546     		mov	r5, r0
 1039 0368 0C46     		mov	r4, r1
 1040              	.LVL80:
 935:lib/src/stm32f10x_flash.c **** 
 1041              		.loc 1 935 0
 1042 036a 4FF40050 		mov	r0, #8192
 1043              	.LVL81:
 1044 036e FFF7FEFF 		bl	FLASH_WaitForLastOperation
 1045              	.LVL82:
 937:lib/src/stm32f10x_flash.c ****   {
 1046              		.loc 1 937 0
 1047 0372 0428     		cmp	r0, #4
ARM GAS  /tmp/ccLnU1Hk.s 			page 49


 1048 0374 00D0     		beq	.L113
 1049              	.L111:
 956:lib/src/stm32f10x_flash.c **** 
 1050              		.loc 1 956 0
 1051 0376 38BD     		pop	{r3, r4, r5, pc}
 1052              	.LVL83:
 1053              	.L113:
 940:lib/src/stm32f10x_flash.c ****     FLASH->OPTKEYR = FLASH_KEY2;
 1054              		.loc 1 940 0
 1055 0378 0C4B     		ldr	r3, .L114
 1056 037a 0D4A     		ldr	r2, .L114+4
 1057 037c 9A60     		str	r2, [r3, #8]
 941:lib/src/stm32f10x_flash.c ****     /* Enables the Option Bytes Programming operation */
 1058              		.loc 1 941 0
 1059 037e 02F18832 		add	r2, r2, #-2004318072
 1060 0382 9A60     		str	r2, [r3, #8]
 943:lib/src/stm32f10x_flash.c ****     *(__IO uint16_t*)Address = Data;
 1061              		.loc 1 943 0
 1062 0384 1A69     		ldr	r2, [r3, #16]
 1063 0386 42F01002 		orr	r2, r2, #16
 1064 038a 1A61     		str	r2, [r3, #16]
 944:lib/src/stm32f10x_flash.c ****     
 1065              		.loc 1 944 0
 1066 038c A4B2     		uxth	r4, r4
 1067 038e 2C80     		strh	r4, [r5]	@ movhi
 947:lib/src/stm32f10x_flash.c ****     if(status != FLASH_TIMEOUT)
 1068              		.loc 1 947 0
 1069 0390 4FF40050 		mov	r0, #8192
 1070              	.LVL84:
 1071 0394 FFF7FEFF 		bl	FLASH_WaitForLastOperation
 1072              	.LVL85:
 948:lib/src/stm32f10x_flash.c ****     {
 1073              		.loc 1 948 0
 1074 0398 0528     		cmp	r0, #5
 1075 039a ECD0     		beq	.L111
 951:lib/src/stm32f10x_flash.c ****     }
 1076              		.loc 1 951 0
 1077 039c 034A     		ldr	r2, .L114
 1078 039e 1369     		ldr	r3, [r2, #16]
 1079 03a0 23F01003 		bic	r3, r3, #16
 1080 03a4 DB04     		lsls	r3, r3, #19
 1081 03a6 DB0C     		lsrs	r3, r3, #19
 1082 03a8 1361     		str	r3, [r2, #16]
 1083 03aa E4E7     		b	.L111
 1084              	.L115:
 1085              		.align	2
 1086              	.L114:
 1087 03ac 00200240 		.word	1073881088
 1088 03b0 23016745 		.word	1164378403
 1089              		.cfi_endproc
 1090              	.LFE76:
 1091              		.size	FLASH_ProgramOptionByteData, .-FLASH_ProgramOptionByteData
 1092              		.align	1
 1093              		.global	FLASH_EnableWriteProtection
 1094              		.syntax unified
 1095              		.thumb
 1096              		.thumb_func
ARM GAS  /tmp/ccLnU1Hk.s 			page 50


 1097              		.fpu softvfp
 1098              		.type	FLASH_EnableWriteProtection, %function
 1099              	FLASH_EnableWriteProtection:
 1100              	.LFB77:
 977:lib/src/stm32f10x_flash.c ****   uint16_t WRP0_Data = 0xFFFF, WRP1_Data = 0xFFFF, WRP2_Data = 0xFFFF, WRP3_Data = 0xFFFF;
 1101              		.loc 1 977 0
 1102              		.cfi_startproc
 1103              		@ args = 0, pretend = 0, frame = 0
 1104              		@ frame_needed = 0, uses_anonymous_args = 0
 1105              	.LVL86:
 1106 03b4 38B5     		push	{r3, r4, r5, lr}
 1107              		.cfi_def_cfa_offset 16
 1108              		.cfi_offset 3, -16
 1109              		.cfi_offset 4, -12
 1110              		.cfi_offset 5, -8
 1111              		.cfi_offset 14, -4
 1112 03b6 0546     		mov	r5, r0
 1113              	.LVL87:
 992:lib/src/stm32f10x_flash.c ****   
 1114              		.loc 1 992 0
 1115 03b8 4FF40050 		mov	r0, #8192
 1116              	.LVL88:
 1117 03bc FFF7FEFF 		bl	FLASH_WaitForLastOperation
 1118              	.LVL89:
 1119 03c0 0446     		mov	r4, r0
 1120              	.LVL90:
 994:lib/src/stm32f10x_flash.c ****   {
 1121              		.loc 1 994 0
 1122 03c2 0428     		cmp	r0, #4
 1123 03c4 01D0     		beq	.L126
 1124              	.LVL91:
 1125              	.L117:
1038:lib/src/stm32f10x_flash.c **** 
 1126              		.loc 1 1038 0
 1127 03c6 2046     		mov	r0, r4
 1128 03c8 38BD     		pop	{r3, r4, r5, pc}
 1129              	.LVL92:
 1130              	.L126:
 985:lib/src/stm32f10x_flash.c ****   WRP0_Data = (uint16_t)(FLASH_Pages & WRP0_Mask);
 1131              		.loc 1 985 0
 1132 03ca ED43     		mvns	r5, r5
 1133              	.LVL93:
 986:lib/src/stm32f10x_flash.c ****   WRP1_Data = (uint16_t)((FLASH_Pages & WRP1_Mask) >> 8);
 1134              		.loc 1 986 0
 1135 03cc E9B2     		uxtb	r1, r5
 997:lib/src/stm32f10x_flash.c ****     FLASH->OPTKEYR = FLASH_KEY2;
 1136              		.loc 1 997 0
 1137 03ce 224B     		ldr	r3, .L128
 1138 03d0 224A     		ldr	r2, .L128+4
 1139 03d2 9A60     		str	r2, [r3, #8]
 998:lib/src/stm32f10x_flash.c ****     FLASH->CR |= CR_OPTPG_Set;
 1140              		.loc 1 998 0
 1141 03d4 02F18832 		add	r2, r2, #-2004318072
 1142 03d8 9A60     		str	r2, [r3, #8]
 999:lib/src/stm32f10x_flash.c ****     if(WRP0_Data != 0xFF)
 1143              		.loc 1 999 0
 1144 03da 1A69     		ldr	r2, [r3, #16]
ARM GAS  /tmp/ccLnU1Hk.s 			page 51


 1145 03dc 42F01002 		orr	r2, r2, #16
 1146 03e0 1A61     		str	r2, [r3, #16]
1000:lib/src/stm32f10x_flash.c ****     {
 1147              		.loc 1 1000 0
 1148 03e2 FF29     		cmp	r1, #255
 1149 03e4 12D0     		beq	.L118
1002:lib/src/stm32f10x_flash.c ****       
 1150              		.loc 1 1002 0
 1151 03e6 1E4B     		ldr	r3, .L128+8
 1152 03e8 1981     		strh	r1, [r3, #8]	@ movhi
1005:lib/src/stm32f10x_flash.c ****     }
 1153              		.loc 1 1005 0
 1154 03ea 4FF40050 		mov	r0, #8192
 1155              	.LVL94:
 1156 03ee FFF7FEFF 		bl	FLASH_WaitForLastOperation
 1157              	.LVL95:
1007:lib/src/stm32f10x_flash.c ****     {
 1158              		.loc 1 1007 0
 1159 03f2 0428     		cmp	r0, #4
 1160 03f4 0AD0     		beq	.L118
 1161              	.LVL96:
 1162              	.L119:
1030:lib/src/stm32f10x_flash.c ****     {
 1163              		.loc 1 1030 0
 1164 03f6 0528     		cmp	r0, #5
 1165 03f8 2CD0     		beq	.L127
 1166              	.LVL97:
 1167              	.L122:
1033:lib/src/stm32f10x_flash.c ****     }
 1168              		.loc 1 1033 0
 1169 03fa 174A     		ldr	r2, .L128
 1170 03fc 1369     		ldr	r3, [r2, #16]
 1171 03fe 23F01003 		bic	r3, r3, #16
 1172 0402 DB04     		lsls	r3, r3, #19
 1173 0404 DB0C     		lsrs	r3, r3, #19
 1174 0406 1361     		str	r3, [r2, #16]
 1175 0408 0446     		mov	r4, r0
 1176 040a DCE7     		b	.L117
 1177              	.L118:
 987:lib/src/stm32f10x_flash.c ****   WRP2_Data = (uint16_t)((FLASH_Pages & WRP2_Mask) >> 16);
 1178              		.loc 1 987 0 discriminator 1
 1179 040c C5F30723 		ubfx	r3, r5, #8, #8
 1180              	.LVL98:
1007:lib/src/stm32f10x_flash.c ****     {
 1181              		.loc 1 1007 0 discriminator 1
 1182 0410 FF2B     		cmp	r3, #255
 1183 0412 07D0     		beq	.L120
1009:lib/src/stm32f10x_flash.c ****       
 1184              		.loc 1 1009 0
 1185 0414 124A     		ldr	r2, .L128+8
 1186 0416 5381     		strh	r3, [r2, #10]	@ movhi
1012:lib/src/stm32f10x_flash.c ****     }
 1187              		.loc 1 1012 0
 1188 0418 4FF40050 		mov	r0, #8192
 1189 041c FFF7FEFF 		bl	FLASH_WaitForLastOperation
 1190              	.LVL99:
1014:lib/src/stm32f10x_flash.c ****     {
ARM GAS  /tmp/ccLnU1Hk.s 			page 52


 1191              		.loc 1 1014 0
 1192 0420 0428     		cmp	r0, #4
 1193 0422 E8D1     		bne	.L119
 1194              	.LVL100:
 1195              	.L120:
 988:lib/src/stm32f10x_flash.c ****   WRP3_Data = (uint16_t)((FLASH_Pages & WRP3_Mask) >> 24);
 1196              		.loc 1 988 0 discriminator 1
 1197 0424 C5F30743 		ubfx	r3, r5, #16, #8
 1198              	.LVL101:
1014:lib/src/stm32f10x_flash.c ****     {
 1199              		.loc 1 1014 0 discriminator 1
 1200 0428 FF2B     		cmp	r3, #255
 1201 042a 07D0     		beq	.L121
1016:lib/src/stm32f10x_flash.c ****       
 1202              		.loc 1 1016 0
 1203 042c 0C4A     		ldr	r2, .L128+8
 1204 042e 9381     		strh	r3, [r2, #12]	@ movhi
1019:lib/src/stm32f10x_flash.c ****     }
 1205              		.loc 1 1019 0
 1206 0430 4FF40050 		mov	r0, #8192
 1207 0434 FFF7FEFF 		bl	FLASH_WaitForLastOperation
 1208              	.LVL102:
1022:lib/src/stm32f10x_flash.c ****     {
 1209              		.loc 1 1022 0
 1210 0438 0428     		cmp	r0, #4
 1211 043a DCD1     		bne	.L119
 1212              	.LVL103:
 1213              	.L121:
 989:lib/src/stm32f10x_flash.c ****   
 1214              		.loc 1 989 0 discriminator 1
 1215 043c 2D0E     		lsrs	r5, r5, #24
 1216              	.LVL104:
1022:lib/src/stm32f10x_flash.c ****     {
 1217              		.loc 1 1022 0 discriminator 1
 1218 043e FF2D     		cmp	r5, #255
 1219 0440 06D0     		beq	.L123
1024:lib/src/stm32f10x_flash.c ****      
 1220              		.loc 1 1024 0
 1221 0442 074B     		ldr	r3, .L128+8
 1222 0444 DD81     		strh	r5, [r3, #14]	@ movhi
1027:lib/src/stm32f10x_flash.c ****     }
 1223              		.loc 1 1027 0
 1224 0446 4FF40050 		mov	r0, #8192
 1225 044a FFF7FEFF 		bl	FLASH_WaitForLastOperation
 1226              	.LVL105:
 1227 044e D2E7     		b	.L119
 1228              	.LVL106:
 1229              	.L123:
 1230 0450 2046     		mov	r0, r4
 1231 0452 D2E7     		b	.L122
 1232              	.LVL107:
 1233              	.L127:
 1234 0454 0446     		mov	r4, r0
 1235 0456 B6E7     		b	.L117
 1236              	.L129:
 1237              		.align	2
 1238              	.L128:
ARM GAS  /tmp/ccLnU1Hk.s 			page 53


 1239 0458 00200240 		.word	1073881088
 1240 045c 23016745 		.word	1164378403
 1241 0460 00F8FF1F 		.word	536868864
 1242              		.cfi_endproc
 1243              	.LFE77:
 1244              		.size	FLASH_EnableWriteProtection, .-FLASH_EnableWriteProtection
 1245              		.align	1
 1246              		.global	FLASH_ReadOutProtection
 1247              		.syntax unified
 1248              		.thumb
 1249              		.thumb_func
 1250              		.fpu softvfp
 1251              		.type	FLASH_ReadOutProtection, %function
 1252              	FLASH_ReadOutProtection:
 1253              	.LFB78:
1051:lib/src/stm32f10x_flash.c ****   FLASH_Status status = FLASH_COMPLETE;
 1254              		.loc 1 1051 0
 1255              		.cfi_startproc
 1256              		@ args = 0, pretend = 0, frame = 0
 1257              		@ frame_needed = 0, uses_anonymous_args = 0
 1258              	.LVL108:
 1259 0464 10B5     		push	{r4, lr}
 1260              		.cfi_def_cfa_offset 8
 1261              		.cfi_offset 4, -8
 1262              		.cfi_offset 14, -4
 1263 0466 0446     		mov	r4, r0
 1264              	.LVL109:
1055:lib/src/stm32f10x_flash.c ****   if(status == FLASH_COMPLETE)
 1265              		.loc 1 1055 0
 1266 0468 4FF43020 		mov	r0, #720896
 1267              	.LVL110:
 1268 046c FFF7FEFF 		bl	FLASH_WaitForLastOperation
 1269              	.LVL111:
1056:lib/src/stm32f10x_flash.c ****   {
 1270              		.loc 1 1056 0
 1271 0470 0428     		cmp	r0, #4
 1272 0472 00D0     		beq	.L136
 1273              	.L131:
1099:lib/src/stm32f10x_flash.c **** 
 1274              		.loc 1 1099 0
 1275 0474 10BD     		pop	{r4, pc}
 1276              	.L136:
1059:lib/src/stm32f10x_flash.c ****     FLASH->OPTKEYR = FLASH_KEY2;
 1277              		.loc 1 1059 0
 1278 0476 1F4B     		ldr	r3, .L138
 1279 0478 1F4A     		ldr	r2, .L138+4
 1280 047a 9A60     		str	r2, [r3, #8]
1060:lib/src/stm32f10x_flash.c ****     FLASH->CR |= CR_OPTER_Set;
 1281              		.loc 1 1060 0
 1282 047c 02F18832 		add	r2, r2, #-2004318072
 1283 0480 9A60     		str	r2, [r3, #8]
1061:lib/src/stm32f10x_flash.c ****     FLASH->CR |= CR_STRT_Set;
 1284              		.loc 1 1061 0
 1285 0482 1A69     		ldr	r2, [r3, #16]
 1286 0484 42F02002 		orr	r2, r2, #32
 1287 0488 1A61     		str	r2, [r3, #16]
1062:lib/src/stm32f10x_flash.c ****     /* Wait for last operation to be completed */
ARM GAS  /tmp/ccLnU1Hk.s 			page 54


 1288              		.loc 1 1062 0
 1289 048a 1A69     		ldr	r2, [r3, #16]
 1290 048c 42F04002 		orr	r2, r2, #64
 1291 0490 1A61     		str	r2, [r3, #16]
1064:lib/src/stm32f10x_flash.c ****     if(status == FLASH_COMPLETE)
 1292              		.loc 1 1064 0
 1293 0492 4FF43020 		mov	r0, #720896
 1294              	.LVL112:
 1295 0496 FFF7FEFF 		bl	FLASH_WaitForLastOperation
 1296              	.LVL113:
1065:lib/src/stm32f10x_flash.c ****     {
 1297              		.loc 1 1065 0
 1298 049a 0428     		cmp	r0, #4
 1299 049c 09D0     		beq	.L137
1090:lib/src/stm32f10x_flash.c ****       {
 1300              		.loc 1 1090 0
 1301 049e 0528     		cmp	r0, #5
 1302 04a0 E8D0     		beq	.L131
1093:lib/src/stm32f10x_flash.c ****       }
 1303              		.loc 1 1093 0
 1304 04a2 144A     		ldr	r2, .L138
 1305 04a4 1369     		ldr	r3, [r2, #16]
 1306 04a6 23F02003 		bic	r3, r3, #32
 1307 04aa DB04     		lsls	r3, r3, #19
 1308 04ac DB0C     		lsrs	r3, r3, #19
 1309 04ae 1361     		str	r3, [r2, #16]
 1310 04b0 E0E7     		b	.L131
 1311              	.L137:
1068:lib/src/stm32f10x_flash.c ****       /* Enable the Option Bytes Programming operation */
 1312              		.loc 1 1068 0
 1313 04b2 104B     		ldr	r3, .L138
 1314 04b4 1A69     		ldr	r2, [r3, #16]
 1315 04b6 22F02002 		bic	r2, r2, #32
 1316 04ba D204     		lsls	r2, r2, #19
 1317 04bc D20C     		lsrs	r2, r2, #19
 1318 04be 1A61     		str	r2, [r3, #16]
1070:lib/src/stm32f10x_flash.c ****       if(NewState != DISABLE)
 1319              		.loc 1 1070 0
 1320 04c0 1A69     		ldr	r2, [r3, #16]
 1321 04c2 42F01002 		orr	r2, r2, #16
 1322 04c6 1A61     		str	r2, [r3, #16]
1071:lib/src/stm32f10x_flash.c ****       {
 1323              		.loc 1 1071 0
 1324 04c8 84B1     		cbz	r4, .L133
1073:lib/src/stm32f10x_flash.c ****       }
 1325              		.loc 1 1073 0
 1326 04ca 0022     		movs	r2, #0
 1327 04cc 0B4B     		ldr	r3, .L138+8
 1328 04ce 1A80     		strh	r2, [r3]	@ movhi
 1329              	.L134:
1080:lib/src/stm32f10x_flash.c ****     
 1330              		.loc 1 1080 0
 1331 04d0 4FF43020 		mov	r0, #720896
 1332              	.LVL114:
 1333 04d4 FFF7FEFF 		bl	FLASH_WaitForLastOperation
 1334              	.LVL115:
1082:lib/src/stm32f10x_flash.c ****       {
ARM GAS  /tmp/ccLnU1Hk.s 			page 55


 1335              		.loc 1 1082 0
 1336 04d8 0528     		cmp	r0, #5
 1337 04da CBD0     		beq	.L131
1085:lib/src/stm32f10x_flash.c ****       }
 1338              		.loc 1 1085 0
 1339 04dc 054A     		ldr	r2, .L138
 1340 04de 1369     		ldr	r3, [r2, #16]
 1341 04e0 23F01003 		bic	r3, r3, #16
 1342 04e4 DB04     		lsls	r3, r3, #19
 1343 04e6 DB0C     		lsrs	r3, r3, #19
 1344 04e8 1361     		str	r3, [r2, #16]
 1345 04ea 10BD     		pop	{r4, pc}
 1346              	.L133:
1077:lib/src/stm32f10x_flash.c ****       }
 1347              		.loc 1 1077 0
 1348 04ec A522     		movs	r2, #165
 1349 04ee 034B     		ldr	r3, .L138+8
 1350 04f0 1A80     		strh	r2, [r3]	@ movhi
 1351 04f2 EDE7     		b	.L134
 1352              	.L139:
 1353              		.align	2
 1354              	.L138:
 1355 04f4 00200240 		.word	1073881088
 1356 04f8 23016745 		.word	1164378403
 1357 04fc 00F8FF1F 		.word	536868864
 1358              		.cfi_endproc
 1359              	.LFE78:
 1360              		.size	FLASH_ReadOutProtection, .-FLASH_ReadOutProtection
 1361              		.align	1
 1362              		.global	FLASH_UserOptionByteConfig
 1363              		.syntax unified
 1364              		.thumb
 1365              		.thumb_func
 1366              		.fpu softvfp
 1367              		.type	FLASH_UserOptionByteConfig, %function
 1368              	FLASH_UserOptionByteConfig:
 1369              	.LFB79:
1120:lib/src/stm32f10x_flash.c ****   FLASH_Status status = FLASH_COMPLETE; 
 1370              		.loc 1 1120 0
 1371              		.cfi_startproc
 1372              		@ args = 0, pretend = 0, frame = 0
 1373              		@ frame_needed = 0, uses_anonymous_args = 0
 1374              	.LVL116:
 1375 0500 70B5     		push	{r4, r5, r6, lr}
 1376              		.cfi_def_cfa_offset 16
 1377              		.cfi_offset 4, -16
 1378              		.cfi_offset 5, -12
 1379              		.cfi_offset 6, -8
 1380              		.cfi_offset 14, -4
 1381 0502 0646     		mov	r6, r0
 1382 0504 0D46     		mov	r5, r1
 1383 0506 1446     		mov	r4, r2
 1384              	.LVL117:
1129:lib/src/stm32f10x_flash.c ****   FLASH->OPTKEYR = FLASH_KEY2;
 1385              		.loc 1 1129 0
 1386 0508 124B     		ldr	r3, .L144
 1387 050a 134A     		ldr	r2, .L144+4
ARM GAS  /tmp/ccLnU1Hk.s 			page 56


 1388              	.LVL118:
 1389 050c 9A60     		str	r2, [r3, #8]
1130:lib/src/stm32f10x_flash.c ****   
 1390              		.loc 1 1130 0
 1391 050e 02F18832 		add	r2, r2, #-2004318072
 1392 0512 9A60     		str	r2, [r3, #8]
1133:lib/src/stm32f10x_flash.c ****   
 1393              		.loc 1 1133 0
 1394 0514 4FF40050 		mov	r0, #8192
 1395              	.LVL119:
 1396 0518 FFF7FEFF 		bl	FLASH_WaitForLastOperation
 1397              	.LVL120:
1135:lib/src/stm32f10x_flash.c ****   {  
 1398              		.loc 1 1135 0
 1399 051c 0428     		cmp	r0, #4
 1400 051e 00D0     		beq	.L143
 1401              	.L141:
1152:lib/src/stm32f10x_flash.c **** 
 1402              		.loc 1 1152 0
 1403 0520 70BD     		pop	{r4, r5, r6, pc}
 1404              	.L143:
1138:lib/src/stm32f10x_flash.c ****            
 1405              		.loc 1 1138 0
 1406 0522 0C4A     		ldr	r2, .L144
 1407 0524 1369     		ldr	r3, [r2, #16]
 1408 0526 43F01003 		orr	r3, r3, #16
 1409 052a 1361     		str	r3, [r2, #16]
1140:lib/src/stm32f10x_flash.c ****   
 1410              		.loc 1 1140 0
 1411 052c 46F0F806 		orr	r6, r6, #248
 1412 0530 3543     		orrs	r5, r5, r6
 1413 0532 2C43     		orrs	r4, r4, r5
 1414 0534 094B     		ldr	r3, .L144+8
 1415 0536 5C80     		strh	r4, [r3, #2]	@ movhi
1143:lib/src/stm32f10x_flash.c ****     if(status != FLASH_TIMEOUT)
 1416              		.loc 1 1143 0
 1417 0538 4FF40050 		mov	r0, #8192
 1418              	.LVL121:
 1419 053c FFF7FEFF 		bl	FLASH_WaitForLastOperation
 1420              	.LVL122:
1144:lib/src/stm32f10x_flash.c ****     {
 1421              		.loc 1 1144 0
 1422 0540 0528     		cmp	r0, #5
 1423 0542 EDD0     		beq	.L141
1147:lib/src/stm32f10x_flash.c ****     }
 1424              		.loc 1 1147 0
 1425 0544 034A     		ldr	r2, .L144
 1426 0546 1369     		ldr	r3, [r2, #16]
 1427 0548 23F01003 		bic	r3, r3, #16
 1428 054c DB04     		lsls	r3, r3, #19
 1429 054e DB0C     		lsrs	r3, r3, #19
 1430 0550 1361     		str	r3, [r2, #16]
 1431 0552 E5E7     		b	.L141
 1432              	.L145:
 1433              		.align	2
 1434              	.L144:
 1435 0554 00200240 		.word	1073881088
ARM GAS  /tmp/ccLnU1Hk.s 			page 57


 1436 0558 23016745 		.word	1164378403
 1437 055c 00F8FF1F 		.word	536868864
 1438              		.cfi_endproc
 1439              	.LFE79:
 1440              		.size	FLASH_UserOptionByteConfig, .-FLASH_UserOptionByteConfig
 1441              		.align	1
 1442              		.global	FLASH_WaitForLastBank1Operation
 1443              		.syntax unified
 1444              		.thumb
 1445              		.thumb_func
 1446              		.fpu softvfp
 1447              		.type	FLASH_WaitForLastBank1Operation, %function
 1448              	FLASH_WaitForLastBank1Operation:
 1449              	.LFB90:
1615:lib/src/stm32f10x_flash.c **** 
1616:lib/src/stm32f10x_flash.c **** /**
1617:lib/src/stm32f10x_flash.c ****   * @brief  Waits for a Flash operation on Bank1 to complete or a TIMEOUT to occur.
1618:lib/src/stm32f10x_flash.c ****   * @note   This function can be used for all STM32F10x devices, 
1619:lib/src/stm32f10x_flash.c ****   *         it is equivalent to FLASH_WaitForLastOperation.
1620:lib/src/stm32f10x_flash.c ****   * @param  Timeout: FLASH programming Timeout
1621:lib/src/stm32f10x_flash.c ****   * @retval FLASH Status: The returned value can be: FLASH_ERROR_PG,
1622:lib/src/stm32f10x_flash.c ****   *         FLASH_ERROR_WRP, FLASH_COMPLETE or FLASH_TIMEOUT.
1623:lib/src/stm32f10x_flash.c ****   */
1624:lib/src/stm32f10x_flash.c **** FLASH_Status FLASH_WaitForLastBank1Operation(uint32_t Timeout)
1625:lib/src/stm32f10x_flash.c **** { 
 1450              		.loc 1 1625 0
 1451              		.cfi_startproc
 1452              		@ args = 0, pretend = 0, frame = 0
 1453              		@ frame_needed = 0, uses_anonymous_args = 0
 1454              	.LVL123:
 1455 0560 10B5     		push	{r4, lr}
 1456              		.cfi_def_cfa_offset 8
 1457              		.cfi_offset 4, -8
 1458              		.cfi_offset 14, -4
 1459 0562 0446     		mov	r4, r0
 1460              	.LVL124:
1626:lib/src/stm32f10x_flash.c ****   FLASH_Status status = FLASH_COMPLETE;
1627:lib/src/stm32f10x_flash.c ****    
1628:lib/src/stm32f10x_flash.c ****   /* Check for the Flash Status */
1629:lib/src/stm32f10x_flash.c ****   status = FLASH_GetBank1Status();
 1461              		.loc 1 1629 0
 1462 0564 FFF7FEFF 		bl	FLASH_GetBank1Status
 1463              	.LVL125:
1630:lib/src/stm32f10x_flash.c ****   /* Wait for a Flash operation to complete or a TIMEOUT to occur */
1631:lib/src/stm32f10x_flash.c ****   while((status == FLASH_FLAG_BANK1_BSY) && (Timeout != 0x00))
 1464              		.loc 1 1631 0
 1465 0568 0128     		cmp	r0, #1
 1466 056a 09D1     		bne	.L147
 1467 056c 34B1     		cbz	r4, .L148
 1468              	.L152:
 1469              	.LVL126:
1632:lib/src/stm32f10x_flash.c ****   {
1633:lib/src/stm32f10x_flash.c ****     status = FLASH_GetBank1Status();
 1470              		.loc 1 1633 0
 1471 056e FFF7FEFF 		bl	FLASH_GetBank1Status
 1472              	.LVL127:
1634:lib/src/stm32f10x_flash.c ****     Timeout--;
ARM GAS  /tmp/ccLnU1Hk.s 			page 58


 1473              		.loc 1 1634 0
 1474 0572 013C     		subs	r4, r4, #1
 1475              	.LVL128:
1631:lib/src/stm32f10x_flash.c ****   {
 1476              		.loc 1 1631 0
 1477 0574 0128     		cmp	r0, #1
 1478 0576 03D1     		bne	.L147
1631:lib/src/stm32f10x_flash.c ****   {
 1479              		.loc 1 1631 0 is_stmt 0 discriminator 1
 1480 0578 002C     		cmp	r4, #0
 1481 057a F8D1     		bne	.L152
 1482              	.L148:
1635:lib/src/stm32f10x_flash.c ****   }
1636:lib/src/stm32f10x_flash.c ****   if(Timeout == 0x00 )
1637:lib/src/stm32f10x_flash.c ****   {
1638:lib/src/stm32f10x_flash.c ****     status = FLASH_TIMEOUT;
 1483              		.loc 1 1638 0 is_stmt 1
 1484 057c 0520     		movs	r0, #5
 1485              	.LVL129:
1639:lib/src/stm32f10x_flash.c ****   }
1640:lib/src/stm32f10x_flash.c ****   /* Return the operation status */
1641:lib/src/stm32f10x_flash.c ****   return status;
1642:lib/src/stm32f10x_flash.c **** }
 1486              		.loc 1 1642 0
 1487 057e 10BD     		pop	{r4, pc}
 1488              	.LVL130:
 1489              	.L147:
1638:lib/src/stm32f10x_flash.c ****   }
 1490              		.loc 1 1638 0
 1491 0580 002C     		cmp	r4, #0
 1492 0582 08BF     		it	eq
 1493 0584 0520     		moveq	r0, #5
 1494              	.LVL131:
 1495 0586 10BD     		pop	{r4, pc}
 1496              		.cfi_endproc
 1497              	.LFE90:
 1498              		.size	FLASH_WaitForLastBank1Operation, .-FLASH_WaitForLastBank1Operation
 1499              		.align	1
 1500              		.global	FLASH_EraseAllBank1Pages
 1501              		.syntax unified
 1502              		.thumb
 1503              		.thumb_func
 1504              		.fpu softvfp
 1505              		.type	FLASH_EraseAllBank1Pages, %function
 1506              	FLASH_EraseAllBank1Pages:
 1507              	.LFB72:
 557:lib/src/stm32f10x_flash.c ****   FLASH_Status status = FLASH_COMPLETE;
 1508              		.loc 1 557 0
 1509              		.cfi_startproc
 1510              		@ args = 0, pretend = 0, frame = 0
 1511              		@ frame_needed = 0, uses_anonymous_args = 0
 1512 0588 10B5     		push	{r4, lr}
 1513              		.cfi_def_cfa_offset 8
 1514              		.cfi_offset 4, -8
 1515              		.cfi_offset 14, -4
 1516              	.LVL132:
 560:lib/src/stm32f10x_flash.c ****   
ARM GAS  /tmp/ccLnU1Hk.s 			page 59


 1517              		.loc 1 560 0
 1518 058a 4FF43020 		mov	r0, #720896
 1519 058e FFF7FEFF 		bl	FLASH_WaitForLastBank1Operation
 1520              	.LVL133:
 562:lib/src/stm32f10x_flash.c ****   {
 1521              		.loc 1 562 0
 1522 0592 0428     		cmp	r0, #4
 1523 0594 00D0     		beq	.L158
 1524              	.L156:
 576:lib/src/stm32f10x_flash.c **** 
 1525              		.loc 1 576 0
 1526 0596 10BD     		pop	{r4, pc}
 1527              	.L158:
 565:lib/src/stm32f10x_flash.c ****      FLASH->CR |= CR_STRT_Set;
 1528              		.loc 1 565 0
 1529 0598 094C     		ldr	r4, .L159
 1530 059a 2369     		ldr	r3, [r4, #16]
 1531 059c 43F00403 		orr	r3, r3, #4
 1532 05a0 2361     		str	r3, [r4, #16]
 566:lib/src/stm32f10x_flash.c ****     
 1533              		.loc 1 566 0
 1534 05a2 2369     		ldr	r3, [r4, #16]
 1535 05a4 43F04003 		orr	r3, r3, #64
 1536 05a8 2361     		str	r3, [r4, #16]
 569:lib/src/stm32f10x_flash.c ****     
 1537              		.loc 1 569 0
 1538 05aa 4FF43020 		mov	r0, #720896
 1539              	.LVL134:
 1540 05ae FFF7FEFF 		bl	FLASH_WaitForLastBank1Operation
 1541              	.LVL135:
 572:lib/src/stm32f10x_flash.c ****   }    
 1542              		.loc 1 572 0
 1543 05b2 2369     		ldr	r3, [r4, #16]
 1544 05b4 23F00403 		bic	r3, r3, #4
 1545 05b8 DB04     		lsls	r3, r3, #19
 1546 05ba DB0C     		lsrs	r3, r3, #19
 1547 05bc 2361     		str	r3, [r4, #16]
 1548 05be EAE7     		b	.L156
 1549              	.L160:
 1550              		.align	2
 1551              	.L159:
 1552 05c0 00200240 		.word	1073881088
 1553              		.cfi_endproc
 1554              	.LFE72:
 1555              		.size	FLASH_EraseAllBank1Pages, .-FLASH_EraseAllBank1Pages
 1556              	.Letext0:
 1557              		.file 2 "/usr/arm-none-eabi/include/machine/_default_types.h"
 1558              		.file 3 "/usr/arm-none-eabi/include/sys/_stdint.h"
 1559              		.file 4 "/home/faker/Documents/code/STM/stm32-quadrocopter/cmsis/core_cm3.h"
 1560              		.file 5 "/home/faker/Documents/code/STM/stm32-quadrocopter/lib/inc/system_stm32f10x.h"
 1561              		.file 6 "/home/faker/Documents/code/STM/stm32-quadrocopter/lib/inc/stm32f10x.h"
 1562              		.file 7 "/home/faker/Documents/code/STM/stm32-quadrocopter/lib/inc/stm32f10x_flash.h"
 1563              		.file 8 "/home/faker/Documents/code/STM/stm32-quadrocopter/drivers/ahrs.h"
 1564              		.file 9 "/home/faker/Documents/code/STM/stm32-quadrocopter/drivers/nvic.h"
 1565              		.file 10 "/home/faker/Documents/code/STM/stm32-quadrocopter/drivers/mpu6050.h"
 1566              		.file 11 "/usr/arm-none-eabi/include/sys/lock.h"
 1567              		.file 12 "/usr/arm-none-eabi/include/sys/_types.h"
ARM GAS  /tmp/ccLnU1Hk.s 			page 60


 1568              		.file 13 "/usr/lib/gcc/arm-none-eabi/6.1.1/include/stddef.h"
 1569              		.file 14 "/usr/arm-none-eabi/include/sys/reent.h"
 1570              		.file 15 "/usr/arm-none-eabi/include/stdlib.h"
 1571              		.file 16 "/usr/arm-none-eabi/include/math.h"
 1572              		.file 17 "/usr/arm-none-eabi/include/sys/errno.h"
 1573              		.section	.debug_info,"",%progbits
 1574              	.Ldebug_info0:
 1575 0000 3C140000 		.4byte	0x143c
 1576 0004 0400     		.2byte	0x4
 1577 0006 00000000 		.4byte	.Ldebug_abbrev0
 1578 000a 04       		.byte	0x4
 1579 000b 01       		.uleb128 0x1
 1580 000c CC040000 		.4byte	.LASF242
 1581 0010 0C       		.byte	0xc
 1582 0011 CC050000 		.4byte	.LASF243
 1583 0015 62010000 		.4byte	.LASF244
 1584 0019 00000000 		.4byte	.Ltext0
 1585 001d C4050000 		.4byte	.Letext0-.Ltext0
 1586 0021 00000000 		.4byte	.Ldebug_line0
 1587 0025 02       		.uleb128 0x2
 1588 0026 01       		.byte	0x1
 1589 0027 06       		.byte	0x6
 1590 0028 8B020000 		.4byte	.LASF0
 1591 002c 03       		.uleb128 0x3
 1592 002d A3010000 		.4byte	.LASF2
 1593 0031 02       		.byte	0x2
 1594 0032 1D       		.byte	0x1d
 1595 0033 37000000 		.4byte	0x37
 1596 0037 02       		.uleb128 0x2
 1597 0038 01       		.byte	0x1
 1598 0039 08       		.byte	0x8
 1599 003a DA020000 		.4byte	.LASF1
 1600 003e 03       		.uleb128 0x3
 1601 003f 2B080000 		.4byte	.LASF3
 1602 0043 02       		.byte	0x2
 1603 0044 29       		.byte	0x29
 1604 0045 49000000 		.4byte	0x49
 1605 0049 02       		.uleb128 0x2
 1606 004a 02       		.byte	0x2
 1607 004b 05       		.byte	0x5
 1608 004c C7080000 		.4byte	.LASF4
 1609 0050 03       		.uleb128 0x3
 1610 0051 33030000 		.4byte	.LASF5
 1611 0055 02       		.byte	0x2
 1612 0056 2B       		.byte	0x2b
 1613 0057 5B000000 		.4byte	0x5b
 1614 005b 02       		.uleb128 0x2
 1615 005c 02       		.byte	0x2
 1616 005d 07       		.byte	0x7
 1617 005e 6D0A0000 		.4byte	.LASF6
 1618 0062 03       		.uleb128 0x3
 1619 0063 A80A0000 		.4byte	.LASF7
 1620 0067 02       		.byte	0x2
 1621 0068 3F       		.byte	0x3f
 1622 0069 6D000000 		.4byte	0x6d
 1623 006d 02       		.uleb128 0x2
 1624 006e 04       		.byte	0x4
ARM GAS  /tmp/ccLnU1Hk.s 			page 61


 1625 006f 05       		.byte	0x5
 1626 0070 FA010000 		.4byte	.LASF8
 1627 0074 03       		.uleb128 0x3
 1628 0075 52050000 		.4byte	.LASF9
 1629 0079 02       		.byte	0x2
 1630 007a 41       		.byte	0x41
 1631 007b 7F000000 		.4byte	0x7f
 1632 007f 02       		.uleb128 0x2
 1633 0080 04       		.byte	0x4
 1634 0081 07       		.byte	0x7
 1635 0082 1D040000 		.4byte	.LASF10
 1636 0086 02       		.uleb128 0x2
 1637 0087 08       		.byte	0x8
 1638 0088 05       		.byte	0x5
 1639 0089 68050000 		.4byte	.LASF11
 1640 008d 02       		.uleb128 0x2
 1641 008e 08       		.byte	0x8
 1642 008f 07       		.byte	0x7
 1643 0090 86070000 		.4byte	.LASF12
 1644 0094 04       		.uleb128 0x4
 1645 0095 04       		.byte	0x4
 1646 0096 05       		.byte	0x5
 1647 0097 696E7400 		.ascii	"int\000"
 1648 009b 02       		.uleb128 0x2
 1649 009c 04       		.byte	0x4
 1650 009d 07       		.byte	0x7
 1651 009e 42060000 		.4byte	.LASF13
 1652 00a2 03       		.uleb128 0x3
 1653 00a3 9F020000 		.4byte	.LASF14
 1654 00a7 03       		.byte	0x3
 1655 00a8 18       		.byte	0x18
 1656 00a9 2C000000 		.4byte	0x2c
 1657 00ad 03       		.uleb128 0x3
 1658 00ae F5080000 		.4byte	.LASF15
 1659 00b2 03       		.byte	0x3
 1660 00b3 20       		.byte	0x20
 1661 00b4 3E000000 		.4byte	0x3e
 1662 00b8 03       		.uleb128 0x3
 1663 00b9 AF070000 		.4byte	.LASF16
 1664 00bd 03       		.byte	0x3
 1665 00be 24       		.byte	0x24
 1666 00bf 50000000 		.4byte	0x50
 1667 00c3 05       		.uleb128 0x5
 1668 00c4 B8000000 		.4byte	0xb8
 1669 00c8 03       		.uleb128 0x3
 1670 00c9 78000000 		.4byte	.LASF17
 1671 00cd 03       		.byte	0x3
 1672 00ce 2C       		.byte	0x2c
 1673 00cf 62000000 		.4byte	0x62
 1674 00d3 05       		.uleb128 0x5
 1675 00d4 C8000000 		.4byte	0xc8
 1676 00d8 03       		.uleb128 0x3
 1677 00d9 FF090000 		.4byte	.LASF18
 1678 00dd 03       		.byte	0x3
 1679 00de 30       		.byte	0x30
 1680 00df 74000000 		.4byte	0x74
 1681 00e3 05       		.uleb128 0x5
ARM GAS  /tmp/ccLnU1Hk.s 			page 62


 1682 00e4 D8000000 		.4byte	0xd8
 1683 00e8 02       		.uleb128 0x2
 1684 00e9 04       		.byte	0x4
 1685 00ea 07       		.byte	0x7
 1686 00eb 23000000 		.4byte	.LASF19
 1687 00ef 06       		.uleb128 0x6
 1688 00f0 14060000 		.4byte	.LASF20
 1689 00f4 04       		.byte	0x4
 1690 00f5 9606     		.2byte	0x696
 1691 00f7 D3000000 		.4byte	0xd3
 1692 00fb 07       		.uleb128 0x7
 1693 00fc 58040000 		.4byte	.LASF21
 1694 0100 05       		.byte	0x5
 1695 0101 35       		.byte	0x35
 1696 0102 D8000000 		.4byte	0xd8
 1697 0106 08       		.uleb128 0x8
 1698 0107 01       		.byte	0x1
 1699 0108 37000000 		.4byte	0x37
 1700 010c 06       		.byte	0x6
 1701 010d 0702     		.2byte	0x207
 1702 010f 20010000 		.4byte	0x120
 1703 0113 09       		.uleb128 0x9
 1704 0114 35080000 		.4byte	.LASF22
 1705 0118 00       		.byte	0
 1706 0119 0A       		.uleb128 0xa
 1707 011a 53455400 		.ascii	"SET\000"
 1708 011e 01       		.byte	0x1
 1709 011f 00       		.byte	0
 1710 0120 0B       		.uleb128 0xb
 1711 0121 70080000 		.4byte	.LASF23
 1712 0125 06       		.byte	0x6
 1713 0126 0702     		.2byte	0x207
 1714 0128 06010000 		.4byte	0x106
 1715 012c 08       		.uleb128 0x8
 1716 012d 01       		.byte	0x1
 1717 012e 37000000 		.4byte	0x37
 1718 0132 06       		.byte	0x6
 1719 0133 0902     		.2byte	0x209
 1720 0135 46010000 		.4byte	0x146
 1721 0139 09       		.uleb128 0x9
 1722 013a 04070000 		.4byte	.LASF24
 1723 013e 00       		.byte	0
 1724 013f 09       		.uleb128 0x9
 1725 0140 24090000 		.4byte	.LASF25
 1726 0144 01       		.byte	0x1
 1727 0145 00       		.byte	0
 1728 0146 0B       		.uleb128 0xb
 1729 0147 76070000 		.4byte	.LASF26
 1730 014b 06       		.byte	0x6
 1731 014c 0902     		.2byte	0x209
 1732 014e 2C010000 		.4byte	0x12c
 1733 0152 0C       		.uleb128 0xc
 1734 0153 24       		.byte	0x24
 1735 0154 06       		.byte	0x6
 1736 0155 8503     		.2byte	0x385
 1737 0157 CE010000 		.4byte	0x1ce
 1738 015b 0D       		.uleb128 0xd
ARM GAS  /tmp/ccLnU1Hk.s 			page 63


 1739 015c 41435200 		.ascii	"ACR\000"
 1740 0160 06       		.byte	0x6
 1741 0161 8703     		.2byte	0x387
 1742 0163 E3000000 		.4byte	0xe3
 1743 0167 00       		.byte	0
 1744 0168 0E       		.uleb128 0xe
 1745 0169 B0080000 		.4byte	.LASF27
 1746 016d 06       		.byte	0x6
 1747 016e 8803     		.2byte	0x388
 1748 0170 E3000000 		.4byte	0xe3
 1749 0174 04       		.byte	0x4
 1750 0175 0E       		.uleb128 0xe
 1751 0176 EB030000 		.4byte	.LASF28
 1752 017a 06       		.byte	0x6
 1753 017b 8903     		.2byte	0x389
 1754 017d E3000000 		.4byte	0xe3
 1755 0181 08       		.byte	0x8
 1756 0182 0D       		.uleb128 0xd
 1757 0183 535200   		.ascii	"SR\000"
 1758 0186 06       		.byte	0x6
 1759 0187 8A03     		.2byte	0x38a
 1760 0189 E3000000 		.4byte	0xe3
 1761 018d 0C       		.byte	0xc
 1762 018e 0D       		.uleb128 0xd
 1763 018f 435200   		.ascii	"CR\000"
 1764 0192 06       		.byte	0x6
 1765 0193 8B03     		.2byte	0x38b
 1766 0195 E3000000 		.4byte	0xe3
 1767 0199 10       		.byte	0x10
 1768 019a 0D       		.uleb128 0xd
 1769 019b 415200   		.ascii	"AR\000"
 1770 019e 06       		.byte	0x6
 1771 019f 8C03     		.2byte	0x38c
 1772 01a1 E3000000 		.4byte	0xe3
 1773 01a5 14       		.byte	0x14
 1774 01a6 0E       		.uleb128 0xe
 1775 01a7 9C030000 		.4byte	.LASF29
 1776 01ab 06       		.byte	0x6
 1777 01ac 8D03     		.2byte	0x38d
 1778 01ae E3000000 		.4byte	0xe3
 1779 01b2 18       		.byte	0x18
 1780 01b3 0D       		.uleb128 0xd
 1781 01b4 4F425200 		.ascii	"OBR\000"
 1782 01b8 06       		.byte	0x6
 1783 01b9 8E03     		.2byte	0x38e
 1784 01bb E3000000 		.4byte	0xe3
 1785 01bf 1C       		.byte	0x1c
 1786 01c0 0E       		.uleb128 0xe
 1787 01c1 79020000 		.4byte	.LASF30
 1788 01c5 06       		.byte	0x6
 1789 01c6 8F03     		.2byte	0x38f
 1790 01c8 E3000000 		.4byte	0xe3
 1791 01cc 20       		.byte	0x20
 1792 01cd 00       		.byte	0
 1793 01ce 0B       		.uleb128 0xb
 1794 01cf C1090000 		.4byte	.LASF31
 1795 01d3 06       		.byte	0x6
ARM GAS  /tmp/ccLnU1Hk.s 			page 64


 1796 01d4 9803     		.2byte	0x398
 1797 01d6 52010000 		.4byte	0x152
 1798 01da 0C       		.uleb128 0xc
 1799 01db 10       		.byte	0x10
 1800 01dc 06       		.byte	0x6
 1801 01dd 9E03     		.2byte	0x39e
 1802 01df 4C020000 		.4byte	0x24c
 1803 01e3 0D       		.uleb128 0xd
 1804 01e4 52445000 		.ascii	"RDP\000"
 1805 01e8 06       		.byte	0x6
 1806 01e9 A003     		.2byte	0x3a0
 1807 01eb C3000000 		.4byte	0xc3
 1808 01ef 00       		.byte	0
 1809 01f0 0E       		.uleb128 0xe
 1810 01f1 54000000 		.4byte	.LASF32
 1811 01f5 06       		.byte	0x6
 1812 01f6 A103     		.2byte	0x3a1
 1813 01f8 C3000000 		.4byte	0xc3
 1814 01fc 02       		.byte	0x2
 1815 01fd 0E       		.uleb128 0xe
 1816 01fe E6060000 		.4byte	.LASF33
 1817 0202 06       		.byte	0x6
 1818 0203 A203     		.2byte	0x3a2
 1819 0205 C3000000 		.4byte	0xc3
 1820 0209 04       		.byte	0x4
 1821 020a 0E       		.uleb128 0xe
 1822 020b EC060000 		.4byte	.LASF34
 1823 020f 06       		.byte	0x6
 1824 0210 A303     		.2byte	0x3a3
 1825 0212 C3000000 		.4byte	0xc3
 1826 0216 06       		.byte	0x6
 1827 0217 0E       		.uleb128 0xe
 1828 0218 48020000 		.4byte	.LASF35
 1829 021c 06       		.byte	0x6
 1830 021d A403     		.2byte	0x3a4
 1831 021f C3000000 		.4byte	0xc3
 1832 0223 08       		.byte	0x8
 1833 0224 0E       		.uleb128 0xe
 1834 0225 4D020000 		.4byte	.LASF36
 1835 0229 06       		.byte	0x6
 1836 022a A503     		.2byte	0x3a5
 1837 022c C3000000 		.4byte	0xc3
 1838 0230 0A       		.byte	0xa
 1839 0231 0E       		.uleb128 0xe
 1840 0232 52020000 		.4byte	.LASF37
 1841 0236 06       		.byte	0x6
 1842 0237 A603     		.2byte	0x3a6
 1843 0239 C3000000 		.4byte	0xc3
 1844 023d 0C       		.byte	0xc
 1845 023e 0E       		.uleb128 0xe
 1846 023f 57020000 		.4byte	.LASF38
 1847 0243 06       		.byte	0x6
 1848 0244 A703     		.2byte	0x3a7
 1849 0246 C3000000 		.4byte	0xc3
 1850 024a 0E       		.byte	0xe
 1851 024b 00       		.byte	0
 1852 024c 0B       		.uleb128 0xb
ARM GAS  /tmp/ccLnU1Hk.s 			page 65


 1853 024d CC070000 		.4byte	.LASF39
 1854 0251 06       		.byte	0x6
 1855 0252 A803     		.2byte	0x3a8
 1856 0254 DA010000 		.4byte	0x1da
 1857 0258 0F       		.uleb128 0xf
 1858 0259 01       		.byte	0x1
 1859 025a 37000000 		.4byte	0x37
 1860 025e 07       		.byte	0x7
 1861 025f 33       		.byte	0x33
 1862 0260 83020000 		.4byte	0x283
 1863 0264 09       		.uleb128 0x9
 1864 0265 5C020000 		.4byte	.LASF40
 1865 0269 01       		.byte	0x1
 1866 026a 09       		.uleb128 0x9
 1867 026b 9F000000 		.4byte	.LASF41
 1868 026f 02       		.byte	0x2
 1869 0270 09       		.uleb128 0x9
 1870 0271 010B0000 		.4byte	.LASF42
 1871 0275 03       		.byte	0x3
 1872 0276 09       		.uleb128 0x9
 1873 0277 B9060000 		.4byte	.LASF43
 1874 027b 04       		.byte	0x4
 1875 027c 09       		.uleb128 0x9
 1876 027d 2F040000 		.4byte	.LASF44
 1877 0281 05       		.byte	0x5
 1878 0282 00       		.byte	0
 1879 0283 03       		.uleb128 0x3
 1880 0284 1F010000 		.4byte	.LASF45
 1881 0288 07       		.byte	0x7
 1882 0289 39       		.byte	0x39
 1883 028a 58020000 		.4byte	0x258
 1884 028e 07       		.uleb128 0x7
 1885 028f 76050000 		.4byte	.LASF46
 1886 0293 08       		.byte	0x8
 1887 0294 1A       		.byte	0x1a
 1888 0295 A0020000 		.4byte	0x2a0
 1889 0299 02       		.uleb128 0x2
 1890 029a 04       		.byte	0x4
 1891 029b 04       		.byte	0x4
 1892 029c 27060000 		.4byte	.LASF47
 1893 02a0 05       		.uleb128 0x5
 1894 02a1 99020000 		.4byte	0x299
 1895 02a5 10       		.uleb128 0x10
 1896 02a6 713000   		.ascii	"q0\000"
 1897 02a9 08       		.byte	0x8
 1898 02aa 1B       		.byte	0x1b
 1899 02ab A0020000 		.4byte	0x2a0
 1900 02af 10       		.uleb128 0x10
 1901 02b0 713100   		.ascii	"q1\000"
 1902 02b3 08       		.byte	0x8
 1903 02b4 1B       		.byte	0x1b
 1904 02b5 A0020000 		.4byte	0x2a0
 1905 02b9 10       		.uleb128 0x10
 1906 02ba 713200   		.ascii	"q2\000"
 1907 02bd 08       		.byte	0x8
 1908 02be 1B       		.byte	0x1b
 1909 02bf A0020000 		.4byte	0x2a0
ARM GAS  /tmp/ccLnU1Hk.s 			page 66


 1910 02c3 10       		.uleb128 0x10
 1911 02c4 713300   		.ascii	"q3\000"
 1912 02c7 08       		.byte	0x8
 1913 02c8 1B       		.byte	0x1b
 1914 02c9 A0020000 		.4byte	0x2a0
 1915 02cd 11       		.uleb128 0x11
 1916 02ce A0020000 		.4byte	0x2a0
 1917 02d2 DD020000 		.4byte	0x2dd
 1918 02d6 12       		.uleb128 0x12
 1919 02d7 E8000000 		.4byte	0xe8
 1920 02db 02       		.byte	0x2
 1921 02dc 00       		.byte	0
 1922 02dd 05       		.uleb128 0x5
 1923 02de CD020000 		.4byte	0x2cd
 1924 02e2 10       		.uleb128 0x10
 1925 02e3 72707900 		.ascii	"rpy\000"
 1926 02e7 08       		.byte	0x8
 1927 02e8 1C       		.byte	0x1c
 1928 02e9 DD020000 		.4byte	0x2dd
 1929 02ed 07       		.uleb128 0x7
 1930 02ee 2D020000 		.4byte	.LASF48
 1931 02f2 08       		.byte	0x8
 1932 02f3 1C       		.byte	0x1c
 1933 02f4 DD020000 		.4byte	0x2dd
 1934 02f8 07       		.uleb128 0x7
 1935 02f9 1E000000 		.4byte	.LASF49
 1936 02fd 08       		.byte	0x8
 1937 02fe 1D       		.byte	0x1d
 1938 02ff 99020000 		.4byte	0x299
 1939 0303 07       		.uleb128 0x7
 1940 0304 8A0A0000 		.4byte	.LASF50
 1941 0308 08       		.byte	0x8
 1942 0309 1D       		.byte	0x1d
 1943 030a 99020000 		.4byte	0x299
 1944 030e 10       		.uleb128 0x10
 1945 030f 79617700 		.ascii	"yaw\000"
 1946 0313 08       		.byte	0x8
 1947 0314 1D       		.byte	0x1d
 1948 0315 99020000 		.4byte	0x299
 1949 0319 07       		.uleb128 0x7
 1950 031a E8020000 		.4byte	.LASF51
 1951 031e 09       		.byte	0x9
 1952 031f 0A       		.byte	0xa
 1953 0320 B8000000 		.4byte	0xb8
 1954 0324 07       		.uleb128 0x7
 1955 0325 28030000 		.4byte	.LASF52
 1956 0329 09       		.byte	0x9
 1957 032a 0B       		.byte	0xb
 1958 032b B8000000 		.4byte	0xb8
 1959 032f 07       		.uleb128 0x7
 1960 0330 E0080000 		.4byte	.LASF53
 1961 0334 0A       		.byte	0xa
 1962 0335 07       		.byte	0x7
 1963 0336 AD000000 		.4byte	0xad
 1964 033a 07       		.uleb128 0x7
 1965 033b E7080000 		.4byte	.LASF54
 1966 033f 0A       		.byte	0xa
ARM GAS  /tmp/ccLnU1Hk.s 			page 67


 1967 0340 07       		.byte	0x7
 1968 0341 AD000000 		.4byte	0xad
 1969 0345 07       		.uleb128 0x7
 1970 0346 EE080000 		.4byte	.LASF55
 1971 034a 0A       		.byte	0xa
 1972 034b 07       		.byte	0x7
 1973 034c AD000000 		.4byte	0xad
 1974 0350 07       		.uleb128 0x7
 1975 0351 56070000 		.4byte	.LASF56
 1976 0355 0A       		.byte	0xa
 1977 0356 08       		.byte	0x8
 1978 0357 AD000000 		.4byte	0xad
 1979 035b 07       		.uleb128 0x7
 1980 035c 5C070000 		.4byte	.LASF57
 1981 0360 0A       		.byte	0xa
 1982 0361 08       		.byte	0x8
 1983 0362 AD000000 		.4byte	0xad
 1984 0366 07       		.uleb128 0x7
 1985 0367 62070000 		.4byte	.LASF58
 1986 036b 0A       		.byte	0xa
 1987 036c 08       		.byte	0x8
 1988 036d AD000000 		.4byte	0xad
 1989 0371 07       		.uleb128 0x7
 1990 0372 F50A0000 		.4byte	.LASF59
 1991 0376 0A       		.byte	0xa
 1992 0377 09       		.byte	0x9
 1993 0378 99020000 		.4byte	0x299
 1994 037c 07       		.uleb128 0x7
 1995 037d 56010000 		.4byte	.LASF60
 1996 0381 0A       		.byte	0xa
 1997 0382 09       		.byte	0x9
 1998 0383 99020000 		.4byte	0x299
 1999 0387 07       		.uleb128 0x7
 2000 0388 2D060000 		.4byte	.LASF61
 2001 038c 0A       		.byte	0xa
 2002 038d 09       		.byte	0x9
 2003 038e 99020000 		.4byte	0x299
 2004 0392 07       		.uleb128 0x7
 2005 0393 C0040000 		.4byte	.LASF62
 2006 0397 0A       		.byte	0xa
 2007 0398 0A       		.byte	0xa
 2008 0399 99020000 		.4byte	0x299
 2009 039d 07       		.uleb128 0x7
 2010 039e A1050000 		.4byte	.LASF63
 2011 03a2 0A       		.byte	0xa
 2012 03a3 0A       		.byte	0xa
 2013 03a4 99020000 		.4byte	0x299
 2014 03a8 07       		.uleb128 0x7
 2015 03a9 AE000000 		.4byte	.LASF64
 2016 03ad 0A       		.byte	0xa
 2017 03ae 0B       		.byte	0xb
 2018 03af 99020000 		.4byte	0x299
 2019 03b3 07       		.uleb128 0x7
 2020 03b4 DD0A0000 		.4byte	.LASF65
 2021 03b8 0A       		.byte	0xa
 2022 03b9 0B       		.byte	0xb
 2023 03ba 99020000 		.4byte	0x299
ARM GAS  /tmp/ccLnU1Hk.s 			page 68


 2024 03be 07       		.uleb128 0x7
 2025 03bf D3060000 		.4byte	.LASF66
 2026 03c3 0A       		.byte	0xa
 2027 03c4 0B       		.byte	0xb
 2028 03c5 99020000 		.4byte	0x299
 2029 03c9 07       		.uleb128 0x7
 2030 03ca 97020000 		.4byte	.LASF67
 2031 03ce 0A       		.byte	0xa
 2032 03cf 0C       		.byte	0xc
 2033 03d0 99020000 		.4byte	0x299
 2034 03d4 10       		.uleb128 0x10
 2035 03d5 647400   		.ascii	"dt\000"
 2036 03d8 0A       		.byte	0xa
 2037 03d9 0D       		.byte	0xd
 2038 03da 99020000 		.4byte	0x299
 2039 03de 07       		.uleb128 0x7
 2040 03df B20A0000 		.4byte	.LASF68
 2041 03e3 0A       		.byte	0xa
 2042 03e4 0D       		.byte	0xd
 2043 03e5 99020000 		.4byte	0x299
 2044 03e9 07       		.uleb128 0x7
 2045 03ea 43020000 		.4byte	.LASF69
 2046 03ee 0A       		.byte	0xa
 2047 03ef 0E       		.byte	0xe
 2048 03f0 A2000000 		.4byte	0xa2
 2049 03f4 11       		.uleb128 0x11
 2050 03f5 A2000000 		.4byte	0xa2
 2051 03f9 04040000 		.4byte	0x404
 2052 03fd 12       		.uleb128 0x12
 2053 03fe E8000000 		.4byte	0xe8
 2054 0402 13       		.byte	0x13
 2055 0403 00       		.byte	0
 2056 0404 07       		.uleb128 0x7
 2057 0405 7B050000 		.4byte	.LASF70
 2058 0409 0A       		.byte	0xa
 2059 040a 0E       		.byte	0xe
 2060 040b F4030000 		.4byte	0x3f4
 2061 040f 07       		.uleb128 0x7
 2062 0410 28070000 		.4byte	.LASF71
 2063 0414 0A       		.byte	0xa
 2064 0415 0E       		.byte	0xe
 2065 0416 F4030000 		.4byte	0x3f4
 2066 041a 02       		.uleb128 0x2
 2067 041b 08       		.byte	0x8
 2068 041c 04       		.byte	0x4
 2069 041d 1C070000 		.4byte	.LASF72
 2070 0421 03       		.uleb128 0x3
 2071 0422 72040000 		.4byte	.LASF73
 2072 0426 0B       		.byte	0xb
 2073 0427 07       		.byte	0x7
 2074 0428 94000000 		.4byte	0x94
 2075 042c 03       		.uleb128 0x3
 2076 042d 3E0A0000 		.4byte	.LASF74
 2077 0431 0C       		.byte	0xc
 2078 0432 2C       		.byte	0x2c
 2079 0433 6D000000 		.4byte	0x6d
 2080 0437 03       		.uleb128 0x3
ARM GAS  /tmp/ccLnU1Hk.s 			page 69


 2081 0438 47070000 		.4byte	.LASF75
 2082 043c 0C       		.byte	0xc
 2083 043d 72       		.byte	0x72
 2084 043e 6D000000 		.4byte	0x6d
 2085 0442 0B       		.uleb128 0xb
 2086 0443 4B080000 		.4byte	.LASF76
 2087 0447 0D       		.byte	0xd
 2088 0448 6501     		.2byte	0x165
 2089 044a 9B000000 		.4byte	0x9b
 2090 044e 13       		.uleb128 0x13
 2091 044f 04       		.byte	0x4
 2092 0450 0C       		.byte	0xc
 2093 0451 A6       		.byte	0xa6
 2094 0452 6D040000 		.4byte	0x46d
 2095 0456 14       		.uleb128 0x14
 2096 0457 9D010000 		.4byte	.LASF77
 2097 045b 0C       		.byte	0xc
 2098 045c A8       		.byte	0xa8
 2099 045d 42040000 		.4byte	0x442
 2100 0461 14       		.uleb128 0x14
 2101 0462 4F070000 		.4byte	.LASF78
 2102 0466 0C       		.byte	0xc
 2103 0467 A9       		.byte	0xa9
 2104 0468 6D040000 		.4byte	0x46d
 2105 046c 00       		.byte	0
 2106 046d 11       		.uleb128 0x11
 2107 046e 37000000 		.4byte	0x37
 2108 0472 7D040000 		.4byte	0x47d
 2109 0476 12       		.uleb128 0x12
 2110 0477 E8000000 		.4byte	0xe8
 2111 047b 03       		.byte	0x3
 2112 047c 00       		.byte	0
 2113 047d 15       		.uleb128 0x15
 2114 047e 08       		.byte	0x8
 2115 047f 0C       		.byte	0xc
 2116 0480 A3       		.byte	0xa3
 2117 0481 9E040000 		.4byte	0x49e
 2118 0485 16       		.uleb128 0x16
 2119 0486 F2060000 		.4byte	.LASF79
 2120 048a 0C       		.byte	0xc
 2121 048b A5       		.byte	0xa5
 2122 048c 94000000 		.4byte	0x94
 2123 0490 00       		.byte	0
 2124 0491 16       		.uleb128 0x16
 2125 0492 2C000000 		.4byte	.LASF80
 2126 0496 0C       		.byte	0xc
 2127 0497 AA       		.byte	0xaa
 2128 0498 4E040000 		.4byte	0x44e
 2129 049c 04       		.byte	0x4
 2130 049d 00       		.byte	0
 2131 049e 03       		.uleb128 0x3
 2132 049f 3B080000 		.4byte	.LASF81
 2133 04a3 0C       		.byte	0xc
 2134 04a4 AB       		.byte	0xab
 2135 04a5 7D040000 		.4byte	0x47d
 2136 04a9 03       		.uleb128 0x3
 2137 04aa 1B080000 		.4byte	.LASF82
ARM GAS  /tmp/ccLnU1Hk.s 			page 70


 2138 04ae 0C       		.byte	0xc
 2139 04af AF       		.byte	0xaf
 2140 04b0 21040000 		.4byte	0x421
 2141 04b4 17       		.uleb128 0x17
 2142 04b5 04       		.byte	0x4
 2143 04b6 18       		.uleb128 0x18
 2144 04b7 04       		.byte	0x4
 2145 04b8 BC040000 		.4byte	0x4bc
 2146 04bc 02       		.uleb128 0x2
 2147 04bd 01       		.byte	0x1
 2148 04be 08       		.byte	0x8
 2149 04bf 17030000 		.4byte	.LASF83
 2150 04c3 19       		.uleb128 0x19
 2151 04c4 BC040000 		.4byte	0x4bc
 2152 04c8 03       		.uleb128 0x3
 2153 04c9 E2090000 		.4byte	.LASF84
 2154 04cd 0E       		.byte	0xe
 2155 04ce 16       		.byte	0x16
 2156 04cf 7F000000 		.4byte	0x7f
 2157 04d3 1A       		.uleb128 0x1a
 2158 04d4 0E050000 		.4byte	.LASF89
 2159 04d8 18       		.byte	0x18
 2160 04d9 0E       		.byte	0xe
 2161 04da 2D       		.byte	0x2d
 2162 04db 26050000 		.4byte	0x526
 2163 04df 16       		.uleb128 0x16
 2164 04e0 52080000 		.4byte	.LASF85
 2165 04e4 0E       		.byte	0xe
 2166 04e5 2F       		.byte	0x2f
 2167 04e6 26050000 		.4byte	0x526
 2168 04ea 00       		.byte	0
 2169 04eb 1B       		.uleb128 0x1b
 2170 04ec 5F6B00   		.ascii	"_k\000"
 2171 04ef 0E       		.byte	0xe
 2172 04f0 30       		.byte	0x30
 2173 04f1 94000000 		.4byte	0x94
 2174 04f5 04       		.byte	0x4
 2175 04f6 16       		.uleb128 0x16
 2176 04f7 16050000 		.4byte	.LASF86
 2177 04fb 0E       		.byte	0xe
 2178 04fc 30       		.byte	0x30
 2179 04fd 94000000 		.4byte	0x94
 2180 0501 08       		.byte	0x8
 2181 0502 16       		.uleb128 0x16
 2182 0503 21060000 		.4byte	.LASF87
 2183 0507 0E       		.byte	0xe
 2184 0508 30       		.byte	0x30
 2185 0509 94000000 		.4byte	0x94
 2186 050d 0C       		.byte	0xc
 2187 050e 16       		.uleb128 0x16
 2188 050f AD030000 		.4byte	.LASF88
 2189 0513 0E       		.byte	0xe
 2190 0514 30       		.byte	0x30
 2191 0515 94000000 		.4byte	0x94
 2192 0519 10       		.byte	0x10
 2193 051a 1B       		.uleb128 0x1b
 2194 051b 5F7800   		.ascii	"_x\000"
ARM GAS  /tmp/ccLnU1Hk.s 			page 71


 2195 051e 0E       		.byte	0xe
 2196 051f 31       		.byte	0x31
 2197 0520 2C050000 		.4byte	0x52c
 2198 0524 14       		.byte	0x14
 2199 0525 00       		.byte	0
 2200 0526 18       		.uleb128 0x18
 2201 0527 04       		.byte	0x4
 2202 0528 D3040000 		.4byte	0x4d3
 2203 052c 11       		.uleb128 0x11
 2204 052d C8040000 		.4byte	0x4c8
 2205 0531 3C050000 		.4byte	0x53c
 2206 0535 12       		.uleb128 0x12
 2207 0536 E8000000 		.4byte	0xe8
 2208 053a 00       		.byte	0
 2209 053b 00       		.byte	0
 2210 053c 1A       		.uleb128 0x1a
 2211 053d D9000000 		.4byte	.LASF90
 2212 0541 24       		.byte	0x24
 2213 0542 0E       		.byte	0xe
 2214 0543 35       		.byte	0x35
 2215 0544 B5050000 		.4byte	0x5b5
 2216 0548 16       		.uleb128 0x16
 2217 0549 F5000000 		.4byte	.LASF91
 2218 054d 0E       		.byte	0xe
 2219 054e 37       		.byte	0x37
 2220 054f 94000000 		.4byte	0x94
 2221 0553 00       		.byte	0
 2222 0554 16       		.uleb128 0x16
 2223 0555 D40A0000 		.4byte	.LASF92
 2224 0559 0E       		.byte	0xe
 2225 055a 38       		.byte	0x38
 2226 055b 94000000 		.4byte	0x94
 2227 055f 04       		.byte	0x4
 2228 0560 16       		.uleb128 0x16
 2229 0561 800A0000 		.4byte	.LASF93
 2230 0565 0E       		.byte	0xe
 2231 0566 39       		.byte	0x39
 2232 0567 94000000 		.4byte	0x94
 2233 056b 08       		.byte	0x8
 2234 056c 16       		.uleb128 0x16
 2235 056d 7E060000 		.4byte	.LASF94
 2236 0571 0E       		.byte	0xe
 2237 0572 3A       		.byte	0x3a
 2238 0573 94000000 		.4byte	0x94
 2239 0577 0C       		.byte	0xc
 2240 0578 16       		.uleb128 0x16
 2241 0579 32070000 		.4byte	.LASF95
 2242 057d 0E       		.byte	0xe
 2243 057e 3B       		.byte	0x3b
 2244 057f 94000000 		.4byte	0x94
 2245 0583 10       		.byte	0x10
 2246 0584 16       		.uleb128 0x16
 2247 0585 2B090000 		.4byte	.LASF96
 2248 0589 0E       		.byte	0xe
 2249 058a 3C       		.byte	0x3c
 2250 058b 94000000 		.4byte	0x94
 2251 058f 14       		.byte	0x14
ARM GAS  /tmp/ccLnU1Hk.s 			page 72


 2252 0590 16       		.uleb128 0x16
 2253 0591 FA060000 		.4byte	.LASF97
 2254 0595 0E       		.byte	0xe
 2255 0596 3D       		.byte	0x3d
 2256 0597 94000000 		.4byte	0x94
 2257 059b 18       		.byte	0x18
 2258 059c 16       		.uleb128 0x16
 2259 059d 0D030000 		.4byte	.LASF98
 2260 05a1 0E       		.byte	0xe
 2261 05a2 3E       		.byte	0x3e
 2262 05a3 94000000 		.4byte	0x94
 2263 05a7 1C       		.byte	0x1c
 2264 05a8 16       		.uleb128 0x16
 2265 05a9 BF0A0000 		.4byte	.LASF99
 2266 05ad 0E       		.byte	0xe
 2267 05ae 3F       		.byte	0x3f
 2268 05af 94000000 		.4byte	0x94
 2269 05b3 20       		.byte	0x20
 2270 05b4 00       		.byte	0
 2271 05b5 1C       		.uleb128 0x1c
 2272 05b6 B3010000 		.4byte	.LASF100
 2273 05ba 0801     		.2byte	0x108
 2274 05bc 0E       		.byte	0xe
 2275 05bd 48       		.byte	0x48
 2276 05be F5050000 		.4byte	0x5f5
 2277 05c2 16       		.uleb128 0x16
 2278 05c3 B70A0000 		.4byte	.LASF101
 2279 05c7 0E       		.byte	0xe
 2280 05c8 49       		.byte	0x49
 2281 05c9 F5050000 		.4byte	0x5f5
 2282 05cd 00       		.byte	0
 2283 05ce 16       		.uleb128 0x16
 2284 05cf B8070000 		.4byte	.LASF102
 2285 05d3 0E       		.byte	0xe
 2286 05d4 4A       		.byte	0x4a
 2287 05d5 F5050000 		.4byte	0x5f5
 2288 05d9 80       		.byte	0x80
 2289 05da 1D       		.uleb128 0x1d
 2290 05db 07090000 		.4byte	.LASF103
 2291 05df 0E       		.byte	0xe
 2292 05e0 4C       		.byte	0x4c
 2293 05e1 C8040000 		.4byte	0x4c8
 2294 05e5 0001     		.2byte	0x100
 2295 05e7 1D       		.uleb128 0x1d
 2296 05e8 AA090000 		.4byte	.LASF104
 2297 05ec 0E       		.byte	0xe
 2298 05ed 4F       		.byte	0x4f
 2299 05ee C8040000 		.4byte	0x4c8
 2300 05f2 0401     		.2byte	0x104
 2301 05f4 00       		.byte	0
 2302 05f5 11       		.uleb128 0x11
 2303 05f6 B4040000 		.4byte	0x4b4
 2304 05fa 05060000 		.4byte	0x605
 2305 05fe 12       		.uleb128 0x12
 2306 05ff E8000000 		.4byte	0xe8
 2307 0603 1F       		.byte	0x1f
 2308 0604 00       		.byte	0
ARM GAS  /tmp/ccLnU1Hk.s 			page 73


 2309 0605 1C       		.uleb128 0x1c
 2310 0606 DE060000 		.4byte	.LASF105
 2311 060a 9001     		.2byte	0x190
 2312 060c 0E       		.byte	0xe
 2313 060d 5B       		.byte	0x5b
 2314 060e 43060000 		.4byte	0x643
 2315 0612 16       		.uleb128 0x16
 2316 0613 52080000 		.4byte	.LASF85
 2317 0617 0E       		.byte	0xe
 2318 0618 5C       		.byte	0x5c
 2319 0619 43060000 		.4byte	0x643
 2320 061d 00       		.byte	0
 2321 061e 16       		.uleb128 0x16
 2322 061f 80090000 		.4byte	.LASF106
 2323 0623 0E       		.byte	0xe
 2324 0624 5D       		.byte	0x5d
 2325 0625 94000000 		.4byte	0x94
 2326 0629 04       		.byte	0x4
 2327 062a 16       		.uleb128 0x16
 2328 062b 1C030000 		.4byte	.LASF107
 2329 062f 0E       		.byte	0xe
 2330 0630 5F       		.byte	0x5f
 2331 0631 49060000 		.4byte	0x649
 2332 0635 08       		.byte	0x8
 2333 0636 16       		.uleb128 0x16
 2334 0637 B3010000 		.4byte	.LASF100
 2335 063b 0E       		.byte	0xe
 2336 063c 60       		.byte	0x60
 2337 063d B5050000 		.4byte	0x5b5
 2338 0641 88       		.byte	0x88
 2339 0642 00       		.byte	0
 2340 0643 18       		.uleb128 0x18
 2341 0644 04       		.byte	0x4
 2342 0645 05060000 		.4byte	0x605
 2343 0649 11       		.uleb128 0x11
 2344 064a 59060000 		.4byte	0x659
 2345 064e 59060000 		.4byte	0x659
 2346 0652 12       		.uleb128 0x12
 2347 0653 E8000000 		.4byte	0xe8
 2348 0657 1F       		.byte	0x1f
 2349 0658 00       		.byte	0
 2350 0659 18       		.uleb128 0x18
 2351 065a 04       		.byte	0x4
 2352 065b 5F060000 		.4byte	0x65f
 2353 065f 1E       		.uleb128 0x1e
 2354 0660 1A       		.uleb128 0x1a
 2355 0661 A3090000 		.4byte	.LASF108
 2356 0665 08       		.byte	0x8
 2357 0666 0E       		.byte	0xe
 2358 0667 73       		.byte	0x73
 2359 0668 85060000 		.4byte	0x685
 2360 066c 16       		.uleb128 0x16
 2361 066d F9070000 		.4byte	.LASF109
 2362 0671 0E       		.byte	0xe
 2363 0672 74       		.byte	0x74
 2364 0673 85060000 		.4byte	0x685
 2365 0677 00       		.byte	0
ARM GAS  /tmp/ccLnU1Hk.s 			page 74


 2366 0678 16       		.uleb128 0x16
 2367 0679 2C010000 		.4byte	.LASF110
 2368 067d 0E       		.byte	0xe
 2369 067e 75       		.byte	0x75
 2370 067f 94000000 		.4byte	0x94
 2371 0683 04       		.byte	0x4
 2372 0684 00       		.byte	0
 2373 0685 18       		.uleb128 0x18
 2374 0686 04       		.byte	0x4
 2375 0687 37000000 		.4byte	0x37
 2376 068b 1A       		.uleb128 0x1a
 2377 068c 3D040000 		.4byte	.LASF111
 2378 0690 68       		.byte	0x68
 2379 0691 0E       		.byte	0xe
 2380 0692 B3       		.byte	0xb3
 2381 0693 B5070000 		.4byte	0x7b5
 2382 0697 1B       		.uleb128 0x1b
 2383 0698 5F7000   		.ascii	"_p\000"
 2384 069b 0E       		.byte	0xe
 2385 069c B4       		.byte	0xb4
 2386 069d 85060000 		.4byte	0x685
 2387 06a1 00       		.byte	0
 2388 06a2 1B       		.uleb128 0x1b
 2389 06a3 5F7200   		.ascii	"_r\000"
 2390 06a6 0E       		.byte	0xe
 2391 06a7 B5       		.byte	0xb5
 2392 06a8 94000000 		.4byte	0x94
 2393 06ac 04       		.byte	0x4
 2394 06ad 1B       		.uleb128 0x1b
 2395 06ae 5F7700   		.ascii	"_w\000"
 2396 06b1 0E       		.byte	0xe
 2397 06b2 B6       		.byte	0xb6
 2398 06b3 94000000 		.4byte	0x94
 2399 06b7 08       		.byte	0x8
 2400 06b8 16       		.uleb128 0x16
 2401 06b9 BC030000 		.4byte	.LASF112
 2402 06bd 0E       		.byte	0xe
 2403 06be B7       		.byte	0xb7
 2404 06bf 49000000 		.4byte	0x49
 2405 06c3 0C       		.byte	0xc
 2406 06c4 16       		.uleb128 0x16
 2407 06c5 AD010000 		.4byte	.LASF113
 2408 06c9 0E       		.byte	0xe
 2409 06ca B8       		.byte	0xb8
 2410 06cb 49000000 		.4byte	0x49
 2411 06cf 0E       		.byte	0xe
 2412 06d0 1B       		.uleb128 0x1b
 2413 06d1 5F626600 		.ascii	"_bf\000"
 2414 06d5 0E       		.byte	0xe
 2415 06d6 B9       		.byte	0xb9
 2416 06d7 60060000 		.4byte	0x660
 2417 06db 10       		.byte	0x10
 2418 06dc 16       		.uleb128 0x16
 2419 06dd 72090000 		.4byte	.LASF114
 2420 06e1 0E       		.byte	0xe
 2421 06e2 BA       		.byte	0xba
 2422 06e3 94000000 		.4byte	0x94
ARM GAS  /tmp/ccLnU1Hk.s 			page 75


 2423 06e7 18       		.byte	0x18
 2424 06e8 16       		.uleb128 0x16
 2425 06e9 A5030000 		.4byte	.LASF115
 2426 06ed 0E       		.byte	0xe
 2427 06ee C1       		.byte	0xc1
 2428 06ef B4040000 		.4byte	0x4b4
 2429 06f3 1C       		.byte	0x1c
 2430 06f4 16       		.uleb128 0x16
 2431 06f5 4E000000 		.4byte	.LASF116
 2432 06f9 0E       		.byte	0xe
 2433 06fa C3       		.byte	0xc3
 2434 06fb 10090000 		.4byte	0x910
 2435 06ff 20       		.byte	0x20
 2436 0700 16       		.uleb128 0x16
 2437 0701 71000000 		.4byte	.LASF117
 2438 0705 0E       		.byte	0xe
 2439 0706 C5       		.byte	0xc5
 2440 0707 3F090000 		.4byte	0x93f
 2441 070b 24       		.byte	0x24
 2442 070c 16       		.uleb128 0x16
 2443 070d 41070000 		.4byte	.LASF118
 2444 0711 0E       		.byte	0xe
 2445 0712 C8       		.byte	0xc8
 2446 0713 63090000 		.4byte	0x963
 2447 0717 28       		.byte	0x28
 2448 0718 16       		.uleb128 0x16
 2449 0719 21030000 		.4byte	.LASF119
 2450 071d 0E       		.byte	0xe
 2451 071e C9       		.byte	0xc9
 2452 071f 7D090000 		.4byte	0x97d
 2453 0723 2C       		.byte	0x2c
 2454 0724 1B       		.uleb128 0x1b
 2455 0725 5F756200 		.ascii	"_ub\000"
 2456 0729 0E       		.byte	0xe
 2457 072a CC       		.byte	0xcc
 2458 072b 60060000 		.4byte	0x660
 2459 072f 30       		.byte	0x30
 2460 0730 1B       		.uleb128 0x1b
 2461 0731 5F757000 		.ascii	"_up\000"
 2462 0735 0E       		.byte	0xe
 2463 0736 CD       		.byte	0xcd
 2464 0737 85060000 		.4byte	0x685
 2465 073b 38       		.byte	0x38
 2466 073c 1B       		.uleb128 0x1b
 2467 073d 5F757200 		.ascii	"_ur\000"
 2468 0741 0E       		.byte	0xe
 2469 0742 CE       		.byte	0xce
 2470 0743 94000000 		.4byte	0x94
 2471 0747 3C       		.byte	0x3c
 2472 0748 16       		.uleb128 0x16
 2473 0749 8D060000 		.4byte	.LASF120
 2474 074d 0E       		.byte	0xe
 2475 074e D1       		.byte	0xd1
 2476 074f 83090000 		.4byte	0x983
 2477 0753 40       		.byte	0x40
 2478 0754 16       		.uleb128 0x16
 2479 0755 EF000000 		.4byte	.LASF121
ARM GAS  /tmp/ccLnU1Hk.s 			page 76


 2480 0759 0E       		.byte	0xe
 2481 075a D2       		.byte	0xd2
 2482 075b 93090000 		.4byte	0x993
 2483 075f 43       		.byte	0x43
 2484 0760 1B       		.uleb128 0x1b
 2485 0761 5F6C6200 		.ascii	"_lb\000"
 2486 0765 0E       		.byte	0xe
 2487 0766 D5       		.byte	0xd5
 2488 0767 60060000 		.4byte	0x660
 2489 076b 44       		.byte	0x44
 2490 076c 16       		.uleb128 0x16
 2491 076d F0070000 		.4byte	.LASF122
 2492 0771 0E       		.byte	0xe
 2493 0772 D8       		.byte	0xd8
 2494 0773 94000000 		.4byte	0x94
 2495 0777 4C       		.byte	0x4c
 2496 0778 16       		.uleb128 0x16
 2497 0779 D3030000 		.4byte	.LASF123
 2498 077d 0E       		.byte	0xe
 2499 077e D9       		.byte	0xd9
 2500 077f 2C040000 		.4byte	0x42c
 2501 0783 50       		.byte	0x50
 2502 0784 16       		.uleb128 0x16
 2503 0785 6A080000 		.4byte	.LASF124
 2504 0789 0E       		.byte	0xe
 2505 078a DC       		.byte	0xdc
 2506 078b D3070000 		.4byte	0x7d3
 2507 078f 54       		.byte	0x54
 2508 0790 16       		.uleb128 0x16
 2509 0791 4A010000 		.4byte	.LASF125
 2510 0795 0E       		.byte	0xe
 2511 0796 E0       		.byte	0xe0
 2512 0797 A9040000 		.4byte	0x4a9
 2513 079b 58       		.byte	0x58
 2514 079c 16       		.uleb128 0x16
 2515 079d A9060000 		.4byte	.LASF126
 2516 07a1 0E       		.byte	0xe
 2517 07a2 E2       		.byte	0xe2
 2518 07a3 9E040000 		.4byte	0x49e
 2519 07a7 5C       		.byte	0x5c
 2520 07a8 16       		.uleb128 0x16
 2521 07a9 50040000 		.4byte	.LASF127
 2522 07ad 0E       		.byte	0xe
 2523 07ae E3       		.byte	0xe3
 2524 07af 94000000 		.4byte	0x94
 2525 07b3 64       		.byte	0x64
 2526 07b4 00       		.byte	0
 2527 07b5 1F       		.uleb128 0x1f
 2528 07b6 94000000 		.4byte	0x94
 2529 07ba D3070000 		.4byte	0x7d3
 2530 07be 20       		.uleb128 0x20
 2531 07bf D3070000 		.4byte	0x7d3
 2532 07c3 20       		.uleb128 0x20
 2533 07c4 B4040000 		.4byte	0x4b4
 2534 07c8 20       		.uleb128 0x20
 2535 07c9 B6040000 		.4byte	0x4b6
 2536 07cd 20       		.uleb128 0x20
ARM GAS  /tmp/ccLnU1Hk.s 			page 77


 2537 07ce 94000000 		.4byte	0x94
 2538 07d2 00       		.byte	0
 2539 07d3 18       		.uleb128 0x18
 2540 07d4 04       		.byte	0x4
 2541 07d5 DE070000 		.4byte	0x7de
 2542 07d9 19       		.uleb128 0x19
 2543 07da D3070000 		.4byte	0x7d3
 2544 07de 21       		.uleb128 0x21
 2545 07df F3020000 		.4byte	.LASF128
 2546 07e3 2804     		.2byte	0x428
 2547 07e5 0E       		.byte	0xe
 2548 07e6 3802     		.2byte	0x238
 2549 07e8 10090000 		.4byte	0x910
 2550 07ec 0E       		.uleb128 0xe
 2551 07ed 84040000 		.4byte	.LASF129
 2552 07f1 0E       		.byte	0xe
 2553 07f2 3A02     		.2byte	0x23a
 2554 07f4 94000000 		.4byte	0x94
 2555 07f8 00       		.byte	0
 2556 07f9 0E       		.uleb128 0xe
 2557 07fa 47030000 		.4byte	.LASF130
 2558 07fe 0E       		.byte	0xe
 2559 07ff 3F02     		.2byte	0x23f
 2560 0801 EA090000 		.4byte	0x9ea
 2561 0805 04       		.byte	0x4
 2562 0806 0E       		.uleb128 0xe
 2563 0807 D7070000 		.4byte	.LASF131
 2564 080b 0E       		.byte	0xe
 2565 080c 3F02     		.2byte	0x23f
 2566 080e EA090000 		.4byte	0x9ea
 2567 0812 08       		.byte	0x8
 2568 0813 0E       		.uleb128 0xe
 2569 0814 93060000 		.4byte	.LASF132
 2570 0818 0E       		.byte	0xe
 2571 0819 3F02     		.2byte	0x23f
 2572 081b EA090000 		.4byte	0x9ea
 2573 081f 0C       		.byte	0xc
 2574 0820 0E       		.uleb128 0xe
 2575 0821 7B090000 		.4byte	.LASF133
 2576 0825 0E       		.byte	0xe
 2577 0826 4102     		.2byte	0x241
 2578 0828 94000000 		.4byte	0x94
 2579 082c 10       		.byte	0x10
 2580 082d 0E       		.uleb128 0xe
 2581 082e 5D050000 		.4byte	.LASF134
 2582 0832 0E       		.byte	0xe
 2583 0833 4202     		.2byte	0x242
 2584 0835 CC0B0000 		.4byte	0xbcc
 2585 0839 14       		.byte	0x14
 2586 083a 0E       		.uleb128 0xe
 2587 083b 67020000 		.4byte	.LASF135
 2588 083f 0E       		.byte	0xe
 2589 0840 4402     		.2byte	0x244
 2590 0842 94000000 		.4byte	0x94
 2591 0846 30       		.byte	0x30
 2592 0847 0E       		.uleb128 0xe
 2593 0848 EE050000 		.4byte	.LASF136
ARM GAS  /tmp/ccLnU1Hk.s 			page 78


 2594 084c 0E       		.byte	0xe
 2595 084d 4502     		.2byte	0x245
 2596 084f 34090000 		.4byte	0x934
 2597 0853 34       		.byte	0x34
 2598 0854 0E       		.uleb128 0xe
 2599 0855 45040000 		.4byte	.LASF137
 2600 0859 0E       		.byte	0xe
 2601 085a 4702     		.2byte	0x247
 2602 085c 94000000 		.4byte	0x94
 2603 0860 38       		.byte	0x38
 2604 0861 0E       		.uleb128 0xe
 2605 0862 1E050000 		.4byte	.LASF138
 2606 0866 0E       		.byte	0xe
 2607 0867 4902     		.2byte	0x249
 2608 0869 E70B0000 		.4byte	0xbe7
 2609 086d 3C       		.byte	0x3c
 2610 086e 0E       		.uleb128 0xe
 2611 086f 280A0000 		.4byte	.LASF139
 2612 0873 0E       		.byte	0xe
 2613 0874 4C02     		.2byte	0x24c
 2614 0876 26050000 		.4byte	0x526
 2615 087a 40       		.byte	0x40
 2616 087b 0E       		.uleb128 0xe
 2617 087c 23020000 		.4byte	.LASF140
 2618 0880 0E       		.byte	0xe
 2619 0881 4D02     		.2byte	0x24d
 2620 0883 94000000 		.4byte	0x94
 2621 0887 44       		.byte	0x44
 2622 0888 0E       		.uleb128 0xe
 2623 0889 18040000 		.4byte	.LASF141
 2624 088d 0E       		.byte	0xe
 2625 088e 4E02     		.2byte	0x24e
 2626 0890 26050000 		.4byte	0x526
 2627 0894 48       		.byte	0x48
 2628 0895 0E       		.uleb128 0xe
 2629 0896 FE050000 		.4byte	.LASF142
 2630 089a 0E       		.byte	0xe
 2631 089b 4F02     		.2byte	0x24f
 2632 089d ED0B0000 		.4byte	0xbed
 2633 08a1 4C       		.byte	0x4c
 2634 08a2 0E       		.uleb128 0xe
 2635 08a3 8D000000 		.4byte	.LASF143
 2636 08a7 0E       		.byte	0xe
 2637 08a8 5202     		.2byte	0x252
 2638 08aa 94000000 		.4byte	0x94
 2639 08ae 50       		.byte	0x50
 2640 08af 0E       		.uleb128 0xe
 2641 08b0 DB030000 		.4byte	.LASF144
 2642 08b4 0E       		.byte	0xe
 2643 08b5 5302     		.2byte	0x253
 2644 08b7 B6040000 		.4byte	0x4b6
 2645 08bb 54       		.byte	0x54
 2646 08bc 0E       		.uleb128 0xe
 2647 08bd 88060000 		.4byte	.LASF145
 2648 08c1 0E       		.byte	0xe
 2649 08c2 7602     		.2byte	0x276
 2650 08c4 AA0B0000 		.4byte	0xbaa
ARM GAS  /tmp/ccLnU1Hk.s 			page 79


 2651 08c8 58       		.byte	0x58
 2652 08c9 22       		.uleb128 0x22
 2653 08ca DE060000 		.4byte	.LASF105
 2654 08ce 0E       		.byte	0xe
 2655 08cf 7A02     		.2byte	0x27a
 2656 08d1 43060000 		.4byte	0x643
 2657 08d5 4801     		.2byte	0x148
 2658 08d7 22       		.uleb128 0x22
 2659 08d8 39060000 		.4byte	.LASF146
 2660 08dc 0E       		.byte	0xe
 2661 08dd 7B02     		.2byte	0x27b
 2662 08df 05060000 		.4byte	0x605
 2663 08e3 4C01     		.2byte	0x14c
 2664 08e5 22       		.uleb128 0x22
 2665 08e6 B2030000 		.4byte	.LASF147
 2666 08ea 0E       		.byte	0xe
 2667 08eb 7F02     		.2byte	0x27f
 2668 08ed FE0B0000 		.4byte	0xbfe
 2669 08f1 DC02     		.2byte	0x2dc
 2670 08f3 22       		.uleb128 0x22
 2671 08f4 99050000 		.4byte	.LASF148
 2672 08f8 0E       		.byte	0xe
 2673 08f9 8402     		.2byte	0x284
 2674 08fb AF090000 		.4byte	0x9af
 2675 08ff E002     		.2byte	0x2e0
 2676 0901 22       		.uleb128 0x22
 2677 0902 3F000000 		.4byte	.LASF149
 2678 0906 0E       		.byte	0xe
 2679 0907 8502     		.2byte	0x285
 2680 0909 0A0C0000 		.4byte	0xc0a
 2681 090d EC02     		.2byte	0x2ec
 2682 090f 00       		.byte	0
 2683 0910 18       		.uleb128 0x18
 2684 0911 04       		.byte	0x4
 2685 0912 B5070000 		.4byte	0x7b5
 2686 0916 1F       		.uleb128 0x1f
 2687 0917 94000000 		.4byte	0x94
 2688 091b 34090000 		.4byte	0x934
 2689 091f 20       		.uleb128 0x20
 2690 0920 D3070000 		.4byte	0x7d3
 2691 0924 20       		.uleb128 0x20
 2692 0925 B4040000 		.4byte	0x4b4
 2693 0929 20       		.uleb128 0x20
 2694 092a 34090000 		.4byte	0x934
 2695 092e 20       		.uleb128 0x20
 2696 092f 94000000 		.4byte	0x94
 2697 0933 00       		.byte	0
 2698 0934 18       		.uleb128 0x18
 2699 0935 04       		.byte	0x4
 2700 0936 C3040000 		.4byte	0x4c3
 2701 093a 19       		.uleb128 0x19
 2702 093b 34090000 		.4byte	0x934
 2703 093f 18       		.uleb128 0x18
 2704 0940 04       		.byte	0x4
 2705 0941 16090000 		.4byte	0x916
 2706 0945 1F       		.uleb128 0x1f
 2707 0946 37040000 		.4byte	0x437
ARM GAS  /tmp/ccLnU1Hk.s 			page 80


 2708 094a 63090000 		.4byte	0x963
 2709 094e 20       		.uleb128 0x20
 2710 094f D3070000 		.4byte	0x7d3
 2711 0953 20       		.uleb128 0x20
 2712 0954 B4040000 		.4byte	0x4b4
 2713 0958 20       		.uleb128 0x20
 2714 0959 37040000 		.4byte	0x437
 2715 095d 20       		.uleb128 0x20
 2716 095e 94000000 		.4byte	0x94
 2717 0962 00       		.byte	0
 2718 0963 18       		.uleb128 0x18
 2719 0964 04       		.byte	0x4
 2720 0965 45090000 		.4byte	0x945
 2721 0969 1F       		.uleb128 0x1f
 2722 096a 94000000 		.4byte	0x94
 2723 096e 7D090000 		.4byte	0x97d
 2724 0972 20       		.uleb128 0x20
 2725 0973 D3070000 		.4byte	0x7d3
 2726 0977 20       		.uleb128 0x20
 2727 0978 B4040000 		.4byte	0x4b4
 2728 097c 00       		.byte	0
 2729 097d 18       		.uleb128 0x18
 2730 097e 04       		.byte	0x4
 2731 097f 69090000 		.4byte	0x969
 2732 0983 11       		.uleb128 0x11
 2733 0984 37000000 		.4byte	0x37
 2734 0988 93090000 		.4byte	0x993
 2735 098c 12       		.uleb128 0x12
 2736 098d E8000000 		.4byte	0xe8
 2737 0991 02       		.byte	0x2
 2738 0992 00       		.byte	0
 2739 0993 11       		.uleb128 0x11
 2740 0994 37000000 		.4byte	0x37
 2741 0998 A3090000 		.4byte	0x9a3
 2742 099c 12       		.uleb128 0x12
 2743 099d E8000000 		.4byte	0xe8
 2744 09a1 00       		.byte	0
 2745 09a2 00       		.byte	0
 2746 09a3 0B       		.uleb128 0xb
 2747 09a4 24080000 		.4byte	.LASF150
 2748 09a8 0E       		.byte	0xe
 2749 09a9 1D01     		.2byte	0x11d
 2750 09ab 8B060000 		.4byte	0x68b
 2751 09af 23       		.uleb128 0x23
 2752 09b0 0E060000 		.4byte	.LASF151
 2753 09b4 0C       		.byte	0xc
 2754 09b5 0E       		.byte	0xe
 2755 09b6 2101     		.2byte	0x121
 2756 09b8 E4090000 		.4byte	0x9e4
 2757 09bc 0E       		.uleb128 0xe
 2758 09bd 52080000 		.4byte	.LASF85
 2759 09c1 0E       		.byte	0xe
 2760 09c2 2301     		.2byte	0x123
 2761 09c4 E4090000 		.4byte	0x9e4
 2762 09c8 00       		.byte	0
 2763 09c9 0E       		.uleb128 0xe
 2764 09ca 85050000 		.4byte	.LASF152
ARM GAS  /tmp/ccLnU1Hk.s 			page 81


 2765 09ce 0E       		.byte	0xe
 2766 09cf 2401     		.2byte	0x124
 2767 09d1 94000000 		.4byte	0x94
 2768 09d5 04       		.byte	0x4
 2769 09d6 0E       		.uleb128 0xe
 2770 09d7 08060000 		.4byte	.LASF153
 2771 09db 0E       		.byte	0xe
 2772 09dc 2501     		.2byte	0x125
 2773 09de EA090000 		.4byte	0x9ea
 2774 09e2 08       		.byte	0x8
 2775 09e3 00       		.byte	0
 2776 09e4 18       		.uleb128 0x18
 2777 09e5 04       		.byte	0x4
 2778 09e6 AF090000 		.4byte	0x9af
 2779 09ea 18       		.uleb128 0x18
 2780 09eb 04       		.byte	0x4
 2781 09ec A3090000 		.4byte	0x9a3
 2782 09f0 23       		.uleb128 0x23
 2783 09f1 C4070000 		.4byte	.LASF154
 2784 09f5 0E       		.byte	0xe
 2785 09f6 0E       		.byte	0xe
 2786 09f7 3D01     		.2byte	0x13d
 2787 09f9 250A0000 		.4byte	0xa25
 2788 09fd 0E       		.uleb128 0xe
 2789 09fe 3B070000 		.4byte	.LASF155
 2790 0a02 0E       		.byte	0xe
 2791 0a03 3E01     		.2byte	0x13e
 2792 0a05 250A0000 		.4byte	0xa25
 2793 0a09 00       		.byte	0
 2794 0a0a 0E       		.uleb128 0xe
 2795 0a0b 50010000 		.4byte	.LASF156
 2796 0a0f 0E       		.byte	0xe
 2797 0a10 3F01     		.2byte	0x13f
 2798 0a12 250A0000 		.4byte	0xa25
 2799 0a16 06       		.byte	0x6
 2800 0a17 0E       		.uleb128 0xe
 2801 0a18 450A0000 		.4byte	.LASF157
 2802 0a1c 0E       		.byte	0xe
 2803 0a1d 4001     		.2byte	0x140
 2804 0a1f 5B000000 		.4byte	0x5b
 2805 0a23 0C       		.byte	0xc
 2806 0a24 00       		.byte	0
 2807 0a25 11       		.uleb128 0x11
 2808 0a26 5B000000 		.4byte	0x5b
 2809 0a2a 350A0000 		.4byte	0xa35
 2810 0a2e 12       		.uleb128 0x12
 2811 0a2f E8000000 		.4byte	0xe8
 2812 0a33 02       		.byte	0x2
 2813 0a34 00       		.byte	0
 2814 0a35 0C       		.uleb128 0xc
 2815 0a36 D0       		.byte	0xd0
 2816 0a37 0E       		.byte	0xe
 2817 0a38 5702     		.2byte	0x257
 2818 0a3a 360B0000 		.4byte	0xb36
 2819 0a3e 0E       		.uleb128 0xe
 2820 0a3f 7E020000 		.4byte	.LASF158
 2821 0a43 0E       		.byte	0xe
ARM GAS  /tmp/ccLnU1Hk.s 			page 82


 2822 0a44 5902     		.2byte	0x259
 2823 0a46 9B000000 		.4byte	0x9b
 2824 0a4a 00       		.byte	0
 2825 0a4b 0E       		.uleb128 0xe
 2826 0a4c FF070000 		.4byte	.LASF159
 2827 0a50 0E       		.byte	0xe
 2828 0a51 5A02     		.2byte	0x25a
 2829 0a53 B6040000 		.4byte	0x4b6
 2830 0a57 04       		.byte	0x4
 2831 0a58 0E       		.uleb128 0xe
 2832 0a59 80000000 		.4byte	.LASF160
 2833 0a5d 0E       		.byte	0xe
 2834 0a5e 5B02     		.2byte	0x25b
 2835 0a60 360B0000 		.4byte	0xb36
 2836 0a64 08       		.byte	0x8
 2837 0a65 0E       		.uleb128 0xe
 2838 0a66 34020000 		.4byte	.LASF161
 2839 0a6a 0E       		.byte	0xe
 2840 0a6b 5C02     		.2byte	0x25c
 2841 0a6d 3C050000 		.4byte	0x53c
 2842 0a71 24       		.byte	0x24
 2843 0a72 0E       		.uleb128 0xe
 2844 0a73 BD050000 		.4byte	.LASF162
 2845 0a77 0E       		.byte	0xe
 2846 0a78 5D02     		.2byte	0x25d
 2847 0a7a 94000000 		.4byte	0x94
 2848 0a7e 48       		.byte	0x48
 2849 0a7f 0E       		.uleb128 0xe
 2850 0a80 C8060000 		.4byte	.LASF163
 2851 0a84 0E       		.byte	0xe
 2852 0a85 5E02     		.2byte	0x25e
 2853 0a87 8D000000 		.4byte	0x8d
 2854 0a8b 50       		.byte	0x50
 2855 0a8c 0E       		.uleb128 0xe
 2856 0a8d 46080000 		.4byte	.LASF164
 2857 0a91 0E       		.byte	0xe
 2858 0a92 5F02     		.2byte	0x25f
 2859 0a94 F0090000 		.4byte	0x9f0
 2860 0a98 58       		.byte	0x58
 2861 0a99 0E       		.uleb128 0xe
 2862 0a9a BA080000 		.4byte	.LASF165
 2863 0a9e 0E       		.byte	0xe
 2864 0a9f 6002     		.2byte	0x260
 2865 0aa1 9E040000 		.4byte	0x49e
 2866 0aa5 68       		.byte	0x68
 2867 0aa6 0E       		.uleb128 0xe
 2868 0aa7 68070000 		.4byte	.LASF166
 2869 0aab 0E       		.byte	0xe
 2870 0aac 6102     		.2byte	0x261
 2871 0aae 9E040000 		.4byte	0x49e
 2872 0ab2 70       		.byte	0x70
 2873 0ab3 0E       		.uleb128 0xe
 2874 0ab4 9B060000 		.4byte	.LASF167
 2875 0ab8 0E       		.byte	0xe
 2876 0ab9 6202     		.2byte	0x262
 2877 0abb 9E040000 		.4byte	0x49e
 2878 0abf 78       		.byte	0x78
ARM GAS  /tmp/ccLnU1Hk.s 			page 83


 2879 0ac0 0E       		.uleb128 0xe
 2880 0ac1 FE000000 		.4byte	.LASF168
 2881 0ac5 0E       		.byte	0xe
 2882 0ac6 6302     		.2byte	0x263
 2883 0ac8 460B0000 		.4byte	0xb46
 2884 0acc 80       		.byte	0x80
 2885 0acd 0E       		.uleb128 0xe
 2886 0ace A7040000 		.4byte	.LASF169
 2887 0ad2 0E       		.byte	0xe
 2888 0ad3 6402     		.2byte	0x264
 2889 0ad5 560B0000 		.4byte	0xb56
 2890 0ad9 88       		.byte	0x88
 2891 0ada 0E       		.uleb128 0xe
 2892 0adb E80A0000 		.4byte	.LASF170
 2893 0adf 0E       		.byte	0xe
 2894 0ae0 6502     		.2byte	0x265
 2895 0ae2 94000000 		.4byte	0x94
 2896 0ae6 A0       		.byte	0xa0
 2897 0ae7 0E       		.uleb128 0xe
 2898 0ae8 EC010000 		.4byte	.LASF171
 2899 0aec 0E       		.byte	0xe
 2900 0aed 6602     		.2byte	0x266
 2901 0aef 9E040000 		.4byte	0x49e
 2902 0af3 A4       		.byte	0xa4
 2903 0af4 0E       		.uleb128 0xe
 2904 0af5 0C080000 		.4byte	.LASF172
 2905 0af9 0E       		.byte	0xe
 2906 0afa 6702     		.2byte	0x267
 2907 0afc 9E040000 		.4byte	0x49e
 2908 0b00 AC       		.byte	0xac
 2909 0b01 0E       		.uleb128 0xe
 2910 0b02 900A0000 		.4byte	.LASF173
 2911 0b06 0E       		.byte	0xe
 2912 0b07 6802     		.2byte	0x268
 2913 0b09 9E040000 		.4byte	0x49e
 2914 0b0d B4       		.byte	0xb4
 2915 0b0e 0E       		.uleb128 0xe
 2916 0b0f 6F060000 		.4byte	.LASF174
 2917 0b13 0E       		.byte	0xe
 2918 0b14 6902     		.2byte	0x269
 2919 0b16 9E040000 		.4byte	0x49e
 2920 0b1a BC       		.byte	0xbc
 2921 0b1b 0E       		.uleb128 0xe
 2922 0b1c DE000000 		.4byte	.LASF175
 2923 0b20 0E       		.byte	0xe
 2924 0b21 6A02     		.2byte	0x26a
 2925 0b23 9E040000 		.4byte	0x49e
 2926 0b27 C4       		.byte	0xc4
 2927 0b28 0E       		.uleb128 0xe
 2928 0b29 58060000 		.4byte	.LASF176
 2929 0b2d 0E       		.byte	0xe
 2930 0b2e 6B02     		.2byte	0x26b
 2931 0b30 94000000 		.4byte	0x94
 2932 0b34 CC       		.byte	0xcc
 2933 0b35 00       		.byte	0
 2934 0b36 11       		.uleb128 0x11
 2935 0b37 BC040000 		.4byte	0x4bc
ARM GAS  /tmp/ccLnU1Hk.s 			page 84


 2936 0b3b 460B0000 		.4byte	0xb46
 2937 0b3f 12       		.uleb128 0x12
 2938 0b40 E8000000 		.4byte	0xe8
 2939 0b44 19       		.byte	0x19
 2940 0b45 00       		.byte	0
 2941 0b46 11       		.uleb128 0x11
 2942 0b47 BC040000 		.4byte	0x4bc
 2943 0b4b 560B0000 		.4byte	0xb56
 2944 0b4f 12       		.uleb128 0x12
 2945 0b50 E8000000 		.4byte	0xe8
 2946 0b54 07       		.byte	0x7
 2947 0b55 00       		.byte	0
 2948 0b56 11       		.uleb128 0x11
 2949 0b57 BC040000 		.4byte	0x4bc
 2950 0b5b 660B0000 		.4byte	0xb66
 2951 0b5f 12       		.uleb128 0x12
 2952 0b60 E8000000 		.4byte	0xe8
 2953 0b64 17       		.byte	0x17
 2954 0b65 00       		.byte	0
 2955 0b66 0C       		.uleb128 0xc
 2956 0b67 F0       		.byte	0xf0
 2957 0b68 0E       		.byte	0xe
 2958 0b69 7002     		.2byte	0x270
 2959 0b6b 8A0B0000 		.4byte	0xb8a
 2960 0b6f 0E       		.uleb128 0xe
 2961 0b70 B2090000 		.4byte	.LASF177
 2962 0b74 0E       		.byte	0xe
 2963 0b75 7302     		.2byte	0x273
 2964 0b77 8A0B0000 		.4byte	0xb8a
 2965 0b7b 00       		.byte	0
 2966 0b7c 0E       		.uleb128 0xe
 2967 0b7d AD050000 		.4byte	.LASF178
 2968 0b81 0E       		.byte	0xe
 2969 0b82 7402     		.2byte	0x274
 2970 0b84 9A0B0000 		.4byte	0xb9a
 2971 0b88 78       		.byte	0x78
 2972 0b89 00       		.byte	0
 2973 0b8a 11       		.uleb128 0x11
 2974 0b8b 85060000 		.4byte	0x685
 2975 0b8f 9A0B0000 		.4byte	0xb9a
 2976 0b93 12       		.uleb128 0x12
 2977 0b94 E8000000 		.4byte	0xe8
 2978 0b98 1D       		.byte	0x1d
 2979 0b99 00       		.byte	0
 2980 0b9a 11       		.uleb128 0x11
 2981 0b9b 9B000000 		.4byte	0x9b
 2982 0b9f AA0B0000 		.4byte	0xbaa
 2983 0ba3 12       		.uleb128 0x12
 2984 0ba4 E8000000 		.4byte	0xe8
 2985 0ba8 1D       		.byte	0x1d
 2986 0ba9 00       		.byte	0
 2987 0baa 24       		.uleb128 0x24
 2988 0bab F0       		.byte	0xf0
 2989 0bac 0E       		.byte	0xe
 2990 0bad 5502     		.2byte	0x255
 2991 0baf CC0B0000 		.4byte	0xbcc
 2992 0bb3 25       		.uleb128 0x25
ARM GAS  /tmp/ccLnU1Hk.s 			page 85


 2993 0bb4 F3020000 		.4byte	.LASF128
 2994 0bb8 0E       		.byte	0xe
 2995 0bb9 6C02     		.2byte	0x26c
 2996 0bbb 350A0000 		.4byte	0xa35
 2997 0bbf 25       		.uleb128 0x25
 2998 0bc0 D1000000 		.4byte	.LASF179
 2999 0bc4 0E       		.byte	0xe
 3000 0bc5 7502     		.2byte	0x275
 3001 0bc7 660B0000 		.4byte	0xb66
 3002 0bcb 00       		.byte	0
 3003 0bcc 11       		.uleb128 0x11
 3004 0bcd BC040000 		.4byte	0x4bc
 3005 0bd1 DC0B0000 		.4byte	0xbdc
 3006 0bd5 12       		.uleb128 0x12
 3007 0bd6 E8000000 		.4byte	0xe8
 3008 0bda 18       		.byte	0x18
 3009 0bdb 00       		.byte	0
 3010 0bdc 26       		.uleb128 0x26
 3011 0bdd E70B0000 		.4byte	0xbe7
 3012 0be1 20       		.uleb128 0x20
 3013 0be2 D3070000 		.4byte	0x7d3
 3014 0be6 00       		.byte	0
 3015 0be7 18       		.uleb128 0x18
 3016 0be8 04       		.byte	0x4
 3017 0be9 DC0B0000 		.4byte	0xbdc
 3018 0bed 18       		.uleb128 0x18
 3019 0bee 04       		.byte	0x4
 3020 0bef 26050000 		.4byte	0x526
 3021 0bf3 26       		.uleb128 0x26
 3022 0bf4 FE0B0000 		.4byte	0xbfe
 3023 0bf8 20       		.uleb128 0x20
 3024 0bf9 94000000 		.4byte	0x94
 3025 0bfd 00       		.byte	0
 3026 0bfe 18       		.uleb128 0x18
 3027 0bff 04       		.byte	0x4
 3028 0c00 040C0000 		.4byte	0xc04
 3029 0c04 18       		.uleb128 0x18
 3030 0c05 04       		.byte	0x4
 3031 0c06 F30B0000 		.4byte	0xbf3
 3032 0c0a 11       		.uleb128 0x11
 3033 0c0b A3090000 		.4byte	0x9a3
 3034 0c0f 1A0C0000 		.4byte	0xc1a
 3035 0c13 12       		.uleb128 0x12
 3036 0c14 E8000000 		.4byte	0xe8
 3037 0c18 02       		.byte	0x2
 3038 0c19 00       		.byte	0
 3039 0c1a 06       		.uleb128 0x6
 3040 0c1b 17020000 		.4byte	.LASF180
 3041 0c1f 0E       		.byte	0xe
 3042 0c20 FD02     		.2byte	0x2fd
 3043 0c22 D3070000 		.4byte	0x7d3
 3044 0c26 06       		.uleb128 0x6
 3045 0c27 FA020000 		.4byte	.LASF181
 3046 0c2b 0E       		.byte	0xe
 3047 0c2c FE02     		.2byte	0x2fe
 3048 0c2e D9070000 		.4byte	0x7d9
 3049 0c32 07       		.uleb128 0x7
ARM GAS  /tmp/ccLnU1Hk.s 			page 86


 3050 0c33 FD080000 		.4byte	.LASF182
 3051 0c37 0F       		.byte	0xf
 3052 0c38 5F       		.byte	0x5f
 3053 0c39 B6040000 		.4byte	0x4b6
 3054 0c3d 02       		.uleb128 0x2
 3055 0c3e 08       		.byte	0x8
 3056 0c3f 04       		.byte	0x4
 3057 0c40 B6050000 		.4byte	.LASF183
 3058 0c44 27       		.uleb128 0x27
 3059 0c45 DF070000 		.4byte	.LASF245
 3060 0c49 01       		.byte	0x1
 3061 0c4a 25000000 		.4byte	0x25
 3062 0c4e 10       		.byte	0x10
 3063 0c4f 9902     		.2byte	0x299
 3064 0c51 6E0C0000 		.4byte	0xc6e
 3065 0c55 28       		.uleb128 0x28
 3066 0c56 95090000 		.4byte	.LASF184
 3067 0c5a 7F       		.sleb128 -1
 3068 0c5b 09       		.uleb128 0x9
 3069 0c5c 44050000 		.4byte	.LASF185
 3070 0c60 00       		.byte	0
 3071 0c61 09       		.uleb128 0x9
 3072 0c62 D1080000 		.4byte	.LASF186
 3073 0c66 01       		.byte	0x1
 3074 0c67 09       		.uleb128 0x9
 3075 0c68 A1080000 		.4byte	.LASF187
 3076 0c6c 02       		.byte	0x2
 3077 0c6d 00       		.byte	0
 3078 0c6e 06       		.uleb128 0x6
 3079 0c6f F3030000 		.4byte	.LASF188
 3080 0c73 10       		.byte	0x10
 3081 0c74 A402     		.2byte	0x2a4
 3082 0c76 440C0000 		.4byte	0xc44
 3083 0c7a 11       		.uleb128 0x11
 3084 0c7b 3A090000 		.4byte	0x93a
 3085 0c7f 850C0000 		.4byte	0xc85
 3086 0c83 29       		.uleb128 0x29
 3087 0c84 00       		.byte	0
 3088 0c85 19       		.uleb128 0x19
 3089 0c86 7A0C0000 		.4byte	0xc7a
 3090 0c8a 07       		.uleb128 0x7
 3091 0c8b B3040000 		.4byte	.LASF189
 3092 0c8f 11       		.byte	0x11
 3093 0c90 14       		.byte	0x14
 3094 0c91 850C0000 		.4byte	0xc85
 3095 0c95 07       		.uleb128 0x7
 3096 0c96 E2010000 		.4byte	.LASF190
 3097 0c9a 11       		.byte	0x11
 3098 0c9b 15       		.byte	0x15
 3099 0c9c 94000000 		.4byte	0x94
 3100 0ca0 2A       		.uleb128 0x2a
 3101 0ca1 080A0000 		.4byte	.LASF191
 3102 0ca5 07       		.byte	0x7
 3103 0ca6 8D01     		.2byte	0x18d
 3104 0ca8 83020000 		.4byte	0x283
 3105 0cac 60050000 		.4byte	.LFB90
 3106 0cb0 28000000 		.4byte	.LFE90-.LFB90
ARM GAS  /tmp/ccLnU1Hk.s 			page 87


 3107 0cb4 01       		.uleb128 0x1
 3108 0cb5 9C       		.byte	0x9c
 3109 0cb6 ED0C0000 		.4byte	0xced
 3110 0cba 2B       		.uleb128 0x2b
 3111 0cbb 4E030000 		.4byte	.LASF193
 3112 0cbf 01       		.byte	0x1
 3113 0cc0 5806     		.2byte	0x658
 3114 0cc2 D8000000 		.4byte	0xd8
 3115 0cc6 00000000 		.4byte	.LLST39
 3116 0cca 2C       		.uleb128 0x2c
 3117 0ccb CF090000 		.4byte	.LASF194
 3118 0ccf 01       		.byte	0x1
 3119 0cd0 5A06     		.2byte	0x65a
 3120 0cd2 83020000 		.4byte	0x283
 3121 0cd6 1E000000 		.4byte	.LLST40
 3122 0cda 2D       		.uleb128 0x2d
 3123 0cdb 68050000 		.4byte	.LVL125
 3124 0cdf 3A0D0000 		.4byte	0xd3a
 3125 0ce3 2D       		.uleb128 0x2d
 3126 0ce4 72050000 		.4byte	.LVL127
 3127 0ce8 3A0D0000 		.4byte	0xd3a
 3128 0cec 00       		.byte	0
 3129 0ced 2A       		.uleb128 0x2a
 3130 0cee 7B080000 		.4byte	.LASF192
 3131 0cf2 07       		.byte	0x7
 3132 0cf3 8601     		.2byte	0x186
 3133 0cf5 83020000 		.4byte	0x283
 3134 0cf9 7C010000 		.4byte	.LFB89
 3135 0cfd 28000000 		.4byte	.LFE89-.LFB89
 3136 0d01 01       		.uleb128 0x1
 3137 0d02 9C       		.byte	0x9c
 3138 0d03 3A0D0000 		.4byte	0xd3a
 3139 0d07 2B       		.uleb128 0x2b
 3140 0d08 4E030000 		.4byte	.LASF193
 3141 0d0c 01       		.byte	0x1
 3142 0d0d 3C06     		.2byte	0x63c
 3143 0d0f D8000000 		.4byte	0xd8
 3144 0d13 6B000000 		.4byte	.LLST11
 3145 0d17 2C       		.uleb128 0x2c
 3146 0d18 CF090000 		.4byte	.LASF194
 3147 0d1c 01       		.byte	0x1
 3148 0d1d 3E06     		.2byte	0x63e
 3149 0d1f 83020000 		.4byte	0x283
 3150 0d23 89000000 		.4byte	.LLST12
 3151 0d27 2D       		.uleb128 0x2d
 3152 0d28 84010000 		.4byte	.LVL32
 3153 0d2c 3A0D0000 		.4byte	0xd3a
 3154 0d30 2D       		.uleb128 0x2d
 3155 0d31 8E010000 		.4byte	.LVL34
 3156 0d35 3A0D0000 		.4byte	0xd3a
 3157 0d39 00       		.byte	0
 3158 0d3a 2A       		.uleb128 0x2a
 3159 0d3b EA090000 		.4byte	.LASF195
 3160 0d3f 07       		.byte	0x7
 3161 0d40 8C01     		.2byte	0x18c
 3162 0d42 83020000 		.4byte	0x283
 3163 0d46 48010000 		.4byte	.LFB88
ARM GAS  /tmp/ccLnU1Hk.s 			page 88


 3164 0d4a 34000000 		.4byte	.LFE88-.LFB88
 3165 0d4e 01       		.uleb128 0x1
 3166 0d4f 9C       		.byte	0x9c
 3167 0d50 650D0000 		.4byte	0xd65
 3168 0d54 2C       		.uleb128 0x2c
 3169 0d55 66090000 		.4byte	.LASF196
 3170 0d59 01       		.byte	0x1
 3171 0d5a EE05     		.2byte	0x5ee
 3172 0d5c 83020000 		.4byte	0x283
 3173 0d60 D6000000 		.4byte	.LLST10
 3174 0d64 00       		.byte	0
 3175 0d65 2A       		.uleb128 0x2a
 3176 0d66 C3030000 		.4byte	.LASF197
 3177 0d6a 07       		.byte	0x7
 3178 0d6b 8501     		.2byte	0x185
 3179 0d6d 83020000 		.4byte	0x283
 3180 0d71 14010000 		.4byte	.LFB87
 3181 0d75 34000000 		.4byte	.LFE87-.LFB87
 3182 0d79 01       		.uleb128 0x1
 3183 0d7a 9C       		.byte	0x9c
 3184 0d7b 900D0000 		.4byte	0xd90
 3185 0d7f 2C       		.uleb128 0x2c
 3186 0d80 66090000 		.4byte	.LASF196
 3187 0d84 01       		.byte	0x1
 3188 0d85 C805     		.2byte	0x5c8
 3189 0d87 83020000 		.4byte	0x283
 3190 0d8b 01010000 		.4byte	.LLST9
 3191 0d8f 00       		.byte	0
 3192 0d90 2E       		.uleb128 0x2e
 3193 0d91 85090000 		.4byte	.LASF201
 3194 0d95 07       		.byte	0x7
 3195 0d96 8401     		.2byte	0x184
 3196 0d98 08010000 		.4byte	.LFB86
 3197 0d9c 0C000000 		.4byte	.LFE86-.LFB86
 3198 0da0 01       		.uleb128 0x1
 3199 0da1 9C       		.byte	0x9c
 3200 0da2 B50D0000 		.4byte	0xdb5
 3201 0da6 2F       		.uleb128 0x2f
 3202 0da7 96080000 		.4byte	.LASF198
 3203 0dab 01       		.byte	0x1
 3204 0dac A405     		.2byte	0x5a4
 3205 0dae D8000000 		.4byte	0xd8
 3206 0db2 01       		.uleb128 0x1
 3207 0db3 50       		.byte	0x50
 3208 0db4 00       		.byte	0
 3209 0db5 2A       		.uleb128 0x2a
 3210 0db6 10090000 		.4byte	.LASF199
 3211 0dba 07       		.byte	0x7
 3212 0dbb 8301     		.2byte	0x183
 3213 0dbd 20010000 		.4byte	0x120
 3214 0dc1 E8000000 		.4byte	.LFB85
 3215 0dc5 20000000 		.4byte	.LFE85-.LFB85
 3216 0dc9 01       		.uleb128 0x1
 3217 0dca 9C       		.byte	0x9c
 3218 0dcb F00D0000 		.4byte	0xdf0
 3219 0dcf 2B       		.uleb128 0x2b
 3220 0dd0 96080000 		.4byte	.LASF198
ARM GAS  /tmp/ccLnU1Hk.s 			page 89


 3221 0dd4 01       		.byte	0x1
 3222 0dd5 4E05     		.2byte	0x54e
 3223 0dd7 D8000000 		.4byte	0xd8
 3224 0ddb 2C010000 		.4byte	.LLST7
 3225 0ddf 2C       		.uleb128 0x2c
 3226 0de0 68040000 		.4byte	.LASF200
 3227 0de4 01       		.byte	0x1
 3228 0de5 5005     		.2byte	0x550
 3229 0de7 20010000 		.4byte	0x120
 3230 0deb 66010000 		.4byte	.LLST8
 3231 0def 00       		.byte	0
 3232 0df0 2E       		.uleb128 0x2e
 3233 0df1 8D030000 		.4byte	.LASF202
 3234 0df5 07       		.byte	0x7
 3235 0df6 8201     		.2byte	0x182
 3236 0df8 CC000000 		.4byte	.LFB84
 3237 0dfc 1C000000 		.4byte	.LFE84-.LFB84
 3238 0e00 01       		.uleb128 0x1
 3239 0e01 9C       		.byte	0x9c
 3240 0e02 250E0000 		.4byte	0xe25
 3241 0e06 2B       		.uleb128 0x2b
 3242 0e07 3E030000 		.4byte	.LASF203
 3243 0e0b 01       		.byte	0x1
 3244 0e0c 0B05     		.2byte	0x50b
 3245 0e0e D8000000 		.4byte	0xd8
 3246 0e12 91010000 		.4byte	.LLST6
 3247 0e16 2F       		.uleb128 0x2f
 3248 0e17 4F060000 		.4byte	.LASF204
 3249 0e1b 01       		.byte	0x1
 3250 0e1c 0B05     		.2byte	0x50b
 3251 0e1e 46010000 		.4byte	0x146
 3252 0e22 01       		.uleb128 0x1
 3253 0e23 51       		.byte	0x51
 3254 0e24 00       		.byte	0
 3255 0e25 2A       		.uleb128 0x2a
 3256 0e26 56030000 		.4byte	.LASF205
 3257 0e2a 07       		.byte	0x7
 3258 0e2b 8101     		.2byte	0x181
 3259 0e2d 20010000 		.4byte	0x120
 3260 0e31 BC000000 		.4byte	.LFB83
 3261 0e35 10000000 		.4byte	.LFE83-.LFB83
 3262 0e39 01       		.uleb128 0x1
 3263 0e3a 9C       		.byte	0x9c
 3264 0e3b 500E0000 		.4byte	0xe50
 3265 0e3f 2C       		.uleb128 0x2c
 3266 0e40 68040000 		.4byte	.LASF200
 3267 0e44 01       		.byte	0x1
 3268 0e45 EF04     		.2byte	0x4ef
 3269 0e47 20010000 		.4byte	0x120
 3270 0e4b CB010000 		.4byte	.LLST5
 3271 0e4f 00       		.byte	0
 3272 0e50 2A       		.uleb128 0x2a
 3273 0e51 C1010000 		.4byte	.LASF206
 3274 0e55 07       		.byte	0x7
 3275 0e56 8001     		.2byte	0x180
 3276 0e58 20010000 		.4byte	0x120
 3277 0e5c AC000000 		.4byte	.LFB82
ARM GAS  /tmp/ccLnU1Hk.s 			page 90


 3278 0e60 10000000 		.4byte	.LFE82-.LFB82
 3279 0e64 01       		.uleb128 0x1
 3280 0e65 9C       		.byte	0x9c
 3281 0e66 7B0E0000 		.4byte	0xe7b
 3282 0e6a 2C       		.uleb128 0x2c
 3283 0e6b 61060000 		.4byte	.LASF207
 3284 0e6f 01       		.byte	0x1
 3285 0e70 DB04     		.2byte	0x4db
 3286 0e72 20010000 		.4byte	0x120
 3287 0e76 F1010000 		.4byte	.LLST4
 3288 0e7a 00       		.byte	0
 3289 0e7b 30       		.uleb128 0x30
 3290 0e7c 4A0A0000 		.4byte	.LASF208
 3291 0e80 07       		.byte	0x7
 3292 0e81 7F01     		.2byte	0x17f
 3293 0e83 D8000000 		.4byte	0xd8
 3294 0e87 A0000000 		.4byte	.LFB81
 3295 0e8b 0C000000 		.4byte	.LFE81-.LFB81
 3296 0e8f 01       		.uleb128 0x1
 3297 0e90 9C       		.byte	0x9c
 3298 0e91 30       		.uleb128 0x30
 3299 0e92 32010000 		.4byte	.LASF209
 3300 0e96 07       		.byte	0x7
 3301 0e97 7E01     		.2byte	0x17e
 3302 0e99 D8000000 		.4byte	0xd8
 3303 0e9d 94000000 		.4byte	.LFB80
 3304 0ea1 0C000000 		.4byte	.LFE80-.LFB80
 3305 0ea5 01       		.uleb128 0x1
 3306 0ea6 9C       		.byte	0x9c
 3307 0ea7 2A       		.uleb128 0x2a
 3308 0ea8 35090000 		.4byte	.LASF210
 3309 0eac 07       		.byte	0x7
 3310 0ead 7D01     		.2byte	0x17d
 3311 0eaf 83020000 		.4byte	0x283
 3312 0eb3 00050000 		.4byte	.LFB79
 3313 0eb7 60000000 		.4byte	.LFE79-.LFB79
 3314 0ebb 01       		.uleb128 0x1
 3315 0ebc 9C       		.byte	0x9c
 3316 0ebd 280F0000 		.4byte	0xf28
 3317 0ec1 2B       		.uleb128 0x2b
 3318 0ec2 B9090000 		.4byte	.LASF211
 3319 0ec6 01       		.byte	0x1
 3320 0ec7 5F04     		.2byte	0x45f
 3321 0ec9 B8000000 		.4byte	0xb8
 3322 0ecd 16020000 		.4byte	.LLST35
 3323 0ed1 2B       		.uleb128 0x2b
 3324 0ed2 E6050000 		.4byte	.LASF212
 3325 0ed6 01       		.byte	0x1
 3326 0ed7 5F04     		.2byte	0x45f
 3327 0ed9 B8000000 		.4byte	0xb8
 3328 0edd 37020000 		.4byte	.LLST36
 3329 0ee1 2B       		.uleb128 0x2b
 3330 0ee2 94010000 		.4byte	.LASF213
 3331 0ee6 01       		.byte	0x1
 3332 0ee7 5F04     		.2byte	0x45f
 3333 0ee9 B8000000 		.4byte	0xb8
 3334 0eed 58020000 		.4byte	.LLST37
ARM GAS  /tmp/ccLnU1Hk.s 			page 91


 3335 0ef1 2C       		.uleb128 0x2c
 3336 0ef2 CF090000 		.4byte	.LASF194
 3337 0ef6 01       		.byte	0x1
 3338 0ef7 6104     		.2byte	0x461
 3339 0ef9 83020000 		.4byte	0x283
 3340 0efd 79020000 		.4byte	.LLST38
 3341 0f01 31       		.uleb128 0x31
 3342 0f02 1C050000 		.4byte	.LVL120
 3343 0f06 ED0C0000 		.4byte	0xced
 3344 0f0a 160F0000 		.4byte	0xf16
 3345 0f0e 32       		.uleb128 0x32
 3346 0f0f 01       		.uleb128 0x1
 3347 0f10 50       		.byte	0x50
 3348 0f11 03       		.uleb128 0x3
 3349 0f12 0A       		.byte	0xa
 3350 0f13 0020     		.2byte	0x2000
 3351 0f15 00       		.byte	0
 3352 0f16 33       		.uleb128 0x33
 3353 0f17 40050000 		.4byte	.LVL122
 3354 0f1b ED0C0000 		.4byte	0xced
 3355 0f1f 32       		.uleb128 0x32
 3356 0f20 01       		.uleb128 0x1
 3357 0f21 50       		.byte	0x50
 3358 0f22 03       		.uleb128 0x3
 3359 0f23 0A       		.byte	0xa
 3360 0f24 0020     		.2byte	0x2000
 3361 0f26 00       		.byte	0
 3362 0f27 00       		.byte	0
 3363 0f28 2A       		.uleb128 0x2a
 3364 0f29 B9000000 		.4byte	.LASF214
 3365 0f2d 07       		.byte	0x7
 3366 0f2e 7C01     		.2byte	0x17c
 3367 0f30 83020000 		.4byte	0x283
 3368 0f34 64040000 		.4byte	.LFB78
 3369 0f38 9C000000 		.4byte	.LFE78-.LFB78
 3370 0f3c 01       		.uleb128 0x1
 3371 0f3d 9C       		.byte	0x9c
 3372 0f3e 9E0F0000 		.4byte	0xf9e
 3373 0f42 2B       		.uleb128 0x2b
 3374 0f43 4F060000 		.4byte	.LASF204
 3375 0f47 01       		.byte	0x1
 3376 0f48 1A04     		.2byte	0x41a
 3377 0f4a 46010000 		.4byte	0x146
 3378 0f4e A3020000 		.4byte	.LLST33
 3379 0f52 2C       		.uleb128 0x2c
 3380 0f53 CF090000 		.4byte	.LASF194
 3381 0f57 01       		.byte	0x1
 3382 0f58 1C04     		.2byte	0x41c
 3383 0f5a 83020000 		.4byte	0x283
 3384 0f5e C4020000 		.4byte	.LLST34
 3385 0f62 31       		.uleb128 0x31
 3386 0f63 70040000 		.4byte	.LVL111
 3387 0f67 ED0C0000 		.4byte	0xced
 3388 0f6b 770F0000 		.4byte	0xf77
 3389 0f6f 32       		.uleb128 0x32
 3390 0f70 01       		.uleb128 0x1
 3391 0f71 50       		.byte	0x50
ARM GAS  /tmp/ccLnU1Hk.s 			page 92


 3392 0f72 03       		.uleb128 0x3
 3393 0f73 46       		.byte	0x46
 3394 0f74 3F       		.byte	0x3f
 3395 0f75 24       		.byte	0x24
 3396 0f76 00       		.byte	0
 3397 0f77 31       		.uleb128 0x31
 3398 0f78 9A040000 		.4byte	.LVL113
 3399 0f7c ED0C0000 		.4byte	0xced
 3400 0f80 8C0F0000 		.4byte	0xf8c
 3401 0f84 32       		.uleb128 0x32
 3402 0f85 01       		.uleb128 0x1
 3403 0f86 50       		.byte	0x50
 3404 0f87 03       		.uleb128 0x3
 3405 0f88 46       		.byte	0x46
 3406 0f89 3F       		.byte	0x3f
 3407 0f8a 24       		.byte	0x24
 3408 0f8b 00       		.byte	0
 3409 0f8c 33       		.uleb128 0x33
 3410 0f8d D8040000 		.4byte	.LVL115
 3411 0f91 ED0C0000 		.4byte	0xced
 3412 0f95 32       		.uleb128 0x32
 3413 0f96 01       		.uleb128 0x1
 3414 0f97 50       		.byte	0x50
 3415 0f98 03       		.uleb128 0x3
 3416 0f99 46       		.byte	0x46
 3417 0f9a 3F       		.byte	0x3f
 3418 0f9b 24       		.byte	0x24
 3419 0f9c 00       		.byte	0
 3420 0f9d 00       		.byte	0
 3421 0f9e 2A       		.uleb128 0x2a
 3422 0f9f 8B040000 		.4byte	.LASF215
 3423 0fa3 07       		.byte	0x7
 3424 0fa4 7B01     		.2byte	0x17b
 3425 0fa6 83020000 		.4byte	0x283
 3426 0faa B4030000 		.4byte	.LFB77
 3427 0fae B0000000 		.4byte	.LFE77-.LFB77
 3428 0fb2 01       		.uleb128 0x1
 3429 0fb3 9C       		.byte	0x9c
 3430 0fb4 7E100000 		.4byte	0x107e
 3431 0fb8 2B       		.uleb128 0x2b
 3432 0fb9 D6090000 		.4byte	.LASF216
 3433 0fbd 01       		.byte	0x1
 3434 0fbe D003     		.2byte	0x3d0
 3435 0fc0 D8000000 		.4byte	0xd8
 3436 0fc4 F9020000 		.4byte	.LLST27
 3437 0fc8 2C       		.uleb128 0x2c
 3438 0fc9 95000000 		.4byte	.LASF217
 3439 0fcd 01       		.byte	0x1
 3440 0fce D203     		.2byte	0x3d2
 3441 0fd0 B8000000 		.4byte	0xb8
 3442 0fd4 5F030000 		.4byte	.LLST28
 3443 0fd8 2C       		.uleb128 0x2c
 3444 0fd9 CA0A0000 		.4byte	.LASF218
 3445 0fdd 01       		.byte	0x1
 3446 0fde D203     		.2byte	0x3d2
 3447 0fe0 B8000000 		.4byte	0xb8
 3448 0fe4 CE030000 		.4byte	.LLST29
ARM GAS  /tmp/ccLnU1Hk.s 			page 93


 3449 0fe8 2C       		.uleb128 0x2c
 3450 0fe9 44000000 		.4byte	.LASF219
 3451 0fed 01       		.byte	0x1
 3452 0fee D203     		.2byte	0x3d2
 3453 0ff0 B8000000 		.4byte	0xb8
 3454 0ff4 49040000 		.4byte	.LLST30
 3455 0ff8 2C       		.uleb128 0x2c
 3456 0ff9 A7020000 		.4byte	.LASF220
 3457 0ffd 01       		.byte	0x1
 3458 0ffe D203     		.2byte	0x3d2
 3459 1000 B8000000 		.4byte	0xb8
 3460 1004 C4040000 		.4byte	.LLST31
 3461 1008 2C       		.uleb128 0x2c
 3462 1009 CF090000 		.4byte	.LASF194
 3463 100d 01       		.byte	0x1
 3464 100e D403     		.2byte	0x3d4
 3465 1010 83020000 		.4byte	0x283
 3466 1014 2D050000 		.4byte	.LLST32
 3467 1018 31       		.uleb128 0x31
 3468 1019 C0030000 		.4byte	.LVL89
 3469 101d ED0C0000 		.4byte	0xced
 3470 1021 2D100000 		.4byte	0x102d
 3471 1025 32       		.uleb128 0x32
 3472 1026 01       		.uleb128 0x1
 3473 1027 50       		.byte	0x50
 3474 1028 03       		.uleb128 0x3
 3475 1029 0A       		.byte	0xa
 3476 102a 0020     		.2byte	0x2000
 3477 102c 00       		.byte	0
 3478 102d 31       		.uleb128 0x31
 3479 102e F2030000 		.4byte	.LVL95
 3480 1032 ED0C0000 		.4byte	0xced
 3481 1036 42100000 		.4byte	0x1042
 3482 103a 32       		.uleb128 0x32
 3483 103b 01       		.uleb128 0x1
 3484 103c 50       		.byte	0x50
 3485 103d 03       		.uleb128 0x3
 3486 103e 0A       		.byte	0xa
 3487 103f 0020     		.2byte	0x2000
 3488 1041 00       		.byte	0
 3489 1042 31       		.uleb128 0x31
 3490 1043 20040000 		.4byte	.LVL99
 3491 1047 ED0C0000 		.4byte	0xced
 3492 104b 57100000 		.4byte	0x1057
 3493 104f 32       		.uleb128 0x32
 3494 1050 01       		.uleb128 0x1
 3495 1051 50       		.byte	0x50
 3496 1052 03       		.uleb128 0x3
 3497 1053 0A       		.byte	0xa
 3498 1054 0020     		.2byte	0x2000
 3499 1056 00       		.byte	0
 3500 1057 31       		.uleb128 0x31
 3501 1058 38040000 		.4byte	.LVL102
 3502 105c ED0C0000 		.4byte	0xced
 3503 1060 6C100000 		.4byte	0x106c
 3504 1064 32       		.uleb128 0x32
 3505 1065 01       		.uleb128 0x1
ARM GAS  /tmp/ccLnU1Hk.s 			page 94


 3506 1066 50       		.byte	0x50
 3507 1067 03       		.uleb128 0x3
 3508 1068 0A       		.byte	0xa
 3509 1069 0020     		.2byte	0x2000
 3510 106b 00       		.byte	0
 3511 106c 33       		.uleb128 0x33
 3512 106d 4E040000 		.4byte	.LVL105
 3513 1071 ED0C0000 		.4byte	0xced
 3514 1075 32       		.uleb128 0x32
 3515 1076 01       		.uleb128 0x1
 3516 1077 50       		.byte	0x50
 3517 1078 03       		.uleb128 0x3
 3518 1079 0A       		.byte	0xa
 3519 107a 0020     		.2byte	0x2000
 3520 107c 00       		.byte	0
 3521 107d 00       		.byte	0
 3522 107e 2A       		.uleb128 0x2a
 3523 107f 28050000 		.4byte	.LASF221
 3524 1083 07       		.byte	0x7
 3525 1084 7A01     		.2byte	0x17a
 3526 1086 83020000 		.4byte	0x283
 3527 108a 64030000 		.4byte	.LFB76
 3528 108e 50000000 		.4byte	.LFE76-.LFB76
 3529 1092 01       		.uleb128 0x1
 3530 1093 9C       		.byte	0x9c
 3531 1094 EF100000 		.4byte	0x10ef
 3532 1098 2B       		.uleb128 0x2b
 3533 1099 E3030000 		.4byte	.LASF222
 3534 109d 01       		.byte	0x1
 3535 109e A203     		.2byte	0x3a2
 3536 10a0 D8000000 		.4byte	0xd8
 3537 10a4 BD050000 		.4byte	.LLST24
 3538 10a8 2B       		.uleb128 0x2b
 3539 10a9 B5080000 		.4byte	.LASF223
 3540 10ad 01       		.byte	0x1
 3541 10ae A203     		.2byte	0x3a2
 3542 10b0 A2000000 		.4byte	0xa2
 3543 10b4 DB050000 		.4byte	.LLST25
 3544 10b8 2C       		.uleb128 0x2c
 3545 10b9 CF090000 		.4byte	.LASF194
 3546 10bd 01       		.byte	0x1
 3547 10be A403     		.2byte	0x3a4
 3548 10c0 83020000 		.4byte	0x283
 3549 10c4 FC050000 		.4byte	.LLST26
 3550 10c8 31       		.uleb128 0x31
 3551 10c9 72030000 		.4byte	.LVL82
 3552 10cd ED0C0000 		.4byte	0xced
 3553 10d1 DD100000 		.4byte	0x10dd
 3554 10d5 32       		.uleb128 0x32
 3555 10d6 01       		.uleb128 0x1
 3556 10d7 50       		.byte	0x50
 3557 10d8 03       		.uleb128 0x3
 3558 10d9 0A       		.byte	0xa
 3559 10da 0020     		.2byte	0x2000
 3560 10dc 00       		.byte	0
 3561 10dd 33       		.uleb128 0x33
 3562 10de 98030000 		.4byte	.LVL85
ARM GAS  /tmp/ccLnU1Hk.s 			page 95


 3563 10e2 ED0C0000 		.4byte	0xced
 3564 10e6 32       		.uleb128 0x32
 3565 10e7 01       		.uleb128 0x1
 3566 10e8 50       		.byte	0x50
 3567 10e9 03       		.uleb128 0x3
 3568 10ea 0A       		.byte	0xa
 3569 10eb 0020     		.2byte	0x2000
 3570 10ed 00       		.byte	0
 3571 10ee 00       		.byte	0
 3572 10ef 2A       		.uleb128 0x2a
 3573 10f0 110B0000 		.4byte	.LASF224
 3574 10f4 07       		.byte	0x7
 3575 10f5 7901     		.2byte	0x179
 3576 10f7 83020000 		.4byte	0x283
 3577 10fb 28030000 		.4byte	.LFB75
 3578 10ff 3C000000 		.4byte	.LFE75-.LFB75
 3579 1103 01       		.uleb128 0x1
 3580 1104 9C       		.byte	0x9c
 3581 1105 60110000 		.4byte	0x1160
 3582 1109 2B       		.uleb128 0x2b
 3583 110a E3030000 		.4byte	.LASF222
 3584 110e 01       		.byte	0x1
 3585 110f 5B03     		.2byte	0x35b
 3586 1111 D8000000 		.4byte	0xd8
 3587 1115 26060000 		.4byte	.LLST21
 3588 1119 2B       		.uleb128 0x2b
 3589 111a B5080000 		.4byte	.LASF223
 3590 111e 01       		.byte	0x1
 3591 111f 5B03     		.2byte	0x35b
 3592 1121 B8000000 		.4byte	0xb8
 3593 1125 44060000 		.4byte	.LLST22
 3594 1129 2C       		.uleb128 0x2c
 3595 112a CF090000 		.4byte	.LASF194
 3596 112e 01       		.byte	0x1
 3597 112f 5D03     		.2byte	0x35d
 3598 1131 83020000 		.4byte	0x283
 3599 1135 65060000 		.4byte	.LLST23
 3600 1139 31       		.uleb128 0x31
 3601 113a 36030000 		.4byte	.LVL75
 3602 113e ED0C0000 		.4byte	0xced
 3603 1142 4E110000 		.4byte	0x114e
 3604 1146 32       		.uleb128 0x32
 3605 1147 01       		.uleb128 0x1
 3606 1148 50       		.byte	0x50
 3607 1149 03       		.uleb128 0x3
 3608 114a 0A       		.byte	0xa
 3609 114b 0020     		.2byte	0x2000
 3610 114d 00       		.byte	0
 3611 114e 33       		.uleb128 0x33
 3612 114f 50030000 		.4byte	.LVL78
 3613 1153 ED0C0000 		.4byte	0xced
 3614 1157 32       		.uleb128 0x32
 3615 1158 01       		.uleb128 0x1
 3616 1159 50       		.byte	0x50
 3617 115a 03       		.uleb128 0x3
 3618 115b 0A       		.byte	0xa
 3619 115c 0020     		.2byte	0x2000
ARM GAS  /tmp/ccLnU1Hk.s 			page 96


 3620 115e 00       		.byte	0
 3621 115f 00       		.byte	0
 3622 1160 2A       		.uleb128 0x2a
 3623 1161 9D070000 		.4byte	.LASF225
 3624 1165 07       		.byte	0x7
 3625 1166 7801     		.2byte	0x178
 3626 1168 83020000 		.4byte	0x283
 3627 116c BC020000 		.4byte	.LFB74
 3628 1170 6C000000 		.4byte	.LFE74-.LFB74
 3629 1174 01       		.uleb128 0x1
 3630 1175 9C       		.byte	0x9c
 3631 1176 F5110000 		.4byte	0x11f5
 3632 117a 2B       		.uleb128 0x2b
 3633 117b E3030000 		.4byte	.LASF222
 3634 117f 01       		.byte	0x1
 3635 1180 AA02     		.2byte	0x2aa
 3636 1182 D8000000 		.4byte	0xd8
 3637 1186 8F060000 		.4byte	.LLST18
 3638 118a 2B       		.uleb128 0x2b
 3639 118b B5080000 		.4byte	.LASF223
 3640 118f 01       		.byte	0x1
 3641 1190 AA02     		.2byte	0x2aa
 3642 1192 D8000000 		.4byte	0xd8
 3643 1196 D3060000 		.4byte	.LLST19
 3644 119a 2C       		.uleb128 0x2c
 3645 119b CF090000 		.4byte	.LASF194
 3646 119f 01       		.byte	0x1
 3647 11a0 AC02     		.2byte	0x2ac
 3648 11a2 83020000 		.4byte	0x283
 3649 11a6 18070000 		.4byte	.LLST20
 3650 11aa 34       		.uleb128 0x34
 3651 11ab 746D7000 		.ascii	"tmp\000"
 3652 11af 01       		.byte	0x1
 3653 11b0 AD02     		.2byte	0x2ad
 3654 11b2 E3000000 		.4byte	0xe3
 3655 11b6 02       		.uleb128 0x2
 3656 11b7 91       		.byte	0x91
 3657 11b8 6C       		.sleb128 -20
 3658 11b9 31       		.uleb128 0x31
 3659 11ba D0020000 		.4byte	.LVL63
 3660 11be ED0C0000 		.4byte	0xced
 3661 11c2 CE110000 		.4byte	0x11ce
 3662 11c6 32       		.uleb128 0x32
 3663 11c7 01       		.uleb128 0x1
 3664 11c8 50       		.byte	0x50
 3665 11c9 03       		.uleb128 0x3
 3666 11ca 0A       		.byte	0xa
 3667 11cb 0020     		.2byte	0x2000
 3668 11cd 00       		.byte	0
 3669 11ce 31       		.uleb128 0x31
 3670 11cf EE020000 		.4byte	.LVL67
 3671 11d3 ED0C0000 		.4byte	0xced
 3672 11d7 E3110000 		.4byte	0x11e3
 3673 11db 32       		.uleb128 0x32
 3674 11dc 01       		.uleb128 0x1
 3675 11dd 50       		.byte	0x50
 3676 11de 03       		.uleb128 0x3
ARM GAS  /tmp/ccLnU1Hk.s 			page 97


 3677 11df 0A       		.byte	0xa
 3678 11e0 0020     		.2byte	0x2000
 3679 11e2 00       		.byte	0
 3680 11e3 33       		.uleb128 0x33
 3681 11e4 14030000 		.4byte	.LVL71
 3682 11e8 ED0C0000 		.4byte	0xced
 3683 11ec 32       		.uleb128 0x32
 3684 11ed 01       		.uleb128 0x1
 3685 11ee 50       		.byte	0x50
 3686 11ef 03       		.uleb128 0x3
 3687 11f0 0A       		.byte	0xa
 3688 11f1 0020     		.2byte	0x2000
 3689 11f3 00       		.byte	0
 3690 11f4 00       		.byte	0
 3691 11f5 2A       		.uleb128 0x2a
 3692 11f6 08010000 		.4byte	.LASF226
 3693 11fa 07       		.byte	0x7
 3694 11fb 7701     		.2byte	0x177
 3695 11fd 83020000 		.4byte	0x283
 3696 1201 20020000 		.4byte	.LFB73
 3697 1205 9C000000 		.4byte	.LFE73-.LFB73
 3698 1209 01       		.uleb128 0x1
 3699 120a 9C       		.byte	0x9c
 3700 120b 74120000 		.4byte	0x1274
 3701 120f 2C       		.uleb128 0x2c
 3702 1210 B2060000 		.4byte	.LASF227
 3703 1214 01       		.byte	0x1
 3704 1215 6B02     		.2byte	0x26b
 3705 1217 B8000000 		.4byte	0xb8
 3706 121b 4D070000 		.4byte	.LLST16
 3707 121f 2C       		.uleb128 0x2c
 3708 1220 CF090000 		.4byte	.LASF194
 3709 1224 01       		.byte	0x1
 3710 1225 6D02     		.2byte	0x26d
 3711 1227 83020000 		.4byte	0x283
 3712 122b 6D070000 		.4byte	.LLST17
 3713 122f 2D       		.uleb128 0x2d
 3714 1230 26020000 		.4byte	.LVL51
 3715 1234 500E0000 		.4byte	0xe50
 3716 1238 31       		.uleb128 0x31
 3717 1239 36020000 		.4byte	.LVL53
 3718 123d ED0C0000 		.4byte	0xced
 3719 1241 4D120000 		.4byte	0x124d
 3720 1245 32       		.uleb128 0x32
 3721 1246 01       		.uleb128 0x1
 3722 1247 50       		.byte	0x50
 3723 1248 03       		.uleb128 0x3
 3724 1249 46       		.byte	0x46
 3725 124a 3F       		.byte	0x3f
 3726 124b 24       		.byte	0x24
 3727 124c 00       		.byte	0
 3728 124d 31       		.uleb128 0x31
 3729 124e 60020000 		.4byte	.LVL56
 3730 1252 ED0C0000 		.4byte	0xced
 3731 1256 62120000 		.4byte	0x1262
 3732 125a 32       		.uleb128 0x32
 3733 125b 01       		.uleb128 0x1
ARM GAS  /tmp/ccLnU1Hk.s 			page 98


 3734 125c 50       		.byte	0x50
 3735 125d 03       		.uleb128 0x3
 3736 125e 46       		.byte	0x46
 3737 125f 3F       		.byte	0x3f
 3738 1260 24       		.byte	0x24
 3739 1261 00       		.byte	0
 3740 1262 33       		.uleb128 0x33
 3741 1263 9A020000 		.4byte	.LVL58
 3742 1267 ED0C0000 		.4byte	0xced
 3743 126b 32       		.uleb128 0x32
 3744 126c 01       		.uleb128 0x1
 3745 126d 50       		.byte	0x50
 3746 126e 03       		.uleb128 0x3
 3747 126f 0A       		.byte	0xa
 3748 1270 0020     		.2byte	0x2000
 3749 1272 00       		.byte	0
 3750 1273 00       		.byte	0
 3751 1274 2A       		.uleb128 0x2a
 3752 1275 74030000 		.4byte	.LASF228
 3753 1279 07       		.byte	0x7
 3754 127a 8B01     		.2byte	0x18b
 3755 127c 83020000 		.4byte	0x283
 3756 1280 88050000 		.4byte	.LFB72
 3757 1284 3C000000 		.4byte	.LFE72-.LFB72
 3758 1288 01       		.uleb128 0x1
 3759 1289 9C       		.byte	0x9c
 3760 128a C5120000 		.4byte	0x12c5
 3761 128e 2C       		.uleb128 0x2c
 3762 128f CF090000 		.4byte	.LASF194
 3763 1293 01       		.byte	0x1
 3764 1294 2E02     		.2byte	0x22e
 3765 1296 83020000 		.4byte	0x283
 3766 129a A2070000 		.4byte	.LLST41
 3767 129e 31       		.uleb128 0x31
 3768 129f 92050000 		.4byte	.LVL133
 3769 12a3 A00C0000 		.4byte	0xca0
 3770 12a7 B3120000 		.4byte	0x12b3
 3771 12ab 32       		.uleb128 0x32
 3772 12ac 01       		.uleb128 0x1
 3773 12ad 50       		.byte	0x50
 3774 12ae 03       		.uleb128 0x3
 3775 12af 46       		.byte	0x46
 3776 12b0 3F       		.byte	0x3f
 3777 12b1 24       		.byte	0x24
 3778 12b2 00       		.byte	0
 3779 12b3 33       		.uleb128 0x33
 3780 12b4 B2050000 		.4byte	.LVL135
 3781 12b8 A00C0000 		.4byte	0xca0
 3782 12bc 32       		.uleb128 0x32
 3783 12bd 01       		.uleb128 0x1
 3784 12be 50       		.byte	0x50
 3785 12bf 03       		.uleb128 0x3
 3786 12c0 46       		.byte	0x46
 3787 12c1 3F       		.byte	0x3f
 3788 12c2 24       		.byte	0x24
 3789 12c3 00       		.byte	0
 3790 12c4 00       		.byte	0
ARM GAS  /tmp/ccLnU1Hk.s 			page 99


 3791 12c5 2A       		.uleb128 0x2a
 3792 12c6 03020000 		.4byte	.LASF229
 3793 12ca 07       		.byte	0x7
 3794 12cb 7601     		.2byte	0x176
 3795 12cd 83020000 		.4byte	0x283
 3796 12d1 E4010000 		.4byte	.LFB71
 3797 12d5 3C000000 		.4byte	.LFE71-.LFB71
 3798 12d9 01       		.uleb128 0x1
 3799 12da 9C       		.byte	0x9c
 3800 12db 16130000 		.4byte	0x1316
 3801 12df 2C       		.uleb128 0x2c
 3802 12e0 CF090000 		.4byte	.LASF194
 3803 12e4 01       		.byte	0x1
 3804 12e5 EF01     		.2byte	0x1ef
 3805 12e7 83020000 		.4byte	0x283
 3806 12eb CC070000 		.4byte	.LLST15
 3807 12ef 31       		.uleb128 0x31
 3808 12f0 EE010000 		.4byte	.LVL47
 3809 12f4 ED0C0000 		.4byte	0xced
 3810 12f8 04130000 		.4byte	0x1304
 3811 12fc 32       		.uleb128 0x32
 3812 12fd 01       		.uleb128 0x1
 3813 12fe 50       		.byte	0x50
 3814 12ff 03       		.uleb128 0x3
 3815 1300 46       		.byte	0x46
 3816 1301 3F       		.byte	0x3f
 3817 1302 24       		.byte	0x24
 3818 1303 00       		.byte	0
 3819 1304 33       		.uleb128 0x33
 3820 1305 0E020000 		.4byte	.LVL49
 3821 1309 ED0C0000 		.4byte	0xced
 3822 130d 32       		.uleb128 0x32
 3823 130e 01       		.uleb128 0x1
 3824 130f 50       		.byte	0x50
 3825 1310 03       		.uleb128 0x3
 3826 1311 46       		.byte	0x46
 3827 1312 3F       		.byte	0x3f
 3828 1313 24       		.byte	0x24
 3829 1314 00       		.byte	0
 3830 1315 00       		.byte	0
 3831 1316 2A       		.uleb128 0x2a
 3832 1317 0C070000 		.4byte	.LASF230
 3833 131b 07       		.byte	0x7
 3834 131c 7501     		.2byte	0x175
 3835 131e 83020000 		.4byte	0x283
 3836 1322 A4010000 		.4byte	.LFB70
 3837 1326 40000000 		.4byte	.LFE70-.LFB70
 3838 132a 01       		.uleb128 0x1
 3839 132b 9C       		.byte	0x9c
 3840 132c 77130000 		.4byte	0x1377
 3841 1330 2B       		.uleb128 0x2b
 3842 1331 00000000 		.4byte	.LASF231
 3843 1335 01       		.byte	0x1
 3844 1336 A401     		.2byte	0x1a4
 3845 1338 D8000000 		.4byte	0xd8
 3846 133c F6070000 		.4byte	.LLST13
 3847 1340 2C       		.uleb128 0x2c
ARM GAS  /tmp/ccLnU1Hk.s 			page 100


 3848 1341 CF090000 		.4byte	.LASF194
 3849 1345 01       		.byte	0x1
 3850 1346 A601     		.2byte	0x1a6
 3851 1348 83020000 		.4byte	0x283
 3852 134c 14080000 		.4byte	.LLST14
 3853 1350 31       		.uleb128 0x31
 3854 1351 B0010000 		.4byte	.LVL42
 3855 1355 ED0C0000 		.4byte	0xced
 3856 1359 65130000 		.4byte	0x1365
 3857 135d 32       		.uleb128 0x32
 3858 135e 01       		.uleb128 0x1
 3859 135f 50       		.byte	0x50
 3860 1360 03       		.uleb128 0x3
 3861 1361 46       		.byte	0x46
 3862 1362 3F       		.byte	0x3f
 3863 1363 24       		.byte	0x24
 3864 1364 00       		.byte	0
 3865 1365 33       		.uleb128 0x33
 3866 1366 D2010000 		.4byte	.LVL45
 3867 136a ED0C0000 		.4byte	0xced
 3868 136e 32       		.uleb128 0x32
 3869 136f 01       		.uleb128 0x1
 3870 1370 50       		.byte	0x50
 3871 1371 03       		.uleb128 0x3
 3872 1372 46       		.byte	0x46
 3873 1373 3F       		.byte	0x3f
 3874 1374 24       		.byte	0x24
 3875 1375 00       		.byte	0
 3876 1376 00       		.byte	0
 3877 1377 35       		.uleb128 0x35
 3878 1378 CA020000 		.4byte	.LASF232
 3879 137c 07       		.byte	0x7
 3880 137d 8A01     		.2byte	0x18a
 3881 137f 84000000 		.4byte	.LFB69
 3882 1383 10000000 		.4byte	.LFE69-.LFB69
 3883 1387 01       		.uleb128 0x1
 3884 1388 9C       		.byte	0x9c
 3885 1389 35       		.uleb128 0x35
 3886 138a 34000000 		.4byte	.LASF233
 3887 138e 07       		.byte	0x7
 3888 138f 7401     		.2byte	0x174
 3889 1391 74000000 		.4byte	.LFB68
 3890 1395 10000000 		.4byte	.LFE68-.LFB68
 3891 1399 01       		.uleb128 0x1
 3892 139a 9C       		.byte	0x9c
 3893 139b 35       		.uleb128 0x35
 3894 139c 58080000 		.4byte	.LASF234
 3895 13a0 07       		.byte	0x7
 3896 13a1 8901     		.2byte	0x189
 3897 13a3 5C000000 		.4byte	.LFB67
 3898 13a7 18000000 		.4byte	.LFE67-.LFB67
 3899 13ab 01       		.uleb128 0x1
 3900 13ac 9C       		.byte	0x9c
 3901 13ad 35       		.uleb128 0x35
 3902 13ae 8C050000 		.4byte	.LASF235
 3903 13b2 07       		.byte	0x7
 3904 13b3 7301     		.2byte	0x173
ARM GAS  /tmp/ccLnU1Hk.s 			page 101


 3905 13b5 44000000 		.4byte	.LFB66
 3906 13b9 18000000 		.4byte	.LFE66-.LFB66
 3907 13bd 01       		.uleb128 0x1
 3908 13be 9C       		.byte	0x9c
 3909 13bf 2E       		.uleb128 0x2e
 3910 13c0 59000000 		.4byte	.LASF236
 3911 13c4 07       		.byte	0x7
 3912 13c5 7201     		.2byte	0x172
 3913 13c7 2C000000 		.4byte	.LFB65
 3914 13cb 18000000 		.4byte	.LFE65-.LFB65
 3915 13cf 01       		.uleb128 0x1
 3916 13d0 9C       		.byte	0x9c
 3917 13d1 E6130000 		.4byte	0x13e6
 3918 13d5 2B       		.uleb128 0x2b
 3919 13d6 03040000 		.4byte	.LASF237
 3920 13da 01       		.byte	0x1
 3921 13db 2D01     		.2byte	0x12d
 3922 13dd D8000000 		.4byte	0xd8
 3923 13e1 3E080000 		.4byte	.LLST3
 3924 13e5 00       		.byte	0
 3925 13e6 2E       		.uleb128 0x2e
 3926 13e7 B1020000 		.4byte	.LASF238
 3927 13eb 07       		.byte	0x7
 3928 13ec 7101     		.2byte	0x171
 3929 13ee 14000000 		.4byte	.LFB64
 3930 13f2 18000000 		.4byte	.LFE64-.LFB64
 3931 13f6 01       		.uleb128 0x1
 3932 13f7 9C       		.byte	0x9c
 3933 13f8 0D140000 		.4byte	0x140d
 3934 13fc 2B       		.uleb128 0x2b
 3935 13fd 50090000 		.4byte	.LASF239
 3936 1401 01       		.byte	0x1
 3937 1402 1A01     		.2byte	0x11a
 3938 1404 D8000000 		.4byte	0xd8
 3939 1408 5F080000 		.4byte	.LLST2
 3940 140c 00       		.byte	0
 3941 140d 36       		.uleb128 0x36
 3942 140e 0D000000 		.4byte	.LASF246
 3943 1412 07       		.byte	0x7
 3944 1413 7001     		.2byte	0x170
 3945 1415 00000000 		.4byte	.LFB63
 3946 1419 14000000 		.4byte	.LFE63-.LFB63
 3947 141d 01       		.uleb128 0x1
 3948 141e 9C       		.byte	0x9c
 3949 141f 37       		.uleb128 0x37
 3950 1420 300A0000 		.4byte	.LASF240
 3951 1424 01       		.byte	0x1
 3952 1425 FF       		.byte	0xff
 3953 1426 D8000000 		.4byte	0xd8
 3954 142a 80080000 		.4byte	.LLST0
 3955 142e 2C       		.uleb128 0x2c
 3956 142f A10A0000 		.4byte	.LASF241
 3957 1433 01       		.byte	0x1
 3958 1434 0101     		.2byte	0x101
 3959 1436 D8000000 		.4byte	0xd8
 3960 143a A1080000 		.4byte	.LLST1
 3961 143e 00       		.byte	0
ARM GAS  /tmp/ccLnU1Hk.s 			page 102


 3962 143f 00       		.byte	0
 3963              		.section	.debug_abbrev,"",%progbits
 3964              	.Ldebug_abbrev0:
 3965 0000 01       		.uleb128 0x1
 3966 0001 11       		.uleb128 0x11
 3967 0002 01       		.byte	0x1
 3968 0003 25       		.uleb128 0x25
 3969 0004 0E       		.uleb128 0xe
 3970 0005 13       		.uleb128 0x13
 3971 0006 0B       		.uleb128 0xb
 3972 0007 03       		.uleb128 0x3
 3973 0008 0E       		.uleb128 0xe
 3974 0009 1B       		.uleb128 0x1b
 3975 000a 0E       		.uleb128 0xe
 3976 000b 11       		.uleb128 0x11
 3977 000c 01       		.uleb128 0x1
 3978 000d 12       		.uleb128 0x12
 3979 000e 06       		.uleb128 0x6
 3980 000f 10       		.uleb128 0x10
 3981 0010 17       		.uleb128 0x17
 3982 0011 00       		.byte	0
 3983 0012 00       		.byte	0
 3984 0013 02       		.uleb128 0x2
 3985 0014 24       		.uleb128 0x24
 3986 0015 00       		.byte	0
 3987 0016 0B       		.uleb128 0xb
 3988 0017 0B       		.uleb128 0xb
 3989 0018 3E       		.uleb128 0x3e
 3990 0019 0B       		.uleb128 0xb
 3991 001a 03       		.uleb128 0x3
 3992 001b 0E       		.uleb128 0xe
 3993 001c 00       		.byte	0
 3994 001d 00       		.byte	0
 3995 001e 03       		.uleb128 0x3
 3996 001f 16       		.uleb128 0x16
 3997 0020 00       		.byte	0
 3998 0021 03       		.uleb128 0x3
 3999 0022 0E       		.uleb128 0xe
 4000 0023 3A       		.uleb128 0x3a
 4001 0024 0B       		.uleb128 0xb
 4002 0025 3B       		.uleb128 0x3b
 4003 0026 0B       		.uleb128 0xb
 4004 0027 49       		.uleb128 0x49
 4005 0028 13       		.uleb128 0x13
 4006 0029 00       		.byte	0
 4007 002a 00       		.byte	0
 4008 002b 04       		.uleb128 0x4
 4009 002c 24       		.uleb128 0x24
 4010 002d 00       		.byte	0
 4011 002e 0B       		.uleb128 0xb
 4012 002f 0B       		.uleb128 0xb
 4013 0030 3E       		.uleb128 0x3e
 4014 0031 0B       		.uleb128 0xb
 4015 0032 03       		.uleb128 0x3
 4016 0033 08       		.uleb128 0x8
 4017 0034 00       		.byte	0
 4018 0035 00       		.byte	0
ARM GAS  /tmp/ccLnU1Hk.s 			page 103


 4019 0036 05       		.uleb128 0x5
 4020 0037 35       		.uleb128 0x35
 4021 0038 00       		.byte	0
 4022 0039 49       		.uleb128 0x49
 4023 003a 13       		.uleb128 0x13
 4024 003b 00       		.byte	0
 4025 003c 00       		.byte	0
 4026 003d 06       		.uleb128 0x6
 4027 003e 34       		.uleb128 0x34
 4028 003f 00       		.byte	0
 4029 0040 03       		.uleb128 0x3
 4030 0041 0E       		.uleb128 0xe
 4031 0042 3A       		.uleb128 0x3a
 4032 0043 0B       		.uleb128 0xb
 4033 0044 3B       		.uleb128 0x3b
 4034 0045 05       		.uleb128 0x5
 4035 0046 49       		.uleb128 0x49
 4036 0047 13       		.uleb128 0x13
 4037 0048 3F       		.uleb128 0x3f
 4038 0049 19       		.uleb128 0x19
 4039 004a 3C       		.uleb128 0x3c
 4040 004b 19       		.uleb128 0x19
 4041 004c 00       		.byte	0
 4042 004d 00       		.byte	0
 4043 004e 07       		.uleb128 0x7
 4044 004f 34       		.uleb128 0x34
 4045 0050 00       		.byte	0
 4046 0051 03       		.uleb128 0x3
 4047 0052 0E       		.uleb128 0xe
 4048 0053 3A       		.uleb128 0x3a
 4049 0054 0B       		.uleb128 0xb
 4050 0055 3B       		.uleb128 0x3b
 4051 0056 0B       		.uleb128 0xb
 4052 0057 49       		.uleb128 0x49
 4053 0058 13       		.uleb128 0x13
 4054 0059 3F       		.uleb128 0x3f
 4055 005a 19       		.uleb128 0x19
 4056 005b 3C       		.uleb128 0x3c
 4057 005c 19       		.uleb128 0x19
 4058 005d 00       		.byte	0
 4059 005e 00       		.byte	0
 4060 005f 08       		.uleb128 0x8
 4061 0060 04       		.uleb128 0x4
 4062 0061 01       		.byte	0x1
 4063 0062 0B       		.uleb128 0xb
 4064 0063 0B       		.uleb128 0xb
 4065 0064 49       		.uleb128 0x49
 4066 0065 13       		.uleb128 0x13
 4067 0066 3A       		.uleb128 0x3a
 4068 0067 0B       		.uleb128 0xb
 4069 0068 3B       		.uleb128 0x3b
 4070 0069 05       		.uleb128 0x5
 4071 006a 01       		.uleb128 0x1
 4072 006b 13       		.uleb128 0x13
 4073 006c 00       		.byte	0
 4074 006d 00       		.byte	0
 4075 006e 09       		.uleb128 0x9
ARM GAS  /tmp/ccLnU1Hk.s 			page 104


 4076 006f 28       		.uleb128 0x28
 4077 0070 00       		.byte	0
 4078 0071 03       		.uleb128 0x3
 4079 0072 0E       		.uleb128 0xe
 4080 0073 1C       		.uleb128 0x1c
 4081 0074 0B       		.uleb128 0xb
 4082 0075 00       		.byte	0
 4083 0076 00       		.byte	0
 4084 0077 0A       		.uleb128 0xa
 4085 0078 28       		.uleb128 0x28
 4086 0079 00       		.byte	0
 4087 007a 03       		.uleb128 0x3
 4088 007b 08       		.uleb128 0x8
 4089 007c 1C       		.uleb128 0x1c
 4090 007d 0B       		.uleb128 0xb
 4091 007e 00       		.byte	0
 4092 007f 00       		.byte	0
 4093 0080 0B       		.uleb128 0xb
 4094 0081 16       		.uleb128 0x16
 4095 0082 00       		.byte	0
 4096 0083 03       		.uleb128 0x3
 4097 0084 0E       		.uleb128 0xe
 4098 0085 3A       		.uleb128 0x3a
 4099 0086 0B       		.uleb128 0xb
 4100 0087 3B       		.uleb128 0x3b
 4101 0088 05       		.uleb128 0x5
 4102 0089 49       		.uleb128 0x49
 4103 008a 13       		.uleb128 0x13
 4104 008b 00       		.byte	0
 4105 008c 00       		.byte	0
 4106 008d 0C       		.uleb128 0xc
 4107 008e 13       		.uleb128 0x13
 4108 008f 01       		.byte	0x1
 4109 0090 0B       		.uleb128 0xb
 4110 0091 0B       		.uleb128 0xb
 4111 0092 3A       		.uleb128 0x3a
 4112 0093 0B       		.uleb128 0xb
 4113 0094 3B       		.uleb128 0x3b
 4114 0095 05       		.uleb128 0x5
 4115 0096 01       		.uleb128 0x1
 4116 0097 13       		.uleb128 0x13
 4117 0098 00       		.byte	0
 4118 0099 00       		.byte	0
 4119 009a 0D       		.uleb128 0xd
 4120 009b 0D       		.uleb128 0xd
 4121 009c 00       		.byte	0
 4122 009d 03       		.uleb128 0x3
 4123 009e 08       		.uleb128 0x8
 4124 009f 3A       		.uleb128 0x3a
 4125 00a0 0B       		.uleb128 0xb
 4126 00a1 3B       		.uleb128 0x3b
 4127 00a2 05       		.uleb128 0x5
 4128 00a3 49       		.uleb128 0x49
 4129 00a4 13       		.uleb128 0x13
 4130 00a5 38       		.uleb128 0x38
 4131 00a6 0B       		.uleb128 0xb
 4132 00a7 00       		.byte	0
ARM GAS  /tmp/ccLnU1Hk.s 			page 105


 4133 00a8 00       		.byte	0
 4134 00a9 0E       		.uleb128 0xe
 4135 00aa 0D       		.uleb128 0xd
 4136 00ab 00       		.byte	0
 4137 00ac 03       		.uleb128 0x3
 4138 00ad 0E       		.uleb128 0xe
 4139 00ae 3A       		.uleb128 0x3a
 4140 00af 0B       		.uleb128 0xb
 4141 00b0 3B       		.uleb128 0x3b
 4142 00b1 05       		.uleb128 0x5
 4143 00b2 49       		.uleb128 0x49
 4144 00b3 13       		.uleb128 0x13
 4145 00b4 38       		.uleb128 0x38
 4146 00b5 0B       		.uleb128 0xb
 4147 00b6 00       		.byte	0
 4148 00b7 00       		.byte	0
 4149 00b8 0F       		.uleb128 0xf
 4150 00b9 04       		.uleb128 0x4
 4151 00ba 01       		.byte	0x1
 4152 00bb 0B       		.uleb128 0xb
 4153 00bc 0B       		.uleb128 0xb
 4154 00bd 49       		.uleb128 0x49
 4155 00be 13       		.uleb128 0x13
 4156 00bf 3A       		.uleb128 0x3a
 4157 00c0 0B       		.uleb128 0xb
 4158 00c1 3B       		.uleb128 0x3b
 4159 00c2 0B       		.uleb128 0xb
 4160 00c3 01       		.uleb128 0x1
 4161 00c4 13       		.uleb128 0x13
 4162 00c5 00       		.byte	0
 4163 00c6 00       		.byte	0
 4164 00c7 10       		.uleb128 0x10
 4165 00c8 34       		.uleb128 0x34
 4166 00c9 00       		.byte	0
 4167 00ca 03       		.uleb128 0x3
 4168 00cb 08       		.uleb128 0x8
 4169 00cc 3A       		.uleb128 0x3a
 4170 00cd 0B       		.uleb128 0xb
 4171 00ce 3B       		.uleb128 0x3b
 4172 00cf 0B       		.uleb128 0xb
 4173 00d0 49       		.uleb128 0x49
 4174 00d1 13       		.uleb128 0x13
 4175 00d2 3F       		.uleb128 0x3f
 4176 00d3 19       		.uleb128 0x19
 4177 00d4 3C       		.uleb128 0x3c
 4178 00d5 19       		.uleb128 0x19
 4179 00d6 00       		.byte	0
 4180 00d7 00       		.byte	0
 4181 00d8 11       		.uleb128 0x11
 4182 00d9 01       		.uleb128 0x1
 4183 00da 01       		.byte	0x1
 4184 00db 49       		.uleb128 0x49
 4185 00dc 13       		.uleb128 0x13
 4186 00dd 01       		.uleb128 0x1
 4187 00de 13       		.uleb128 0x13
 4188 00df 00       		.byte	0
 4189 00e0 00       		.byte	0
ARM GAS  /tmp/ccLnU1Hk.s 			page 106


 4190 00e1 12       		.uleb128 0x12
 4191 00e2 21       		.uleb128 0x21
 4192 00e3 00       		.byte	0
 4193 00e4 49       		.uleb128 0x49
 4194 00e5 13       		.uleb128 0x13
 4195 00e6 2F       		.uleb128 0x2f
 4196 00e7 0B       		.uleb128 0xb
 4197 00e8 00       		.byte	0
 4198 00e9 00       		.byte	0
 4199 00ea 13       		.uleb128 0x13
 4200 00eb 17       		.uleb128 0x17
 4201 00ec 01       		.byte	0x1
 4202 00ed 0B       		.uleb128 0xb
 4203 00ee 0B       		.uleb128 0xb
 4204 00ef 3A       		.uleb128 0x3a
 4205 00f0 0B       		.uleb128 0xb
 4206 00f1 3B       		.uleb128 0x3b
 4207 00f2 0B       		.uleb128 0xb
 4208 00f3 01       		.uleb128 0x1
 4209 00f4 13       		.uleb128 0x13
 4210 00f5 00       		.byte	0
 4211 00f6 00       		.byte	0
 4212 00f7 14       		.uleb128 0x14
 4213 00f8 0D       		.uleb128 0xd
 4214 00f9 00       		.byte	0
 4215 00fa 03       		.uleb128 0x3
 4216 00fb 0E       		.uleb128 0xe
 4217 00fc 3A       		.uleb128 0x3a
 4218 00fd 0B       		.uleb128 0xb
 4219 00fe 3B       		.uleb128 0x3b
 4220 00ff 0B       		.uleb128 0xb
 4221 0100 49       		.uleb128 0x49
 4222 0101 13       		.uleb128 0x13
 4223 0102 00       		.byte	0
 4224 0103 00       		.byte	0
 4225 0104 15       		.uleb128 0x15
 4226 0105 13       		.uleb128 0x13
 4227 0106 01       		.byte	0x1
 4228 0107 0B       		.uleb128 0xb
 4229 0108 0B       		.uleb128 0xb
 4230 0109 3A       		.uleb128 0x3a
 4231 010a 0B       		.uleb128 0xb
 4232 010b 3B       		.uleb128 0x3b
 4233 010c 0B       		.uleb128 0xb
 4234 010d 01       		.uleb128 0x1
 4235 010e 13       		.uleb128 0x13
 4236 010f 00       		.byte	0
 4237 0110 00       		.byte	0
 4238 0111 16       		.uleb128 0x16
 4239 0112 0D       		.uleb128 0xd
 4240 0113 00       		.byte	0
 4241 0114 03       		.uleb128 0x3
 4242 0115 0E       		.uleb128 0xe
 4243 0116 3A       		.uleb128 0x3a
 4244 0117 0B       		.uleb128 0xb
 4245 0118 3B       		.uleb128 0x3b
 4246 0119 0B       		.uleb128 0xb
ARM GAS  /tmp/ccLnU1Hk.s 			page 107


 4247 011a 49       		.uleb128 0x49
 4248 011b 13       		.uleb128 0x13
 4249 011c 38       		.uleb128 0x38
 4250 011d 0B       		.uleb128 0xb
 4251 011e 00       		.byte	0
 4252 011f 00       		.byte	0
 4253 0120 17       		.uleb128 0x17
 4254 0121 0F       		.uleb128 0xf
 4255 0122 00       		.byte	0
 4256 0123 0B       		.uleb128 0xb
 4257 0124 0B       		.uleb128 0xb
 4258 0125 00       		.byte	0
 4259 0126 00       		.byte	0
 4260 0127 18       		.uleb128 0x18
 4261 0128 0F       		.uleb128 0xf
 4262 0129 00       		.byte	0
 4263 012a 0B       		.uleb128 0xb
 4264 012b 0B       		.uleb128 0xb
 4265 012c 49       		.uleb128 0x49
 4266 012d 13       		.uleb128 0x13
 4267 012e 00       		.byte	0
 4268 012f 00       		.byte	0
 4269 0130 19       		.uleb128 0x19
 4270 0131 26       		.uleb128 0x26
 4271 0132 00       		.byte	0
 4272 0133 49       		.uleb128 0x49
 4273 0134 13       		.uleb128 0x13
 4274 0135 00       		.byte	0
 4275 0136 00       		.byte	0
 4276 0137 1A       		.uleb128 0x1a
 4277 0138 13       		.uleb128 0x13
 4278 0139 01       		.byte	0x1
 4279 013a 03       		.uleb128 0x3
 4280 013b 0E       		.uleb128 0xe
 4281 013c 0B       		.uleb128 0xb
 4282 013d 0B       		.uleb128 0xb
 4283 013e 3A       		.uleb128 0x3a
 4284 013f 0B       		.uleb128 0xb
 4285 0140 3B       		.uleb128 0x3b
 4286 0141 0B       		.uleb128 0xb
 4287 0142 01       		.uleb128 0x1
 4288 0143 13       		.uleb128 0x13
 4289 0144 00       		.byte	0
 4290 0145 00       		.byte	0
 4291 0146 1B       		.uleb128 0x1b
 4292 0147 0D       		.uleb128 0xd
 4293 0148 00       		.byte	0
 4294 0149 03       		.uleb128 0x3
 4295 014a 08       		.uleb128 0x8
 4296 014b 3A       		.uleb128 0x3a
 4297 014c 0B       		.uleb128 0xb
 4298 014d 3B       		.uleb128 0x3b
 4299 014e 0B       		.uleb128 0xb
 4300 014f 49       		.uleb128 0x49
 4301 0150 13       		.uleb128 0x13
 4302 0151 38       		.uleb128 0x38
 4303 0152 0B       		.uleb128 0xb
ARM GAS  /tmp/ccLnU1Hk.s 			page 108


 4304 0153 00       		.byte	0
 4305 0154 00       		.byte	0
 4306 0155 1C       		.uleb128 0x1c
 4307 0156 13       		.uleb128 0x13
 4308 0157 01       		.byte	0x1
 4309 0158 03       		.uleb128 0x3
 4310 0159 0E       		.uleb128 0xe
 4311 015a 0B       		.uleb128 0xb
 4312 015b 05       		.uleb128 0x5
 4313 015c 3A       		.uleb128 0x3a
 4314 015d 0B       		.uleb128 0xb
 4315 015e 3B       		.uleb128 0x3b
 4316 015f 0B       		.uleb128 0xb
 4317 0160 01       		.uleb128 0x1
 4318 0161 13       		.uleb128 0x13
 4319 0162 00       		.byte	0
 4320 0163 00       		.byte	0
 4321 0164 1D       		.uleb128 0x1d
 4322 0165 0D       		.uleb128 0xd
 4323 0166 00       		.byte	0
 4324 0167 03       		.uleb128 0x3
 4325 0168 0E       		.uleb128 0xe
 4326 0169 3A       		.uleb128 0x3a
 4327 016a 0B       		.uleb128 0xb
 4328 016b 3B       		.uleb128 0x3b
 4329 016c 0B       		.uleb128 0xb
 4330 016d 49       		.uleb128 0x49
 4331 016e 13       		.uleb128 0x13
 4332 016f 38       		.uleb128 0x38
 4333 0170 05       		.uleb128 0x5
 4334 0171 00       		.byte	0
 4335 0172 00       		.byte	0
 4336 0173 1E       		.uleb128 0x1e
 4337 0174 15       		.uleb128 0x15
 4338 0175 00       		.byte	0
 4339 0176 27       		.uleb128 0x27
 4340 0177 19       		.uleb128 0x19
 4341 0178 00       		.byte	0
 4342 0179 00       		.byte	0
 4343 017a 1F       		.uleb128 0x1f
 4344 017b 15       		.uleb128 0x15
 4345 017c 01       		.byte	0x1
 4346 017d 27       		.uleb128 0x27
 4347 017e 19       		.uleb128 0x19
 4348 017f 49       		.uleb128 0x49
 4349 0180 13       		.uleb128 0x13
 4350 0181 01       		.uleb128 0x1
 4351 0182 13       		.uleb128 0x13
 4352 0183 00       		.byte	0
 4353 0184 00       		.byte	0
 4354 0185 20       		.uleb128 0x20
 4355 0186 05       		.uleb128 0x5
 4356 0187 00       		.byte	0
 4357 0188 49       		.uleb128 0x49
 4358 0189 13       		.uleb128 0x13
 4359 018a 00       		.byte	0
 4360 018b 00       		.byte	0
ARM GAS  /tmp/ccLnU1Hk.s 			page 109


 4361 018c 21       		.uleb128 0x21
 4362 018d 13       		.uleb128 0x13
 4363 018e 01       		.byte	0x1
 4364 018f 03       		.uleb128 0x3
 4365 0190 0E       		.uleb128 0xe
 4366 0191 0B       		.uleb128 0xb
 4367 0192 05       		.uleb128 0x5
 4368 0193 3A       		.uleb128 0x3a
 4369 0194 0B       		.uleb128 0xb
 4370 0195 3B       		.uleb128 0x3b
 4371 0196 05       		.uleb128 0x5
 4372 0197 01       		.uleb128 0x1
 4373 0198 13       		.uleb128 0x13
 4374 0199 00       		.byte	0
 4375 019a 00       		.byte	0
 4376 019b 22       		.uleb128 0x22
 4377 019c 0D       		.uleb128 0xd
 4378 019d 00       		.byte	0
 4379 019e 03       		.uleb128 0x3
 4380 019f 0E       		.uleb128 0xe
 4381 01a0 3A       		.uleb128 0x3a
 4382 01a1 0B       		.uleb128 0xb
 4383 01a2 3B       		.uleb128 0x3b
 4384 01a3 05       		.uleb128 0x5
 4385 01a4 49       		.uleb128 0x49
 4386 01a5 13       		.uleb128 0x13
 4387 01a6 38       		.uleb128 0x38
 4388 01a7 05       		.uleb128 0x5
 4389 01a8 00       		.byte	0
 4390 01a9 00       		.byte	0
 4391 01aa 23       		.uleb128 0x23
 4392 01ab 13       		.uleb128 0x13
 4393 01ac 01       		.byte	0x1
 4394 01ad 03       		.uleb128 0x3
 4395 01ae 0E       		.uleb128 0xe
 4396 01af 0B       		.uleb128 0xb
 4397 01b0 0B       		.uleb128 0xb
 4398 01b1 3A       		.uleb128 0x3a
 4399 01b2 0B       		.uleb128 0xb
 4400 01b3 3B       		.uleb128 0x3b
 4401 01b4 05       		.uleb128 0x5
 4402 01b5 01       		.uleb128 0x1
 4403 01b6 13       		.uleb128 0x13
 4404 01b7 00       		.byte	0
 4405 01b8 00       		.byte	0
 4406 01b9 24       		.uleb128 0x24
 4407 01ba 17       		.uleb128 0x17
 4408 01bb 01       		.byte	0x1
 4409 01bc 0B       		.uleb128 0xb
 4410 01bd 0B       		.uleb128 0xb
 4411 01be 3A       		.uleb128 0x3a
 4412 01bf 0B       		.uleb128 0xb
 4413 01c0 3B       		.uleb128 0x3b
 4414 01c1 05       		.uleb128 0x5
 4415 01c2 01       		.uleb128 0x1
 4416 01c3 13       		.uleb128 0x13
 4417 01c4 00       		.byte	0
ARM GAS  /tmp/ccLnU1Hk.s 			page 110


 4418 01c5 00       		.byte	0
 4419 01c6 25       		.uleb128 0x25
 4420 01c7 0D       		.uleb128 0xd
 4421 01c8 00       		.byte	0
 4422 01c9 03       		.uleb128 0x3
 4423 01ca 0E       		.uleb128 0xe
 4424 01cb 3A       		.uleb128 0x3a
 4425 01cc 0B       		.uleb128 0xb
 4426 01cd 3B       		.uleb128 0x3b
 4427 01ce 05       		.uleb128 0x5
 4428 01cf 49       		.uleb128 0x49
 4429 01d0 13       		.uleb128 0x13
 4430 01d1 00       		.byte	0
 4431 01d2 00       		.byte	0
 4432 01d3 26       		.uleb128 0x26
 4433 01d4 15       		.uleb128 0x15
 4434 01d5 01       		.byte	0x1
 4435 01d6 27       		.uleb128 0x27
 4436 01d7 19       		.uleb128 0x19
 4437 01d8 01       		.uleb128 0x1
 4438 01d9 13       		.uleb128 0x13
 4439 01da 00       		.byte	0
 4440 01db 00       		.byte	0
 4441 01dc 27       		.uleb128 0x27
 4442 01dd 04       		.uleb128 0x4
 4443 01de 01       		.byte	0x1
 4444 01df 03       		.uleb128 0x3
 4445 01e0 0E       		.uleb128 0xe
 4446 01e1 0B       		.uleb128 0xb
 4447 01e2 0B       		.uleb128 0xb
 4448 01e3 49       		.uleb128 0x49
 4449 01e4 13       		.uleb128 0x13
 4450 01e5 3A       		.uleb128 0x3a
 4451 01e6 0B       		.uleb128 0xb
 4452 01e7 3B       		.uleb128 0x3b
 4453 01e8 05       		.uleb128 0x5
 4454 01e9 01       		.uleb128 0x1
 4455 01ea 13       		.uleb128 0x13
 4456 01eb 00       		.byte	0
 4457 01ec 00       		.byte	0
 4458 01ed 28       		.uleb128 0x28
 4459 01ee 28       		.uleb128 0x28
 4460 01ef 00       		.byte	0
 4461 01f0 03       		.uleb128 0x3
 4462 01f1 0E       		.uleb128 0xe
 4463 01f2 1C       		.uleb128 0x1c
 4464 01f3 0D       		.uleb128 0xd
 4465 01f4 00       		.byte	0
 4466 01f5 00       		.byte	0
 4467 01f6 29       		.uleb128 0x29
 4468 01f7 21       		.uleb128 0x21
 4469 01f8 00       		.byte	0
 4470 01f9 00       		.byte	0
 4471 01fa 00       		.byte	0
 4472 01fb 2A       		.uleb128 0x2a
 4473 01fc 2E       		.uleb128 0x2e
 4474 01fd 01       		.byte	0x1
ARM GAS  /tmp/ccLnU1Hk.s 			page 111


 4475 01fe 3F       		.uleb128 0x3f
 4476 01ff 19       		.uleb128 0x19
 4477 0200 03       		.uleb128 0x3
 4478 0201 0E       		.uleb128 0xe
 4479 0202 3A       		.uleb128 0x3a
 4480 0203 0B       		.uleb128 0xb
 4481 0204 3B       		.uleb128 0x3b
 4482 0205 05       		.uleb128 0x5
 4483 0206 27       		.uleb128 0x27
 4484 0207 19       		.uleb128 0x19
 4485 0208 49       		.uleb128 0x49
 4486 0209 13       		.uleb128 0x13
 4487 020a 11       		.uleb128 0x11
 4488 020b 01       		.uleb128 0x1
 4489 020c 12       		.uleb128 0x12
 4490 020d 06       		.uleb128 0x6
 4491 020e 40       		.uleb128 0x40
 4492 020f 18       		.uleb128 0x18
 4493 0210 9742     		.uleb128 0x2117
 4494 0212 19       		.uleb128 0x19
 4495 0213 01       		.uleb128 0x1
 4496 0214 13       		.uleb128 0x13
 4497 0215 00       		.byte	0
 4498 0216 00       		.byte	0
 4499 0217 2B       		.uleb128 0x2b
 4500 0218 05       		.uleb128 0x5
 4501 0219 00       		.byte	0
 4502 021a 03       		.uleb128 0x3
 4503 021b 0E       		.uleb128 0xe
 4504 021c 3A       		.uleb128 0x3a
 4505 021d 0B       		.uleb128 0xb
 4506 021e 3B       		.uleb128 0x3b
 4507 021f 05       		.uleb128 0x5
 4508 0220 49       		.uleb128 0x49
 4509 0221 13       		.uleb128 0x13
 4510 0222 02       		.uleb128 0x2
 4511 0223 17       		.uleb128 0x17
 4512 0224 00       		.byte	0
 4513 0225 00       		.byte	0
 4514 0226 2C       		.uleb128 0x2c
 4515 0227 34       		.uleb128 0x34
 4516 0228 00       		.byte	0
 4517 0229 03       		.uleb128 0x3
 4518 022a 0E       		.uleb128 0xe
 4519 022b 3A       		.uleb128 0x3a
 4520 022c 0B       		.uleb128 0xb
 4521 022d 3B       		.uleb128 0x3b
 4522 022e 05       		.uleb128 0x5
 4523 022f 49       		.uleb128 0x49
 4524 0230 13       		.uleb128 0x13
 4525 0231 02       		.uleb128 0x2
 4526 0232 17       		.uleb128 0x17
 4527 0233 00       		.byte	0
 4528 0234 00       		.byte	0
 4529 0235 2D       		.uleb128 0x2d
 4530 0236 898201   		.uleb128 0x4109
 4531 0239 00       		.byte	0
ARM GAS  /tmp/ccLnU1Hk.s 			page 112


 4532 023a 11       		.uleb128 0x11
 4533 023b 01       		.uleb128 0x1
 4534 023c 31       		.uleb128 0x31
 4535 023d 13       		.uleb128 0x13
 4536 023e 00       		.byte	0
 4537 023f 00       		.byte	0
 4538 0240 2E       		.uleb128 0x2e
 4539 0241 2E       		.uleb128 0x2e
 4540 0242 01       		.byte	0x1
 4541 0243 3F       		.uleb128 0x3f
 4542 0244 19       		.uleb128 0x19
 4543 0245 03       		.uleb128 0x3
 4544 0246 0E       		.uleb128 0xe
 4545 0247 3A       		.uleb128 0x3a
 4546 0248 0B       		.uleb128 0xb
 4547 0249 3B       		.uleb128 0x3b
 4548 024a 05       		.uleb128 0x5
 4549 024b 27       		.uleb128 0x27
 4550 024c 19       		.uleb128 0x19
 4551 024d 11       		.uleb128 0x11
 4552 024e 01       		.uleb128 0x1
 4553 024f 12       		.uleb128 0x12
 4554 0250 06       		.uleb128 0x6
 4555 0251 40       		.uleb128 0x40
 4556 0252 18       		.uleb128 0x18
 4557 0253 9742     		.uleb128 0x2117
 4558 0255 19       		.uleb128 0x19
 4559 0256 01       		.uleb128 0x1
 4560 0257 13       		.uleb128 0x13
 4561 0258 00       		.byte	0
 4562 0259 00       		.byte	0
 4563 025a 2F       		.uleb128 0x2f
 4564 025b 05       		.uleb128 0x5
 4565 025c 00       		.byte	0
 4566 025d 03       		.uleb128 0x3
 4567 025e 0E       		.uleb128 0xe
 4568 025f 3A       		.uleb128 0x3a
 4569 0260 0B       		.uleb128 0xb
 4570 0261 3B       		.uleb128 0x3b
 4571 0262 05       		.uleb128 0x5
 4572 0263 49       		.uleb128 0x49
 4573 0264 13       		.uleb128 0x13
 4574 0265 02       		.uleb128 0x2
 4575 0266 18       		.uleb128 0x18
 4576 0267 00       		.byte	0
 4577 0268 00       		.byte	0
 4578 0269 30       		.uleb128 0x30
 4579 026a 2E       		.uleb128 0x2e
 4580 026b 00       		.byte	0
 4581 026c 3F       		.uleb128 0x3f
 4582 026d 19       		.uleb128 0x19
 4583 026e 03       		.uleb128 0x3
 4584 026f 0E       		.uleb128 0xe
 4585 0270 3A       		.uleb128 0x3a
 4586 0271 0B       		.uleb128 0xb
 4587 0272 3B       		.uleb128 0x3b
 4588 0273 05       		.uleb128 0x5
ARM GAS  /tmp/ccLnU1Hk.s 			page 113


 4589 0274 27       		.uleb128 0x27
 4590 0275 19       		.uleb128 0x19
 4591 0276 49       		.uleb128 0x49
 4592 0277 13       		.uleb128 0x13
 4593 0278 11       		.uleb128 0x11
 4594 0279 01       		.uleb128 0x1
 4595 027a 12       		.uleb128 0x12
 4596 027b 06       		.uleb128 0x6
 4597 027c 40       		.uleb128 0x40
 4598 027d 18       		.uleb128 0x18
 4599 027e 9742     		.uleb128 0x2117
 4600 0280 19       		.uleb128 0x19
 4601 0281 00       		.byte	0
 4602 0282 00       		.byte	0
 4603 0283 31       		.uleb128 0x31
 4604 0284 898201   		.uleb128 0x4109
 4605 0287 01       		.byte	0x1
 4606 0288 11       		.uleb128 0x11
 4607 0289 01       		.uleb128 0x1
 4608 028a 31       		.uleb128 0x31
 4609 028b 13       		.uleb128 0x13
 4610 028c 01       		.uleb128 0x1
 4611 028d 13       		.uleb128 0x13
 4612 028e 00       		.byte	0
 4613 028f 00       		.byte	0
 4614 0290 32       		.uleb128 0x32
 4615 0291 8A8201   		.uleb128 0x410a
 4616 0294 00       		.byte	0
 4617 0295 02       		.uleb128 0x2
 4618 0296 18       		.uleb128 0x18
 4619 0297 9142     		.uleb128 0x2111
 4620 0299 18       		.uleb128 0x18
 4621 029a 00       		.byte	0
 4622 029b 00       		.byte	0
 4623 029c 33       		.uleb128 0x33
 4624 029d 898201   		.uleb128 0x4109
 4625 02a0 01       		.byte	0x1
 4626 02a1 11       		.uleb128 0x11
 4627 02a2 01       		.uleb128 0x1
 4628 02a3 31       		.uleb128 0x31
 4629 02a4 13       		.uleb128 0x13
 4630 02a5 00       		.byte	0
 4631 02a6 00       		.byte	0
 4632 02a7 34       		.uleb128 0x34
 4633 02a8 34       		.uleb128 0x34
 4634 02a9 00       		.byte	0
 4635 02aa 03       		.uleb128 0x3
 4636 02ab 08       		.uleb128 0x8
 4637 02ac 3A       		.uleb128 0x3a
 4638 02ad 0B       		.uleb128 0xb
 4639 02ae 3B       		.uleb128 0x3b
 4640 02af 05       		.uleb128 0x5
 4641 02b0 49       		.uleb128 0x49
 4642 02b1 13       		.uleb128 0x13
 4643 02b2 02       		.uleb128 0x2
 4644 02b3 18       		.uleb128 0x18
 4645 02b4 00       		.byte	0
ARM GAS  /tmp/ccLnU1Hk.s 			page 114


 4646 02b5 00       		.byte	0
 4647 02b6 35       		.uleb128 0x35
 4648 02b7 2E       		.uleb128 0x2e
 4649 02b8 00       		.byte	0
 4650 02b9 3F       		.uleb128 0x3f
 4651 02ba 19       		.uleb128 0x19
 4652 02bb 03       		.uleb128 0x3
 4653 02bc 0E       		.uleb128 0xe
 4654 02bd 3A       		.uleb128 0x3a
 4655 02be 0B       		.uleb128 0xb
 4656 02bf 3B       		.uleb128 0x3b
 4657 02c0 05       		.uleb128 0x5
 4658 02c1 27       		.uleb128 0x27
 4659 02c2 19       		.uleb128 0x19
 4660 02c3 11       		.uleb128 0x11
 4661 02c4 01       		.uleb128 0x1
 4662 02c5 12       		.uleb128 0x12
 4663 02c6 06       		.uleb128 0x6
 4664 02c7 40       		.uleb128 0x40
 4665 02c8 18       		.uleb128 0x18
 4666 02c9 9742     		.uleb128 0x2117
 4667 02cb 19       		.uleb128 0x19
 4668 02cc 00       		.byte	0
 4669 02cd 00       		.byte	0
 4670 02ce 36       		.uleb128 0x36
 4671 02cf 2E       		.uleb128 0x2e
 4672 02d0 01       		.byte	0x1
 4673 02d1 3F       		.uleb128 0x3f
 4674 02d2 19       		.uleb128 0x19
 4675 02d3 03       		.uleb128 0x3
 4676 02d4 0E       		.uleb128 0xe
 4677 02d5 3A       		.uleb128 0x3a
 4678 02d6 0B       		.uleb128 0xb
 4679 02d7 3B       		.uleb128 0x3b
 4680 02d8 05       		.uleb128 0x5
 4681 02d9 27       		.uleb128 0x27
 4682 02da 19       		.uleb128 0x19
 4683 02db 11       		.uleb128 0x11
 4684 02dc 01       		.uleb128 0x1
 4685 02dd 12       		.uleb128 0x12
 4686 02de 06       		.uleb128 0x6
 4687 02df 40       		.uleb128 0x40
 4688 02e0 18       		.uleb128 0x18
 4689 02e1 9742     		.uleb128 0x2117
 4690 02e3 19       		.uleb128 0x19
 4691 02e4 00       		.byte	0
 4692 02e5 00       		.byte	0
 4693 02e6 37       		.uleb128 0x37
 4694 02e7 05       		.uleb128 0x5
 4695 02e8 00       		.byte	0
 4696 02e9 03       		.uleb128 0x3
 4697 02ea 0E       		.uleb128 0xe
 4698 02eb 3A       		.uleb128 0x3a
 4699 02ec 0B       		.uleb128 0xb
 4700 02ed 3B       		.uleb128 0x3b
 4701 02ee 0B       		.uleb128 0xb
 4702 02ef 49       		.uleb128 0x49
ARM GAS  /tmp/ccLnU1Hk.s 			page 115


 4703 02f0 13       		.uleb128 0x13
 4704 02f1 02       		.uleb128 0x2
 4705 02f2 17       		.uleb128 0x17
 4706 02f3 00       		.byte	0
 4707 02f4 00       		.byte	0
 4708 02f5 00       		.byte	0
 4709              		.section	.debug_loc,"",%progbits
 4710              	.Ldebug_loc0:
 4711              	.LLST39:
 4712 0000 60050000 		.4byte	.LVL123-.Ltext0
 4713 0004 67050000 		.4byte	.LVL125-1-.Ltext0
 4714 0008 0100     		.2byte	0x1
 4715 000a 50       		.byte	0x50
 4716 000b 67050000 		.4byte	.LVL125-1-.Ltext0
 4717 000f 88050000 		.4byte	.LFE90-.Ltext0
 4718 0013 0100     		.2byte	0x1
 4719 0015 54       		.byte	0x54
 4720 0016 00000000 		.4byte	0
 4721 001a 00000000 		.4byte	0
 4722              	.LLST40:
 4723 001e 64050000 		.4byte	.LVL124-.Ltext0
 4724 0022 68050000 		.4byte	.LVL125-.Ltext0
 4725 0026 0200     		.2byte	0x2
 4726 0028 34       		.byte	0x34
 4727 0029 9F       		.byte	0x9f
 4728 002a 68050000 		.4byte	.LVL125-.Ltext0
 4729 002e 6E050000 		.4byte	.LVL126-.Ltext0
 4730 0032 0100     		.2byte	0x1
 4731 0034 50       		.byte	0x50
 4732 0035 6E050000 		.4byte	.LVL126-.Ltext0
 4733 0039 72050000 		.4byte	.LVL127-.Ltext0
 4734 003d 0200     		.2byte	0x2
 4735 003f 31       		.byte	0x31
 4736 0040 9F       		.byte	0x9f
 4737 0041 72050000 		.4byte	.LVL127-.Ltext0
 4738 0045 7E050000 		.4byte	.LVL129-.Ltext0
 4739 0049 0100     		.2byte	0x1
 4740 004b 50       		.byte	0x50
 4741 004c 7E050000 		.4byte	.LVL129-.Ltext0
 4742 0050 80050000 		.4byte	.LVL130-.Ltext0
 4743 0054 0200     		.2byte	0x2
 4744 0056 35       		.byte	0x35
 4745 0057 9F       		.byte	0x9f
 4746 0058 80050000 		.4byte	.LVL130-.Ltext0
 4747 005c 86050000 		.4byte	.LVL131-.Ltext0
 4748 0060 0100     		.2byte	0x1
 4749 0062 50       		.byte	0x50
 4750 0063 00000000 		.4byte	0
 4751 0067 00000000 		.4byte	0
 4752              	.LLST11:
 4753 006b 7C010000 		.4byte	.LVL30-.Ltext0
 4754 006f 83010000 		.4byte	.LVL32-1-.Ltext0
 4755 0073 0100     		.2byte	0x1
 4756 0075 50       		.byte	0x50
 4757 0076 83010000 		.4byte	.LVL32-1-.Ltext0
 4758 007a A4010000 		.4byte	.LFE89-.Ltext0
 4759 007e 0100     		.2byte	0x1
ARM GAS  /tmp/ccLnU1Hk.s 			page 116


 4760 0080 54       		.byte	0x54
 4761 0081 00000000 		.4byte	0
 4762 0085 00000000 		.4byte	0
 4763              	.LLST12:
 4764 0089 80010000 		.4byte	.LVL31-.Ltext0
 4765 008d 84010000 		.4byte	.LVL32-.Ltext0
 4766 0091 0200     		.2byte	0x2
 4767 0093 34       		.byte	0x34
 4768 0094 9F       		.byte	0x9f
 4769 0095 84010000 		.4byte	.LVL32-.Ltext0
 4770 0099 8A010000 		.4byte	.LVL33-.Ltext0
 4771 009d 0100     		.2byte	0x1
 4772 009f 50       		.byte	0x50
 4773 00a0 8A010000 		.4byte	.LVL33-.Ltext0
 4774 00a4 8E010000 		.4byte	.LVL34-.Ltext0
 4775 00a8 0200     		.2byte	0x2
 4776 00aa 31       		.byte	0x31
 4777 00ab 9F       		.byte	0x9f
 4778 00ac 8E010000 		.4byte	.LVL34-.Ltext0
 4779 00b0 9A010000 		.4byte	.LVL36-.Ltext0
 4780 00b4 0100     		.2byte	0x1
 4781 00b6 50       		.byte	0x50
 4782 00b7 9A010000 		.4byte	.LVL36-.Ltext0
 4783 00bb 9C010000 		.4byte	.LVL37-.Ltext0
 4784 00bf 0200     		.2byte	0x2
 4785 00c1 35       		.byte	0x35
 4786 00c2 9F       		.byte	0x9f
 4787 00c3 9C010000 		.4byte	.LVL37-.Ltext0
 4788 00c7 A2010000 		.4byte	.LVL38-.Ltext0
 4789 00cb 0100     		.2byte	0x1
 4790 00cd 50       		.byte	0x50
 4791 00ce 00000000 		.4byte	0
 4792 00d2 00000000 		.4byte	0
 4793              	.LLST10:
 4794 00d6 48010000 		.4byte	.LVL27-.Ltext0
 4795 00da 5E010000 		.4byte	.LVL28-.Ltext0
 4796 00de 0200     		.2byte	0x2
 4797 00e0 34       		.byte	0x34
 4798 00e1 9F       		.byte	0x9f
 4799 00e2 5E010000 		.4byte	.LVL28-.Ltext0
 4800 00e6 60010000 		.4byte	.LVL29-.Ltext0
 4801 00ea 0100     		.2byte	0x1
 4802 00ec 50       		.byte	0x50
 4803 00ed 60010000 		.4byte	.LVL29-.Ltext0
 4804 00f1 7C010000 		.4byte	.LFE88-.Ltext0
 4805 00f5 0200     		.2byte	0x2
 4806 00f7 34       		.byte	0x34
 4807 00f8 9F       		.byte	0x9f
 4808 00f9 00000000 		.4byte	0
 4809 00fd 00000000 		.4byte	0
 4810              	.LLST9:
 4811 0101 14010000 		.4byte	.LVL24-.Ltext0
 4812 0105 2A010000 		.4byte	.LVL25-.Ltext0
 4813 0109 0200     		.2byte	0x2
 4814 010b 34       		.byte	0x34
 4815 010c 9F       		.byte	0x9f
 4816 010d 2A010000 		.4byte	.LVL25-.Ltext0
ARM GAS  /tmp/ccLnU1Hk.s 			page 117


 4817 0111 2C010000 		.4byte	.LVL26-.Ltext0
 4818 0115 0100     		.2byte	0x1
 4819 0117 50       		.byte	0x50
 4820 0118 2C010000 		.4byte	.LVL26-.Ltext0
 4821 011c 48010000 		.4byte	.LFE87-.Ltext0
 4822 0120 0200     		.2byte	0x2
 4823 0122 34       		.byte	0x34
 4824 0123 9F       		.byte	0x9f
 4825 0124 00000000 		.4byte	0
 4826 0128 00000000 		.4byte	0
 4827              	.LLST7:
 4828 012c E8000000 		.4byte	.LVL18-.Ltext0
 4829 0130 F6000000 		.4byte	.LVL19-.Ltext0
 4830 0134 0100     		.2byte	0x1
 4831 0136 50       		.byte	0x50
 4832 0137 F6000000 		.4byte	.LVL19-.Ltext0
 4833 013b FA000000 		.4byte	.LVL21-.Ltext0
 4834 013f 0400     		.2byte	0x4
 4835 0141 F3       		.byte	0xf3
 4836 0142 01       		.uleb128 0x1
 4837 0143 50       		.byte	0x50
 4838 0144 9F       		.byte	0x9f
 4839 0145 FA000000 		.4byte	.LVL21-.Ltext0
 4840 0149 FE000000 		.4byte	.LVL22-.Ltext0
 4841 014d 0100     		.2byte	0x1
 4842 014f 50       		.byte	0x50
 4843 0150 FE000000 		.4byte	.LVL22-.Ltext0
 4844 0154 08010000 		.4byte	.LFE85-.Ltext0
 4845 0158 0400     		.2byte	0x4
 4846 015a F3       		.byte	0xf3
 4847 015b 01       		.uleb128 0x1
 4848 015c 50       		.byte	0x50
 4849 015d 9F       		.byte	0x9f
 4850 015e 00000000 		.4byte	0
 4851 0162 00000000 		.4byte	0
 4852              	.LLST8:
 4853 0166 E8000000 		.4byte	.LVL18-.Ltext0
 4854 016a F8000000 		.4byte	.LVL20-.Ltext0
 4855 016e 0200     		.2byte	0x2
 4856 0170 30       		.byte	0x30
 4857 0171 9F       		.byte	0x9f
 4858 0172 F8000000 		.4byte	.LVL20-.Ltext0
 4859 0176 FA000000 		.4byte	.LVL21-.Ltext0
 4860 017a 0100     		.2byte	0x1
 4861 017c 50       		.byte	0x50
 4862 017d FA000000 		.4byte	.LVL21-.Ltext0
 4863 0181 08010000 		.4byte	.LFE85-.Ltext0
 4864 0185 0200     		.2byte	0x2
 4865 0187 30       		.byte	0x30
 4866 0188 9F       		.byte	0x9f
 4867 0189 00000000 		.4byte	0
 4868 018d 00000000 		.4byte	0
 4869              	.LLST6:
 4870 0191 CC000000 		.4byte	.LVL14-.Ltext0
 4871 0195 D6000000 		.4byte	.LVL15-.Ltext0
 4872 0199 0100     		.2byte	0x1
 4873 019b 50       		.byte	0x50
ARM GAS  /tmp/ccLnU1Hk.s 			page 118


 4874 019c D6000000 		.4byte	.LVL15-.Ltext0
 4875 01a0 DA000000 		.4byte	.LVL16-.Ltext0
 4876 01a4 0400     		.2byte	0x4
 4877 01a6 F3       		.byte	0xf3
 4878 01a7 01       		.uleb128 0x1
 4879 01a8 50       		.byte	0x50
 4880 01a9 9F       		.byte	0x9f
 4881 01aa DA000000 		.4byte	.LVL16-.Ltext0
 4882 01ae E0000000 		.4byte	.LVL17-.Ltext0
 4883 01b2 0100     		.2byte	0x1
 4884 01b4 50       		.byte	0x50
 4885 01b5 E0000000 		.4byte	.LVL17-.Ltext0
 4886 01b9 E8000000 		.4byte	.LFE84-.Ltext0
 4887 01bd 0400     		.2byte	0x4
 4888 01bf F3       		.byte	0xf3
 4889 01c0 01       		.uleb128 0x1
 4890 01c1 50       		.byte	0x50
 4891 01c2 9F       		.byte	0x9f
 4892 01c3 00000000 		.4byte	0
 4893 01c7 00000000 		.4byte	0
 4894              	.LLST5:
 4895 01cb BC000000 		.4byte	.LVL11-.Ltext0
 4896 01cf C0000000 		.4byte	.LVL12-.Ltext0
 4897 01d3 0200     		.2byte	0x2
 4898 01d5 30       		.byte	0x30
 4899 01d6 9F       		.byte	0x9f
 4900 01d7 C0000000 		.4byte	.LVL12-.Ltext0
 4901 01db C4000000 		.4byte	.LVL13-.Ltext0
 4902 01df 0800     		.2byte	0x8
 4903 01e1 70       		.byte	0x70
 4904 01e2 00       		.sleb128 0
 4905 01e3 08       		.byte	0x8
 4906 01e4 20       		.byte	0x20
 4907 01e5 1A       		.byte	0x1a
 4908 01e6 30       		.byte	0x30
 4909 01e7 2E       		.byte	0x2e
 4910 01e8 9F       		.byte	0x9f
 4911 01e9 00000000 		.4byte	0
 4912 01ed 00000000 		.4byte	0
 4913              	.LLST4:
 4914 01f1 AC000000 		.4byte	.LVL8-.Ltext0
 4915 01f5 B0000000 		.4byte	.LVL9-.Ltext0
 4916 01f9 0200     		.2byte	0x2
 4917 01fb 30       		.byte	0x30
 4918 01fc 9F       		.byte	0x9f
 4919 01fd B0000000 		.4byte	.LVL9-.Ltext0
 4920 0201 B4000000 		.4byte	.LVL10-.Ltext0
 4921 0205 0700     		.2byte	0x7
 4922 0207 70       		.byte	0x70
 4923 0208 00       		.sleb128 0
 4924 0209 32       		.byte	0x32
 4925 020a 1A       		.byte	0x1a
 4926 020b 30       		.byte	0x30
 4927 020c 2E       		.byte	0x2e
 4928 020d 9F       		.byte	0x9f
 4929 020e 00000000 		.4byte	0
 4930 0212 00000000 		.4byte	0
ARM GAS  /tmp/ccLnU1Hk.s 			page 119


 4931              	.LLST35:
 4932 0216 00050000 		.4byte	.LVL116-.Ltext0
 4933 021a 18050000 		.4byte	.LVL119-.Ltext0
 4934 021e 0100     		.2byte	0x1
 4935 0220 50       		.byte	0x50
 4936 0221 18050000 		.4byte	.LVL119-.Ltext0
 4937 0225 60050000 		.4byte	.LFE79-.Ltext0
 4938 0229 0400     		.2byte	0x4
 4939 022b F3       		.byte	0xf3
 4940 022c 01       		.uleb128 0x1
 4941 022d 50       		.byte	0x50
 4942 022e 9F       		.byte	0x9f
 4943 022f 00000000 		.4byte	0
 4944 0233 00000000 		.4byte	0
 4945              	.LLST36:
 4946 0237 00050000 		.4byte	.LVL116-.Ltext0
 4947 023b 1B050000 		.4byte	.LVL120-1-.Ltext0
 4948 023f 0100     		.2byte	0x1
 4949 0241 51       		.byte	0x51
 4950 0242 1B050000 		.4byte	.LVL120-1-.Ltext0
 4951 0246 60050000 		.4byte	.LFE79-.Ltext0
 4952 024a 0400     		.2byte	0x4
 4953 024c F3       		.byte	0xf3
 4954 024d 01       		.uleb128 0x1
 4955 024e 51       		.byte	0x51
 4956 024f 9F       		.byte	0x9f
 4957 0250 00000000 		.4byte	0
 4958 0254 00000000 		.4byte	0
 4959              	.LLST37:
 4960 0258 00050000 		.4byte	.LVL116-.Ltext0
 4961 025c 0C050000 		.4byte	.LVL118-.Ltext0
 4962 0260 0100     		.2byte	0x1
 4963 0262 52       		.byte	0x52
 4964 0263 0C050000 		.4byte	.LVL118-.Ltext0
 4965 0267 60050000 		.4byte	.LFE79-.Ltext0
 4966 026b 0400     		.2byte	0x4
 4967 026d F3       		.byte	0xf3
 4968 026e 01       		.uleb128 0x1
 4969 026f 52       		.byte	0x52
 4970 0270 9F       		.byte	0x9f
 4971 0271 00000000 		.4byte	0
 4972 0275 00000000 		.4byte	0
 4973              	.LLST38:
 4974 0279 08050000 		.4byte	.LVL117-.Ltext0
 4975 027d 1C050000 		.4byte	.LVL120-.Ltext0
 4976 0281 0200     		.2byte	0x2
 4977 0283 34       		.byte	0x34
 4978 0284 9F       		.byte	0x9f
 4979 0285 1C050000 		.4byte	.LVL120-.Ltext0
 4980 0289 3C050000 		.4byte	.LVL121-.Ltext0
 4981 028d 0100     		.2byte	0x1
 4982 028f 50       		.byte	0x50
 4983 0290 40050000 		.4byte	.LVL122-.Ltext0
 4984 0294 60050000 		.4byte	.LFE79-.Ltext0
 4985 0298 0100     		.2byte	0x1
 4986 029a 50       		.byte	0x50
 4987 029b 00000000 		.4byte	0
ARM GAS  /tmp/ccLnU1Hk.s 			page 120


 4988 029f 00000000 		.4byte	0
 4989              	.LLST33:
 4990 02a3 64040000 		.4byte	.LVL108-.Ltext0
 4991 02a7 6C040000 		.4byte	.LVL110-.Ltext0
 4992 02ab 0100     		.2byte	0x1
 4993 02ad 50       		.byte	0x50
 4994 02ae 6C040000 		.4byte	.LVL110-.Ltext0
 4995 02b2 00050000 		.4byte	.LFE78-.Ltext0
 4996 02b6 0400     		.2byte	0x4
 4997 02b8 F3       		.byte	0xf3
 4998 02b9 01       		.uleb128 0x1
 4999 02ba 50       		.byte	0x50
 5000 02bb 9F       		.byte	0x9f
 5001 02bc 00000000 		.4byte	0
 5002 02c0 00000000 		.4byte	0
 5003              	.LLST34:
 5004 02c4 68040000 		.4byte	.LVL109-.Ltext0
 5005 02c8 70040000 		.4byte	.LVL111-.Ltext0
 5006 02cc 0200     		.2byte	0x2
 5007 02ce 34       		.byte	0x34
 5008 02cf 9F       		.byte	0x9f
 5009 02d0 70040000 		.4byte	.LVL111-.Ltext0
 5010 02d4 96040000 		.4byte	.LVL112-.Ltext0
 5011 02d8 0100     		.2byte	0x1
 5012 02da 50       		.byte	0x50
 5013 02db 9A040000 		.4byte	.LVL113-.Ltext0
 5014 02df D4040000 		.4byte	.LVL114-.Ltext0
 5015 02e3 0100     		.2byte	0x1
 5016 02e5 50       		.byte	0x50
 5017 02e6 D8040000 		.4byte	.LVL115-.Ltext0
 5018 02ea 00050000 		.4byte	.LFE78-.Ltext0
 5019 02ee 0100     		.2byte	0x1
 5020 02f0 50       		.byte	0x50
 5021 02f1 00000000 		.4byte	0
 5022 02f5 00000000 		.4byte	0
 5023              	.LLST27:
 5024 02f9 B4030000 		.4byte	.LVL86-.Ltext0
 5025 02fd B8030000 		.4byte	.LVL87-.Ltext0
 5026 0301 0100     		.2byte	0x1
 5027 0303 50       		.byte	0x50
 5028 0304 B8030000 		.4byte	.LVL87-.Ltext0
 5029 0308 BC030000 		.4byte	.LVL88-.Ltext0
 5030 030c 0400     		.2byte	0x4
 5031 030e 70       		.byte	0x70
 5032 030f 00       		.sleb128 0
 5033 0310 20       		.byte	0x20
 5034 0311 9F       		.byte	0x9f
 5035 0312 BC030000 		.4byte	.LVL88-.Ltext0
 5036 0316 C6030000 		.4byte	.LVL91-.Ltext0
 5037 031a 0400     		.2byte	0x4
 5038 031c 75       		.byte	0x75
 5039 031d 00       		.sleb128 0
 5040 031e 20       		.byte	0x20
 5041 031f 9F       		.byte	0x9f
 5042 0320 C6030000 		.4byte	.LVL91-.Ltext0
 5043 0324 CA030000 		.4byte	.LVL92-.Ltext0
 5044 0328 0500     		.2byte	0x5
ARM GAS  /tmp/ccLnU1Hk.s 			page 121


 5045 032a F3       		.byte	0xf3
 5046 032b 01       		.uleb128 0x1
 5047 032c 50       		.byte	0x50
 5048 032d 20       		.byte	0x20
 5049 032e 9F       		.byte	0x9f
 5050 032f CA030000 		.4byte	.LVL92-.Ltext0
 5051 0333 CC030000 		.4byte	.LVL93-.Ltext0
 5052 0337 0400     		.2byte	0x4
 5053 0339 75       		.byte	0x75
 5054 033a 00       		.sleb128 0
 5055 033b 20       		.byte	0x20
 5056 033c 9F       		.byte	0x9f
 5057 033d CC030000 		.4byte	.LVL93-.Ltext0
 5058 0341 F6030000 		.4byte	.LVL96-.Ltext0
 5059 0345 0100     		.2byte	0x1
 5060 0347 55       		.byte	0x55
 5061 0348 F6030000 		.4byte	.LVL96-.Ltext0
 5062 034c 64040000 		.4byte	.LFE77-.Ltext0
 5063 0350 0500     		.2byte	0x5
 5064 0352 F3       		.byte	0xf3
 5065 0353 01       		.uleb128 0x1
 5066 0354 50       		.byte	0x50
 5067 0355 20       		.byte	0x20
 5068 0356 9F       		.byte	0x9f
 5069 0357 00000000 		.4byte	0
 5070 035b 00000000 		.4byte	0
 5071              	.LLST28:
 5072 035f B8030000 		.4byte	.LVL87-.Ltext0
 5073 0363 BC030000 		.4byte	.LVL88-.Ltext0
 5074 0367 0700     		.2byte	0x7
 5075 0369 70       		.byte	0x70
 5076 036a 00       		.sleb128 0
 5077 036b 20       		.byte	0x20
 5078 036c 08       		.byte	0x8
 5079 036d FF       		.byte	0xff
 5080 036e 1A       		.byte	0x1a
 5081 036f 9F       		.byte	0x9f
 5082 0370 BC030000 		.4byte	.LVL88-.Ltext0
 5083 0374 C6030000 		.4byte	.LVL91-.Ltext0
 5084 0378 0700     		.2byte	0x7
 5085 037a 75       		.byte	0x75
 5086 037b 00       		.sleb128 0
 5087 037c 20       		.byte	0x20
 5088 037d 08       		.byte	0x8
 5089 037e FF       		.byte	0xff
 5090 037f 1A       		.byte	0x1a
 5091 0380 9F       		.byte	0x9f
 5092 0381 C6030000 		.4byte	.LVL91-.Ltext0
 5093 0385 CA030000 		.4byte	.LVL92-.Ltext0
 5094 0389 0800     		.2byte	0x8
 5095 038b F3       		.byte	0xf3
 5096 038c 01       		.uleb128 0x1
 5097 038d 50       		.byte	0x50
 5098 038e 20       		.byte	0x20
 5099 038f 08       		.byte	0x8
 5100 0390 FF       		.byte	0xff
 5101 0391 1A       		.byte	0x1a
ARM GAS  /tmp/ccLnU1Hk.s 			page 122


 5102 0392 9F       		.byte	0x9f
 5103 0393 CA030000 		.4byte	.LVL92-.Ltext0
 5104 0397 CC030000 		.4byte	.LVL93-.Ltext0
 5105 039b 0700     		.2byte	0x7
 5106 039d 75       		.byte	0x75
 5107 039e 00       		.sleb128 0
 5108 039f 20       		.byte	0x20
 5109 03a0 08       		.byte	0x8
 5110 03a1 FF       		.byte	0xff
 5111 03a2 1A       		.byte	0x1a
 5112 03a3 9F       		.byte	0x9f
 5113 03a4 CC030000 		.4byte	.LVL93-.Ltext0
 5114 03a8 F6030000 		.4byte	.LVL96-.Ltext0
 5115 03ac 0600     		.2byte	0x6
 5116 03ae 75       		.byte	0x75
 5117 03af 00       		.sleb128 0
 5118 03b0 08       		.byte	0x8
 5119 03b1 FF       		.byte	0xff
 5120 03b2 1A       		.byte	0x1a
 5121 03b3 9F       		.byte	0x9f
 5122 03b4 F6030000 		.4byte	.LVL96-.Ltext0
 5123 03b8 64040000 		.4byte	.LFE77-.Ltext0
 5124 03bc 0800     		.2byte	0x8
 5125 03be F3       		.byte	0xf3
 5126 03bf 01       		.uleb128 0x1
 5127 03c0 50       		.byte	0x50
 5128 03c1 20       		.byte	0x20
 5129 03c2 08       		.byte	0x8
 5130 03c3 FF       		.byte	0xff
 5131 03c4 1A       		.byte	0x1a
 5132 03c5 9F       		.byte	0x9f
 5133 03c6 00000000 		.4byte	0
 5134 03ca 00000000 		.4byte	0
 5135              	.LLST29:
 5136 03ce B8030000 		.4byte	.LVL87-.Ltext0
 5137 03d2 BC030000 		.4byte	.LVL88-.Ltext0
 5138 03d6 0900     		.2byte	0x9
 5139 03d8 70       		.byte	0x70
 5140 03d9 00       		.sleb128 0
 5141 03da 20       		.byte	0x20
 5142 03db 38       		.byte	0x38
 5143 03dc 25       		.byte	0x25
 5144 03dd 08       		.byte	0x8
 5145 03de FF       		.byte	0xff
 5146 03df 1A       		.byte	0x1a
 5147 03e0 9F       		.byte	0x9f
 5148 03e1 BC030000 		.4byte	.LVL88-.Ltext0
 5149 03e5 C6030000 		.4byte	.LVL91-.Ltext0
 5150 03e9 0900     		.2byte	0x9
 5151 03eb 75       		.byte	0x75
 5152 03ec 00       		.sleb128 0
 5153 03ed 20       		.byte	0x20
 5154 03ee 38       		.byte	0x38
 5155 03ef 25       		.byte	0x25
 5156 03f0 08       		.byte	0x8
 5157 03f1 FF       		.byte	0xff
 5158 03f2 1A       		.byte	0x1a
ARM GAS  /tmp/ccLnU1Hk.s 			page 123


 5159 03f3 9F       		.byte	0x9f
 5160 03f4 C6030000 		.4byte	.LVL91-.Ltext0
 5161 03f8 CA030000 		.4byte	.LVL92-.Ltext0
 5162 03fc 0A00     		.2byte	0xa
 5163 03fe F3       		.byte	0xf3
 5164 03ff 01       		.uleb128 0x1
 5165 0400 50       		.byte	0x50
 5166 0401 20       		.byte	0x20
 5167 0402 38       		.byte	0x38
 5168 0403 25       		.byte	0x25
 5169 0404 08       		.byte	0x8
 5170 0405 FF       		.byte	0xff
 5171 0406 1A       		.byte	0x1a
 5172 0407 9F       		.byte	0x9f
 5173 0408 CA030000 		.4byte	.LVL92-.Ltext0
 5174 040c CC030000 		.4byte	.LVL93-.Ltext0
 5175 0410 0900     		.2byte	0x9
 5176 0412 75       		.byte	0x75
 5177 0413 00       		.sleb128 0
 5178 0414 20       		.byte	0x20
 5179 0415 38       		.byte	0x38
 5180 0416 25       		.byte	0x25
 5181 0417 08       		.byte	0x8
 5182 0418 FF       		.byte	0xff
 5183 0419 1A       		.byte	0x1a
 5184 041a 9F       		.byte	0x9f
 5185 041b CC030000 		.4byte	.LVL93-.Ltext0
 5186 041f F6030000 		.4byte	.LVL96-.Ltext0
 5187 0423 0800     		.2byte	0x8
 5188 0425 75       		.byte	0x75
 5189 0426 00       		.sleb128 0
 5190 0427 38       		.byte	0x38
 5191 0428 25       		.byte	0x25
 5192 0429 08       		.byte	0x8
 5193 042a FF       		.byte	0xff
 5194 042b 1A       		.byte	0x1a
 5195 042c 9F       		.byte	0x9f
 5196 042d F6030000 		.4byte	.LVL96-.Ltext0
 5197 0431 64040000 		.4byte	.LFE77-.Ltext0
 5198 0435 0A00     		.2byte	0xa
 5199 0437 F3       		.byte	0xf3
 5200 0438 01       		.uleb128 0x1
 5201 0439 50       		.byte	0x50
 5202 043a 20       		.byte	0x20
 5203 043b 38       		.byte	0x38
 5204 043c 25       		.byte	0x25
 5205 043d 08       		.byte	0x8
 5206 043e FF       		.byte	0xff
 5207 043f 1A       		.byte	0x1a
 5208 0440 9F       		.byte	0x9f
 5209 0441 00000000 		.4byte	0
 5210 0445 00000000 		.4byte	0
 5211              	.LLST30:
 5212 0449 B8030000 		.4byte	.LVL87-.Ltext0
 5213 044d BC030000 		.4byte	.LVL88-.Ltext0
 5214 0451 0900     		.2byte	0x9
 5215 0453 70       		.byte	0x70
ARM GAS  /tmp/ccLnU1Hk.s 			page 124


 5216 0454 00       		.sleb128 0
 5217 0455 20       		.byte	0x20
 5218 0456 40       		.byte	0x40
 5219 0457 25       		.byte	0x25
 5220 0458 08       		.byte	0x8
 5221 0459 FF       		.byte	0xff
 5222 045a 1A       		.byte	0x1a
 5223 045b 9F       		.byte	0x9f
 5224 045c BC030000 		.4byte	.LVL88-.Ltext0
 5225 0460 C6030000 		.4byte	.LVL91-.Ltext0
 5226 0464 0900     		.2byte	0x9
 5227 0466 75       		.byte	0x75
 5228 0467 00       		.sleb128 0
 5229 0468 20       		.byte	0x20
 5230 0469 40       		.byte	0x40
 5231 046a 25       		.byte	0x25
 5232 046b 08       		.byte	0x8
 5233 046c FF       		.byte	0xff
 5234 046d 1A       		.byte	0x1a
 5235 046e 9F       		.byte	0x9f
 5236 046f C6030000 		.4byte	.LVL91-.Ltext0
 5237 0473 CA030000 		.4byte	.LVL92-.Ltext0
 5238 0477 0A00     		.2byte	0xa
 5239 0479 F3       		.byte	0xf3
 5240 047a 01       		.uleb128 0x1
 5241 047b 50       		.byte	0x50
 5242 047c 20       		.byte	0x20
 5243 047d 40       		.byte	0x40
 5244 047e 25       		.byte	0x25
 5245 047f 08       		.byte	0x8
 5246 0480 FF       		.byte	0xff
 5247 0481 1A       		.byte	0x1a
 5248 0482 9F       		.byte	0x9f
 5249 0483 CA030000 		.4byte	.LVL92-.Ltext0
 5250 0487 CC030000 		.4byte	.LVL93-.Ltext0
 5251 048b 0900     		.2byte	0x9
 5252 048d 75       		.byte	0x75
 5253 048e 00       		.sleb128 0
 5254 048f 20       		.byte	0x20
 5255 0490 40       		.byte	0x40
 5256 0491 25       		.byte	0x25
 5257 0492 08       		.byte	0x8
 5258 0493 FF       		.byte	0xff
 5259 0494 1A       		.byte	0x1a
 5260 0495 9F       		.byte	0x9f
 5261 0496 CC030000 		.4byte	.LVL93-.Ltext0
 5262 049a F6030000 		.4byte	.LVL96-.Ltext0
 5263 049e 0800     		.2byte	0x8
 5264 04a0 75       		.byte	0x75
 5265 04a1 00       		.sleb128 0
 5266 04a2 40       		.byte	0x40
 5267 04a3 25       		.byte	0x25
 5268 04a4 08       		.byte	0x8
 5269 04a5 FF       		.byte	0xff
 5270 04a6 1A       		.byte	0x1a
 5271 04a7 9F       		.byte	0x9f
 5272 04a8 F6030000 		.4byte	.LVL96-.Ltext0
ARM GAS  /tmp/ccLnU1Hk.s 			page 125


 5273 04ac 64040000 		.4byte	.LFE77-.Ltext0
 5274 04b0 0A00     		.2byte	0xa
 5275 04b2 F3       		.byte	0xf3
 5276 04b3 01       		.uleb128 0x1
 5277 04b4 50       		.byte	0x50
 5278 04b5 20       		.byte	0x20
 5279 04b6 40       		.byte	0x40
 5280 04b7 25       		.byte	0x25
 5281 04b8 08       		.byte	0x8
 5282 04b9 FF       		.byte	0xff
 5283 04ba 1A       		.byte	0x1a
 5284 04bb 9F       		.byte	0x9f
 5285 04bc 00000000 		.4byte	0
 5286 04c0 00000000 		.4byte	0
 5287              	.LLST31:
 5288 04c4 B8030000 		.4byte	.LVL87-.Ltext0
 5289 04c8 BC030000 		.4byte	.LVL88-.Ltext0
 5290 04cc 0600     		.2byte	0x6
 5291 04ce 70       		.byte	0x70
 5292 04cf 00       		.sleb128 0
 5293 04d0 20       		.byte	0x20
 5294 04d1 48       		.byte	0x48
 5295 04d2 25       		.byte	0x25
 5296 04d3 9F       		.byte	0x9f
 5297 04d4 BC030000 		.4byte	.LVL88-.Ltext0
 5298 04d8 C6030000 		.4byte	.LVL91-.Ltext0
 5299 04dc 0600     		.2byte	0x6
 5300 04de 75       		.byte	0x75
 5301 04df 00       		.sleb128 0
 5302 04e0 20       		.byte	0x20
 5303 04e1 48       		.byte	0x48
 5304 04e2 25       		.byte	0x25
 5305 04e3 9F       		.byte	0x9f
 5306 04e4 C6030000 		.4byte	.LVL91-.Ltext0
 5307 04e8 CA030000 		.4byte	.LVL92-.Ltext0
 5308 04ec 0700     		.2byte	0x7
 5309 04ee F3       		.byte	0xf3
 5310 04ef 01       		.uleb128 0x1
 5311 04f0 50       		.byte	0x50
 5312 04f1 20       		.byte	0x20
 5313 04f2 48       		.byte	0x48
 5314 04f3 25       		.byte	0x25
 5315 04f4 9F       		.byte	0x9f
 5316 04f5 CA030000 		.4byte	.LVL92-.Ltext0
 5317 04f9 CC030000 		.4byte	.LVL93-.Ltext0
 5318 04fd 0600     		.2byte	0x6
 5319 04ff 75       		.byte	0x75
 5320 0500 00       		.sleb128 0
 5321 0501 20       		.byte	0x20
 5322 0502 48       		.byte	0x48
 5323 0503 25       		.byte	0x25
 5324 0504 9F       		.byte	0x9f
 5325 0505 CC030000 		.4byte	.LVL93-.Ltext0
 5326 0509 F6030000 		.4byte	.LVL96-.Ltext0
 5327 050d 0500     		.2byte	0x5
 5328 050f 75       		.byte	0x75
 5329 0510 00       		.sleb128 0
ARM GAS  /tmp/ccLnU1Hk.s 			page 126


 5330 0511 48       		.byte	0x48
 5331 0512 25       		.byte	0x25
 5332 0513 9F       		.byte	0x9f
 5333 0514 F6030000 		.4byte	.LVL96-.Ltext0
 5334 0518 64040000 		.4byte	.LFE77-.Ltext0
 5335 051c 0700     		.2byte	0x7
 5336 051e F3       		.byte	0xf3
 5337 051f 01       		.uleb128 0x1
 5338 0520 50       		.byte	0x50
 5339 0521 20       		.byte	0x20
 5340 0522 48       		.byte	0x48
 5341 0523 25       		.byte	0x25
 5342 0524 9F       		.byte	0x9f
 5343 0525 00000000 		.4byte	0
 5344 0529 00000000 		.4byte	0
 5345              	.LLST32:
 5346 052d B8030000 		.4byte	.LVL87-.Ltext0
 5347 0531 C2030000 		.4byte	.LVL90-.Ltext0
 5348 0535 0200     		.2byte	0x2
 5349 0537 34       		.byte	0x34
 5350 0538 9F       		.byte	0x9f
 5351 0539 C2030000 		.4byte	.LVL90-.Ltext0
 5352 053d C6030000 		.4byte	.LVL91-.Ltext0
 5353 0541 0100     		.2byte	0x1
 5354 0543 50       		.byte	0x50
 5355 0544 C6030000 		.4byte	.LVL91-.Ltext0
 5356 0548 CA030000 		.4byte	.LVL92-.Ltext0
 5357 054c 0100     		.2byte	0x1
 5358 054e 54       		.byte	0x54
 5359 054f CA030000 		.4byte	.LVL92-.Ltext0
 5360 0553 EE030000 		.4byte	.LVL94-.Ltext0
 5361 0557 0100     		.2byte	0x1
 5362 0559 50       		.byte	0x50
 5363 055a F2030000 		.4byte	.LVL95-.Ltext0
 5364 055e 10040000 		.4byte	.LVL98-.Ltext0
 5365 0562 0100     		.2byte	0x1
 5366 0564 50       		.byte	0x50
 5367 0565 20040000 		.4byte	.LVL99-.Ltext0
 5368 0569 24040000 		.4byte	.LVL100-.Ltext0
 5369 056d 0100     		.2byte	0x1
 5370 056f 50       		.byte	0x50
 5371 0570 28040000 		.4byte	.LVL101-.Ltext0
 5372 0574 38040000 		.4byte	.LVL102-.Ltext0
 5373 0578 0200     		.2byte	0x2
 5374 057a 34       		.byte	0x34
 5375 057b 9F       		.byte	0x9f
 5376 057c 38040000 		.4byte	.LVL102-.Ltext0
 5377 0580 3C040000 		.4byte	.LVL103-.Ltext0
 5378 0584 0100     		.2byte	0x1
 5379 0586 50       		.byte	0x50
 5380 0587 3E040000 		.4byte	.LVL104-.Ltext0
 5381 058b 4E040000 		.4byte	.LVL105-.Ltext0
 5382 058f 0200     		.2byte	0x2
 5383 0591 34       		.byte	0x34
 5384 0592 9F       		.byte	0x9f
 5385 0593 4E040000 		.4byte	.LVL105-.Ltext0
 5386 0597 50040000 		.4byte	.LVL106-.Ltext0
ARM GAS  /tmp/ccLnU1Hk.s 			page 127


 5387 059b 0100     		.2byte	0x1
 5388 059d 50       		.byte	0x50
 5389 059e 50040000 		.4byte	.LVL106-.Ltext0
 5390 05a2 54040000 		.4byte	.LVL107-.Ltext0
 5391 05a6 0200     		.2byte	0x2
 5392 05a8 34       		.byte	0x34
 5393 05a9 9F       		.byte	0x9f
 5394 05aa 54040000 		.4byte	.LVL107-.Ltext0
 5395 05ae 64040000 		.4byte	.LFE77-.Ltext0
 5396 05b2 0100     		.2byte	0x1
 5397 05b4 50       		.byte	0x50
 5398 05b5 00000000 		.4byte	0
 5399 05b9 00000000 		.4byte	0
 5400              	.LLST24:
 5401 05bd 64030000 		.4byte	.LVL79-.Ltext0
 5402 05c1 6E030000 		.4byte	.LVL81-.Ltext0
 5403 05c5 0100     		.2byte	0x1
 5404 05c7 50       		.byte	0x50
 5405 05c8 6E030000 		.4byte	.LVL81-.Ltext0
 5406 05cc B4030000 		.4byte	.LFE76-.Ltext0
 5407 05d0 0100     		.2byte	0x1
 5408 05d2 55       		.byte	0x55
 5409 05d3 00000000 		.4byte	0
 5410 05d7 00000000 		.4byte	0
 5411              	.LLST25:
 5412 05db 64030000 		.4byte	.LVL79-.Ltext0
 5413 05df 71030000 		.4byte	.LVL82-1-.Ltext0
 5414 05e3 0100     		.2byte	0x1
 5415 05e5 51       		.byte	0x51
 5416 05e6 71030000 		.4byte	.LVL82-1-.Ltext0
 5417 05ea B4030000 		.4byte	.LFE76-.Ltext0
 5418 05ee 0400     		.2byte	0x4
 5419 05f0 F3       		.byte	0xf3
 5420 05f1 01       		.uleb128 0x1
 5421 05f2 51       		.byte	0x51
 5422 05f3 9F       		.byte	0x9f
 5423 05f4 00000000 		.4byte	0
 5424 05f8 00000000 		.4byte	0
 5425              	.LLST26:
 5426 05fc 6A030000 		.4byte	.LVL80-.Ltext0
 5427 0600 72030000 		.4byte	.LVL82-.Ltext0
 5428 0604 0200     		.2byte	0x2
 5429 0606 34       		.byte	0x34
 5430 0607 9F       		.byte	0x9f
 5431 0608 72030000 		.4byte	.LVL82-.Ltext0
 5432 060c 94030000 		.4byte	.LVL84-.Ltext0
 5433 0610 0100     		.2byte	0x1
 5434 0612 50       		.byte	0x50
 5435 0613 98030000 		.4byte	.LVL85-.Ltext0
 5436 0617 B4030000 		.4byte	.LFE76-.Ltext0
 5437 061b 0100     		.2byte	0x1
 5438 061d 50       		.byte	0x50
 5439 061e 00000000 		.4byte	0
 5440 0622 00000000 		.4byte	0
 5441              	.LLST21:
 5442 0626 28030000 		.4byte	.LVL72-.Ltext0
 5443 062a 32030000 		.4byte	.LVL74-.Ltext0
ARM GAS  /tmp/ccLnU1Hk.s 			page 128


 5444 062e 0100     		.2byte	0x1
 5445 0630 50       		.byte	0x50
 5446 0631 32030000 		.4byte	.LVL74-.Ltext0
 5447 0635 64030000 		.4byte	.LFE75-.Ltext0
 5448 0639 0100     		.2byte	0x1
 5449 063b 54       		.byte	0x54
 5450 063c 00000000 		.4byte	0
 5451 0640 00000000 		.4byte	0
 5452              	.LLST22:
 5453 0644 28030000 		.4byte	.LVL72-.Ltext0
 5454 0648 35030000 		.4byte	.LVL75-1-.Ltext0
 5455 064c 0100     		.2byte	0x1
 5456 064e 51       		.byte	0x51
 5457 064f 35030000 		.4byte	.LVL75-1-.Ltext0
 5458 0653 64030000 		.4byte	.LFE75-.Ltext0
 5459 0657 0400     		.2byte	0x4
 5460 0659 F3       		.byte	0xf3
 5461 065a 01       		.uleb128 0x1
 5462 065b 51       		.byte	0x51
 5463 065c 9F       		.byte	0x9f
 5464 065d 00000000 		.4byte	0
 5465 0661 00000000 		.4byte	0
 5466              	.LLST23:
 5467 0665 2E030000 		.4byte	.LVL73-.Ltext0
 5468 0669 36030000 		.4byte	.LVL75-.Ltext0
 5469 066d 0200     		.2byte	0x2
 5470 066f 34       		.byte	0x34
 5471 0670 9F       		.byte	0x9f
 5472 0671 36030000 		.4byte	.LVL75-.Ltext0
 5473 0675 4C030000 		.4byte	.LVL77-.Ltext0
 5474 0679 0100     		.2byte	0x1
 5475 067b 50       		.byte	0x50
 5476 067c 50030000 		.4byte	.LVL78-.Ltext0
 5477 0680 64030000 		.4byte	.LFE75-.Ltext0
 5478 0684 0100     		.2byte	0x1
 5479 0686 50       		.byte	0x50
 5480 0687 00000000 		.4byte	0
 5481 068b 00000000 		.4byte	0
 5482              	.LLST18:
 5483 068f BC020000 		.4byte	.LVL60-.Ltext0
 5484 0693 CC020000 		.4byte	.LVL62-.Ltext0
 5485 0697 0100     		.2byte	0x1
 5486 0699 50       		.byte	0x50
 5487 069a CC020000 		.4byte	.LVL62-.Ltext0
 5488 069e D4020000 		.4byte	.LVL64-.Ltext0
 5489 06a2 0100     		.2byte	0x1
 5490 06a4 55       		.byte	0x55
 5491 06a5 D4020000 		.4byte	.LVL64-.Ltext0
 5492 06a9 D8020000 		.4byte	.LVL65-.Ltext0
 5493 06ad 0400     		.2byte	0x4
 5494 06af F3       		.byte	0xf3
 5495 06b0 01       		.uleb128 0x1
 5496 06b1 50       		.byte	0x50
 5497 06b2 9F       		.byte	0x9f
 5498 06b3 D8020000 		.4byte	.LVL65-.Ltext0
 5499 06b7 04030000 		.4byte	.LVL68-.Ltext0
 5500 06bb 0100     		.2byte	0x1
ARM GAS  /tmp/ccLnU1Hk.s 			page 129


 5501 06bd 55       		.byte	0x55
 5502 06be 04030000 		.4byte	.LVL68-.Ltext0
 5503 06c2 28030000 		.4byte	.LFE74-.Ltext0
 5504 06c6 0300     		.2byte	0x3
 5505 06c8 75       		.byte	0x75
 5506 06c9 7E       		.sleb128 -2
 5507 06ca 9F       		.byte	0x9f
 5508 06cb 00000000 		.4byte	0
 5509 06cf 00000000 		.4byte	0
 5510              	.LLST19:
 5511 06d3 BC020000 		.4byte	.LVL60-.Ltext0
 5512 06d7 CF020000 		.4byte	.LVL63-1-.Ltext0
 5513 06db 0100     		.2byte	0x1
 5514 06dd 51       		.byte	0x51
 5515 06de CF020000 		.4byte	.LVL63-1-.Ltext0
 5516 06e2 D4020000 		.4byte	.LVL64-.Ltext0
 5517 06e6 0100     		.2byte	0x1
 5518 06e8 54       		.byte	0x54
 5519 06e9 D4020000 		.4byte	.LVL64-.Ltext0
 5520 06ed D8020000 		.4byte	.LVL65-.Ltext0
 5521 06f1 0400     		.2byte	0x4
 5522 06f3 F3       		.byte	0xf3
 5523 06f4 01       		.uleb128 0x1
 5524 06f5 51       		.byte	0x51
 5525 06f6 9F       		.byte	0x9f
 5526 06f7 D8020000 		.4byte	.LVL65-.Ltext0
 5527 06fb 0A030000 		.4byte	.LVL69-.Ltext0
 5528 06ff 0100     		.2byte	0x1
 5529 0701 54       		.byte	0x54
 5530 0702 0A030000 		.4byte	.LVL69-.Ltext0
 5531 0706 28030000 		.4byte	.LFE74-.Ltext0
 5532 070a 0400     		.2byte	0x4
 5533 070c F3       		.byte	0xf3
 5534 070d 01       		.uleb128 0x1
 5535 070e 51       		.byte	0x51
 5536 070f 9F       		.byte	0x9f
 5537 0710 00000000 		.4byte	0
 5538 0714 00000000 		.4byte	0
 5539              	.LLST20:
 5540 0718 C4020000 		.4byte	.LVL61-.Ltext0
 5541 071c D0020000 		.4byte	.LVL63-.Ltext0
 5542 0720 0200     		.2byte	0x2
 5543 0722 34       		.byte	0x34
 5544 0723 9F       		.byte	0x9f
 5545 0724 D0020000 		.4byte	.LVL63-.Ltext0
 5546 0728 EA020000 		.4byte	.LVL66-.Ltext0
 5547 072c 0100     		.2byte	0x1
 5548 072e 50       		.byte	0x50
 5549 072f EE020000 		.4byte	.LVL67-.Ltext0
 5550 0733 10030000 		.4byte	.LVL70-.Ltext0
 5551 0737 0100     		.2byte	0x1
 5552 0739 50       		.byte	0x50
 5553 073a 14030000 		.4byte	.LVL71-.Ltext0
 5554 073e 28030000 		.4byte	.LFE74-.Ltext0
 5555 0742 0100     		.2byte	0x1
 5556 0744 50       		.byte	0x50
 5557 0745 00000000 		.4byte	0
ARM GAS  /tmp/ccLnU1Hk.s 			page 130


 5558 0749 00000000 		.4byte	0
 5559              	.LLST16:
 5560 074d 22020000 		.4byte	.LVL50-.Ltext0
 5561 0751 2E020000 		.4byte	.LVL52-.Ltext0
 5562 0755 0300     		.2byte	0x3
 5563 0757 08       		.byte	0x8
 5564 0758 A5       		.byte	0xa5
 5565 0759 9F       		.byte	0x9f
 5566 075a 2E020000 		.4byte	.LVL52-.Ltext0
 5567 075e AE020000 		.4byte	.LVL59-.Ltext0
 5568 0762 0100     		.2byte	0x1
 5569 0764 54       		.byte	0x54
 5570 0765 00000000 		.4byte	0
 5571 0769 00000000 		.4byte	0
 5572              	.LLST17:
 5573 076d 22020000 		.4byte	.LVL50-.Ltext0
 5574 0771 36020000 		.4byte	.LVL53-.Ltext0
 5575 0775 0200     		.2byte	0x2
 5576 0777 34       		.byte	0x34
 5577 0778 9F       		.byte	0x9f
 5578 0779 36020000 		.4byte	.LVL53-.Ltext0
 5579 077d 5C020000 		.4byte	.LVL55-.Ltext0
 5580 0781 0100     		.2byte	0x1
 5581 0783 50       		.byte	0x50
 5582 0784 60020000 		.4byte	.LVL56-.Ltext0
 5583 0788 96020000 		.4byte	.LVL57-.Ltext0
 5584 078c 0100     		.2byte	0x1
 5585 078e 50       		.byte	0x50
 5586 078f 9A020000 		.4byte	.LVL58-.Ltext0
 5587 0793 BC020000 		.4byte	.LFE73-.Ltext0
 5588 0797 0100     		.2byte	0x1
 5589 0799 50       		.byte	0x50
 5590 079a 00000000 		.4byte	0
 5591 079e 00000000 		.4byte	0
 5592              	.LLST41:
 5593 07a2 8A050000 		.4byte	.LVL132-.Ltext0
 5594 07a6 92050000 		.4byte	.LVL133-.Ltext0
 5595 07aa 0200     		.2byte	0x2
 5596 07ac 34       		.byte	0x34
 5597 07ad 9F       		.byte	0x9f
 5598 07ae 92050000 		.4byte	.LVL133-.Ltext0
 5599 07b2 AE050000 		.4byte	.LVL134-.Ltext0
 5600 07b6 0100     		.2byte	0x1
 5601 07b8 50       		.byte	0x50
 5602 07b9 B2050000 		.4byte	.LVL135-.Ltext0
 5603 07bd C4050000 		.4byte	.LFE72-.Ltext0
 5604 07c1 0100     		.2byte	0x1
 5605 07c3 50       		.byte	0x50
 5606 07c4 00000000 		.4byte	0
 5607 07c8 00000000 		.4byte	0
 5608              	.LLST15:
 5609 07cc E6010000 		.4byte	.LVL46-.Ltext0
 5610 07d0 EE010000 		.4byte	.LVL47-.Ltext0
 5611 07d4 0200     		.2byte	0x2
 5612 07d6 34       		.byte	0x34
 5613 07d7 9F       		.byte	0x9f
 5614 07d8 EE010000 		.4byte	.LVL47-.Ltext0
ARM GAS  /tmp/ccLnU1Hk.s 			page 131


 5615 07dc 0A020000 		.4byte	.LVL48-.Ltext0
 5616 07e0 0100     		.2byte	0x1
 5617 07e2 50       		.byte	0x50
 5618 07e3 0E020000 		.4byte	.LVL49-.Ltext0
 5619 07e7 20020000 		.4byte	.LFE71-.Ltext0
 5620 07eb 0100     		.2byte	0x1
 5621 07ed 50       		.byte	0x50
 5622 07ee 00000000 		.4byte	0
 5623 07f2 00000000 		.4byte	0
 5624              	.LLST13:
 5625 07f6 A4010000 		.4byte	.LVL39-.Ltext0
 5626 07fa AC010000 		.4byte	.LVL41-.Ltext0
 5627 07fe 0100     		.2byte	0x1
 5628 0800 50       		.byte	0x50
 5629 0801 AC010000 		.4byte	.LVL41-.Ltext0
 5630 0805 E4010000 		.4byte	.LFE70-.Ltext0
 5631 0809 0100     		.2byte	0x1
 5632 080b 55       		.byte	0x55
 5633 080c 00000000 		.4byte	0
 5634 0810 00000000 		.4byte	0
 5635              	.LLST14:
 5636 0814 A8010000 		.4byte	.LVL40-.Ltext0
 5637 0818 B0010000 		.4byte	.LVL42-.Ltext0
 5638 081c 0200     		.2byte	0x2
 5639 081e 34       		.byte	0x34
 5640 081f 9F       		.byte	0x9f
 5641 0820 B0010000 		.4byte	.LVL42-.Ltext0
 5642 0824 CE010000 		.4byte	.LVL44-.Ltext0
 5643 0828 0100     		.2byte	0x1
 5644 082a 50       		.byte	0x50
 5645 082b D2010000 		.4byte	.LVL45-.Ltext0
 5646 082f E4010000 		.4byte	.LFE70-.Ltext0
 5647 0833 0100     		.2byte	0x1
 5648 0835 50       		.byte	0x50
 5649 0836 00000000 		.4byte	0
 5650 083a 00000000 		.4byte	0
 5651              	.LLST3:
 5652 083e 2C000000 		.4byte	.LVL6-.Ltext0
 5653 0842 3A000000 		.4byte	.LVL7-.Ltext0
 5654 0846 0100     		.2byte	0x1
 5655 0848 50       		.byte	0x50
 5656 0849 3A000000 		.4byte	.LVL7-.Ltext0
 5657 084d 44000000 		.4byte	.LFE65-.Ltext0
 5658 0851 0400     		.2byte	0x4
 5659 0853 F3       		.byte	0xf3
 5660 0854 01       		.uleb128 0x1
 5661 0855 50       		.byte	0x50
 5662 0856 9F       		.byte	0x9f
 5663 0857 00000000 		.4byte	0
 5664 085b 00000000 		.4byte	0
 5665              	.LLST2:
 5666 085f 14000000 		.4byte	.LVL4-.Ltext0
 5667 0863 22000000 		.4byte	.LVL5-.Ltext0
 5668 0867 0100     		.2byte	0x1
 5669 0869 50       		.byte	0x50
 5670 086a 22000000 		.4byte	.LVL5-.Ltext0
 5671 086e 2C000000 		.4byte	.LFE64-.Ltext0
ARM GAS  /tmp/ccLnU1Hk.s 			page 132


 5672 0872 0400     		.2byte	0x4
 5673 0874 F3       		.byte	0xf3
 5674 0875 01       		.uleb128 0x1
 5675 0876 50       		.byte	0x50
 5676 0877 9F       		.byte	0x9f
 5677 0878 00000000 		.4byte	0
 5678 087c 00000000 		.4byte	0
 5679              	.LLST0:
 5680 0880 00000000 		.4byte	.LVL0-.Ltext0
 5681 0884 0A000000 		.4byte	.LVL3-.Ltext0
 5682 0888 0100     		.2byte	0x1
 5683 088a 50       		.byte	0x50
 5684 088b 0A000000 		.4byte	.LVL3-.Ltext0
 5685 088f 14000000 		.4byte	.LFE63-.Ltext0
 5686 0893 0400     		.2byte	0x4
 5687 0895 F3       		.byte	0xf3
 5688 0896 01       		.uleb128 0x1
 5689 0897 50       		.byte	0x50
 5690 0898 9F       		.byte	0x9f
 5691 0899 00000000 		.4byte	0
 5692 089d 00000000 		.4byte	0
 5693              	.LLST1:
 5694 08a1 00000000 		.4byte	.LVL0-.Ltext0
 5695 08a5 04000000 		.4byte	.LVL1-.Ltext0
 5696 08a9 0200     		.2byte	0x2
 5697 08ab 30       		.byte	0x30
 5698 08ac 9F       		.byte	0x9f
 5699 08ad 04000000 		.4byte	.LVL1-.Ltext0
 5700 08b1 0A000000 		.4byte	.LVL3-.Ltext0
 5701 08b5 0100     		.2byte	0x1
 5702 08b7 53       		.byte	0x53
 5703 08b8 0A000000 		.4byte	.LVL3-.Ltext0
 5704 08bc 14000000 		.4byte	.LFE63-.Ltext0
 5705 08c0 0100     		.2byte	0x1
 5706 08c2 50       		.byte	0x50
 5707 08c3 00000000 		.4byte	0
 5708 08c7 00000000 		.4byte	0
 5709              		.section	.debug_aranges,"",%progbits
 5710 0000 1C000000 		.4byte	0x1c
 5711 0004 0200     		.2byte	0x2
 5712 0006 00000000 		.4byte	.Ldebug_info0
 5713 000a 04       		.byte	0x4
 5714 000b 00       		.byte	0
 5715 000c 0000     		.2byte	0
 5716 000e 0000     		.2byte	0
 5717 0010 00000000 		.4byte	.Ltext0
 5718 0014 C4050000 		.4byte	.Letext0-.Ltext0
 5719 0018 00000000 		.4byte	0
 5720 001c 00000000 		.4byte	0
 5721              		.section	.debug_line,"",%progbits
 5722              	.Ldebug_line0:
 5723 0000 FA030000 		.section	.debug_str,"MS",%progbits,1
 5723      02003A02 
 5723      00000201 
 5723      FB0E0D00 
 5723      01010101 
 5724              	.LASF231:
ARM GAS  /tmp/ccLnU1Hk.s 			page 133


 5725 0000 50616765 		.ascii	"Page_Address\000"
 5725      5F416464 
 5725      72657373 
 5725      00
 5726              	.LASF246:
 5727 000d 464C4153 		.ascii	"FLASH_SetLatency\000"
 5727      485F5365 
 5727      744C6174 
 5727      656E6379 
 5727      00
 5728              	.LASF49:
 5729 001e 726F6C6C 		.ascii	"roll\000"
 5729      00
 5730              	.LASF19:
 5731 0023 73697A65 		.ascii	"sizetype\000"
 5731      74797065 
 5731      00
 5732              	.LASF80:
 5733 002c 5F5F7661 		.ascii	"__value\000"
 5733      6C756500 
 5734              	.LASF233:
 5735 0034 464C4153 		.ascii	"FLASH_Lock\000"
 5735      485F4C6F 
 5735      636B00
 5736              	.LASF149:
 5737 003f 5F5F7366 		.ascii	"__sf\000"
 5737      00
 5738              	.LASF219:
 5739 0044 57525032 		.ascii	"WRP2_Data\000"
 5739      5F446174 
 5739      6100
 5740              	.LASF116:
 5741 004e 5F726561 		.ascii	"_read\000"
 5741      6400
 5742              	.LASF32:
 5743 0054 55534552 		.ascii	"USER\000"
 5743      00
 5744              	.LASF236:
 5745 0059 464C4153 		.ascii	"FLASH_PrefetchBufferCmd\000"
 5745      485F5072 
 5745      65666574 
 5745      63684275 
 5745      66666572 
 5746              	.LASF117:
 5747 0071 5F777269 		.ascii	"_write\000"
 5747      746500
 5748              	.LASF17:
 5749 0078 696E7433 		.ascii	"int32_t\000"
 5749      325F7400 
 5750              	.LASF160:
 5751 0080 5F617363 		.ascii	"_asctime_buf\000"
 5751      74696D65 
 5751      5F627566 
 5751      00
 5752              	.LASF143:
 5753 008d 5F637674 		.ascii	"_cvtlen\000"
 5753      6C656E00 
ARM GAS  /tmp/ccLnU1Hk.s 			page 134


 5754              	.LASF217:
 5755 0095 57525030 		.ascii	"WRP0_Data\000"
 5755      5F446174 
 5755      6100
 5756              	.LASF41:
 5757 009f 464C4153 		.ascii	"FLASH_ERROR_PG\000"
 5757      485F4552 
 5757      524F525F 
 5757      504700
 5758              	.LASF64:
 5759 00ae 6163635F 		.ascii	"acc_x_temp\000"
 5759      785F7465 
 5759      6D7000
 5760              	.LASF214:
 5761 00b9 464C4153 		.ascii	"FLASH_ReadOutProtection\000"
 5761      485F5265 
 5761      61644F75 
 5761      7450726F 
 5761      74656374 
 5762              	.LASF179:
 5763 00d1 5F756E75 		.ascii	"_unused\000"
 5763      73656400 
 5764              	.LASF90:
 5765 00d9 5F5F746D 		.ascii	"__tm\000"
 5765      00
 5766              	.LASF175:
 5767 00de 5F776373 		.ascii	"_wcsrtombs_state\000"
 5767      72746F6D 
 5767      62735F73 
 5767      74617465 
 5767      00
 5768              	.LASF121:
 5769 00ef 5F6E6275 		.ascii	"_nbuf\000"
 5769      6600
 5770              	.LASF91:
 5771 00f5 5F5F746D 		.ascii	"__tm_sec\000"
 5771      5F736563 
 5771      00
 5772              	.LASF168:
 5773 00fe 5F6C3634 		.ascii	"_l64a_buf\000"
 5773      615F6275 
 5773      6600
 5774              	.LASF226:
 5775 0108 464C4153 		.ascii	"FLASH_EraseOptionBytes\000"
 5775      485F4572 
 5775      6173654F 
 5775      7074696F 
 5775      6E427974 
 5776              	.LASF45:
 5777 011f 464C4153 		.ascii	"FLASH_Status\000"
 5777      485F5374 
 5777      61747573 
 5777      00
 5778              	.LASF110:
 5779 012c 5F73697A 		.ascii	"_size\000"
 5779      6500
 5780              	.LASF209:
ARM GAS  /tmp/ccLnU1Hk.s 			page 135


 5781 0132 464C4153 		.ascii	"FLASH_GetUserOptionByte\000"
 5781      485F4765 
 5781      74557365 
 5781      724F7074 
 5781      696F6E42 
 5782              	.LASF125:
 5783 014a 5F6C6F63 		.ascii	"_lock\000"
 5783      6B00
 5784              	.LASF156:
 5785 0150 5F6D756C 		.ascii	"_mult\000"
 5785      7400
 5786              	.LASF60:
 5787 0156 6779726F 		.ascii	"gyro_y_rate\000"
 5787      5F795F72 
 5787      61746500 
 5788              	.LASF244:
 5789 0162 2F686F6D 		.ascii	"/home/faker/Documents/code/STM/stm32-quadrocopter\000"
 5789      652F6661 
 5789      6B65722F 
 5789      446F6375 
 5789      6D656E74 
 5790              	.LASF213:
 5791 0194 4F425F53 		.ascii	"OB_STDBY\000"
 5791      54444259 
 5791      00
 5792              	.LASF77:
 5793 019d 5F5F7763 		.ascii	"__wch\000"
 5793      6800
 5794              	.LASF2:
 5795 01a3 5F5F7569 		.ascii	"__uint8_t\000"
 5795      6E74385F 
 5795      7400
 5796              	.LASF113:
 5797 01ad 5F66696C 		.ascii	"_file\000"
 5797      6500
 5798              	.LASF100:
 5799 01b3 5F6F6E5F 		.ascii	"_on_exit_args\000"
 5799      65786974 
 5799      5F617267 
 5799      7300
 5800              	.LASF206:
 5801 01c1 464C4153 		.ascii	"FLASH_GetReadOutProtectionStatus\000"
 5801      485F4765 
 5801      74526561 
 5801      644F7574 
 5801      50726F74 
 5802              	.LASF190:
 5803 01e2 5F737973 		.ascii	"_sys_nerr\000"
 5803      5F6E6572 
 5803      7200
 5804              	.LASF171:
 5805 01ec 5F6D6272 		.ascii	"_mbrlen_state\000"
 5805      6C656E5F 
 5805      73746174 
 5805      6500
 5806              	.LASF8:
 5807 01fa 6C6F6E67 		.ascii	"long int\000"
ARM GAS  /tmp/ccLnU1Hk.s 			page 136


 5807      20696E74 
 5807      00
 5808              	.LASF229:
 5809 0203 464C4153 		.ascii	"FLASH_EraseAllPages\000"
 5809      485F4572 
 5809      61736541 
 5809      6C6C5061 
 5809      67657300 
 5810              	.LASF180:
 5811 0217 5F696D70 		.ascii	"_impure_ptr\000"
 5811      7572655F 
 5811      70747200 
 5812              	.LASF140:
 5813 0223 5F726573 		.ascii	"_result_k\000"
 5813      756C745F 
 5813      6B00
 5814              	.LASF48:
 5815 022d 45616E67 		.ascii	"Eangle\000"
 5815      6C6500
 5816              	.LASF161:
 5817 0234 5F6C6F63 		.ascii	"_localtime_buf\000"
 5817      616C7469 
 5817      6D655F62 
 5817      756600
 5818              	.LASF69:
 5819 0243 74657374 		.ascii	"test\000"
 5819      00
 5820              	.LASF35:
 5821 0248 57525030 		.ascii	"WRP0\000"
 5821      00
 5822              	.LASF36:
 5823 024d 57525031 		.ascii	"WRP1\000"
 5823      00
 5824              	.LASF37:
 5825 0252 57525032 		.ascii	"WRP2\000"
 5825      00
 5826              	.LASF38:
 5827 0257 57525033 		.ascii	"WRP3\000"
 5827      00
 5828              	.LASF40:
 5829 025c 464C4153 		.ascii	"FLASH_BUSY\000"
 5829      485F4255 
 5829      535900
 5830              	.LASF135:
 5831 0267 5F637572 		.ascii	"_current_category\000"
 5831      72656E74 
 5831      5F636174 
 5831      65676F72 
 5831      7900
 5832              	.LASF30:
 5833 0279 57525052 		.ascii	"WRPR\000"
 5833      00
 5834              	.LASF158:
 5835 027e 5F756E75 		.ascii	"_unused_rand\000"
 5835      7365645F 
 5835      72616E64 
 5835      00
ARM GAS  /tmp/ccLnU1Hk.s 			page 137


 5836              	.LASF0:
 5837 028b 7369676E 		.ascii	"signed char\000"
 5837      65642063 
 5837      68617200 
 5838              	.LASF67:
 5839 0297 7A5F616E 		.ascii	"z_angle\000"
 5839      676C6500 
 5840              	.LASF14:
 5841 029f 75696E74 		.ascii	"uint8_t\000"
 5841      385F7400 
 5842              	.LASF220:
 5843 02a7 57525033 		.ascii	"WRP3_Data\000"
 5843      5F446174 
 5843      6100
 5844              	.LASF238:
 5845 02b1 464C4153 		.ascii	"FLASH_HalfCycleAccessCmd\000"
 5845      485F4861 
 5845      6C664379 
 5845      636C6541 
 5845      63636573 
 5846              	.LASF232:
 5847 02ca 464C4153 		.ascii	"FLASH_LockBank1\000"
 5847      485F4C6F 
 5847      636B4261 
 5847      6E6B3100 
 5848              	.LASF1:
 5849 02da 756E7369 		.ascii	"unsigned char\000"
 5849      676E6564 
 5849      20636861 
 5849      7200
 5850              	.LASF51:
 5851 02e8 74696D32 		.ascii	"tim2_count\000"
 5851      5F636F75 
 5851      6E7400
 5852              	.LASF128:
 5853 02f3 5F726565 		.ascii	"_reent\000"
 5853      6E7400
 5854              	.LASF181:
 5855 02fa 5F676C6F 		.ascii	"_global_impure_ptr\000"
 5855      62616C5F 
 5855      696D7075 
 5855      72655F70 
 5855      747200
 5856              	.LASF98:
 5857 030d 5F5F746D 		.ascii	"__tm_yday\000"
 5857      5F796461 
 5857      7900
 5858              	.LASF83:
 5859 0317 63686172 		.ascii	"char\000"
 5859      00
 5860              	.LASF107:
 5861 031c 5F666E73 		.ascii	"_fns\000"
 5861      00
 5862              	.LASF119:
 5863 0321 5F636C6F 		.ascii	"_close\000"
 5863      736500
 5864              	.LASF52:
ARM GAS  /tmp/ccLnU1Hk.s 			page 138


 5865 0328 74696D33 		.ascii	"tim3_count\000"
 5865      5F636F75 
 5865      6E7400
 5866              	.LASF5:
 5867 0333 5F5F7569 		.ascii	"__uint16_t\000"
 5867      6E743136 
 5867      5F7400
 5868              	.LASF203:
 5869 033e 464C4153 		.ascii	"FLASH_IT\000"
 5869      485F4954 
 5869      00
 5870              	.LASF130:
 5871 0347 5F737464 		.ascii	"_stdin\000"
 5871      696E00
 5872              	.LASF193:
 5873 034e 54696D65 		.ascii	"Timeout\000"
 5873      6F757400 
 5874              	.LASF205:
 5875 0356 464C4153 		.ascii	"FLASH_GetPrefetchBufferStatus\000"
 5875      485F4765 
 5875      74507265 
 5875      66657463 
 5875      68427566 
 5876              	.LASF228:
 5877 0374 464C4153 		.ascii	"FLASH_EraseAllBank1Pages\000"
 5877      485F4572 
 5877      61736541 
 5877      6C6C4261 
 5877      6E6B3150 
 5878              	.LASF202:
 5879 038d 464C4153 		.ascii	"FLASH_ITConfig\000"
 5879      485F4954 
 5879      436F6E66 
 5879      696700
 5880              	.LASF29:
 5881 039c 52455345 		.ascii	"RESERVED\000"
 5881      52564544 
 5881      00
 5882              	.LASF115:
 5883 03a5 5F636F6F 		.ascii	"_cookie\000"
 5883      6B696500 
 5884              	.LASF88:
 5885 03ad 5F776473 		.ascii	"_wds\000"
 5885      00
 5886              	.LASF147:
 5887 03b2 5F736967 		.ascii	"_sig_func\000"
 5887      5F66756E 
 5887      6300
 5888              	.LASF112:
 5889 03bc 5F666C61 		.ascii	"_flags\000"
 5889      677300
 5890              	.LASF197:
 5891 03c3 464C4153 		.ascii	"FLASH_GetStatus\000"
 5891      485F4765 
 5891      74537461 
 5891      74757300 
 5892              	.LASF123:
ARM GAS  /tmp/ccLnU1Hk.s 			page 139


 5893 03d3 5F6F6666 		.ascii	"_offset\000"
 5893      73657400 
 5894              	.LASF144:
 5895 03db 5F637674 		.ascii	"_cvtbuf\000"
 5895      62756600 
 5896              	.LASF222:
 5897 03e3 41646472 		.ascii	"Address\000"
 5897      65737300 
 5898              	.LASF28:
 5899 03eb 4F50544B 		.ascii	"OPTKEYR\000"
 5899      45595200 
 5900              	.LASF188:
 5901 03f3 5F5F6664 		.ascii	"__fdlib_version\000"
 5901      6C69625F 
 5901      76657273 
 5901      696F6E00 
 5902              	.LASF237:
 5903 0403 464C4153 		.ascii	"FLASH_PrefetchBuffer\000"
 5903      485F5072 
 5903      65666574 
 5903      63684275 
 5903      66666572 
 5904              	.LASF141:
 5905 0418 5F703573 		.ascii	"_p5s\000"
 5905      00
 5906              	.LASF10:
 5907 041d 6C6F6E67 		.ascii	"long unsigned int\000"
 5907      20756E73 
 5907      69676E65 
 5907      6420696E 
 5907      7400
 5908              	.LASF44:
 5909 042f 464C4153 		.ascii	"FLASH_TIMEOUT\000"
 5909      485F5449 
 5909      4D454F55 
 5909      5400
 5910              	.LASF111:
 5911 043d 5F5F7346 		.ascii	"__sFILE\000"
 5911      494C4500 
 5912              	.LASF137:
 5913 0445 5F5F7364 		.ascii	"__sdidinit\000"
 5913      6964696E 
 5913      697400
 5914              	.LASF127:
 5915 0450 5F666C61 		.ascii	"_flags2\000"
 5915      67733200 
 5916              	.LASF21:
 5917 0458 53797374 		.ascii	"SystemCoreClock\000"
 5917      656D436F 
 5917      7265436C 
 5917      6F636B00 
 5918              	.LASF200:
 5919 0468 62697473 		.ascii	"bitstatus\000"
 5919      74617475 
 5919      7300
 5920              	.LASF73:
 5921 0472 5F4C4F43 		.ascii	"_LOCK_RECURSIVE_T\000"
ARM GAS  /tmp/ccLnU1Hk.s 			page 140


 5921      4B5F5245 
 5921      43555253 
 5921      4956455F 
 5921      5400
 5922              	.LASF129:
 5923 0484 5F657272 		.ascii	"_errno\000"
 5923      6E6F00
 5924              	.LASF215:
 5925 048b 464C4153 		.ascii	"FLASH_EnableWriteProtection\000"
 5925      485F456E 
 5925      61626C65 
 5925      57726974 
 5925      6550726F 
 5926              	.LASF169:
 5927 04a7 5F736967 		.ascii	"_signal_buf\000"
 5927      6E616C5F 
 5927      62756600 
 5928              	.LASF189:
 5929 04b3 5F737973 		.ascii	"_sys_errlist\000"
 5929      5F657272 
 5929      6C697374 
 5929      00
 5930              	.LASF62:
 5931 04c0 6163635F 		.ascii	"acc_x_angle\000"
 5931      785F616E 
 5931      676C6500 
 5932              	.LASF242:
 5933 04cc 474E5520 		.ascii	"GNU C11 6.1.1 20160526 -mcpu=cortex-m3 -mthumb -g -"
 5933      43313120 
 5933      362E312E 
 5933      31203230 
 5933      31363035 
 5934 04ff 4F31202D 		.ascii	"O1 -fno-common\000"
 5934      666E6F2D 
 5934      636F6D6D 
 5934      6F6E00
 5935              	.LASF89:
 5936 050e 5F426967 		.ascii	"_Bigint\000"
 5936      696E7400 
 5937              	.LASF86:
 5938 0516 5F6D6178 		.ascii	"_maxwds\000"
 5938      77647300 
 5939              	.LASF138:
 5940 051e 5F5F636C 		.ascii	"__cleanup\000"
 5940      65616E75 
 5940      7000
 5941              	.LASF221:
 5942 0528 464C4153 		.ascii	"FLASH_ProgramOptionByteData\000"
 5942      485F5072 
 5942      6F677261 
 5942      6D4F7074 
 5942      696F6E42 
 5943              	.LASF185:
 5944 0544 5F5F6664 		.ascii	"__fdlibm_svid\000"
 5944      6C69626D 
 5944      5F737669 
 5944      6400
ARM GAS  /tmp/ccLnU1Hk.s 			page 141


 5945              	.LASF9:
 5946 0552 5F5F7569 		.ascii	"__uint32_t\000"
 5946      6E743332 
 5946      5F7400
 5947              	.LASF134:
 5948 055d 5F656D65 		.ascii	"_emergency\000"
 5948      7267656E 
 5948      637900
 5949              	.LASF11:
 5950 0568 6C6F6E67 		.ascii	"long long int\000"
 5950      206C6F6E 
 5950      6720696E 
 5950      7400
 5951              	.LASF46:
 5952 0576 62657461 		.ascii	"beta\000"
 5952      00
 5953              	.LASF70:
 5954 057b 6932635F 		.ascii	"i2c_sdata\000"
 5954      73646174 
 5954      6100
 5955              	.LASF152:
 5956 0585 5F6E696F 		.ascii	"_niobs\000"
 5956      627300
 5957              	.LASF235:
 5958 058c 464C4153 		.ascii	"FLASH_Unlock\000"
 5958      485F556E 
 5958      6C6F636B 
 5958      00
 5959              	.LASF148:
 5960 0599 5F5F7367 		.ascii	"__sglue\000"
 5960      6C756500 
 5961              	.LASF63:
 5962 05a1 6163635F 		.ascii	"acc_y_angle\000"
 5962      795F616E 
 5962      676C6500 
 5963              	.LASF178:
 5964 05ad 5F6E6D61 		.ascii	"_nmalloc\000"
 5964      6C6C6F63 
 5964      00
 5965              	.LASF183:
 5966 05b6 646F7562 		.ascii	"double\000"
 5966      6C6500
 5967              	.LASF162:
 5968 05bd 5F67616D 		.ascii	"_gamma_signgam\000"
 5968      6D615F73 
 5968      69676E67 
 5968      616D00
 5969              	.LASF243:
 5970 05cc 6C69622F 		.ascii	"lib/src/stm32f10x_flash.c\000"
 5970      7372632F 
 5970      73746D33 
 5970      32663130 
 5970      785F666C 
 5971              	.LASF212:
 5972 05e6 4F425F53 		.ascii	"OB_STOP\000"
 5972      544F5000 
 5973              	.LASF136:
ARM GAS  /tmp/ccLnU1Hk.s 			page 142


 5974 05ee 5F637572 		.ascii	"_current_locale\000"
 5974      72656E74 
 5974      5F6C6F63 
 5974      616C6500 
 5975              	.LASF142:
 5976 05fe 5F667265 		.ascii	"_freelist\000"
 5976      656C6973 
 5976      7400
 5977              	.LASF153:
 5978 0608 5F696F62 		.ascii	"_iobs\000"
 5978      7300
 5979              	.LASF151:
 5980 060e 5F676C75 		.ascii	"_glue\000"
 5980      6500
 5981              	.LASF20:
 5982 0614 49544D5F 		.ascii	"ITM_RxBuffer\000"
 5982      52784275 
 5982      66666572 
 5982      00
 5983              	.LASF87:
 5984 0621 5F736967 		.ascii	"_sign\000"
 5984      6E00
 5985              	.LASF47:
 5986 0627 666C6F61 		.ascii	"float\000"
 5986      7400
 5987              	.LASF61:
 5988 062d 6779726F 		.ascii	"gyro_z_rate\000"
 5988      5F7A5F72 
 5988      61746500 
 5989              	.LASF146:
 5990 0639 5F617465 		.ascii	"_atexit0\000"
 5990      78697430 
 5990      00
 5991              	.LASF13:
 5992 0642 756E7369 		.ascii	"unsigned int\000"
 5992      676E6564 
 5992      20696E74 
 5992      00
 5993              	.LASF204:
 5994 064f 4E657753 		.ascii	"NewState\000"
 5994      74617465 
 5994      00
 5995              	.LASF176:
 5996 0658 5F685F65 		.ascii	"_h_errno\000"
 5996      72726E6F 
 5996      00
 5997              	.LASF207:
 5998 0661 72656164 		.ascii	"readoutstatus\000"
 5998      6F757473 
 5998      74617475 
 5998      7300
 5999              	.LASF174:
 6000 066f 5F776372 		.ascii	"_wcrtomb_state\000"
 6000      746F6D62 
 6000      5F737461 
 6000      746500
 6001              	.LASF94:
ARM GAS  /tmp/ccLnU1Hk.s 			page 143


 6002 067e 5F5F746D 		.ascii	"__tm_mday\000"
 6002      5F6D6461 
 6002      7900
 6003              	.LASF145:
 6004 0688 5F6E6577 		.ascii	"_new\000"
 6004      00
 6005              	.LASF120:
 6006 068d 5F756275 		.ascii	"_ubuf\000"
 6006      6600
 6007              	.LASF132:
 6008 0693 5F737464 		.ascii	"_stderr\000"
 6008      65727200 
 6009              	.LASF167:
 6010 069b 5F776374 		.ascii	"_wctomb_state\000"
 6010      6F6D625F 
 6010      73746174 
 6010      6500
 6011              	.LASF126:
 6012 06a9 5F6D6273 		.ascii	"_mbstate\000"
 6012      74617465 
 6012      00
 6013              	.LASF227:
 6014 06b2 72647074 		.ascii	"rdptmp\000"
 6014      6D7000
 6015              	.LASF43:
 6016 06b9 464C4153 		.ascii	"FLASH_COMPLETE\000"
 6016      485F434F 
 6016      4D504C45 
 6016      544500
 6017              	.LASF163:
 6018 06c8 5F72616E 		.ascii	"_rand_next\000"
 6018      645F6E65 
 6018      787400
 6019              	.LASF66:
 6020 06d3 6163635F 		.ascii	"acc_z_temp\000"
 6020      7A5F7465 
 6020      6D7000
 6021              	.LASF105:
 6022 06de 5F617465 		.ascii	"_atexit\000"
 6022      78697400 
 6023              	.LASF33:
 6024 06e6 44617461 		.ascii	"Data0\000"
 6024      3000
 6025              	.LASF34:
 6026 06ec 44617461 		.ascii	"Data1\000"
 6026      3100
 6027              	.LASF79:
 6028 06f2 5F5F636F 		.ascii	"__count\000"
 6028      756E7400 
 6029              	.LASF97:
 6030 06fa 5F5F746D 		.ascii	"__tm_wday\000"
 6030      5F776461 
 6030      7900
 6031              	.LASF24:
 6032 0704 44495341 		.ascii	"DISABLE\000"
 6032      424C4500 
 6033              	.LASF230:
ARM GAS  /tmp/ccLnU1Hk.s 			page 144


 6034 070c 464C4153 		.ascii	"FLASH_ErasePage\000"
 6034      485F4572 
 6034      61736550 
 6034      61676500 
 6035              	.LASF72:
 6036 071c 6C6F6E67 		.ascii	"long double\000"
 6036      20646F75 
 6036      626C6500 
 6037              	.LASF71:
 6038 0728 6932635F 		.ascii	"i2c_rdata\000"
 6038      72646174 
 6038      6100
 6039              	.LASF95:
 6040 0732 5F5F746D 		.ascii	"__tm_mon\000"
 6040      5F6D6F6E 
 6040      00
 6041              	.LASF155:
 6042 073b 5F736565 		.ascii	"_seed\000"
 6042      6400
 6043              	.LASF118:
 6044 0741 5F736565 		.ascii	"_seek\000"
 6044      6B00
 6045              	.LASF75:
 6046 0747 5F66706F 		.ascii	"_fpos_t\000"
 6046      735F7400 
 6047              	.LASF78:
 6048 074f 5F5F7763 		.ascii	"__wchb\000"
 6048      686200
 6049              	.LASF56:
 6050 0756 6163635F 		.ascii	"acc_x\000"
 6050      7800
 6051              	.LASF57:
 6052 075c 6163635F 		.ascii	"acc_y\000"
 6052      7900
 6053              	.LASF58:
 6054 0762 6163635F 		.ascii	"acc_z\000"
 6054      7A00
 6055              	.LASF166:
 6056 0768 5F6D6274 		.ascii	"_mbtowc_state\000"
 6056      6F77635F 
 6056      73746174 
 6056      6500
 6057              	.LASF26:
 6058 0776 46756E63 		.ascii	"FunctionalState\000"
 6058      74696F6E 
 6058      616C5374 
 6058      61746500 
 6059              	.LASF12:
 6060 0786 6C6F6E67 		.ascii	"long long unsigned int\000"
 6060      206C6F6E 
 6060      6720756E 
 6060      7369676E 
 6060      65642069 
 6061              	.LASF225:
 6062 079d 464C4153 		.ascii	"FLASH_ProgramWord\000"
 6062      485F5072 
 6062      6F677261 
ARM GAS  /tmp/ccLnU1Hk.s 			page 145


 6062      6D576F72 
 6062      6400
 6063              	.LASF16:
 6064 07af 75696E74 		.ascii	"uint16_t\000"
 6064      31365F74 
 6064      00
 6065              	.LASF102:
 6066 07b8 5F64736F 		.ascii	"_dso_handle\000"
 6066      5F68616E 
 6066      646C6500 
 6067              	.LASF154:
 6068 07c4 5F72616E 		.ascii	"_rand48\000"
 6068      64343800 
 6069              	.LASF39:
 6070 07cc 4F425F54 		.ascii	"OB_TypeDef\000"
 6070      79706544 
 6070      656600
 6071              	.LASF131:
 6072 07d7 5F737464 		.ascii	"_stdout\000"
 6072      6F757400 
 6073              	.LASF245:
 6074 07df 5F5F6664 		.ascii	"__fdlibm_version\000"
 6074      6C69626D 
 6074      5F766572 
 6074      73696F6E 
 6074      00
 6075              	.LASF122:
 6076 07f0 5F626C6B 		.ascii	"_blksize\000"
 6076      73697A65 
 6076      00
 6077              	.LASF109:
 6078 07f9 5F626173 		.ascii	"_base\000"
 6078      6500
 6079              	.LASF159:
 6080 07ff 5F737472 		.ascii	"_strtok_last\000"
 6080      746F6B5F 
 6080      6C617374 
 6080      00
 6081              	.LASF172:
 6082 080c 5F6D6272 		.ascii	"_mbrtowc_state\000"
 6082      746F7763 
 6082      5F737461 
 6082      746500
 6083              	.LASF82:
 6084 081b 5F666C6F 		.ascii	"_flock_t\000"
 6084      636B5F74 
 6084      00
 6085              	.LASF150:
 6086 0824 5F5F4649 		.ascii	"__FILE\000"
 6086      4C4500
 6087              	.LASF3:
 6088 082b 5F5F696E 		.ascii	"__int16_t\000"
 6088      7431365F 
 6088      7400
 6089              	.LASF22:
 6090 0835 52455345 		.ascii	"RESET\000"
 6090      5400
ARM GAS  /tmp/ccLnU1Hk.s 			page 146


 6091              	.LASF81:
 6092 083b 5F6D6273 		.ascii	"_mbstate_t\000"
 6092      74617465 
 6092      5F7400
 6093              	.LASF164:
 6094 0846 5F723438 		.ascii	"_r48\000"
 6094      00
 6095              	.LASF76:
 6096 084b 77696E74 		.ascii	"wint_t\000"
 6096      5F7400
 6097              	.LASF85:
 6098 0852 5F6E6578 		.ascii	"_next\000"
 6098      7400
 6099              	.LASF234:
 6100 0858 464C4153 		.ascii	"FLASH_UnlockBank1\000"
 6100      485F556E 
 6100      6C6F636B 
 6100      42616E6B 
 6100      3100
 6101              	.LASF124:
 6102 086a 5F646174 		.ascii	"_data\000"
 6102      6100
 6103              	.LASF23:
 6104 0870 466C6167 		.ascii	"FlagStatus\000"
 6104      53746174 
 6104      757300
 6105              	.LASF192:
 6106 087b 464C4153 		.ascii	"FLASH_WaitForLastOperation\000"
 6106      485F5761 
 6106      6974466F 
 6106      724C6173 
 6106      744F7065 
 6107              	.LASF198:
 6108 0896 464C4153 		.ascii	"FLASH_FLAG\000"
 6108      485F464C 
 6108      414700
 6109              	.LASF187:
 6110 08a1 5F5F6664 		.ascii	"__fdlibm_posix\000"
 6110      6C69626D 
 6110      5F706F73 
 6110      697800
 6111              	.LASF27:
 6112 08b0 4B455952 		.ascii	"KEYR\000"
 6112      00
 6113              	.LASF223:
 6114 08b5 44617461 		.ascii	"Data\000"
 6114      00
 6115              	.LASF165:
 6116 08ba 5F6D626C 		.ascii	"_mblen_state\000"
 6116      656E5F73 
 6116      74617465 
 6116      00
 6117              	.LASF4:
 6118 08c7 73686F72 		.ascii	"short int\000"
 6118      7420696E 
 6118      7400
 6119              	.LASF186:
ARM GAS  /tmp/ccLnU1Hk.s 			page 147


 6120 08d1 5F5F6664 		.ascii	"__fdlibm_xopen\000"
 6120      6C69626D 
 6120      5F786F70 
 6120      656E00
 6121              	.LASF53:
 6122 08e0 6779726F 		.ascii	"gyro_x\000"
 6122      5F7800
 6123              	.LASF54:
 6124 08e7 6779726F 		.ascii	"gyro_y\000"
 6124      5F7900
 6125              	.LASF55:
 6126 08ee 6779726F 		.ascii	"gyro_z\000"
 6126      5F7A00
 6127              	.LASF15:
 6128 08f5 696E7431 		.ascii	"int16_t\000"
 6128      365F7400 
 6129              	.LASF182:
 6130 08fd 7375626F 		.ascii	"suboptarg\000"
 6130      70746172 
 6130      6700
 6131              	.LASF103:
 6132 0907 5F666E74 		.ascii	"_fntypes\000"
 6132      79706573 
 6132      00
 6133              	.LASF199:
 6134 0910 464C4153 		.ascii	"FLASH_GetFlagStatus\000"
 6134      485F4765 
 6134      74466C61 
 6134      67537461 
 6134      74757300 
 6135              	.LASF25:
 6136 0924 454E4142 		.ascii	"ENABLE\000"
 6136      4C4500
 6137              	.LASF96:
 6138 092b 5F5F746D 		.ascii	"__tm_year\000"
 6138      5F796561 
 6138      7200
 6139              	.LASF210:
 6140 0935 464C4153 		.ascii	"FLASH_UserOptionByteConfig\000"
 6140      485F5573 
 6140      65724F70 
 6140      74696F6E 
 6140      42797465 
 6141              	.LASF239:
 6142 0950 464C4153 		.ascii	"FLASH_HalfCycleAccess\000"
 6142      485F4861 
 6142      6C664379 
 6142      636C6541 
 6142      63636573 
 6143              	.LASF196:
 6144 0966 666C6173 		.ascii	"flashstatus\000"
 6144      68737461 
 6144      74757300 
 6145              	.LASF114:
 6146 0972 5F6C6266 		.ascii	"_lbfsize\000"
 6146      73697A65 
 6146      00
ARM GAS  /tmp/ccLnU1Hk.s 			page 148


 6147              	.LASF133:
 6148 097b 5F696E63 		.ascii	"_inc\000"
 6148      00
 6149              	.LASF106:
 6150 0980 5F696E64 		.ascii	"_ind\000"
 6150      00
 6151              	.LASF201:
 6152 0985 464C4153 		.ascii	"FLASH_ClearFlag\000"
 6152      485F436C 
 6152      65617246 
 6152      6C616700 
 6153              	.LASF184:
 6154 0995 5F5F6664 		.ascii	"__fdlibm_ieee\000"
 6154      6C69626D 
 6154      5F696565 
 6154      6500
 6155              	.LASF108:
 6156 09a3 5F5F7362 		.ascii	"__sbuf\000"
 6156      756600
 6157              	.LASF104:
 6158 09aa 5F69735F 		.ascii	"_is_cxa\000"
 6158      63786100 
 6159              	.LASF177:
 6160 09b2 5F6E6578 		.ascii	"_nextf\000"
 6160      746600
 6161              	.LASF211:
 6162 09b9 4F425F49 		.ascii	"OB_IWDG\000"
 6162      57444700 
 6163              	.LASF31:
 6164 09c1 464C4153 		.ascii	"FLASH_TypeDef\000"
 6164      485F5479 
 6164      70654465 
 6164      6600
 6165              	.LASF194:
 6166 09cf 73746174 		.ascii	"status\000"
 6166      757300
 6167              	.LASF216:
 6168 09d6 464C4153 		.ascii	"FLASH_Pages\000"
 6168      485F5061 
 6168      67657300 
 6169              	.LASF84:
 6170 09e2 5F5F554C 		.ascii	"__ULong\000"
 6170      6F6E6700 
 6171              	.LASF195:
 6172 09ea 464C4153 		.ascii	"FLASH_GetBank1Status\000"
 6172      485F4765 
 6172      7442616E 
 6172      6B315374 
 6172      61747573 
 6173              	.LASF18:
 6174 09ff 75696E74 		.ascii	"uint32_t\000"
 6174      33325F74 
 6174      00
 6175              	.LASF191:
 6176 0a08 464C4153 		.ascii	"FLASH_WaitForLastBank1Operation\000"
 6176      485F5761 
 6176      6974466F 
ARM GAS  /tmp/ccLnU1Hk.s 			page 149


 6176      724C6173 
 6176      7442616E 
 6177              	.LASF139:
 6178 0a28 5F726573 		.ascii	"_result\000"
 6178      756C7400 
 6179              	.LASF240:
 6180 0a30 464C4153 		.ascii	"FLASH_Latency\000"
 6180      485F4C61 
 6180      74656E63 
 6180      7900
 6181              	.LASF74:
 6182 0a3e 5F6F6666 		.ascii	"_off_t\000"
 6182      5F7400
 6183              	.LASF157:
 6184 0a45 5F616464 		.ascii	"_add\000"
 6184      00
 6185              	.LASF208:
 6186 0a4a 464C4153 		.ascii	"FLASH_GetWriteProtectionOptionByte\000"
 6186      485F4765 
 6186      74577269 
 6186      74655072 
 6186      6F746563 
 6187              	.LASF6:
 6188 0a6d 73686F72 		.ascii	"short unsigned int\000"
 6188      7420756E 
 6188      7369676E 
 6188      65642069 
 6188      6E7400
 6189              	.LASF93:
 6190 0a80 5F5F746D 		.ascii	"__tm_hour\000"
 6190      5F686F75 
 6190      7200
 6191              	.LASF50:
 6192 0a8a 70697463 		.ascii	"pitch\000"
 6192      6800
 6193              	.LASF173:
 6194 0a90 5F6D6273 		.ascii	"_mbsrtowcs_state\000"
 6194      72746F77 
 6194      63735F73 
 6194      74617465 
 6194      00
 6195              	.LASF241:
 6196 0aa1 746D7072 		.ascii	"tmpreg\000"
 6196      656700
 6197              	.LASF7:
 6198 0aa8 5F5F696E 		.ascii	"__int32_t\000"
 6198      7433325F 
 6198      7400
 6199              	.LASF68:
 6200 0ab2 74656D70 		.ascii	"temp\000"
 6200      00
 6201              	.LASF101:
 6202 0ab7 5F666E61 		.ascii	"_fnargs\000"
 6202      72677300 
 6203              	.LASF99:
 6204 0abf 5F5F746D 		.ascii	"__tm_isdst\000"
 6204      5F697364 
ARM GAS  /tmp/ccLnU1Hk.s 			page 150


 6204      737400
 6205              	.LASF218:
 6206 0aca 57525031 		.ascii	"WRP1_Data\000"
 6206      5F446174 
 6206      6100
 6207              	.LASF92:
 6208 0ad4 5F5F746D 		.ascii	"__tm_min\000"
 6208      5F6D696E 
 6208      00
 6209              	.LASF65:
 6210 0add 6163635F 		.ascii	"acc_y_temp\000"
 6210      795F7465 
 6210      6D7000
 6211              	.LASF170:
 6212 0ae8 5F676574 		.ascii	"_getdate_err\000"
 6212      64617465 
 6212      5F657272 
 6212      00
 6213              	.LASF59:
 6214 0af5 6779726F 		.ascii	"gyro_x_rate\000"
 6214      5F785F72 
 6214      61746500 
 6215              	.LASF42:
 6216 0b01 464C4153 		.ascii	"FLASH_ERROR_WRP\000"
 6216      485F4552 
 6216      524F525F 
 6216      57525000 
 6217              	.LASF224:
 6218 0b11 464C4153 		.ascii	"FLASH_ProgramHalfWord\000"
 6218      485F5072 
 6218      6F677261 
 6218      6D48616C 
 6218      66576F72 
 6219              		.ident	"GCC: (Arch Repository) 6.1.1 20160526"
ARM GAS  /tmp/ccLnU1Hk.s 			page 151


DEFINED SYMBOLS
                            *ABS*:0000000000000000 stm32f10x_flash.c
     /tmp/ccLnU1Hk.s:15     .text:0000000000000000 $t
     /tmp/ccLnU1Hk.s:22     .text:0000000000000000 FLASH_SetLatency
     /tmp/ccLnU1Hk.s:47     .text:0000000000000010 $d
     /tmp/ccLnU1Hk.s:51     .text:0000000000000014 $t
     /tmp/ccLnU1Hk.s:58     .text:0000000000000014 FLASH_HalfCycleAccessCmd
     /tmp/ccLnU1Hk.s:80     .text:0000000000000028 $d
     /tmp/ccLnU1Hk.s:84     .text:000000000000002c $t
     /tmp/ccLnU1Hk.s:91     .text:000000000000002c FLASH_PrefetchBufferCmd
     /tmp/ccLnU1Hk.s:113    .text:0000000000000040 $d
     /tmp/ccLnU1Hk.s:117    .text:0000000000000044 $t
     /tmp/ccLnU1Hk.s:124    .text:0000000000000044 FLASH_Unlock
     /tmp/ccLnU1Hk.s:142    .text:0000000000000054 $d
     /tmp/ccLnU1Hk.s:147    .text:000000000000005c $t
     /tmp/ccLnU1Hk.s:154    .text:000000000000005c FLASH_UnlockBank1
     /tmp/ccLnU1Hk.s:172    .text:000000000000006c $d
     /tmp/ccLnU1Hk.s:177    .text:0000000000000074 $t
     /tmp/ccLnU1Hk.s:184    .text:0000000000000074 FLASH_Lock
     /tmp/ccLnU1Hk.s:200    .text:0000000000000080 $d
     /tmp/ccLnU1Hk.s:204    .text:0000000000000084 $t
     /tmp/ccLnU1Hk.s:211    .text:0000000000000084 FLASH_LockBank1
     /tmp/ccLnU1Hk.s:227    .text:0000000000000090 $d
     /tmp/ccLnU1Hk.s:231    .text:0000000000000094 $t
     /tmp/ccLnU1Hk.s:238    .text:0000000000000094 FLASH_GetUserOptionByte
     /tmp/ccLnU1Hk.s:254    .text:000000000000009c $d
     /tmp/ccLnU1Hk.s:258    .text:00000000000000a0 $t
     /tmp/ccLnU1Hk.s:265    .text:00000000000000a0 FLASH_GetWriteProtectionOptionByte
     /tmp/ccLnU1Hk.s:280    .text:00000000000000a8 $d
     /tmp/ccLnU1Hk.s:284    .text:00000000000000ac $t
     /tmp/ccLnU1Hk.s:291    .text:00000000000000ac FLASH_GetReadOutProtectionStatus
     /tmp/ccLnU1Hk.s:310    .text:00000000000000b8 $d
     /tmp/ccLnU1Hk.s:314    .text:00000000000000bc $t
     /tmp/ccLnU1Hk.s:321    .text:00000000000000bc FLASH_GetPrefetchBufferStatus
     /tmp/ccLnU1Hk.s:340    .text:00000000000000c8 $d
     /tmp/ccLnU1Hk.s:344    .text:00000000000000cc $t
     /tmp/ccLnU1Hk.s:351    .text:00000000000000cc FLASH_ITConfig
     /tmp/ccLnU1Hk.s:380    .text:00000000000000e4 $d
     /tmp/ccLnU1Hk.s:384    .text:00000000000000e8 $t
     /tmp/ccLnU1Hk.s:391    .text:00000000000000e8 FLASH_GetFlagStatus
     /tmp/ccLnU1Hk.s:426    .text:0000000000000104 $d
     /tmp/ccLnU1Hk.s:430    .text:0000000000000108 $t
     /tmp/ccLnU1Hk.s:437    .text:0000000000000108 FLASH_ClearFlag
     /tmp/ccLnU1Hk.s:452    .text:0000000000000110 $d
     /tmp/ccLnU1Hk.s:456    .text:0000000000000114 $t
     /tmp/ccLnU1Hk.s:463    .text:0000000000000114 FLASH_GetStatus
     /tmp/ccLnU1Hk.s:505    .text:0000000000000144 $d
     /tmp/ccLnU1Hk.s:509    .text:0000000000000148 $t
     /tmp/ccLnU1Hk.s:516    .text:0000000000000148 FLASH_GetBank1Status
     /tmp/ccLnU1Hk.s:558    .text:0000000000000178 $d
     /tmp/ccLnU1Hk.s:562    .text:000000000000017c $t
     /tmp/ccLnU1Hk.s:569    .text:000000000000017c FLASH_WaitForLastOperation
     /tmp/ccLnU1Hk.s:627    .text:00000000000001a4 FLASH_ErasePage
     /tmp/ccLnU1Hk.s:681    .text:00000000000001e0 $d
     /tmp/ccLnU1Hk.s:685    .text:00000000000001e4 $t
     /tmp/ccLnU1Hk.s:692    .text:00000000000001e4 FLASH_EraseAllPages
     /tmp/ccLnU1Hk.s:738    .text:000000000000021c $d
ARM GAS  /tmp/ccLnU1Hk.s 			page 152


     /tmp/ccLnU1Hk.s:742    .text:0000000000000220 $t
     /tmp/ccLnU1Hk.s:749    .text:0000000000000220 FLASH_EraseOptionBytes
     /tmp/ccLnU1Hk.s:850    .text:00000000000002b0 $d
     /tmp/ccLnU1Hk.s:856    .text:00000000000002bc $t
     /tmp/ccLnU1Hk.s:863    .text:00000000000002bc FLASH_ProgramWord
     /tmp/ccLnU1Hk.s:952    .text:0000000000000324 $d
     /tmp/ccLnU1Hk.s:956    .text:0000000000000328 $t
     /tmp/ccLnU1Hk.s:963    .text:0000000000000328 FLASH_ProgramHalfWord
     /tmp/ccLnU1Hk.s:1014   .text:0000000000000360 $d
     /tmp/ccLnU1Hk.s:1018   .text:0000000000000364 $t
     /tmp/ccLnU1Hk.s:1025   .text:0000000000000364 FLASH_ProgramOptionByteData
     /tmp/ccLnU1Hk.s:1087   .text:00000000000003ac $d
     /tmp/ccLnU1Hk.s:1092   .text:00000000000003b4 $t
     /tmp/ccLnU1Hk.s:1099   .text:00000000000003b4 FLASH_EnableWriteProtection
     /tmp/ccLnU1Hk.s:1239   .text:0000000000000458 $d
     /tmp/ccLnU1Hk.s:1245   .text:0000000000000464 $t
     /tmp/ccLnU1Hk.s:1252   .text:0000000000000464 FLASH_ReadOutProtection
     /tmp/ccLnU1Hk.s:1355   .text:00000000000004f4 $d
     /tmp/ccLnU1Hk.s:1361   .text:0000000000000500 $t
     /tmp/ccLnU1Hk.s:1368   .text:0000000000000500 FLASH_UserOptionByteConfig
     /tmp/ccLnU1Hk.s:1435   .text:0000000000000554 $d
     /tmp/ccLnU1Hk.s:1441   .text:0000000000000560 $t
     /tmp/ccLnU1Hk.s:1448   .text:0000000000000560 FLASH_WaitForLastBank1Operation
     /tmp/ccLnU1Hk.s:1506   .text:0000000000000588 FLASH_EraseAllBank1Pages
     /tmp/ccLnU1Hk.s:1552   .text:00000000000005c0 $d
                     .debug_frame:0000000000000010 $d

NO UNDEFINED SYMBOLS
