ARM GAS  /tmp/ccMycBjG.s 			page 1


   1              		.cpu cortex-m3
   2              		.eabi_attribute 20, 1
   3              		.eabi_attribute 21, 1
   4              		.eabi_attribute 23, 3
   5              		.eabi_attribute 24, 1
   6              		.eabi_attribute 25, 1
   7              		.eabi_attribute 26, 1
   8              		.eabi_attribute 30, 6
   9              		.eabi_attribute 34, 1
  10              		.eabi_attribute 18, 4
  11              		.file	"stm32f10x_exti.c"
  12              		.text
  13              	.Ltext0:
  14              		.cfi_sections	.debug_frame
  15              		.align	1
  16              		.global	EXTI_DeInit
  17              		.syntax unified
  18              		.thumb
  19              		.thumb_func
  20              		.fpu softvfp
  21              		.type	EXTI_DeInit, %function
  22              	EXTI_DeInit:
  23              	.LFB63:
  24              		.file 1 "common/stm32f10x_exti.c"
   1:common/stm32f10x_exti.c **** /**
   2:common/stm32f10x_exti.c ****   ******************************************************************************
   3:common/stm32f10x_exti.c ****   * @file    stm32f10x_exti.c
   4:common/stm32f10x_exti.c ****   * @author  MCD Application Team
   5:common/stm32f10x_exti.c ****   * @version V3.5.0
   6:common/stm32f10x_exti.c ****   * @date    11-March-2011
   7:common/stm32f10x_exti.c ****   * @brief   This file provides all the EXTI firmware functions.
   8:common/stm32f10x_exti.c ****   ******************************************************************************
   9:common/stm32f10x_exti.c ****   * @attention
  10:common/stm32f10x_exti.c ****   *
  11:common/stm32f10x_exti.c ****   * THE PRESENT FIRMWARE WHICH IS FOR GUIDANCE ONLY AIMS AT PROVIDING CUSTOMERS
  12:common/stm32f10x_exti.c ****   * WITH CODING INFORMATION REGARDING THEIR PRODUCTS IN ORDER FOR THEM TO SAVE
  13:common/stm32f10x_exti.c ****   * TIME. AS A RESULT, STMICROELECTRONICS SHALL NOT BE HELD LIABLE FOR ANY
  14:common/stm32f10x_exti.c ****   * DIRECT, INDIRECT OR CONSEQUENTIAL DAMAGES WITH RESPECT TO ANY CLAIMS ARISING
  15:common/stm32f10x_exti.c ****   * FROM THE CONTENT OF SUCH FIRMWARE AND/OR THE USE MADE BY CUSTOMERS OF THE
  16:common/stm32f10x_exti.c ****   * CODING INFORMATION CONTAINED HEREIN IN CONNECTION WITH THEIR PRODUCTS.
  17:common/stm32f10x_exti.c ****   *
  18:common/stm32f10x_exti.c ****   * <h2><center>&copy; COPYRIGHT 2011 STMicroelectronics</center></h2>
  19:common/stm32f10x_exti.c ****   ******************************************************************************
  20:common/stm32f10x_exti.c ****   */
  21:common/stm32f10x_exti.c **** 
  22:common/stm32f10x_exti.c **** /* Includes ------------------------------------------------------------------*/
  23:common/stm32f10x_exti.c **** #include "../include/STM32/exti.h"
  24:common/stm32f10x_exti.c **** #include "../src/conf.h"
  25:common/stm32f10x_exti.c **** 
  26:common/stm32f10x_exti.c **** /** @addtogroup STM32F10x_StdPeriph_Driver
  27:common/stm32f10x_exti.c ****   * @{
  28:common/stm32f10x_exti.c ****   */
  29:common/stm32f10x_exti.c **** 
  30:common/stm32f10x_exti.c **** /** @defgroup EXTI 
  31:common/stm32f10x_exti.c ****   * @brief EXTI driver modules
  32:common/stm32f10x_exti.c ****   * @{
  33:common/stm32f10x_exti.c ****   */
ARM GAS  /tmp/ccMycBjG.s 			page 2


  34:common/stm32f10x_exti.c **** 
  35:common/stm32f10x_exti.c **** /** @defgroup EXTI_Private_TypesDefinitions
  36:common/stm32f10x_exti.c ****   * @{
  37:common/stm32f10x_exti.c ****   */
  38:common/stm32f10x_exti.c **** 
  39:common/stm32f10x_exti.c **** /**
  40:common/stm32f10x_exti.c ****   * @}
  41:common/stm32f10x_exti.c ****   */
  42:common/stm32f10x_exti.c **** 
  43:common/stm32f10x_exti.c **** /** @defgroup EXTI_Private_Defines
  44:common/stm32f10x_exti.c ****   * @{
  45:common/stm32f10x_exti.c ****   */
  46:common/stm32f10x_exti.c **** 
  47:common/stm32f10x_exti.c **** #define EXTI_LINENONE    ((uint32_t)0x00000)  /* No interrupt selected */
  48:common/stm32f10x_exti.c **** 
  49:common/stm32f10x_exti.c **** /**
  50:common/stm32f10x_exti.c ****   * @}
  51:common/stm32f10x_exti.c ****   */
  52:common/stm32f10x_exti.c **** 
  53:common/stm32f10x_exti.c **** /** @defgroup EXTI_Private_Macros
  54:common/stm32f10x_exti.c ****   * @{
  55:common/stm32f10x_exti.c ****   */
  56:common/stm32f10x_exti.c **** 
  57:common/stm32f10x_exti.c **** /**
  58:common/stm32f10x_exti.c ****   * @}
  59:common/stm32f10x_exti.c ****   */
  60:common/stm32f10x_exti.c **** 
  61:common/stm32f10x_exti.c **** /** @defgroup EXTI_Private_Variables
  62:common/stm32f10x_exti.c ****   * @{
  63:common/stm32f10x_exti.c ****   */
  64:common/stm32f10x_exti.c **** 
  65:common/stm32f10x_exti.c **** /**
  66:common/stm32f10x_exti.c ****   * @}
  67:common/stm32f10x_exti.c ****   */
  68:common/stm32f10x_exti.c **** 
  69:common/stm32f10x_exti.c **** /** @defgroup EXTI_Private_FunctionPrototypes
  70:common/stm32f10x_exti.c ****   * @{
  71:common/stm32f10x_exti.c ****   */
  72:common/stm32f10x_exti.c **** 
  73:common/stm32f10x_exti.c **** /**
  74:common/stm32f10x_exti.c ****   * @}
  75:common/stm32f10x_exti.c ****   */
  76:common/stm32f10x_exti.c **** 
  77:common/stm32f10x_exti.c **** /** @defgroup EXTI_Private_Functions
  78:common/stm32f10x_exti.c ****   * @{
  79:common/stm32f10x_exti.c ****   */
  80:common/stm32f10x_exti.c **** 
  81:common/stm32f10x_exti.c **** /**
  82:common/stm32f10x_exti.c ****   * @brief  Deinitializes the EXTI peripheral registers to their default reset values.
  83:common/stm32f10x_exti.c ****   * @param  None
  84:common/stm32f10x_exti.c ****   * @retval None
  85:common/stm32f10x_exti.c ****   */
  86:common/stm32f10x_exti.c **** void EXTI_DeInit(void)
  87:common/stm32f10x_exti.c **** {
  25              		.loc 1 87 0
  26              		.cfi_startproc
  27              		@ args = 0, pretend = 0, frame = 0
ARM GAS  /tmp/ccMycBjG.s 			page 3


  28              		@ frame_needed = 1, uses_anonymous_args = 0
  29              		@ link register save eliminated.
  30 0000 80B4     		push	{r7}
  31              		.cfi_def_cfa_offset 4
  32              		.cfi_offset 7, -4
  33 0002 00AF     		add	r7, sp, #0
  34              		.cfi_def_cfa_register 7
  88:common/stm32f10x_exti.c ****   EXTI->IMR = 0x00000000;
  35              		.loc 1 88 0
  36 0004 094B     		ldr	r3, .L2
  37 0006 0022     		movs	r2, #0
  38 0008 1A60     		str	r2, [r3]
  89:common/stm32f10x_exti.c ****   EXTI->EMR = 0x00000000;
  39              		.loc 1 89 0
  40 000a 084B     		ldr	r3, .L2
  41 000c 0022     		movs	r2, #0
  42 000e 5A60     		str	r2, [r3, #4]
  90:common/stm32f10x_exti.c ****   EXTI->RTSR = 0x00000000; 
  43              		.loc 1 90 0
  44 0010 064B     		ldr	r3, .L2
  45 0012 0022     		movs	r2, #0
  46 0014 9A60     		str	r2, [r3, #8]
  91:common/stm32f10x_exti.c ****   EXTI->FTSR = 0x00000000; 
  47              		.loc 1 91 0
  48 0016 054B     		ldr	r3, .L2
  49 0018 0022     		movs	r2, #0
  50 001a DA60     		str	r2, [r3, #12]
  92:common/stm32f10x_exti.c ****   EXTI->PR = 0x000FFFFF;
  51              		.loc 1 92 0
  52 001c 034B     		ldr	r3, .L2
  53 001e 044A     		ldr	r2, .L2+4
  54 0020 5A61     		str	r2, [r3, #20]
  93:common/stm32f10x_exti.c **** }
  55              		.loc 1 93 0
  56 0022 00BF     		nop
  57 0024 BD46     		mov	sp, r7
  58              		.cfi_def_cfa_register 13
  59              		@ sp needed
  60 0026 80BC     		pop	{r7}
  61              		.cfi_restore 7
  62              		.cfi_def_cfa_offset 0
  63 0028 7047     		bx	lr
  64              	.L3:
  65 002a 00BF     		.align	2
  66              	.L2:
  67 002c 00040140 		.word	1073808384
  68 0030 FFFF0F00 		.word	1048575
  69              		.cfi_endproc
  70              	.LFE63:
  71              		.size	EXTI_DeInit, .-EXTI_DeInit
  72              		.align	1
  73              		.global	EXTI_Init
  74              		.syntax unified
  75              		.thumb
  76              		.thumb_func
  77              		.fpu softvfp
  78              		.type	EXTI_Init, %function
ARM GAS  /tmp/ccMycBjG.s 			page 4


  79              	EXTI_Init:
  80              	.LFB64:
  94:common/stm32f10x_exti.c **** 
  95:common/stm32f10x_exti.c **** /**
  96:common/stm32f10x_exti.c ****   * @brief  Initializes the EXTI peripheral according to the specified
  97:common/stm32f10x_exti.c ****   *         parameters in the EXTI_InitStruct.
  98:common/stm32f10x_exti.c ****   * @param  EXTI_InitStruct: pointer to a EXTI_InitTypeDef structure
  99:common/stm32f10x_exti.c ****   *         that contains the configuration information for the EXTI peripheral.
 100:common/stm32f10x_exti.c ****   * @retval None
 101:common/stm32f10x_exti.c ****   */
 102:common/stm32f10x_exti.c **** void EXTI_Init(EXTI_InitTypeDef* EXTI_InitStruct)
 103:common/stm32f10x_exti.c **** {
  81              		.loc 1 103 0
  82              		.cfi_startproc
  83              		@ args = 0, pretend = 0, frame = 16
  84              		@ frame_needed = 1, uses_anonymous_args = 0
  85              		@ link register save eliminated.
  86 0034 80B4     		push	{r7}
  87              		.cfi_def_cfa_offset 4
  88              		.cfi_offset 7, -4
  89 0036 85B0     		sub	sp, sp, #20
  90              		.cfi_def_cfa_offset 24
  91 0038 00AF     		add	r7, sp, #0
  92              		.cfi_def_cfa_register 7
  93 003a 7860     		str	r0, [r7, #4]
 104:common/stm32f10x_exti.c ****   uint32_t tmp = 0;
  94              		.loc 1 104 0
  95 003c 0023     		movs	r3, #0
  96 003e FB60     		str	r3, [r7, #12]
 105:common/stm32f10x_exti.c **** 
 106:common/stm32f10x_exti.c ****   /* Check the parameters */
 107:common/stm32f10x_exti.c ****   assert_param(IS_EXTI_MODE(EXTI_InitStruct->EXTI_Mode));
 108:common/stm32f10x_exti.c ****   assert_param(IS_EXTI_TRIGGER(EXTI_InitStruct->EXTI_Trigger));
 109:common/stm32f10x_exti.c ****   assert_param(IS_EXTI_LINE(EXTI_InitStruct->EXTI_Line));  
 110:common/stm32f10x_exti.c ****   assert_param(IS_FUNCTIONAL_STATE(EXTI_InitStruct->EXTI_LineCmd));
 111:common/stm32f10x_exti.c **** 
 112:common/stm32f10x_exti.c ****   tmp = (uint32_t)EXTI_BASE;
  97              		.loc 1 112 0
  98 0040 344B     		ldr	r3, .L10
  99 0042 FB60     		str	r3, [r7, #12]
 113:common/stm32f10x_exti.c ****      
 114:common/stm32f10x_exti.c ****   if (EXTI_InitStruct->EXTI_LineCmd != DISABLE)
 100              		.loc 1 114 0
 101 0044 7B68     		ldr	r3, [r7, #4]
 102 0046 9B79     		ldrb	r3, [r3, #6]	@ zero_extendqisi2
 103 0048 002B     		cmp	r3, #0
 104 004a 4FD0     		beq	.L5
 115:common/stm32f10x_exti.c ****   {
 116:common/stm32f10x_exti.c ****     /* Clear EXTI line configuration */
 117:common/stm32f10x_exti.c ****     EXTI->IMR &= ~EXTI_InitStruct->EXTI_Line;
 105              		.loc 1 117 0
 106 004c 3149     		ldr	r1, .L10
 107 004e 314B     		ldr	r3, .L10
 108 0050 1A68     		ldr	r2, [r3]
 109 0052 7B68     		ldr	r3, [r7, #4]
 110 0054 1B68     		ldr	r3, [r3]
 111 0056 DB43     		mvns	r3, r3
ARM GAS  /tmp/ccMycBjG.s 			page 5


 112 0058 1340     		ands	r3, r3, r2
 113 005a 0B60     		str	r3, [r1]
 118:common/stm32f10x_exti.c ****     EXTI->EMR &= ~EXTI_InitStruct->EXTI_Line;
 114              		.loc 1 118 0
 115 005c 2D49     		ldr	r1, .L10
 116 005e 2D4B     		ldr	r3, .L10
 117 0060 5A68     		ldr	r2, [r3, #4]
 118 0062 7B68     		ldr	r3, [r7, #4]
 119 0064 1B68     		ldr	r3, [r3]
 120 0066 DB43     		mvns	r3, r3
 121 0068 1340     		ands	r3, r3, r2
 122 006a 4B60     		str	r3, [r1, #4]
 119:common/stm32f10x_exti.c ****     
 120:common/stm32f10x_exti.c ****     tmp += EXTI_InitStruct->EXTI_Mode;
 123              		.loc 1 120 0
 124 006c 7B68     		ldr	r3, [r7, #4]
 125 006e 1B79     		ldrb	r3, [r3, #4]	@ zero_extendqisi2
 126 0070 1A46     		mov	r2, r3
 127 0072 FB68     		ldr	r3, [r7, #12]
 128 0074 1344     		add	r3, r3, r2
 129 0076 FB60     		str	r3, [r7, #12]
 121:common/stm32f10x_exti.c **** 
 122:common/stm32f10x_exti.c ****     *(__IO uint32_t *) tmp |= EXTI_InitStruct->EXTI_Line;
 130              		.loc 1 122 0
 131 0078 FB68     		ldr	r3, [r7, #12]
 132 007a FA68     		ldr	r2, [r7, #12]
 133 007c 1168     		ldr	r1, [r2]
 134 007e 7A68     		ldr	r2, [r7, #4]
 135 0080 1268     		ldr	r2, [r2]
 136 0082 0A43     		orrs	r2, r2, r1
 137 0084 1A60     		str	r2, [r3]
 123:common/stm32f10x_exti.c **** 
 124:common/stm32f10x_exti.c ****     /* Clear Rising Falling edge configuration */
 125:common/stm32f10x_exti.c ****     EXTI->RTSR &= ~EXTI_InitStruct->EXTI_Line;
 138              		.loc 1 125 0
 139 0086 2349     		ldr	r1, .L10
 140 0088 224B     		ldr	r3, .L10
 141 008a 9A68     		ldr	r2, [r3, #8]
 142 008c 7B68     		ldr	r3, [r7, #4]
 143 008e 1B68     		ldr	r3, [r3]
 144 0090 DB43     		mvns	r3, r3
 145 0092 1340     		ands	r3, r3, r2
 146 0094 8B60     		str	r3, [r1, #8]
 126:common/stm32f10x_exti.c ****     EXTI->FTSR &= ~EXTI_InitStruct->EXTI_Line;
 147              		.loc 1 126 0
 148 0096 1F49     		ldr	r1, .L10
 149 0098 1E4B     		ldr	r3, .L10
 150 009a DA68     		ldr	r2, [r3, #12]
 151 009c 7B68     		ldr	r3, [r7, #4]
 152 009e 1B68     		ldr	r3, [r3]
 153 00a0 DB43     		mvns	r3, r3
 154 00a2 1340     		ands	r3, r3, r2
 155 00a4 CB60     		str	r3, [r1, #12]
 127:common/stm32f10x_exti.c ****     
 128:common/stm32f10x_exti.c ****     /* Select the trigger for the selected external interrupts */
 129:common/stm32f10x_exti.c ****     if (EXTI_InitStruct->EXTI_Trigger == EXTI_Trigger_Rising_Falling)
 156              		.loc 1 129 0
ARM GAS  /tmp/ccMycBjG.s 			page 6


 157 00a6 7B68     		ldr	r3, [r7, #4]
 158 00a8 5B79     		ldrb	r3, [r3, #5]	@ zero_extendqisi2
 159 00aa 102B     		cmp	r3, #16
 160 00ac 0ED1     		bne	.L6
 130:common/stm32f10x_exti.c ****     {
 131:common/stm32f10x_exti.c ****       /* Rising Falling edge */
 132:common/stm32f10x_exti.c ****       EXTI->RTSR |= EXTI_InitStruct->EXTI_Line;
 161              		.loc 1 132 0
 162 00ae 1949     		ldr	r1, .L10
 163 00b0 184B     		ldr	r3, .L10
 164 00b2 9A68     		ldr	r2, [r3, #8]
 165 00b4 7B68     		ldr	r3, [r7, #4]
 166 00b6 1B68     		ldr	r3, [r3]
 167 00b8 1343     		orrs	r3, r3, r2
 168 00ba 8B60     		str	r3, [r1, #8]
 133:common/stm32f10x_exti.c ****       EXTI->FTSR |= EXTI_InitStruct->EXTI_Line;
 169              		.loc 1 133 0
 170 00bc 1549     		ldr	r1, .L10
 171 00be 154B     		ldr	r3, .L10
 172 00c0 DA68     		ldr	r2, [r3, #12]
 173 00c2 7B68     		ldr	r3, [r7, #4]
 174 00c4 1B68     		ldr	r3, [r3]
 175 00c6 1343     		orrs	r3, r3, r2
 176 00c8 CB60     		str	r3, [r1, #12]
 134:common/stm32f10x_exti.c ****     }
 135:common/stm32f10x_exti.c ****     else
 136:common/stm32f10x_exti.c ****     {
 137:common/stm32f10x_exti.c ****       tmp = (uint32_t)EXTI_BASE;
 138:common/stm32f10x_exti.c ****       tmp += EXTI_InitStruct->EXTI_Trigger;
 139:common/stm32f10x_exti.c **** 
 140:common/stm32f10x_exti.c ****       *(__IO uint32_t *) tmp |= EXTI_InitStruct->EXTI_Line;
 141:common/stm32f10x_exti.c ****     }
 142:common/stm32f10x_exti.c ****   }
 143:common/stm32f10x_exti.c ****   else
 144:common/stm32f10x_exti.c ****   {
 145:common/stm32f10x_exti.c ****     tmp += EXTI_InitStruct->EXTI_Mode;
 146:common/stm32f10x_exti.c **** 
 147:common/stm32f10x_exti.c ****     /* Disable the selected external lines */
 148:common/stm32f10x_exti.c ****     *(__IO uint32_t *) tmp &= ~EXTI_InitStruct->EXTI_Line;
 149:common/stm32f10x_exti.c ****   }
 150:common/stm32f10x_exti.c **** }
 177              		.loc 1 150 0
 178 00ca 1DE0     		b	.L9
 179              	.L6:
 137:common/stm32f10x_exti.c ****       tmp += EXTI_InitStruct->EXTI_Trigger;
 180              		.loc 1 137 0
 181 00cc 114B     		ldr	r3, .L10
 182 00ce FB60     		str	r3, [r7, #12]
 138:common/stm32f10x_exti.c **** 
 183              		.loc 1 138 0
 184 00d0 7B68     		ldr	r3, [r7, #4]
 185 00d2 5B79     		ldrb	r3, [r3, #5]	@ zero_extendqisi2
 186 00d4 1A46     		mov	r2, r3
 187 00d6 FB68     		ldr	r3, [r7, #12]
 188 00d8 1344     		add	r3, r3, r2
 189 00da FB60     		str	r3, [r7, #12]
 140:common/stm32f10x_exti.c ****     }
ARM GAS  /tmp/ccMycBjG.s 			page 7


 190              		.loc 1 140 0
 191 00dc FB68     		ldr	r3, [r7, #12]
 192 00de FA68     		ldr	r2, [r7, #12]
 193 00e0 1168     		ldr	r1, [r2]
 194 00e2 7A68     		ldr	r2, [r7, #4]
 195 00e4 1268     		ldr	r2, [r2]
 196 00e6 0A43     		orrs	r2, r2, r1
 197 00e8 1A60     		str	r2, [r3]
 198              		.loc 1 150 0
 199 00ea 0DE0     		b	.L9
 200              	.L5:
 145:common/stm32f10x_exti.c **** 
 201              		.loc 1 145 0
 202 00ec 7B68     		ldr	r3, [r7, #4]
 203 00ee 1B79     		ldrb	r3, [r3, #4]	@ zero_extendqisi2
 204 00f0 1A46     		mov	r2, r3
 205 00f2 FB68     		ldr	r3, [r7, #12]
 206 00f4 1344     		add	r3, r3, r2
 207 00f6 FB60     		str	r3, [r7, #12]
 148:common/stm32f10x_exti.c ****   }
 208              		.loc 1 148 0
 209 00f8 FB68     		ldr	r3, [r7, #12]
 210 00fa FA68     		ldr	r2, [r7, #12]
 211 00fc 1168     		ldr	r1, [r2]
 212 00fe 7A68     		ldr	r2, [r7, #4]
 213 0100 1268     		ldr	r2, [r2]
 214 0102 D243     		mvns	r2, r2
 215 0104 0A40     		ands	r2, r2, r1
 216 0106 1A60     		str	r2, [r3]
 217              	.L9:
 218              		.loc 1 150 0
 219 0108 00BF     		nop
 220 010a 1437     		adds	r7, r7, #20
 221              		.cfi_def_cfa_offset 4
 222 010c BD46     		mov	sp, r7
 223              		.cfi_def_cfa_register 13
 224              		@ sp needed
 225 010e 80BC     		pop	{r7}
 226              		.cfi_restore 7
 227              		.cfi_def_cfa_offset 0
 228 0110 7047     		bx	lr
 229              	.L11:
 230 0112 00BF     		.align	2
 231              	.L10:
 232 0114 00040140 		.word	1073808384
 233              		.cfi_endproc
 234              	.LFE64:
 235              		.size	EXTI_Init, .-EXTI_Init
 236              		.align	1
 237              		.global	EXTI_StructInit
 238              		.syntax unified
 239              		.thumb
 240              		.thumb_func
 241              		.fpu softvfp
 242              		.type	EXTI_StructInit, %function
 243              	EXTI_StructInit:
 244              	.LFB65:
ARM GAS  /tmp/ccMycBjG.s 			page 8


 151:common/stm32f10x_exti.c **** 
 152:common/stm32f10x_exti.c **** /**
 153:common/stm32f10x_exti.c ****   * @brief  Fills each EXTI_InitStruct member with its reset value.
 154:common/stm32f10x_exti.c ****   * @param  EXTI_InitStruct: pointer to a EXTI_InitTypeDef structure which will
 155:common/stm32f10x_exti.c ****   *         be initialized.
 156:common/stm32f10x_exti.c ****   * @retval None
 157:common/stm32f10x_exti.c ****   */
 158:common/stm32f10x_exti.c **** void EXTI_StructInit(EXTI_InitTypeDef* EXTI_InitStruct)
 159:common/stm32f10x_exti.c **** {
 245              		.loc 1 159 0
 246              		.cfi_startproc
 247              		@ args = 0, pretend = 0, frame = 8
 248              		@ frame_needed = 1, uses_anonymous_args = 0
 249              		@ link register save eliminated.
 250 0118 80B4     		push	{r7}
 251              		.cfi_def_cfa_offset 4
 252              		.cfi_offset 7, -4
 253 011a 83B0     		sub	sp, sp, #12
 254              		.cfi_def_cfa_offset 16
 255 011c 00AF     		add	r7, sp, #0
 256              		.cfi_def_cfa_register 7
 257 011e 7860     		str	r0, [r7, #4]
 160:common/stm32f10x_exti.c ****   EXTI_InitStruct->EXTI_Line = EXTI_LINENONE;
 258              		.loc 1 160 0
 259 0120 7B68     		ldr	r3, [r7, #4]
 260 0122 0022     		movs	r2, #0
 261 0124 1A60     		str	r2, [r3]
 161:common/stm32f10x_exti.c ****   EXTI_InitStruct->EXTI_Mode = EXTI_Mode_Interrupt;
 262              		.loc 1 161 0
 263 0126 7B68     		ldr	r3, [r7, #4]
 264 0128 0022     		movs	r2, #0
 265 012a 1A71     		strb	r2, [r3, #4]
 162:common/stm32f10x_exti.c ****   EXTI_InitStruct->EXTI_Trigger = EXTI_Trigger_Falling;
 266              		.loc 1 162 0
 267 012c 7B68     		ldr	r3, [r7, #4]
 268 012e 0C22     		movs	r2, #12
 269 0130 5A71     		strb	r2, [r3, #5]
 163:common/stm32f10x_exti.c ****   EXTI_InitStruct->EXTI_LineCmd = DISABLE;
 270              		.loc 1 163 0
 271 0132 7B68     		ldr	r3, [r7, #4]
 272 0134 0022     		movs	r2, #0
 273 0136 9A71     		strb	r2, [r3, #6]
 164:common/stm32f10x_exti.c **** }
 274              		.loc 1 164 0
 275 0138 00BF     		nop
 276 013a 0C37     		adds	r7, r7, #12
 277              		.cfi_def_cfa_offset 4
 278 013c BD46     		mov	sp, r7
 279              		.cfi_def_cfa_register 13
 280              		@ sp needed
 281 013e 80BC     		pop	{r7}
 282              		.cfi_restore 7
 283              		.cfi_def_cfa_offset 0
 284 0140 7047     		bx	lr
 285              		.cfi_endproc
 286              	.LFE65:
 287              		.size	EXTI_StructInit, .-EXTI_StructInit
ARM GAS  /tmp/ccMycBjG.s 			page 9


 288              		.align	1
 289              		.global	EXTI_GenerateSWInterrupt
 290              		.syntax unified
 291              		.thumb
 292              		.thumb_func
 293              		.fpu softvfp
 294              		.type	EXTI_GenerateSWInterrupt, %function
 295              	EXTI_GenerateSWInterrupt:
 296              	.LFB66:
 165:common/stm32f10x_exti.c **** 
 166:common/stm32f10x_exti.c **** /**
 167:common/stm32f10x_exti.c ****   * @brief  Generates a Software interrupt.
 168:common/stm32f10x_exti.c ****   * @param  EXTI_Line: specifies the EXTI lines to be enabled or disabled.
 169:common/stm32f10x_exti.c ****   *   This parameter can be any combination of EXTI_Linex where x can be (0..19).
 170:common/stm32f10x_exti.c ****   * @retval None
 171:common/stm32f10x_exti.c ****   */
 172:common/stm32f10x_exti.c **** void EXTI_GenerateSWInterrupt(uint32_t EXTI_Line)
 173:common/stm32f10x_exti.c **** {
 297              		.loc 1 173 0
 298              		.cfi_startproc
 299              		@ args = 0, pretend = 0, frame = 8
 300              		@ frame_needed = 1, uses_anonymous_args = 0
 301              		@ link register save eliminated.
 302 0142 80B4     		push	{r7}
 303              		.cfi_def_cfa_offset 4
 304              		.cfi_offset 7, -4
 305 0144 83B0     		sub	sp, sp, #12
 306              		.cfi_def_cfa_offset 16
 307 0146 00AF     		add	r7, sp, #0
 308              		.cfi_def_cfa_register 7
 309 0148 7860     		str	r0, [r7, #4]
 174:common/stm32f10x_exti.c ****   /* Check the parameters */
 175:common/stm32f10x_exti.c ****   assert_param(IS_EXTI_LINE(EXTI_Line));
 176:common/stm32f10x_exti.c ****   
 177:common/stm32f10x_exti.c ****   EXTI->SWIER |= EXTI_Line;
 310              		.loc 1 177 0
 311 014a 0549     		ldr	r1, .L14
 312 014c 044B     		ldr	r3, .L14
 313 014e 1A69     		ldr	r2, [r3, #16]
 314 0150 7B68     		ldr	r3, [r7, #4]
 315 0152 1343     		orrs	r3, r3, r2
 316 0154 0B61     		str	r3, [r1, #16]
 178:common/stm32f10x_exti.c **** }
 317              		.loc 1 178 0
 318 0156 00BF     		nop
 319 0158 0C37     		adds	r7, r7, #12
 320              		.cfi_def_cfa_offset 4
 321 015a BD46     		mov	sp, r7
 322              		.cfi_def_cfa_register 13
 323              		@ sp needed
 324 015c 80BC     		pop	{r7}
 325              		.cfi_restore 7
 326              		.cfi_def_cfa_offset 0
 327 015e 7047     		bx	lr
 328              	.L15:
 329              		.align	2
 330              	.L14:
ARM GAS  /tmp/ccMycBjG.s 			page 10


 331 0160 00040140 		.word	1073808384
 332              		.cfi_endproc
 333              	.LFE66:
 334              		.size	EXTI_GenerateSWInterrupt, .-EXTI_GenerateSWInterrupt
 335              		.align	1
 336              		.global	EXTI_GetFlagStatus
 337              		.syntax unified
 338              		.thumb
 339              		.thumb_func
 340              		.fpu softvfp
 341              		.type	EXTI_GetFlagStatus, %function
 342              	EXTI_GetFlagStatus:
 343              	.LFB67:
 179:common/stm32f10x_exti.c **** 
 180:common/stm32f10x_exti.c **** /**
 181:common/stm32f10x_exti.c ****   * @brief  Checks whether the specified EXTI line flag is set or not.
 182:common/stm32f10x_exti.c ****   * @param  EXTI_Line: specifies the EXTI line flag to check.
 183:common/stm32f10x_exti.c ****   *   This parameter can be:
 184:common/stm32f10x_exti.c ****   *     @arg EXTI_Linex: External interrupt line x where x(0..19)
 185:common/stm32f10x_exti.c ****   * @retval The new state of EXTI_Line (SET or RESET).
 186:common/stm32f10x_exti.c ****   */
 187:common/stm32f10x_exti.c **** FlagStatus EXTI_GetFlagStatus(uint32_t EXTI_Line)
 188:common/stm32f10x_exti.c **** {
 344              		.loc 1 188 0
 345              		.cfi_startproc
 346              		@ args = 0, pretend = 0, frame = 16
 347              		@ frame_needed = 1, uses_anonymous_args = 0
 348              		@ link register save eliminated.
 349 0164 80B4     		push	{r7}
 350              		.cfi_def_cfa_offset 4
 351              		.cfi_offset 7, -4
 352 0166 85B0     		sub	sp, sp, #20
 353              		.cfi_def_cfa_offset 24
 354 0168 00AF     		add	r7, sp, #0
 355              		.cfi_def_cfa_register 7
 356 016a 7860     		str	r0, [r7, #4]
 189:common/stm32f10x_exti.c ****   FlagStatus bitstatus = RESET;
 357              		.loc 1 189 0
 358 016c 0023     		movs	r3, #0
 359 016e FB73     		strb	r3, [r7, #15]
 190:common/stm32f10x_exti.c ****   /* Check the parameters */
 191:common/stm32f10x_exti.c ****   assert_param(IS_GET_EXTI_LINE(EXTI_Line));
 192:common/stm32f10x_exti.c ****   
 193:common/stm32f10x_exti.c ****   if ((EXTI->PR & EXTI_Line) != (uint32_t)RESET)
 360              		.loc 1 193 0
 361 0170 084B     		ldr	r3, .L20
 362 0172 5A69     		ldr	r2, [r3, #20]
 363 0174 7B68     		ldr	r3, [r7, #4]
 364 0176 1340     		ands	r3, r3, r2
 365 0178 002B     		cmp	r3, #0
 366 017a 02D0     		beq	.L17
 194:common/stm32f10x_exti.c ****   {
 195:common/stm32f10x_exti.c ****     bitstatus = SET;
 367              		.loc 1 195 0
 368 017c 0123     		movs	r3, #1
 369 017e FB73     		strb	r3, [r7, #15]
 370 0180 01E0     		b	.L18
ARM GAS  /tmp/ccMycBjG.s 			page 11


 371              	.L17:
 196:common/stm32f10x_exti.c ****   }
 197:common/stm32f10x_exti.c ****   else
 198:common/stm32f10x_exti.c ****   {
 199:common/stm32f10x_exti.c ****     bitstatus = RESET;
 372              		.loc 1 199 0
 373 0182 0023     		movs	r3, #0
 374 0184 FB73     		strb	r3, [r7, #15]
 375              	.L18:
 200:common/stm32f10x_exti.c ****   }
 201:common/stm32f10x_exti.c ****   return bitstatus;
 376              		.loc 1 201 0
 377 0186 FB7B     		ldrb	r3, [r7, #15]	@ zero_extendqisi2
 202:common/stm32f10x_exti.c **** }
 378              		.loc 1 202 0
 379 0188 1846     		mov	r0, r3
 380 018a 1437     		adds	r7, r7, #20
 381              		.cfi_def_cfa_offset 4
 382 018c BD46     		mov	sp, r7
 383              		.cfi_def_cfa_register 13
 384              		@ sp needed
 385 018e 80BC     		pop	{r7}
 386              		.cfi_restore 7
 387              		.cfi_def_cfa_offset 0
 388 0190 7047     		bx	lr
 389              	.L21:
 390 0192 00BF     		.align	2
 391              	.L20:
 392 0194 00040140 		.word	1073808384
 393              		.cfi_endproc
 394              	.LFE67:
 395              		.size	EXTI_GetFlagStatus, .-EXTI_GetFlagStatus
 396              		.align	1
 397              		.global	EXTI_ClearFlag
 398              		.syntax unified
 399              		.thumb
 400              		.thumb_func
 401              		.fpu softvfp
 402              		.type	EXTI_ClearFlag, %function
 403              	EXTI_ClearFlag:
 404              	.LFB68:
 203:common/stm32f10x_exti.c **** 
 204:common/stm32f10x_exti.c **** /**
 205:common/stm32f10x_exti.c ****   * @brief  Clears the EXTI's line pending flags.
 206:common/stm32f10x_exti.c ****   * @param  EXTI_Line: specifies the EXTI lines flags to clear.
 207:common/stm32f10x_exti.c ****   *   This parameter can be any combination of EXTI_Linex where x can be (0..19).
 208:common/stm32f10x_exti.c ****   * @retval None
 209:common/stm32f10x_exti.c ****   */
 210:common/stm32f10x_exti.c **** void EXTI_ClearFlag(uint32_t EXTI_Line)
 211:common/stm32f10x_exti.c **** {
 405              		.loc 1 211 0
 406              		.cfi_startproc
 407              		@ args = 0, pretend = 0, frame = 8
 408              		@ frame_needed = 1, uses_anonymous_args = 0
 409              		@ link register save eliminated.
 410 0198 80B4     		push	{r7}
 411              		.cfi_def_cfa_offset 4
ARM GAS  /tmp/ccMycBjG.s 			page 12


 412              		.cfi_offset 7, -4
 413 019a 83B0     		sub	sp, sp, #12
 414              		.cfi_def_cfa_offset 16
 415 019c 00AF     		add	r7, sp, #0
 416              		.cfi_def_cfa_register 7
 417 019e 7860     		str	r0, [r7, #4]
 212:common/stm32f10x_exti.c ****   /* Check the parameters */
 213:common/stm32f10x_exti.c ****   assert_param(IS_EXTI_LINE(EXTI_Line));
 214:common/stm32f10x_exti.c ****   
 215:common/stm32f10x_exti.c ****   EXTI->PR = EXTI_Line;
 418              		.loc 1 215 0
 419 01a0 034A     		ldr	r2, .L23
 420 01a2 7B68     		ldr	r3, [r7, #4]
 421 01a4 5361     		str	r3, [r2, #20]
 216:common/stm32f10x_exti.c **** }
 422              		.loc 1 216 0
 423 01a6 00BF     		nop
 424 01a8 0C37     		adds	r7, r7, #12
 425              		.cfi_def_cfa_offset 4
 426 01aa BD46     		mov	sp, r7
 427              		.cfi_def_cfa_register 13
 428              		@ sp needed
 429 01ac 80BC     		pop	{r7}
 430              		.cfi_restore 7
 431              		.cfi_def_cfa_offset 0
 432 01ae 7047     		bx	lr
 433              	.L24:
 434              		.align	2
 435              	.L23:
 436 01b0 00040140 		.word	1073808384
 437              		.cfi_endproc
 438              	.LFE68:
 439              		.size	EXTI_ClearFlag, .-EXTI_ClearFlag
 440              		.align	1
 441              		.global	EXTI_GetITStatus
 442              		.syntax unified
 443              		.thumb
 444              		.thumb_func
 445              		.fpu softvfp
 446              		.type	EXTI_GetITStatus, %function
 447              	EXTI_GetITStatus:
 448              	.LFB69:
 217:common/stm32f10x_exti.c **** 
 218:common/stm32f10x_exti.c **** /**
 219:common/stm32f10x_exti.c ****   * @brief  Checks whether the specified EXTI line is asserted or not.
 220:common/stm32f10x_exti.c ****   * @param  EXTI_Line: specifies the EXTI line to check.
 221:common/stm32f10x_exti.c ****   *   This parameter can be:
 222:common/stm32f10x_exti.c ****   *     @arg EXTI_Linex: External interrupt line x where x(0..19)
 223:common/stm32f10x_exti.c ****   * @retval The new state of EXTI_Line (SET or RESET).
 224:common/stm32f10x_exti.c ****   */
 225:common/stm32f10x_exti.c **** ITStatus EXTI_GetITStatus(uint32_t EXTI_Line)
 226:common/stm32f10x_exti.c **** {
 449              		.loc 1 226 0
 450              		.cfi_startproc
 451              		@ args = 0, pretend = 0, frame = 16
 452              		@ frame_needed = 1, uses_anonymous_args = 0
 453              		@ link register save eliminated.
ARM GAS  /tmp/ccMycBjG.s 			page 13


 454 01b4 80B4     		push	{r7}
 455              		.cfi_def_cfa_offset 4
 456              		.cfi_offset 7, -4
 457 01b6 85B0     		sub	sp, sp, #20
 458              		.cfi_def_cfa_offset 24
 459 01b8 00AF     		add	r7, sp, #0
 460              		.cfi_def_cfa_register 7
 461 01ba 7860     		str	r0, [r7, #4]
 227:common/stm32f10x_exti.c ****   ITStatus bitstatus = RESET;
 462              		.loc 1 227 0
 463 01bc 0023     		movs	r3, #0
 464 01be FB73     		strb	r3, [r7, #15]
 228:common/stm32f10x_exti.c ****   uint32_t enablestatus = 0;
 465              		.loc 1 228 0
 466 01c0 0023     		movs	r3, #0
 467 01c2 BB60     		str	r3, [r7, #8]
 229:common/stm32f10x_exti.c ****   /* Check the parameters */
 230:common/stm32f10x_exti.c ****   assert_param(IS_GET_EXTI_LINE(EXTI_Line));
 231:common/stm32f10x_exti.c ****   
 232:common/stm32f10x_exti.c ****   enablestatus =  EXTI->IMR & EXTI_Line;
 468              		.loc 1 232 0
 469 01c4 0C4B     		ldr	r3, .L29
 470 01c6 1A68     		ldr	r2, [r3]
 471 01c8 7B68     		ldr	r3, [r7, #4]
 472 01ca 1340     		ands	r3, r3, r2
 473 01cc BB60     		str	r3, [r7, #8]
 233:common/stm32f10x_exti.c ****   if (((EXTI->PR & EXTI_Line) != (uint32_t)RESET) && (enablestatus != (uint32_t)RESET))
 474              		.loc 1 233 0
 475 01ce 0A4B     		ldr	r3, .L29
 476 01d0 5A69     		ldr	r2, [r3, #20]
 477 01d2 7B68     		ldr	r3, [r7, #4]
 478 01d4 1340     		ands	r3, r3, r2
 479 01d6 002B     		cmp	r3, #0
 480 01d8 05D0     		beq	.L26
 481              		.loc 1 233 0 is_stmt 0 discriminator 1
 482 01da BB68     		ldr	r3, [r7, #8]
 483 01dc 002B     		cmp	r3, #0
 484 01de 02D0     		beq	.L26
 234:common/stm32f10x_exti.c ****   {
 235:common/stm32f10x_exti.c ****     bitstatus = SET;
 485              		.loc 1 235 0 is_stmt 1
 486 01e0 0123     		movs	r3, #1
 487 01e2 FB73     		strb	r3, [r7, #15]
 488 01e4 01E0     		b	.L27
 489              	.L26:
 236:common/stm32f10x_exti.c ****   }
 237:common/stm32f10x_exti.c ****   else
 238:common/stm32f10x_exti.c ****   {
 239:common/stm32f10x_exti.c ****     bitstatus = RESET;
 490              		.loc 1 239 0
 491 01e6 0023     		movs	r3, #0
 492 01e8 FB73     		strb	r3, [r7, #15]
 493              	.L27:
 240:common/stm32f10x_exti.c ****   }
 241:common/stm32f10x_exti.c ****   return bitstatus;
 494              		.loc 1 241 0
 495 01ea FB7B     		ldrb	r3, [r7, #15]	@ zero_extendqisi2
ARM GAS  /tmp/ccMycBjG.s 			page 14


 242:common/stm32f10x_exti.c **** }
 496              		.loc 1 242 0
 497 01ec 1846     		mov	r0, r3
 498 01ee 1437     		adds	r7, r7, #20
 499              		.cfi_def_cfa_offset 4
 500 01f0 BD46     		mov	sp, r7
 501              		.cfi_def_cfa_register 13
 502              		@ sp needed
 503 01f2 80BC     		pop	{r7}
 504              		.cfi_restore 7
 505              		.cfi_def_cfa_offset 0
 506 01f4 7047     		bx	lr
 507              	.L30:
 508 01f6 00BF     		.align	2
 509              	.L29:
 510 01f8 00040140 		.word	1073808384
 511              		.cfi_endproc
 512              	.LFE69:
 513              		.size	EXTI_GetITStatus, .-EXTI_GetITStatus
 514              		.align	1
 515              		.global	EXTI_ClearITPendingBit
 516              		.syntax unified
 517              		.thumb
 518              		.thumb_func
 519              		.fpu softvfp
 520              		.type	EXTI_ClearITPendingBit, %function
 521              	EXTI_ClearITPendingBit:
 522              	.LFB70:
 243:common/stm32f10x_exti.c **** 
 244:common/stm32f10x_exti.c **** /**
 245:common/stm32f10x_exti.c ****   * @brief  Clears the EXTI's line pending bits.
 246:common/stm32f10x_exti.c ****   * @param  EXTI_Line: specifies the EXTI lines to clear.
 247:common/stm32f10x_exti.c ****   *   This parameter can be any combination of EXTI_Linex where x can be (0..19).
 248:common/stm32f10x_exti.c ****   * @retval None
 249:common/stm32f10x_exti.c ****   */
 250:common/stm32f10x_exti.c **** void EXTI_ClearITPendingBit(uint32_t EXTI_Line)
 251:common/stm32f10x_exti.c **** {
 523              		.loc 1 251 0
 524              		.cfi_startproc
 525              		@ args = 0, pretend = 0, frame = 8
 526              		@ frame_needed = 1, uses_anonymous_args = 0
 527              		@ link register save eliminated.
 528 01fc 80B4     		push	{r7}
 529              		.cfi_def_cfa_offset 4
 530              		.cfi_offset 7, -4
 531 01fe 83B0     		sub	sp, sp, #12
 532              		.cfi_def_cfa_offset 16
 533 0200 00AF     		add	r7, sp, #0
 534              		.cfi_def_cfa_register 7
 535 0202 7860     		str	r0, [r7, #4]
 252:common/stm32f10x_exti.c ****   /* Check the parameters */
 253:common/stm32f10x_exti.c ****   assert_param(IS_EXTI_LINE(EXTI_Line));
 254:common/stm32f10x_exti.c ****   
 255:common/stm32f10x_exti.c ****   EXTI->PR = EXTI_Line;
 536              		.loc 1 255 0
 537 0204 034A     		ldr	r2, .L32
 538 0206 7B68     		ldr	r3, [r7, #4]
ARM GAS  /tmp/ccMycBjG.s 			page 15


 539 0208 5361     		str	r3, [r2, #20]
 256:common/stm32f10x_exti.c **** }
 540              		.loc 1 256 0
 541 020a 00BF     		nop
 542 020c 0C37     		adds	r7, r7, #12
 543              		.cfi_def_cfa_offset 4
 544 020e BD46     		mov	sp, r7
 545              		.cfi_def_cfa_register 13
 546              		@ sp needed
 547 0210 80BC     		pop	{r7}
 548              		.cfi_restore 7
 549              		.cfi_def_cfa_offset 0
 550 0212 7047     		bx	lr
 551              	.L33:
 552              		.align	2
 553              	.L32:
 554 0214 00040140 		.word	1073808384
 555              		.cfi_endproc
 556              	.LFE70:
 557              		.size	EXTI_ClearITPendingBit, .-EXTI_ClearITPendingBit
 558              	.Letext0:
 559              		.file 2 "/usr/arm-none-eabi/include/machine/_default_types.h"
 560              		.file 3 "/usr/arm-none-eabi/include/sys/_stdint.h"
 561              		.file 4 "common/../include/STM32/../CMSIS/core_cm3.h"
 562              		.file 5 "common/../include/STM32/system_stm32f10x.h"
 563              		.file 6 "common/../include/STM32/stm32f10x.h"
 564              		.file 7 "common/../include/STM32/exti.h"
 565              		.file 8 "common/../src/../include/MPU6050/mpu6050.h"
 566              		.file 9 "/usr/arm-none-eabi/include/sys/lock.h"
 567              		.file 10 "/usr/arm-none-eabi/include/sys/_types.h"
 568              		.file 11 "/usr/lib/gcc/arm-none-eabi/6.1.1/include/stddef.h"
 569              		.file 12 "/usr/arm-none-eabi/include/sys/reent.h"
 570              		.file 13 "/usr/arm-none-eabi/include/math.h"
 571              		.section	.debug_info,"",%progbits
 572              	.Ldebug_info0:
 573 0000 450C0000 		.4byte	0xc45
 574 0004 0400     		.2byte	0x4
 575 0006 00000000 		.4byte	.Ldebug_abbrev0
 576 000a 04       		.byte	0x4
 577 000b 01       		.uleb128 0x1
 578 000c B9060000 		.4byte	.LASF175
 579 0010 0C       		.byte	0xc
 580 0011 28000000 		.4byte	.LASF176
 581 0015 EF010000 		.4byte	.LASF177
 582 0019 00000000 		.4byte	.Ltext0
 583 001d 18020000 		.4byte	.Letext0-.Ltext0
 584 0021 00000000 		.4byte	.Ldebug_line0
 585 0025 02       		.uleb128 0x2
 586 0026 01       		.byte	0x1
 587 0027 06       		.byte	0x6
 588 0028 79010000 		.4byte	.LASF0
 589 002c 02       		.uleb128 0x2
 590 002d 01       		.byte	0x1
 591 002e 08       		.byte	0x8
 592 002f AE040000 		.4byte	.LASF1
 593 0033 03       		.uleb128 0x3
 594 0034 3C070000 		.4byte	.LASF4
ARM GAS  /tmp/ccMycBjG.s 			page 16


 595 0038 02       		.byte	0x2
 596 0039 29       		.byte	0x29
 597 003a 3E000000 		.4byte	0x3e
 598 003e 02       		.uleb128 0x2
 599 003f 02       		.byte	0x2
 600 0040 05       		.byte	0x5
 601 0041 14000000 		.4byte	.LASF2
 602 0045 02       		.uleb128 0x2
 603 0046 02       		.byte	0x2
 604 0047 07       		.byte	0x7
 605 0048 A9020000 		.4byte	.LASF3
 606 004c 03       		.uleb128 0x3
 607 004d F1050000 		.4byte	.LASF5
 608 0051 02       		.byte	0x2
 609 0052 3F       		.byte	0x3f
 610 0053 57000000 		.4byte	0x57
 611 0057 02       		.uleb128 0x2
 612 0058 04       		.byte	0x4
 613 0059 05       		.byte	0x5
 614 005a E6010000 		.4byte	.LASF6
 615 005e 03       		.uleb128 0x3
 616 005f C1020000 		.4byte	.LASF7
 617 0063 02       		.byte	0x2
 618 0064 41       		.byte	0x41
 619 0065 69000000 		.4byte	0x69
 620 0069 02       		.uleb128 0x2
 621 006a 04       		.byte	0x4
 622 006b 07       		.byte	0x7
 623 006c 64030000 		.4byte	.LASF8
 624 0070 02       		.uleb128 0x2
 625 0071 08       		.byte	0x8
 626 0072 05       		.byte	0x5
 627 0073 58020000 		.4byte	.LASF9
 628 0077 02       		.uleb128 0x2
 629 0078 08       		.byte	0x8
 630 0079 07       		.byte	0x7
 631 007a CD000000 		.4byte	.LASF10
 632 007e 04       		.uleb128 0x4
 633 007f 04       		.byte	0x4
 634 0080 05       		.byte	0x5
 635 0081 696E7400 		.ascii	"int\000"
 636 0085 02       		.uleb128 0x2
 637 0086 04       		.byte	0x4
 638 0087 07       		.byte	0x7
 639 0088 D7050000 		.4byte	.LASF11
 640 008c 03       		.uleb128 0x3
 641 008d 63010000 		.4byte	.LASF12
 642 0091 03       		.byte	0x3
 643 0092 20       		.byte	0x20
 644 0093 33000000 		.4byte	0x33
 645 0097 03       		.uleb128 0x3
 646 0098 A6040000 		.4byte	.LASF13
 647 009c 03       		.byte	0x3
 648 009d 2C       		.byte	0x2c
 649 009e 4C000000 		.4byte	0x4c
 650 00a2 05       		.uleb128 0x5
 651 00a3 97000000 		.4byte	0x97
ARM GAS  /tmp/ccMycBjG.s 			page 17


 652 00a7 03       		.uleb128 0x3
 653 00a8 AA070000 		.4byte	.LASF14
 654 00ac 03       		.byte	0x3
 655 00ad 30       		.byte	0x30
 656 00ae 5E000000 		.4byte	0x5e
 657 00b2 05       		.uleb128 0x5
 658 00b3 A7000000 		.4byte	0xa7
 659 00b7 02       		.uleb128 0x2
 660 00b8 04       		.byte	0x4
 661 00b9 07       		.byte	0x7
 662 00ba ED030000 		.4byte	.LASF15
 663 00be 06       		.uleb128 0x6
 664 00bf C2040000 		.4byte	.LASF16
 665 00c3 04       		.byte	0x4
 666 00c4 9606     		.2byte	0x696
 667 00c6 A2000000 		.4byte	0xa2
 668 00ca 07       		.uleb128 0x7
 669 00cb 44030000 		.4byte	.LASF17
 670 00cf 05       		.byte	0x5
 671 00d0 35       		.byte	0x35
 672 00d1 A7000000 		.4byte	0xa7
 673 00d5 08       		.uleb128 0x8
 674 00d6 01       		.byte	0x1
 675 00d7 2C000000 		.4byte	0x2c
 676 00db 06       		.byte	0x6
 677 00dc 9001     		.2byte	0x190
 678 00de EF000000 		.4byte	0xef
 679 00e2 09       		.uleb128 0x9
 680 00e3 A0040000 		.4byte	.LASF18
 681 00e7 00       		.byte	0
 682 00e8 0A       		.uleb128 0xa
 683 00e9 53455400 		.ascii	"SET\000"
 684 00ed 01       		.byte	0x1
 685 00ee 00       		.byte	0
 686 00ef 0B       		.uleb128 0xb
 687 00f0 50000000 		.4byte	.LASF19
 688 00f4 06       		.byte	0x6
 689 00f5 9001     		.2byte	0x190
 690 00f7 D5000000 		.4byte	0xd5
 691 00fb 0B       		.uleb128 0xb
 692 00fc 0E030000 		.4byte	.LASF20
 693 0100 06       		.byte	0x6
 694 0101 9001     		.2byte	0x190
 695 0103 D5000000 		.4byte	0xd5
 696 0107 08       		.uleb128 0x8
 697 0108 01       		.byte	0x1
 698 0109 2C000000 		.4byte	0x2c
 699 010d 06       		.byte	0x6
 700 010e 9201     		.2byte	0x192
 701 0110 21010000 		.4byte	0x121
 702 0114 09       		.uleb128 0x9
 703 0115 7C070000 		.4byte	.LASF21
 704 0119 00       		.byte	0
 705 011a 09       		.uleb128 0x9
 706 011b 51020000 		.4byte	.LASF22
 707 011f 01       		.byte	0x1
 708 0120 00       		.byte	0
ARM GAS  /tmp/ccMycBjG.s 			page 18


 709 0121 0B       		.uleb128 0xb
 710 0122 2B040000 		.4byte	.LASF23
 711 0126 06       		.byte	0x6
 712 0127 9201     		.2byte	0x192
 713 0129 07010000 		.4byte	0x107
 714 012d 0C       		.uleb128 0xc
 715 012e 18       		.byte	0x18
 716 012f 06       		.byte	0x6
 717 0130 0003     		.2byte	0x300
 718 0132 84010000 		.4byte	0x184
 719 0136 0D       		.uleb128 0xd
 720 0137 494D5200 		.ascii	"IMR\000"
 721 013b 06       		.byte	0x6
 722 013c 0203     		.2byte	0x302
 723 013e B2000000 		.4byte	0xb2
 724 0142 00       		.byte	0
 725 0143 0D       		.uleb128 0xd
 726 0144 454D5200 		.ascii	"EMR\000"
 727 0148 06       		.byte	0x6
 728 0149 0303     		.2byte	0x303
 729 014b B2000000 		.4byte	0xb2
 730 014f 04       		.byte	0x4
 731 0150 0E       		.uleb128 0xe
 732 0151 73040000 		.4byte	.LASF24
 733 0155 06       		.byte	0x6
 734 0156 0403     		.2byte	0x304
 735 0158 B2000000 		.4byte	0xb2
 736 015c 08       		.byte	0x8
 737 015d 0E       		.uleb128 0xe
 738 015e CF040000 		.4byte	.LASF25
 739 0162 06       		.byte	0x6
 740 0163 0503     		.2byte	0x305
 741 0165 B2000000 		.4byte	0xb2
 742 0169 0C       		.byte	0xc
 743 016a 0E       		.uleb128 0xe
 744 016b A7000000 		.4byte	.LASF26
 745 016f 06       		.byte	0x6
 746 0170 0603     		.2byte	0x306
 747 0172 B2000000 		.4byte	0xb2
 748 0176 10       		.byte	0x10
 749 0177 0D       		.uleb128 0xd
 750 0178 505200   		.ascii	"PR\000"
 751 017b 06       		.byte	0x6
 752 017c 0703     		.2byte	0x307
 753 017e B2000000 		.4byte	0xb2
 754 0182 14       		.byte	0x14
 755 0183 00       		.byte	0
 756 0184 0B       		.uleb128 0xb
 757 0185 84070000 		.4byte	.LASF27
 758 0189 06       		.byte	0x6
 759 018a 0803     		.2byte	0x308
 760 018c 2D010000 		.4byte	0x12d
 761 0190 0F       		.uleb128 0xf
 762 0191 01       		.byte	0x1
 763 0192 2C000000 		.4byte	0x2c
 764 0196 07       		.byte	0x7
 765 0197 33       		.byte	0x33
ARM GAS  /tmp/ccMycBjG.s 			page 19


 766 0198 A9010000 		.4byte	0x1a9
 767 019c 09       		.uleb128 0x9
 768 019d 98060000 		.4byte	.LASF28
 769 01a1 00       		.byte	0
 770 01a2 09       		.uleb128 0x9
 771 01a3 2C070000 		.4byte	.LASF29
 772 01a7 04       		.byte	0x4
 773 01a8 00       		.byte	0
 774 01a9 03       		.uleb128 0x3
 775 01aa 21020000 		.4byte	.LASF30
 776 01ae 07       		.byte	0x7
 777 01af 36       		.byte	0x36
 778 01b0 90010000 		.4byte	0x190
 779 01b4 0F       		.uleb128 0xf
 780 01b5 01       		.byte	0x1
 781 01b6 2C000000 		.4byte	0x2c
 782 01ba 07       		.byte	0x7
 783 01bb 3F       		.byte	0x3f
 784 01bc D3010000 		.4byte	0x1d3
 785 01c0 09       		.uleb128 0x9
 786 01c1 20060000 		.4byte	.LASF31
 787 01c5 08       		.byte	0x8
 788 01c6 09       		.uleb128 0x9
 789 01c7 D8030000 		.4byte	.LASF32
 790 01cb 0C       		.byte	0xc
 791 01cc 09       		.uleb128 0x9
 792 01cd 8B000000 		.4byte	.LASF33
 793 01d1 10       		.byte	0x10
 794 01d2 00       		.byte	0
 795 01d3 03       		.uleb128 0x3
 796 01d4 34060000 		.4byte	.LASF34
 797 01d8 07       		.byte	0x7
 798 01d9 43       		.byte	0x43
 799 01da B4010000 		.4byte	0x1b4
 800 01de 10       		.uleb128 0x10
 801 01df 08       		.byte	0x8
 802 01e0 07       		.byte	0x7
 803 01e1 4C       		.byte	0x4c
 804 01e2 17020000 		.4byte	0x217
 805 01e6 11       		.uleb128 0x11
 806 01e7 F6030000 		.4byte	.LASF35
 807 01eb 07       		.byte	0x7
 808 01ec 4E       		.byte	0x4e
 809 01ed A7000000 		.4byte	0xa7
 810 01f1 00       		.byte	0
 811 01f2 11       		.uleb128 0x11
 812 01f3 1E000000 		.4byte	.LASF36
 813 01f7 07       		.byte	0x7
 814 01f8 51       		.byte	0x51
 815 01f9 A9010000 		.4byte	0x1a9
 816 01fd 04       		.byte	0x4
 817 01fe 11       		.uleb128 0x11
 818 01ff 66040000 		.4byte	.LASF37
 819 0203 07       		.byte	0x7
 820 0204 54       		.byte	0x54
 821 0205 D3010000 		.4byte	0x1d3
 822 0209 05       		.byte	0x5
ARM GAS  /tmp/ccMycBjG.s 			page 20


 823 020a 11       		.uleb128 0x11
 824 020b 75000000 		.4byte	.LASF38
 825 020f 07       		.byte	0x7
 826 0210 57       		.byte	0x57
 827 0211 21010000 		.4byte	0x121
 828 0215 06       		.byte	0x6
 829 0216 00       		.byte	0
 830 0217 03       		.uleb128 0x3
 831 0218 06060000 		.4byte	.LASF39
 832 021c 07       		.byte	0x7
 833 021d 59       		.byte	0x59
 834 021e DE010000 		.4byte	0x1de
 835 0222 12       		.uleb128 0x12
 836 0223 13       		.uleb128 0x13
 837 0224 04       		.byte	0x4
 838 0225 22020000 		.4byte	0x222
 839 0229 14       		.uleb128 0x14
 840 022a 3E000000 		.4byte	0x3e
 841 022e 39020000 		.4byte	0x239
 842 0232 15       		.uleb128 0x15
 843 0233 B7000000 		.4byte	0xb7
 844 0237 02       		.byte	0x2
 845 0238 00       		.byte	0
 846 0239 06       		.uleb128 0x6
 847 023a 38010000 		.4byte	.LASF40
 848 023e 08       		.byte	0x8
 849 023f 6301     		.2byte	0x163
 850 0241 29020000 		.4byte	0x229
 851 0245 06       		.uleb128 0x6
 852 0246 A4070000 		.4byte	.LASF41
 853 024a 08       		.byte	0x8
 854 024b 6301     		.2byte	0x163
 855 024d 29020000 		.4byte	0x229
 856 0251 06       		.uleb128 0x6
 857 0252 8B010000 		.4byte	.LASF42
 858 0256 08       		.byte	0x8
 859 0257 6401     		.2byte	0x164
 860 0259 8C000000 		.4byte	0x8c
 861 025d 06       		.uleb128 0x6
 862 025e 00040000 		.4byte	.LASF43
 863 0262 08       		.byte	0x8
 864 0263 6401     		.2byte	0x164
 865 0265 8C000000 		.4byte	0x8c
 866 0269 06       		.uleb128 0x6
 867 026a 21040000 		.4byte	.LASF44
 868 026e 08       		.byte	0x8
 869 026f 6401     		.2byte	0x164
 870 0271 8C000000 		.4byte	0x8c
 871 0275 06       		.uleb128 0x6
 872 0276 C9010000 		.4byte	.LASF45
 873 027a 08       		.byte	0x8
 874 027b 6501     		.2byte	0x165
 875 027d 81020000 		.4byte	0x281
 876 0281 02       		.uleb128 0x2
 877 0282 04       		.byte	0x4
 878 0283 04       		.byte	0x4
 879 0284 78040000 		.4byte	.LASF46
ARM GAS  /tmp/ccMycBjG.s 			page 21


 880 0288 06       		.uleb128 0x6
 881 0289 88040000 		.4byte	.LASF47
 882 028d 08       		.byte	0x8
 883 028e 6601     		.2byte	0x166
 884 0290 81020000 		.4byte	0x281
 885 0294 06       		.uleb128 0x6
 886 0295 FB050000 		.4byte	.LASF48
 887 0299 08       		.byte	0x8
 888 029a 6601     		.2byte	0x166
 889 029c 81020000 		.4byte	0x281
 890 02a0 16       		.uleb128 0x16
 891 02a1 59617700 		.ascii	"Yaw\000"
 892 02a5 08       		.byte	0x8
 893 02a6 6601     		.2byte	0x166
 894 02a8 81020000 		.4byte	0x281
 895 02ac 02       		.uleb128 0x2
 896 02ad 08       		.byte	0x8
 897 02ae 04       		.byte	0x4
 898 02af A2050000 		.4byte	.LASF49
 899 02b3 03       		.uleb128 0x3
 900 02b4 8E040000 		.4byte	.LASF50
 901 02b8 09       		.byte	0x9
 902 02b9 07       		.byte	0x7
 903 02ba 7E000000 		.4byte	0x7e
 904 02be 03       		.uleb128 0x3
 905 02bf 6B010000 		.4byte	.LASF51
 906 02c3 0A       		.byte	0xa
 907 02c4 2C       		.byte	0x2c
 908 02c5 57000000 		.4byte	0x57
 909 02c9 03       		.uleb128 0x3
 910 02ca 9A050000 		.4byte	.LASF52
 911 02ce 0A       		.byte	0xa
 912 02cf 72       		.byte	0x72
 913 02d0 57000000 		.4byte	0x57
 914 02d4 0B       		.uleb128 0xb
 915 02d5 73050000 		.4byte	.LASF53
 916 02d9 0B       		.byte	0xb
 917 02da 6501     		.2byte	0x165
 918 02dc 85000000 		.4byte	0x85
 919 02e0 17       		.uleb128 0x17
 920 02e1 04       		.byte	0x4
 921 02e2 0A       		.byte	0xa
 922 02e3 A6       		.byte	0xa6
 923 02e4 FF020000 		.4byte	0x2ff
 924 02e8 18       		.uleb128 0x18
 925 02e9 B0030000 		.4byte	.LASF54
 926 02ed 0A       		.byte	0xa
 927 02ee A8       		.byte	0xa8
 928 02ef D4020000 		.4byte	0x2d4
 929 02f3 18       		.uleb128 0x18
 930 02f4 3D030000 		.4byte	.LASF55
 931 02f8 0A       		.byte	0xa
 932 02f9 A9       		.byte	0xa9
 933 02fa FF020000 		.4byte	0x2ff
 934 02fe 00       		.byte	0
 935 02ff 14       		.uleb128 0x14
 936 0300 2C000000 		.4byte	0x2c
ARM GAS  /tmp/ccMycBjG.s 			page 22


 937 0304 0F030000 		.4byte	0x30f
 938 0308 15       		.uleb128 0x15
 939 0309 B7000000 		.4byte	0xb7
 940 030d 03       		.byte	0x3
 941 030e 00       		.byte	0
 942 030f 10       		.uleb128 0x10
 943 0310 08       		.byte	0x8
 944 0311 0A       		.byte	0xa
 945 0312 A3       		.byte	0xa3
 946 0313 30030000 		.4byte	0x330
 947 0317 11       		.uleb128 0x11
 948 0318 7A050000 		.4byte	.LASF56
 949 031c 0A       		.byte	0xa
 950 031d A5       		.byte	0xa5
 951 031e 7E000000 		.4byte	0x7e
 952 0322 00       		.byte	0
 953 0323 11       		.uleb128 0x11
 954 0324 82050000 		.4byte	.LASF57
 955 0328 0A       		.byte	0xa
 956 0329 AA       		.byte	0xaa
 957 032a E0020000 		.4byte	0x2e0
 958 032e 04       		.byte	0x4
 959 032f 00       		.byte	0
 960 0330 03       		.uleb128 0x3
 961 0331 06050000 		.4byte	.LASF58
 962 0335 0A       		.byte	0xa
 963 0336 AB       		.byte	0xab
 964 0337 0F030000 		.4byte	0x30f
 965 033b 03       		.uleb128 0x3
 966 033c DD040000 		.4byte	.LASF59
 967 0340 0A       		.byte	0xa
 968 0341 AF       		.byte	0xaf
 969 0342 B3020000 		.4byte	0x2b3
 970 0346 19       		.uleb128 0x19
 971 0347 04       		.byte	0x4
 972 0348 13       		.uleb128 0x13
 973 0349 04       		.byte	0x4
 974 034a 4E030000 		.4byte	0x34e
 975 034e 02       		.uleb128 0x2
 976 034f 01       		.byte	0x1
 977 0350 08       		.byte	0x8
 978 0351 B5050000 		.4byte	.LASF60
 979 0355 1A       		.uleb128 0x1a
 980 0356 4E030000 		.4byte	0x34e
 981 035a 03       		.uleb128 0x3
 982 035b 4D060000 		.4byte	.LASF61
 983 035f 0C       		.byte	0xc
 984 0360 16       		.byte	0x16
 985 0361 69000000 		.4byte	0x69
 986 0365 1B       		.uleb128 0x1b
 987 0366 E6020000 		.4byte	.LASF66
 988 036a 18       		.byte	0x18
 989 036b 0C       		.byte	0xc
 990 036c 2D       		.byte	0x2d
 991 036d B8030000 		.4byte	0x3b8
 992 0371 11       		.uleb128 0x11
 993 0372 00060000 		.4byte	.LASF62
ARM GAS  /tmp/ccMycBjG.s 			page 23


 994 0376 0C       		.byte	0xc
 995 0377 2F       		.byte	0x2f
 996 0378 B8030000 		.4byte	0x3b8
 997 037c 00       		.byte	0
 998 037d 1C       		.uleb128 0x1c
 999 037e 5F6B00   		.ascii	"_k\000"
 1000 0381 0C       		.byte	0xc
 1001 0382 30       		.byte	0x30
 1002 0383 7E000000 		.4byte	0x7e
 1003 0387 04       		.byte	0x4
 1004 0388 11       		.uleb128 0x11
 1005 0389 5E050000 		.4byte	.LASF63
 1006 038d 0C       		.byte	0xc
 1007 038e 30       		.byte	0x30
 1008 038f 7E000000 		.4byte	0x7e
 1009 0393 08       		.byte	0x8
 1010 0394 11       		.uleb128 0x11
 1011 0395 CC020000 		.4byte	.LASF64
 1012 0399 0C       		.byte	0xc
 1013 039a 30       		.byte	0x30
 1014 039b 7E000000 		.4byte	0x7e
 1015 039f 0C       		.byte	0xc
 1016 03a0 11       		.uleb128 0x11
 1017 03a1 F7060000 		.4byte	.LASF65
 1018 03a5 0C       		.byte	0xc
 1019 03a6 30       		.byte	0x30
 1020 03a7 7E000000 		.4byte	0x7e
 1021 03ab 10       		.byte	0x10
 1022 03ac 1C       		.uleb128 0x1c
 1023 03ad 5F7800   		.ascii	"_x\000"
 1024 03b0 0C       		.byte	0xc
 1025 03b1 31       		.byte	0x31
 1026 03b2 BE030000 		.4byte	0x3be
 1027 03b6 14       		.byte	0x14
 1028 03b7 00       		.byte	0
 1029 03b8 13       		.uleb128 0x13
 1030 03b9 04       		.byte	0x4
 1031 03ba 65030000 		.4byte	0x365
 1032 03be 14       		.uleb128 0x14
 1033 03bf 5A030000 		.4byte	0x35a
 1034 03c3 CE030000 		.4byte	0x3ce
 1035 03c7 15       		.uleb128 0x15
 1036 03c8 B7000000 		.4byte	0xb7
 1037 03cc 00       		.byte	0
 1038 03cd 00       		.byte	0
 1039 03ce 1B       		.uleb128 0x1b
 1040 03cf 17030000 		.4byte	.LASF67
 1041 03d3 24       		.byte	0x24
 1042 03d4 0C       		.byte	0xc
 1043 03d5 35       		.byte	0x35
 1044 03d6 47040000 		.4byte	0x447
 1045 03da 11       		.uleb128 0x11
 1046 03db 5A010000 		.4byte	.LASF68
 1047 03df 0C       		.byte	0xc
 1048 03e0 37       		.byte	0x37
 1049 03e1 7E000000 		.4byte	0x7e
 1050 03e5 00       		.byte	0
ARM GAS  /tmp/ccMycBjG.s 			page 24


 1051 03e6 11       		.uleb128 0x11
 1052 03e7 6E070000 		.4byte	.LASF69
 1053 03eb 0C       		.byte	0xc
 1054 03ec 38       		.byte	0x38
 1055 03ed 7E000000 		.4byte	0x7e
 1056 03f1 04       		.byte	0x4
 1057 03f2 11       		.uleb128 0x11
 1058 03f3 9B010000 		.4byte	.LASF70
 1059 03f7 0C       		.byte	0xc
 1060 03f8 39       		.byte	0x39
 1061 03f9 7E000000 		.4byte	0x7e
 1062 03fd 08       		.byte	0x8
 1063 03fe 11       		.uleb128 0x11
 1064 03ff B3070000 		.4byte	.LASF71
 1065 0403 0C       		.byte	0xc
 1066 0404 3A       		.byte	0x3a
 1067 0405 7E000000 		.4byte	0x7e
 1068 0409 0C       		.byte	0xc
 1069 040a 11       		.uleb128 0x11
 1070 040b 3B040000 		.4byte	.LASF72
 1071 040f 0C       		.byte	0xc
 1072 0410 3B       		.byte	0x3b
 1073 0411 7E000000 		.4byte	0x7e
 1074 0415 10       		.byte	0x10
 1075 0416 11       		.uleb128 0x11
 1076 0417 CE030000 		.4byte	.LASF73
 1077 041b 0C       		.byte	0xc
 1078 041c 3C       		.byte	0x3c
 1079 041d 7E000000 		.4byte	0x7e
 1080 0421 14       		.byte	0x14
 1081 0422 11       		.uleb128 0x11
 1082 0423 90050000 		.4byte	.LASF74
 1083 0427 0C       		.byte	0xc
 1084 0428 3D       		.byte	0x3d
 1085 0429 7E000000 		.4byte	0x7e
 1086 042d 18       		.byte	0x18
 1087 042e 11       		.uleb128 0x11
 1088 042f E6040000 		.4byte	.LASF75
 1089 0433 0C       		.byte	0xc
 1090 0434 3E       		.byte	0x3e
 1091 0435 7E000000 		.4byte	0x7e
 1092 0439 1C       		.byte	0x1c
 1093 043a 11       		.uleb128 0x11
 1094 043b 54070000 		.4byte	.LASF76
 1095 043f 0C       		.byte	0xc
 1096 0440 3F       		.byte	0x3f
 1097 0441 7E000000 		.4byte	0x7e
 1098 0445 20       		.byte	0x20
 1099 0446 00       		.byte	0
 1100 0447 1D       		.uleb128 0x1d
 1101 0448 BB010000 		.4byte	.LASF77
 1102 044c 0801     		.2byte	0x108
 1103 044e 0C       		.byte	0xc
 1104 044f 48       		.byte	0x48
 1105 0450 87040000 		.4byte	0x487
 1106 0454 11       		.uleb128 0x11
 1107 0455 40000000 		.4byte	.LASF78
ARM GAS  /tmp/ccMycBjG.s 			page 25


 1108 0459 0C       		.byte	0xc
 1109 045a 49       		.byte	0x49
 1110 045b 87040000 		.4byte	0x487
 1111 045f 00       		.byte	0
 1112 0460 11       		.uleb128 0x11
 1113 0461 00000000 		.4byte	.LASF79
 1114 0465 0C       		.byte	0xc
 1115 0466 4A       		.byte	0x4a
 1116 0467 87040000 		.4byte	0x487
 1117 046b 80       		.byte	0x80
 1118 046c 1E       		.uleb128 0x1e
 1119 046d 17060000 		.4byte	.LASF80
 1120 0471 0C       		.byte	0xc
 1121 0472 4C       		.byte	0x4c
 1122 0473 5A030000 		.4byte	0x35a
 1123 0477 0001     		.2byte	0x100
 1124 0479 1E       		.uleb128 0x1e
 1125 047a 0C000000 		.4byte	.LASF81
 1126 047e 0C       		.byte	0xc
 1127 047f 4F       		.byte	0x4f
 1128 0480 5A030000 		.4byte	0x35a
 1129 0484 0401     		.2byte	0x104
 1130 0486 00       		.byte	0
 1131 0487 14       		.uleb128 0x14
 1132 0488 46030000 		.4byte	0x346
 1133 048c 97040000 		.4byte	0x497
 1134 0490 15       		.uleb128 0x15
 1135 0491 B7000000 		.4byte	0xb7
 1136 0495 1F       		.byte	0x1f
 1137 0496 00       		.byte	0
 1138 0497 1D       		.uleb128 0x1d
 1139 0498 44040000 		.4byte	.LASF82
 1140 049c 9001     		.2byte	0x190
 1141 049e 0C       		.byte	0xc
 1142 049f 5B       		.byte	0x5b
 1143 04a0 D5040000 		.4byte	0x4d5
 1144 04a4 11       		.uleb128 0x11
 1145 04a5 00060000 		.4byte	.LASF62
 1146 04a9 0C       		.byte	0xc
 1147 04aa 5C       		.byte	0x5c
 1148 04ab D5040000 		.4byte	0x4d5
 1149 04af 00       		.byte	0
 1150 04b0 11       		.uleb128 0x11
 1151 04b1 3F050000 		.4byte	.LASF83
 1152 04b5 0C       		.byte	0xc
 1153 04b6 5D       		.byte	0x5d
 1154 04b7 7E000000 		.4byte	0x7e
 1155 04bb 04       		.byte	0x4
 1156 04bc 11       		.uleb128 0x11
 1157 04bd BC020000 		.4byte	.LASF84
 1158 04c1 0C       		.byte	0xc
 1159 04c2 5F       		.byte	0x5f
 1160 04c3 DB040000 		.4byte	0x4db
 1161 04c7 08       		.byte	0x8
 1162 04c8 11       		.uleb128 0x11
 1163 04c9 BB010000 		.4byte	.LASF77
 1164 04cd 0C       		.byte	0xc
ARM GAS  /tmp/ccMycBjG.s 			page 26


 1165 04ce 60       		.byte	0x60
 1166 04cf 47040000 		.4byte	0x447
 1167 04d3 88       		.byte	0x88
 1168 04d4 00       		.byte	0
 1169 04d5 13       		.uleb128 0x13
 1170 04d6 04       		.byte	0x4
 1171 04d7 97040000 		.4byte	0x497
 1172 04db 14       		.uleb128 0x14
 1173 04dc 23020000 		.4byte	0x223
 1174 04e0 EB040000 		.4byte	0x4eb
 1175 04e4 15       		.uleb128 0x15
 1176 04e5 B7000000 		.4byte	0xb7
 1177 04e9 1F       		.byte	0x1f
 1178 04ea 00       		.byte	0
 1179 04eb 1B       		.uleb128 0x1b
 1180 04ec F0040000 		.4byte	.LASF85
 1181 04f0 08       		.byte	0x8
 1182 04f1 0C       		.byte	0xc
 1183 04f2 73       		.byte	0x73
 1184 04f3 10050000 		.4byte	0x510
 1185 04f7 11       		.uleb128 0x11
 1186 04f8 95010000 		.4byte	.LASF86
 1187 04fc 0C       		.byte	0xc
 1188 04fd 74       		.byte	0x74
 1189 04fe 10050000 		.4byte	0x510
 1190 0502 00       		.byte	0
 1191 0503 11       		.uleb128 0x11
 1192 0504 D1050000 		.4byte	.LASF87
 1193 0508 0C       		.byte	0xc
 1194 0509 75       		.byte	0x75
 1195 050a 7E000000 		.4byte	0x7e
 1196 050e 04       		.byte	0x4
 1197 050f 00       		.byte	0
 1198 0510 13       		.uleb128 0x13
 1199 0511 04       		.byte	0x4
 1200 0512 2C000000 		.4byte	0x2c
 1201 0516 1B       		.uleb128 0x1b
 1202 0517 11050000 		.4byte	.LASF88
 1203 051b 68       		.byte	0x68
 1204 051c 0C       		.byte	0xc
 1205 051d B3       		.byte	0xb3
 1206 051e 40060000 		.4byte	0x640
 1207 0522 1C       		.uleb128 0x1c
 1208 0523 5F7000   		.ascii	"_p\000"
 1209 0526 0C       		.byte	0xc
 1210 0527 B4       		.byte	0xb4
 1211 0528 10050000 		.4byte	0x510
 1212 052c 00       		.byte	0
 1213 052d 1C       		.uleb128 0x1c
 1214 052e 5F7200   		.ascii	"_r\000"
 1215 0531 0C       		.byte	0xc
 1216 0532 B5       		.byte	0xb5
 1217 0533 7E000000 		.4byte	0x7e
 1218 0537 04       		.byte	0x4
 1219 0538 1C       		.uleb128 0x1c
 1220 0539 5F7700   		.ascii	"_w\000"
 1221 053c 0C       		.byte	0xc
ARM GAS  /tmp/ccMycBjG.s 			page 27


 1222 053d B6       		.byte	0xb6
 1223 053e 7E000000 		.4byte	0x7e
 1224 0542 08       		.byte	0x8
 1225 0543 11       		.uleb128 0x11
 1226 0544 08070000 		.4byte	.LASF89
 1227 0548 0C       		.byte	0xc
 1228 0549 B7       		.byte	0xb7
 1229 054a 3E000000 		.4byte	0x3e
 1230 054e 0C       		.byte	0xc
 1231 054f 11       		.uleb128 0x11
 1232 0550 76030000 		.4byte	.LASF90
 1233 0554 0C       		.byte	0xc
 1234 0555 B8       		.byte	0xb8
 1235 0556 3E000000 		.4byte	0x3e
 1236 055a 0E       		.byte	0xe
 1237 055b 1C       		.uleb128 0x1c
 1238 055c 5F626600 		.ascii	"_bf\000"
 1239 0560 0C       		.byte	0xc
 1240 0561 B9       		.byte	0xb9
 1241 0562 EB040000 		.4byte	0x4eb
 1242 0566 10       		.byte	0x10
 1243 0567 11       		.uleb128 0x11
 1244 0568 F3000000 		.4byte	.LASF91
 1245 056c 0C       		.byte	0xc
 1246 056d BA       		.byte	0xba
 1247 056e 7E000000 		.4byte	0x7e
 1248 0572 18       		.byte	0x18
 1249 0573 11       		.uleb128 0x11
 1250 0574 D6010000 		.4byte	.LASF92
 1251 0578 0C       		.byte	0xc
 1252 0579 C1       		.byte	0xc1
 1253 057a 46030000 		.4byte	0x346
 1254 057e 1C       		.byte	0x1c
 1255 057f 11       		.uleb128 0x11
 1256 0580 08030000 		.4byte	.LASF93
 1257 0584 0C       		.byte	0xc
 1258 0585 C3       		.byte	0xc3
 1259 0586 9B070000 		.4byte	0x79b
 1260 058a 20       		.byte	0x20
 1261 058b 11       		.uleb128 0x11
 1262 058c C7030000 		.4byte	.LASF94
 1263 0590 0C       		.byte	0xc
 1264 0591 C5       		.byte	0xc5
 1265 0592 C5070000 		.4byte	0x7c5
 1266 0596 24       		.byte	0x24
 1267 0597 11       		.uleb128 0x11
 1268 0598 8A050000 		.4byte	.LASF95
 1269 059c 0C       		.byte	0xc
 1270 059d C8       		.byte	0xc8
 1271 059e E9070000 		.4byte	0x7e9
 1272 05a2 28       		.byte	0x28
 1273 05a3 11       		.uleb128 0x11
 1274 05a4 72010000 		.4byte	.LASF96
 1275 05a8 0C       		.byte	0xc
 1276 05a9 C9       		.byte	0xc9
 1277 05aa 03080000 		.4byte	0x803
 1278 05ae 2C       		.byte	0x2c
ARM GAS  /tmp/ccMycBjG.s 			page 28


 1279 05af 1C       		.uleb128 0x1c
 1280 05b0 5F756200 		.ascii	"_ub\000"
 1281 05b4 0C       		.byte	0xc
 1282 05b5 CC       		.byte	0xcc
 1283 05b6 EB040000 		.4byte	0x4eb
 1284 05ba 30       		.byte	0x30
 1285 05bb 1C       		.uleb128 0x1c
 1286 05bc 5F757000 		.ascii	"_up\000"
 1287 05c0 0C       		.byte	0xc
 1288 05c1 CD       		.byte	0xcd
 1289 05c2 10050000 		.4byte	0x510
 1290 05c6 38       		.byte	0x38
 1291 05c7 1C       		.uleb128 0x1c
 1292 05c8 5F757200 		.ascii	"_ur\000"
 1293 05cc 0C       		.byte	0xc
 1294 05cd CE       		.byte	0xce
 1295 05ce 7E000000 		.4byte	0x7e
 1296 05d2 3C       		.byte	0x3c
 1297 05d3 11       		.uleb128 0x11
 1298 05d4 85010000 		.4byte	.LASF97
 1299 05d8 0C       		.byte	0xc
 1300 05d9 D1       		.byte	0xd1
 1301 05da 09080000 		.4byte	0x809
 1302 05de 40       		.byte	0x40
 1303 05df 11       		.uleb128 0x11
 1304 05e0 46070000 		.4byte	.LASF98
 1305 05e4 0C       		.byte	0xc
 1306 05e5 D2       		.byte	0xd2
 1307 05e6 19080000 		.4byte	0x819
 1308 05ea 43       		.byte	0x43
 1309 05eb 1C       		.uleb128 0x1c
 1310 05ec 5F6C6200 		.ascii	"_lb\000"
 1311 05f0 0C       		.byte	0xc
 1312 05f1 D5       		.byte	0xd5
 1313 05f2 EB040000 		.4byte	0x4eb
 1314 05f6 44       		.byte	0x44
 1315 05f7 11       		.uleb128 0x11
 1316 05f8 BA050000 		.4byte	.LASF99
 1317 05fc 0C       		.byte	0xc
 1318 05fd D8       		.byte	0xd8
 1319 05fe 7E000000 		.4byte	0x7e
 1320 0602 4C       		.byte	0x4c
 1321 0603 11       		.uleb128 0x11
 1322 0604 75020000 		.4byte	.LASF100
 1323 0608 0C       		.byte	0xc
 1324 0609 D9       		.byte	0xd9
 1325 060a BE020000 		.4byte	0x2be
 1326 060e 50       		.byte	0x50
 1327 060f 11       		.uleb128 0x11
 1328 0610 7C030000 		.4byte	.LASF101
 1329 0614 0C       		.byte	0xc
 1330 0615 DC       		.byte	0xdc
 1331 0616 5E060000 		.4byte	0x65e
 1332 061a 54       		.byte	0x54
 1333 061b 11       		.uleb128 0x11
 1334 061c BB030000 		.4byte	.LASF102
 1335 0620 0C       		.byte	0xc
ARM GAS  /tmp/ccMycBjG.s 			page 29


 1336 0621 E0       		.byte	0xe0
 1337 0622 3B030000 		.4byte	0x33b
 1338 0626 58       		.byte	0x58
 1339 0627 11       		.uleb128 0x11
 1340 0628 19050000 		.4byte	.LASF103
 1341 062c 0C       		.byte	0xc
 1342 062d E2       		.byte	0xe2
 1343 062e 30030000 		.4byte	0x330
 1344 0632 5C       		.byte	0x5c
 1345 0633 11       		.uleb128 0x11
 1346 0634 F7040000 		.4byte	.LASF104
 1347 0638 0C       		.byte	0xc
 1348 0639 E3       		.byte	0xe3
 1349 063a 7E000000 		.4byte	0x7e
 1350 063e 64       		.byte	0x64
 1351 063f 00       		.byte	0
 1352 0640 1F       		.uleb128 0x1f
 1353 0641 7E000000 		.4byte	0x7e
 1354 0645 5E060000 		.4byte	0x65e
 1355 0649 20       		.uleb128 0x20
 1356 064a 5E060000 		.4byte	0x65e
 1357 064e 20       		.uleb128 0x20
 1358 064f 46030000 		.4byte	0x346
 1359 0653 20       		.uleb128 0x20
 1360 0654 48030000 		.4byte	0x348
 1361 0658 20       		.uleb128 0x20
 1362 0659 7E000000 		.4byte	0x7e
 1363 065d 00       		.byte	0
 1364 065e 13       		.uleb128 0x13
 1365 065f 04       		.byte	0x4
 1366 0660 69060000 		.4byte	0x669
 1367 0664 1A       		.uleb128 0x1a
 1368 0665 5E060000 		.4byte	0x65e
 1369 0669 21       		.uleb128 0x21
 1370 066a 66050000 		.4byte	.LASF105
 1371 066e 2804     		.2byte	0x428
 1372 0670 0C       		.byte	0xc
 1373 0671 3802     		.2byte	0x238
 1374 0673 9B070000 		.4byte	0x79b
 1375 0677 0E       		.uleb128 0xe
 1376 0678 AE050000 		.4byte	.LASF106
 1377 067c 0C       		.byte	0xc
 1378 067d 3A02     		.2byte	0x23a
 1379 067f 7E000000 		.4byte	0x7e
 1380 0683 00       		.byte	0
 1381 0684 0E       		.uleb128 0xe
 1382 0685 32020000 		.4byte	.LASF107
 1383 0689 0C       		.byte	0xc
 1384 068a 3F02     		.2byte	0x23f
 1385 068c 70080000 		.4byte	0x870
 1386 0690 04       		.byte	0x4
 1387 0691 0E       		.uleb128 0xe
 1388 0692 54030000 		.4byte	.LASF108
 1389 0696 0C       		.byte	0xc
 1390 0697 3F02     		.2byte	0x23f
 1391 0699 70080000 		.4byte	0x870
 1392 069d 08       		.byte	0x8
ARM GAS  /tmp/ccMycBjG.s 			page 30


 1393 069e 0E       		.uleb128 0xe
 1394 069f DE020000 		.4byte	.LASF109
 1395 06a3 0C       		.byte	0xc
 1396 06a4 3F02     		.2byte	0x23f
 1397 06a6 70080000 		.4byte	0x870
 1398 06aa 0C       		.byte	0xc
 1399 06ab 0E       		.uleb128 0xe
 1400 06ac 3A050000 		.4byte	.LASF110
 1401 06b0 0C       		.byte	0xc
 1402 06b1 4102     		.2byte	0x241
 1403 06b3 7E000000 		.4byte	0x7e
 1404 06b7 10       		.byte	0x10
 1405 06b8 0E       		.uleb128 0xe
 1406 06b9 6A000000 		.4byte	.LASF111
 1407 06bd 0C       		.byte	0xc
 1408 06be 4202     		.2byte	0x242
 1409 06c0 520A0000 		.4byte	0xa52
 1410 06c4 14       		.byte	0x14
 1411 06c5 0E       		.uleb128 0xe
 1412 06c6 86060000 		.4byte	.LASF112
 1413 06ca 0C       		.byte	0xc
 1414 06cb 4402     		.2byte	0x244
 1415 06cd 7E000000 		.4byte	0x7e
 1416 06d1 30       		.byte	0x30
 1417 06d2 0E       		.uleb128 0xe
 1418 06d3 44050000 		.4byte	.LASF113
 1419 06d7 0C       		.byte	0xc
 1420 06d8 4502     		.2byte	0x245
 1421 06da BF070000 		.4byte	0x7bf
 1422 06de 34       		.byte	0x34
 1423 06df 0E       		.uleb128 0xe
 1424 06e0 4C040000 		.4byte	.LASF114
 1425 06e4 0C       		.byte	0xc
 1426 06e5 4702     		.2byte	0x247
 1427 06e7 7E000000 		.4byte	0x7e
 1428 06eb 38       		.byte	0x38
 1429 06ec 0E       		.uleb128 0xe
 1430 06ed 54050000 		.4byte	.LASF115
 1431 06f1 0C       		.byte	0xc
 1432 06f2 4902     		.2byte	0x249
 1433 06f4 6D0A0000 		.4byte	0xa6d
 1434 06f8 3C       		.byte	0x3c
 1435 06f9 0E       		.uleb128 0xe
 1436 06fa A8030000 		.4byte	.LASF116
 1437 06fe 0C       		.byte	0xc
 1438 06ff 4C02     		.2byte	0x24c
 1439 0701 B8030000 		.4byte	0x3b8
 1440 0705 40       		.byte	0x40
 1441 0706 0E       		.uleb128 0xe
 1442 0707 47020000 		.4byte	.LASF117
 1443 070b 0C       		.byte	0xc
 1444 070c 4D02     		.2byte	0x24d
 1445 070e 7E000000 		.4byte	0x7e
 1446 0712 44       		.byte	0x44
 1447 0713 0E       		.uleb128 0xe
 1448 0714 9F070000 		.4byte	.LASF118
 1449 0718 0C       		.byte	0xc
ARM GAS  /tmp/ccMycBjG.s 			page 31


 1450 0719 4E02     		.2byte	0x24e
 1451 071b B8030000 		.4byte	0x3b8
 1452 071f 48       		.byte	0x48
 1453 0720 0E       		.uleb128 0xe
 1454 0721 7E040000 		.4byte	.LASF119
 1455 0725 0C       		.byte	0xc
 1456 0726 4F02     		.2byte	0x24f
 1457 0728 730A0000 		.4byte	0xa73
 1458 072c 4C       		.byte	0x4c
 1459 072d 0E       		.uleb128 0xe
 1460 072e 5C030000 		.4byte	.LASF120
 1461 0732 0C       		.byte	0xc
 1462 0733 5202     		.2byte	0x252
 1463 0735 7E000000 		.4byte	0x7e
 1464 0739 50       		.byte	0x50
 1465 073a 0E       		.uleb128 0xe
 1466 073b 6D020000 		.4byte	.LASF121
 1467 073f 0C       		.byte	0xc
 1468 0740 5302     		.2byte	0x253
 1469 0742 48030000 		.4byte	0x348
 1470 0746 54       		.byte	0x54
 1471 0747 0E       		.uleb128 0xe
 1472 0748 B6030000 		.4byte	.LASF122
 1473 074c 0C       		.byte	0xc
 1474 074d 7602     		.2byte	0x276
 1475 074f 300A0000 		.4byte	0xa30
 1476 0753 58       		.byte	0x58
 1477 0754 22       		.uleb128 0x22
 1478 0755 44040000 		.4byte	.LASF82
 1479 0759 0C       		.byte	0xc
 1480 075a 7A02     		.2byte	0x27a
 1481 075c D5040000 		.4byte	0x4d5
 1482 0760 4801     		.2byte	0x148
 1483 0762 22       		.uleb128 0x22
 1484 0763 82000000 		.4byte	.LASF123
 1485 0767 0C       		.byte	0xc
 1486 0768 7B02     		.2byte	0x27b
 1487 076a 97040000 		.4byte	0x497
 1488 076e 4C01     		.2byte	0x14c
 1489 0770 22       		.uleb128 0x22
 1490 0771 22070000 		.4byte	.LASF124
 1491 0775 0C       		.byte	0xc
 1492 0776 7F02     		.2byte	0x27f
 1493 0778 840A0000 		.4byte	0xa84
 1494 077c DC02     		.2byte	0x2dc
 1495 077e 22       		.uleb128 0x22
 1496 077f DE010000 		.4byte	.LASF125
 1497 0783 0C       		.byte	0xc
 1498 0784 8402     		.2byte	0x284
 1499 0786 35080000 		.4byte	0x835
 1500 078a E002     		.2byte	0x2e0
 1501 078c 22       		.uleb128 0x22
 1502 078d B6010000 		.4byte	.LASF126
 1503 0791 0C       		.byte	0xc
 1504 0792 8502     		.2byte	0x285
 1505 0794 900A0000 		.4byte	0xa90
 1506 0798 EC02     		.2byte	0x2ec
ARM GAS  /tmp/ccMycBjG.s 			page 32


 1507 079a 00       		.byte	0
 1508 079b 13       		.uleb128 0x13
 1509 079c 04       		.byte	0x4
 1510 079d 40060000 		.4byte	0x640
 1511 07a1 1F       		.uleb128 0x1f
 1512 07a2 7E000000 		.4byte	0x7e
 1513 07a6 BF070000 		.4byte	0x7bf
 1514 07aa 20       		.uleb128 0x20
 1515 07ab 5E060000 		.4byte	0x65e
 1516 07af 20       		.uleb128 0x20
 1517 07b0 46030000 		.4byte	0x346
 1518 07b4 20       		.uleb128 0x20
 1519 07b5 BF070000 		.4byte	0x7bf
 1520 07b9 20       		.uleb128 0x20
 1521 07ba 7E000000 		.4byte	0x7e
 1522 07be 00       		.byte	0
 1523 07bf 13       		.uleb128 0x13
 1524 07c0 04       		.byte	0x4
 1525 07c1 55030000 		.4byte	0x355
 1526 07c5 13       		.uleb128 0x13
 1527 07c6 04       		.byte	0x4
 1528 07c7 A1070000 		.4byte	0x7a1
 1529 07cb 1F       		.uleb128 0x1f
 1530 07cc C9020000 		.4byte	0x2c9
 1531 07d0 E9070000 		.4byte	0x7e9
 1532 07d4 20       		.uleb128 0x20
 1533 07d5 5E060000 		.4byte	0x65e
 1534 07d9 20       		.uleb128 0x20
 1535 07da 46030000 		.4byte	0x346
 1536 07de 20       		.uleb128 0x20
 1537 07df C9020000 		.4byte	0x2c9
 1538 07e3 20       		.uleb128 0x20
 1539 07e4 7E000000 		.4byte	0x7e
 1540 07e8 00       		.byte	0
 1541 07e9 13       		.uleb128 0x13
 1542 07ea 04       		.byte	0x4
 1543 07eb CB070000 		.4byte	0x7cb
 1544 07ef 1F       		.uleb128 0x1f
 1545 07f0 7E000000 		.4byte	0x7e
 1546 07f4 03080000 		.4byte	0x803
 1547 07f8 20       		.uleb128 0x20
 1548 07f9 5E060000 		.4byte	0x65e
 1549 07fd 20       		.uleb128 0x20
 1550 07fe 46030000 		.4byte	0x346
 1551 0802 00       		.byte	0
 1552 0803 13       		.uleb128 0x13
 1553 0804 04       		.byte	0x4
 1554 0805 EF070000 		.4byte	0x7ef
 1555 0809 14       		.uleb128 0x14
 1556 080a 2C000000 		.4byte	0x2c
 1557 080e 19080000 		.4byte	0x819
 1558 0812 15       		.uleb128 0x15
 1559 0813 B7000000 		.4byte	0xb7
 1560 0817 02       		.byte	0x2
 1561 0818 00       		.byte	0
 1562 0819 14       		.uleb128 0x14
 1563 081a 2C000000 		.4byte	0x2c
ARM GAS  /tmp/ccMycBjG.s 			page 33


 1564 081e 29080000 		.4byte	0x829
 1565 0822 15       		.uleb128 0x15
 1566 0823 B7000000 		.4byte	0xb7
 1567 0827 00       		.byte	0
 1568 0828 00       		.byte	0
 1569 0829 0B       		.uleb128 0xb
 1570 082a FF040000 		.4byte	.LASF127
 1571 082e 0C       		.byte	0xc
 1572 082f 1D01     		.2byte	0x11d
 1573 0831 16050000 		.4byte	0x516
 1574 0835 23       		.uleb128 0x23
 1575 0836 89030000 		.4byte	.LASF128
 1576 083a 0C       		.byte	0xc
 1577 083b 0C       		.byte	0xc
 1578 083c 2101     		.2byte	0x121
 1579 083e 6A080000 		.4byte	0x86a
 1580 0842 0E       		.uleb128 0xe
 1581 0843 00060000 		.4byte	.LASF62
 1582 0847 0C       		.byte	0xc
 1583 0848 2301     		.2byte	0x123
 1584 084a 6A080000 		.4byte	0x86a
 1585 084e 00       		.byte	0
 1586 084f 0E       		.uleb128 0xe
 1587 0850 82030000 		.4byte	.LASF129
 1588 0854 0C       		.byte	0xc
 1589 0855 2401     		.2byte	0x124
 1590 0857 7E000000 		.4byte	0x7e
 1591 085b 04       		.byte	0x4
 1592 085c 0E       		.uleb128 0xe
 1593 085d BC040000 		.4byte	.LASF130
 1594 0861 0C       		.byte	0xc
 1595 0862 2501     		.2byte	0x125
 1596 0864 70080000 		.4byte	0x870
 1597 0868 08       		.byte	0x8
 1598 0869 00       		.byte	0
 1599 086a 13       		.uleb128 0x13
 1600 086b 04       		.byte	0x4
 1601 086c 35080000 		.4byte	0x835
 1602 0870 13       		.uleb128 0x13
 1603 0871 04       		.byte	0x4
 1604 0872 29080000 		.4byte	0x829
 1605 0876 23       		.uleb128 0x23
 1606 0877 48000000 		.4byte	.LASF131
 1607 087b 0E       		.byte	0xe
 1608 087c 0C       		.byte	0xc
 1609 087d 3D01     		.2byte	0x13d
 1610 087f AB080000 		.4byte	0x8ab
 1611 0883 0E       		.uleb128 0xe
 1612 0884 6D050000 		.4byte	.LASF132
 1613 0888 0C       		.byte	0xc
 1614 0889 3E01     		.2byte	0x13e
 1615 088b AB080000 		.4byte	0x8ab
 1616 088f 00       		.byte	0
 1617 0890 0E       		.uleb128 0xe
 1618 0891 C1030000 		.4byte	.LASF133
 1619 0895 0C       		.byte	0xc
 1620 0896 3F01     		.2byte	0x13f
ARM GAS  /tmp/ccMycBjG.s 			page 34


 1621 0898 AB080000 		.4byte	0x8ab
 1622 089c 06       		.byte	0x6
 1623 089d 0E       		.uleb128 0xe
 1624 089e 48060000 		.4byte	.LASF134
 1625 08a2 0C       		.byte	0xc
 1626 08a3 4001     		.2byte	0x140
 1627 08a5 45000000 		.4byte	0x45
 1628 08a9 0C       		.byte	0xc
 1629 08aa 00       		.byte	0
 1630 08ab 14       		.uleb128 0x14
 1631 08ac 45000000 		.4byte	0x45
 1632 08b0 BB080000 		.4byte	0x8bb
 1633 08b4 15       		.uleb128 0x15
 1634 08b5 B7000000 		.4byte	0xb7
 1635 08b9 02       		.byte	0x2
 1636 08ba 00       		.byte	0
 1637 08bb 0C       		.uleb128 0xc
 1638 08bc D0       		.byte	0xd0
 1639 08bd 0C       		.byte	0xc
 1640 08be 5702     		.2byte	0x257
 1641 08c0 BC090000 		.4byte	0x9bc
 1642 08c4 0E       		.uleb128 0xe
 1643 08c5 AC060000 		.4byte	.LASF135
 1644 08c9 0C       		.byte	0xc
 1645 08ca 5902     		.2byte	0x259
 1646 08cc 85000000 		.4byte	0x85
 1647 08d0 00       		.byte	0
 1648 08d1 0E       		.uleb128 0xe
 1649 08d2 8E020000 		.4byte	.LASF136
 1650 08d6 0C       		.byte	0xc
 1651 08d7 5A02     		.2byte	0x25a
 1652 08d9 48030000 		.4byte	0x348
 1653 08dd 04       		.byte	0x4
 1654 08de 0E       		.uleb128 0xe
 1655 08df 9B030000 		.4byte	.LASF137
 1656 08e3 0C       		.byte	0xc
 1657 08e4 5B02     		.2byte	0x25b
 1658 08e6 BC090000 		.4byte	0x9bc
 1659 08ea 08       		.byte	0x8
 1660 08eb 0E       		.uleb128 0xe
 1661 08ec 5F070000 		.4byte	.LASF138
 1662 08f0 0C       		.byte	0xc
 1663 08f1 5C02     		.2byte	0x25c
 1664 08f3 CE030000 		.4byte	0x3ce
 1665 08f7 24       		.byte	0x24
 1666 08f8 0E       		.uleb128 0xe
 1667 08f9 57040000 		.4byte	.LASF139
 1668 08fd 0C       		.byte	0xc
 1669 08fe 5D02     		.2byte	0x25d
 1670 0900 7E000000 		.4byte	0x7e
 1671 0904 48       		.byte	0x48
 1672 0905 0E       		.uleb128 0xe
 1673 0906 22050000 		.4byte	.LASF140
 1674 090a 0C       		.byte	0xc
 1675 090b 5E02     		.2byte	0x25e
 1676 090d 77000000 		.4byte	0x77
 1677 0911 50       		.byte	0x50
ARM GAS  /tmp/ccMycBjG.s 			page 35


 1678 0912 0E       		.uleb128 0xe
 1679 0913 77070000 		.4byte	.LASF141
 1680 0917 0C       		.byte	0xc
 1681 0918 5F02     		.2byte	0x25f
 1682 091a 76080000 		.4byte	0x876
 1683 091e 58       		.byte	0x58
 1684 091f 0E       		.uleb128 0xe
 1685 0920 2D050000 		.4byte	.LASF142
 1686 0924 0C       		.byte	0xc
 1687 0925 6002     		.2byte	0x260
 1688 0927 30030000 		.4byte	0x330
 1689 092b 68       		.byte	0x68
 1690 092c 0E       		.uleb128 0xe
 1691 092d 91070000 		.4byte	.LASF143
 1692 0931 0C       		.byte	0xc
 1693 0932 6102     		.2byte	0x261
 1694 0934 30030000 		.4byte	0x330
 1695 0938 70       		.byte	0x70
 1696 0939 0E       		.uleb128 0xe
 1697 093a 4C010000 		.4byte	.LASF144
 1698 093e 0C       		.byte	0xc
 1699 093f 6202     		.2byte	0x262
 1700 0941 30030000 		.4byte	0x330
 1701 0945 78       		.byte	0x78
 1702 0946 0E       		.uleb128 0xe
 1703 0947 18070000 		.4byte	.LASF145
 1704 094b 0C       		.byte	0xc
 1705 094c 6302     		.2byte	0x263
 1706 094e CC090000 		.4byte	0x9cc
 1707 0952 80       		.byte	0x80
 1708 0953 0E       		.uleb128 0xe
 1709 0954 8F030000 		.4byte	.LASF146
 1710 0958 0C       		.byte	0xc
 1711 0959 6402     		.2byte	0x264
 1712 095b DC090000 		.4byte	0x9dc
 1713 095f 88       		.byte	0x88
 1714 0960 0E       		.uleb128 0xe
 1715 0961 55060000 		.4byte	.LASF147
 1716 0965 0C       		.byte	0xc
 1717 0966 6502     		.2byte	0x265
 1718 0968 7E000000 		.4byte	0x7e
 1719 096c A0       		.byte	0xa0
 1720 096d 0E       		.uleb128 0xe
 1721 096e 9B020000 		.4byte	.LASF148
 1722 0972 0C       		.byte	0xc
 1723 0973 6602     		.2byte	0x266
 1724 0975 30030000 		.4byte	0x330
 1725 0979 A4       		.byte	0xa4
 1726 097a 0E       		.uleb128 0xe
 1727 097b 3D010000 		.4byte	.LASF149
 1728 097f 0C       		.byte	0xc
 1729 0980 6702     		.2byte	0x267
 1730 0982 30030000 		.4byte	0x330
 1731 0986 AC       		.byte	0xac
 1732 0987 0E       		.uleb128 0xe
 1733 0988 7D020000 		.4byte	.LASF150
 1734 098c 0C       		.byte	0xc
ARM GAS  /tmp/ccMycBjG.s 			page 36


 1735 098d 6802     		.2byte	0x268
 1736 098f 30030000 		.4byte	0x330
 1737 0993 B4       		.byte	0xb4
 1738 0994 0E       		.uleb128 0xe
 1739 0995 AD000000 		.4byte	.LASF151
 1740 0999 0C       		.byte	0xc
 1741 099a 6902     		.2byte	0x269
 1742 099c 30030000 		.4byte	0x330
 1743 09a0 BC       		.byte	0xbc
 1744 09a1 0E       		.uleb128 0xe
 1745 09a2 BC000000 		.4byte	.LASF152
 1746 09a6 0C       		.byte	0xc
 1747 09a7 6A02     		.2byte	0x26a
 1748 09a9 30030000 		.4byte	0x330
 1749 09ad C4       		.byte	0xc4
 1750 09ae 0E       		.uleb128 0xe
 1751 09af D4040000 		.4byte	.LASF153
 1752 09b3 0C       		.byte	0xc
 1753 09b4 6B02     		.2byte	0x26b
 1754 09b6 7E000000 		.4byte	0x7e
 1755 09ba CC       		.byte	0xcc
 1756 09bb 00       		.byte	0
 1757 09bc 14       		.uleb128 0x14
 1758 09bd 4E030000 		.4byte	0x34e
 1759 09c1 CC090000 		.4byte	0x9cc
 1760 09c5 15       		.uleb128 0x15
 1761 09c6 B7000000 		.4byte	0xb7
 1762 09ca 19       		.byte	0x19
 1763 09cb 00       		.byte	0
 1764 09cc 14       		.uleb128 0x14
 1765 09cd 4E030000 		.4byte	0x34e
 1766 09d1 DC090000 		.4byte	0x9dc
 1767 09d5 15       		.uleb128 0x15
 1768 09d6 B7000000 		.4byte	0xb7
 1769 09da 07       		.byte	0x7
 1770 09db 00       		.byte	0
 1771 09dc 14       		.uleb128 0x14
 1772 09dd 4E030000 		.4byte	0x34e
 1773 09e1 EC090000 		.4byte	0x9ec
 1774 09e5 15       		.uleb128 0x15
 1775 09e6 B7000000 		.4byte	0xb7
 1776 09ea 17       		.byte	0x17
 1777 09eb 00       		.byte	0
 1778 09ec 0C       		.uleb128 0xc
 1779 09ed F0       		.byte	0xf0
 1780 09ee 0C       		.byte	0xc
 1781 09ef 7002     		.2byte	0x270
 1782 09f1 100A0000 		.4byte	0xa10
 1783 09f5 0E       		.uleb128 0xe
 1784 09f6 0A040000 		.4byte	.LASF154
 1785 09fa 0C       		.byte	0xc
 1786 09fb 7302     		.2byte	0x273
 1787 09fd 100A0000 		.4byte	0xa10
 1788 0a01 00       		.byte	0
 1789 0a02 0E       		.uleb128 0xe
 1790 0a03 0F070000 		.4byte	.LASF155
 1791 0a07 0C       		.byte	0xc
ARM GAS  /tmp/ccMycBjG.s 			page 37


 1792 0a08 7402     		.2byte	0x274
 1793 0a0a 200A0000 		.4byte	0xa20
 1794 0a0e 78       		.byte	0x78
 1795 0a0f 00       		.byte	0
 1796 0a10 14       		.uleb128 0x14
 1797 0a11 10050000 		.4byte	0x510
 1798 0a15 200A0000 		.4byte	0xa20
 1799 0a19 15       		.uleb128 0x15
 1800 0a1a B7000000 		.4byte	0xb7
 1801 0a1e 1D       		.byte	0x1d
 1802 0a1f 00       		.byte	0
 1803 0a20 14       		.uleb128 0x14
 1804 0a21 85000000 		.4byte	0x85
 1805 0a25 300A0000 		.4byte	0xa30
 1806 0a29 15       		.uleb128 0x15
 1807 0a2a B7000000 		.4byte	0xb7
 1808 0a2e 1D       		.byte	0x1d
 1809 0a2f 00       		.byte	0
 1810 0a30 24       		.uleb128 0x24
 1811 0a31 F0       		.byte	0xf0
 1812 0a32 0C       		.byte	0xc
 1813 0a33 5502     		.2byte	0x255
 1814 0a35 520A0000 		.4byte	0xa52
 1815 0a39 25       		.uleb128 0x25
 1816 0a3a 66050000 		.4byte	.LASF105
 1817 0a3e 0C       		.byte	0xc
 1818 0a3f 6C02     		.2byte	0x26c
 1819 0a41 BB080000 		.4byte	0x8bb
 1820 0a45 25       		.uleb128 0x25
 1821 0a46 4C070000 		.4byte	.LASF156
 1822 0a4a 0C       		.byte	0xc
 1823 0a4b 7502     		.2byte	0x275
 1824 0a4d EC090000 		.4byte	0x9ec
 1825 0a51 00       		.byte	0
 1826 0a52 14       		.uleb128 0x14
 1827 0a53 4E030000 		.4byte	0x34e
 1828 0a57 620A0000 		.4byte	0xa62
 1829 0a5b 15       		.uleb128 0x15
 1830 0a5c B7000000 		.4byte	0xb7
 1831 0a60 18       		.byte	0x18
 1832 0a61 00       		.byte	0
 1833 0a62 26       		.uleb128 0x26
 1834 0a63 6D0A0000 		.4byte	0xa6d
 1835 0a67 20       		.uleb128 0x20
 1836 0a68 5E060000 		.4byte	0x65e
 1837 0a6c 00       		.byte	0
 1838 0a6d 13       		.uleb128 0x13
 1839 0a6e 04       		.byte	0x4
 1840 0a6f 620A0000 		.4byte	0xa62
 1841 0a73 13       		.uleb128 0x13
 1842 0a74 04       		.byte	0x4
 1843 0a75 B8030000 		.4byte	0x3b8
 1844 0a79 26       		.uleb128 0x26
 1845 0a7a 840A0000 		.4byte	0xa84
 1846 0a7e 20       		.uleb128 0x20
 1847 0a7f 7E000000 		.4byte	0x7e
 1848 0a83 00       		.byte	0
ARM GAS  /tmp/ccMycBjG.s 			page 38


 1849 0a84 13       		.uleb128 0x13
 1850 0a85 04       		.byte	0x4
 1851 0a86 8A0A0000 		.4byte	0xa8a
 1852 0a8a 13       		.uleb128 0x13
 1853 0a8b 04       		.byte	0x4
 1854 0a8c 790A0000 		.4byte	0xa79
 1855 0a90 14       		.uleb128 0x14
 1856 0a91 29080000 		.4byte	0x829
 1857 0a95 A00A0000 		.4byte	0xaa0
 1858 0a99 15       		.uleb128 0x15
 1859 0a9a B7000000 		.4byte	0xb7
 1860 0a9e 02       		.byte	0x2
 1861 0a9f 00       		.byte	0
 1862 0aa0 06       		.uleb128 0x6
 1863 0aa1 D2020000 		.4byte	.LASF157
 1864 0aa5 0C       		.byte	0xc
 1865 0aa6 FD02     		.2byte	0x2fd
 1866 0aa8 5E060000 		.4byte	0x65e
 1867 0aac 06       		.uleb128 0x6
 1868 0aad 73060000 		.4byte	.LASF158
 1869 0ab1 0C       		.byte	0xc
 1870 0ab2 FE02     		.2byte	0x2fe
 1871 0ab4 64060000 		.4byte	0x664
 1872 0ab8 02       		.uleb128 0x2
 1873 0ab9 08       		.byte	0x8
 1874 0aba 04       		.byte	0x4
 1875 0abb 66020000 		.4byte	.LASF159
 1876 0abf 27       		.uleb128 0x27
 1877 0ac0 62060000 		.4byte	.LASF178
 1878 0ac4 01       		.byte	0x1
 1879 0ac5 25000000 		.4byte	0x25
 1880 0ac9 0D       		.byte	0xd
 1881 0aca 9902     		.2byte	0x299
 1882 0acc E90A0000 		.4byte	0xae9
 1883 0ad0 28       		.uleb128 0x28
 1884 0ad1 C3050000 		.4byte	.LASF160
 1885 0ad5 7F       		.sleb128 -1
 1886 0ad6 09       		.uleb128 0x9
 1887 0ad7 39020000 		.4byte	.LASF161
 1888 0adb 00       		.byte	0
 1889 0adc 09       		.uleb128 0x9
 1890 0add 5B000000 		.4byte	.LASF162
 1891 0ae1 01       		.byte	0x1
 1892 0ae2 09       		.uleb128 0x9
 1893 0ae3 E4000000 		.4byte	.LASF163
 1894 0ae7 02       		.byte	0x2
 1895 0ae8 00       		.byte	0
 1896 0ae9 06       		.uleb128 0x6
 1897 0aea 28010000 		.4byte	.LASF164
 1898 0aee 0D       		.byte	0xd
 1899 0aef A402     		.2byte	0x2a4
 1900 0af1 BF0A0000 		.4byte	0xabf
 1901 0af5 29       		.uleb128 0x29
 1902 0af6 1C030000 		.4byte	.LASF167
 1903 0afa 01       		.byte	0x1
 1904 0afb FA       		.byte	0xfa
 1905 0afc FC010000 		.4byte	.LFB70
ARM GAS  /tmp/ccMycBjG.s 			page 39


 1906 0b00 1C000000 		.4byte	.LFE70-.LFB70
 1907 0b04 01       		.uleb128 0x1
 1908 0b05 9C       		.byte	0x9c
 1909 0b06 190B0000 		.4byte	0xb19
 1910 0b0a 2A       		.uleb128 0x2a
 1911 0b0b F6030000 		.4byte	.LASF35
 1912 0b0f 01       		.byte	0x1
 1913 0b10 FA       		.byte	0xfa
 1914 0b11 A7000000 		.4byte	0xa7
 1915 0b15 02       		.uleb128 0x2
 1916 0b16 91       		.byte	0x91
 1917 0b17 74       		.sleb128 -12
 1918 0b18 00       		.byte	0
 1919 0b19 2B       		.uleb128 0x2b
 1920 0b1a A5010000 		.4byte	.LASF169
 1921 0b1e 01       		.byte	0x1
 1922 0b1f E1       		.byte	0xe1
 1923 0b20 FB000000 		.4byte	0xfb
 1924 0b24 B4010000 		.4byte	.LFB69
 1925 0b28 48000000 		.4byte	.LFE69-.LFB69
 1926 0b2c 01       		.uleb128 0x1
 1927 0b2d 9C       		.byte	0x9c
 1928 0b2e 5D0B0000 		.4byte	0xb5d
 1929 0b32 2A       		.uleb128 0x2a
 1930 0b33 F6030000 		.4byte	.LASF35
 1931 0b37 01       		.byte	0x1
 1932 0b38 E1       		.byte	0xe1
 1933 0b39 A7000000 		.4byte	0xa7
 1934 0b3d 02       		.uleb128 0x2
 1935 0b3e 91       		.byte	0x91
 1936 0b3f 6C       		.sleb128 -20
 1937 0b40 2C       		.uleb128 0x2c
 1938 0b41 EE020000 		.4byte	.LASF165
 1939 0b45 01       		.byte	0x1
 1940 0b46 E3       		.byte	0xe3
 1941 0b47 FB000000 		.4byte	0xfb
 1942 0b4b 02       		.uleb128 0x2
 1943 0b4c 91       		.byte	0x91
 1944 0b4d 77       		.sleb128 -9
 1945 0b4e 2C       		.uleb128 0x2c
 1946 0b4f E4050000 		.4byte	.LASF166
 1947 0b53 01       		.byte	0x1
 1948 0b54 E4       		.byte	0xe4
 1949 0b55 A7000000 		.4byte	0xa7
 1950 0b59 02       		.uleb128 0x2
 1951 0b5a 91       		.byte	0x91
 1952 0b5b 70       		.sleb128 -16
 1953 0b5c 00       		.byte	0
 1954 0b5d 29       		.uleb128 0x29
 1955 0b5e BD070000 		.4byte	.LASF168
 1956 0b62 01       		.byte	0x1
 1957 0b63 D2       		.byte	0xd2
 1958 0b64 98010000 		.4byte	.LFB68
 1959 0b68 1C000000 		.4byte	.LFE68-.LFB68
 1960 0b6c 01       		.uleb128 0x1
 1961 0b6d 9C       		.byte	0x9c
 1962 0b6e 810B0000 		.4byte	0xb81
ARM GAS  /tmp/ccMycBjG.s 			page 40


 1963 0b72 2A       		.uleb128 0x2a
 1964 0b73 F6030000 		.4byte	.LASF35
 1965 0b77 01       		.byte	0x1
 1966 0b78 D2       		.byte	0xd2
 1967 0b79 A7000000 		.4byte	0xa7
 1968 0b7d 02       		.uleb128 0x2
 1969 0b7e 91       		.byte	0x91
 1970 0b7f 74       		.sleb128 -12
 1971 0b80 00       		.byte	0
 1972 0b81 2B       		.uleb128 0x2b
 1973 0b82 FC000000 		.4byte	.LASF170
 1974 0b86 01       		.byte	0x1
 1975 0b87 BB       		.byte	0xbb
 1976 0b88 EF000000 		.4byte	0xef
 1977 0b8c 64010000 		.4byte	.LFB67
 1978 0b90 34000000 		.4byte	.LFE67-.LFB67
 1979 0b94 01       		.uleb128 0x1
 1980 0b95 9C       		.byte	0x9c
 1981 0b96 B70B0000 		.4byte	0xbb7
 1982 0b9a 2A       		.uleb128 0x2a
 1983 0b9b F6030000 		.4byte	.LASF35
 1984 0b9f 01       		.byte	0x1
 1985 0ba0 BB       		.byte	0xbb
 1986 0ba1 A7000000 		.4byte	0xa7
 1987 0ba5 02       		.uleb128 0x2
 1988 0ba6 91       		.byte	0x91
 1989 0ba7 6C       		.sleb128 -20
 1990 0ba8 2C       		.uleb128 0x2c
 1991 0ba9 EE020000 		.4byte	.LASF165
 1992 0bad 01       		.byte	0x1
 1993 0bae BD       		.byte	0xbd
 1994 0baf EF000000 		.4byte	0xef
 1995 0bb3 02       		.uleb128 0x2
 1996 0bb4 91       		.byte	0x91
 1997 0bb5 77       		.sleb128 -9
 1998 0bb6 00       		.byte	0
 1999 0bb7 29       		.uleb128 0x29
 2000 0bb8 0F010000 		.4byte	.LASF171
 2001 0bbc 01       		.byte	0x1
 2002 0bbd AC       		.byte	0xac
 2003 0bbe 42010000 		.4byte	.LFB66
 2004 0bc2 22000000 		.4byte	.LFE66-.LFB66
 2005 0bc6 01       		.uleb128 0x1
 2006 0bc7 9C       		.byte	0x9c
 2007 0bc8 DB0B0000 		.4byte	0xbdb
 2008 0bcc 2A       		.uleb128 0x2a
 2009 0bcd F6030000 		.4byte	.LASF35
 2010 0bd1 01       		.byte	0x1
 2011 0bd2 AC       		.byte	0xac
 2012 0bd3 A7000000 		.4byte	0xa7
 2013 0bd7 02       		.uleb128 0x2
 2014 0bd8 91       		.byte	0x91
 2015 0bd9 74       		.sleb128 -12
 2016 0bda 00       		.byte	0
 2017 0bdb 29       		.uleb128 0x29
 2018 0bdc F8020000 		.4byte	.LASF172
 2019 0be0 01       		.byte	0x1
ARM GAS  /tmp/ccMycBjG.s 			page 41


 2020 0be1 9E       		.byte	0x9e
 2021 0be2 18010000 		.4byte	.LFB65
 2022 0be6 2A000000 		.4byte	.LFE65-.LFB65
 2023 0bea 01       		.uleb128 0x1
 2024 0beb 9C       		.byte	0x9c
 2025 0bec FF0B0000 		.4byte	0xbff
 2026 0bf0 2A       		.uleb128 0x2a
 2027 0bf1 11040000 		.4byte	.LASF173
 2028 0bf5 01       		.byte	0x1
 2029 0bf6 9E       		.byte	0x9e
 2030 0bf7 FF0B0000 		.4byte	0xbff
 2031 0bfb 02       		.uleb128 0x2
 2032 0bfc 91       		.byte	0x91
 2033 0bfd 74       		.sleb128 -12
 2034 0bfe 00       		.byte	0
 2035 0bff 13       		.uleb128 0x13
 2036 0c00 04       		.byte	0x4
 2037 0c01 17020000 		.4byte	0x217
 2038 0c05 29       		.uleb128 0x29
 2039 0c06 33030000 		.4byte	.LASF174
 2040 0c0a 01       		.byte	0x1
 2041 0c0b 66       		.byte	0x66
 2042 0c0c 34000000 		.4byte	.LFB64
 2043 0c10 E4000000 		.4byte	.LFE64-.LFB64
 2044 0c14 01       		.uleb128 0x1
 2045 0c15 9C       		.byte	0x9c
 2046 0c16 370C0000 		.4byte	0xc37
 2047 0c1a 2A       		.uleb128 0x2a
 2048 0c1b 11040000 		.4byte	.LASF173
 2049 0c1f 01       		.byte	0x1
 2050 0c20 66       		.byte	0x66
 2051 0c21 FF0B0000 		.4byte	0xbff
 2052 0c25 02       		.uleb128 0x2
 2053 0c26 91       		.byte	0x91
 2054 0c27 6C       		.sleb128 -20
 2055 0c28 2D       		.uleb128 0x2d
 2056 0c29 746D7000 		.ascii	"tmp\000"
 2057 0c2d 01       		.byte	0x1
 2058 0c2e 68       		.byte	0x68
 2059 0c2f A7000000 		.4byte	0xa7
 2060 0c33 02       		.uleb128 0x2
 2061 0c34 91       		.byte	0x91
 2062 0c35 74       		.sleb128 -12
 2063 0c36 00       		.byte	0
 2064 0c37 2E       		.uleb128 0x2e
 2065 0c38 FC060000 		.4byte	.LASF179
 2066 0c3c 01       		.byte	0x1
 2067 0c3d 56       		.byte	0x56
 2068 0c3e 00000000 		.4byte	.LFB63
 2069 0c42 34000000 		.4byte	.LFE63-.LFB63
 2070 0c46 01       		.uleb128 0x1
 2071 0c47 9C       		.byte	0x9c
 2072 0c48 00       		.byte	0
 2073              		.section	.debug_abbrev,"",%progbits
 2074              	.Ldebug_abbrev0:
 2075 0000 01       		.uleb128 0x1
 2076 0001 11       		.uleb128 0x11
ARM GAS  /tmp/ccMycBjG.s 			page 42


 2077 0002 01       		.byte	0x1
 2078 0003 25       		.uleb128 0x25
 2079 0004 0E       		.uleb128 0xe
 2080 0005 13       		.uleb128 0x13
 2081 0006 0B       		.uleb128 0xb
 2082 0007 03       		.uleb128 0x3
 2083 0008 0E       		.uleb128 0xe
 2084 0009 1B       		.uleb128 0x1b
 2085 000a 0E       		.uleb128 0xe
 2086 000b 11       		.uleb128 0x11
 2087 000c 01       		.uleb128 0x1
 2088 000d 12       		.uleb128 0x12
 2089 000e 06       		.uleb128 0x6
 2090 000f 10       		.uleb128 0x10
 2091 0010 17       		.uleb128 0x17
 2092 0011 00       		.byte	0
 2093 0012 00       		.byte	0
 2094 0013 02       		.uleb128 0x2
 2095 0014 24       		.uleb128 0x24
 2096 0015 00       		.byte	0
 2097 0016 0B       		.uleb128 0xb
 2098 0017 0B       		.uleb128 0xb
 2099 0018 3E       		.uleb128 0x3e
 2100 0019 0B       		.uleb128 0xb
 2101 001a 03       		.uleb128 0x3
 2102 001b 0E       		.uleb128 0xe
 2103 001c 00       		.byte	0
 2104 001d 00       		.byte	0
 2105 001e 03       		.uleb128 0x3
 2106 001f 16       		.uleb128 0x16
 2107 0020 00       		.byte	0
 2108 0021 03       		.uleb128 0x3
 2109 0022 0E       		.uleb128 0xe
 2110 0023 3A       		.uleb128 0x3a
 2111 0024 0B       		.uleb128 0xb
 2112 0025 3B       		.uleb128 0x3b
 2113 0026 0B       		.uleb128 0xb
 2114 0027 49       		.uleb128 0x49
 2115 0028 13       		.uleb128 0x13
 2116 0029 00       		.byte	0
 2117 002a 00       		.byte	0
 2118 002b 04       		.uleb128 0x4
 2119 002c 24       		.uleb128 0x24
 2120 002d 00       		.byte	0
 2121 002e 0B       		.uleb128 0xb
 2122 002f 0B       		.uleb128 0xb
 2123 0030 3E       		.uleb128 0x3e
 2124 0031 0B       		.uleb128 0xb
 2125 0032 03       		.uleb128 0x3
 2126 0033 08       		.uleb128 0x8
 2127 0034 00       		.byte	0
 2128 0035 00       		.byte	0
 2129 0036 05       		.uleb128 0x5
 2130 0037 35       		.uleb128 0x35
 2131 0038 00       		.byte	0
 2132 0039 49       		.uleb128 0x49
 2133 003a 13       		.uleb128 0x13
ARM GAS  /tmp/ccMycBjG.s 			page 43


 2134 003b 00       		.byte	0
 2135 003c 00       		.byte	0
 2136 003d 06       		.uleb128 0x6
 2137 003e 34       		.uleb128 0x34
 2138 003f 00       		.byte	0
 2139 0040 03       		.uleb128 0x3
 2140 0041 0E       		.uleb128 0xe
 2141 0042 3A       		.uleb128 0x3a
 2142 0043 0B       		.uleb128 0xb
 2143 0044 3B       		.uleb128 0x3b
 2144 0045 05       		.uleb128 0x5
 2145 0046 49       		.uleb128 0x49
 2146 0047 13       		.uleb128 0x13
 2147 0048 3F       		.uleb128 0x3f
 2148 0049 19       		.uleb128 0x19
 2149 004a 3C       		.uleb128 0x3c
 2150 004b 19       		.uleb128 0x19
 2151 004c 00       		.byte	0
 2152 004d 00       		.byte	0
 2153 004e 07       		.uleb128 0x7
 2154 004f 34       		.uleb128 0x34
 2155 0050 00       		.byte	0
 2156 0051 03       		.uleb128 0x3
 2157 0052 0E       		.uleb128 0xe
 2158 0053 3A       		.uleb128 0x3a
 2159 0054 0B       		.uleb128 0xb
 2160 0055 3B       		.uleb128 0x3b
 2161 0056 0B       		.uleb128 0xb
 2162 0057 49       		.uleb128 0x49
 2163 0058 13       		.uleb128 0x13
 2164 0059 3F       		.uleb128 0x3f
 2165 005a 19       		.uleb128 0x19
 2166 005b 3C       		.uleb128 0x3c
 2167 005c 19       		.uleb128 0x19
 2168 005d 00       		.byte	0
 2169 005e 00       		.byte	0
 2170 005f 08       		.uleb128 0x8
 2171 0060 04       		.uleb128 0x4
 2172 0061 01       		.byte	0x1
 2173 0062 0B       		.uleb128 0xb
 2174 0063 0B       		.uleb128 0xb
 2175 0064 49       		.uleb128 0x49
 2176 0065 13       		.uleb128 0x13
 2177 0066 3A       		.uleb128 0x3a
 2178 0067 0B       		.uleb128 0xb
 2179 0068 3B       		.uleb128 0x3b
 2180 0069 05       		.uleb128 0x5
 2181 006a 01       		.uleb128 0x1
 2182 006b 13       		.uleb128 0x13
 2183 006c 00       		.byte	0
 2184 006d 00       		.byte	0
 2185 006e 09       		.uleb128 0x9
 2186 006f 28       		.uleb128 0x28
 2187 0070 00       		.byte	0
 2188 0071 03       		.uleb128 0x3
 2189 0072 0E       		.uleb128 0xe
 2190 0073 1C       		.uleb128 0x1c
ARM GAS  /tmp/ccMycBjG.s 			page 44


 2191 0074 0B       		.uleb128 0xb
 2192 0075 00       		.byte	0
 2193 0076 00       		.byte	0
 2194 0077 0A       		.uleb128 0xa
 2195 0078 28       		.uleb128 0x28
 2196 0079 00       		.byte	0
 2197 007a 03       		.uleb128 0x3
 2198 007b 08       		.uleb128 0x8
 2199 007c 1C       		.uleb128 0x1c
 2200 007d 0B       		.uleb128 0xb
 2201 007e 00       		.byte	0
 2202 007f 00       		.byte	0
 2203 0080 0B       		.uleb128 0xb
 2204 0081 16       		.uleb128 0x16
 2205 0082 00       		.byte	0
 2206 0083 03       		.uleb128 0x3
 2207 0084 0E       		.uleb128 0xe
 2208 0085 3A       		.uleb128 0x3a
 2209 0086 0B       		.uleb128 0xb
 2210 0087 3B       		.uleb128 0x3b
 2211 0088 05       		.uleb128 0x5
 2212 0089 49       		.uleb128 0x49
 2213 008a 13       		.uleb128 0x13
 2214 008b 00       		.byte	0
 2215 008c 00       		.byte	0
 2216 008d 0C       		.uleb128 0xc
 2217 008e 13       		.uleb128 0x13
 2218 008f 01       		.byte	0x1
 2219 0090 0B       		.uleb128 0xb
 2220 0091 0B       		.uleb128 0xb
 2221 0092 3A       		.uleb128 0x3a
 2222 0093 0B       		.uleb128 0xb
 2223 0094 3B       		.uleb128 0x3b
 2224 0095 05       		.uleb128 0x5
 2225 0096 01       		.uleb128 0x1
 2226 0097 13       		.uleb128 0x13
 2227 0098 00       		.byte	0
 2228 0099 00       		.byte	0
 2229 009a 0D       		.uleb128 0xd
 2230 009b 0D       		.uleb128 0xd
 2231 009c 00       		.byte	0
 2232 009d 03       		.uleb128 0x3
 2233 009e 08       		.uleb128 0x8
 2234 009f 3A       		.uleb128 0x3a
 2235 00a0 0B       		.uleb128 0xb
 2236 00a1 3B       		.uleb128 0x3b
 2237 00a2 05       		.uleb128 0x5
 2238 00a3 49       		.uleb128 0x49
 2239 00a4 13       		.uleb128 0x13
 2240 00a5 38       		.uleb128 0x38
 2241 00a6 0B       		.uleb128 0xb
 2242 00a7 00       		.byte	0
 2243 00a8 00       		.byte	0
 2244 00a9 0E       		.uleb128 0xe
 2245 00aa 0D       		.uleb128 0xd
 2246 00ab 00       		.byte	0
 2247 00ac 03       		.uleb128 0x3
ARM GAS  /tmp/ccMycBjG.s 			page 45


 2248 00ad 0E       		.uleb128 0xe
 2249 00ae 3A       		.uleb128 0x3a
 2250 00af 0B       		.uleb128 0xb
 2251 00b0 3B       		.uleb128 0x3b
 2252 00b1 05       		.uleb128 0x5
 2253 00b2 49       		.uleb128 0x49
 2254 00b3 13       		.uleb128 0x13
 2255 00b4 38       		.uleb128 0x38
 2256 00b5 0B       		.uleb128 0xb
 2257 00b6 00       		.byte	0
 2258 00b7 00       		.byte	0
 2259 00b8 0F       		.uleb128 0xf
 2260 00b9 04       		.uleb128 0x4
 2261 00ba 01       		.byte	0x1
 2262 00bb 0B       		.uleb128 0xb
 2263 00bc 0B       		.uleb128 0xb
 2264 00bd 49       		.uleb128 0x49
 2265 00be 13       		.uleb128 0x13
 2266 00bf 3A       		.uleb128 0x3a
 2267 00c0 0B       		.uleb128 0xb
 2268 00c1 3B       		.uleb128 0x3b
 2269 00c2 0B       		.uleb128 0xb
 2270 00c3 01       		.uleb128 0x1
 2271 00c4 13       		.uleb128 0x13
 2272 00c5 00       		.byte	0
 2273 00c6 00       		.byte	0
 2274 00c7 10       		.uleb128 0x10
 2275 00c8 13       		.uleb128 0x13
 2276 00c9 01       		.byte	0x1
 2277 00ca 0B       		.uleb128 0xb
 2278 00cb 0B       		.uleb128 0xb
 2279 00cc 3A       		.uleb128 0x3a
 2280 00cd 0B       		.uleb128 0xb
 2281 00ce 3B       		.uleb128 0x3b
 2282 00cf 0B       		.uleb128 0xb
 2283 00d0 01       		.uleb128 0x1
 2284 00d1 13       		.uleb128 0x13
 2285 00d2 00       		.byte	0
 2286 00d3 00       		.byte	0
 2287 00d4 11       		.uleb128 0x11
 2288 00d5 0D       		.uleb128 0xd
 2289 00d6 00       		.byte	0
 2290 00d7 03       		.uleb128 0x3
 2291 00d8 0E       		.uleb128 0xe
 2292 00d9 3A       		.uleb128 0x3a
 2293 00da 0B       		.uleb128 0xb
 2294 00db 3B       		.uleb128 0x3b
 2295 00dc 0B       		.uleb128 0xb
 2296 00dd 49       		.uleb128 0x49
 2297 00de 13       		.uleb128 0x13
 2298 00df 38       		.uleb128 0x38
 2299 00e0 0B       		.uleb128 0xb
 2300 00e1 00       		.byte	0
 2301 00e2 00       		.byte	0
 2302 00e3 12       		.uleb128 0x12
 2303 00e4 15       		.uleb128 0x15
 2304 00e5 00       		.byte	0
ARM GAS  /tmp/ccMycBjG.s 			page 46


 2305 00e6 27       		.uleb128 0x27
 2306 00e7 19       		.uleb128 0x19
 2307 00e8 00       		.byte	0
 2308 00e9 00       		.byte	0
 2309 00ea 13       		.uleb128 0x13
 2310 00eb 0F       		.uleb128 0xf
 2311 00ec 00       		.byte	0
 2312 00ed 0B       		.uleb128 0xb
 2313 00ee 0B       		.uleb128 0xb
 2314 00ef 49       		.uleb128 0x49
 2315 00f0 13       		.uleb128 0x13
 2316 00f1 00       		.byte	0
 2317 00f2 00       		.byte	0
 2318 00f3 14       		.uleb128 0x14
 2319 00f4 01       		.uleb128 0x1
 2320 00f5 01       		.byte	0x1
 2321 00f6 49       		.uleb128 0x49
 2322 00f7 13       		.uleb128 0x13
 2323 00f8 01       		.uleb128 0x1
 2324 00f9 13       		.uleb128 0x13
 2325 00fa 00       		.byte	0
 2326 00fb 00       		.byte	0
 2327 00fc 15       		.uleb128 0x15
 2328 00fd 21       		.uleb128 0x21
 2329 00fe 00       		.byte	0
 2330 00ff 49       		.uleb128 0x49
 2331 0100 13       		.uleb128 0x13
 2332 0101 2F       		.uleb128 0x2f
 2333 0102 0B       		.uleb128 0xb
 2334 0103 00       		.byte	0
 2335 0104 00       		.byte	0
 2336 0105 16       		.uleb128 0x16
 2337 0106 34       		.uleb128 0x34
 2338 0107 00       		.byte	0
 2339 0108 03       		.uleb128 0x3
 2340 0109 08       		.uleb128 0x8
 2341 010a 3A       		.uleb128 0x3a
 2342 010b 0B       		.uleb128 0xb
 2343 010c 3B       		.uleb128 0x3b
 2344 010d 05       		.uleb128 0x5
 2345 010e 49       		.uleb128 0x49
 2346 010f 13       		.uleb128 0x13
 2347 0110 3F       		.uleb128 0x3f
 2348 0111 19       		.uleb128 0x19
 2349 0112 3C       		.uleb128 0x3c
 2350 0113 19       		.uleb128 0x19
 2351 0114 00       		.byte	0
 2352 0115 00       		.byte	0
 2353 0116 17       		.uleb128 0x17
 2354 0117 17       		.uleb128 0x17
 2355 0118 01       		.byte	0x1
 2356 0119 0B       		.uleb128 0xb
 2357 011a 0B       		.uleb128 0xb
 2358 011b 3A       		.uleb128 0x3a
 2359 011c 0B       		.uleb128 0xb
 2360 011d 3B       		.uleb128 0x3b
 2361 011e 0B       		.uleb128 0xb
ARM GAS  /tmp/ccMycBjG.s 			page 47


 2362 011f 01       		.uleb128 0x1
 2363 0120 13       		.uleb128 0x13
 2364 0121 00       		.byte	0
 2365 0122 00       		.byte	0
 2366 0123 18       		.uleb128 0x18
 2367 0124 0D       		.uleb128 0xd
 2368 0125 00       		.byte	0
 2369 0126 03       		.uleb128 0x3
 2370 0127 0E       		.uleb128 0xe
 2371 0128 3A       		.uleb128 0x3a
 2372 0129 0B       		.uleb128 0xb
 2373 012a 3B       		.uleb128 0x3b
 2374 012b 0B       		.uleb128 0xb
 2375 012c 49       		.uleb128 0x49
 2376 012d 13       		.uleb128 0x13
 2377 012e 00       		.byte	0
 2378 012f 00       		.byte	0
 2379 0130 19       		.uleb128 0x19
 2380 0131 0F       		.uleb128 0xf
 2381 0132 00       		.byte	0
 2382 0133 0B       		.uleb128 0xb
 2383 0134 0B       		.uleb128 0xb
 2384 0135 00       		.byte	0
 2385 0136 00       		.byte	0
 2386 0137 1A       		.uleb128 0x1a
 2387 0138 26       		.uleb128 0x26
 2388 0139 00       		.byte	0
 2389 013a 49       		.uleb128 0x49
 2390 013b 13       		.uleb128 0x13
 2391 013c 00       		.byte	0
 2392 013d 00       		.byte	0
 2393 013e 1B       		.uleb128 0x1b
 2394 013f 13       		.uleb128 0x13
 2395 0140 01       		.byte	0x1
 2396 0141 03       		.uleb128 0x3
 2397 0142 0E       		.uleb128 0xe
 2398 0143 0B       		.uleb128 0xb
 2399 0144 0B       		.uleb128 0xb
 2400 0145 3A       		.uleb128 0x3a
 2401 0146 0B       		.uleb128 0xb
 2402 0147 3B       		.uleb128 0x3b
 2403 0148 0B       		.uleb128 0xb
 2404 0149 01       		.uleb128 0x1
 2405 014a 13       		.uleb128 0x13
 2406 014b 00       		.byte	0
 2407 014c 00       		.byte	0
 2408 014d 1C       		.uleb128 0x1c
 2409 014e 0D       		.uleb128 0xd
 2410 014f 00       		.byte	0
 2411 0150 03       		.uleb128 0x3
 2412 0151 08       		.uleb128 0x8
 2413 0152 3A       		.uleb128 0x3a
 2414 0153 0B       		.uleb128 0xb
 2415 0154 3B       		.uleb128 0x3b
 2416 0155 0B       		.uleb128 0xb
 2417 0156 49       		.uleb128 0x49
 2418 0157 13       		.uleb128 0x13
ARM GAS  /tmp/ccMycBjG.s 			page 48


 2419 0158 38       		.uleb128 0x38
 2420 0159 0B       		.uleb128 0xb
 2421 015a 00       		.byte	0
 2422 015b 00       		.byte	0
 2423 015c 1D       		.uleb128 0x1d
 2424 015d 13       		.uleb128 0x13
 2425 015e 01       		.byte	0x1
 2426 015f 03       		.uleb128 0x3
 2427 0160 0E       		.uleb128 0xe
 2428 0161 0B       		.uleb128 0xb
 2429 0162 05       		.uleb128 0x5
 2430 0163 3A       		.uleb128 0x3a
 2431 0164 0B       		.uleb128 0xb
 2432 0165 3B       		.uleb128 0x3b
 2433 0166 0B       		.uleb128 0xb
 2434 0167 01       		.uleb128 0x1
 2435 0168 13       		.uleb128 0x13
 2436 0169 00       		.byte	0
 2437 016a 00       		.byte	0
 2438 016b 1E       		.uleb128 0x1e
 2439 016c 0D       		.uleb128 0xd
 2440 016d 00       		.byte	0
 2441 016e 03       		.uleb128 0x3
 2442 016f 0E       		.uleb128 0xe
 2443 0170 3A       		.uleb128 0x3a
 2444 0171 0B       		.uleb128 0xb
 2445 0172 3B       		.uleb128 0x3b
 2446 0173 0B       		.uleb128 0xb
 2447 0174 49       		.uleb128 0x49
 2448 0175 13       		.uleb128 0x13
 2449 0176 38       		.uleb128 0x38
 2450 0177 05       		.uleb128 0x5
 2451 0178 00       		.byte	0
 2452 0179 00       		.byte	0
 2453 017a 1F       		.uleb128 0x1f
 2454 017b 15       		.uleb128 0x15
 2455 017c 01       		.byte	0x1
 2456 017d 27       		.uleb128 0x27
 2457 017e 19       		.uleb128 0x19
 2458 017f 49       		.uleb128 0x49
 2459 0180 13       		.uleb128 0x13
 2460 0181 01       		.uleb128 0x1
 2461 0182 13       		.uleb128 0x13
 2462 0183 00       		.byte	0
 2463 0184 00       		.byte	0
 2464 0185 20       		.uleb128 0x20
 2465 0186 05       		.uleb128 0x5
 2466 0187 00       		.byte	0
 2467 0188 49       		.uleb128 0x49
 2468 0189 13       		.uleb128 0x13
 2469 018a 00       		.byte	0
 2470 018b 00       		.byte	0
 2471 018c 21       		.uleb128 0x21
 2472 018d 13       		.uleb128 0x13
 2473 018e 01       		.byte	0x1
 2474 018f 03       		.uleb128 0x3
 2475 0190 0E       		.uleb128 0xe
ARM GAS  /tmp/ccMycBjG.s 			page 49


 2476 0191 0B       		.uleb128 0xb
 2477 0192 05       		.uleb128 0x5
 2478 0193 3A       		.uleb128 0x3a
 2479 0194 0B       		.uleb128 0xb
 2480 0195 3B       		.uleb128 0x3b
 2481 0196 05       		.uleb128 0x5
 2482 0197 01       		.uleb128 0x1
 2483 0198 13       		.uleb128 0x13
 2484 0199 00       		.byte	0
 2485 019a 00       		.byte	0
 2486 019b 22       		.uleb128 0x22
 2487 019c 0D       		.uleb128 0xd
 2488 019d 00       		.byte	0
 2489 019e 03       		.uleb128 0x3
 2490 019f 0E       		.uleb128 0xe
 2491 01a0 3A       		.uleb128 0x3a
 2492 01a1 0B       		.uleb128 0xb
 2493 01a2 3B       		.uleb128 0x3b
 2494 01a3 05       		.uleb128 0x5
 2495 01a4 49       		.uleb128 0x49
 2496 01a5 13       		.uleb128 0x13
 2497 01a6 38       		.uleb128 0x38
 2498 01a7 05       		.uleb128 0x5
 2499 01a8 00       		.byte	0
 2500 01a9 00       		.byte	0
 2501 01aa 23       		.uleb128 0x23
 2502 01ab 13       		.uleb128 0x13
 2503 01ac 01       		.byte	0x1
 2504 01ad 03       		.uleb128 0x3
 2505 01ae 0E       		.uleb128 0xe
 2506 01af 0B       		.uleb128 0xb
 2507 01b0 0B       		.uleb128 0xb
 2508 01b1 3A       		.uleb128 0x3a
 2509 01b2 0B       		.uleb128 0xb
 2510 01b3 3B       		.uleb128 0x3b
 2511 01b4 05       		.uleb128 0x5
 2512 01b5 01       		.uleb128 0x1
 2513 01b6 13       		.uleb128 0x13
 2514 01b7 00       		.byte	0
 2515 01b8 00       		.byte	0
 2516 01b9 24       		.uleb128 0x24
 2517 01ba 17       		.uleb128 0x17
 2518 01bb 01       		.byte	0x1
 2519 01bc 0B       		.uleb128 0xb
 2520 01bd 0B       		.uleb128 0xb
 2521 01be 3A       		.uleb128 0x3a
 2522 01bf 0B       		.uleb128 0xb
 2523 01c0 3B       		.uleb128 0x3b
 2524 01c1 05       		.uleb128 0x5
 2525 01c2 01       		.uleb128 0x1
 2526 01c3 13       		.uleb128 0x13
 2527 01c4 00       		.byte	0
 2528 01c5 00       		.byte	0
 2529 01c6 25       		.uleb128 0x25
 2530 01c7 0D       		.uleb128 0xd
 2531 01c8 00       		.byte	0
 2532 01c9 03       		.uleb128 0x3
ARM GAS  /tmp/ccMycBjG.s 			page 50


 2533 01ca 0E       		.uleb128 0xe
 2534 01cb 3A       		.uleb128 0x3a
 2535 01cc 0B       		.uleb128 0xb
 2536 01cd 3B       		.uleb128 0x3b
 2537 01ce 05       		.uleb128 0x5
 2538 01cf 49       		.uleb128 0x49
 2539 01d0 13       		.uleb128 0x13
 2540 01d1 00       		.byte	0
 2541 01d2 00       		.byte	0
 2542 01d3 26       		.uleb128 0x26
 2543 01d4 15       		.uleb128 0x15
 2544 01d5 01       		.byte	0x1
 2545 01d6 27       		.uleb128 0x27
 2546 01d7 19       		.uleb128 0x19
 2547 01d8 01       		.uleb128 0x1
 2548 01d9 13       		.uleb128 0x13
 2549 01da 00       		.byte	0
 2550 01db 00       		.byte	0
 2551 01dc 27       		.uleb128 0x27
 2552 01dd 04       		.uleb128 0x4
 2553 01de 01       		.byte	0x1
 2554 01df 03       		.uleb128 0x3
 2555 01e0 0E       		.uleb128 0xe
 2556 01e1 0B       		.uleb128 0xb
 2557 01e2 0B       		.uleb128 0xb
 2558 01e3 49       		.uleb128 0x49
 2559 01e4 13       		.uleb128 0x13
 2560 01e5 3A       		.uleb128 0x3a
 2561 01e6 0B       		.uleb128 0xb
 2562 01e7 3B       		.uleb128 0x3b
 2563 01e8 05       		.uleb128 0x5
 2564 01e9 01       		.uleb128 0x1
 2565 01ea 13       		.uleb128 0x13
 2566 01eb 00       		.byte	0
 2567 01ec 00       		.byte	0
 2568 01ed 28       		.uleb128 0x28
 2569 01ee 28       		.uleb128 0x28
 2570 01ef 00       		.byte	0
 2571 01f0 03       		.uleb128 0x3
 2572 01f1 0E       		.uleb128 0xe
 2573 01f2 1C       		.uleb128 0x1c
 2574 01f3 0D       		.uleb128 0xd
 2575 01f4 00       		.byte	0
 2576 01f5 00       		.byte	0
 2577 01f6 29       		.uleb128 0x29
 2578 01f7 2E       		.uleb128 0x2e
 2579 01f8 01       		.byte	0x1
 2580 01f9 3F       		.uleb128 0x3f
 2581 01fa 19       		.uleb128 0x19
 2582 01fb 03       		.uleb128 0x3
 2583 01fc 0E       		.uleb128 0xe
 2584 01fd 3A       		.uleb128 0x3a
 2585 01fe 0B       		.uleb128 0xb
 2586 01ff 3B       		.uleb128 0x3b
 2587 0200 0B       		.uleb128 0xb
 2588 0201 27       		.uleb128 0x27
 2589 0202 19       		.uleb128 0x19
ARM GAS  /tmp/ccMycBjG.s 			page 51


 2590 0203 11       		.uleb128 0x11
 2591 0204 01       		.uleb128 0x1
 2592 0205 12       		.uleb128 0x12
 2593 0206 06       		.uleb128 0x6
 2594 0207 40       		.uleb128 0x40
 2595 0208 18       		.uleb128 0x18
 2596 0209 9742     		.uleb128 0x2117
 2597 020b 19       		.uleb128 0x19
 2598 020c 01       		.uleb128 0x1
 2599 020d 13       		.uleb128 0x13
 2600 020e 00       		.byte	0
 2601 020f 00       		.byte	0
 2602 0210 2A       		.uleb128 0x2a
 2603 0211 05       		.uleb128 0x5
 2604 0212 00       		.byte	0
 2605 0213 03       		.uleb128 0x3
 2606 0214 0E       		.uleb128 0xe
 2607 0215 3A       		.uleb128 0x3a
 2608 0216 0B       		.uleb128 0xb
 2609 0217 3B       		.uleb128 0x3b
 2610 0218 0B       		.uleb128 0xb
 2611 0219 49       		.uleb128 0x49
 2612 021a 13       		.uleb128 0x13
 2613 021b 02       		.uleb128 0x2
 2614 021c 18       		.uleb128 0x18
 2615 021d 00       		.byte	0
 2616 021e 00       		.byte	0
 2617 021f 2B       		.uleb128 0x2b
 2618 0220 2E       		.uleb128 0x2e
 2619 0221 01       		.byte	0x1
 2620 0222 3F       		.uleb128 0x3f
 2621 0223 19       		.uleb128 0x19
 2622 0224 03       		.uleb128 0x3
 2623 0225 0E       		.uleb128 0xe
 2624 0226 3A       		.uleb128 0x3a
 2625 0227 0B       		.uleb128 0xb
 2626 0228 3B       		.uleb128 0x3b
 2627 0229 0B       		.uleb128 0xb
 2628 022a 27       		.uleb128 0x27
 2629 022b 19       		.uleb128 0x19
 2630 022c 49       		.uleb128 0x49
 2631 022d 13       		.uleb128 0x13
 2632 022e 11       		.uleb128 0x11
 2633 022f 01       		.uleb128 0x1
 2634 0230 12       		.uleb128 0x12
 2635 0231 06       		.uleb128 0x6
 2636 0232 40       		.uleb128 0x40
 2637 0233 18       		.uleb128 0x18
 2638 0234 9742     		.uleb128 0x2117
 2639 0236 19       		.uleb128 0x19
 2640 0237 01       		.uleb128 0x1
 2641 0238 13       		.uleb128 0x13
 2642 0239 00       		.byte	0
 2643 023a 00       		.byte	0
 2644 023b 2C       		.uleb128 0x2c
 2645 023c 34       		.uleb128 0x34
 2646 023d 00       		.byte	0
ARM GAS  /tmp/ccMycBjG.s 			page 52


 2647 023e 03       		.uleb128 0x3
 2648 023f 0E       		.uleb128 0xe
 2649 0240 3A       		.uleb128 0x3a
 2650 0241 0B       		.uleb128 0xb
 2651 0242 3B       		.uleb128 0x3b
 2652 0243 0B       		.uleb128 0xb
 2653 0244 49       		.uleb128 0x49
 2654 0245 13       		.uleb128 0x13
 2655 0246 02       		.uleb128 0x2
 2656 0247 18       		.uleb128 0x18
 2657 0248 00       		.byte	0
 2658 0249 00       		.byte	0
 2659 024a 2D       		.uleb128 0x2d
 2660 024b 34       		.uleb128 0x34
 2661 024c 00       		.byte	0
 2662 024d 03       		.uleb128 0x3
 2663 024e 08       		.uleb128 0x8
 2664 024f 3A       		.uleb128 0x3a
 2665 0250 0B       		.uleb128 0xb
 2666 0251 3B       		.uleb128 0x3b
 2667 0252 0B       		.uleb128 0xb
 2668 0253 49       		.uleb128 0x49
 2669 0254 13       		.uleb128 0x13
 2670 0255 02       		.uleb128 0x2
 2671 0256 18       		.uleb128 0x18
 2672 0257 00       		.byte	0
 2673 0258 00       		.byte	0
 2674 0259 2E       		.uleb128 0x2e
 2675 025a 2E       		.uleb128 0x2e
 2676 025b 00       		.byte	0
 2677 025c 3F       		.uleb128 0x3f
 2678 025d 19       		.uleb128 0x19
 2679 025e 03       		.uleb128 0x3
 2680 025f 0E       		.uleb128 0xe
 2681 0260 3A       		.uleb128 0x3a
 2682 0261 0B       		.uleb128 0xb
 2683 0262 3B       		.uleb128 0x3b
 2684 0263 0B       		.uleb128 0xb
 2685 0264 27       		.uleb128 0x27
 2686 0265 19       		.uleb128 0x19
 2687 0266 11       		.uleb128 0x11
 2688 0267 01       		.uleb128 0x1
 2689 0268 12       		.uleb128 0x12
 2690 0269 06       		.uleb128 0x6
 2691 026a 40       		.uleb128 0x40
 2692 026b 18       		.uleb128 0x18
 2693 026c 9742     		.uleb128 0x2117
 2694 026e 19       		.uleb128 0x19
 2695 026f 00       		.byte	0
 2696 0270 00       		.byte	0
 2697 0271 00       		.byte	0
 2698              		.section	.debug_aranges,"",%progbits
 2699 0000 1C000000 		.4byte	0x1c
 2700 0004 0200     		.2byte	0x2
 2701 0006 00000000 		.4byte	.Ldebug_info0
 2702 000a 04       		.byte	0x4
 2703 000b 00       		.byte	0
ARM GAS  /tmp/ccMycBjG.s 			page 53


 2704 000c 0000     		.2byte	0
 2705 000e 0000     		.2byte	0
 2706 0010 00000000 		.4byte	.Ltext0
 2707 0014 18020000 		.4byte	.Letext0-.Ltext0
 2708 0018 00000000 		.4byte	0
 2709 001c 00000000 		.4byte	0
 2710              		.section	.debug_line,"",%progbits
 2711              	.Ldebug_line0:
 2712 0000 1B020000 		.section	.debug_str,"MS",%progbits,1
 2712      0200B001 
 2712      00000201 
 2712      FB0E0D00 
 2712      01010101 
 2713              	.LASF79:
 2714 0000 5F64736F 		.ascii	"_dso_handle\000"
 2714      5F68616E 
 2714      646C6500 
 2715              	.LASF81:
 2716 000c 5F69735F 		.ascii	"_is_cxa\000"
 2716      63786100 
 2717              	.LASF2:
 2718 0014 73686F72 		.ascii	"short int\000"
 2718      7420696E 
 2718      7400
 2719              	.LASF36:
 2720 001e 45585449 		.ascii	"EXTI_Mode\000"
 2720      5F4D6F64 
 2720      6500
 2721              	.LASF176:
 2722 0028 636F6D6D 		.ascii	"common/stm32f10x_exti.c\000"
 2722      6F6E2F73 
 2722      746D3332 
 2722      66313078 
 2722      5F657874 
 2723              	.LASF78:
 2724 0040 5F666E61 		.ascii	"_fnargs\000"
 2724      72677300 
 2725              	.LASF131:
 2726 0048 5F72616E 		.ascii	"_rand48\000"
 2726      64343800 
 2727              	.LASF19:
 2728 0050 466C6167 		.ascii	"FlagStatus\000"
 2728      53746174 
 2728      757300
 2729              	.LASF162:
 2730 005b 5F5F6664 		.ascii	"__fdlibm_xopen\000"
 2730      6C69626D 
 2730      5F786F70 
 2730      656E00
 2731              	.LASF111:
 2732 006a 5F656D65 		.ascii	"_emergency\000"
 2732      7267656E 
 2732      637900
 2733              	.LASF38:
 2734 0075 45585449 		.ascii	"EXTI_LineCmd\000"
 2734      5F4C696E 
 2734      65436D64 
ARM GAS  /tmp/ccMycBjG.s 			page 54


 2734      00
 2735              	.LASF123:
 2736 0082 5F617465 		.ascii	"_atexit0\000"
 2736      78697430 
 2736      00
 2737              	.LASF33:
 2738 008b 45585449 		.ascii	"EXTI_Trigger_Rising_Falling\000"
 2738      5F547269 
 2738      67676572 
 2738      5F526973 
 2738      696E675F 
 2739              	.LASF26:
 2740 00a7 53574945 		.ascii	"SWIER\000"
 2740      5200
 2741              	.LASF151:
 2742 00ad 5F776372 		.ascii	"_wcrtomb_state\000"
 2742      746F6D62 
 2742      5F737461 
 2742      746500
 2743              	.LASF152:
 2744 00bc 5F776373 		.ascii	"_wcsrtombs_state\000"
 2744      72746F6D 
 2744      62735F73 
 2744      74617465 
 2744      00
 2745              	.LASF10:
 2746 00cd 6C6F6E67 		.ascii	"long long unsigned int\000"
 2746      206C6F6E 
 2746      6720756E 
 2746      7369676E 
 2746      65642069 
 2747              	.LASF163:
 2748 00e4 5F5F6664 		.ascii	"__fdlibm_posix\000"
 2748      6C69626D 
 2748      5F706F73 
 2748      697800
 2749              	.LASF91:
 2750 00f3 5F6C6266 		.ascii	"_lbfsize\000"
 2750      73697A65 
 2750      00
 2751              	.LASF170:
 2752 00fc 45585449 		.ascii	"EXTI_GetFlagStatus\000"
 2752      5F476574 
 2752      466C6167 
 2752      53746174 
 2752      757300
 2753              	.LASF171:
 2754 010f 45585449 		.ascii	"EXTI_GenerateSWInterrupt\000"
 2754      5F47656E 
 2754      65726174 
 2754      65535749 
 2754      6E746572 
 2755              	.LASF164:
 2756 0128 5F5F6664 		.ascii	"__fdlib_version\000"
 2756      6C69625F 
 2756      76657273 
 2756      696F6E00 
ARM GAS  /tmp/ccMycBjG.s 			page 55


 2757              	.LASF40:
 2758 0138 6779726F 		.ascii	"gyro\000"
 2758      00
 2759              	.LASF149:
 2760 013d 5F6D6272 		.ascii	"_mbrtowc_state\000"
 2760      746F7763 
 2760      5F737461 
 2760      746500
 2761              	.LASF144:
 2762 014c 5F776374 		.ascii	"_wctomb_state\000"
 2762      6F6D625F 
 2762      73746174 
 2762      6500
 2763              	.LASF68:
 2764 015a 5F5F746D 		.ascii	"__tm_sec\000"
 2764      5F736563 
 2764      00
 2765              	.LASF12:
 2766 0163 696E7431 		.ascii	"int16_t\000"
 2766      365F7400 
 2767              	.LASF51:
 2768 016b 5F6F6666 		.ascii	"_off_t\000"
 2768      5F7400
 2769              	.LASF96:
 2770 0172 5F636C6F 		.ascii	"_close\000"
 2770      736500
 2771              	.LASF0:
 2772 0179 7369676E 		.ascii	"signed char\000"
 2772      65642063 
 2772      68617200 
 2773              	.LASF97:
 2774 0185 5F756275 		.ascii	"_ubuf\000"
 2774      6600
 2775              	.LASF42:
 2776 018b 47785F6F 		.ascii	"Gx_offset\000"
 2776      66667365 
 2776      7400
 2777              	.LASF86:
 2778 0195 5F626173 		.ascii	"_base\000"
 2778      6500
 2779              	.LASF70:
 2780 019b 5F5F746D 		.ascii	"__tm_hour\000"
 2780      5F686F75 
 2780      7200
 2781              	.LASF169:
 2782 01a5 45585449 		.ascii	"EXTI_GetITStatus\000"
 2782      5F476574 
 2782      49545374 
 2782      61747573 
 2782      00
 2783              	.LASF126:
 2784 01b6 5F5F7366 		.ascii	"__sf\000"
 2784      00
 2785              	.LASF77:
 2786 01bb 5F6F6E5F 		.ascii	"_on_exit_args\000"
 2786      65786974 
 2786      5F617267 
ARM GAS  /tmp/ccMycBjG.s 			page 56


 2786      7300
 2787              	.LASF45:
 2788 01c9 41636331 		.ascii	"Acc1G_Values\000"
 2788      475F5661 
 2788      6C756573 
 2788      00
 2789              	.LASF92:
 2790 01d6 5F636F6F 		.ascii	"_cookie\000"
 2790      6B696500 
 2791              	.LASF125:
 2792 01de 5F5F7367 		.ascii	"__sglue\000"
 2792      6C756500 
 2793              	.LASF6:
 2794 01e6 6C6F6E67 		.ascii	"long int\000"
 2794      20696E74 
 2794      00
 2795              	.LASF177:
 2796 01ef 2F686F6D 		.ascii	"/home/enbin/Documents/code/STM/stm32-quadrocopter\000"
 2796      652F656E 
 2796      62696E2F 
 2796      446F6375 
 2796      6D656E74 
 2797              	.LASF30:
 2798 0221 45585449 		.ascii	"EXTIMode_TypeDef\000"
 2798      4D6F6465 
 2798      5F547970 
 2798      65446566 
 2798      00
 2799              	.LASF107:
 2800 0232 5F737464 		.ascii	"_stdin\000"
 2800      696E00
 2801              	.LASF161:
 2802 0239 5F5F6664 		.ascii	"__fdlibm_svid\000"
 2802      6C69626D 
 2802      5F737669 
 2802      6400
 2803              	.LASF117:
 2804 0247 5F726573 		.ascii	"_result_k\000"
 2804      756C745F 
 2804      6B00
 2805              	.LASF22:
 2806 0251 454E4142 		.ascii	"ENABLE\000"
 2806      4C4500
 2807              	.LASF9:
 2808 0258 6C6F6E67 		.ascii	"long long int\000"
 2808      206C6F6E 
 2808      6720696E 
 2808      7400
 2809              	.LASF159:
 2810 0266 646F7562 		.ascii	"double\000"
 2810      6C6500
 2811              	.LASF121:
 2812 026d 5F637674 		.ascii	"_cvtbuf\000"
 2812      62756600 
 2813              	.LASF100:
 2814 0275 5F6F6666 		.ascii	"_offset\000"
 2814      73657400 
ARM GAS  /tmp/ccMycBjG.s 			page 57


 2815              	.LASF150:
 2816 027d 5F6D6273 		.ascii	"_mbsrtowcs_state\000"
 2816      72746F77 
 2816      63735F73 
 2816      74617465 
 2816      00
 2817              	.LASF136:
 2818 028e 5F737472 		.ascii	"_strtok_last\000"
 2818      746F6B5F 
 2818      6C617374 
 2818      00
 2819              	.LASF148:
 2820 029b 5F6D6272 		.ascii	"_mbrlen_state\000"
 2820      6C656E5F 
 2820      73746174 
 2820      6500
 2821              	.LASF3:
 2822 02a9 73686F72 		.ascii	"short unsigned int\000"
 2822      7420756E 
 2822      7369676E 
 2822      65642069 
 2822      6E7400
 2823              	.LASF84:
 2824 02bc 5F666E73 		.ascii	"_fns\000"
 2824      00
 2825              	.LASF7:
 2826 02c1 5F5F7569 		.ascii	"__uint32_t\000"
 2826      6E743332 
 2826      5F7400
 2827              	.LASF64:
 2828 02cc 5F736967 		.ascii	"_sign\000"
 2828      6E00
 2829              	.LASF157:
 2830 02d2 5F696D70 		.ascii	"_impure_ptr\000"
 2830      7572655F 
 2830      70747200 
 2831              	.LASF109:
 2832 02de 5F737464 		.ascii	"_stderr\000"
 2832      65727200 
 2833              	.LASF66:
 2834 02e6 5F426967 		.ascii	"_Bigint\000"
 2834      696E7400 
 2835              	.LASF165:
 2836 02ee 62697473 		.ascii	"bitstatus\000"
 2836      74617475 
 2836      7300
 2837              	.LASF172:
 2838 02f8 45585449 		.ascii	"EXTI_StructInit\000"
 2838      5F537472 
 2838      75637449 
 2838      6E697400 
 2839              	.LASF93:
 2840 0308 5F726561 		.ascii	"_read\000"
 2840      6400
 2841              	.LASF20:
 2842 030e 49545374 		.ascii	"ITStatus\000"
 2842      61747573 
ARM GAS  /tmp/ccMycBjG.s 			page 58


 2842      00
 2843              	.LASF67:
 2844 0317 5F5F746D 		.ascii	"__tm\000"
 2844      00
 2845              	.LASF167:
 2846 031c 45585449 		.ascii	"EXTI_ClearITPendingBit\000"
 2846      5F436C65 
 2846      61724954 
 2846      50656E64 
 2846      696E6742 
 2847              	.LASF174:
 2848 0333 45585449 		.ascii	"EXTI_Init\000"
 2848      5F496E69 
 2848      7400
 2849              	.LASF55:
 2850 033d 5F5F7763 		.ascii	"__wchb\000"
 2850      686200
 2851              	.LASF17:
 2852 0344 53797374 		.ascii	"SystemCoreClock\000"
 2852      656D436F 
 2852      7265436C 
 2852      6F636B00 
 2853              	.LASF108:
 2854 0354 5F737464 		.ascii	"_stdout\000"
 2854      6F757400 
 2855              	.LASF120:
 2856 035c 5F637674 		.ascii	"_cvtlen\000"
 2856      6C656E00 
 2857              	.LASF8:
 2858 0364 6C6F6E67 		.ascii	"long unsigned int\000"
 2858      20756E73 
 2858      69676E65 
 2858      6420696E 
 2858      7400
 2859              	.LASF90:
 2860 0376 5F66696C 		.ascii	"_file\000"
 2860      6500
 2861              	.LASF101:
 2862 037c 5F646174 		.ascii	"_data\000"
 2862      6100
 2863              	.LASF129:
 2864 0382 5F6E696F 		.ascii	"_niobs\000"
 2864      627300
 2865              	.LASF128:
 2866 0389 5F676C75 		.ascii	"_glue\000"
 2866      6500
 2867              	.LASF146:
 2868 038f 5F736967 		.ascii	"_signal_buf\000"
 2868      6E616C5F 
 2868      62756600 
 2869              	.LASF137:
 2870 039b 5F617363 		.ascii	"_asctime_buf\000"
 2870      74696D65 
 2870      5F627566 
 2870      00
 2871              	.LASF116:
 2872 03a8 5F726573 		.ascii	"_result\000"
ARM GAS  /tmp/ccMycBjG.s 			page 59


 2872      756C7400 
 2873              	.LASF54:
 2874 03b0 5F5F7763 		.ascii	"__wch\000"
 2874      6800
 2875              	.LASF122:
 2876 03b6 5F6E6577 		.ascii	"_new\000"
 2876      00
 2877              	.LASF102:
 2878 03bb 5F6C6F63 		.ascii	"_lock\000"
 2878      6B00
 2879              	.LASF133:
 2880 03c1 5F6D756C 		.ascii	"_mult\000"
 2880      7400
 2881              	.LASF94:
 2882 03c7 5F777269 		.ascii	"_write\000"
 2882      746500
 2883              	.LASF73:
 2884 03ce 5F5F746D 		.ascii	"__tm_year\000"
 2884      5F796561 
 2884      7200
 2885              	.LASF32:
 2886 03d8 45585449 		.ascii	"EXTI_Trigger_Falling\000"
 2886      5F547269 
 2886      67676572 
 2886      5F46616C 
 2886      6C696E67 
 2887              	.LASF15:
 2888 03ed 73697A65 		.ascii	"sizetype\000"
 2888      74797065 
 2888      00
 2889              	.LASF35:
 2890 03f6 45585449 		.ascii	"EXTI_Line\000"
 2890      5F4C696E 
 2890      6500
 2891              	.LASF43:
 2892 0400 47795F6F 		.ascii	"Gy_offset\000"
 2892      66667365 
 2892      7400
 2893              	.LASF154:
 2894 040a 5F6E6578 		.ascii	"_nextf\000"
 2894      746600
 2895              	.LASF173:
 2896 0411 45585449 		.ascii	"EXTI_InitStruct\000"
 2896      5F496E69 
 2896      74537472 
 2896      75637400 
 2897              	.LASF44:
 2898 0421 477A5F6F 		.ascii	"Gz_offset\000"
 2898      66667365 
 2898      7400
 2899              	.LASF23:
 2900 042b 46756E63 		.ascii	"FunctionalState\000"
 2900      74696F6E 
 2900      616C5374 
 2900      61746500 
 2901              	.LASF72:
 2902 043b 5F5F746D 		.ascii	"__tm_mon\000"
ARM GAS  /tmp/ccMycBjG.s 			page 60


 2902      5F6D6F6E 
 2902      00
 2903              	.LASF82:
 2904 0444 5F617465 		.ascii	"_atexit\000"
 2904      78697400 
 2905              	.LASF114:
 2906 044c 5F5F7364 		.ascii	"__sdidinit\000"
 2906      6964696E 
 2906      697400
 2907              	.LASF139:
 2908 0457 5F67616D 		.ascii	"_gamma_signgam\000"
 2908      6D615F73 
 2908      69676E67 
 2908      616D00
 2909              	.LASF37:
 2910 0466 45585449 		.ascii	"EXTI_Trigger\000"
 2910      5F547269 
 2910      67676572 
 2910      00
 2911              	.LASF24:
 2912 0473 52545352 		.ascii	"RTSR\000"
 2912      00
 2913              	.LASF46:
 2914 0478 666C6F61 		.ascii	"float\000"
 2914      7400
 2915              	.LASF119:
 2916 047e 5F667265 		.ascii	"_freelist\000"
 2916      656C6973 
 2916      7400
 2917              	.LASF47:
 2918 0488 50697463 		.ascii	"Pitch\000"
 2918      6800
 2919              	.LASF50:
 2920 048e 5F4C4F43 		.ascii	"_LOCK_RECURSIVE_T\000"
 2920      4B5F5245 
 2920      43555253 
 2920      4956455F 
 2920      5400
 2921              	.LASF18:
 2922 04a0 52455345 		.ascii	"RESET\000"
 2922      5400
 2923              	.LASF13:
 2924 04a6 696E7433 		.ascii	"int32_t\000"
 2924      325F7400 
 2925              	.LASF1:
 2926 04ae 756E7369 		.ascii	"unsigned char\000"
 2926      676E6564 
 2926      20636861 
 2926      7200
 2927              	.LASF130:
 2928 04bc 5F696F62 		.ascii	"_iobs\000"
 2928      7300
 2929              	.LASF16:
 2930 04c2 49544D5F 		.ascii	"ITM_RxBuffer\000"
 2930      52784275 
 2930      66666572 
 2930      00
ARM GAS  /tmp/ccMycBjG.s 			page 61


 2931              	.LASF25:
 2932 04cf 46545352 		.ascii	"FTSR\000"
 2932      00
 2933              	.LASF153:
 2934 04d4 5F685F65 		.ascii	"_h_errno\000"
 2934      72726E6F 
 2934      00
 2935              	.LASF59:
 2936 04dd 5F666C6F 		.ascii	"_flock_t\000"
 2936      636B5F74 
 2936      00
 2937              	.LASF75:
 2938 04e6 5F5F746D 		.ascii	"__tm_yday\000"
 2938      5F796461 
 2938      7900
 2939              	.LASF85:
 2940 04f0 5F5F7362 		.ascii	"__sbuf\000"
 2940      756600
 2941              	.LASF104:
 2942 04f7 5F666C61 		.ascii	"_flags2\000"
 2942      67733200 
 2943              	.LASF127:
 2944 04ff 5F5F4649 		.ascii	"__FILE\000"
 2944      4C4500
 2945              	.LASF58:
 2946 0506 5F6D6273 		.ascii	"_mbstate_t\000"
 2946      74617465 
 2946      5F7400
 2947              	.LASF88:
 2948 0511 5F5F7346 		.ascii	"__sFILE\000"
 2948      494C4500 
 2949              	.LASF103:
 2950 0519 5F6D6273 		.ascii	"_mbstate\000"
 2950      74617465 
 2950      00
 2951              	.LASF140:
 2952 0522 5F72616E 		.ascii	"_rand_next\000"
 2952      645F6E65 
 2952      787400
 2953              	.LASF142:
 2954 052d 5F6D626C 		.ascii	"_mblen_state\000"
 2954      656E5F73 
 2954      74617465 
 2954      00
 2955              	.LASF110:
 2956 053a 5F696E63 		.ascii	"_inc\000"
 2956      00
 2957              	.LASF83:
 2958 053f 5F696E64 		.ascii	"_ind\000"
 2958      00
 2959              	.LASF113:
 2960 0544 5F637572 		.ascii	"_current_locale\000"
 2960      72656E74 
 2960      5F6C6F63 
 2960      616C6500 
 2961              	.LASF115:
 2962 0554 5F5F636C 		.ascii	"__cleanup\000"
ARM GAS  /tmp/ccMycBjG.s 			page 62


 2962      65616E75 
 2962      7000
 2963              	.LASF63:
 2964 055e 5F6D6178 		.ascii	"_maxwds\000"
 2964      77647300 
 2965              	.LASF105:
 2966 0566 5F726565 		.ascii	"_reent\000"
 2966      6E7400
 2967              	.LASF132:
 2968 056d 5F736565 		.ascii	"_seed\000"
 2968      6400
 2969              	.LASF53:
 2970 0573 77696E74 		.ascii	"wint_t\000"
 2970      5F7400
 2971              	.LASF56:
 2972 057a 5F5F636F 		.ascii	"__count\000"
 2972      756E7400 
 2973              	.LASF57:
 2974 0582 5F5F7661 		.ascii	"__value\000"
 2974      6C756500 
 2975              	.LASF95:
 2976 058a 5F736565 		.ascii	"_seek\000"
 2976      6B00
 2977              	.LASF74:
 2978 0590 5F5F746D 		.ascii	"__tm_wday\000"
 2978      5F776461 
 2978      7900
 2979              	.LASF52:
 2980 059a 5F66706F 		.ascii	"_fpos_t\000"
 2980      735F7400 
 2981              	.LASF49:
 2982 05a2 6C6F6E67 		.ascii	"long double\000"
 2982      20646F75 
 2982      626C6500 
 2983              	.LASF106:
 2984 05ae 5F657272 		.ascii	"_errno\000"
 2984      6E6F00
 2985              	.LASF60:
 2986 05b5 63686172 		.ascii	"char\000"
 2986      00
 2987              	.LASF99:
 2988 05ba 5F626C6B 		.ascii	"_blksize\000"
 2988      73697A65 
 2988      00
 2989              	.LASF160:
 2990 05c3 5F5F6664 		.ascii	"__fdlibm_ieee\000"
 2990      6C69626D 
 2990      5F696565 
 2990      6500
 2991              	.LASF87:
 2992 05d1 5F73697A 		.ascii	"_size\000"
 2992      6500
 2993              	.LASF11:
 2994 05d7 756E7369 		.ascii	"unsigned int\000"
 2994      676E6564 
 2994      20696E74 
 2994      00
ARM GAS  /tmp/ccMycBjG.s 			page 63


 2995              	.LASF166:
 2996 05e4 656E6162 		.ascii	"enablestatus\000"
 2996      6C657374 
 2996      61747573 
 2996      00
 2997              	.LASF5:
 2998 05f1 5F5F696E 		.ascii	"__int32_t\000"
 2998      7433325F 
 2998      7400
 2999              	.LASF48:
 3000 05fb 526F6C6C 		.ascii	"Roll\000"
 3000      00
 3001              	.LASF62:
 3002 0600 5F6E6578 		.ascii	"_next\000"
 3002      7400
 3003              	.LASF39:
 3004 0606 45585449 		.ascii	"EXTI_InitTypeDef\000"
 3004      5F496E69 
 3004      74547970 
 3004      65446566 
 3004      00
 3005              	.LASF80:
 3006 0617 5F666E74 		.ascii	"_fntypes\000"
 3006      79706573 
 3006      00
 3007              	.LASF31:
 3008 0620 45585449 		.ascii	"EXTI_Trigger_Rising\000"
 3008      5F547269 
 3008      67676572 
 3008      5F526973 
 3008      696E6700 
 3009              	.LASF34:
 3010 0634 45585449 		.ascii	"EXTITrigger_TypeDef\000"
 3010      54726967 
 3010      6765725F 
 3010      54797065 
 3010      44656600 
 3011              	.LASF134:
 3012 0648 5F616464 		.ascii	"_add\000"
 3012      00
 3013              	.LASF61:
 3014 064d 5F5F554C 		.ascii	"__ULong\000"
 3014      6F6E6700 
 3015              	.LASF147:
 3016 0655 5F676574 		.ascii	"_getdate_err\000"
 3016      64617465 
 3016      5F657272 
 3016      00
 3017              	.LASF178:
 3018 0662 5F5F6664 		.ascii	"__fdlibm_version\000"
 3018      6C69626D 
 3018      5F766572 
 3018      73696F6E 
 3018      00
 3019              	.LASF158:
 3020 0673 5F676C6F 		.ascii	"_global_impure_ptr\000"
 3020      62616C5F 
ARM GAS  /tmp/ccMycBjG.s 			page 64


 3020      696D7075 
 3020      72655F70 
 3020      747200
 3021              	.LASF112:
 3022 0686 5F637572 		.ascii	"_current_category\000"
 3022      72656E74 
 3022      5F636174 
 3022      65676F72 
 3022      7900
 3023              	.LASF28:
 3024 0698 45585449 		.ascii	"EXTI_Mode_Interrupt\000"
 3024      5F4D6F64 
 3024      655F496E 
 3024      74657272 
 3024      75707400 
 3025              	.LASF135:
 3026 06ac 5F756E75 		.ascii	"_unused_rand\000"
 3026      7365645F 
 3026      72616E64 
 3026      00
 3027              	.LASF175:
 3028 06b9 474E5520 		.ascii	"GNU C11 6.1.1 20160526 -mcpu=cortex-m3 -mthumb -g -"
 3028      43313120 
 3028      362E312E 
 3028      31203230 
 3028      31363035 
 3029 06ec 666E6F2D 		.ascii	"fno-common\000"
 3029      636F6D6D 
 3029      6F6E00
 3030              	.LASF65:
 3031 06f7 5F776473 		.ascii	"_wds\000"
 3031      00
 3032              	.LASF179:
 3033 06fc 45585449 		.ascii	"EXTI_DeInit\000"
 3033      5F446549 
 3033      6E697400 
 3034              	.LASF89:
 3035 0708 5F666C61 		.ascii	"_flags\000"
 3035      677300
 3036              	.LASF155:
 3037 070f 5F6E6D61 		.ascii	"_nmalloc\000"
 3037      6C6C6F63 
 3037      00
 3038              	.LASF145:
 3039 0718 5F6C3634 		.ascii	"_l64a_buf\000"
 3039      615F6275 
 3039      6600
 3040              	.LASF124:
 3041 0722 5F736967 		.ascii	"_sig_func\000"
 3041      5F66756E 
 3041      6300
 3042              	.LASF29:
 3043 072c 45585449 		.ascii	"EXTI_Mode_Event\000"
 3043      5F4D6F64 
 3043      655F4576 
 3043      656E7400 
 3044              	.LASF4:
ARM GAS  /tmp/ccMycBjG.s 			page 65


 3045 073c 5F5F696E 		.ascii	"__int16_t\000"
 3045      7431365F 
 3045      7400
 3046              	.LASF98:
 3047 0746 5F6E6275 		.ascii	"_nbuf\000"
 3047      6600
 3048              	.LASF156:
 3049 074c 5F756E75 		.ascii	"_unused\000"
 3049      73656400 
 3050              	.LASF76:
 3051 0754 5F5F746D 		.ascii	"__tm_isdst\000"
 3051      5F697364 
 3051      737400
 3052              	.LASF138:
 3053 075f 5F6C6F63 		.ascii	"_localtime_buf\000"
 3053      616C7469 
 3053      6D655F62 
 3053      756600
 3054              	.LASF69:
 3055 076e 5F5F746D 		.ascii	"__tm_min\000"
 3055      5F6D696E 
 3055      00
 3056              	.LASF141:
 3057 0777 5F723438 		.ascii	"_r48\000"
 3057      00
 3058              	.LASF21:
 3059 077c 44495341 		.ascii	"DISABLE\000"
 3059      424C4500 
 3060              	.LASF27:
 3061 0784 45585449 		.ascii	"EXTI_TypeDef\000"
 3061      5F547970 
 3061      65446566 
 3061      00
 3062              	.LASF143:
 3063 0791 5F6D6274 		.ascii	"_mbtowc_state\000"
 3063      6F77635F 
 3063      73746174 
 3063      6500
 3064              	.LASF118:
 3065 079f 5F703573 		.ascii	"_p5s\000"
 3065      00
 3066              	.LASF41:
 3067 07a4 61636365 		.ascii	"accel\000"
 3067      6C00
 3068              	.LASF14:
 3069 07aa 75696E74 		.ascii	"uint32_t\000"
 3069      33325F74 
 3069      00
 3070              	.LASF71:
 3071 07b3 5F5F746D 		.ascii	"__tm_mday\000"
 3071      5F6D6461 
 3071      7900
 3072              	.LASF168:
 3073 07bd 45585449 		.ascii	"EXTI_ClearFlag\000"
 3073      5F436C65 
 3073      6172466C 
 3073      616700
ARM GAS  /tmp/ccMycBjG.s 			page 66


 3074              		.ident	"GCC: (Arch Repository) 6.1.1 20160526"
ARM GAS  /tmp/ccMycBjG.s 			page 67


DEFINED SYMBOLS
                            *ABS*:0000000000000000 stm32f10x_exti.c
     /tmp/ccMycBjG.s:15     .text:0000000000000000 $t
     /tmp/ccMycBjG.s:22     .text:0000000000000000 EXTI_DeInit
     /tmp/ccMycBjG.s:67     .text:000000000000002c $d
     /tmp/ccMycBjG.s:72     .text:0000000000000034 $t
     /tmp/ccMycBjG.s:79     .text:0000000000000034 EXTI_Init
     /tmp/ccMycBjG.s:232    .text:0000000000000114 $d
     /tmp/ccMycBjG.s:236    .text:0000000000000118 $t
     /tmp/ccMycBjG.s:243    .text:0000000000000118 EXTI_StructInit
     /tmp/ccMycBjG.s:295    .text:0000000000000142 EXTI_GenerateSWInterrupt
     /tmp/ccMycBjG.s:331    .text:0000000000000160 $d
     /tmp/ccMycBjG.s:335    .text:0000000000000164 $t
     /tmp/ccMycBjG.s:342    .text:0000000000000164 EXTI_GetFlagStatus
     /tmp/ccMycBjG.s:392    .text:0000000000000194 $d
     /tmp/ccMycBjG.s:396    .text:0000000000000198 $t
     /tmp/ccMycBjG.s:403    .text:0000000000000198 EXTI_ClearFlag
     /tmp/ccMycBjG.s:436    .text:00000000000001b0 $d
     /tmp/ccMycBjG.s:440    .text:00000000000001b4 $t
     /tmp/ccMycBjG.s:447    .text:00000000000001b4 EXTI_GetITStatus
     /tmp/ccMycBjG.s:510    .text:00000000000001f8 $d
     /tmp/ccMycBjG.s:514    .text:00000000000001fc $t
     /tmp/ccMycBjG.s:521    .text:00000000000001fc EXTI_ClearITPendingBit
     /tmp/ccMycBjG.s:554    .text:0000000000000214 $d
                     .debug_frame:0000000000000010 $d

NO UNDEFINED SYMBOLS
