ARM GAS  /tmp/ccAKmUN2.s 			page 1


   1              		.cpu cortex-m3
   2              		.eabi_attribute 20, 1
   3              		.eabi_attribute 21, 1
   4              		.eabi_attribute 23, 3
   5              		.eabi_attribute 24, 1
   6              		.eabi_attribute 25, 1
   7              		.eabi_attribute 26, 1
   8              		.eabi_attribute 30, 1
   9              		.eabi_attribute 34, 1
  10              		.eabi_attribute 18, 4
  11              		.file	"stm32f10x_gpio.c"
  12              		.text
  13              	.Ltext0:
  14              		.cfi_sections	.debug_frame
  15              		.align	1
  16              		.global	GPIO_DeInit
  17              		.syntax unified
  18              		.thumb
  19              		.thumb_func
  20              		.fpu softvfp
  21              		.type	GPIO_DeInit, %function
  22              	GPIO_DeInit:
  23              	.LFB64:
  24              		.file 1 "lib/src/stm32f10x_gpio.c"
   1:lib/src/stm32f10x_gpio.c **** /**
   2:lib/src/stm32f10x_gpio.c ****   ******************************************************************************
   3:lib/src/stm32f10x_gpio.c ****   * @file    stm32f10x_gpio.c
   4:lib/src/stm32f10x_gpio.c ****   * @author  MCD Application Team
   5:lib/src/stm32f10x_gpio.c ****   * @version V3.5.0
   6:lib/src/stm32f10x_gpio.c ****   * @date    11-March-2011
   7:lib/src/stm32f10x_gpio.c ****   * @brief   This file provides all the GPIO firmware functions.
   8:lib/src/stm32f10x_gpio.c ****   ******************************************************************************
   9:lib/src/stm32f10x_gpio.c ****   * @attention
  10:lib/src/stm32f10x_gpio.c ****   *
  11:lib/src/stm32f10x_gpio.c ****   * THE PRESENT FIRMWARE WHICH IS FOR GUIDANCE ONLY AIMS AT PROVIDING CUSTOMERS
  12:lib/src/stm32f10x_gpio.c ****   * WITH CODING INFORMATION REGARDING THEIR PRODUCTS IN ORDER FOR THEM TO SAVE
  13:lib/src/stm32f10x_gpio.c ****   * TIME. AS A RESULT, STMICROELECTRONICS SHALL NOT BE HELD LIABLE FOR ANY
  14:lib/src/stm32f10x_gpio.c ****   * DIRECT, INDIRECT OR CONSEQUENTIAL DAMAGES WITH RESPECT TO ANY CLAIMS ARISING
  15:lib/src/stm32f10x_gpio.c ****   * FROM THE CONTENT OF SUCH FIRMWARE AND/OR THE USE MADE BY CUSTOMERS OF THE
  16:lib/src/stm32f10x_gpio.c ****   * CODING INFORMATION CONTAINED HEREIN IN CONNECTION WITH THEIR PRODUCTS.
  17:lib/src/stm32f10x_gpio.c ****   *
  18:lib/src/stm32f10x_gpio.c ****   * <h2><center>&copy; COPYRIGHT 2011 STMicroelectronics</center></h2>
  19:lib/src/stm32f10x_gpio.c ****   ******************************************************************************
  20:lib/src/stm32f10x_gpio.c ****   */
  21:lib/src/stm32f10x_gpio.c **** 
  22:lib/src/stm32f10x_gpio.c **** /* Includes ------------------------------------------------------------------*/
  23:lib/src/stm32f10x_gpio.c **** #include "stm32f10x_gpio.h"
  24:lib/src/stm32f10x_gpio.c **** #include "stm32f10x_rcc.h"
  25:lib/src/stm32f10x_gpio.c **** #include "conf.h"
  26:lib/src/stm32f10x_gpio.c **** 
  27:lib/src/stm32f10x_gpio.c **** /** @addtogroup STM32F10x_StdPeriph_Driver
  28:lib/src/stm32f10x_gpio.c ****   * @{
  29:lib/src/stm32f10x_gpio.c ****   */
  30:lib/src/stm32f10x_gpio.c **** 
  31:lib/src/stm32f10x_gpio.c **** /** @defgroup GPIO 
  32:lib/src/stm32f10x_gpio.c ****   * @brief GPIO driver modules
  33:lib/src/stm32f10x_gpio.c ****   * @{
ARM GAS  /tmp/ccAKmUN2.s 			page 2


  34:lib/src/stm32f10x_gpio.c ****   */ 
  35:lib/src/stm32f10x_gpio.c **** 
  36:lib/src/stm32f10x_gpio.c **** /** @defgroup GPIO_Private_TypesDefinitions
  37:lib/src/stm32f10x_gpio.c ****   * @{
  38:lib/src/stm32f10x_gpio.c ****   */
  39:lib/src/stm32f10x_gpio.c **** 
  40:lib/src/stm32f10x_gpio.c **** /**
  41:lib/src/stm32f10x_gpio.c ****   * @}
  42:lib/src/stm32f10x_gpio.c ****   */
  43:lib/src/stm32f10x_gpio.c **** 
  44:lib/src/stm32f10x_gpio.c **** /** @defgroup GPIO_Private_Defines
  45:lib/src/stm32f10x_gpio.c ****   * @{
  46:lib/src/stm32f10x_gpio.c ****   */
  47:lib/src/stm32f10x_gpio.c **** 
  48:lib/src/stm32f10x_gpio.c **** /* ------------ RCC registers bit address in the alias region ----------------*/
  49:lib/src/stm32f10x_gpio.c **** #define AFIO_OFFSET                 (AFIO_BASE - PERIPH_BASE)
  50:lib/src/stm32f10x_gpio.c **** 
  51:lib/src/stm32f10x_gpio.c **** /* --- EVENTCR Register -----*/
  52:lib/src/stm32f10x_gpio.c **** 
  53:lib/src/stm32f10x_gpio.c **** /* Alias word address of EVOE bit */
  54:lib/src/stm32f10x_gpio.c **** #define EVCR_OFFSET                 (AFIO_OFFSET + 0x00)
  55:lib/src/stm32f10x_gpio.c **** #define EVOE_BitNumber              ((uint8_t)0x07)
  56:lib/src/stm32f10x_gpio.c **** #define EVCR_EVOE_BB                (PERIPH_BB_BASE + (EVCR_OFFSET * 32) + (EVOE_BitNumber * 4))
  57:lib/src/stm32f10x_gpio.c **** 
  58:lib/src/stm32f10x_gpio.c **** 
  59:lib/src/stm32f10x_gpio.c **** /* ---  MAPR Register ---*/ 
  60:lib/src/stm32f10x_gpio.c **** /* Alias word address of MII_RMII_SEL bit */ 
  61:lib/src/stm32f10x_gpio.c **** #define MAPR_OFFSET                 (AFIO_OFFSET + 0x04) 
  62:lib/src/stm32f10x_gpio.c **** #define MII_RMII_SEL_BitNumber      ((u8)0x17) 
  63:lib/src/stm32f10x_gpio.c **** #define MAPR_MII_RMII_SEL_BB        (PERIPH_BB_BASE + (MAPR_OFFSET * 32) + (MII_RMII_SEL_BitNumber 
  64:lib/src/stm32f10x_gpio.c **** 
  65:lib/src/stm32f10x_gpio.c **** 
  66:lib/src/stm32f10x_gpio.c **** #define EVCR_PORTPINCONFIG_MASK     ((uint16_t)0xFF80)
  67:lib/src/stm32f10x_gpio.c **** #define LSB_MASK                    ((uint16_t)0xFFFF)
  68:lib/src/stm32f10x_gpio.c **** #define DBGAFR_POSITION_MASK        ((uint32_t)0x000F0000)
  69:lib/src/stm32f10x_gpio.c **** #define DBGAFR_SWJCFG_MASK          ((uint32_t)0xF0FFFFFF)
  70:lib/src/stm32f10x_gpio.c **** #define DBGAFR_LOCATION_MASK        ((uint32_t)0x00200000)
  71:lib/src/stm32f10x_gpio.c **** #define DBGAFR_NUMBITS_MASK         ((uint32_t)0x00100000)
  72:lib/src/stm32f10x_gpio.c **** /**
  73:lib/src/stm32f10x_gpio.c ****   * @}
  74:lib/src/stm32f10x_gpio.c ****   */
  75:lib/src/stm32f10x_gpio.c **** 
  76:lib/src/stm32f10x_gpio.c **** /** @defgroup GPIO_Private_Macros
  77:lib/src/stm32f10x_gpio.c ****   * @{
  78:lib/src/stm32f10x_gpio.c ****   */
  79:lib/src/stm32f10x_gpio.c **** 
  80:lib/src/stm32f10x_gpio.c **** /**
  81:lib/src/stm32f10x_gpio.c ****   * @}
  82:lib/src/stm32f10x_gpio.c ****   */
  83:lib/src/stm32f10x_gpio.c **** 
  84:lib/src/stm32f10x_gpio.c **** /** @defgroup GPIO_Private_Variables
  85:lib/src/stm32f10x_gpio.c ****   * @{
  86:lib/src/stm32f10x_gpio.c ****   */
  87:lib/src/stm32f10x_gpio.c **** 
  88:lib/src/stm32f10x_gpio.c **** /**
  89:lib/src/stm32f10x_gpio.c ****   * @}
  90:lib/src/stm32f10x_gpio.c ****   */
ARM GAS  /tmp/ccAKmUN2.s 			page 3


  91:lib/src/stm32f10x_gpio.c **** 
  92:lib/src/stm32f10x_gpio.c **** /** @defgroup GPIO_Private_FunctionPrototypes
  93:lib/src/stm32f10x_gpio.c ****   * @{
  94:lib/src/stm32f10x_gpio.c ****   */
  95:lib/src/stm32f10x_gpio.c **** 
  96:lib/src/stm32f10x_gpio.c **** /**
  97:lib/src/stm32f10x_gpio.c ****   * @}
  98:lib/src/stm32f10x_gpio.c ****   */
  99:lib/src/stm32f10x_gpio.c **** 
 100:lib/src/stm32f10x_gpio.c **** /** @defgroup GPIO_Private_Functions
 101:lib/src/stm32f10x_gpio.c ****   * @{
 102:lib/src/stm32f10x_gpio.c ****   */
 103:lib/src/stm32f10x_gpio.c **** 
 104:lib/src/stm32f10x_gpio.c **** /**
 105:lib/src/stm32f10x_gpio.c ****   * @brief  Deinitializes the GPIOx peripheral registers to their default reset values.
 106:lib/src/stm32f10x_gpio.c ****   * @param  GPIOx: where x can be (A..G) to select the GPIO peripheral.
 107:lib/src/stm32f10x_gpio.c ****   * @retval None
 108:lib/src/stm32f10x_gpio.c ****   */
 109:lib/src/stm32f10x_gpio.c **** void GPIO_DeInit(GPIO_TypeDef* GPIOx)
 110:lib/src/stm32f10x_gpio.c **** {
  25              		.loc 1 110 0
  26              		.cfi_startproc
  27              		@ args = 0, pretend = 0, frame = 0
  28              		@ frame_needed = 0, uses_anonymous_args = 0
  29              	.LVL0:
  30 0000 08B5     		push	{r3, lr}
  31              		.cfi_def_cfa_offset 8
  32              		.cfi_offset 3, -8
  33              		.cfi_offset 14, -4
 111:lib/src/stm32f10x_gpio.c ****   /* Check the parameters */
 112:lib/src/stm32f10x_gpio.c ****   assert_param(IS_GPIO_ALL_PERIPH(GPIOx));
 113:lib/src/stm32f10x_gpio.c ****   
 114:lib/src/stm32f10x_gpio.c ****   if (GPIOx == GPIOA)
  34              		.loc 1 114 0
  35 0002 2B4B     		ldr	r3, .L17
  36 0004 9842     		cmp	r0, r3
  37 0006 12D0     		beq	.L10
 115:lib/src/stm32f10x_gpio.c ****   {
 116:lib/src/stm32f10x_gpio.c ****     RCC_APB2PeriphResetCmd(RCC_APB2Periph_GPIOA, ENABLE);
 117:lib/src/stm32f10x_gpio.c ****     RCC_APB2PeriphResetCmd(RCC_APB2Periph_GPIOA, DISABLE);
 118:lib/src/stm32f10x_gpio.c ****   }
 119:lib/src/stm32f10x_gpio.c ****   else if (GPIOx == GPIOB)
  38              		.loc 1 119 0
  39 0008 2A4B     		ldr	r3, .L17+4
  40 000a 9842     		cmp	r0, r3
  41 000c 18D0     		beq	.L11
 120:lib/src/stm32f10x_gpio.c ****   {
 121:lib/src/stm32f10x_gpio.c ****     RCC_APB2PeriphResetCmd(RCC_APB2Periph_GPIOB, ENABLE);
 122:lib/src/stm32f10x_gpio.c ****     RCC_APB2PeriphResetCmd(RCC_APB2Periph_GPIOB, DISABLE);
 123:lib/src/stm32f10x_gpio.c ****   }
 124:lib/src/stm32f10x_gpio.c ****   else if (GPIOx == GPIOC)
  42              		.loc 1 124 0
  43 000e 2A4B     		ldr	r3, .L17+8
  44 0010 9842     		cmp	r0, r3
  45 0012 1ED0     		beq	.L12
 125:lib/src/stm32f10x_gpio.c ****   {
 126:lib/src/stm32f10x_gpio.c ****     RCC_APB2PeriphResetCmd(RCC_APB2Periph_GPIOC, ENABLE);
ARM GAS  /tmp/ccAKmUN2.s 			page 4


 127:lib/src/stm32f10x_gpio.c ****     RCC_APB2PeriphResetCmd(RCC_APB2Periph_GPIOC, DISABLE);
 128:lib/src/stm32f10x_gpio.c ****   }
 129:lib/src/stm32f10x_gpio.c ****   else if (GPIOx == GPIOD)
  46              		.loc 1 129 0
  47 0014 294B     		ldr	r3, .L17+12
  48 0016 9842     		cmp	r0, r3
  49 0018 24D0     		beq	.L13
 130:lib/src/stm32f10x_gpio.c ****   {
 131:lib/src/stm32f10x_gpio.c ****     RCC_APB2PeriphResetCmd(RCC_APB2Periph_GPIOD, ENABLE);
 132:lib/src/stm32f10x_gpio.c ****     RCC_APB2PeriphResetCmd(RCC_APB2Periph_GPIOD, DISABLE);
 133:lib/src/stm32f10x_gpio.c ****   }    
 134:lib/src/stm32f10x_gpio.c ****   else if (GPIOx == GPIOE)
  50              		.loc 1 134 0
  51 001a 294B     		ldr	r3, .L17+16
  52 001c 9842     		cmp	r0, r3
  53 001e 2AD0     		beq	.L14
 135:lib/src/stm32f10x_gpio.c ****   {
 136:lib/src/stm32f10x_gpio.c ****     RCC_APB2PeriphResetCmd(RCC_APB2Periph_GPIOE, ENABLE);
 137:lib/src/stm32f10x_gpio.c ****     RCC_APB2PeriphResetCmd(RCC_APB2Periph_GPIOE, DISABLE);
 138:lib/src/stm32f10x_gpio.c ****   } 
 139:lib/src/stm32f10x_gpio.c ****   else if (GPIOx == GPIOF)
  54              		.loc 1 139 0
  55 0020 284B     		ldr	r3, .L17+20
  56 0022 9842     		cmp	r0, r3
  57 0024 30D0     		beq	.L15
 140:lib/src/stm32f10x_gpio.c ****   {
 141:lib/src/stm32f10x_gpio.c ****     RCC_APB2PeriphResetCmd(RCC_APB2Periph_GPIOF, ENABLE);
 142:lib/src/stm32f10x_gpio.c ****     RCC_APB2PeriphResetCmd(RCC_APB2Periph_GPIOF, DISABLE);
 143:lib/src/stm32f10x_gpio.c ****   }
 144:lib/src/stm32f10x_gpio.c ****   else
 145:lib/src/stm32f10x_gpio.c ****   {
 146:lib/src/stm32f10x_gpio.c ****     if (GPIOx == GPIOG)
  58              		.loc 1 146 0
  59 0026 284B     		ldr	r3, .L17+24
  60 0028 9842     		cmp	r0, r3
  61 002a 36D0     		beq	.L16
  62              	.LVL1:
  63              	.L1:
  64 002c 08BD     		pop	{r3, pc}
  65              	.LVL2:
  66              	.L10:
 116:lib/src/stm32f10x_gpio.c ****     RCC_APB2PeriphResetCmd(RCC_APB2Periph_GPIOA, DISABLE);
  67              		.loc 1 116 0
  68 002e 0121     		movs	r1, #1
  69 0030 0420     		movs	r0, #4
  70              	.LVL3:
  71 0032 FFF7FEFF 		bl	RCC_APB2PeriphResetCmd
  72              	.LVL4:
 117:lib/src/stm32f10x_gpio.c ****   }
  73              		.loc 1 117 0
  74 0036 0021     		movs	r1, #0
  75 0038 0420     		movs	r0, #4
  76 003a FFF7FEFF 		bl	RCC_APB2PeriphResetCmd
  77              	.LVL5:
  78 003e 08BD     		pop	{r3, pc}
  79              	.LVL6:
  80              	.L11:
ARM GAS  /tmp/ccAKmUN2.s 			page 5


 121:lib/src/stm32f10x_gpio.c ****     RCC_APB2PeriphResetCmd(RCC_APB2Periph_GPIOB, DISABLE);
  81              		.loc 1 121 0
  82 0040 0121     		movs	r1, #1
  83 0042 0820     		movs	r0, #8
  84              	.LVL7:
  85 0044 FFF7FEFF 		bl	RCC_APB2PeriphResetCmd
  86              	.LVL8:
 122:lib/src/stm32f10x_gpio.c ****   }
  87              		.loc 1 122 0
  88 0048 0021     		movs	r1, #0
  89 004a 0820     		movs	r0, #8
  90 004c FFF7FEFF 		bl	RCC_APB2PeriphResetCmd
  91              	.LVL9:
  92 0050 08BD     		pop	{r3, pc}
  93              	.LVL10:
  94              	.L12:
 126:lib/src/stm32f10x_gpio.c ****     RCC_APB2PeriphResetCmd(RCC_APB2Periph_GPIOC, DISABLE);
  95              		.loc 1 126 0
  96 0052 0121     		movs	r1, #1
  97 0054 1020     		movs	r0, #16
  98              	.LVL11:
  99 0056 FFF7FEFF 		bl	RCC_APB2PeriphResetCmd
 100              	.LVL12:
 127:lib/src/stm32f10x_gpio.c ****   }
 101              		.loc 1 127 0
 102 005a 0021     		movs	r1, #0
 103 005c 1020     		movs	r0, #16
 104 005e FFF7FEFF 		bl	RCC_APB2PeriphResetCmd
 105              	.LVL13:
 106 0062 08BD     		pop	{r3, pc}
 107              	.LVL14:
 108              	.L13:
 131:lib/src/stm32f10x_gpio.c ****     RCC_APB2PeriphResetCmd(RCC_APB2Periph_GPIOD, DISABLE);
 109              		.loc 1 131 0
 110 0064 0121     		movs	r1, #1
 111 0066 2020     		movs	r0, #32
 112              	.LVL15:
 113 0068 FFF7FEFF 		bl	RCC_APB2PeriphResetCmd
 114              	.LVL16:
 132:lib/src/stm32f10x_gpio.c ****   }    
 115              		.loc 1 132 0
 116 006c 0021     		movs	r1, #0
 117 006e 2020     		movs	r0, #32
 118 0070 FFF7FEFF 		bl	RCC_APB2PeriphResetCmd
 119              	.LVL17:
 120 0074 08BD     		pop	{r3, pc}
 121              	.LVL18:
 122              	.L14:
 136:lib/src/stm32f10x_gpio.c ****     RCC_APB2PeriphResetCmd(RCC_APB2Periph_GPIOE, DISABLE);
 123              		.loc 1 136 0
 124 0076 0121     		movs	r1, #1
 125 0078 4020     		movs	r0, #64
 126              	.LVL19:
 127 007a FFF7FEFF 		bl	RCC_APB2PeriphResetCmd
 128              	.LVL20:
 137:lib/src/stm32f10x_gpio.c ****   } 
 129              		.loc 1 137 0
ARM GAS  /tmp/ccAKmUN2.s 			page 6


 130 007e 0021     		movs	r1, #0
 131 0080 4020     		movs	r0, #64
 132 0082 FFF7FEFF 		bl	RCC_APB2PeriphResetCmd
 133              	.LVL21:
 134 0086 08BD     		pop	{r3, pc}
 135              	.LVL22:
 136              	.L15:
 141:lib/src/stm32f10x_gpio.c ****     RCC_APB2PeriphResetCmd(RCC_APB2Periph_GPIOF, DISABLE);
 137              		.loc 1 141 0
 138 0088 0121     		movs	r1, #1
 139 008a 8020     		movs	r0, #128
 140              	.LVL23:
 141 008c FFF7FEFF 		bl	RCC_APB2PeriphResetCmd
 142              	.LVL24:
 142:lib/src/stm32f10x_gpio.c ****   }
 143              		.loc 1 142 0
 144 0090 0021     		movs	r1, #0
 145 0092 8020     		movs	r0, #128
 146 0094 FFF7FEFF 		bl	RCC_APB2PeriphResetCmd
 147              	.LVL25:
 148 0098 08BD     		pop	{r3, pc}
 149              	.LVL26:
 150              	.L16:
 147:lib/src/stm32f10x_gpio.c ****     {
 148:lib/src/stm32f10x_gpio.c ****       RCC_APB2PeriphResetCmd(RCC_APB2Periph_GPIOG, ENABLE);
 151              		.loc 1 148 0
 152 009a 0121     		movs	r1, #1
 153 009c 4FF48070 		mov	r0, #256
 154              	.LVL27:
 155 00a0 FFF7FEFF 		bl	RCC_APB2PeriphResetCmd
 156              	.LVL28:
 149:lib/src/stm32f10x_gpio.c ****       RCC_APB2PeriphResetCmd(RCC_APB2Periph_GPIOG, DISABLE);
 157              		.loc 1 149 0
 158 00a4 0021     		movs	r1, #0
 159 00a6 4FF48070 		mov	r0, #256
 160 00aa FFF7FEFF 		bl	RCC_APB2PeriphResetCmd
 161              	.LVL29:
 150:lib/src/stm32f10x_gpio.c ****     }
 151:lib/src/stm32f10x_gpio.c ****   }
 152:lib/src/stm32f10x_gpio.c **** }
 162              		.loc 1 152 0
 163 00ae BDE7     		b	.L1
 164              	.L18:
 165              		.align	2
 166              	.L17:
 167 00b0 00080140 		.word	1073809408
 168 00b4 000C0140 		.word	1073810432
 169 00b8 00100140 		.word	1073811456
 170 00bc 00140140 		.word	1073812480
 171 00c0 00180140 		.word	1073813504
 172 00c4 001C0140 		.word	1073814528
 173 00c8 00200140 		.word	1073815552
 174              		.cfi_endproc
 175              	.LFE64:
 176              		.size	GPIO_DeInit, .-GPIO_DeInit
 177              		.align	1
 178              		.global	GPIO_AFIODeInit
ARM GAS  /tmp/ccAKmUN2.s 			page 7


 179              		.syntax unified
 180              		.thumb
 181              		.thumb_func
 182              		.fpu softvfp
 183              		.type	GPIO_AFIODeInit, %function
 184              	GPIO_AFIODeInit:
 185              	.LFB65:
 153:lib/src/stm32f10x_gpio.c **** 
 154:lib/src/stm32f10x_gpio.c **** /**
 155:lib/src/stm32f10x_gpio.c ****   * @brief  Deinitializes the Alternate Functions (remap, event control
 156:lib/src/stm32f10x_gpio.c ****   *   and EXTI configuration) registers to their default reset values.
 157:lib/src/stm32f10x_gpio.c ****   * @param  None
 158:lib/src/stm32f10x_gpio.c ****   * @retval None
 159:lib/src/stm32f10x_gpio.c ****   */
 160:lib/src/stm32f10x_gpio.c **** void GPIO_AFIODeInit(void)
 161:lib/src/stm32f10x_gpio.c **** {
 186              		.loc 1 161 0
 187              		.cfi_startproc
 188              		@ args = 0, pretend = 0, frame = 0
 189              		@ frame_needed = 0, uses_anonymous_args = 0
 190 00cc 08B5     		push	{r3, lr}
 191              		.cfi_def_cfa_offset 8
 192              		.cfi_offset 3, -8
 193              		.cfi_offset 14, -4
 162:lib/src/stm32f10x_gpio.c ****   RCC_APB2PeriphResetCmd(RCC_APB2Periph_AFIO, ENABLE);
 194              		.loc 1 162 0
 195 00ce 0121     		movs	r1, #1
 196 00d0 0846     		mov	r0, r1
 197 00d2 FFF7FEFF 		bl	RCC_APB2PeriphResetCmd
 198              	.LVL30:
 163:lib/src/stm32f10x_gpio.c ****   RCC_APB2PeriphResetCmd(RCC_APB2Periph_AFIO, DISABLE);
 199              		.loc 1 163 0
 200 00d6 0021     		movs	r1, #0
 201 00d8 0120     		movs	r0, #1
 202 00da FFF7FEFF 		bl	RCC_APB2PeriphResetCmd
 203              	.LVL31:
 204 00de 08BD     		pop	{r3, pc}
 205              		.cfi_endproc
 206              	.LFE65:
 207              		.size	GPIO_AFIODeInit, .-GPIO_AFIODeInit
 208              		.align	1
 209              		.global	GPIO_Init
 210              		.syntax unified
 211              		.thumb
 212              		.thumb_func
 213              		.fpu softvfp
 214              		.type	GPIO_Init, %function
 215              	GPIO_Init:
 216              	.LFB66:
 164:lib/src/stm32f10x_gpio.c **** }
 165:lib/src/stm32f10x_gpio.c **** 
 166:lib/src/stm32f10x_gpio.c **** /**
 167:lib/src/stm32f10x_gpio.c ****   * @brief  Initializes the GPIOx peripheral according to the specified
 168:lib/src/stm32f10x_gpio.c ****   *         parameters in the GPIO_InitStruct.
 169:lib/src/stm32f10x_gpio.c ****   * @param  GPIOx: where x can be (A..G) to select the GPIO peripheral.
 170:lib/src/stm32f10x_gpio.c ****   * @param  GPIO_InitStruct: pointer to a GPIO_InitTypeDef structure that
 171:lib/src/stm32f10x_gpio.c ****   *         contains the configuration information for the specified GPIO peripheral.
ARM GAS  /tmp/ccAKmUN2.s 			page 8


 172:lib/src/stm32f10x_gpio.c ****   * @retval None
 173:lib/src/stm32f10x_gpio.c ****   */
 174:lib/src/stm32f10x_gpio.c **** void GPIO_Init(GPIO_TypeDef* GPIOx, GPIO_InitTypeDef* GPIO_InitStruct)
 175:lib/src/stm32f10x_gpio.c **** {
 217              		.loc 1 175 0
 218              		.cfi_startproc
 219              		@ args = 0, pretend = 0, frame = 0
 220              		@ frame_needed = 0, uses_anonymous_args = 0
 221              	.LVL32:
 222 00e0 F0B5     		push	{r4, r5, r6, r7, lr}
 223              		.cfi_def_cfa_offset 20
 224              		.cfi_offset 4, -20
 225              		.cfi_offset 5, -16
 226              		.cfi_offset 6, -12
 227              		.cfi_offset 7, -8
 228              		.cfi_offset 14, -4
 229              	.LVL33:
 176:lib/src/stm32f10x_gpio.c ****   uint32_t currentmode = 0x00, currentpin = 0x00, pinpos = 0x00, pos = 0x00;
 177:lib/src/stm32f10x_gpio.c ****   uint32_t tmpreg = 0x00, pinmask = 0x00;
 178:lib/src/stm32f10x_gpio.c ****   /* Check the parameters */
 179:lib/src/stm32f10x_gpio.c ****   assert_param(IS_GPIO_ALL_PERIPH(GPIOx));
 180:lib/src/stm32f10x_gpio.c ****   assert_param(IS_GPIO_MODE(GPIO_InitStruct->GPIO_Mode));
 181:lib/src/stm32f10x_gpio.c ****   assert_param(IS_GPIO_PIN(GPIO_InitStruct->GPIO_Pin));  
 182:lib/src/stm32f10x_gpio.c ****   
 183:lib/src/stm32f10x_gpio.c **** /*---------------------------- GPIO Mode Configuration -----------------------*/
 184:lib/src/stm32f10x_gpio.c ****   currentmode = ((uint32_t)GPIO_InitStruct->GPIO_Mode) & ((uint32_t)0x0F);
 230              		.loc 1 184 0
 231 00e2 CB78     		ldrb	r3, [r1, #3]	@ zero_extendqisi2
 232 00e4 03F00F07 		and	r7, r3, #15
 233              	.LVL34:
 185:lib/src/stm32f10x_gpio.c ****   if ((((uint32_t)GPIO_InitStruct->GPIO_Mode) & ((uint32_t)0x10)) != 0x00)
 234              		.loc 1 185 0
 235 00e8 13F0100F 		tst	r3, #16
 236 00ec 1CBF     		itt	ne
 237 00ee 8B78     		ldrbne	r3, [r1, #2]	@ zero_extendqisi2
 238              	.LVL35:
 239 00f0 1F43     		orrne	r7, r7, r3
 240              	.LVL36:
 186:lib/src/stm32f10x_gpio.c ****   { 
 187:lib/src/stm32f10x_gpio.c ****     /* Check the parameters */
 188:lib/src/stm32f10x_gpio.c ****     assert_param(IS_GPIO_SPEED(GPIO_InitStruct->GPIO_Speed));
 189:lib/src/stm32f10x_gpio.c ****     /* Output mode */
 190:lib/src/stm32f10x_gpio.c ****     currentmode |= (uint32_t)GPIO_InitStruct->GPIO_Speed;
 191:lib/src/stm32f10x_gpio.c ****   }
 192:lib/src/stm32f10x_gpio.c **** /*---------------------------- GPIO CRL Configuration ------------------------*/
 193:lib/src/stm32f10x_gpio.c ****   /* Configure the eight low port pins */
 194:lib/src/stm32f10x_gpio.c ****   if (((uint32_t)GPIO_InitStruct->GPIO_Pin & ((uint32_t)0x00FF)) != 0x00)
 241              		.loc 1 194 0
 242 00f2 0B78     		ldrb	r3, [r1]	@ zero_extendqisi2
 243              	.LVL37:
 244 00f4 FBB1     		cbz	r3, .L23
 245              	.LVL38:
 195:lib/src/stm32f10x_gpio.c ****   {
 196:lib/src/stm32f10x_gpio.c ****     tmpreg = GPIOx->CRL;
 246              		.loc 1 196 0
 247 00f6 0568     		ldr	r5, [r0]
 248              	.LVL39:
ARM GAS  /tmp/ccAKmUN2.s 			page 9


 197:lib/src/stm32f10x_gpio.c ****     for (pinpos = 0x00; pinpos < 0x08; pinpos++)
 249              		.loc 1 197 0
 250 00f8 0023     		movs	r3, #0
 198:lib/src/stm32f10x_gpio.c ****     {
 199:lib/src/stm32f10x_gpio.c ****       pos = ((uint32_t)0x01) << pinpos;
 251              		.loc 1 199 0
 252 00fa 0126     		movs	r6, #1
 200:lib/src/stm32f10x_gpio.c ****       /* Get the port pins position */
 201:lib/src/stm32f10x_gpio.c ****       currentpin = (GPIO_InitStruct->GPIO_Pin) & pos;
 202:lib/src/stm32f10x_gpio.c ****       if (currentpin == pos)
 203:lib/src/stm32f10x_gpio.c ****       {
 204:lib/src/stm32f10x_gpio.c ****         pos = pinpos << 2;
 205:lib/src/stm32f10x_gpio.c ****         /* Clear the corresponding low control register bits */
 206:lib/src/stm32f10x_gpio.c ****         pinmask = ((uint32_t)0x0F) << pos;
 253              		.loc 1 206 0
 254 00fc 4FF00F0C 		mov	ip, #15
 255 0100 03E0     		b	.L26
 256              	.LVL40:
 257              	.L35:
 207:lib/src/stm32f10x_gpio.c ****         tmpreg &= ~pinmask;
 208:lib/src/stm32f10x_gpio.c ****         /* Write the mode configuration in the corresponding bits */
 209:lib/src/stm32f10x_gpio.c ****         tmpreg |= (currentmode << pos);
 210:lib/src/stm32f10x_gpio.c ****         /* Reset the corresponding ODR bit */
 211:lib/src/stm32f10x_gpio.c ****         if (GPIO_InitStruct->GPIO_Mode == GPIO_Mode_IPD)
 212:lib/src/stm32f10x_gpio.c ****         {
 213:lib/src/stm32f10x_gpio.c ****           GPIOx->BRR = (((uint32_t)0x01) << pinpos);
 258              		.loc 1 213 0
 259 0102 4261     		str	r2, [r0, #20]
 260              	.LVL41:
 261              	.L24:
 197:lib/src/stm32f10x_gpio.c ****     {
 262              		.loc 1 197 0 discriminator 2
 263 0104 0133     		adds	r3, r3, #1
 264              	.LVL42:
 265 0106 082B     		cmp	r3, #8
 266 0108 14D0     		beq	.L34
 267              	.LVL43:
 268              	.L26:
 199:lib/src/stm32f10x_gpio.c ****       /* Get the port pins position */
 269              		.loc 1 199 0
 270 010a 06FA03F2 		lsl	r2, r6, r3
 271              	.LVL44:
 201:lib/src/stm32f10x_gpio.c ****       if (currentpin == pos)
 272              		.loc 1 201 0
 273 010e 0C88     		ldrh	r4, [r1]
 202:lib/src/stm32f10x_gpio.c ****       {
 274              		.loc 1 202 0
 275 0110 32EA0404 		bics	r4, r2, r4
 276 0114 F6D1     		bne	.L24
 204:lib/src/stm32f10x_gpio.c ****         /* Clear the corresponding low control register bits */
 277              		.loc 1 204 0
 278 0116 9C00     		lsls	r4, r3, #2
 279              	.LVL45:
 206:lib/src/stm32f10x_gpio.c ****         tmpreg &= ~pinmask;
 280              		.loc 1 206 0
 281 0118 0CFA04FE 		lsl	lr, ip, r4
 207:lib/src/stm32f10x_gpio.c ****         /* Write the mode configuration in the corresponding bits */
ARM GAS  /tmp/ccAKmUN2.s 			page 10


 282              		.loc 1 207 0
 283 011c 25EA0E05 		bic	r5, r5, lr
 284              	.LVL46:
 209:lib/src/stm32f10x_gpio.c ****         /* Reset the corresponding ODR bit */
 285              		.loc 1 209 0
 286 0120 07FA04F4 		lsl	r4, r7, r4
 287              	.LVL47:
 288 0124 2543     		orrs	r5, r5, r4
 289              	.LVL48:
 211:lib/src/stm32f10x_gpio.c ****         {
 290              		.loc 1 211 0
 291 0126 CC78     		ldrb	r4, [r1, #3]	@ zero_extendqisi2
 292 0128 282C     		cmp	r4, #40
 293 012a EAD0     		beq	.L35
 214:lib/src/stm32f10x_gpio.c ****         }
 215:lib/src/stm32f10x_gpio.c ****         else
 216:lib/src/stm32f10x_gpio.c ****         {
 217:lib/src/stm32f10x_gpio.c ****           /* Set the corresponding ODR bit */
 218:lib/src/stm32f10x_gpio.c ****           if (GPIO_InitStruct->GPIO_Mode == GPIO_Mode_IPU)
 294              		.loc 1 218 0
 295 012c 482C     		cmp	r4, #72
 219:lib/src/stm32f10x_gpio.c ****           {
 220:lib/src/stm32f10x_gpio.c ****             GPIOx->BSRR = (((uint32_t)0x01) << pinpos);
 296              		.loc 1 220 0
 297 012e 08BF     		it	eq
 298 0130 0261     		streq	r2, [r0, #16]
 299 0132 E7E7     		b	.L24
 300              	.LVL49:
 301              	.L34:
 221:lib/src/stm32f10x_gpio.c ****           }
 222:lib/src/stm32f10x_gpio.c ****         }
 223:lib/src/stm32f10x_gpio.c ****       }
 224:lib/src/stm32f10x_gpio.c ****     }
 225:lib/src/stm32f10x_gpio.c ****     GPIOx->CRL = tmpreg;
 302              		.loc 1 225 0
 303 0134 0560     		str	r5, [r0]
 304              	.LVL50:
 305              	.L23:
 226:lib/src/stm32f10x_gpio.c ****   }
 227:lib/src/stm32f10x_gpio.c **** /*---------------------------- GPIO CRH Configuration ------------------------*/
 228:lib/src/stm32f10x_gpio.c ****   /* Configure the eight high port pins */
 229:lib/src/stm32f10x_gpio.c ****   if (GPIO_InitStruct->GPIO_Pin > 0x00FF)
 306              		.loc 1 229 0
 307 0136 0B88     		ldrh	r3, [r1]
 308 0138 FF2B     		cmp	r3, #255
 309 013a 22D9     		bls	.L21
 230:lib/src/stm32f10x_gpio.c ****   {
 231:lib/src/stm32f10x_gpio.c ****     tmpreg = GPIOx->CRH;
 310              		.loc 1 231 0
 311 013c 4668     		ldr	r6, [r0, #4]
 312              	.LVL51:
 313 013e 0022     		movs	r2, #0
 314 0140 0823     		movs	r3, #8
 232:lib/src/stm32f10x_gpio.c ****     for (pinpos = 0x00; pinpos < 0x08; pinpos++)
 233:lib/src/stm32f10x_gpio.c ****     {
 234:lib/src/stm32f10x_gpio.c ****       pos = (((uint32_t)0x01) << (pinpos + 0x08));
 315              		.loc 1 234 0
ARM GAS  /tmp/ccAKmUN2.s 			page 11


 316 0142 4FF0010E 		mov	lr, #1
 235:lib/src/stm32f10x_gpio.c ****       /* Get the port pins position */
 236:lib/src/stm32f10x_gpio.c ****       currentpin = ((GPIO_InitStruct->GPIO_Pin) & pos);
 237:lib/src/stm32f10x_gpio.c ****       if (currentpin == pos)
 238:lib/src/stm32f10x_gpio.c ****       {
 239:lib/src/stm32f10x_gpio.c ****         pos = pinpos << 2;
 240:lib/src/stm32f10x_gpio.c ****         /* Clear the corresponding high control register bits */
 241:lib/src/stm32f10x_gpio.c ****         pinmask = ((uint32_t)0x0F) << pos;
 317              		.loc 1 241 0
 318 0146 4FF00F0C 		mov	ip, #15
 319 014a 03E0     		b	.L30
 320              	.LVL52:
 321              	.L28:
 322 014c 0133     		adds	r3, r3, #1
 323              	.LVL53:
 324 014e 0432     		adds	r2, r2, #4
 232:lib/src/stm32f10x_gpio.c ****     for (pinpos = 0x00; pinpos < 0x08; pinpos++)
 325              		.loc 1 232 0 discriminator 2
 326 0150 102B     		cmp	r3, #16
 327 0152 15D0     		beq	.L36
 328              	.LVL54:
 329              	.L30:
 234:lib/src/stm32f10x_gpio.c ****       /* Get the port pins position */
 330              		.loc 1 234 0
 331 0154 0EFA03F4 		lsl	r4, lr, r3
 332              	.LVL55:
 236:lib/src/stm32f10x_gpio.c ****       if (currentpin == pos)
 333              		.loc 1 236 0
 334 0158 0D88     		ldrh	r5, [r1]
 237:lib/src/stm32f10x_gpio.c ****       {
 335              		.loc 1 237 0
 336 015a 34EA0505 		bics	r5, r4, r5
 337 015e F5D1     		bne	.L28
 338              	.LVL56:
 339              		.loc 1 241 0
 340 0160 0CFA02F5 		lsl	r5, ip, r2
 242:lib/src/stm32f10x_gpio.c ****         tmpreg &= ~pinmask;
 341              		.loc 1 242 0
 342 0164 26EA0506 		bic	r6, r6, r5
 343              	.LVL57:
 243:lib/src/stm32f10x_gpio.c ****         /* Write the mode configuration in the corresponding bits */
 244:lib/src/stm32f10x_gpio.c ****         tmpreg |= (currentmode << pos);
 344              		.loc 1 244 0
 345 0168 07FA02F5 		lsl	r5, r7, r2
 346 016c 2E43     		orrs	r6, r6, r5
 347              	.LVL58:
 245:lib/src/stm32f10x_gpio.c ****         /* Reset the corresponding ODR bit */
 246:lib/src/stm32f10x_gpio.c ****         if (GPIO_InitStruct->GPIO_Mode == GPIO_Mode_IPD)
 348              		.loc 1 246 0
 349 016e CD78     		ldrb	r5, [r1, #3]	@ zero_extendqisi2
 350 0170 282D     		cmp	r5, #40
 247:lib/src/stm32f10x_gpio.c ****         {
 248:lib/src/stm32f10x_gpio.c ****           GPIOx->BRR = (((uint32_t)0x01) << (pinpos + 0x08));
 351              		.loc 1 248 0
 352 0172 08BF     		it	eq
 353 0174 4461     		streq	r4, [r0, #20]
 249:lib/src/stm32f10x_gpio.c ****         }
ARM GAS  /tmp/ccAKmUN2.s 			page 12


 250:lib/src/stm32f10x_gpio.c ****         /* Set the corresponding ODR bit */
 251:lib/src/stm32f10x_gpio.c ****         if (GPIO_InitStruct->GPIO_Mode == GPIO_Mode_IPU)
 354              		.loc 1 251 0
 355 0176 CD78     		ldrb	r5, [r1, #3]	@ zero_extendqisi2
 356 0178 482D     		cmp	r5, #72
 252:lib/src/stm32f10x_gpio.c ****         {
 253:lib/src/stm32f10x_gpio.c ****           GPIOx->BSRR = (((uint32_t)0x01) << (pinpos + 0x08));
 357              		.loc 1 253 0
 358 017a 08BF     		it	eq
 359 017c 0461     		streq	r4, [r0, #16]
 360 017e E5E7     		b	.L28
 361              	.LVL59:
 362              	.L36:
 254:lib/src/stm32f10x_gpio.c ****         }
 255:lib/src/stm32f10x_gpio.c ****       }
 256:lib/src/stm32f10x_gpio.c ****     }
 257:lib/src/stm32f10x_gpio.c ****     GPIOx->CRH = tmpreg;
 363              		.loc 1 257 0
 364 0180 4660     		str	r6, [r0, #4]
 365              	.LVL60:
 366              	.L21:
 367 0182 F0BD     		pop	{r4, r5, r6, r7, pc}
 368              		.cfi_endproc
 369              	.LFE66:
 370              		.size	GPIO_Init, .-GPIO_Init
 371              		.align	1
 372              		.global	GPIO_StructInit
 373              		.syntax unified
 374              		.thumb
 375              		.thumb_func
 376              		.fpu softvfp
 377              		.type	GPIO_StructInit, %function
 378              	GPIO_StructInit:
 379              	.LFB67:
 258:lib/src/stm32f10x_gpio.c ****   }
 259:lib/src/stm32f10x_gpio.c **** }
 260:lib/src/stm32f10x_gpio.c **** 
 261:lib/src/stm32f10x_gpio.c **** /**
 262:lib/src/stm32f10x_gpio.c ****   * @brief  Fills each GPIO_InitStruct member with its default value.
 263:lib/src/stm32f10x_gpio.c ****   * @param  GPIO_InitStruct : pointer to a GPIO_InitTypeDef structure which will
 264:lib/src/stm32f10x_gpio.c ****   *         be initialized.
 265:lib/src/stm32f10x_gpio.c ****   * @retval None
 266:lib/src/stm32f10x_gpio.c ****   */
 267:lib/src/stm32f10x_gpio.c **** void GPIO_StructInit(GPIO_InitTypeDef* GPIO_InitStruct)
 268:lib/src/stm32f10x_gpio.c **** {
 380              		.loc 1 268 0
 381              		.cfi_startproc
 382              		@ args = 0, pretend = 0, frame = 0
 383              		@ frame_needed = 0, uses_anonymous_args = 0
 384              		@ link register save eliminated.
 385              	.LVL61:
 269:lib/src/stm32f10x_gpio.c ****   /* Reset GPIO init structure parameters values */
 270:lib/src/stm32f10x_gpio.c ****   GPIO_InitStruct->GPIO_Pin  = GPIO_Pin_All;
 386              		.loc 1 270 0
 387 0184 4FF6FF73 		movw	r3, #65535
 388 0188 0380     		strh	r3, [r0]	@ movhi
 271:lib/src/stm32f10x_gpio.c ****   GPIO_InitStruct->GPIO_Speed = GPIO_Speed_2MHz;
ARM GAS  /tmp/ccAKmUN2.s 			page 13


 389              		.loc 1 271 0
 390 018a 0223     		movs	r3, #2
 391 018c 8370     		strb	r3, [r0, #2]
 272:lib/src/stm32f10x_gpio.c ****   GPIO_InitStruct->GPIO_Mode = GPIO_Mode_IN_FLOATING;
 392              		.loc 1 272 0
 393 018e 0423     		movs	r3, #4
 394 0190 C370     		strb	r3, [r0, #3]
 395 0192 7047     		bx	lr
 396              		.cfi_endproc
 397              	.LFE67:
 398              		.size	GPIO_StructInit, .-GPIO_StructInit
 399              		.align	1
 400              		.global	GPIO_ReadInputDataBit
 401              		.syntax unified
 402              		.thumb
 403              		.thumb_func
 404              		.fpu softvfp
 405              		.type	GPIO_ReadInputDataBit, %function
 406              	GPIO_ReadInputDataBit:
 407              	.LFB68:
 273:lib/src/stm32f10x_gpio.c **** }
 274:lib/src/stm32f10x_gpio.c **** 
 275:lib/src/stm32f10x_gpio.c **** /**
 276:lib/src/stm32f10x_gpio.c ****   * @brief  Reads the specified input port pin.
 277:lib/src/stm32f10x_gpio.c ****   * @param  GPIOx: where x can be (A..G) to select the GPIO peripheral.
 278:lib/src/stm32f10x_gpio.c ****   * @param  GPIO_Pin:  specifies the port bit to read.
 279:lib/src/stm32f10x_gpio.c ****   *   This parameter can be GPIO_Pin_x where x can be (0..15).
 280:lib/src/stm32f10x_gpio.c ****   * @retval The input port pin value.
 281:lib/src/stm32f10x_gpio.c ****   */
 282:lib/src/stm32f10x_gpio.c **** uint8_t GPIO_ReadInputDataBit(GPIO_TypeDef* GPIOx, uint16_t GPIO_Pin)
 283:lib/src/stm32f10x_gpio.c **** {
 408              		.loc 1 283 0
 409              		.cfi_startproc
 410              		@ args = 0, pretend = 0, frame = 0
 411              		@ frame_needed = 0, uses_anonymous_args = 0
 412              		@ link register save eliminated.
 413              	.LVL62:
 284:lib/src/stm32f10x_gpio.c ****   uint8_t bitstatus = 0x00;
 285:lib/src/stm32f10x_gpio.c ****   
 286:lib/src/stm32f10x_gpio.c ****   /* Check the parameters */
 287:lib/src/stm32f10x_gpio.c ****   assert_param(IS_GPIO_ALL_PERIPH(GPIOx));
 288:lib/src/stm32f10x_gpio.c ****   assert_param(IS_GET_GPIO_PIN(GPIO_Pin)); 
 289:lib/src/stm32f10x_gpio.c ****   
 290:lib/src/stm32f10x_gpio.c ****   if ((GPIOx->IDR & GPIO_Pin) != (uint32_t)Bit_RESET)
 414              		.loc 1 290 0
 415 0194 8368     		ldr	r3, [r0, #8]
 416              	.LVL63:
 417 0196 1942     		tst	r1, r3
 291:lib/src/stm32f10x_gpio.c ****   {
 292:lib/src/stm32f10x_gpio.c ****     bitstatus = (uint8_t)Bit_SET;
 293:lib/src/stm32f10x_gpio.c ****   }
 294:lib/src/stm32f10x_gpio.c ****   else
 295:lib/src/stm32f10x_gpio.c ****   {
 296:lib/src/stm32f10x_gpio.c ****     bitstatus = (uint8_t)Bit_RESET;
 297:lib/src/stm32f10x_gpio.c ****   }
 298:lib/src/stm32f10x_gpio.c ****   return bitstatus;
 299:lib/src/stm32f10x_gpio.c **** }
ARM GAS  /tmp/ccAKmUN2.s 			page 14


 418              		.loc 1 299 0
 419 0198 14BF     		ite	ne
 420 019a 0120     		movne	r0, #1
 421              	.LVL64:
 422 019c 0020     		moveq	r0, #0
 423 019e 7047     		bx	lr
 424              		.cfi_endproc
 425              	.LFE68:
 426              		.size	GPIO_ReadInputDataBit, .-GPIO_ReadInputDataBit
 427              		.align	1
 428              		.global	GPIO_ReadInputData
 429              		.syntax unified
 430              		.thumb
 431              		.thumb_func
 432              		.fpu softvfp
 433              		.type	GPIO_ReadInputData, %function
 434              	GPIO_ReadInputData:
 435              	.LFB69:
 300:lib/src/stm32f10x_gpio.c **** 
 301:lib/src/stm32f10x_gpio.c **** /**
 302:lib/src/stm32f10x_gpio.c ****   * @brief  Reads the specified GPIO input data port.
 303:lib/src/stm32f10x_gpio.c ****   * @param  GPIOx: where x can be (A..G) to select the GPIO peripheral.
 304:lib/src/stm32f10x_gpio.c ****   * @retval GPIO input data port value.
 305:lib/src/stm32f10x_gpio.c ****   */
 306:lib/src/stm32f10x_gpio.c **** uint16_t GPIO_ReadInputData(GPIO_TypeDef* GPIOx)
 307:lib/src/stm32f10x_gpio.c **** {
 436              		.loc 1 307 0
 437              		.cfi_startproc
 438              		@ args = 0, pretend = 0, frame = 0
 439              		@ frame_needed = 0, uses_anonymous_args = 0
 440              		@ link register save eliminated.
 441              	.LVL65:
 308:lib/src/stm32f10x_gpio.c ****   /* Check the parameters */
 309:lib/src/stm32f10x_gpio.c ****   assert_param(IS_GPIO_ALL_PERIPH(GPIOx));
 310:lib/src/stm32f10x_gpio.c ****   
 311:lib/src/stm32f10x_gpio.c ****   return ((uint16_t)GPIOx->IDR);
 442              		.loc 1 311 0
 443 01a0 8068     		ldr	r0, [r0, #8]
 444              	.LVL66:
 312:lib/src/stm32f10x_gpio.c **** }
 445              		.loc 1 312 0
 446 01a2 80B2     		uxth	r0, r0
 447 01a4 7047     		bx	lr
 448              		.cfi_endproc
 449              	.LFE69:
 450              		.size	GPIO_ReadInputData, .-GPIO_ReadInputData
 451              		.align	1
 452              		.global	GPIO_ReadOutputDataBit
 453              		.syntax unified
 454              		.thumb
 455              		.thumb_func
 456              		.fpu softvfp
 457              		.type	GPIO_ReadOutputDataBit, %function
 458              	GPIO_ReadOutputDataBit:
 459              	.LFB70:
 313:lib/src/stm32f10x_gpio.c **** 
 314:lib/src/stm32f10x_gpio.c **** /**
ARM GAS  /tmp/ccAKmUN2.s 			page 15


 315:lib/src/stm32f10x_gpio.c ****   * @brief  Reads the specified output data port bit.
 316:lib/src/stm32f10x_gpio.c ****   * @param  GPIOx: where x can be (A..G) to select the GPIO peripheral.
 317:lib/src/stm32f10x_gpio.c ****   * @param  GPIO_Pin:  specifies the port bit to read.
 318:lib/src/stm32f10x_gpio.c ****   *   This parameter can be GPIO_Pin_x where x can be (0..15).
 319:lib/src/stm32f10x_gpio.c ****   * @retval The output port pin value.
 320:lib/src/stm32f10x_gpio.c ****   */
 321:lib/src/stm32f10x_gpio.c **** uint8_t GPIO_ReadOutputDataBit(GPIO_TypeDef* GPIOx, uint16_t GPIO_Pin)
 322:lib/src/stm32f10x_gpio.c **** {
 460              		.loc 1 322 0
 461              		.cfi_startproc
 462              		@ args = 0, pretend = 0, frame = 0
 463              		@ frame_needed = 0, uses_anonymous_args = 0
 464              		@ link register save eliminated.
 465              	.LVL67:
 323:lib/src/stm32f10x_gpio.c ****   uint8_t bitstatus = 0x00;
 324:lib/src/stm32f10x_gpio.c ****   /* Check the parameters */
 325:lib/src/stm32f10x_gpio.c ****   assert_param(IS_GPIO_ALL_PERIPH(GPIOx));
 326:lib/src/stm32f10x_gpio.c ****   assert_param(IS_GET_GPIO_PIN(GPIO_Pin)); 
 327:lib/src/stm32f10x_gpio.c ****   
 328:lib/src/stm32f10x_gpio.c ****   if ((GPIOx->ODR & GPIO_Pin) != (uint32_t)Bit_RESET)
 466              		.loc 1 328 0
 467 01a6 C368     		ldr	r3, [r0, #12]
 468              	.LVL68:
 469 01a8 1942     		tst	r1, r3
 329:lib/src/stm32f10x_gpio.c ****   {
 330:lib/src/stm32f10x_gpio.c ****     bitstatus = (uint8_t)Bit_SET;
 331:lib/src/stm32f10x_gpio.c ****   }
 332:lib/src/stm32f10x_gpio.c ****   else
 333:lib/src/stm32f10x_gpio.c ****   {
 334:lib/src/stm32f10x_gpio.c ****     bitstatus = (uint8_t)Bit_RESET;
 335:lib/src/stm32f10x_gpio.c ****   }
 336:lib/src/stm32f10x_gpio.c ****   return bitstatus;
 337:lib/src/stm32f10x_gpio.c **** }
 470              		.loc 1 337 0
 471 01aa 14BF     		ite	ne
 472 01ac 0120     		movne	r0, #1
 473              	.LVL69:
 474 01ae 0020     		moveq	r0, #0
 475 01b0 7047     		bx	lr
 476              		.cfi_endproc
 477              	.LFE70:
 478              		.size	GPIO_ReadOutputDataBit, .-GPIO_ReadOutputDataBit
 479              		.align	1
 480              		.global	GPIO_ReadOutputData
 481              		.syntax unified
 482              		.thumb
 483              		.thumb_func
 484              		.fpu softvfp
 485              		.type	GPIO_ReadOutputData, %function
 486              	GPIO_ReadOutputData:
 487              	.LFB71:
 338:lib/src/stm32f10x_gpio.c **** 
 339:lib/src/stm32f10x_gpio.c **** /**
 340:lib/src/stm32f10x_gpio.c ****   * @brief  Reads the specified GPIO output data port.
 341:lib/src/stm32f10x_gpio.c ****   * @param  GPIOx: where x can be (A..G) to select the GPIO peripheral.
 342:lib/src/stm32f10x_gpio.c ****   * @retval GPIO output data port value.
 343:lib/src/stm32f10x_gpio.c ****   */
ARM GAS  /tmp/ccAKmUN2.s 			page 16


 344:lib/src/stm32f10x_gpio.c **** uint16_t GPIO_ReadOutputData(GPIO_TypeDef* GPIOx)
 345:lib/src/stm32f10x_gpio.c **** {
 488              		.loc 1 345 0
 489              		.cfi_startproc
 490              		@ args = 0, pretend = 0, frame = 0
 491              		@ frame_needed = 0, uses_anonymous_args = 0
 492              		@ link register save eliminated.
 493              	.LVL70:
 346:lib/src/stm32f10x_gpio.c ****   /* Check the parameters */
 347:lib/src/stm32f10x_gpio.c ****   assert_param(IS_GPIO_ALL_PERIPH(GPIOx));
 348:lib/src/stm32f10x_gpio.c ****     
 349:lib/src/stm32f10x_gpio.c ****   return ((uint16_t)GPIOx->ODR);
 494              		.loc 1 349 0
 495 01b2 C068     		ldr	r0, [r0, #12]
 496              	.LVL71:
 350:lib/src/stm32f10x_gpio.c **** }
 497              		.loc 1 350 0
 498 01b4 80B2     		uxth	r0, r0
 499 01b6 7047     		bx	lr
 500              		.cfi_endproc
 501              	.LFE71:
 502              		.size	GPIO_ReadOutputData, .-GPIO_ReadOutputData
 503              		.align	1
 504              		.global	GPIO_SetBits
 505              		.syntax unified
 506              		.thumb
 507              		.thumb_func
 508              		.fpu softvfp
 509              		.type	GPIO_SetBits, %function
 510              	GPIO_SetBits:
 511              	.LFB72:
 351:lib/src/stm32f10x_gpio.c **** 
 352:lib/src/stm32f10x_gpio.c **** /**
 353:lib/src/stm32f10x_gpio.c ****   * @brief  Sets the selected data port bits.
 354:lib/src/stm32f10x_gpio.c ****   * @param  GPIOx: where x can be (A..G) to select the GPIO peripheral.
 355:lib/src/stm32f10x_gpio.c ****   * @param  GPIO_Pin: specifies the port bits to be written.
 356:lib/src/stm32f10x_gpio.c ****   *   This parameter can be any combination of GPIO_Pin_x where x can be (0..15).
 357:lib/src/stm32f10x_gpio.c ****   * @retval None
 358:lib/src/stm32f10x_gpio.c ****   */
 359:lib/src/stm32f10x_gpio.c **** void GPIO_SetBits(GPIO_TypeDef* GPIOx, uint16_t GPIO_Pin)
 360:lib/src/stm32f10x_gpio.c **** {
 512              		.loc 1 360 0
 513              		.cfi_startproc
 514              		@ args = 0, pretend = 0, frame = 0
 515              		@ frame_needed = 0, uses_anonymous_args = 0
 516              		@ link register save eliminated.
 517              	.LVL72:
 361:lib/src/stm32f10x_gpio.c ****   /* Check the parameters */
 362:lib/src/stm32f10x_gpio.c ****   assert_param(IS_GPIO_ALL_PERIPH(GPIOx));
 363:lib/src/stm32f10x_gpio.c ****   assert_param(IS_GPIO_PIN(GPIO_Pin));
 364:lib/src/stm32f10x_gpio.c ****   
 365:lib/src/stm32f10x_gpio.c ****   GPIOx->BSRR = GPIO_Pin;
 518              		.loc 1 365 0
 519 01b8 0161     		str	r1, [r0, #16]
 520 01ba 7047     		bx	lr
 521              		.cfi_endproc
 522              	.LFE72:
ARM GAS  /tmp/ccAKmUN2.s 			page 17


 523              		.size	GPIO_SetBits, .-GPIO_SetBits
 524              		.align	1
 525              		.global	GPIO_ResetBits
 526              		.syntax unified
 527              		.thumb
 528              		.thumb_func
 529              		.fpu softvfp
 530              		.type	GPIO_ResetBits, %function
 531              	GPIO_ResetBits:
 532              	.LFB73:
 366:lib/src/stm32f10x_gpio.c **** }
 367:lib/src/stm32f10x_gpio.c **** 
 368:lib/src/stm32f10x_gpio.c **** /**
 369:lib/src/stm32f10x_gpio.c ****   * @brief  Clears the selected data port bits.
 370:lib/src/stm32f10x_gpio.c ****   * @param  GPIOx: where x can be (A..G) to select the GPIO peripheral.
 371:lib/src/stm32f10x_gpio.c ****   * @param  GPIO_Pin: specifies the port bits to be written.
 372:lib/src/stm32f10x_gpio.c ****   *   This parameter can be any combination of GPIO_Pin_x where x can be (0..15).
 373:lib/src/stm32f10x_gpio.c ****   * @retval None
 374:lib/src/stm32f10x_gpio.c ****   */
 375:lib/src/stm32f10x_gpio.c **** void GPIO_ResetBits(GPIO_TypeDef* GPIOx, uint16_t GPIO_Pin)
 376:lib/src/stm32f10x_gpio.c **** {
 533              		.loc 1 376 0
 534              		.cfi_startproc
 535              		@ args = 0, pretend = 0, frame = 0
 536              		@ frame_needed = 0, uses_anonymous_args = 0
 537              		@ link register save eliminated.
 538              	.LVL73:
 377:lib/src/stm32f10x_gpio.c ****   /* Check the parameters */
 378:lib/src/stm32f10x_gpio.c ****   assert_param(IS_GPIO_ALL_PERIPH(GPIOx));
 379:lib/src/stm32f10x_gpio.c ****   assert_param(IS_GPIO_PIN(GPIO_Pin));
 380:lib/src/stm32f10x_gpio.c ****   
 381:lib/src/stm32f10x_gpio.c ****   GPIOx->BRR = GPIO_Pin;
 539              		.loc 1 381 0
 540 01bc 4161     		str	r1, [r0, #20]
 541 01be 7047     		bx	lr
 542              		.cfi_endproc
 543              	.LFE73:
 544              		.size	GPIO_ResetBits, .-GPIO_ResetBits
 545              		.align	1
 546              		.global	GPIO_WriteBit
 547              		.syntax unified
 548              		.thumb
 549              		.thumb_func
 550              		.fpu softvfp
 551              		.type	GPIO_WriteBit, %function
 552              	GPIO_WriteBit:
 553              	.LFB74:
 382:lib/src/stm32f10x_gpio.c **** }
 383:lib/src/stm32f10x_gpio.c **** 
 384:lib/src/stm32f10x_gpio.c **** /**
 385:lib/src/stm32f10x_gpio.c ****   * @brief  Sets or clears the selected data port bit.
 386:lib/src/stm32f10x_gpio.c ****   * @param  GPIOx: where x can be (A..G) to select the GPIO peripheral.
 387:lib/src/stm32f10x_gpio.c ****   * @param  GPIO_Pin: specifies the port bit to be written.
 388:lib/src/stm32f10x_gpio.c ****   *   This parameter can be one of GPIO_Pin_x where x can be (0..15).
 389:lib/src/stm32f10x_gpio.c ****   * @param  BitVal: specifies the value to be written to the selected bit.
 390:lib/src/stm32f10x_gpio.c ****   *   This parameter can be one of the BitAction enum values:
 391:lib/src/stm32f10x_gpio.c ****   *     @arg Bit_RESET: to clear the port pin
ARM GAS  /tmp/ccAKmUN2.s 			page 18


 392:lib/src/stm32f10x_gpio.c ****   *     @arg Bit_SET: to set the port pin
 393:lib/src/stm32f10x_gpio.c ****   * @retval None
 394:lib/src/stm32f10x_gpio.c ****   */
 395:lib/src/stm32f10x_gpio.c **** void GPIO_WriteBit(GPIO_TypeDef* GPIOx, uint16_t GPIO_Pin, BitAction BitVal)
 396:lib/src/stm32f10x_gpio.c **** {
 554              		.loc 1 396 0
 555              		.cfi_startproc
 556              		@ args = 0, pretend = 0, frame = 0
 557              		@ frame_needed = 0, uses_anonymous_args = 0
 558              		@ link register save eliminated.
 559              	.LVL74:
 397:lib/src/stm32f10x_gpio.c ****   /* Check the parameters */
 398:lib/src/stm32f10x_gpio.c ****   assert_param(IS_GPIO_ALL_PERIPH(GPIOx));
 399:lib/src/stm32f10x_gpio.c ****   assert_param(IS_GET_GPIO_PIN(GPIO_Pin));
 400:lib/src/stm32f10x_gpio.c ****   assert_param(IS_GPIO_BIT_ACTION(BitVal)); 
 401:lib/src/stm32f10x_gpio.c ****   
 402:lib/src/stm32f10x_gpio.c ****   if (BitVal != Bit_RESET)
 560              		.loc 1 402 0
 561 01c0 0AB9     		cbnz	r2, .L47
 403:lib/src/stm32f10x_gpio.c ****   {
 404:lib/src/stm32f10x_gpio.c ****     GPIOx->BSRR = GPIO_Pin;
 405:lib/src/stm32f10x_gpio.c ****   }
 406:lib/src/stm32f10x_gpio.c ****   else
 407:lib/src/stm32f10x_gpio.c ****   {
 408:lib/src/stm32f10x_gpio.c ****     GPIOx->BRR = GPIO_Pin;
 562              		.loc 1 408 0
 563 01c2 4161     		str	r1, [r0, #20]
 564 01c4 7047     		bx	lr
 565              	.L47:
 404:lib/src/stm32f10x_gpio.c ****   }
 566              		.loc 1 404 0
 567 01c6 0161     		str	r1, [r0, #16]
 568 01c8 7047     		bx	lr
 569              		.cfi_endproc
 570              	.LFE74:
 571              		.size	GPIO_WriteBit, .-GPIO_WriteBit
 572              		.align	1
 573              		.global	GPIO_Write
 574              		.syntax unified
 575              		.thumb
 576              		.thumb_func
 577              		.fpu softvfp
 578              		.type	GPIO_Write, %function
 579              	GPIO_Write:
 580              	.LFB75:
 409:lib/src/stm32f10x_gpio.c ****   }
 410:lib/src/stm32f10x_gpio.c **** }
 411:lib/src/stm32f10x_gpio.c **** 
 412:lib/src/stm32f10x_gpio.c **** /**
 413:lib/src/stm32f10x_gpio.c ****   * @brief  Writes data to the specified GPIO data port.
 414:lib/src/stm32f10x_gpio.c ****   * @param  GPIOx: where x can be (A..G) to select the GPIO peripheral.
 415:lib/src/stm32f10x_gpio.c ****   * @param  PortVal: specifies the value to be written to the port output data register.
 416:lib/src/stm32f10x_gpio.c ****   * @retval None
 417:lib/src/stm32f10x_gpio.c ****   */
 418:lib/src/stm32f10x_gpio.c **** void GPIO_Write(GPIO_TypeDef* GPIOx, uint16_t PortVal)
 419:lib/src/stm32f10x_gpio.c **** {
 581              		.loc 1 419 0
ARM GAS  /tmp/ccAKmUN2.s 			page 19


 582              		.cfi_startproc
 583              		@ args = 0, pretend = 0, frame = 0
 584              		@ frame_needed = 0, uses_anonymous_args = 0
 585              		@ link register save eliminated.
 586              	.LVL75:
 420:lib/src/stm32f10x_gpio.c ****   /* Check the parameters */
 421:lib/src/stm32f10x_gpio.c ****   assert_param(IS_GPIO_ALL_PERIPH(GPIOx));
 422:lib/src/stm32f10x_gpio.c ****   
 423:lib/src/stm32f10x_gpio.c ****   GPIOx->ODR = PortVal;
 587              		.loc 1 423 0
 588 01ca C160     		str	r1, [r0, #12]
 589 01cc 7047     		bx	lr
 590              		.cfi_endproc
 591              	.LFE75:
 592              		.size	GPIO_Write, .-GPIO_Write
 593              		.align	1
 594              		.global	GPIO_PinLockConfig
 595              		.syntax unified
 596              		.thumb
 597              		.thumb_func
 598              		.fpu softvfp
 599              		.type	GPIO_PinLockConfig, %function
 600              	GPIO_PinLockConfig:
 601              	.LFB76:
 424:lib/src/stm32f10x_gpio.c **** }
 425:lib/src/stm32f10x_gpio.c **** 
 426:lib/src/stm32f10x_gpio.c **** /**
 427:lib/src/stm32f10x_gpio.c ****   * @brief  Locks GPIO Pins configuration registers.
 428:lib/src/stm32f10x_gpio.c ****   * @param  GPIOx: where x can be (A..G) to select the GPIO peripheral.
 429:lib/src/stm32f10x_gpio.c ****   * @param  GPIO_Pin: specifies the port bit to be written.
 430:lib/src/stm32f10x_gpio.c ****   *   This parameter can be any combination of GPIO_Pin_x where x can be (0..15).
 431:lib/src/stm32f10x_gpio.c ****   * @retval None
 432:lib/src/stm32f10x_gpio.c ****   */
 433:lib/src/stm32f10x_gpio.c **** void GPIO_PinLockConfig(GPIO_TypeDef* GPIOx, uint16_t GPIO_Pin)
 434:lib/src/stm32f10x_gpio.c **** {
 602              		.loc 1 434 0
 603              		.cfi_startproc
 604              		@ args = 0, pretend = 0, frame = 0
 605              		@ frame_needed = 0, uses_anonymous_args = 0
 606              		@ link register save eliminated.
 607              	.LVL76:
 435:lib/src/stm32f10x_gpio.c ****   uint32_t tmp = 0x00010000;
 436:lib/src/stm32f10x_gpio.c ****   
 437:lib/src/stm32f10x_gpio.c ****   /* Check the parameters */
 438:lib/src/stm32f10x_gpio.c ****   assert_param(IS_GPIO_ALL_PERIPH(GPIOx));
 439:lib/src/stm32f10x_gpio.c ****   assert_param(IS_GPIO_PIN(GPIO_Pin));
 440:lib/src/stm32f10x_gpio.c ****   
 441:lib/src/stm32f10x_gpio.c ****   tmp |= GPIO_Pin;
 608              		.loc 1 441 0
 609 01ce 41F48033 		orr	r3, r1, #65536
 610              	.LVL77:
 442:lib/src/stm32f10x_gpio.c ****   /* Set LCKK bit */
 443:lib/src/stm32f10x_gpio.c ****   GPIOx->LCKR = tmp;
 611              		.loc 1 443 0
 612 01d2 8361     		str	r3, [r0, #24]
 444:lib/src/stm32f10x_gpio.c ****   /* Reset LCKK bit */
 445:lib/src/stm32f10x_gpio.c ****   GPIOx->LCKR =  GPIO_Pin;
ARM GAS  /tmp/ccAKmUN2.s 			page 20


 613              		.loc 1 445 0
 614 01d4 8161     		str	r1, [r0, #24]
 446:lib/src/stm32f10x_gpio.c ****   /* Set LCKK bit */
 447:lib/src/stm32f10x_gpio.c ****   GPIOx->LCKR = tmp;
 615              		.loc 1 447 0
 616 01d6 8361     		str	r3, [r0, #24]
 448:lib/src/stm32f10x_gpio.c ****   /* Read LCKK bit*/
 449:lib/src/stm32f10x_gpio.c ****   tmp = GPIOx->LCKR;
 617              		.loc 1 449 0
 618 01d8 8369     		ldr	r3, [r0, #24]
 619              	.LVL78:
 450:lib/src/stm32f10x_gpio.c ****   /* Read LCKK bit*/
 451:lib/src/stm32f10x_gpio.c ****   tmp = GPIOx->LCKR;
 620              		.loc 1 451 0
 621 01da 8369     		ldr	r3, [r0, #24]
 622 01dc 7047     		bx	lr
 623              		.cfi_endproc
 624              	.LFE76:
 625              		.size	GPIO_PinLockConfig, .-GPIO_PinLockConfig
 626              		.align	1
 627              		.global	GPIO_EventOutputConfig
 628              		.syntax unified
 629              		.thumb
 630              		.thumb_func
 631              		.fpu softvfp
 632              		.type	GPIO_EventOutputConfig, %function
 633              	GPIO_EventOutputConfig:
 634              	.LFB77:
 452:lib/src/stm32f10x_gpio.c **** }
 453:lib/src/stm32f10x_gpio.c **** 
 454:lib/src/stm32f10x_gpio.c **** /**
 455:lib/src/stm32f10x_gpio.c ****   * @brief  Selects the GPIO pin used as Event output.
 456:lib/src/stm32f10x_gpio.c ****   * @param  GPIO_PortSource: selects the GPIO port to be used as source
 457:lib/src/stm32f10x_gpio.c ****   *   for Event output.
 458:lib/src/stm32f10x_gpio.c ****   *   This parameter can be GPIO_PortSourceGPIOx where x can be (A..E).
 459:lib/src/stm32f10x_gpio.c ****   * @param  GPIO_PinSource: specifies the pin for the Event output.
 460:lib/src/stm32f10x_gpio.c ****   *   This parameter can be GPIO_PinSourcex where x can be (0..15).
 461:lib/src/stm32f10x_gpio.c ****   * @retval None
 462:lib/src/stm32f10x_gpio.c ****   */
 463:lib/src/stm32f10x_gpio.c **** void GPIO_EventOutputConfig(uint8_t GPIO_PortSource, uint8_t GPIO_PinSource)
 464:lib/src/stm32f10x_gpio.c **** {
 635              		.loc 1 464 0
 636              		.cfi_startproc
 637              		@ args = 0, pretend = 0, frame = 0
 638              		@ frame_needed = 0, uses_anonymous_args = 0
 639              		@ link register save eliminated.
 640              	.LVL79:
 465:lib/src/stm32f10x_gpio.c ****   uint32_t tmpreg = 0x00;
 466:lib/src/stm32f10x_gpio.c ****   /* Check the parameters */
 467:lib/src/stm32f10x_gpio.c ****   assert_param(IS_GPIO_EVENTOUT_PORT_SOURCE(GPIO_PortSource));
 468:lib/src/stm32f10x_gpio.c ****   assert_param(IS_GPIO_PIN_SOURCE(GPIO_PinSource));
 469:lib/src/stm32f10x_gpio.c ****     
 470:lib/src/stm32f10x_gpio.c ****   tmpreg = AFIO->EVCR;
 641              		.loc 1 470 0
 642 01de 054A     		ldr	r2, .L51
 643 01e0 1368     		ldr	r3, [r2]
 644              	.LVL80:
ARM GAS  /tmp/ccAKmUN2.s 			page 21


 471:lib/src/stm32f10x_gpio.c ****   /* Clear the PORT[6:4] and PIN[3:0] bits */
 472:lib/src/stm32f10x_gpio.c ****   tmpreg &= EVCR_PORTPINCONFIG_MASK;
 645              		.loc 1 472 0
 646 01e2 23F07F03 		bic	r3, r3, #127
 647              	.LVL81:
 648 01e6 1B04     		lsls	r3, r3, #16
 649 01e8 1B0C     		lsrs	r3, r3, #16
 650 01ea 1943     		orrs	r1, r1, r3
 651              	.LVL82:
 473:lib/src/stm32f10x_gpio.c ****   tmpreg |= (uint32_t)GPIO_PortSource << 0x04;
 474:lib/src/stm32f10x_gpio.c ****   tmpreg |= GPIO_PinSource;
 652              		.loc 1 474 0
 653 01ec 41EA0011 		orr	r1, r1, r0, lsl #4
 654              	.LVL83:
 475:lib/src/stm32f10x_gpio.c ****   AFIO->EVCR = tmpreg;
 655              		.loc 1 475 0
 656 01f0 1160     		str	r1, [r2]
 657 01f2 7047     		bx	lr
 658              	.L52:
 659              		.align	2
 660              	.L51:
 661 01f4 00000140 		.word	1073807360
 662              		.cfi_endproc
 663              	.LFE77:
 664              		.size	GPIO_EventOutputConfig, .-GPIO_EventOutputConfig
 665              		.align	1
 666              		.global	GPIO_EventOutputCmd
 667              		.syntax unified
 668              		.thumb
 669              		.thumb_func
 670              		.fpu softvfp
 671              		.type	GPIO_EventOutputCmd, %function
 672              	GPIO_EventOutputCmd:
 673              	.LFB78:
 476:lib/src/stm32f10x_gpio.c **** }
 477:lib/src/stm32f10x_gpio.c **** 
 478:lib/src/stm32f10x_gpio.c **** /**
 479:lib/src/stm32f10x_gpio.c ****   * @brief  Enables or disables the Event Output.
 480:lib/src/stm32f10x_gpio.c ****   * @param  NewState: new state of the Event output.
 481:lib/src/stm32f10x_gpio.c ****   *   This parameter can be: ENABLE or DISABLE.
 482:lib/src/stm32f10x_gpio.c ****   * @retval None
 483:lib/src/stm32f10x_gpio.c ****   */
 484:lib/src/stm32f10x_gpio.c **** void GPIO_EventOutputCmd(FunctionalState NewState)
 485:lib/src/stm32f10x_gpio.c **** {
 674              		.loc 1 485 0
 675              		.cfi_startproc
 676              		@ args = 0, pretend = 0, frame = 0
 677              		@ frame_needed = 0, uses_anonymous_args = 0
 678              		@ link register save eliminated.
 679              	.LVL84:
 486:lib/src/stm32f10x_gpio.c ****   /* Check the parameters */
 487:lib/src/stm32f10x_gpio.c ****   assert_param(IS_FUNCTIONAL_STATE(NewState));
 488:lib/src/stm32f10x_gpio.c ****   
 489:lib/src/stm32f10x_gpio.c ****   *(__IO uint32_t *) EVCR_EVOE_BB = (uint32_t)NewState;
 680              		.loc 1 489 0
 681 01f8 014B     		ldr	r3, .L54
 682 01fa 1860     		str	r0, [r3]
ARM GAS  /tmp/ccAKmUN2.s 			page 22


 683 01fc 7047     		bx	lr
 684              	.L55:
 685 01fe 00BF     		.align	2
 686              	.L54:
 687 0200 1C002042 		.word	1109393436
 688              		.cfi_endproc
 689              	.LFE78:
 690              		.size	GPIO_EventOutputCmd, .-GPIO_EventOutputCmd
 691              		.align	1
 692              		.global	GPIO_PinRemapConfig
 693              		.syntax unified
 694              		.thumb
 695              		.thumb_func
 696              		.fpu softvfp
 697              		.type	GPIO_PinRemapConfig, %function
 698              	GPIO_PinRemapConfig:
 699              	.LFB79:
 490:lib/src/stm32f10x_gpio.c **** }
 491:lib/src/stm32f10x_gpio.c **** 
 492:lib/src/stm32f10x_gpio.c **** /**
 493:lib/src/stm32f10x_gpio.c ****   * @brief  Changes the mapping of the specified pin.
 494:lib/src/stm32f10x_gpio.c ****   * @param  GPIO_Remap: selects the pin to remap.
 495:lib/src/stm32f10x_gpio.c ****   *   This parameter can be one of the following values:
 496:lib/src/stm32f10x_gpio.c ****   *     @arg GPIO_Remap_SPI1             : SPI1 Alternate Function mapping
 497:lib/src/stm32f10x_gpio.c ****   *     @arg GPIO_Remap_I2C1             : I2C1 Alternate Function mapping
 498:lib/src/stm32f10x_gpio.c ****   *     @arg GPIO_Remap_USART1           : USART1 Alternate Function mapping
 499:lib/src/stm32f10x_gpio.c ****   *     @arg GPIO_Remap_USART2           : USART2 Alternate Function mapping
 500:lib/src/stm32f10x_gpio.c ****   *     @arg GPIO_PartialRemap_USART3    : USART3 Partial Alternate Function mapping
 501:lib/src/stm32f10x_gpio.c ****   *     @arg GPIO_FullRemap_USART3       : USART3 Full Alternate Function mapping
 502:lib/src/stm32f10x_gpio.c ****   *     @arg GPIO_PartialRemap_TIM1      : TIM1 Partial Alternate Function mapping
 503:lib/src/stm32f10x_gpio.c ****   *     @arg GPIO_FullRemap_TIM1         : TIM1 Full Alternate Function mapping
 504:lib/src/stm32f10x_gpio.c ****   *     @arg GPIO_PartialRemap1_TIM2     : TIM2 Partial1 Alternate Function mapping
 505:lib/src/stm32f10x_gpio.c ****   *     @arg GPIO_PartialRemap2_TIM2     : TIM2 Partial2 Alternate Function mapping
 506:lib/src/stm32f10x_gpio.c ****   *     @arg GPIO_FullRemap_TIM2         : TIM2 Full Alternate Function mapping
 507:lib/src/stm32f10x_gpio.c ****   *     @arg GPIO_PartialRemap_TIM3      : TIM3 Partial Alternate Function mapping
 508:lib/src/stm32f10x_gpio.c ****   *     @arg GPIO_FullRemap_TIM3         : TIM3 Full Alternate Function mapping
 509:lib/src/stm32f10x_gpio.c ****   *     @arg GPIO_Remap_TIM4             : TIM4 Alternate Function mapping
 510:lib/src/stm32f10x_gpio.c ****   *     @arg GPIO_Remap1_CAN1            : CAN1 Alternate Function mapping
 511:lib/src/stm32f10x_gpio.c ****   *     @arg GPIO_Remap2_CAN1            : CAN1 Alternate Function mapping
 512:lib/src/stm32f10x_gpio.c ****   *     @arg GPIO_Remap_PD01             : PD01 Alternate Function mapping
 513:lib/src/stm32f10x_gpio.c ****   *     @arg GPIO_Remap_TIM5CH4_LSI      : LSI connected to TIM5 Channel4 input capture for calibra
 514:lib/src/stm32f10x_gpio.c ****   *     @arg GPIO_Remap_ADC1_ETRGINJ     : ADC1 External Trigger Injected Conversion remapping
 515:lib/src/stm32f10x_gpio.c ****   *     @arg GPIO_Remap_ADC1_ETRGREG     : ADC1 External Trigger Regular Conversion remapping
 516:lib/src/stm32f10x_gpio.c ****   *     @arg GPIO_Remap_ADC2_ETRGINJ     : ADC2 External Trigger Injected Conversion remapping
 517:lib/src/stm32f10x_gpio.c ****   *     @arg GPIO_Remap_ADC2_ETRGREG     : ADC2 External Trigger Regular Conversion remapping
 518:lib/src/stm32f10x_gpio.c ****   *     @arg GPIO_Remap_ETH              : Ethernet remapping (only for Connectivity line devices)
 519:lib/src/stm32f10x_gpio.c ****   *     @arg GPIO_Remap_CAN2             : CAN2 remapping (only for Connectivity line devices)
 520:lib/src/stm32f10x_gpio.c ****   *     @arg GPIO_Remap_SWJ_NoJTRST      : Full SWJ Enabled (JTAG-DP + SW-DP) but without JTRST
 521:lib/src/stm32f10x_gpio.c ****   *     @arg GPIO_Remap_SWJ_JTAGDisable  : JTAG-DP Disabled and SW-DP Enabled
 522:lib/src/stm32f10x_gpio.c ****   *     @arg GPIO_Remap_SWJ_Disable      : Full SWJ Disabled (JTAG-DP + SW-DP)
 523:lib/src/stm32f10x_gpio.c ****   *     @arg GPIO_Remap_SPI3             : SPI3/I2S3 Alternate Function mapping (only for Connectiv
 524:lib/src/stm32f10x_gpio.c ****   *                                        When the SPI3/I2S3 is remapped using this function, the 
 525:lib/src/stm32f10x_gpio.c ****   *                                        to Full SWJ Enabled (JTAG-DP + SW-DP) but without JTRST.
 526:lib/src/stm32f10x_gpio.c ****   *     @arg GPIO_Remap_TIM2ITR1_PTP_SOF : Ethernet PTP output or USB OTG SOF (Start of Frame) conn
 527:lib/src/stm32f10x_gpio.c ****   *                                        to TIM2 Internal Trigger 1 for calibration (only for Con
 528:lib/src/stm32f10x_gpio.c ****   *                                        If the GPIO_Remap_TIM2ITR1_PTP_SOF is enabled the TIM2 I
 529:lib/src/stm32f10x_gpio.c ****   *                                        Ethernet PTP output. When Reset TIM2 ITR1 is connected t
ARM GAS  /tmp/ccAKmUN2.s 			page 23


 530:lib/src/stm32f10x_gpio.c ****   *     @arg GPIO_Remap_PTP_PPS          : Ethernet MAC PPS_PTS output on PB05 (only for Connectivi
 531:lib/src/stm32f10x_gpio.c ****   *     @arg GPIO_Remap_TIM15            : TIM15 Alternate Function mapping (only for Value line de
 532:lib/src/stm32f10x_gpio.c ****   *     @arg GPIO_Remap_TIM16            : TIM16 Alternate Function mapping (only for Value line de
 533:lib/src/stm32f10x_gpio.c ****   *     @arg GPIO_Remap_TIM17            : TIM17 Alternate Function mapping (only for Value line de
 534:lib/src/stm32f10x_gpio.c ****   *     @arg GPIO_Remap_CEC              : CEC Alternate Function mapping (only for Value line devi
 535:lib/src/stm32f10x_gpio.c ****   *     @arg GPIO_Remap_TIM1_DMA         : TIM1 DMA requests mapping (only for Value line devices)
 536:lib/src/stm32f10x_gpio.c ****   *     @arg GPIO_Remap_TIM9             : TIM9 Alternate Function mapping (only for XL-density dev
 537:lib/src/stm32f10x_gpio.c ****   *     @arg GPIO_Remap_TIM10            : TIM10 Alternate Function mapping (only for XL-density de
 538:lib/src/stm32f10x_gpio.c ****   *     @arg GPIO_Remap_TIM11            : TIM11 Alternate Function mapping (only for XL-density de
 539:lib/src/stm32f10x_gpio.c ****   *     @arg GPIO_Remap_TIM13            : TIM13 Alternate Function mapping (only for High density 
 540:lib/src/stm32f10x_gpio.c ****   *     @arg GPIO_Remap_TIM14            : TIM14 Alternate Function mapping (only for High density 
 541:lib/src/stm32f10x_gpio.c ****   *     @arg GPIO_Remap_FSMC_NADV        : FSMC_NADV Alternate Function mapping (only for High dens
 542:lib/src/stm32f10x_gpio.c ****   *     @arg GPIO_Remap_TIM67_DAC_DMA    : TIM6/TIM7 and DAC DMA requests remapping (only for High 
 543:lib/src/stm32f10x_gpio.c ****   *     @arg GPIO_Remap_TIM12            : TIM12 Alternate Function mapping (only for High density 
 544:lib/src/stm32f10x_gpio.c ****   *     @arg GPIO_Remap_MISC             : Miscellaneous Remap (DMA2 Channel5 Position and DAC Trig
 545:lib/src/stm32f10x_gpio.c ****   *                                        only for High density Value line devices)     
 546:lib/src/stm32f10x_gpio.c ****   * @param  NewState: new state of the port pin remapping.
 547:lib/src/stm32f10x_gpio.c ****   *   This parameter can be: ENABLE or DISABLE.
 548:lib/src/stm32f10x_gpio.c ****   * @retval None
 549:lib/src/stm32f10x_gpio.c ****   */
 550:lib/src/stm32f10x_gpio.c **** void GPIO_PinRemapConfig(uint32_t GPIO_Remap, FunctionalState NewState)
 551:lib/src/stm32f10x_gpio.c **** {
 700              		.loc 1 551 0
 701              		.cfi_startproc
 702              		@ args = 0, pretend = 0, frame = 0
 703              		@ frame_needed = 0, uses_anonymous_args = 0
 704              		@ link register save eliminated.
 705              	.LVL85:
 706 0204 30B4     		push	{r4, r5}
 707              		.cfi_def_cfa_offset 8
 708              		.cfi_offset 4, -8
 709              		.cfi_offset 5, -4
 710              	.LVL86:
 552:lib/src/stm32f10x_gpio.c ****   uint32_t tmp = 0x00, tmp1 = 0x00, tmpreg = 0x00, tmpmask = 0x00;
 553:lib/src/stm32f10x_gpio.c **** 
 554:lib/src/stm32f10x_gpio.c ****   /* Check the parameters */
 555:lib/src/stm32f10x_gpio.c ****   assert_param(IS_GPIO_REMAP(GPIO_Remap));
 556:lib/src/stm32f10x_gpio.c ****   assert_param(IS_FUNCTIONAL_STATE(NewState));  
 557:lib/src/stm32f10x_gpio.c ****   
 558:lib/src/stm32f10x_gpio.c ****   if((GPIO_Remap & 0x80000000) == 0x80000000)
 711              		.loc 1 558 0
 712 0206 0028     		cmp	r0, #0
 559:lib/src/stm32f10x_gpio.c ****   {
 560:lib/src/stm32f10x_gpio.c ****     tmpreg = AFIO->MAPR2;
 713              		.loc 1 560 0
 714 0208 184B     		ldr	r3, .L67
 715 020a B4BF     		ite	lt
 716 020c DB69     		ldrlt	r3, [r3, #28]
 717              	.LVL87:
 561:lib/src/stm32f10x_gpio.c ****   }
 562:lib/src/stm32f10x_gpio.c ****   else
 563:lib/src/stm32f10x_gpio.c ****   {
 564:lib/src/stm32f10x_gpio.c ****     tmpreg = AFIO->MAPR;
 718              		.loc 1 564 0
 719 020e 5B68     		ldrge	r3, [r3, #4]
 720              	.LVL88:
 565:lib/src/stm32f10x_gpio.c ****   }
ARM GAS  /tmp/ccAKmUN2.s 			page 24


 566:lib/src/stm32f10x_gpio.c **** 
 567:lib/src/stm32f10x_gpio.c ****   tmpmask = (GPIO_Remap & DBGAFR_POSITION_MASK) >> 0x10;
 568:lib/src/stm32f10x_gpio.c ****   tmp = GPIO_Remap & LSB_MASK;
 721              		.loc 1 568 0
 722 0210 82B2     		uxth	r2, r0
 723              	.LVL89:
 569:lib/src/stm32f10x_gpio.c **** 
 570:lib/src/stm32f10x_gpio.c ****   if ((GPIO_Remap & (DBGAFR_LOCATION_MASK | DBGAFR_NUMBITS_MASK)) == (DBGAFR_LOCATION_MASK | DBGAFR
 724              		.loc 1 570 0
 725 0212 00F44014 		and	r4, r0, #3145728
 726 0216 B4F5401F 		cmp	r4, #3145728
 727 021a 16D0     		beq	.L66
 571:lib/src/stm32f10x_gpio.c ****   {
 572:lib/src/stm32f10x_gpio.c ****     tmpreg &= DBGAFR_SWJCFG_MASK;
 573:lib/src/stm32f10x_gpio.c ****     AFIO->MAPR &= DBGAFR_SWJCFG_MASK;
 574:lib/src/stm32f10x_gpio.c ****   }
 575:lib/src/stm32f10x_gpio.c ****   else if ((GPIO_Remap & DBGAFR_NUMBITS_MASK) == DBGAFR_NUMBITS_MASK)
 728              		.loc 1 575 0
 729 021c 10F4801F 		tst	r0, #1048576
 730 0220 1BD0     		beq	.L61
 731              	.LVL90:
 567:lib/src/stm32f10x_gpio.c ****   tmp = GPIO_Remap & LSB_MASK;
 732              		.loc 1 567 0
 733 0222 C0F30345 		ubfx	r5, r0, #16, #4
 576:lib/src/stm32f10x_gpio.c ****   {
 577:lib/src/stm32f10x_gpio.c ****     tmp1 = ((uint32_t)0x03) << tmpmask;
 734              		.loc 1 577 0
 735 0226 0324     		movs	r4, #3
 736 0228 AC40     		lsls	r4, r4, r5
 578:lib/src/stm32f10x_gpio.c ****     tmpreg &= ~tmp1;
 737              		.loc 1 578 0
 738 022a 23EA0403 		bic	r3, r3, r4
 739              	.LVL91:
 579:lib/src/stm32f10x_gpio.c ****     tmpreg |= ~DBGAFR_SWJCFG_MASK;
 740              		.loc 1 579 0
 741 022e 43F07063 		orr	r3, r3, #251658240
 742              	.LVL92:
 743              	.L60:
 580:lib/src/stm32f10x_gpio.c ****   }
 581:lib/src/stm32f10x_gpio.c ****   else
 582:lib/src/stm32f10x_gpio.c ****   {
 583:lib/src/stm32f10x_gpio.c ****     tmpreg &= ~(tmp << ((GPIO_Remap >> 0x15)*0x10));
 584:lib/src/stm32f10x_gpio.c ****     tmpreg |= ~DBGAFR_SWJCFG_MASK;
 585:lib/src/stm32f10x_gpio.c ****   }
 586:lib/src/stm32f10x_gpio.c **** 
 587:lib/src/stm32f10x_gpio.c ****   if (NewState != DISABLE)
 744              		.loc 1 587 0
 745 0232 19B1     		cbz	r1, .L62
 588:lib/src/stm32f10x_gpio.c ****   {
 589:lib/src/stm32f10x_gpio.c ****     tmpreg |= (tmp << ((GPIO_Remap >> 0x15)*0x10));
 746              		.loc 1 589 0
 747 0234 410D     		lsrs	r1, r0, #21
 748              	.LVL93:
 749 0236 0901     		lsls	r1, r1, #4
 750 0238 8A40     		lsls	r2, r2, r1
 751              	.LVL94:
 752 023a 1343     		orrs	r3, r3, r2
ARM GAS  /tmp/ccAKmUN2.s 			page 25


 753              	.LVL95:
 754              	.L62:
 590:lib/src/stm32f10x_gpio.c ****   }
 591:lib/src/stm32f10x_gpio.c **** 
 592:lib/src/stm32f10x_gpio.c ****   if((GPIO_Remap & 0x80000000) == 0x80000000)
 755              		.loc 1 592 0
 756 023c 0028     		cmp	r0, #0
 593:lib/src/stm32f10x_gpio.c ****   {
 594:lib/src/stm32f10x_gpio.c ****     AFIO->MAPR2 = tmpreg;
 757              		.loc 1 594 0
 758 023e 0B4A     		ldr	r2, .L67
 759 0240 B4BF     		ite	lt
 760 0242 D361     		strlt	r3, [r2, #28]
 595:lib/src/stm32f10x_gpio.c ****   }
 596:lib/src/stm32f10x_gpio.c ****   else
 597:lib/src/stm32f10x_gpio.c ****   {
 598:lib/src/stm32f10x_gpio.c ****     AFIO->MAPR = tmpreg;
 761              		.loc 1 598 0
 762 0244 5360     		strge	r3, [r2, #4]
 599:lib/src/stm32f10x_gpio.c ****   }  
 600:lib/src/stm32f10x_gpio.c **** }
 763              		.loc 1 600 0
 764 0246 30BC     		pop	{r4, r5}
 765              		.cfi_remember_state
 766              		.cfi_restore 5
 767              		.cfi_restore 4
 768              		.cfi_def_cfa_offset 0
 769 0248 7047     		bx	lr
 770              	.LVL96:
 771              	.L66:
 772              		.cfi_restore_state
 572:lib/src/stm32f10x_gpio.c ****     AFIO->MAPR &= DBGAFR_SWJCFG_MASK;
 773              		.loc 1 572 0
 774 024a 23F07063 		bic	r3, r3, #251658240
 775              	.LVL97:
 573:lib/src/stm32f10x_gpio.c ****   }
 776              		.loc 1 573 0
 777 024e 074D     		ldr	r5, .L67
 778 0250 6C68     		ldr	r4, [r5, #4]
 779 0252 24F07064 		bic	r4, r4, #251658240
 780 0256 6C60     		str	r4, [r5, #4]
 781 0258 EBE7     		b	.L60
 782              	.L61:
 583:lib/src/stm32f10x_gpio.c ****     tmpreg |= ~DBGAFR_SWJCFG_MASK;
 783              		.loc 1 583 0
 784 025a 440D     		lsrs	r4, r0, #21
 785 025c 2401     		lsls	r4, r4, #4
 786 025e 02FA04F4 		lsl	r4, r2, r4
 787 0262 23EA0403 		bic	r3, r3, r4
 788              	.LVL98:
 584:lib/src/stm32f10x_gpio.c ****   }
 789              		.loc 1 584 0
 790 0266 43F07063 		orr	r3, r3, #251658240
 791              	.LVL99:
 792 026a E2E7     		b	.L60
 793              	.L68:
 794              		.align	2
ARM GAS  /tmp/ccAKmUN2.s 			page 26


 795              	.L67:
 796 026c 00000140 		.word	1073807360
 797              		.cfi_endproc
 798              	.LFE79:
 799              		.size	GPIO_PinRemapConfig, .-GPIO_PinRemapConfig
 800              		.align	1
 801              		.global	GPIO_EXTILineConfig
 802              		.syntax unified
 803              		.thumb
 804              		.thumb_func
 805              		.fpu softvfp
 806              		.type	GPIO_EXTILineConfig, %function
 807              	GPIO_EXTILineConfig:
 808              	.LFB80:
 601:lib/src/stm32f10x_gpio.c **** 
 602:lib/src/stm32f10x_gpio.c **** /**
 603:lib/src/stm32f10x_gpio.c ****   * @brief  Selects the GPIO pin used as EXTI Line.
 604:lib/src/stm32f10x_gpio.c ****   * @param  GPIO_PortSource: selects the GPIO port to be used as source for EXTI lines.
 605:lib/src/stm32f10x_gpio.c ****   *   This parameter can be GPIO_PortSourceGPIOx where x can be (A..G).
 606:lib/src/stm32f10x_gpio.c ****   * @param  GPIO_PinSource: specifies the EXTI line to be configured.
 607:lib/src/stm32f10x_gpio.c ****   *   This parameter can be GPIO_PinSourcex where x can be (0..15).
 608:lib/src/stm32f10x_gpio.c ****   * @retval None
 609:lib/src/stm32f10x_gpio.c ****   */
 610:lib/src/stm32f10x_gpio.c **** void GPIO_EXTILineConfig(uint8_t GPIO_PortSource, uint8_t GPIO_PinSource)
 611:lib/src/stm32f10x_gpio.c **** {
 809              		.loc 1 611 0
 810              		.cfi_startproc
 811              		@ args = 0, pretend = 0, frame = 0
 812              		@ frame_needed = 0, uses_anonymous_args = 0
 813              		@ link register save eliminated.
 814              	.LVL100:
 815 0270 10B4     		push	{r4}
 816              		.cfi_def_cfa_offset 4
 817              		.cfi_offset 4, -4
 818              	.LVL101:
 612:lib/src/stm32f10x_gpio.c ****   uint32_t tmp = 0x00;
 613:lib/src/stm32f10x_gpio.c ****   /* Check the parameters */
 614:lib/src/stm32f10x_gpio.c ****   assert_param(IS_GPIO_EXTI_PORT_SOURCE(GPIO_PortSource));
 615:lib/src/stm32f10x_gpio.c ****   assert_param(IS_GPIO_PIN_SOURCE(GPIO_PinSource));
 616:lib/src/stm32f10x_gpio.c ****   
 617:lib/src/stm32f10x_gpio.c ****   tmp = ((uint32_t)0x0F) << (0x04 * (GPIO_PinSource & (uint8_t)0x03));
 819              		.loc 1 617 0
 820 0272 01F00303 		and	r3, r1, #3
 821 0276 9B00     		lsls	r3, r3, #2
 822              	.LVL102:
 823 0278 01F0FC01 		and	r1, r1, #252
 824              	.LVL103:
 825 027c 01F18041 		add	r1, r1, #1073741824
 826 0280 01F58031 		add	r1, r1, #65536
 618:lib/src/stm32f10x_gpio.c ****   AFIO->EXTICR[GPIO_PinSource >> 0x02] &= ~tmp;
 827              		.loc 1 618 0
 828 0284 8A68     		ldr	r2, [r1, #8]
 617:lib/src/stm32f10x_gpio.c ****   AFIO->EXTICR[GPIO_PinSource >> 0x02] &= ~tmp;
 829              		.loc 1 617 0
 830 0286 0F24     		movs	r4, #15
 831 0288 9C40     		lsls	r4, r4, r3
 832              	.LVL104:
ARM GAS  /tmp/ccAKmUN2.s 			page 27


 833              		.loc 1 618 0
 834 028a 22EA0402 		bic	r2, r2, r4
 835 028e 8A60     		str	r2, [r1, #8]
 619:lib/src/stm32f10x_gpio.c ****   AFIO->EXTICR[GPIO_PinSource >> 0x02] |= (((uint32_t)GPIO_PortSource) << (0x04 * (GPIO_PinSource &
 836              		.loc 1 619 0
 837 0290 8A68     		ldr	r2, [r1, #8]
 838 0292 9840     		lsls	r0, r0, r3
 839              	.LVL105:
 840 0294 1043     		orrs	r0, r0, r2
 841 0296 8860     		str	r0, [r1, #8]
 620:lib/src/stm32f10x_gpio.c **** }
 842              		.loc 1 620 0
 843 0298 10BC     		pop	{r4}
 844              		.cfi_restore 4
 845              		.cfi_def_cfa_offset 0
 846              	.LVL106:
 847 029a 7047     		bx	lr
 848              		.cfi_endproc
 849              	.LFE80:
 850              		.size	GPIO_EXTILineConfig, .-GPIO_EXTILineConfig
 851              		.align	1
 852              		.global	GPIO_ETH_MediaInterfaceConfig
 853              		.syntax unified
 854              		.thumb
 855              		.thumb_func
 856              		.fpu softvfp
 857              		.type	GPIO_ETH_MediaInterfaceConfig, %function
 858              	GPIO_ETH_MediaInterfaceConfig:
 859              	.LFB81:
 621:lib/src/stm32f10x_gpio.c **** 
 622:lib/src/stm32f10x_gpio.c **** /**
 623:lib/src/stm32f10x_gpio.c ****   * @brief  Selects the Ethernet media interface.
 624:lib/src/stm32f10x_gpio.c ****   * @note   This function applies only to STM32 Connectivity line devices.  
 625:lib/src/stm32f10x_gpio.c ****   * @param  GPIO_ETH_MediaInterface: specifies the Media Interface mode.
 626:lib/src/stm32f10x_gpio.c ****   *   This parameter can be one of the following values:
 627:lib/src/stm32f10x_gpio.c ****   *     @arg GPIO_ETH_MediaInterface_MII: MII mode
 628:lib/src/stm32f10x_gpio.c ****   *     @arg GPIO_ETH_MediaInterface_RMII: RMII mode    
 629:lib/src/stm32f10x_gpio.c ****   * @retval None
 630:lib/src/stm32f10x_gpio.c ****   */
 631:lib/src/stm32f10x_gpio.c **** void GPIO_ETH_MediaInterfaceConfig(uint32_t GPIO_ETH_MediaInterface) 
 632:lib/src/stm32f10x_gpio.c **** { 
 860              		.loc 1 632 0
 861              		.cfi_startproc
 862              		@ args = 0, pretend = 0, frame = 0
 863              		@ frame_needed = 0, uses_anonymous_args = 0
 864              		@ link register save eliminated.
 865              	.LVL107:
 633:lib/src/stm32f10x_gpio.c ****   assert_param(IS_GPIO_ETH_MEDIA_INTERFACE(GPIO_ETH_MediaInterface)); 
 634:lib/src/stm32f10x_gpio.c **** 
 635:lib/src/stm32f10x_gpio.c ****   /* Configure MII_RMII selection bit */ 
 636:lib/src/stm32f10x_gpio.c ****   *(__IO uint32_t *) MAPR_MII_RMII_SEL_BB = GPIO_ETH_MediaInterface; 
 866              		.loc 1 636 0
 867 029c 014B     		ldr	r3, .L72
 868 029e 1860     		str	r0, [r3]
 869 02a0 7047     		bx	lr
 870              	.L73:
 871 02a2 00BF     		.align	2
ARM GAS  /tmp/ccAKmUN2.s 			page 28


 872              	.L72:
 873 02a4 DC002042 		.word	1109393628
 874              		.cfi_endproc
 875              	.LFE81:
 876              		.size	GPIO_ETH_MediaInterfaceConfig, .-GPIO_ETH_MediaInterfaceConfig
 877              	.Letext0:
 878              		.file 2 "/usr/arm-none-eabi/include/machine/_default_types.h"
 879              		.file 3 "/usr/arm-none-eabi/include/sys/_stdint.h"
 880              		.file 4 "/home/enbin/Documents/code/STM/stm32-quadrocopter/cmsis/core_cm3.h"
 881              		.file 5 "/home/enbin/Documents/code/STM/stm32-quadrocopter/lib/inc/system_stm32f10x.h"
 882              		.file 6 "/home/enbin/Documents/code/STM/stm32-quadrocopter/lib/inc/stm32f10x.h"
 883              		.file 7 "/home/enbin/Documents/code/STM/stm32-quadrocopter/lib/inc/stm32f10x_gpio.h"
 884              		.file 8 "/home/enbin/Documents/code/STM/stm32-quadrocopter/drivers/MPU6050.h"
 885              		.file 9 "/usr/arm-none-eabi/include/sys/lock.h"
 886              		.file 10 "/usr/arm-none-eabi/include/sys/_types.h"
 887              		.file 11 "/usr/lib/gcc/arm-none-eabi/6.1.1/include/stddef.h"
 888              		.file 12 "/usr/arm-none-eabi/include/sys/reent.h"
 889              		.file 13 "/usr/arm-none-eabi/include/stdlib.h"
 890              		.file 14 "/usr/arm-none-eabi/include/math.h"
 891              		.file 15 "/usr/arm-none-eabi/include/sys/errno.h"
 892              		.file 16 "/home/enbin/Documents/code/STM/stm32-quadrocopter/lib/inc/stm32f10x_rcc.h"