ARM GAS  /tmp/ccP9nfJH.s 			page 1


   1              		.cpu cortex-m3
   2              		.eabi_attribute 20, 1
   3              		.eabi_attribute 21, 1
   4              		.eabi_attribute 23, 3
   5              		.eabi_attribute 24, 1
   6              		.eabi_attribute 25, 1
   7              		.eabi_attribute 26, 1
   8              		.eabi_attribute 30, 6
   9              		.eabi_attribute 34, 1
  10              		.eabi_attribute 18, 4
  11              		.file	"system.c"
  12              		.text
  13              	.Ltext0:
  14              		.cfi_sections	.debug_frame
  15              		.global	SystemCoreClock
  16              		.data
  17              		.align	2
  18              		.type	SystemCoreClock, %object
  19              		.size	SystemCoreClock, 4
  20              	SystemCoreClock:
  21 0000 00A24A04 		.word	72000000
  22              		.global	AHBPrescTable
  23              		.align	2
  24              		.type	AHBPrescTable, %object
  25              		.size	AHBPrescTable, 16
  26              	AHBPrescTable:
  27 0004 00       		.byte	0
  28 0005 00       		.byte	0
  29 0006 00       		.byte	0
  30 0007 00       		.byte	0
  31 0008 00       		.byte	0
  32 0009 00       		.byte	0
  33 000a 00       		.byte	0
  34 000b 00       		.byte	0
  35 000c 01       		.byte	1
  36 000d 02       		.byte	2
  37 000e 03       		.byte	3
  38 000f 04       		.byte	4
  39 0010 06       		.byte	6
  40 0011 07       		.byte	7
  41 0012 08       		.byte	8
  42 0013 09       		.byte	9
  43              		.text
  44              		.align	1
  45              		.global	SystemInit
  46              		.syntax unified
  47              		.thumb
  48              		.thumb_func
  49              		.fpu softvfp
  50              		.type	SystemInit, %function
  51              	SystemInit:
  52              	.LFB63:
  53              		.file 1 "src/system.c"
   1:src/system.c  **** #include "../include/STM32/stm32f10x.h"
   2:src/system.c  **** 
   3:src/system.c  **** /*!< Uncomment the line corresponding to the desired System clock (SYSCLK)
   4:src/system.c  ****    frequency (after reset the HSI is used as SYSCLK source)
ARM GAS  /tmp/ccP9nfJH.s 			page 2


   5:src/system.c  ****    
   6:src/system.c  ****    IMPORTANT NOTE:
   7:src/system.c  ****    ============== 
   8:src/system.c  ****    1. After each device reset the HSI is used as System clock source.
   9:src/system.c  **** 
  10:src/system.c  ****    2. Please make sure that the selected System clock doesn't exceed your device's
  11:src/system.c  ****       maximum frequency.
  12:src/system.c  ****       
  13:src/system.c  ****    3. If none of the define below is enabled, the HSI is used as System clock
  14:src/system.c  ****     source.
  15:src/system.c  **** 
  16:src/system.c  ****    4. The System clock configuration functions provided within this file assume that:
  17:src/system.c  ****         - For Low, Medium and High density Value line devices an external 8MHz 
  18:src/system.c  ****           crystal is used to drive the System clock.
  19:src/system.c  ****         - For Low, Medium and High density devices an external 8MHz crystal is
  20:src/system.c  ****           used to drive the System clock.
  21:src/system.c  ****         - For Connectivity line devices an external 25MHz crystal is used to drive
  22:src/system.c  ****           the System clock.
  23:src/system.c  ****      If you are using different crystal you have to adapt those functions accordingly.
  24:src/system.c  ****     */
  25:src/system.c  ****     
  26:src/system.c  **** #if defined (STM32F10X_LD_VL) || (defined STM32F10X_MD_VL) || (defined STM32F10X_HD_VL)
  27:src/system.c  **** /* #define SYSCLK_FREQ_HSE    HSE_VALUE */
  28:src/system.c  ****  #define SYSCLK_FREQ_24MHz  24000000
  29:src/system.c  **** #else
  30:src/system.c  **** /* #define SYSCLK_FREQ_HSE    HSE_VALUE */
  31:src/system.c  **** /* #define SYSCLK_FREQ_24MHz  24000000 */ 
  32:src/system.c  **** /* #define SYSCLK_FREQ_36MHz  36000000 */
  33:src/system.c  **** /* #define SYSCLK_FREQ_48MHz  48000000 */
  34:src/system.c  **** /* #define SYSCLK_FREQ_56MHz  56000000 */
  35:src/system.c  **** #define SYSCLK_FREQ_72MHz  72000000
  36:src/system.c  **** #endif
  37:src/system.c  **** 
  38:src/system.c  **** /*!< Uncomment the following line if you need to use external SRAM mounted
  39:src/system.c  ****      on STM3210E-EVAL board (STM32 High density and XL-density devices) or on 
  40:src/system.c  ****      STM32100E-EVAL board (STM32 High-density value line devices) as data memory */ 
  41:src/system.c  **** #if defined (STM32F10X_HD) || (defined STM32F10X_XL) || (defined STM32F10X_HD_VL)
  42:src/system.c  **** /* #define DATA_IN_ExtSRAM */
  43:src/system.c  **** #endif
  44:src/system.c  **** 
  45:src/system.c  **** /*!< Uncomment the following line if you need to relocate your vector Table in
  46:src/system.c  ****      Internal SRAM. */ 
  47:src/system.c  **** /* #define VECT_TAB_SRAM */
  48:src/system.c  **** #define VECT_TAB_OFFSET  0x0 /*!< Vector Table base offset field. 
  49:src/system.c  ****                                   This value must be a multiple of 0x200. */
  50:src/system.c  **** 
  51:src/system.c  **** 
  52:src/system.c  **** /*******************************************************************************
  53:src/system.c  **** *  Clock Definitions
  54:src/system.c  **** *******************************************************************************/
  55:src/system.c  **** #ifdef SYSCLK_FREQ_HSE
  56:src/system.c  ****   uint32_t SystemCoreClock         = SYSCLK_FREQ_HSE;        /*!< System Clock Frequency (Core Cloc
  57:src/system.c  **** #elif defined SYSCLK_FREQ_24MHz
  58:src/system.c  ****   uint32_t SystemCoreClock         = SYSCLK_FREQ_24MHz;        /*!< System Clock Frequency (Core Cl
  59:src/system.c  **** #elif defined SYSCLK_FREQ_36MHz
  60:src/system.c  ****   uint32_t SystemCoreClock         = SYSCLK_FREQ_36MHz;        /*!< System Clock Frequency (Core Cl
  61:src/system.c  **** #elif defined SYSCLK_FREQ_48MHz
ARM GAS  /tmp/ccP9nfJH.s 			page 3


  62:src/system.c  ****   uint32_t SystemCoreClock         = SYSCLK_FREQ_48MHz;        /*!< System Clock Frequency (Core Cl
  63:src/system.c  **** #elif defined SYSCLK_FREQ_56MHz
  64:src/system.c  ****   uint32_t SystemCoreClock         = SYSCLK_FREQ_56MHz;        /*!< System Clock Frequency (Core Cl
  65:src/system.c  **** #elif defined SYSCLK_FREQ_72MHz
  66:src/system.c  ****   uint32_t SystemCoreClock         = SYSCLK_FREQ_72MHz;        /*!< System Clock Frequency (Core Cl
  67:src/system.c  **** #else /*!< HSI Selected as System Clock source */
  68:src/system.c  ****   uint32_t SystemCoreClock         = HSI_VALUE;        /*!< System Clock Frequency (Core Clock) */
  69:src/system.c  **** #endif
  70:src/system.c  **** 
  71:src/system.c  **** __I uint8_t AHBPrescTable[16] = {0, 0, 0, 0, 0, 0, 0, 0, 1, 2, 3, 4, 6, 7, 8, 9};
  72:src/system.c  **** /**
  73:src/system.c  ****   * @}
  74:src/system.c  ****   */
  75:src/system.c  **** 
  76:src/system.c  **** /** @addtogroup STM32F10x_System_Private_FunctionPrototypes
  77:src/system.c  ****   * @{
  78:src/system.c  ****   */
  79:src/system.c  **** 
  80:src/system.c  **** static void SetSysClock(void);
  81:src/system.c  **** 
  82:src/system.c  **** #ifdef SYSCLK_FREQ_HSE
  83:src/system.c  ****   static void SetSysClockToHSE(void);
  84:src/system.c  **** #elif defined SYSCLK_FREQ_24MHz
  85:src/system.c  ****   static void SetSysClockTo24(void);
  86:src/system.c  **** #elif defined SYSCLK_FREQ_36MHz
  87:src/system.c  ****   static void SetSysClockTo36(void);
  88:src/system.c  **** #elif defined SYSCLK_FREQ_48MHz
  89:src/system.c  ****   static void SetSysClockTo48(void);
  90:src/system.c  **** #elif defined SYSCLK_FREQ_56MHz
  91:src/system.c  ****   static void SetSysClockTo56(void);  
  92:src/system.c  **** #elif defined SYSCLK_FREQ_72MHz
  93:src/system.c  ****   static void SetSysClockTo72(void);
  94:src/system.c  **** #endif
  95:src/system.c  **** 
  96:src/system.c  **** #ifdef DATA_IN_ExtSRAM
  97:src/system.c  ****   static void SystemInit_ExtMemCtl(void); 
  98:src/system.c  **** #endif /* DATA_IN_ExtSRAM */
  99:src/system.c  **** 
 100:src/system.c  **** /**
 101:src/system.c  ****   * @brief  Setup the microcontroller system
 102:src/system.c  ****   *         Initialize the Embedded Flash Interface, the PLL and update the 
 103:src/system.c  ****   *         SystemCoreClock variable.
 104:src/system.c  ****   * @note   This function should be used only after reset.
 105:src/system.c  ****   * @param  None
 106:src/system.c  ****   * @retval None
 107:src/system.c  ****   */
 108:src/system.c  **** void SystemInit (void)
 109:src/system.c  **** {
  54              		.loc 1 109 0
  55              		.cfi_startproc
  56              		@ args = 0, pretend = 0, frame = 0
  57              		@ frame_needed = 1, uses_anonymous_args = 0
  58 0000 80B5     		push	{r7, lr}
  59              		.cfi_def_cfa_offset 8
  60              		.cfi_offset 7, -8
  61              		.cfi_offset 14, -4
  62 0002 00AF     		add	r7, sp, #0
ARM GAS  /tmp/ccP9nfJH.s 			page 4


  63              		.cfi_def_cfa_register 7
 110:src/system.c  ****   /* Reset the RCC clock configuration to the default reset state(for debug purpose) */
 111:src/system.c  ****   /* Set HSION bit */
 112:src/system.c  ****   RCC->CR |= (uint32_t)0x00000001;
  64              		.loc 1 112 0
  65 0004 154A     		ldr	r2, .L2
  66 0006 154B     		ldr	r3, .L2
  67 0008 1B68     		ldr	r3, [r3]
  68 000a 43F00103 		orr	r3, r3, #1
  69 000e 1360     		str	r3, [r2]
 113:src/system.c  **** 
 114:src/system.c  ****   /* Reset SW, HPRE, PPRE1, PPRE2, ADCPRE and MCO bits */
 115:src/system.c  **** #ifndef STM32F10X_CL
 116:src/system.c  ****   RCC->CFGR &= (uint32_t)0xF8FF0000;
  70              		.loc 1 116 0
  71 0010 1249     		ldr	r1, .L2
  72 0012 124B     		ldr	r3, .L2
  73 0014 5A68     		ldr	r2, [r3, #4]
  74 0016 124B     		ldr	r3, .L2+4
  75 0018 1340     		ands	r3, r3, r2
  76 001a 4B60     		str	r3, [r1, #4]
 117:src/system.c  **** #else
 118:src/system.c  ****   RCC->CFGR &= (uint32_t)0xF0FF0000;
 119:src/system.c  **** #endif /* STM32F10X_CL */   
 120:src/system.c  ****   
 121:src/system.c  ****   /* Reset HSEON, CSSON and PLLON bits */
 122:src/system.c  ****   RCC->CR &= (uint32_t)0xFEF6FFFF;
  77              		.loc 1 122 0
  78 001c 0F4A     		ldr	r2, .L2
  79 001e 0F4B     		ldr	r3, .L2
  80 0020 1B68     		ldr	r3, [r3]
  81 0022 23F08473 		bic	r3, r3, #17301504
  82 0026 23F48033 		bic	r3, r3, #65536
  83 002a 1360     		str	r3, [r2]
 123:src/system.c  **** 
 124:src/system.c  ****   /* Reset HSEBYP bit */
 125:src/system.c  ****   RCC->CR &= (uint32_t)0xFFFBFFFF;
  84              		.loc 1 125 0
  85 002c 0B4A     		ldr	r2, .L2
  86 002e 0B4B     		ldr	r3, .L2
  87 0030 1B68     		ldr	r3, [r3]
  88 0032 23F48023 		bic	r3, r3, #262144
  89 0036 1360     		str	r3, [r2]
 126:src/system.c  **** 
 127:src/system.c  ****   /* Reset PLLSRC, PLLXTPRE, PLLMUL and USBPRE/OTGFSPRE bits */
 128:src/system.c  ****   RCC->CFGR &= (uint32_t)0xFF80FFFF;
  90              		.loc 1 128 0
  91 0038 084A     		ldr	r2, .L2
  92 003a 084B     		ldr	r3, .L2
  93 003c 5B68     		ldr	r3, [r3, #4]
  94 003e 23F4FE03 		bic	r3, r3, #8323072
  95 0042 5360     		str	r3, [r2, #4]
 129:src/system.c  **** 
 130:src/system.c  **** #ifdef STM32F10X_CL
 131:src/system.c  ****   /* Reset PLL2ON and PLL3ON bits */
 132:src/system.c  ****   RCC->CR &= (uint32_t)0xEBFFFFFF;
 133:src/system.c  **** 
ARM GAS  /tmp/ccP9nfJH.s 			page 5


 134:src/system.c  ****   /* Disable all interrupts and clear pending bits  */
 135:src/system.c  ****   RCC->CIR = 0x00FF0000;
 136:src/system.c  **** 
 137:src/system.c  ****   /* Reset CFGR2 register */
 138:src/system.c  ****   RCC->CFGR2 = 0x00000000;
 139:src/system.c  **** #elif defined (STM32F10X_LD_VL) || defined (STM32F10X_MD_VL) || (defined STM32F10X_HD_VL)
 140:src/system.c  ****   /* Disable all interrupts and clear pending bits  */
 141:src/system.c  ****   RCC->CIR = 0x009F0000;
 142:src/system.c  **** 
 143:src/system.c  ****   /* Reset CFGR2 register */
 144:src/system.c  ****   RCC->CFGR2 = 0x00000000;      
 145:src/system.c  **** #else
 146:src/system.c  ****   /* Disable all interrupts and clear pending bits  */
 147:src/system.c  ****   RCC->CIR = 0x009F0000;
  96              		.loc 1 147 0
  97 0044 054B     		ldr	r3, .L2
  98 0046 4FF41F02 		mov	r2, #10420224
  99 004a 9A60     		str	r2, [r3, #8]
 148:src/system.c  **** #endif /* STM32F10X_CL */
 149:src/system.c  ****     
 150:src/system.c  **** #if defined (STM32F10X_HD) || (defined STM32F10X_XL) || (defined STM32F10X_HD_VL)
 151:src/system.c  ****   #ifdef DATA_IN_ExtSRAM
 152:src/system.c  ****     SystemInit_ExtMemCtl(); 
 153:src/system.c  ****   #endif /* DATA_IN_ExtSRAM */
 154:src/system.c  **** #endif 
 155:src/system.c  **** 
 156:src/system.c  ****   /* Configure the System clock frequency, HCLK, PCLK2 and PCLK1 prescalers */
 157:src/system.c  ****   /* Configure the Flash Latency cycles and enable prefetch buffer */
 158:src/system.c  ****   SetSysClock();
 100              		.loc 1 158 0
 101 004c 00F078F8 		bl	SetSysClock
 159:src/system.c  **** 
 160:src/system.c  **** #ifdef VECT_TAB_SRAM
 161:src/system.c  ****   SCB->VTOR = SRAM_BASE | VECT_TAB_OFFSET; /* Vector Table Relocation in Internal SRAM. */
 162:src/system.c  **** #else
 163:src/system.c  ****   SCB->VTOR = FLASH_BASE | VECT_TAB_OFFSET; /* Vector Table Relocation in Internal FLASH. */
 102              		.loc 1 163 0
 103 0050 044B     		ldr	r3, .L2+8
 104 0052 4FF00062 		mov	r2, #134217728
 105 0056 9A60     		str	r2, [r3, #8]
 164:src/system.c  **** #endif 
 165:src/system.c  **** }
 106              		.loc 1 165 0
 107 0058 00BF     		nop
 108 005a 80BD     		pop	{r7, pc}
 109              	.L3:
 110              		.align	2
 111              	.L2:
 112 005c 00100240 		.word	1073876992
 113 0060 0000FFF8 		.word	-117506048
 114 0064 00ED00E0 		.word	-536810240
 115              		.cfi_endproc
 116              	.LFE63:
 117              		.size	SystemInit, .-SystemInit
 118              		.align	1
 119              		.global	SystemCoreClockUpdate
 120              		.syntax unified
ARM GAS  /tmp/ccP9nfJH.s 			page 6


 121              		.thumb
 122              		.thumb_func
 123              		.fpu softvfp
 124              		.type	SystemCoreClockUpdate, %function
 125              	SystemCoreClockUpdate:
 126              	.LFB64:
 166:src/system.c  **** 
 167:src/system.c  **** /**
 168:src/system.c  ****   * @brief  Update SystemCoreClock variable according to Clock Register Values.
 169:src/system.c  ****   *         The SystemCoreClock variable contains the core clock (HCLK), it can
 170:src/system.c  ****   *         be used by the user application to setup the SysTick timer or configure
 171:src/system.c  ****   *         other parameters.
 172:src/system.c  ****   *           
 173:src/system.c  ****   * @note   Each time the core clock (HCLK) changes, this function must be called
 174:src/system.c  ****   *         to update SystemCoreClock variable value. Otherwise, any configuration
 175:src/system.c  ****   *         based on this variable will be incorrect.         
 176:src/system.c  ****   *     
 177:src/system.c  ****   * @note   - The system frequency computed by this function is not the real 
 178:src/system.c  ****   *           frequency in the chip. It is calculated based on the predefined 
 179:src/system.c  ****   *           constant and the selected clock source:
 180:src/system.c  ****   *             
 181:src/system.c  ****   *           - If SYSCLK source is HSI, SystemCoreClock will contain the HSI_VALUE(*)
 182:src/system.c  ****   *                                              
 183:src/system.c  ****   *           - If SYSCLK source is HSE, SystemCoreClock will contain the HSE_VALUE(**)
 184:src/system.c  ****   *                          
 185:src/system.c  ****   *           - If SYSCLK source is PLL, SystemCoreClock will contain the HSE_VALUE(**) 
 186:src/system.c  ****   *             or HSI_VALUE(*) multiplied by the PLL factors.
 187:src/system.c  ****   *         
 188:src/system.c  ****   *         (*) HSI_VALUE is a constant defined in stm32f1xx.h file (default value
 189:src/system.c  ****   *             8 MHz) but the real value may vary depending on the variations
 190:src/system.c  ****   *             in voltage and temperature.   
 191:src/system.c  ****   *    
 192:src/system.c  ****   *         (**) HSE_VALUE is a constant defined in stm32f1xx.h file (default value
 193:src/system.c  ****   *              8 MHz or 25 MHz, depedning on the product used), user has to ensure
 194:src/system.c  ****   *              that HSE_VALUE is same as the real frequency of the crystal used.
 195:src/system.c  ****   *              Otherwise, this function may have wrong result.
 196:src/system.c  ****   *                
 197:src/system.c  ****   *         - The result of this function could be not correct when using fractional
 198:src/system.c  ****   *           value for HSE crystal.
 199:src/system.c  ****   * @param  None
 200:src/system.c  ****   * @retval None
 201:src/system.c  ****   */
 202:src/system.c  **** void SystemCoreClockUpdate (void)
 203:src/system.c  **** {
 127              		.loc 1 203 0
 128              		.cfi_startproc
 129              		@ args = 0, pretend = 0, frame = 16
 130              		@ frame_needed = 1, uses_anonymous_args = 0
 131              		@ link register save eliminated.
 132 0068 80B4     		push	{r7}
 133              		.cfi_def_cfa_offset 4
 134              		.cfi_offset 7, -4
 135 006a 85B0     		sub	sp, sp, #20
 136              		.cfi_def_cfa_offset 24
 137 006c 00AF     		add	r7, sp, #0
 138              		.cfi_def_cfa_register 7
 204:src/system.c  ****   uint32_t tmp = 0, pllmull = 0, pllsource = 0;
ARM GAS  /tmp/ccP9nfJH.s 			page 7


 139              		.loc 1 204 0
 140 006e 0023     		movs	r3, #0
 141 0070 FB60     		str	r3, [r7, #12]
 142 0072 0023     		movs	r3, #0
 143 0074 BB60     		str	r3, [r7, #8]
 144 0076 0023     		movs	r3, #0
 145 0078 7B60     		str	r3, [r7, #4]
 205:src/system.c  **** 
 206:src/system.c  **** #ifdef  STM32F10X_CL
 207:src/system.c  ****   uint32_t prediv1source = 0, prediv1factor = 0, prediv2factor = 0, pll2mull = 0;
 208:src/system.c  **** #endif /* STM32F10X_CL */
 209:src/system.c  **** 
 210:src/system.c  **** #if defined (STM32F10X_LD_VL) || defined (STM32F10X_MD_VL) || (defined STM32F10X_HD_VL)
 211:src/system.c  ****   uint32_t prediv1factor = 0;
 212:src/system.c  **** #endif /* STM32F10X_LD_VL or STM32F10X_MD_VL or STM32F10X_HD_VL */
 213:src/system.c  ****     
 214:src/system.c  ****   /* Get SYSCLK source -------------------------------------------------------*/
 215:src/system.c  ****   tmp = RCC->CFGR & RCC_CFGR_SWS;
 146              		.loc 1 215 0
 147 007a 2C4B     		ldr	r3, .L14
 148 007c 5B68     		ldr	r3, [r3, #4]
 149 007e 03F00C03 		and	r3, r3, #12
 150 0082 FB60     		str	r3, [r7, #12]
 216:src/system.c  ****   
 217:src/system.c  ****   switch (tmp)
 151              		.loc 1 217 0
 152 0084 FB68     		ldr	r3, [r7, #12]
 153 0086 042B     		cmp	r3, #4
 154 0088 07D0     		beq	.L6
 155 008a 082B     		cmp	r3, #8
 156 008c 09D0     		beq	.L7
 157 008e 002B     		cmp	r3, #0
 158 0090 33D1     		bne	.L13
 218:src/system.c  ****   {
 219:src/system.c  ****     case 0x00:  /* HSI used as system clock */
 220:src/system.c  ****       SystemCoreClock = HSI_VALUE;
 159              		.loc 1 220 0
 160 0092 274B     		ldr	r3, .L14+4
 161 0094 274A     		ldr	r2, .L14+8
 162 0096 1A60     		str	r2, [r3]
 221:src/system.c  ****       break;
 163              		.loc 1 221 0
 164 0098 33E0     		b	.L9
 165              	.L6:
 222:src/system.c  ****     case 0x04:  /* HSE used as system clock */
 223:src/system.c  ****       SystemCoreClock = HSE_VALUE;
 166              		.loc 1 223 0
 167 009a 254B     		ldr	r3, .L14+4
 168 009c 254A     		ldr	r2, .L14+8
 169 009e 1A60     		str	r2, [r3]
 224:src/system.c  ****       break;
 170              		.loc 1 224 0
 171 00a0 2FE0     		b	.L9
 172              	.L7:
 225:src/system.c  ****     case 0x08:  /* PLL used as system clock */
 226:src/system.c  **** 
 227:src/system.c  ****       /* Get PLL clock source and multiplication factor ----------------------*/
ARM GAS  /tmp/ccP9nfJH.s 			page 8


 228:src/system.c  ****       pllmull = RCC->CFGR & RCC_CFGR_PLLMULL;
 173              		.loc 1 228 0
 174 00a2 224B     		ldr	r3, .L14
 175 00a4 5B68     		ldr	r3, [r3, #4]
 176 00a6 03F47013 		and	r3, r3, #3932160
 177 00aa BB60     		str	r3, [r7, #8]
 229:src/system.c  ****       pllsource = RCC->CFGR & RCC_CFGR_PLLSRC;
 178              		.loc 1 229 0
 179 00ac 1F4B     		ldr	r3, .L14
 180 00ae 5B68     		ldr	r3, [r3, #4]
 181 00b0 03F48033 		and	r3, r3, #65536
 182 00b4 7B60     		str	r3, [r7, #4]
 230:src/system.c  ****       
 231:src/system.c  **** #ifndef STM32F10X_CL      
 232:src/system.c  ****       pllmull = ( pllmull >> 18) + 2;
 183              		.loc 1 232 0
 184 00b6 BB68     		ldr	r3, [r7, #8]
 185 00b8 9B0C     		lsrs	r3, r3, #18
 186 00ba 0233     		adds	r3, r3, #2
 187 00bc BB60     		str	r3, [r7, #8]
 233:src/system.c  ****       
 234:src/system.c  ****       if (pllsource == 0x00)
 188              		.loc 1 234 0
 189 00be 7B68     		ldr	r3, [r7, #4]
 190 00c0 002B     		cmp	r3, #0
 191 00c2 06D1     		bne	.L10
 235:src/system.c  ****       {
 236:src/system.c  ****         /* HSI oscillator clock divided by 2 selected as PLL clock entry */
 237:src/system.c  ****         SystemCoreClock = (HSI_VALUE >> 1) * pllmull;
 192              		.loc 1 237 0
 193 00c4 BB68     		ldr	r3, [r7, #8]
 194 00c6 1C4A     		ldr	r2, .L14+12
 195 00c8 02FB03F3 		mul	r3, r2, r3
 196 00cc 184A     		ldr	r2, .L14+4
 197 00ce 1360     		str	r3, [r2]
 238:src/system.c  ****       }
 239:src/system.c  ****       else
 240:src/system.c  ****       {
 241:src/system.c  ****  #if defined (STM32F10X_LD_VL) || defined (STM32F10X_MD_VL) || (defined STM32F10X_HD_VL)
 242:src/system.c  ****        prediv1factor = (RCC->CFGR2 & RCC_CFGR2_PREDIV1) + 1;
 243:src/system.c  ****        /* HSE oscillator clock selected as PREDIV1 clock entry */
 244:src/system.c  ****        SystemCoreClock = (HSE_VALUE / prediv1factor) * pllmull; 
 245:src/system.c  ****  #else
 246:src/system.c  ****         /* HSE selected as PLL clock entry */
 247:src/system.c  ****         if ((RCC->CFGR & RCC_CFGR_PLLXTPRE) != (uint32_t)RESET)
 248:src/system.c  ****         {/* HSE oscillator clock divided by 2 */
 249:src/system.c  ****           SystemCoreClock = (HSE_VALUE >> 1) * pllmull;
 250:src/system.c  ****         }
 251:src/system.c  ****         else
 252:src/system.c  ****         {
 253:src/system.c  ****           SystemCoreClock = HSE_VALUE * pllmull;
 254:src/system.c  ****         }
 255:src/system.c  ****  #endif
 256:src/system.c  ****       }
 257:src/system.c  **** #else
 258:src/system.c  ****       pllmull = pllmull >> 18;
 259:src/system.c  ****       
ARM GAS  /tmp/ccP9nfJH.s 			page 9


 260:src/system.c  ****       if (pllmull != 0x0D)
 261:src/system.c  ****       {
 262:src/system.c  ****          pllmull += 2;
 263:src/system.c  ****       }
 264:src/system.c  ****       else
 265:src/system.c  ****       { /* PLL multiplication factor = PLL input clock * 6.5 */
 266:src/system.c  ****         pllmull = 13 / 2; 
 267:src/system.c  ****       }
 268:src/system.c  ****             
 269:src/system.c  ****       if (pllsource == 0x00)
 270:src/system.c  ****       {
 271:src/system.c  ****         /* HSI oscillator clock divided by 2 selected as PLL clock entry */
 272:src/system.c  ****         SystemCoreClock = (HSI_VALUE >> 1) * pllmull;
 273:src/system.c  ****       }
 274:src/system.c  ****       else
 275:src/system.c  ****       {/* PREDIV1 selected as PLL clock entry */
 276:src/system.c  ****         
 277:src/system.c  ****         /* Get PREDIV1 clock source and division factor */
 278:src/system.c  ****         prediv1source = RCC->CFGR2 & RCC_CFGR2_PREDIV1SRC;
 279:src/system.c  ****         prediv1factor = (RCC->CFGR2 & RCC_CFGR2_PREDIV1) + 1;
 280:src/system.c  ****         
 281:src/system.c  ****         if (prediv1source == 0)
 282:src/system.c  ****         { 
 283:src/system.c  ****           /* HSE oscillator clock selected as PREDIV1 clock entry */
 284:src/system.c  ****           SystemCoreClock = (HSE_VALUE / prediv1factor) * pllmull;          
 285:src/system.c  ****         }
 286:src/system.c  ****         else
 287:src/system.c  ****         {/* PLL2 clock selected as PREDIV1 clock entry */
 288:src/system.c  ****           
 289:src/system.c  ****           /* Get PREDIV2 division factor and PLL2 multiplication factor */
 290:src/system.c  ****           prediv2factor = ((RCC->CFGR2 & RCC_CFGR2_PREDIV2) >> 4) + 1;
 291:src/system.c  ****           pll2mull = ((RCC->CFGR2 & RCC_CFGR2_PLL2MUL) >> 8 ) + 2; 
 292:src/system.c  ****           SystemCoreClock = (((HSE_VALUE / prediv2factor) * pll2mull) / prediv1factor) * pllmull;  
 293:src/system.c  ****         }
 294:src/system.c  ****       }
 295:src/system.c  **** #endif /* STM32F10X_CL */ 
 296:src/system.c  ****       break;
 198              		.loc 1 296 0
 199 00d0 17E0     		b	.L9
 200              	.L10:
 247:src/system.c  ****         {/* HSE oscillator clock divided by 2 */
 201              		.loc 1 247 0
 202 00d2 164B     		ldr	r3, .L14
 203 00d4 5B68     		ldr	r3, [r3, #4]
 204 00d6 03F40033 		and	r3, r3, #131072
 205 00da 002B     		cmp	r3, #0
 206 00dc 06D0     		beq	.L12
 249:src/system.c  ****         }
 207              		.loc 1 249 0
 208 00de BB68     		ldr	r3, [r7, #8]
 209 00e0 154A     		ldr	r2, .L14+12
 210 00e2 02FB03F3 		mul	r3, r2, r3
 211 00e6 124A     		ldr	r2, .L14+4
 212 00e8 1360     		str	r3, [r2]
 213              		.loc 1 296 0
 214 00ea 0AE0     		b	.L9
 215              	.L12:
ARM GAS  /tmp/ccP9nfJH.s 			page 10


 253:src/system.c  ****         }
 216              		.loc 1 253 0
 217 00ec BB68     		ldr	r3, [r7, #8]
 218 00ee 114A     		ldr	r2, .L14+8
 219 00f0 02FB03F3 		mul	r3, r2, r3
 220 00f4 0E4A     		ldr	r2, .L14+4
 221 00f6 1360     		str	r3, [r2]
 222              		.loc 1 296 0
 223 00f8 03E0     		b	.L9
 224              	.L13:
 297:src/system.c  **** 
 298:src/system.c  ****     default:
 299:src/system.c  ****       SystemCoreClock = HSI_VALUE;
 225              		.loc 1 299 0
 226 00fa 0D4B     		ldr	r3, .L14+4
 227 00fc 0D4A     		ldr	r2, .L14+8
 228 00fe 1A60     		str	r2, [r3]
 300:src/system.c  ****       break;
 229              		.loc 1 300 0
 230 0100 00BF     		nop
 231              	.L9:
 301:src/system.c  ****   }
 302:src/system.c  ****   
 303:src/system.c  ****   /* Compute HCLK clock frequency ----------------*/
 304:src/system.c  ****   /* Get HCLK prescaler */
 305:src/system.c  ****   tmp = AHBPrescTable[((RCC->CFGR & RCC_CFGR_HPRE) >> 4)];
 232              		.loc 1 305 0
 233 0102 0A4B     		ldr	r3, .L14
 234 0104 5B68     		ldr	r3, [r3, #4]
 235 0106 1B09     		lsrs	r3, r3, #4
 236 0108 03F00F03 		and	r3, r3, #15
 237 010c 0B4A     		ldr	r2, .L14+16
 238 010e D35C     		ldrb	r3, [r2, r3]
 239 0110 DBB2     		uxtb	r3, r3
 240 0112 FB60     		str	r3, [r7, #12]
 306:src/system.c  ****   /* HCLK clock frequency */
 307:src/system.c  ****   SystemCoreClock >>= tmp;  
 241              		.loc 1 307 0
 242 0114 064B     		ldr	r3, .L14+4
 243 0116 1A68     		ldr	r2, [r3]
 244 0118 FB68     		ldr	r3, [r7, #12]
 245 011a 22FA03F3 		lsr	r3, r2, r3
 246 011e 044A     		ldr	r2, .L14+4
 247 0120 1360     		str	r3, [r2]
 308:src/system.c  **** }
 248              		.loc 1 308 0
 249 0122 00BF     		nop
 250 0124 1437     		adds	r7, r7, #20
 251              		.cfi_def_cfa_offset 4
 252 0126 BD46     		mov	sp, r7
 253              		.cfi_def_cfa_register 13
 254              		@ sp needed
 255 0128 80BC     		pop	{r7}
 256              		.cfi_restore 7
 257              		.cfi_def_cfa_offset 0
 258 012a 7047     		bx	lr
 259              	.L15:
ARM GAS  /tmp/ccP9nfJH.s 			page 11


 260              		.align	2
 261              	.L14:
 262 012c 00100240 		.word	1073876992
 263 0130 00000000 		.word	SystemCoreClock
 264 0134 00127A00 		.word	8000000
 265 0138 00093D00 		.word	4000000
 266 013c 00000000 		.word	AHBPrescTable
 267              		.cfi_endproc
 268              	.LFE64:
 269              		.size	SystemCoreClockUpdate, .-SystemCoreClockUpdate
 270              		.align	1
 271              		.syntax unified
 272              		.thumb
 273              		.thumb_func
 274              		.fpu softvfp
 275              		.type	SetSysClock, %function
 276              	SetSysClock:
 277              	.LFB65:
 309:src/system.c  **** 
 310:src/system.c  **** /**
 311:src/system.c  ****   * @brief  Configures the System clock frequency, HCLK, PCLK2 and PCLK1 prescalers.
 312:src/system.c  ****   * @param  None
 313:src/system.c  ****   * @retval None
 314:src/system.c  ****   */
 315:src/system.c  **** static void SetSysClock(void)
 316:src/system.c  **** {
 278              		.loc 1 316 0
 279              		.cfi_startproc
 280              		@ args = 0, pretend = 0, frame = 0
 281              		@ frame_needed = 1, uses_anonymous_args = 0
 282 0140 80B5     		push	{r7, lr}
 283              		.cfi_def_cfa_offset 8
 284              		.cfi_offset 7, -8
 285              		.cfi_offset 14, -4
 286 0142 00AF     		add	r7, sp, #0
 287              		.cfi_def_cfa_register 7
 317:src/system.c  **** #ifdef SYSCLK_FREQ_HSE
 318:src/system.c  ****   SetSysClockToHSE();
 319:src/system.c  **** #elif defined SYSCLK_FREQ_24MHz
 320:src/system.c  ****   SetSysClockTo24();
 321:src/system.c  **** #elif defined SYSCLK_FREQ_36MHz
 322:src/system.c  ****   SetSysClockTo36();
 323:src/system.c  **** #elif defined SYSCLK_FREQ_48MHz
 324:src/system.c  ****   SetSysClockTo48();
 325:src/system.c  **** #elif defined SYSCLK_FREQ_56MHz
 326:src/system.c  ****   SetSysClockTo56();  
 327:src/system.c  **** #elif defined SYSCLK_FREQ_72MHz
 328:src/system.c  ****   SetSysClockTo72();
 288              		.loc 1 328 0
 289 0144 00F002F8 		bl	SetSysClockTo72
 329:src/system.c  **** #endif
 330:src/system.c  ****  
 331:src/system.c  ****  /* If none of the define above is enabled, the HSI is used as System clock
 332:src/system.c  ****     source (default after reset) */ 
 333:src/system.c  **** }
 290              		.loc 1 333 0
 291 0148 00BF     		nop
ARM GAS  /tmp/ccP9nfJH.s 			page 12


 292 014a 80BD     		pop	{r7, pc}
 293              		.cfi_endproc
 294              	.LFE65:
 295              		.size	SetSysClock, .-SetSysClock
 296              		.align	1
 297              		.syntax unified
 298              		.thumb
 299              		.thumb_func
 300              		.fpu softvfp
 301              		.type	SetSysClockTo72, %function
 302              	SetSysClockTo72:
 303              	.LFB66:
 334:src/system.c  **** 
 335:src/system.c  **** /**
 336:src/system.c  ****   * @brief  Setup the external memory controller. Called in startup_stm32f10x.s 
 337:src/system.c  ****   *          before jump to __main
 338:src/system.c  ****   * @param  None
 339:src/system.c  ****   * @retval None
 340:src/system.c  ****   */ 
 341:src/system.c  **** #ifdef DATA_IN_ExtSRAM
 342:src/system.c  **** /**
 343:src/system.c  ****   * @brief  Setup the external memory controller. 
 344:src/system.c  ****   *         Called in startup_stm32f10x_xx.s/.c before jump to main.
 345:src/system.c  ****   * 	      This function configures the external SRAM mounted on STM3210E-EVAL
 346:src/system.c  ****   *         board (STM32 High density devices). This SRAM will be used as program
 347:src/system.c  ****   *         data memory (including heap and stack).
 348:src/system.c  ****   * @param  None
 349:src/system.c  ****   * @retval None
 350:src/system.c  ****   */ 
 351:src/system.c  **** void SystemInit_ExtMemCtl(void) 
 352:src/system.c  **** {
 353:src/system.c  **** /*!< FSMC Bank1 NOR/SRAM3 is used for the STM3210E-EVAL, if another Bank is 
 354:src/system.c  ****   required, then adjust the Register Addresses */
 355:src/system.c  **** 
 356:src/system.c  ****   /* Enable FSMC clock */
 357:src/system.c  ****   RCC->AHBENR = 0x00000114;
 358:src/system.c  ****   
 359:src/system.c  ****   /* Enable GPIOD, GPIOE, GPIOF and GPIOG clocks */  
 360:src/system.c  ****   RCC->APB2ENR = 0x000001E0;
 361:src/system.c  ****   
 362:src/system.c  **** /* ---------------  SRAM Data lines, NOE and NWE configuration ---------------*/
 363:src/system.c  **** /*----------------  SRAM Address lines configuration -------------------------*/
 364:src/system.c  **** /*----------------  NOE and NWE configuration --------------------------------*/  
 365:src/system.c  **** /*----------------  NE3 configuration ----------------------------------------*/
 366:src/system.c  **** /*----------------  NBL0, NBL1 configuration ---------------------------------*/
 367:src/system.c  ****   
 368:src/system.c  ****   GPIOD->CRL = 0x44BB44BB;  
 369:src/system.c  ****   GPIOD->CRH = 0xBBBBBBBB;
 370:src/system.c  **** 
 371:src/system.c  ****   GPIOE->CRL = 0xB44444BB;  
 372:src/system.c  ****   GPIOE->CRH = 0xBBBBBBBB;
 373:src/system.c  **** 
 374:src/system.c  ****   GPIOF->CRL = 0x44BBBBBB;  
 375:src/system.c  ****   GPIOF->CRH = 0xBBBB4444;
 376:src/system.c  **** 
 377:src/system.c  ****   GPIOG->CRL = 0x44BBBBBB;  
 378:src/system.c  ****   GPIOG->CRH = 0x44444B44;
ARM GAS  /tmp/ccP9nfJH.s 			page 13


 379:src/system.c  ****    
 380:src/system.c  **** /*----------------  FSMC Configuration ---------------------------------------*/  
 381:src/system.c  **** /*----------------  Enable FSMC Bank1_SRAM Bank ------------------------------*/
 382:src/system.c  ****   
 383:src/system.c  ****   FSMC_Bank1->BTCR[4] = 0x00001011;
 384:src/system.c  ****   FSMC_Bank1->BTCR[5] = 0x00000200;
 385:src/system.c  **** }
 386:src/system.c  **** #endif /* DATA_IN_ExtSRAM */
 387:src/system.c  **** 
 388:src/system.c  **** #ifdef SYSCLK_FREQ_HSE
 389:src/system.c  **** /**
 390:src/system.c  ****   * @brief  Selects HSE as System clock source and configure HCLK, PCLK2
 391:src/system.c  ****   *         and PCLK1 prescalers.
 392:src/system.c  ****   * @note   This function should be used only after reset.
 393:src/system.c  ****   * @param  None
 394:src/system.c  ****   * @retval None
 395:src/system.c  ****   */
 396:src/system.c  **** static void SetSysClockToHSE(void)
 397:src/system.c  **** {
 398:src/system.c  ****   __IO uint32_t StartUpCounter = 0, HSEStatus = 0;
 399:src/system.c  ****   
 400:src/system.c  ****   /* SYSCLK, HCLK, PCLK2 and PCLK1 configuration ---------------------------*/    
 401:src/system.c  ****   /* Enable HSE */    
 402:src/system.c  ****   RCC->CR |= ((uint32_t)RCC_CR_HSEON);
 403:src/system.c  ****  
 404:src/system.c  ****   /* Wait till HSE is ready and if Time out is reached exit */
 405:src/system.c  ****   do
 406:src/system.c  ****   {
 407:src/system.c  ****     HSEStatus = RCC->CR & RCC_CR_HSERDY;
 408:src/system.c  ****     StartUpCounter++;  
 409:src/system.c  ****   } while((HSEStatus == 0) && (StartUpCounter != HSE_STARTUP_TIMEOUT));
 410:src/system.c  **** 
 411:src/system.c  ****   if ((RCC->CR & RCC_CR_HSERDY) != RESET)
 412:src/system.c  ****   {
 413:src/system.c  ****     HSEStatus = (uint32_t)0x01;
 414:src/system.c  ****   }
 415:src/system.c  ****   else
 416:src/system.c  ****   {
 417:src/system.c  ****     HSEStatus = (uint32_t)0x00;
 418:src/system.c  ****   }  
 419:src/system.c  **** 
 420:src/system.c  ****   if (HSEStatus == (uint32_t)0x01)
 421:src/system.c  ****   {
 422:src/system.c  **** 
 423:src/system.c  **** #if !defined STM32F10X_LD_VL && !defined STM32F10X_MD_VL && !defined STM32F10X_HD_VL
 424:src/system.c  ****     /* Enable Prefetch Buffer */
 425:src/system.c  ****     FLASH->ACR |= FLASH_ACR_PRFTBE;
 426:src/system.c  **** 
 427:src/system.c  ****     /* Flash 0 wait state */
 428:src/system.c  ****     FLASH->ACR &= (uint32_t)((uint32_t)~FLASH_ACR_LATENCY);
 429:src/system.c  **** 
 430:src/system.c  **** #ifndef STM32F10X_CL
 431:src/system.c  ****     FLASH->ACR |= (uint32_t)FLASH_ACR_LATENCY_0;
 432:src/system.c  **** #else
 433:src/system.c  ****     if (HSE_VALUE <= 24000000)
 434:src/system.c  **** 	{
 435:src/system.c  ****       FLASH->ACR |= (uint32_t)FLASH_ACR_LATENCY_0;
ARM GAS  /tmp/ccP9nfJH.s 			page 14


 436:src/system.c  **** 	}
 437:src/system.c  **** 	else
 438:src/system.c  **** 	{
 439:src/system.c  ****       FLASH->ACR |= (uint32_t)FLASH_ACR_LATENCY_1;
 440:src/system.c  **** 	}
 441:src/system.c  **** #endif /* STM32F10X_CL */
 442:src/system.c  **** #endif
 443:src/system.c  ****  
 444:src/system.c  ****     /* HCLK = SYSCLK */
 445:src/system.c  ****     RCC->CFGR |= (uint32_t)RCC_CFGR_HPRE_DIV1;
 446:src/system.c  ****       
 447:src/system.c  ****     /* PCLK2 = HCLK */
 448:src/system.c  ****     RCC->CFGR |= (uint32_t)RCC_CFGR_PPRE2_DIV1;
 449:src/system.c  ****     
 450:src/system.c  ****     /* PCLK1 = HCLK */
 451:src/system.c  ****     RCC->CFGR |= (uint32_t)RCC_CFGR_PPRE1_DIV1;
 452:src/system.c  ****     
 453:src/system.c  ****     /* Select HSE as system clock source */
 454:src/system.c  ****     RCC->CFGR &= (uint32_t)((uint32_t)~(RCC_CFGR_SW));
 455:src/system.c  ****     RCC->CFGR |= (uint32_t)RCC_CFGR_SW_HSE;    
 456:src/system.c  **** 
 457:src/system.c  ****     /* Wait till HSE is used as system clock source */
 458:src/system.c  ****     while ((RCC->CFGR & (uint32_t)RCC_CFGR_SWS) != (uint32_t)0x04)
 459:src/system.c  ****     {
 460:src/system.c  ****     }
 461:src/system.c  ****   }
 462:src/system.c  ****   else
 463:src/system.c  ****   { /* If HSE fails to start-up, the application will have wrong clock 
 464:src/system.c  ****          configuration. User can add here some code to deal with this error */
 465:src/system.c  ****   }  
 466:src/system.c  **** }
 467:src/system.c  **** #elif defined SYSCLK_FREQ_24MHz
 468:src/system.c  **** /**
 469:src/system.c  ****   * @brief  Sets System clock frequency to 24MHz and configure HCLK, PCLK2 
 470:src/system.c  ****   *         and PCLK1 prescalers.
 471:src/system.c  ****   * @note   This function should be used only after reset.
 472:src/system.c  ****   * @param  None
 473:src/system.c  ****   * @retval None
 474:src/system.c  ****   */
 475:src/system.c  **** static void SetSysClockTo24(void)
 476:src/system.c  **** {
 477:src/system.c  ****   __IO uint32_t StartUpCounter = 0, HSEStatus = 0;
 478:src/system.c  ****   
 479:src/system.c  ****   /* SYSCLK, HCLK, PCLK2 and PCLK1 configuration ---------------------------*/    
 480:src/system.c  ****   /* Enable HSE */    
 481:src/system.c  ****   RCC->CR |= ((uint32_t)RCC_CR_HSEON);
 482:src/system.c  ****  
 483:src/system.c  ****   /* Wait till HSE is ready and if Time out is reached exit */
 484:src/system.c  ****   do
 485:src/system.c  ****   {
 486:src/system.c  ****     HSEStatus = RCC->CR & RCC_CR_HSERDY;
 487:src/system.c  ****     StartUpCounter++;  
 488:src/system.c  ****   } while((HSEStatus == 0) && (StartUpCounter != HSE_STARTUP_TIMEOUT));
 489:src/system.c  **** 
 490:src/system.c  ****   if ((RCC->CR & RCC_CR_HSERDY) != RESET)
 491:src/system.c  ****   {
 492:src/system.c  ****     HSEStatus = (uint32_t)0x01;
ARM GAS  /tmp/ccP9nfJH.s 			page 15


 493:src/system.c  ****   }
 494:src/system.c  ****   else
 495:src/system.c  ****   {
 496:src/system.c  ****     HSEStatus = (uint32_t)0x00;
 497:src/system.c  ****   }  
 498:src/system.c  **** 
 499:src/system.c  ****   if (HSEStatus == (uint32_t)0x01)
 500:src/system.c  ****   {
 501:src/system.c  **** #if !defined STM32F10X_LD_VL && !defined STM32F10X_MD_VL && !defined STM32F10X_HD_VL 
 502:src/system.c  ****     /* Enable Prefetch Buffer */
 503:src/system.c  ****     FLASH->ACR |= FLASH_ACR_PRFTBE;
 504:src/system.c  **** 
 505:src/system.c  ****     /* Flash 0 wait state */
 506:src/system.c  ****     FLASH->ACR &= (uint32_t)((uint32_t)~FLASH_ACR_LATENCY);
 507:src/system.c  ****     FLASH->ACR |= (uint32_t)FLASH_ACR_LATENCY_0;    
 508:src/system.c  **** #endif
 509:src/system.c  ****  
 510:src/system.c  ****     /* HCLK = SYSCLK */
 511:src/system.c  ****     RCC->CFGR |= (uint32_t)RCC_CFGR_HPRE_DIV1;
 512:src/system.c  ****       
 513:src/system.c  ****     /* PCLK2 = HCLK */
 514:src/system.c  ****     RCC->CFGR |= (uint32_t)RCC_CFGR_PPRE2_DIV1;
 515:src/system.c  ****     
 516:src/system.c  ****     /* PCLK1 = HCLK */
 517:src/system.c  ****     RCC->CFGR |= (uint32_t)RCC_CFGR_PPRE1_DIV1;
 518:src/system.c  ****     
 519:src/system.c  **** #ifdef STM32F10X_CL
 520:src/system.c  ****     /* Configure PLLs ------------------------------------------------------*/
 521:src/system.c  ****     /* PLL configuration: PLLCLK = PREDIV1 * 6 = 24 MHz */ 
 522:src/system.c  ****     RCC->CFGR &= (uint32_t)~(RCC_CFGR_PLLXTPRE | RCC_CFGR_PLLSRC | RCC_CFGR_PLLMULL);
 523:src/system.c  ****     RCC->CFGR |= (uint32_t)(RCC_CFGR_PLLXTPRE_PREDIV1 | RCC_CFGR_PLLSRC_PREDIV1 | 
 524:src/system.c  ****                             RCC_CFGR_PLLMULL6); 
 525:src/system.c  **** 
 526:src/system.c  ****     /* PLL2 configuration: PLL2CLK = (HSE / 5) * 8 = 40 MHz */
 527:src/system.c  ****     /* PREDIV1 configuration: PREDIV1CLK = PLL2 / 10 = 4 MHz */       
 528:src/system.c  ****     RCC->CFGR2 &= (uint32_t)~(RCC_CFGR2_PREDIV2 | RCC_CFGR2_PLL2MUL |
 529:src/system.c  ****                               RCC_CFGR2_PREDIV1 | RCC_CFGR2_PREDIV1SRC);
 530:src/system.c  ****     RCC->CFGR2 |= (uint32_t)(RCC_CFGR2_PREDIV2_DIV5 | RCC_CFGR2_PLL2MUL8 |
 531:src/system.c  ****                              RCC_CFGR2_PREDIV1SRC_PLL2 | RCC_CFGR2_PREDIV1_DIV10);
 532:src/system.c  ****   
 533:src/system.c  ****     /* Enable PLL2 */
 534:src/system.c  ****     RCC->CR |= RCC_CR_PLL2ON;
 535:src/system.c  ****     /* Wait till PLL2 is ready */
 536:src/system.c  ****     while((RCC->CR & RCC_CR_PLL2RDY) == 0)
 537:src/system.c  ****     {
 538:src/system.c  ****     }   
 539:src/system.c  **** #elif defined (STM32F10X_LD_VL) || defined (STM32F10X_MD_VL) || defined (STM32F10X_HD_VL)
 540:src/system.c  ****     /*  PLL configuration:  = (HSE / 2) * 6 = 24 MHz */
 541:src/system.c  ****     RCC->CFGR &= (uint32_t)((uint32_t)~(RCC_CFGR_PLLSRC | RCC_CFGR_PLLXTPRE | RCC_CFGR_PLLMULL));
 542:src/system.c  ****     RCC->CFGR |= (uint32_t)(RCC_CFGR_PLLSRC_PREDIV1 | RCC_CFGR_PLLXTPRE_PREDIV1_Div2 | RCC_CFGR_PLL
 543:src/system.c  **** #else    
 544:src/system.c  ****     /*  PLL configuration:  = (HSE / 2) * 6 = 24 MHz */
 545:src/system.c  ****     RCC->CFGR &= (uint32_t)((uint32_t)~(RCC_CFGR_PLLSRC | RCC_CFGR_PLLXTPRE | RCC_CFGR_PLLMULL));
 546:src/system.c  ****     RCC->CFGR |= (uint32_t)(RCC_CFGR_PLLSRC_HSE | RCC_CFGR_PLLXTPRE_HSE_Div2 | RCC_CFGR_PLLMULL6);
 547:src/system.c  **** #endif /* STM32F10X_CL */
 548:src/system.c  **** 
 549:src/system.c  ****     /* Enable PLL */
ARM GAS  /tmp/ccP9nfJH.s 			page 16


 550:src/system.c  ****     RCC->CR |= RCC_CR_PLLON;
 551:src/system.c  **** 
 552:src/system.c  ****     /* Wait till PLL is ready */
 553:src/system.c  ****     while((RCC->CR & RCC_CR_PLLRDY) == 0)
 554:src/system.c  ****     {
 555:src/system.c  ****     }
 556:src/system.c  **** 
 557:src/system.c  ****     /* Select PLL as system clock source */
 558:src/system.c  ****     RCC->CFGR &= (uint32_t)((uint32_t)~(RCC_CFGR_SW));
 559:src/system.c  ****     RCC->CFGR |= (uint32_t)RCC_CFGR_SW_PLL;    
 560:src/system.c  **** 
 561:src/system.c  ****     /* Wait till PLL is used as system clock source */
 562:src/system.c  ****     while ((RCC->CFGR & (uint32_t)RCC_CFGR_SWS) != (uint32_t)0x08)
 563:src/system.c  ****     {
 564:src/system.c  ****     }
 565:src/system.c  ****   }
 566:src/system.c  ****   else
 567:src/system.c  ****   { /* If HSE fails to start-up, the application will have wrong clock 
 568:src/system.c  ****          configuration. User can add here some code to deal with this error */
 569:src/system.c  ****   } 
 570:src/system.c  **** }
 571:src/system.c  **** #elif defined SYSCLK_FREQ_36MHz
 572:src/system.c  **** /**
 573:src/system.c  ****   * @brief  Sets System clock frequency to 36MHz and configure HCLK, PCLK2 
 574:src/system.c  ****   *         and PCLK1 prescalers. 
 575:src/system.c  ****   * @note   This function should be used only after reset.
 576:src/system.c  ****   * @param  None
 577:src/system.c  ****   * @retval None
 578:src/system.c  ****   */
 579:src/system.c  **** static void SetSysClockTo36(void)
 580:src/system.c  **** {
 581:src/system.c  ****   __IO uint32_t StartUpCounter = 0, HSEStatus = 0;
 582:src/system.c  ****   
 583:src/system.c  ****   /* SYSCLK, HCLK, PCLK2 and PCLK1 configuration ---------------------------*/    
 584:src/system.c  ****   /* Enable HSE */    
 585:src/system.c  ****   RCC->CR |= ((uint32_t)RCC_CR_HSEON);
 586:src/system.c  ****  
 587:src/system.c  ****   /* Wait till HSE is ready and if Time out is reached exit */
 588:src/system.c  ****   do
 589:src/system.c  ****   {
 590:src/system.c  ****     HSEStatus = RCC->CR & RCC_CR_HSERDY;
 591:src/system.c  ****     StartUpCounter++;  
 592:src/system.c  ****   } while((HSEStatus == 0) && (StartUpCounter != HSE_STARTUP_TIMEOUT));
 593:src/system.c  **** 
 594:src/system.c  ****   if ((RCC->CR & RCC_CR_HSERDY) != RESET)
 595:src/system.c  ****   {
 596:src/system.c  ****     HSEStatus = (uint32_t)0x01;
 597:src/system.c  ****   }
 598:src/system.c  ****   else
 599:src/system.c  ****   {
 600:src/system.c  ****     HSEStatus = (uint32_t)0x00;
 601:src/system.c  ****   }  
 602:src/system.c  **** 
 603:src/system.c  ****   if (HSEStatus == (uint32_t)0x01)
 604:src/system.c  ****   {
 605:src/system.c  ****     /* Enable Prefetch Buffer */
 606:src/system.c  ****     FLASH->ACR |= FLASH_ACR_PRFTBE;
ARM GAS  /tmp/ccP9nfJH.s 			page 17


 607:src/system.c  **** 
 608:src/system.c  ****     /* Flash 1 wait state */
 609:src/system.c  ****     FLASH->ACR &= (uint32_t)((uint32_t)~FLASH_ACR_LATENCY);
 610:src/system.c  ****     FLASH->ACR |= (uint32_t)FLASH_ACR_LATENCY_1;    
 611:src/system.c  ****  
 612:src/system.c  ****     /* HCLK = SYSCLK */
 613:src/system.c  ****     RCC->CFGR |= (uint32_t)RCC_CFGR_HPRE_DIV1;
 614:src/system.c  ****       
 615:src/system.c  ****     /* PCLK2 = HCLK */
 616:src/system.c  ****     RCC->CFGR |= (uint32_t)RCC_CFGR_PPRE2_DIV1;
 617:src/system.c  ****     
 618:src/system.c  ****     /* PCLK1 = HCLK */
 619:src/system.c  ****     RCC->CFGR |= (uint32_t)RCC_CFGR_PPRE1_DIV1;
 620:src/system.c  ****     
 621:src/system.c  **** #ifdef STM32F10X_CL
 622:src/system.c  ****     /* Configure PLLs ------------------------------------------------------*/
 623:src/system.c  ****     
 624:src/system.c  ****     /* PLL configuration: PLLCLK = PREDIV1 * 9 = 36 MHz */ 
 625:src/system.c  ****     RCC->CFGR &= (uint32_t)~(RCC_CFGR_PLLXTPRE | RCC_CFGR_PLLSRC | RCC_CFGR_PLLMULL);
 626:src/system.c  ****     RCC->CFGR |= (uint32_t)(RCC_CFGR_PLLXTPRE_PREDIV1 | RCC_CFGR_PLLSRC_PREDIV1 | 
 627:src/system.c  ****                             RCC_CFGR_PLLMULL9); 
 628:src/system.c  **** 
 629:src/system.c  **** 	/*!< PLL2 configuration: PLL2CLK = (HSE / 5) * 8 = 40 MHz */
 630:src/system.c  ****     /* PREDIV1 configuration: PREDIV1CLK = PLL2 / 10 = 4 MHz */
 631:src/system.c  ****         
 632:src/system.c  ****     RCC->CFGR2 &= (uint32_t)~(RCC_CFGR2_PREDIV2 | RCC_CFGR2_PLL2MUL |
 633:src/system.c  ****                               RCC_CFGR2_PREDIV1 | RCC_CFGR2_PREDIV1SRC);
 634:src/system.c  ****     RCC->CFGR2 |= (uint32_t)(RCC_CFGR2_PREDIV2_DIV5 | RCC_CFGR2_PLL2MUL8 |
 635:src/system.c  ****                              RCC_CFGR2_PREDIV1SRC_PLL2 | RCC_CFGR2_PREDIV1_DIV10);
 636:src/system.c  ****   
 637:src/system.c  ****     /* Enable PLL2 */
 638:src/system.c  ****     RCC->CR |= RCC_CR_PLL2ON;
 639:src/system.c  ****     /* Wait till PLL2 is ready */
 640:src/system.c  ****     while((RCC->CR & RCC_CR_PLL2RDY) == 0)
 641:src/system.c  ****     {
 642:src/system.c  ****     }
 643:src/system.c  ****     
 644:src/system.c  **** #else    
 645:src/system.c  ****     /*  PLL configuration: PLLCLK = (HSE / 2) * 9 = 36 MHz */
 646:src/system.c  ****     RCC->CFGR &= (uint32_t)((uint32_t)~(RCC_CFGR_PLLSRC | RCC_CFGR_PLLXTPRE | RCC_CFGR_PLLMULL));
 647:src/system.c  ****     RCC->CFGR |= (uint32_t)(RCC_CFGR_PLLSRC_HSE | RCC_CFGR_PLLXTPRE_HSE_Div2 | RCC_CFGR_PLLMULL9);
 648:src/system.c  **** #endif /* STM32F10X_CL */
 649:src/system.c  **** 
 650:src/system.c  ****     /* Enable PLL */
 651:src/system.c  ****     RCC->CR |= RCC_CR_PLLON;
 652:src/system.c  **** 
 653:src/system.c  ****     /* Wait till PLL is ready */
 654:src/system.c  ****     while((RCC->CR & RCC_CR_PLLRDY) == 0)
 655:src/system.c  ****     {
 656:src/system.c  ****     }
 657:src/system.c  **** 
 658:src/system.c  ****     /* Select PLL as system clock source */
 659:src/system.c  ****     RCC->CFGR &= (uint32_t)((uint32_t)~(RCC_CFGR_SW));
 660:src/system.c  ****     RCC->CFGR |= (uint32_t)RCC_CFGR_SW_PLL;    
 661:src/system.c  **** 
 662:src/system.c  ****     /* Wait till PLL is used as system clock source */
 663:src/system.c  ****     while ((RCC->CFGR & (uint32_t)RCC_CFGR_SWS) != (uint32_t)0x08)
ARM GAS  /tmp/ccP9nfJH.s 			page 18


 664:src/system.c  ****     {
 665:src/system.c  ****     }
 666:src/system.c  ****   }
 667:src/system.c  ****   else
 668:src/system.c  ****   { /* If HSE fails to start-up, the application will have wrong clock 
 669:src/system.c  ****          configuration. User can add here some code to deal with this error */
 670:src/system.c  ****   } 
 671:src/system.c  **** }
 672:src/system.c  **** #elif defined SYSCLK_FREQ_48MHz
 673:src/system.c  **** /**
 674:src/system.c  ****   * @brief  Sets System clock frequency to 48MHz and configure HCLK, PCLK2 
 675:src/system.c  ****   *         and PCLK1 prescalers. 
 676:src/system.c  ****   * @note   This function should be used only after reset.
 677:src/system.c  ****   * @param  None
 678:src/system.c  ****   * @retval None
 679:src/system.c  ****   */
 680:src/system.c  **** static void SetSysClockTo48(void)
 681:src/system.c  **** {
 682:src/system.c  ****   __IO uint32_t StartUpCounter = 0, HSEStatus = 0;
 683:src/system.c  ****   
 684:src/system.c  ****   /* SYSCLK, HCLK, PCLK2 and PCLK1 configuration ---------------------------*/    
 685:src/system.c  ****   /* Enable HSE */    
 686:src/system.c  ****   RCC->CR |= ((uint32_t)RCC_CR_HSEON);
 687:src/system.c  ****  
 688:src/system.c  ****   /* Wait till HSE is ready and if Time out is reached exit */
 689:src/system.c  ****   do
 690:src/system.c  ****   {
 691:src/system.c  ****     HSEStatus = RCC->CR & RCC_CR_HSERDY;
 692:src/system.c  ****     StartUpCounter++;  
 693:src/system.c  ****   } while((HSEStatus == 0) && (StartUpCounter != HSE_STARTUP_TIMEOUT));
 694:src/system.c  **** 
 695:src/system.c  ****   if ((RCC->CR & RCC_CR_HSERDY) != RESET)
 696:src/system.c  ****   {
 697:src/system.c  ****     HSEStatus = (uint32_t)0x01;
 698:src/system.c  ****   }
 699:src/system.c  ****   else
 700:src/system.c  ****   {
 701:src/system.c  ****     HSEStatus = (uint32_t)0x00;
 702:src/system.c  ****   }  
 703:src/system.c  **** 
 704:src/system.c  ****   if (HSEStatus == (uint32_t)0x01)
 705:src/system.c  ****   {
 706:src/system.c  ****     /* Enable Prefetch Buffer */
 707:src/system.c  ****     FLASH->ACR |= FLASH_ACR_PRFTBE;
 708:src/system.c  **** 
 709:src/system.c  ****     /* Flash 1 wait state */
 710:src/system.c  ****     FLASH->ACR &= (uint32_t)((uint32_t)~FLASH_ACR_LATENCY);
 711:src/system.c  ****     FLASH->ACR |= (uint32_t)FLASH_ACR_LATENCY_1;    
 712:src/system.c  ****  
 713:src/system.c  ****     /* HCLK = SYSCLK */
 714:src/system.c  ****     RCC->CFGR |= (uint32_t)RCC_CFGR_HPRE_DIV1;
 715:src/system.c  ****       
 716:src/system.c  ****     /* PCLK2 = HCLK */
 717:src/system.c  ****     RCC->CFGR |= (uint32_t)RCC_CFGR_PPRE2_DIV1;
 718:src/system.c  ****     
 719:src/system.c  ****     /* PCLK1 = HCLK */
 720:src/system.c  ****     RCC->CFGR |= (uint32_t)RCC_CFGR_PPRE1_DIV2;
ARM GAS  /tmp/ccP9nfJH.s 			page 19


 721:src/system.c  ****     
 722:src/system.c  **** #ifdef STM32F10X_CL
 723:src/system.c  ****     /* Configure PLLs ------------------------------------------------------*/
 724:src/system.c  ****     /* PLL2 configuration: PLL2CLK = (HSE / 5) * 8 = 40 MHz */
 725:src/system.c  ****     /* PREDIV1 configuration: PREDIV1CLK = PLL2 / 5 = 8 MHz */
 726:src/system.c  ****         
 727:src/system.c  ****     RCC->CFGR2 &= (uint32_t)~(RCC_CFGR2_PREDIV2 | RCC_CFGR2_PLL2MUL |
 728:src/system.c  ****                               RCC_CFGR2_PREDIV1 | RCC_CFGR2_PREDIV1SRC);
 729:src/system.c  ****     RCC->CFGR2 |= (uint32_t)(RCC_CFGR2_PREDIV2_DIV5 | RCC_CFGR2_PLL2MUL8 |
 730:src/system.c  ****                              RCC_CFGR2_PREDIV1SRC_PLL2 | RCC_CFGR2_PREDIV1_DIV5);
 731:src/system.c  ****   
 732:src/system.c  ****     /* Enable PLL2 */
 733:src/system.c  ****     RCC->CR |= RCC_CR_PLL2ON;
 734:src/system.c  ****     /* Wait till PLL2 is ready */
 735:src/system.c  ****     while((RCC->CR & RCC_CR_PLL2RDY) == 0)
 736:src/system.c  ****     {
 737:src/system.c  ****     }
 738:src/system.c  ****     
 739:src/system.c  ****    
 740:src/system.c  ****     /* PLL configuration: PLLCLK = PREDIV1 * 6 = 48 MHz */ 
 741:src/system.c  ****     RCC->CFGR &= (uint32_t)~(RCC_CFGR_PLLXTPRE | RCC_CFGR_PLLSRC | RCC_CFGR_PLLMULL);
 742:src/system.c  ****     RCC->CFGR |= (uint32_t)(RCC_CFGR_PLLXTPRE_PREDIV1 | RCC_CFGR_PLLSRC_PREDIV1 | 
 743:src/system.c  ****                             RCC_CFGR_PLLMULL6); 
 744:src/system.c  **** #else    
 745:src/system.c  ****     /*  PLL configuration: PLLCLK = HSE * 6 = 48 MHz */
 746:src/system.c  ****     RCC->CFGR &= (uint32_t)((uint32_t)~(RCC_CFGR_PLLSRC | RCC_CFGR_PLLXTPRE | RCC_CFGR_PLLMULL));
 747:src/system.c  ****     RCC->CFGR |= (uint32_t)(RCC_CFGR_PLLSRC_HSE | RCC_CFGR_PLLMULL6);
 748:src/system.c  **** #endif /* STM32F10X_CL */
 749:src/system.c  **** 
 750:src/system.c  ****     /* Enable PLL */
 751:src/system.c  ****     RCC->CR |= RCC_CR_PLLON;
 752:src/system.c  **** 
 753:src/system.c  ****     /* Wait till PLL is ready */
 754:src/system.c  ****     while((RCC->CR & RCC_CR_PLLRDY) == 0)
 755:src/system.c  ****     {
 756:src/system.c  ****     }
 757:src/system.c  **** 
 758:src/system.c  ****     /* Select PLL as system clock source */
 759:src/system.c  ****     RCC->CFGR &= (uint32_t)((uint32_t)~(RCC_CFGR_SW));
 760:src/system.c  ****     RCC->CFGR |= (uint32_t)RCC_CFGR_SW_PLL;    
 761:src/system.c  **** 
 762:src/system.c  ****     /* Wait till PLL is used as system clock source */
 763:src/system.c  ****     while ((RCC->CFGR & (uint32_t)RCC_CFGR_SWS) != (uint32_t)0x08)
 764:src/system.c  ****     {
 765:src/system.c  ****     }
 766:src/system.c  ****   }
 767:src/system.c  ****   else
 768:src/system.c  ****   { /* If HSE fails to start-up, the application will have wrong clock 
 769:src/system.c  ****          configuration. User can add here some code to deal with this error */
 770:src/system.c  ****   } 
 771:src/system.c  **** }
 772:src/system.c  **** 
 773:src/system.c  **** #elif defined SYSCLK_FREQ_56MHz
 774:src/system.c  **** /**
 775:src/system.c  ****   * @brief  Sets System clock frequency to 56MHz and configure HCLK, PCLK2 
 776:src/system.c  ****   *         and PCLK1 prescalers. 
 777:src/system.c  ****   * @note   This function should be used only after reset.
ARM GAS  /tmp/ccP9nfJH.s 			page 20


 778:src/system.c  ****   * @param  None
 779:src/system.c  ****   * @retval None
 780:src/system.c  ****   */
 781:src/system.c  **** static void SetSysClockTo56(void)
 782:src/system.c  **** {
 783:src/system.c  ****   __IO uint32_t StartUpCounter = 0, HSEStatus = 0;
 784:src/system.c  ****   
 785:src/system.c  ****   /* SYSCLK, HCLK, PCLK2 and PCLK1 configuration ---------------------------*/   
 786:src/system.c  ****   /* Enable HSE */    
 787:src/system.c  ****   RCC->CR |= ((uint32_t)RCC_CR_HSEON);
 788:src/system.c  ****  
 789:src/system.c  ****   /* Wait till HSE is ready and if Time out is reached exit */
 790:src/system.c  ****   do
 791:src/system.c  ****   {
 792:src/system.c  ****     HSEStatus = RCC->CR & RCC_CR_HSERDY;
 793:src/system.c  ****     StartUpCounter++;  
 794:src/system.c  ****   } while((HSEStatus == 0) && (StartUpCounter != HSE_STARTUP_TIMEOUT));
 795:src/system.c  **** 
 796:src/system.c  ****   if ((RCC->CR & RCC_CR_HSERDY) != RESET)
 797:src/system.c  ****   {
 798:src/system.c  ****     HSEStatus = (uint32_t)0x01;
 799:src/system.c  ****   }
 800:src/system.c  ****   else
 801:src/system.c  ****   {
 802:src/system.c  ****     HSEStatus = (uint32_t)0x00;
 803:src/system.c  ****   }  
 804:src/system.c  **** 
 805:src/system.c  ****   if (HSEStatus == (uint32_t)0x01)
 806:src/system.c  ****   {
 807:src/system.c  ****     /* Enable Prefetch Buffer */
 808:src/system.c  ****     FLASH->ACR |= FLASH_ACR_PRFTBE;
 809:src/system.c  **** 
 810:src/system.c  ****     /* Flash 2 wait state */
 811:src/system.c  ****     FLASH->ACR &= (uint32_t)((uint32_t)~FLASH_ACR_LATENCY);
 812:src/system.c  ****     FLASH->ACR |= (uint32_t)FLASH_ACR_LATENCY_2;    
 813:src/system.c  ****  
 814:src/system.c  ****     /* HCLK = SYSCLK */
 815:src/system.c  ****     RCC->CFGR |= (uint32_t)RCC_CFGR_HPRE_DIV1;
 816:src/system.c  ****       
 817:src/system.c  ****     /* PCLK2 = HCLK */
 818:src/system.c  ****     RCC->CFGR |= (uint32_t)RCC_CFGR_PPRE2_DIV1;
 819:src/system.c  ****     
 820:src/system.c  ****     /* PCLK1 = HCLK */
 821:src/system.c  ****     RCC->CFGR |= (uint32_t)RCC_CFGR_PPRE1_DIV2;
 822:src/system.c  **** 
 823:src/system.c  **** #ifdef STM32F10X_CL
 824:src/system.c  ****     /* Configure PLLs ------------------------------------------------------*/
 825:src/system.c  ****     /* PLL2 configuration: PLL2CLK = (HSE / 5) * 8 = 40 MHz */
 826:src/system.c  ****     /* PREDIV1 configuration: PREDIV1CLK = PLL2 / 5 = 8 MHz */
 827:src/system.c  ****         
 828:src/system.c  ****     RCC->CFGR2 &= (uint32_t)~(RCC_CFGR2_PREDIV2 | RCC_CFGR2_PLL2MUL |
 829:src/system.c  ****                               RCC_CFGR2_PREDIV1 | RCC_CFGR2_PREDIV1SRC);
 830:src/system.c  ****     RCC->CFGR2 |= (uint32_t)(RCC_CFGR2_PREDIV2_DIV5 | RCC_CFGR2_PLL2MUL8 |
 831:src/system.c  ****                              RCC_CFGR2_PREDIV1SRC_PLL2 | RCC_CFGR2_PREDIV1_DIV5);
 832:src/system.c  ****   
 833:src/system.c  ****     /* Enable PLL2 */
 834:src/system.c  ****     RCC->CR |= RCC_CR_PLL2ON;
ARM GAS  /tmp/ccP9nfJH.s 			page 21


 835:src/system.c  ****     /* Wait till PLL2 is ready */
 836:src/system.c  ****     while((RCC->CR & RCC_CR_PLL2RDY) == 0)
 837:src/system.c  ****     {
 838:src/system.c  ****     }
 839:src/system.c  ****     
 840:src/system.c  ****    
 841:src/system.c  ****     /* PLL configuration: PLLCLK = PREDIV1 * 7 = 56 MHz */ 
 842:src/system.c  ****     RCC->CFGR &= (uint32_t)~(RCC_CFGR_PLLXTPRE | RCC_CFGR_PLLSRC | RCC_CFGR_PLLMULL);
 843:src/system.c  ****     RCC->CFGR |= (uint32_t)(RCC_CFGR_PLLXTPRE_PREDIV1 | RCC_CFGR_PLLSRC_PREDIV1 | 
 844:src/system.c  ****                             RCC_CFGR_PLLMULL7); 
 845:src/system.c  **** #else     
 846:src/system.c  ****     /* PLL configuration: PLLCLK = HSE * 7 = 56 MHz */
 847:src/system.c  ****     RCC->CFGR &= (uint32_t)((uint32_t)~(RCC_CFGR_PLLSRC | RCC_CFGR_PLLXTPRE | RCC_CFGR_PLLMULL));
 848:src/system.c  ****     RCC->CFGR |= (uint32_t)(RCC_CFGR_PLLSRC_HSE | RCC_CFGR_PLLMULL7);
 849:src/system.c  **** 
 850:src/system.c  **** #endif /* STM32F10X_CL */
 851:src/system.c  **** 
 852:src/system.c  ****     /* Enable PLL */
 853:src/system.c  ****     RCC->CR |= RCC_CR_PLLON;
 854:src/system.c  **** 
 855:src/system.c  ****     /* Wait till PLL is ready */
 856:src/system.c  ****     while((RCC->CR & RCC_CR_PLLRDY) == 0)
 857:src/system.c  ****     {
 858:src/system.c  ****     }
 859:src/system.c  **** 
 860:src/system.c  ****     /* Select PLL as system clock source */
 861:src/system.c  ****     RCC->CFGR &= (uint32_t)((uint32_t)~(RCC_CFGR_SW));
 862:src/system.c  ****     RCC->CFGR |= (uint32_t)RCC_CFGR_SW_PLL;    
 863:src/system.c  **** 
 864:src/system.c  ****     /* Wait till PLL is used as system clock source */
 865:src/system.c  ****     while ((RCC->CFGR & (uint32_t)RCC_CFGR_SWS) != (uint32_t)0x08)
 866:src/system.c  ****     {
 867:src/system.c  ****     }
 868:src/system.c  ****   }
 869:src/system.c  ****   else
 870:src/system.c  ****   { /* If HSE fails to start-up, the application will have wrong clock 
 871:src/system.c  ****          configuration. User can add here some code to deal with this error */
 872:src/system.c  ****   } 
 873:src/system.c  **** }
 874:src/system.c  **** 
 875:src/system.c  **** #elif defined SYSCLK_FREQ_72MHz
 876:src/system.c  **** /**
 877:src/system.c  ****   * @brief  Sets System clock frequency to 72MHz and configure HCLK, PCLK2 
 878:src/system.c  ****   *         and PCLK1 prescalers. 
 879:src/system.c  ****   * @note   This function should be used only after reset.
 880:src/system.c  ****   * @param  None
 881:src/system.c  ****   * @retval None
 882:src/system.c  ****   */
 883:src/system.c  **** static void SetSysClockTo72(void)
 884:src/system.c  **** {
 304              		.loc 1 884 0
 305              		.cfi_startproc
 306              		@ args = 0, pretend = 0, frame = 8
 307              		@ frame_needed = 1, uses_anonymous_args = 0
 308              		@ link register save eliminated.
 309 014c 80B4     		push	{r7}
 310              		.cfi_def_cfa_offset 4
ARM GAS  /tmp/ccP9nfJH.s 			page 22


 311              		.cfi_offset 7, -4
 312 014e 83B0     		sub	sp, sp, #12
 313              		.cfi_def_cfa_offset 16
 314 0150 00AF     		add	r7, sp, #0
 315              		.cfi_def_cfa_register 7
 885:src/system.c  ****   __IO uint32_t StartUpCounter = 0, HSEStatus = 0;
 316              		.loc 1 885 0
 317 0152 0023     		movs	r3, #0
 318 0154 7B60     		str	r3, [r7, #4]
 319 0156 0023     		movs	r3, #0
 320 0158 3B60     		str	r3, [r7]
 886:src/system.c  ****   
 887:src/system.c  ****   /* SYSCLK, HCLK, PCLK2 and PCLK1 configuration ---------------------------*/    
 888:src/system.c  ****   /* Enable HSE */    
 889:src/system.c  ****   RCC->CR |= ((uint32_t)RCC_CR_HSEON);
 321              		.loc 1 889 0
 322 015a 3A4A     		ldr	r2, .L26
 323 015c 394B     		ldr	r3, .L26
 324 015e 1B68     		ldr	r3, [r3]
 325 0160 43F48033 		orr	r3, r3, #65536
 326 0164 1360     		str	r3, [r2]
 327              	.L19:
 890:src/system.c  ****  
 891:src/system.c  ****   /* Wait till HSE is ready and if Time out is reached exit */
 892:src/system.c  ****   do
 893:src/system.c  ****   {
 894:src/system.c  ****     HSEStatus = RCC->CR & RCC_CR_HSERDY;
 328              		.loc 1 894 0 discriminator 2
 329 0166 374B     		ldr	r3, .L26
 330 0168 1B68     		ldr	r3, [r3]
 331 016a 03F40033 		and	r3, r3, #131072
 332 016e 3B60     		str	r3, [r7]
 895:src/system.c  ****     StartUpCounter++;  
 333              		.loc 1 895 0 discriminator 2
 334 0170 7B68     		ldr	r3, [r7, #4]
 335 0172 0133     		adds	r3, r3, #1
 336 0174 7B60     		str	r3, [r7, #4]
 896:src/system.c  ****   } while((HSEStatus == 0) && (StartUpCounter != HSE_STARTUP_TIMEOUT));
 337              		.loc 1 896 0 discriminator 2
 338 0176 3B68     		ldr	r3, [r7]
 339 0178 002B     		cmp	r3, #0
 340 017a 03D1     		bne	.L18
 341              		.loc 1 896 0 is_stmt 0 discriminator 1
 342 017c 7B68     		ldr	r3, [r7, #4]
 343 017e B3F5A06F 		cmp	r3, #1280
 344 0182 F0D1     		bne	.L19
 345              	.L18:
 897:src/system.c  **** 
 898:src/system.c  ****   if ((RCC->CR & RCC_CR_HSERDY) != RESET)
 346              		.loc 1 898 0 is_stmt 1
 347 0184 2F4B     		ldr	r3, .L26
 348 0186 1B68     		ldr	r3, [r3]
 349 0188 03F40033 		and	r3, r3, #131072
 350 018c 002B     		cmp	r3, #0
 351 018e 02D0     		beq	.L20
 899:src/system.c  ****   {
 900:src/system.c  ****     HSEStatus = (uint32_t)0x01;
ARM GAS  /tmp/ccP9nfJH.s 			page 23


 352              		.loc 1 900 0
 353 0190 0123     		movs	r3, #1
 354 0192 3B60     		str	r3, [r7]
 355 0194 01E0     		b	.L21
 356              	.L20:
 901:src/system.c  ****   }
 902:src/system.c  ****   else
 903:src/system.c  ****   {
 904:src/system.c  ****     HSEStatus = (uint32_t)0x00;
 357              		.loc 1 904 0
 358 0196 0023     		movs	r3, #0
 359 0198 3B60     		str	r3, [r7]
 360              	.L21:
 905:src/system.c  ****   }  
 906:src/system.c  **** 
 907:src/system.c  ****   if (HSEStatus == (uint32_t)0x01)
 361              		.loc 1 907 0
 362 019a 3B68     		ldr	r3, [r7]
 363 019c 012B     		cmp	r3, #1
 364 019e 4BD1     		bne	.L25
 908:src/system.c  ****   {
 909:src/system.c  ****     /* Enable Prefetch Buffer */
 910:src/system.c  ****     FLASH->ACR |= FLASH_ACR_PRFTBE;
 365              		.loc 1 910 0
 366 01a0 294A     		ldr	r2, .L26+4
 367 01a2 294B     		ldr	r3, .L26+4
 368 01a4 1B68     		ldr	r3, [r3]
 369 01a6 43F01003 		orr	r3, r3, #16
 370 01aa 1360     		str	r3, [r2]
 911:src/system.c  **** 
 912:src/system.c  ****     /* Flash 2 wait state */
 913:src/system.c  ****     FLASH->ACR &= (uint32_t)((uint32_t)~FLASH_ACR_LATENCY);
 371              		.loc 1 913 0
 372 01ac 264A     		ldr	r2, .L26+4
 373 01ae 264B     		ldr	r3, .L26+4
 374 01b0 1B68     		ldr	r3, [r3]
 375 01b2 23F00303 		bic	r3, r3, #3
 376 01b6 1360     		str	r3, [r2]
 914:src/system.c  ****     FLASH->ACR |= (uint32_t)FLASH_ACR_LATENCY_2;    
 377              		.loc 1 914 0
 378 01b8 234A     		ldr	r2, .L26+4
 379 01ba 234B     		ldr	r3, .L26+4
 380 01bc 1B68     		ldr	r3, [r3]
 381 01be 43F00203 		orr	r3, r3, #2
 382 01c2 1360     		str	r3, [r2]
 915:src/system.c  **** 
 916:src/system.c  ****  
 917:src/system.c  ****     /* HCLK = SYSCLK */
 918:src/system.c  ****     RCC->CFGR |= (uint32_t)RCC_CFGR_HPRE_DIV1;
 383              		.loc 1 918 0
 384 01c4 1F4A     		ldr	r2, .L26
 385 01c6 1F4B     		ldr	r3, .L26
 386 01c8 5B68     		ldr	r3, [r3, #4]
 387 01ca 5360     		str	r3, [r2, #4]
 919:src/system.c  ****       
 920:src/system.c  ****     /* PCLK2 = HCLK */
 921:src/system.c  ****     RCC->CFGR |= (uint32_t)RCC_CFGR_PPRE2_DIV1;
ARM GAS  /tmp/ccP9nfJH.s 			page 24


 388              		.loc 1 921 0
 389 01cc 1D4A     		ldr	r2, .L26
 390 01ce 1D4B     		ldr	r3, .L26
 391 01d0 5B68     		ldr	r3, [r3, #4]
 392 01d2 5360     		str	r3, [r2, #4]
 922:src/system.c  ****     
 923:src/system.c  ****     /* PCLK1 = HCLK */
 924:src/system.c  ****     RCC->CFGR |= (uint32_t)RCC_CFGR_PPRE1_DIV2;
 393              		.loc 1 924 0
 394 01d4 1B4A     		ldr	r2, .L26
 395 01d6 1B4B     		ldr	r3, .L26
 396 01d8 5B68     		ldr	r3, [r3, #4]
 397 01da 43F48063 		orr	r3, r3, #1024
 398 01de 5360     		str	r3, [r2, #4]
 925:src/system.c  **** 
 926:src/system.c  **** #ifdef STM32F10X_CL
 927:src/system.c  ****     /* Configure PLLs ------------------------------------------------------*/
 928:src/system.c  ****     /* PLL2 configuration: PLL2CLK = (HSE / 5) * 8 = 40 MHz */
 929:src/system.c  ****     /* PREDIV1 configuration: PREDIV1CLK = PLL2 / 5 = 8 MHz */
 930:src/system.c  ****         
 931:src/system.c  ****     RCC->CFGR2 &= (uint32_t)~(RCC_CFGR2_PREDIV2 | RCC_CFGR2_PLL2MUL |
 932:src/system.c  ****                               RCC_CFGR2_PREDIV1 | RCC_CFGR2_PREDIV1SRC);
 933:src/system.c  ****     RCC->CFGR2 |= (uint32_t)(RCC_CFGR2_PREDIV2_DIV5 | RCC_CFGR2_PLL2MUL8 |
 934:src/system.c  ****                              RCC_CFGR2_PREDIV1SRC_PLL2 | RCC_CFGR2_PREDIV1_DIV5);
 935:src/system.c  ****   
 936:src/system.c  ****     /* Enable PLL2 */
 937:src/system.c  ****     RCC->CR |= RCC_CR_PLL2ON;
 938:src/system.c  ****     /* Wait till PLL2 is ready */
 939:src/system.c  ****     while((RCC->CR & RCC_CR_PLL2RDY) == 0)
 940:src/system.c  ****     {
 941:src/system.c  ****     }
 942:src/system.c  ****     
 943:src/system.c  ****    
 944:src/system.c  ****     /* PLL configuration: PLLCLK = PREDIV1 * 9 = 72 MHz */ 
 945:src/system.c  ****     RCC->CFGR &= (uint32_t)~(RCC_CFGR_PLLXTPRE | RCC_CFGR_PLLSRC | RCC_CFGR_PLLMULL);
 946:src/system.c  ****     RCC->CFGR |= (uint32_t)(RCC_CFGR_PLLXTPRE_PREDIV1 | RCC_CFGR_PLLSRC_PREDIV1 | 
 947:src/system.c  ****                             RCC_CFGR_PLLMULL9); 
 948:src/system.c  **** #else    
 949:src/system.c  ****     /*  PLL configuration: PLLCLK = HSE * 9 = 72 MHz */
 950:src/system.c  ****     RCC->CFGR &= (uint32_t)((uint32_t)~(RCC_CFGR_PLLSRC | RCC_CFGR_PLLXTPRE |
 399              		.loc 1 950 0
 400 01e0 184A     		ldr	r2, .L26
 401 01e2 184B     		ldr	r3, .L26
 402 01e4 5B68     		ldr	r3, [r3, #4]
 403 01e6 23F47C13 		bic	r3, r3, #4128768
 404 01ea 5360     		str	r3, [r2, #4]
 951:src/system.c  ****                                         RCC_CFGR_PLLMULL));
 952:src/system.c  ****     RCC->CFGR |= (uint32_t)(RCC_CFGR_PLLSRC_HSE | RCC_CFGR_PLLMULL9);
 405              		.loc 1 952 0
 406 01ec 154A     		ldr	r2, .L26
 407 01ee 154B     		ldr	r3, .L26
 408 01f0 5B68     		ldr	r3, [r3, #4]
 409 01f2 43F4E813 		orr	r3, r3, #1900544
 410 01f6 5360     		str	r3, [r2, #4]
 953:src/system.c  **** #endif /* STM32F10X_CL */
 954:src/system.c  **** 
 955:src/system.c  ****     /* Enable PLL */
ARM GAS  /tmp/ccP9nfJH.s 			page 25


 956:src/system.c  ****     RCC->CR |= RCC_CR_PLLON;
 411              		.loc 1 956 0
 412 01f8 124A     		ldr	r2, .L26
 413 01fa 124B     		ldr	r3, .L26
 414 01fc 1B68     		ldr	r3, [r3]
 415 01fe 43F08073 		orr	r3, r3, #16777216
 416 0202 1360     		str	r3, [r2]
 957:src/system.c  **** 
 958:src/system.c  ****     /* Wait till PLL is ready */
 959:src/system.c  ****     while((RCC->CR & RCC_CR_PLLRDY) == 0)
 417              		.loc 1 959 0
 418 0204 00BF     		nop
 419              	.L23:
 420              		.loc 1 959 0 is_stmt 0 discriminator 1
 421 0206 0F4B     		ldr	r3, .L26
 422 0208 1B68     		ldr	r3, [r3]
 423 020a 03F00073 		and	r3, r3, #33554432
 424 020e 002B     		cmp	r3, #0
 425 0210 F9D0     		beq	.L23
 960:src/system.c  ****     {
 961:src/system.c  ****     }
 962:src/system.c  ****     
 963:src/system.c  ****     /* Select PLL as system clock source */
 964:src/system.c  ****     RCC->CFGR &= (uint32_t)((uint32_t)~(RCC_CFGR_SW));
 426              		.loc 1 964 0 is_stmt 1
 427 0212 0C4A     		ldr	r2, .L26
 428 0214 0B4B     		ldr	r3, .L26
 429 0216 5B68     		ldr	r3, [r3, #4]
 430 0218 23F00303 		bic	r3, r3, #3
 431 021c 5360     		str	r3, [r2, #4]
 965:src/system.c  ****     RCC->CFGR |= (uint32_t)RCC_CFGR_SW_PLL;    
 432              		.loc 1 965 0
 433 021e 094A     		ldr	r2, .L26
 434 0220 084B     		ldr	r3, .L26
 435 0222 5B68     		ldr	r3, [r3, #4]
 436 0224 43F00203 		orr	r3, r3, #2
 437 0228 5360     		str	r3, [r2, #4]
 966:src/system.c  **** 
 967:src/system.c  ****     /* Wait till PLL is used as system clock source */
 968:src/system.c  ****     while ((RCC->CFGR & (uint32_t)RCC_CFGR_SWS) != (uint32_t)0x08)
 438              		.loc 1 968 0
 439 022a 00BF     		nop
 440              	.L24:
 441              		.loc 1 968 0 is_stmt 0 discriminator 1
 442 022c 054B     		ldr	r3, .L26
 443 022e 5B68     		ldr	r3, [r3, #4]
 444 0230 03F00C03 		and	r3, r3, #12
 445 0234 082B     		cmp	r3, #8
 446 0236 F9D1     		bne	.L24
 447              	.L25:
 969:src/system.c  ****     {
 970:src/system.c  ****     }
 971:src/system.c  ****   }
 972:src/system.c  ****   else
 973:src/system.c  ****   { /* If HSE fails to start-up, the application will have wrong clock 
 974:src/system.c  ****          configuration. User can add here some code to deal with this error */
 975:src/system.c  ****   }
ARM GAS  /tmp/ccP9nfJH.s 			page 26


 976:src/system.c  **** }
 448              		.loc 1 976 0 is_stmt 1
 449 0238 00BF     		nop
 450 023a 0C37     		adds	r7, r7, #12
 451              		.cfi_def_cfa_offset 4
 452 023c BD46     		mov	sp, r7
 453              		.cfi_def_cfa_register 13
 454              		@ sp needed
 455 023e 80BC     		pop	{r7}
 456              		.cfi_restore 7
 457              		.cfi_def_cfa_offset 0
 458 0240 7047     		bx	lr
 459              	.L27:
 460 0242 00BF     		.align	2
 461              	.L26:
 462 0244 00100240 		.word	1073876992
 463 0248 00200240 		.word	1073881088
 464              		.cfi_endproc
 465              	.LFE66:
 466              		.size	SetSysClockTo72, .-SetSysClockTo72
 467              	.Letext0:
 468              		.file 2 "/usr/arm-none-eabi/include/machine/_default_types.h"
 469              		.file 3 "/usr/arm-none-eabi/include/sys/_stdint.h"
 470              		.file 4 "src/../include/STM32/../CMSIS/core_cm3.h"
 471              		.file 5 "src/../include/STM32/system_stm32f10x.h"
 472              		.file 6 "src/../include/STM32/stm32f10x.h"