ARM GAS  /tmp/ccHK1ABI.s 			page 1


   1              		.cpu cortex-m3
   2              		.eabi_attribute 20, 1
   3              		.eabi_attribute 21, 1
   4              		.eabi_attribute 23, 3
   5              		.eabi_attribute 24, 1
   6              		.eabi_attribute 25, 1
   7              		.eabi_attribute 26, 1
   8              		.eabi_attribute 30, 6
   9              		.eabi_attribute 34, 1
  10              		.eabi_attribute 18, 4
  11              		.file	"time.c"
  12              		.text
  13              	.Ltext0:
  14              		.cfi_sections	.debug_frame
  15              		.bss
  16              	fac_us:
  17 0000 00       		.space	1
  18              		.size	fac_us, 1
  19 0001 00       		.align	1
  20              	fac_ms:
  21 0002 0000     		.space	2
  22              		.size	fac_ms, 2
  23              		.global	HSEStartUpStatus
  24              		.type	HSEStartUpStatus, %object
  25              		.size	HSEStartUpStatus, 1
  26              	HSEStartUpStatus:
  27 0004 00       		.space	1
  28              		.text
  29              		.align	1
  30              		.global	delay_init
  31              		.syntax unified
  32              		.thumb
  33              		.thumb_func
  34              		.fpu softvfp
  35              		.type	delay_init, %function
  36              	delay_init:
  37              	.LFB64:
  38              		.file 1 "src/time.c"
   1:src/time.c    **** #include "main.h"
   2:src/time.c    **** 
   3:src/time.c    **** static u8  fac_us=0;//us延时倍乘数			   
   4:src/time.c    **** static u16 fac_ms=0;//ms延时倍乘数
   5:src/time.c    **** ErrorStatus HSEStartUpStatus;
   6:src/time.c    **** 
   7:src/time.c    **** //初始化延迟函数
   8:src/time.c    **** void delay_init(u8 SYSCLK)
   9:src/time.c    **** {
  39              		.loc 1 9 0
  40              		.cfi_startproc
  41              		@ args = 0, pretend = 0, frame = 8
  42              		@ frame_needed = 1, uses_anonymous_args = 0
  43              		@ link register save eliminated.
  44 0000 80B4     		push	{r7}
  45              		.cfi_def_cfa_offset 4
  46              		.cfi_offset 7, -4
  47 0002 83B0     		sub	sp, sp, #12
  48              		.cfi_def_cfa_offset 16
ARM GAS  /tmp/ccHK1ABI.s 			page 2


  49 0004 00AF     		add	r7, sp, #0
  50              		.cfi_def_cfa_register 7
  51 0006 0346     		mov	r3, r0
  52 0008 FB71     		strb	r3, [r7, #7]
  10:src/time.c    **** 	fac_us=SYSCLK/8;		//不论是否使用ucos,fac_us都需要使用
  53              		.loc 1 10 0
  54 000a FB79     		ldrb	r3, [r7, #7]	@ zero_extendqisi2
  55 000c DB08     		lsrs	r3, r3, #3
  56 000e DAB2     		uxtb	r2, r3
  57 0010 094B     		ldr	r3, .L2
  58 0012 1A70     		strb	r2, [r3]
  11:src/time.c    **** 	fac_ms=(u16)fac_us*1000;//非ucos下,代表每个ms需要的systick时钟数   
  59              		.loc 1 11 0
  60 0014 084B     		ldr	r3, .L2
  61 0016 1B78     		ldrb	r3, [r3]	@ zero_extendqisi2
  62 0018 9BB2     		uxth	r3, r3
  63 001a 1A46     		mov	r2, r3	@ movhi
  64 001c 5201     		lsls	r2, r2, #5
  65 001e D21A     		subs	r2, r2, r3
  66 0020 9200     		lsls	r2, r2, #2
  67 0022 1344     		add	r3, r3, r2
  68 0024 DB00     		lsls	r3, r3, #3
  69 0026 9AB2     		uxth	r2, r3
  70 0028 044B     		ldr	r3, .L2+4
  71 002a 1A80     		strh	r2, [r3]	@ movhi
  12:src/time.c    **** }								  
  72              		.loc 1 12 0
  73 002c 00BF     		nop
  74 002e 0C37     		adds	r7, r7, #12
  75              		.cfi_def_cfa_offset 4
  76 0030 BD46     		mov	sp, r7
  77              		.cfi_def_cfa_register 13
  78              		@ sp needed
  79 0032 80BC     		pop	{r7}
  80              		.cfi_restore 7
  81              		.cfi_def_cfa_offset 0
  82 0034 7047     		bx	lr
  83              	.L3:
  84 0036 00BF     		.align	2
  85              	.L2:
  86 0038 00000000 		.word	fac_us
  87 003c 02000000 		.word	fac_ms
  88              		.cfi_endproc
  89              	.LFE64:
  90              		.size	delay_init, .-delay_init
  91              		.align	1
  92              		.global	delay_us
  93              		.syntax unified
  94              		.thumb
  95              		.thumb_func
  96              		.fpu softvfp
  97              		.type	delay_us, %function
  98              	delay_us:
  99              	.LFB65:
  13:src/time.c    **** 
  14:src/time.c    **** //延时nus
  15:src/time.c    **** //nus为要延时的us数.		  								   
ARM GAS  /tmp/ccHK1ABI.s 			page 3


  16:src/time.c    **** void delay_us(u32 nus)
  17:src/time.c    **** {		
 100              		.loc 1 17 0
 101              		.cfi_startproc
 102              		@ args = 0, pretend = 0, frame = 16
 103              		@ frame_needed = 1, uses_anonymous_args = 0
 104              		@ link register save eliminated.
 105 0040 80B4     		push	{r7}
 106              		.cfi_def_cfa_offset 4
 107              		.cfi_offset 7, -4
 108 0042 85B0     		sub	sp, sp, #20
 109              		.cfi_def_cfa_offset 24
 110 0044 00AF     		add	r7, sp, #0
 111              		.cfi_def_cfa_register 7
 112 0046 7860     		str	r0, [r7, #4]
  18:src/time.c    **** 	u32 temp;	  	 
  19:src/time.c    **** 	SysTick->LOAD=nus*fac_us; //时间加载	  		 
 113              		.loc 1 19 0
 114 0048 124A     		ldr	r2, .L7
 115 004a 134B     		ldr	r3, .L7+4
 116 004c 1B78     		ldrb	r3, [r3]	@ zero_extendqisi2
 117 004e 1946     		mov	r1, r3
 118 0050 7B68     		ldr	r3, [r7, #4]
 119 0052 03FB01F3 		mul	r3, r3, r1
 120 0056 5360     		str	r3, [r2, #4]
  20:src/time.c    **** 	SysTick->VAL=0x00;    //清空计数器
 121              		.loc 1 20 0
 122 0058 0E4B     		ldr	r3, .L7
 123 005a 0022     		movs	r2, #0
 124 005c 9A60     		str	r2, [r3, #8]
  21:src/time.c    **** 	SysTick->CTRL=0x01 ;    //开始倒数 	 
 125              		.loc 1 21 0
 126 005e 0D4B     		ldr	r3, .L7
 127 0060 0122     		movs	r2, #1
 128 0062 1A60     		str	r2, [r3]
 129              	.L6:
  22:src/time.c    **** 	do {
  23:src/time.c    **** 		temp=SysTick->CTRL;
 130              		.loc 1 23 0 discriminator 2
 131 0064 0B4B     		ldr	r3, .L7
 132 0066 1B68     		ldr	r3, [r3]
 133 0068 FB60     		str	r3, [r7, #12]
  24:src/time.c    **** 	}
  25:src/time.c    **** 	while((temp&0x01)&&!(temp&(1<<16)));//等待时间到达   
 134              		.loc 1 25 0 discriminator 2
 135 006a FB68     		ldr	r3, [r7, #12]
 136 006c 03F00103 		and	r3, r3, #1
 137 0070 002B     		cmp	r3, #0
 138 0072 04D0     		beq	.L5
 139              		.loc 1 25 0 is_stmt 0 discriminator 1
 140 0074 FB68     		ldr	r3, [r7, #12]
 141 0076 03F48033 		and	r3, r3, #65536
 142 007a 002B     		cmp	r3, #0
 143 007c F2D0     		beq	.L6
 144              	.L5:
  26:src/time.c    **** 	SysTick->CTRL=0x00;     //关闭计数器
 145              		.loc 1 26 0 is_stmt 1
ARM GAS  /tmp/ccHK1ABI.s 			page 4


 146 007e 054B     		ldr	r3, .L7
 147 0080 0022     		movs	r2, #0
 148 0082 1A60     		str	r2, [r3]
  27:src/time.c    **** 	SysTick->VAL =0X00;     //清空计数器	 
 149              		.loc 1 27 0
 150 0084 034B     		ldr	r3, .L7
 151 0086 0022     		movs	r2, #0
 152 0088 9A60     		str	r2, [r3, #8]
  28:src/time.c    **** }
 153              		.loc 1 28 0
 154 008a 00BF     		nop
 155 008c 1437     		adds	r7, r7, #20
 156              		.cfi_def_cfa_offset 4
 157 008e BD46     		mov	sp, r7
 158              		.cfi_def_cfa_register 13
 159              		@ sp needed
 160 0090 80BC     		pop	{r7}
 161              		.cfi_restore 7
 162              		.cfi_def_cfa_offset 0
 163 0092 7047     		bx	lr
 164              	.L8:
 165              		.align	2
 166              	.L7:
 167 0094 10E000E0 		.word	-536813552
 168 0098 00000000 		.word	fac_us
 169              		.cfi_endproc
 170              	.LFE65:
 171              		.size	delay_us, .-delay_us
 172              		.align	1
 173              		.global	delay_ms
 174              		.syntax unified
 175              		.thumb
 176              		.thumb_func
 177              		.fpu softvfp
 178              		.type	delay_ms, %function
 179              	delay_ms:
 180              	.LFB66:
  29:src/time.c    **** 
  30:src/time.c    **** //延时nms
  31:src/time.c    **** void delay_ms(u16 nms)
  32:src/time.c    **** {	 		  	  
 181              		.loc 1 32 0
 182              		.cfi_startproc
 183              		@ args = 0, pretend = 0, frame = 16
 184              		@ frame_needed = 1, uses_anonymous_args = 0
 185              		@ link register save eliminated.
 186 009c 80B4     		push	{r7}
 187              		.cfi_def_cfa_offset 4
 188              		.cfi_offset 7, -4
 189 009e 85B0     		sub	sp, sp, #20
 190              		.cfi_def_cfa_offset 24
 191 00a0 00AF     		add	r7, sp, #0
 192              		.cfi_def_cfa_register 7
 193 00a2 0346     		mov	r3, r0
 194 00a4 FB80     		strh	r3, [r7, #6]	@ movhi
  33:src/time.c    **** 	u32 temp;		   
  34:src/time.c    **** 	SysTick->LOAD=(u32)nms*fac_ms;//时间加载(SysTick->LOAD为24bit)
ARM GAS  /tmp/ccHK1ABI.s 			page 5


 195              		.loc 1 34 0
 196 00a6 124A     		ldr	r2, .L12
 197 00a8 FB88     		ldrh	r3, [r7, #6]
 198 00aa 1249     		ldr	r1, .L12+4
 199 00ac 0988     		ldrh	r1, [r1]
 200 00ae 01FB03F3 		mul	r3, r1, r3
 201 00b2 5360     		str	r3, [r2, #4]
  35:src/time.c    **** 	SysTick->VAL =0x00;       //清空计数器
 202              		.loc 1 35 0
 203 00b4 0E4B     		ldr	r3, .L12
 204 00b6 0022     		movs	r2, #0
 205 00b8 9A60     		str	r2, [r3, #8]
  36:src/time.c    **** 	SysTick->CTRL=0x01 ;      //开始倒数  
 206              		.loc 1 36 0
 207 00ba 0D4B     		ldr	r3, .L12
 208 00bc 0122     		movs	r2, #1
 209 00be 1A60     		str	r2, [r3]
 210              	.L11:
  37:src/time.c    **** 	do {
  38:src/time.c    **** 		temp=SysTick->CTRL;
 211              		.loc 1 38 0 discriminator 2
 212 00c0 0B4B     		ldr	r3, .L12
 213 00c2 1B68     		ldr	r3, [r3]
 214 00c4 FB60     		str	r3, [r7, #12]
  39:src/time.c    **** 	}
  40:src/time.c    **** 	while((temp&0x01)&&!(temp&(1<<16)));//等待时间到达   
 215              		.loc 1 40 0 discriminator 2
 216 00c6 FB68     		ldr	r3, [r7, #12]
 217 00c8 03F00103 		and	r3, r3, #1
 218 00cc 002B     		cmp	r3, #0
 219 00ce 04D0     		beq	.L10
 220              		.loc 1 40 0 is_stmt 0 discriminator 1
 221 00d0 FB68     		ldr	r3, [r7, #12]
 222 00d2 03F48033 		and	r3, r3, #65536
 223 00d6 002B     		cmp	r3, #0
 224 00d8 F2D0     		beq	.L11
 225              	.L10:
  41:src/time.c    **** 	SysTick->CTRL=0x00;     //关闭计数器
 226              		.loc 1 41 0 is_stmt 1
 227 00da 054B     		ldr	r3, .L12
 228 00dc 0022     		movs	r2, #0
 229 00de 1A60     		str	r2, [r3]
  42:src/time.c    **** 	SysTick->VAL =0X00;     //清空计数器	  	  
 230              		.loc 1 42 0
 231 00e0 034B     		ldr	r3, .L12
 232 00e2 0022     		movs	r2, #0
 233 00e4 9A60     		str	r2, [r3, #8]
  43:src/time.c    **** } 
 234              		.loc 1 43 0
 235 00e6 00BF     		nop
 236 00e8 1437     		adds	r7, r7, #20
 237              		.cfi_def_cfa_offset 4
 238 00ea BD46     		mov	sp, r7
 239              		.cfi_def_cfa_register 13
 240              		@ sp needed
 241 00ec 80BC     		pop	{r7}
 242              		.cfi_restore 7
ARM GAS  /tmp/ccHK1ABI.s 			page 6


 243              		.cfi_def_cfa_offset 0
 244 00ee 7047     		bx	lr
 245              	.L13:
 246              		.align	2
 247              	.L12:
 248 00f0 10E000E0 		.word	-536813552
 249 00f4 02000000 		.word	fac_ms
 250              		.cfi_endproc
 251              	.LFE66:
 252              		.size	delay_ms, .-delay_ms
 253              		.align	1
 254              		.global	RCC_Conf
 255              		.syntax unified
 256              		.thumb
 257              		.thumb_func
 258              		.fpu softvfp
 259              		.type	RCC_Conf, %function
 260              	RCC_Conf:
 261              	.LFB67:
  44:src/time.c    **** 
  45:src/time.c    **** 
  46:src/time.c    **** void RCC_Conf(void)
  47:src/time.c    **** {
 262              		.loc 1 47 0
 263              		.cfi_startproc
 264              		@ args = 0, pretend = 0, frame = 0
 265              		@ frame_needed = 1, uses_anonymous_args = 0
 266 00f8 80B5     		push	{r7, lr}
 267              		.cfi_def_cfa_offset 8
 268              		.cfi_offset 7, -8
 269              		.cfi_offset 14, -4
 270 00fa 00AF     		add	r7, sp, #0
 271              		.cfi_def_cfa_register 7
  48:src/time.c    ****   //复位RCC外部设备寄存器到默认值
  49:src/time.c    ****   RCC_DeInit();  
 272              		.loc 1 49 0
 273 00fc FFF7FEFF 		bl	RCC_DeInit
  50:src/time.c    ****   //打开外部高速晶振
  51:src/time.c    ****   RCC_HSEConfig(RCC_HSE_ON); 
 274              		.loc 1 51 0
 275 0100 4FF48030 		mov	r0, #65536
 276 0104 FFF7FEFF 		bl	RCC_HSEConfig
  52:src/time.c    ****   //等待外部高速时钟准备好
  53:src/time.c    ****   HSEStartUpStatus = RCC_WaitForHSEStartUp(); 
 277              		.loc 1 53 0
 278 0108 FFF7FEFF 		bl	RCC_WaitForHSEStartUp
 279 010c 0346     		mov	r3, r0
 280 010e 1A46     		mov	r2, r3
 281 0110 204B     		ldr	r3, .L18
 282 0112 1A70     		strb	r2, [r3]
  54:src/time.c    ****   if(HSEStartUpStatus == SUCCESS){
 283              		.loc 1 54 0
 284 0114 1F4B     		ldr	r3, .L18
 285 0116 1B78     		ldrb	r3, [r3]	@ zero_extendqisi2
 286 0118 012B     		cmp	r3, #1
 287 011a 30D1     		bne	.L15
  55:src/time.c    ****   FLASH_PrefetchBufferCmd(FLASH_PrefetchBuffer_Enable);
ARM GAS  /tmp/ccHK1ABI.s 			page 7


 288              		.loc 1 55 0
 289 011c 1020     		movs	r0, #16
 290 011e FFF7FEFF 		bl	FLASH_PrefetchBufferCmd
  56:src/time.c    ****   FLASH_SetLatency(FLASH_Latency_2);
 291              		.loc 1 56 0
 292 0122 0220     		movs	r0, #2
 293 0124 FFF7FEFF 		bl	FLASH_SetLatency
  57:src/time.c    ****   //配置AHB(HCLK)时钟=SYSCLK
  58:src/time.c    ****   RCC_HCLKConfig(RCC_SYSCLK_Div1);
 294              		.loc 1 58 0
 295 0128 0020     		movs	r0, #0
 296 012a FFF7FEFF 		bl	RCC_HCLKConfig
  59:src/time.c    ****   //配置APB2(PCLK2)钟=AHB时钟
  60:src/time.c    ****   RCC_PCLK2Config(RCC_HCLK_Div1); 
 297              		.loc 1 60 0
 298 012e 0020     		movs	r0, #0
 299 0130 FFF7FEFF 		bl	RCC_PCLK2Config
  61:src/time.c    ****   //配置APB1(PCLK1)钟=AHB 1/2时钟
  62:src/time.c    ****   RCC_PCLK1Config(RCC_HCLK_Div2);  
 300              		.loc 1 62 0
 301 0134 4FF48060 		mov	r0, #1024
 302 0138 FFF7FEFF 		bl	RCC_PCLK1Config
  63:src/time.c    ****   //配置ADC时钟=PCLK2 1/4
  64:src/time.c    ****   RCC_ADCCLKConfig(RCC_PCLK2_Div4); 
 303              		.loc 1 64 0
 304 013c 4FF48040 		mov	r0, #16384
 305 0140 FFF7FEFF 		bl	RCC_ADCCLKConfig
  65:src/time.c    ****   //配置PLL时钟 == 外部高速晶体时钟*9
  66:src/time.c    ****   RCC_PLLConfig(RCC_PLLSource_HSE_Div1, RCC_PLLMul_9); 
 306              		.loc 1 66 0
 307 0144 4FF4E011 		mov	r1, #1835008
 308 0148 4FF48030 		mov	r0, #65536
 309 014c FFF7FEFF 		bl	RCC_PLLConfig
  67:src/time.c    ****   //配置ADC时钟= PCLK2/4
  68:src/time.c    ****   RCC_ADCCLKConfig(RCC_PCLK2_Div4);
 310              		.loc 1 68 0
 311 0150 4FF48040 		mov	r0, #16384
 312 0154 FFF7FEFF 		bl	RCC_ADCCLKConfig
  69:src/time.c    ****   //使能PLL时钟
  70:src/time.c    ****   RCC_PLLCmd(ENABLE);  
 313              		.loc 1 70 0
 314 0158 0120     		movs	r0, #1
 315 015a FFF7FEFF 		bl	RCC_PLLCmd
  71:src/time.c    ****   //等待PLL时钟就绪
  72:src/time.c    ****   while(RCC_GetFlagStatus(RCC_FLAG_PLLRDY) == RESET)  {
 316              		.loc 1 72 0
 317 015e 00BF     		nop
 318              	.L16:
 319              		.loc 1 72 0 is_stmt 0 discriminator 1
 320 0160 3920     		movs	r0, #57
 321 0162 FFF7FEFF 		bl	RCC_GetFlagStatus
 322 0166 0346     		mov	r3, r0
 323 0168 002B     		cmp	r3, #0
 324 016a F9D0     		beq	.L16
  73:src/time.c    ****   }
  74:src/time.c    ****   //配置系统时钟 = PLL时钟
  75:src/time.c    ****   RCC_SYSCLKConfig(RCC_SYSCLKSource_PLLCLK); 
ARM GAS  /tmp/ccHK1ABI.s 			page 8


 325              		.loc 1 75 0 is_stmt 1
 326 016c 0220     		movs	r0, #2
 327 016e FFF7FEFF 		bl	RCC_SYSCLKConfig
  76:src/time.c    ****   //检查PLL时钟是否作为系统时钟
  77:src/time.c    ****   while(RCC_GetSYSCLKSource() != 0x08)  {
 328              		.loc 1 77 0
 329 0172 00BF     		nop
 330              	.L17:
 331              		.loc 1 77 0 is_stmt 0 discriminator 1
 332 0174 FFF7FEFF 		bl	RCC_GetSYSCLKSource
 333 0178 0346     		mov	r3, r0
 334 017a 082B     		cmp	r3, #8
 335 017c FAD1     		bne	.L17
 336              	.L15:
  78:src/time.c    ****   }
  79:src/time.c    ****   }
  80:src/time.c    ****   
  81:src/time.c    ****   //Enable GPIO timer
  82:src/time.c    ****   RCC_APB2PeriphClockCmd(RCC_APB2Periph_GPIOx, ENABLE);
 337              		.loc 1 82 0 is_stmt 1
 338 017e 0121     		movs	r1, #1
 339 0180 0420     		movs	r0, #4
 340 0182 FFF7FEFF 		bl	RCC_APB2PeriphClockCmd
  83:src/time.c    ****   
  84:src/time.c    ****   //Enable serial timer
  85:src/time.c    ****   RCC_APB1PeriphClockCmd(RCC_APB1Periph_USART2, ENABLE);
 341              		.loc 1 85 0
 342 0186 0121     		movs	r1, #1
 343 0188 4FF40030 		mov	r0, #131072
 344 018c FFF7FEFF 		bl	RCC_APB1PeriphClockCmd
  86:src/time.c    **** 
  87:src/time.c    **** }
 345              		.loc 1 87 0
 346 0190 00BF     		nop
 347 0192 80BD     		pop	{r7, pc}
 348              	.L19:
 349              		.align	2
 350              	.L18:
 351 0194 00000000 		.word	HSEStartUpStatus
 352              		.cfi_endproc
 353              	.LFE67:
 354              		.size	RCC_Conf, .-RCC_Conf
 355              		.align	1
 356              		.global	TIMER_Conf
 357              		.syntax unified
 358              		.thumb
 359              		.thumb_func
 360              		.fpu softvfp
 361              		.type	TIMER_Conf, %function
 362              	TIMER_Conf:
 363              	.LFB68:
  88:src/time.c    **** 
  89:src/time.c    **** // 定时器设置 
  90:src/time.c    **** void TIMER_Conf(void)
  91:src/time.c    **** {
 364              		.loc 1 91 0
 365              		.cfi_startproc
ARM GAS  /tmp/ccHK1ABI.s 			page 9


 366              		@ args = 0, pretend = 0, frame = 16
 367              		@ frame_needed = 1, uses_anonymous_args = 0
 368 0198 80B5     		push	{r7, lr}
 369              		.cfi_def_cfa_offset 8
 370              		.cfi_offset 7, -8
 371              		.cfi_offset 14, -4
 372 019a 84B0     		sub	sp, sp, #16
 373              		.cfi_def_cfa_offset 24
 374 019c 00AF     		add	r7, sp, #0
 375              		.cfi_def_cfa_register 7
  92:src/time.c    ****   TIM_TimeBaseInitTypeDef  TIM_TimeBaseStructure;
  93:src/time.c    ****   
  94:src/time.c    ****   RCC_APB1PeriphClockCmd(RCC_APB1Periph_TIM2, ENABLE); //配置RCC，使能TIM2
 376              		.loc 1 94 0
 377 019e 0121     		movs	r1, #1
 378 01a0 0120     		movs	r0, #1
 379 01a2 FFF7FEFF 		bl	RCC_APB1PeriphClockCmd
  95:src/time.c    ****   TIM_TimeBaseStructure.TIM_Prescaler = 71;  //时钟预分频数 例如:时钟频率=72/(时钟预
 380              		.loc 1 95 0
 381 01a6 4723     		movs	r3, #71
 382 01a8 BB80     		strh	r3, [r7, #4]	@ movhi
  96:src/time.c    ****   TIM_TimeBaseStructure.TIM_CounterMode = TIM_CounterMode_Up; ////定时器模式 向上计数  
 383              		.loc 1 96 0
 384 01aa 0023     		movs	r3, #0
 385 01ac FB80     		strh	r3, [r7, #6]	@ movhi
  97:src/time.c    ****   TIM_TimeBaseStructure.TIM_Period = 0xffff;//自动重装载寄存器周期的值(定时时间)累
 386              		.loc 1 97 0
 387 01ae 4FF6FF73 		movw	r3, #65535
 388 01b2 3B81     		strh	r3, [r7, #8]	@ movhi
  98:src/time.c    ****   TIM_TimeBaseStructure.TIM_ClockDivision = 0; ////时间分割值  
 389              		.loc 1 98 0
 390 01b4 0023     		movs	r3, #0
 391 01b6 7B81     		strh	r3, [r7, #10]	@ movhi
  99:src/time.c    ****   TIM_TimeBaseStructure.TIM_RepetitionCounter = 0;
 392              		.loc 1 99 0
 393 01b8 0023     		movs	r3, #0
 394 01ba 3B73     		strb	r3, [r7, #12]
 100:src/time.c    ****   TIM_TimeBaseInit(TIM2, &TIM_TimeBaseStructure); //初始化定时器2
 395              		.loc 1 100 0
 396 01bc 3B1D     		adds	r3, r7, #4
 397 01be 1946     		mov	r1, r3
 398 01c0 4FF08040 		mov	r0, #1073741824
 399 01c4 FFF7FEFF 		bl	TIM_TimeBaseInit
 101:src/time.c    ****   TIM_ClearFlag(TIM2, TIM_FLAG_Update);
 400              		.loc 1 101 0
 401 01c8 0121     		movs	r1, #1
 402 01ca 4FF08040 		mov	r0, #1073741824
 403 01ce FFF7FEFF 		bl	TIM_ClearFlag
 102:src/time.c    ****   TIM_ITConfig(TIM2, TIM_IT_Update, ENABLE); //打开中断 溢出中断  
 404              		.loc 1 102 0
 405 01d2 0122     		movs	r2, #1
 406 01d4 0121     		movs	r1, #1
 407 01d6 4FF08040 		mov	r0, #1073741824
 408 01da FFF7FEFF 		bl	TIM_ITConfig
 103:src/time.c    **** 
 104:src/time.c    **** }
 409              		.loc 1 104 0
ARM GAS  /tmp/ccHK1ABI.s 			page 10


 410 01de 00BF     		nop
 411 01e0 1037     		adds	r7, r7, #16
 412              		.cfi_def_cfa_offset 8
 413 01e2 BD46     		mov	sp, r7
 414              		.cfi_def_cfa_register 13
 415              		@ sp needed
 416 01e4 80BD     		pop	{r7, pc}
 417              		.cfi_endproc
 418              	.LFE68:
 419              		.size	TIMER_Conf, .-TIMER_Conf
 420              	.Letext0:
 421              		.file 2 "/usr/arm-none-eabi/include/machine/_default_types.h"
 422              		.file 3 "/usr/arm-none-eabi/include/sys/_stdint.h"
 423              		.file 4 "include/../include/STM32/../CMSIS/core_cm3.h"
 424              		.file 5 "include/../include/STM32/system_stm32f10x.h"
 425              		.file 6 "include/../include/STM32/stm32f10x.h"
 426              		.file 7 "include/../include/STM32/tim.h"
 427              		.file 8 "include/../include/MPU6050/mpu6050.h"
 428              		.file 9 "/usr/arm-none-eabi/include/sys/lock.h"
 429              		.file 10 "/usr/arm-none-eabi/include/sys/_types.h"
 430              		.file 11 "/usr/lib/gcc/arm-none-eabi/6.1.1/include/stddef.h"
 431              		.file 12 "/usr/arm-none-eabi/include/sys/reent.h"
 432              		.file 13 "/usr/arm-none-eabi/include/math.h"