ARM GAS  /tmp/ccuSM39H.s 			page 1


   1              		.cpu cortex-m3
   2              		.eabi_attribute 20, 1
   3              		.eabi_attribute 21, 1
   4              		.eabi_attribute 23, 3
   5              		.eabi_attribute 24, 1
   6              		.eabi_attribute 25, 1
   7              		.eabi_attribute 26, 1
   8              		.eabi_attribute 30, 1
   9              		.eabi_attribute 34, 1
  10              		.eabi_attribute 18, 4
  11              		.file	"tools.c"
  12              		.text
  13              	.Ltext0:
  14              		.cfi_sections	.debug_frame
  15              		.align	1
  16              		.global	UserInit
  17              		.syntax unified
  18              		.thumb
  19              		.thumb_func
  20              		.fpu softvfp
  21              		.type	UserInit, %function
  22              	UserInit:
  23              	.LFB64:
  24              		.file 1 "drivers/tools.c"
   1:drivers/tools.c **** #include "tools.h"
   2:drivers/tools.c **** 
   3:drivers/tools.c **** static u8  fac_us=0;//us延时倍乘数			   
   4:drivers/tools.c **** static u16 fac_ms=0;//ms延时倍乘数
   5:drivers/tools.c **** 
   6:drivers/tools.c **** void UserInit(void)
   7:drivers/tools.c **** {
  25              		.loc 1 7 0
  26              		.cfi_startproc
  27              		@ args = 0, pretend = 0, frame = 0
  28              		@ frame_needed = 0, uses_anonymous_args = 0
  29 0000 08B5     		push	{r3, lr}
  30              		.cfi_def_cfa_offset 8
  31              		.cfi_offset 3, -8
  32              		.cfi_offset 14, -4
   8:drivers/tools.c ****   RCC_Conf();
  33              		.loc 1 8 0
  34 0002 FFF7FEFF 		bl	RCC_Conf
  35              	.LVL0:
   9:drivers/tools.c ****   NVIC_Conf();
  36              		.loc 1 9 0
  37 0006 FFF7FEFF 		bl	NVIC_Conf
  38              	.LVL1:
  10:drivers/tools.c ****   GPIO_Conf();
  39              		.loc 1 10 0
  40 000a FFF7FEFF 		bl	GPIO_Conf
  41              	.LVL2:
  11:drivers/tools.c ****   USART_Conf();  
  42              		.loc 1 11 0
  43 000e FFF7FEFF 		bl	USART_Conf
  44              	.LVL3:
  12:drivers/tools.c ****   TIMER_Conf();
  45              		.loc 1 12 0
ARM GAS  /tmp/ccuSM39H.s 			page 2


  46 0012 FFF7FEFF 		bl	TIMER_Conf
  47              	.LVL4:
  13:drivers/tools.c **** 
  14:drivers/tools.c ****   I2C_Conf();
  48              		.loc 1 14 0
  49 0016 FFF7FEFF 		bl	I2C_Conf
  50              	.LVL5:
  51              	.LBB4:
  52              	.LBB5:
  15:drivers/tools.c ****   DelayInit(72);
  16:drivers/tools.c **** }
  17:drivers/tools.c **** 
  18:drivers/tools.c **** int HCSR04_Get(void)
  19:drivers/tools.c **** {
  20:drivers/tools.c ****   int length;
  21:drivers/tools.c ****   
  22:drivers/tools.c ****   GPIO_WriteBit(GPIOA,GPIO_Pin_1,1);
  23:drivers/tools.c ****   DelayUs(20);
  24:drivers/tools.c ****   GPIO_WriteBit(GPIOA,GPIO_Pin_1,0);
  25:drivers/tools.c ****   //计数器清0
  26:drivers/tools.c ****   TIM2->CNT = 0;
  27:drivers/tools.c ****   TIM_Cmd(TIM2, ENABLE);// TIM2 enable counter [允许tim2计数]
  28:drivers/tools.c ****   while(!GPIO_ReadInputDataBit(GPIOA, GPIO_Pin_0) && TIM2->CNT<1000);
  29:drivers/tools.c ****   TIM2->CNT = 0;
  30:drivers/tools.c ****   while(GPIO_ReadInputDataBit(GPIOA, GPIO_Pin_0) && TIM2->CNT<60000);
  31:drivers/tools.c ****   TIM_Cmd(TIM2, DISABLE);
  32:drivers/tools.c **** 
  33:drivers/tools.c ****   length = TIM2->CNT/58.8;
  34:drivers/tools.c ****   return length;
  35:drivers/tools.c **** }
  36:drivers/tools.c **** 
  37:drivers/tools.c **** 
  38:drivers/tools.c **** int _read(int file, char *ptr, int len) 
  39:drivers/tools.c **** {
  40:drivers/tools.c ****   int n;
  41:drivers/tools.c ****   int num = 0;
  42:drivers/tools.c ****   for (n = 0; n < len; n++) {
  43:drivers/tools.c ****      char c = UsartGet();
  44:drivers/tools.c ****     *ptr++ = c;
  45:drivers/tools.c ****     num++;
  46:drivers/tools.c ****   }
  47:drivers/tools.c ****   return num;
  48:drivers/tools.c **** }
  49:drivers/tools.c **** 
  50:drivers/tools.c **** int _write(int file, char *ptr, int len) 
  51:drivers/tools.c **** {
  52:drivers/tools.c ****   int n;
  53:drivers/tools.c ****   for (n = 0; n < len; n++) {
  54:drivers/tools.c ****      UsartPut(*ptr++);
  55:drivers/tools.c ****   }
  56:drivers/tools.c ****   return len;
  57:drivers/tools.c **** }
  58:drivers/tools.c **** 
  59:drivers/tools.c **** // 向串口发送一个字节的数据，配合printf使用
  60:drivers/tools.c **** uint8_t UsartPut(uint8_t ch)
  61:drivers/tools.c **** {
  62:drivers/tools.c **** 	USART_SendData(USART2, (uint8_t) ch);
ARM GAS  /tmp/ccuSM39H.s 			page 3


  63:drivers/tools.c **** 	//Loop until the end of transmission
  64:drivers/tools.c **** 	while(USART_GetFlagStatus(USART2, USART_FLAG_TC) == RESET) {
  65:drivers/tools.c **** 	}
  66:drivers/tools.c ****   return ch;
  67:drivers/tools.c **** }
  68:drivers/tools.c **** 
  69:drivers/tools.c **** // 从串口接受数据
  70:drivers/tools.c **** uint8_t UsartGet(void)
  71:drivers/tools.c **** {
  72:drivers/tools.c **** 	while (USART_GetFlagStatus(USART2, USART_FLAG_RXNE) == RESET);
  73:drivers/tools.c **** 	return (uint8_t)USART_ReceiveData(USART2);
  74:drivers/tools.c **** }
  75:drivers/tools.c **** 
  76:drivers/tools.c **** // IIC写字节
  77:drivers/tools.c **** void I2C_ByteWrite(uint8_t HardwareAddr, uint8_t WriteAddr, uint8_t data)
  78:drivers/tools.c **** {
  79:drivers/tools.c ****   I2C_GenerateSTART(MPU_I2Cx, ENABLE);
  80:drivers/tools.c ****   printf("debug:A\r\n");
  81:drivers/tools.c ****   while(!I2C_CheckEvent(MPU_I2Cx, I2C_EVENT_MASTER_MODE_SELECT));
  82:drivers/tools.c ****   printf("debug:B\r\n");
  83:drivers/tools.c ****   I2C_Send7bitAddress(MPU_I2Cx, HardwareAddr,I2C_Direction_Transmitter);
  84:drivers/tools.c ****   while(!I2C_CheckEvent(MPU_I2Cx, I2C_EVENT_MASTER_TRANSMITTER_MODE_SELECTED));
  85:drivers/tools.c ****   I2C_SendData(MPU_I2Cx, WriteAddr);
  86:drivers/tools.c ****   while(!I2C_CheckEvent(MPU_I2Cx, I2C_EVENT_MASTER_BYTE_TRANSMITTED));
  87:drivers/tools.c ****   I2C_SendData(MPU_I2Cx, data);
  88:drivers/tools.c ****   while(!I2C_CheckEvent(MPU_I2Cx, I2C_EVENT_MASTER_BYTE_TRANSMITTED));
  89:drivers/tools.c ****   I2C_GenerateSTOP(MPU_I2Cx, ENABLE);
  90:drivers/tools.c **** }
  91:drivers/tools.c **** 
  92:drivers/tools.c **** // IIC写数据
  93:drivers/tools.c **** uint8_t I2C_Write(uint8_t HardwareAddr, uint8_t WriteAddr, uint8_t NumByteToWrite, uint8_t *pData)
  94:drivers/tools.c **** {
  95:drivers/tools.c ****   I2C_GenerateSTART(MPU_I2Cx, ENABLE);
  96:drivers/tools.c ****   while(!I2C_CheckEvent(MPU_I2Cx, I2C_EVENT_MASTER_MODE_SELECT));
  97:drivers/tools.c ****   I2C_Send7bitAddress(MPU_I2Cx, HardwareAddr,I2C_Direction_Transmitter);
  98:drivers/tools.c ****   while(!I2C_CheckEvent(MPU_I2Cx, I2C_EVENT_MASTER_TRANSMITTER_MODE_SELECTED));
  99:drivers/tools.c ****   I2C_SendData(MPU_I2Cx, WriteAddr);
 100:drivers/tools.c ****   while(!I2C_CheckEvent(MPU_I2Cx, I2C_EVENT_MASTER_BYTE_TRANSMITTED));
 101:drivers/tools.c ****   while(NumByteToWrite){
 102:drivers/tools.c ****     if(I2C_CheckEvent(MPU_I2Cx, I2C_EVENT_MASTER_BYTE_TRANSMITTED)){
 103:drivers/tools.c ****       I2C_SendData(MPU_I2Cx, *pData);
 104:drivers/tools.c ****       pData++;
 105:drivers/tools.c ****       NumByteToWrite--;
 106:drivers/tools.c ****     }
 107:drivers/tools.c ****   }
 108:drivers/tools.c ****   I2C_GenerateSTOP(MPU_I2Cx, ENABLE);
 109:drivers/tools.c ****   return 0;
 110:drivers/tools.c **** }
 111:drivers/tools.c **** 
 112:drivers/tools.c **** // I2C 读字节
 113:drivers/tools.c **** uint8_t I2C_ByteRead(uint8_t HardwareAddr, uint8_t ReadAddr)
 114:drivers/tools.c **** {
 115:drivers/tools.c ****   uint8_t receive = 0;
 116:drivers/tools.c ****   while(I2C_GetFlagStatus(MPU_I2Cx, I2C_FLAG_BUSY));//检查I2C是否忙碌中
 117:drivers/tools.c ****   I2C_GenerateSTART(MPU_I2Cx, ENABLE);//产生开始信号
 118:drivers/tools.c ****   while(!I2C_CheckEvent(MPU_I2Cx, I2C_EVENT_MASTER_MODE_SELECT));//清除EV5
 119:drivers/tools.c ****   I2C_Send7bitAddress(MPU_I2Cx, HardwareAddr, I2C_Direction_Transmitter);//写入器件
ARM GAS  /tmp/ccuSM39H.s 			page 4


 120:drivers/tools.c ****   while(!I2C_CheckEvent(MPU_I2Cx, I2C_EVENT_MASTER_TRANSMITTER_MODE_SELECTED));//清除EV6
 121:drivers/tools.c ****   I2C_SendData(MPU_I2Cx, ReadAddr);//发送要读取的地址
 122:drivers/tools.c ****   while(!I2C_CheckEvent(MPU_I2Cx, I2C_EVENT_MASTER_BYTE_TRANSMITTED));//清除EV8
 123:drivers/tools.c ****   I2C_GenerateSTART(MPU_I2Cx, ENABLE);//开启信号
 124:drivers/tools.c ****   while(!I2C_CheckEvent(MPU_I2Cx, I2C_EVENT_MASTER_MODE_SELECT));//清除EV5
 125:drivers/tools.c ****   I2C_Send7bitAddress(MPU_I2Cx, HardwareAddr, I2C_Direction_Receiver);//读数据
 126:drivers/tools.c ****   while(!I2C_CheckEvent(MPU_I2Cx, I2C_EVENT_MASTER_RECEIVER_MODE_SELECTED));//清除EV6
 127:drivers/tools.c ****   while(!I2C_CheckEvent(MPU_I2Cx, I2C_EVENT_MASTER_BYTE_RECEIVED));
 128:drivers/tools.c ****   receive = I2C_ReceiveData(MPU_I2Cx);
 129:drivers/tools.c ****   I2C_AcknowledgeConfig(MPU_I2Cx, DISABLE);
 130:drivers/tools.c ****   I2C_GenerateSTOP(MPU_I2Cx, ENABLE);
 131:drivers/tools.c ****   return receive;
 132:drivers/tools.c **** }
 133:drivers/tools.c **** 
 134:drivers/tools.c **** 
 135:drivers/tools.c **** // I2C 读连续数据
 136:drivers/tools.c **** uint8_t I2C_Read(uint8_t HardwareAddr, uint8_t ReadAddr, uint16_t NumByteToRead, uint8_t *pBuffer)
 137:drivers/tools.c **** {
 138:drivers/tools.c ****   while(I2C_GetFlagStatus(MPU_I2Cx, I2C_FLAG_BUSY));//检查I2C是否忙碌中
 139:drivers/tools.c ****   I2C_GenerateSTART(MPU_I2Cx, ENABLE);//产生开始信号
 140:drivers/tools.c ****   while(!I2C_CheckEvent(MPU_I2Cx, I2C_EVENT_MASTER_MODE_SELECT));//清除EV5
 141:drivers/tools.c ****   I2C_Send7bitAddress(MPU_I2Cx, HardwareAddr, I2C_Direction_Transmitter);//写入器件
 142:drivers/tools.c ****   while(!I2C_CheckEvent(MPU_I2Cx, I2C_EVENT_MASTER_TRANSMITTER_MODE_SELECTED));//清除EV6
 143:drivers/tools.c ****   I2C_SendData(MPU_I2Cx, ReadAddr);//发送要读取的地址
 144:drivers/tools.c ****   while(!I2C_CheckEvent(MPU_I2Cx, I2C_EVENT_MASTER_BYTE_TRANSMITTED));//清除EV8
 145:drivers/tools.c ****   I2C_GenerateSTART(MPU_I2Cx, ENABLE);//开启信号
 146:drivers/tools.c ****   while(!I2C_CheckEvent(MPU_I2Cx, I2C_EVENT_MASTER_MODE_SELECT));//清除EV5
 147:drivers/tools.c ****   I2C_Send7bitAddress(MPU_I2Cx, HardwareAddr, I2C_Direction_Receiver);//读数据
 148:drivers/tools.c ****   while(!I2C_CheckEvent(MPU_I2Cx, I2C_EVENT_MASTER_RECEIVER_MODE_SELECTED));//清除EV6
 149:drivers/tools.c ****   while(NumByteToRead){//接受数据
 150:drivers/tools.c ****     if (NumByteToRead == 1) {//最后一个数据时关闭应答
 151:drivers/tools.c ****       I2C_AcknowledgeConfig(MPU_I2Cx, DISABLE);
 152:drivers/tools.c ****       I2C_GenerateSTOP(MPU_I2Cx, ENABLE);
 153:drivers/tools.c ****     }
 154:drivers/tools.c ****     if (I2C_CheckEvent(MPU_I2Cx, I2C_EVENT_MASTER_BYTE_RECEIVED)) {
 155:drivers/tools.c ****       *pBuffer = I2C_ReceiveData(MPU_I2Cx);
 156:drivers/tools.c ****       pBuffer++;
 157:drivers/tools.c ****       NumByteToRead--;
 158:drivers/tools.c ****     }
 159:drivers/tools.c ****   }
 160:drivers/tools.c ****   return 0;
 161:drivers/tools.c **** 
 162:drivers/tools.c **** }
 163:drivers/tools.c **** // 读修改写 指定设备 指定寄存器一个字节 中的多个位
 164:drivers/tools.c **** void I2C_BitsWrite(uint8_t HardwareAddr, uint8_t WriteAddr, uint8_t BitStart, uint8_t Length, uint8
 165:drivers/tools.c **** {
 166:drivers/tools.c ****   uint8_t b;
 167:drivers/tools.c ****   b = I2C_ByteRead(HardwareAddr, WriteAddr);
 168:drivers/tools.c ****   printf("debug:%d\r\n",b);
 169:drivers/tools.c ****   u8 mask = (0xFF << (BitStart + 1)) | 0xFF >> ((8 - BitStart) + Length - 1);
 170:drivers/tools.c ****   Data <<= (8 - Length);
 171:drivers/tools.c ****   Data >>= (7 - BitStart);
 172:drivers/tools.c ****   b &= mask;
 173:drivers/tools.c ****   b |= Data;
 174:drivers/tools.c ****   printf("debug:%d\r\n",b);
 175:drivers/tools.c ****   I2C_ByteWrite(HardwareAddr, WriteAddr, b);
 176:drivers/tools.c **** 
ARM GAS  /tmp/ccuSM39H.s 			page 5


 177:drivers/tools.c **** }
 178:drivers/tools.c **** //读修改写 指定设备 指定寄存器一个字节 中的1个位
 179:drivers/tools.c **** void I2C_BitWrite(uint8_t HardwareAddr, uint8_t WriteAddr, uint8_t BitNum, uint8_t Data)
 180:drivers/tools.c **** {
 181:drivers/tools.c ****   uint8_t b;
 182:drivers/tools.c ****   b = I2C_ByteRead(HardwareAddr, WriteAddr);
 183:drivers/tools.c ****   b = (Data != 0) ? (b | (1 << BitNum)) : (b & ~(1 << BitNum));
 184:drivers/tools.c ****   I2C_ByteWrite(HardwareAddr, WriteAddr, b);
 185:drivers/tools.c **** }
 186:drivers/tools.c **** 
 187:drivers/tools.c **** //初始化延迟函数
 188:drivers/tools.c **** void DelayInit(u8 SYSCLK)
 189:drivers/tools.c **** {
 190:drivers/tools.c **** 	fac_us=SYSCLK/8;		//不论是否使用ucos,fac_us都需要使用
  53              		.loc 1 190 0
  54 001a 034B     		ldr	r3, .L3
  55 001c 0922     		movs	r2, #9
  56 001e 1A70     		strb	r2, [r3]
 191:drivers/tools.c **** 	fac_ms=(u16)fac_us*1000;//非ucos下,代表每个ms需要的systick时钟数   
  57              		.loc 1 191 0
  58 0020 42F22832 		movw	r2, #9000
  59 0024 5A80     		strh	r2, [r3, #2]	@ movhi
  60              	.LVL6:
  61 0026 08BD     		pop	{r3, pc}
  62              	.L4:
  63              		.align	2
  64              	.L3:
  65 0028 00000000 		.word	.LANCHOR0
  66              	.LBE5:
  67              	.LBE4:
  68              		.cfi_endproc
  69              	.LFE64:
  70              		.size	UserInit, .-UserInit
  71              		.align	1
  72              		.global	UsartPut
  73              		.syntax unified
  74              		.thumb
  75              		.thumb_func
  76              		.fpu softvfp
  77              		.type	UsartPut, %function
  78              	UsartPut:
  79              	.LFB68:
  61:drivers/tools.c **** 	USART_SendData(USART2, (uint8_t) ch);
  80              		.loc 1 61 0
  81              		.cfi_startproc
  82              		@ args = 0, pretend = 0, frame = 0
  83              		@ frame_needed = 0, uses_anonymous_args = 0
  84              	.LVL7:
  85 002c 70B5     		push	{r4, r5, r6, lr}
  86              		.cfi_def_cfa_offset 16
  87              		.cfi_offset 4, -16
  88              		.cfi_offset 5, -12
  89              		.cfi_offset 6, -8
  90              		.cfi_offset 14, -4
  91 002e 0646     		mov	r6, r0
  62:drivers/tools.c **** 	//Loop until the end of transmission
  92              		.loc 1 62 0
ARM GAS  /tmp/ccuSM39H.s 			page 6


  93 0030 0146     		mov	r1, r0
  94 0032 0648     		ldr	r0, .L9
  95              	.LVL8:
  96 0034 FFF7FEFF 		bl	USART_SendData
  97              	.LVL9:
  64:drivers/tools.c **** 	}
  98              		.loc 1 64 0
  99 0038 044D     		ldr	r5, .L9
 100 003a 4024     		movs	r4, #64
 101              	.L6:
  64:drivers/tools.c **** 	}
 102              		.loc 1 64 0 is_stmt 0 discriminator 1
 103 003c 2146     		mov	r1, r4
 104 003e 2846     		mov	r0, r5
 105 0040 FFF7FEFF 		bl	USART_GetFlagStatus
 106              	.LVL10:
 107 0044 0028     		cmp	r0, #0
 108 0046 F9D0     		beq	.L6
  67:drivers/tools.c **** 
 109              		.loc 1 67 0 is_stmt 1
 110 0048 3046     		mov	r0, r6
 111 004a 70BD     		pop	{r4, r5, r6, pc}
 112              	.L10:
 113              		.align	2
 114              	.L9:
 115 004c 00440040 		.word	1073759232
 116              		.cfi_endproc
 117              	.LFE68:
 118              		.size	UsartPut, .-UsartPut
 119              		.align	1
 120              		.global	_write
 121              		.syntax unified
 122              		.thumb
 123              		.thumb_func
 124              		.fpu softvfp
 125              		.type	_write, %function
 126              	_write:
 127              	.LFB67:
  51:drivers/tools.c ****   int n;
 128              		.loc 1 51 0
 129              		.cfi_startproc
 130              		@ args = 0, pretend = 0, frame = 0
 131              		@ frame_needed = 0, uses_anonymous_args = 0
 132              	.LVL11:
 133 0050 70B5     		push	{r4, r5, r6, lr}
 134              		.cfi_def_cfa_offset 16
 135              		.cfi_offset 4, -16
 136              		.cfi_offset 5, -12
 137              		.cfi_offset 6, -8
 138              		.cfi_offset 14, -4
 139              	.LVL12:
  53:drivers/tools.c ****      UsartPut(*ptr++);
 140              		.loc 1 53 0
 141 0052 161E     		subs	r6, r2, #0
 142 0054 07DD     		ble	.L12
 143 0056 0C46     		mov	r4, r1
 144 0058 8D19     		adds	r5, r1, r6
ARM GAS  /tmp/ccuSM39H.s 			page 7


 145              	.LVL13:
 146              	.L13:
  54:drivers/tools.c ****   }
 147              		.loc 1 54 0 discriminator 3
 148 005a 14F8010B 		ldrb	r0, [r4], #1	@ zero_extendqisi2
 149              	.LVL14:
 150 005e FFF7FEFF 		bl	UsartPut
 151              	.LVL15:
  53:drivers/tools.c ****      UsartPut(*ptr++);
 152              		.loc 1 53 0 discriminator 3
 153 0062 A542     		cmp	r5, r4
 154 0064 F9D1     		bne	.L13
 155              	.LVL16:
 156              	.L12:
  57:drivers/tools.c **** 
 157              		.loc 1 57 0
 158 0066 3046     		mov	r0, r6
 159 0068 70BD     		pop	{r4, r5, r6, pc}
 160              		.cfi_endproc
 161              	.LFE67:
 162              		.size	_write, .-_write
 163              		.align	1
 164              		.global	UsartGet
 165              		.syntax unified
 166              		.thumb
 167              		.thumb_func
 168              		.fpu softvfp
 169              		.type	UsartGet, %function
 170              	UsartGet:
 171              	.LFB69:
  71:drivers/tools.c **** 	while (USART_GetFlagStatus(USART2, USART_FLAG_RXNE) == RESET);
 172              		.loc 1 71 0
 173              		.cfi_startproc
 174              		@ args = 0, pretend = 0, frame = 0
 175              		@ frame_needed = 0, uses_anonymous_args = 0
 176 006a 38B5     		push	{r3, r4, r5, lr}
 177              		.cfi_def_cfa_offset 16
 178              		.cfi_offset 3, -16
 179              		.cfi_offset 4, -12
 180              		.cfi_offset 5, -8
 181              		.cfi_offset 14, -4
  72:drivers/tools.c **** 	return (uint8_t)USART_ReceiveData(USART2);
 182              		.loc 1 72 0
 183 006c 064D     		ldr	r5, .L20
 184 006e 2024     		movs	r4, #32
 185              	.L17:
  72:drivers/tools.c **** 	return (uint8_t)USART_ReceiveData(USART2);
 186              		.loc 1 72 0 is_stmt 0 discriminator 1
 187 0070 2146     		mov	r1, r4
 188 0072 2846     		mov	r0, r5
 189 0074 FFF7FEFF 		bl	USART_GetFlagStatus
 190              	.LVL17:
 191 0078 0028     		cmp	r0, #0
 192 007a F9D0     		beq	.L17
  73:drivers/tools.c **** }
 193              		.loc 1 73 0 is_stmt 1
 194 007c 0248     		ldr	r0, .L20
ARM GAS  /tmp/ccuSM39H.s 			page 8


 195 007e FFF7FEFF 		bl	USART_ReceiveData
 196              	.LVL18:
  74:drivers/tools.c **** 
 197              		.loc 1 74 0
 198 0082 C0B2     		uxtb	r0, r0
 199 0084 38BD     		pop	{r3, r4, r5, pc}
 200              	.L21:
 201 0086 00BF     		.align	2
 202              	.L20:
 203 0088 00440040 		.word	1073759232
 204              		.cfi_endproc
 205              	.LFE69:
 206              		.size	UsartGet, .-UsartGet
 207              		.align	1
 208              		.global	_read
 209              		.syntax unified
 210              		.thumb
 211              		.thumb_func
 212              		.fpu softvfp
 213              		.type	_read, %function
 214              	_read:
 215              	.LFB66:
  39:drivers/tools.c ****   int n;
 216              		.loc 1 39 0
 217              		.cfi_startproc
 218              		@ args = 0, pretend = 0, frame = 0
 219              		@ frame_needed = 0, uses_anonymous_args = 0
 220              	.LVL19:
 221 008c 70B5     		push	{r4, r5, r6, lr}
 222              		.cfi_def_cfa_offset 16
 223              		.cfi_offset 4, -16
 224              		.cfi_offset 5, -12
 225              		.cfi_offset 6, -8
 226              		.cfi_offset 14, -4
 227              	.LVL20:
  42:drivers/tools.c ****      char c = UsartGet();
 228              		.loc 1 42 0
 229 008e 161E     		subs	r6, r2, #0
 230 0090 09DD     		ble	.L25
 231 0092 0C46     		mov	r4, r1
 232 0094 8D19     		adds	r5, r1, r6
 233              	.LVL21:
 234              	.L24:
 235              	.LBB6:
  43:drivers/tools.c ****     *ptr++ = c;
 236              		.loc 1 43 0 discriminator 3
 237 0096 FFF7FEFF 		bl	UsartGet
 238              	.LVL22:
  44:drivers/tools.c ****     num++;
 239              		.loc 1 44 0 discriminator 3
 240 009a 04F8010B 		strb	r0, [r4], #1
 241              	.LVL23:
 242              	.LBE6:
  42:drivers/tools.c ****      char c = UsartGet();
 243              		.loc 1 42 0 discriminator 3
 244 009e A542     		cmp	r5, r4
 245 00a0 F9D1     		bne	.L24
ARM GAS  /tmp/ccuSM39H.s 			page 9


 246              	.LVL24:
 247              	.L23:
  48:drivers/tools.c **** 
 248              		.loc 1 48 0
 249 00a2 3046     		mov	r0, r6
 250 00a4 70BD     		pop	{r4, r5, r6, pc}
 251              	.LVL25:
 252              	.L25:
  42:drivers/tools.c ****      char c = UsartGet();
 253              		.loc 1 42 0
 254 00a6 0026     		movs	r6, #0
 255 00a8 FBE7     		b	.L23
 256              		.cfi_endproc
 257              	.LFE66:
 258              		.size	_read, .-_read
 259              		.align	1
 260              		.global	I2C_ByteWrite
 261              		.syntax unified
 262              		.thumb
 263              		.thumb_func
 264              		.fpu softvfp
 265              		.type	I2C_ByteWrite, %function
 266              	I2C_ByteWrite:
 267              	.LFB70:
  78:drivers/tools.c ****   I2C_GenerateSTART(MPU_I2Cx, ENABLE);
 268              		.loc 1 78 0
 269              		.cfi_startproc
 270              		@ args = 0, pretend = 0, frame = 0
 271              		@ frame_needed = 0, uses_anonymous_args = 0
 272              	.LVL26:
 273 00aa 2DE9F041 		push	{r4, r5, r6, r7, r8, lr}
 274              		.cfi_def_cfa_offset 24
 275              		.cfi_offset 4, -24
 276              		.cfi_offset 5, -20
 277              		.cfi_offset 6, -16
 278              		.cfi_offset 7, -12
 279              		.cfi_offset 8, -8
 280              		.cfi_offset 14, -4
 281 00ae 8046     		mov	r8, r0
 282 00b0 0F46     		mov	r7, r1
 283 00b2 1646     		mov	r6, r2
  79:drivers/tools.c ****   printf("debug:A\r\n");
 284              		.loc 1 79 0
 285 00b4 0121     		movs	r1, #1
 286              	.LVL27:
 287 00b6 1E48     		ldr	r0, .L38
 288              	.LVL28:
 289 00b8 FFF7FEFF 		bl	I2C_GenerateSTART
 290              	.LVL29:
  80:drivers/tools.c ****   while(!I2C_CheckEvent(MPU_I2Cx, I2C_EVENT_MASTER_MODE_SELECT));
 291              		.loc 1 80 0
 292 00bc 1D48     		ldr	r0, .L38+4
 293 00be FFF7FEFF 		bl	puts
 294              	.LVL30:
  81:drivers/tools.c ****   printf("debug:B\r\n");
 295              		.loc 1 81 0
 296 00c2 1D4D     		ldr	r5, .L38+8
ARM GAS  /tmp/ccuSM39H.s 			page 10


 297 00c4 1A4C     		ldr	r4, .L38
 298              	.L29:
  81:drivers/tools.c ****   printf("debug:B\r\n");
 299              		.loc 1 81 0 is_stmt 0 discriminator 1
 300 00c6 2946     		mov	r1, r5
 301 00c8 2046     		mov	r0, r4
 302 00ca FFF7FEFF 		bl	I2C_CheckEvent
 303              	.LVL31:
 304 00ce 0028     		cmp	r0, #0
 305 00d0 F9D0     		beq	.L29
  82:drivers/tools.c ****   I2C_Send7bitAddress(MPU_I2Cx, HardwareAddr,I2C_Direction_Transmitter);
 306              		.loc 1 82 0 is_stmt 1
 307 00d2 1A48     		ldr	r0, .L38+12
 308 00d4 FFF7FEFF 		bl	puts
 309              	.LVL32:
  83:drivers/tools.c ****   while(!I2C_CheckEvent(MPU_I2Cx, I2C_EVENT_MASTER_TRANSMITTER_MODE_SELECTED));
 310              		.loc 1 83 0
 311 00d8 0022     		movs	r2, #0
 312 00da 4146     		mov	r1, r8
 313 00dc 1448     		ldr	r0, .L38
 314 00de FFF7FEFF 		bl	I2C_Send7bitAddress
 315              	.LVL33:
  84:drivers/tools.c ****   I2C_SendData(MPU_I2Cx, WriteAddr);
 316              		.loc 1 84 0
 317 00e2 174D     		ldr	r5, .L38+16
 318 00e4 124C     		ldr	r4, .L38
 319              	.L30:
  84:drivers/tools.c ****   I2C_SendData(MPU_I2Cx, WriteAddr);
 320              		.loc 1 84 0 is_stmt 0 discriminator 1
 321 00e6 2946     		mov	r1, r5
 322 00e8 2046     		mov	r0, r4
 323 00ea FFF7FEFF 		bl	I2C_CheckEvent
 324              	.LVL34:
 325 00ee 0028     		cmp	r0, #0
 326 00f0 F9D0     		beq	.L30
  85:drivers/tools.c ****   while(!I2C_CheckEvent(MPU_I2Cx, I2C_EVENT_MASTER_BYTE_TRANSMITTED));
 327              		.loc 1 85 0 is_stmt 1
 328 00f2 3946     		mov	r1, r7
 329 00f4 0E48     		ldr	r0, .L38
 330 00f6 FFF7FEFF 		bl	I2C_SendData
 331              	.LVL35:
  86:drivers/tools.c ****   I2C_SendData(MPU_I2Cx, data);
 332              		.loc 1 86 0
 333 00fa 124D     		ldr	r5, .L38+20
 334 00fc 0C4C     		ldr	r4, .L38
 335              	.L31:
  86:drivers/tools.c ****   I2C_SendData(MPU_I2Cx, data);
 336              		.loc 1 86 0 is_stmt 0 discriminator 1
 337 00fe 2946     		mov	r1, r5
 338 0100 2046     		mov	r0, r4
 339 0102 FFF7FEFF 		bl	I2C_CheckEvent
 340              	.LVL36:
 341 0106 0028     		cmp	r0, #0
 342 0108 F9D0     		beq	.L31
  87:drivers/tools.c ****   while(!I2C_CheckEvent(MPU_I2Cx, I2C_EVENT_MASTER_BYTE_TRANSMITTED));
 343              		.loc 1 87 0 is_stmt 1
 344 010a 3146     		mov	r1, r6
ARM GAS  /tmp/ccuSM39H.s 			page 11


 345 010c 0848     		ldr	r0, .L38
 346 010e FFF7FEFF 		bl	I2C_SendData
 347              	.LVL37:
  88:drivers/tools.c ****   I2C_GenerateSTOP(MPU_I2Cx, ENABLE);
 348              		.loc 1 88 0
 349 0112 0C4D     		ldr	r5, .L38+20
 350 0114 064C     		ldr	r4, .L38
 351              	.L32:
  88:drivers/tools.c ****   I2C_GenerateSTOP(MPU_I2Cx, ENABLE);
 352              		.loc 1 88 0 is_stmt 0 discriminator 1
 353 0116 2946     		mov	r1, r5
 354 0118 2046     		mov	r0, r4
 355 011a FFF7FEFF 		bl	I2C_CheckEvent
 356              	.LVL38:
 357 011e 0028     		cmp	r0, #0
 358 0120 F9D0     		beq	.L32
  89:drivers/tools.c **** }
 359              		.loc 1 89 0 is_stmt 1
 360 0122 0121     		movs	r1, #1
 361 0124 0248     		ldr	r0, .L38
 362 0126 FFF7FEFF 		bl	I2C_GenerateSTOP
 363              	.LVL39:
 364 012a BDE8F081 		pop	{r4, r5, r6, r7, r8, pc}
 365              	.L39:
 366 012e 00BF     		.align	2
 367              	.L38:
 368 0130 00580040 		.word	1073764352
 369 0134 00000000 		.word	.LC0
 370 0138 01000300 		.word	196609
 371 013c 0C000000 		.word	.LC1
 372 0140 82000700 		.word	458882
 373 0144 84000700 		.word	458884
 374              		.cfi_endproc
 375              	.LFE70:
 376              		.size	I2C_ByteWrite, .-I2C_ByteWrite
 377              		.align	1
 378              		.global	I2C_Write
 379              		.syntax unified
 380              		.thumb
 381              		.thumb_func
 382              		.fpu softvfp
 383              		.type	I2C_Write, %function
 384              	I2C_Write:
 385              	.LFB71:
  94:drivers/tools.c ****   I2C_GenerateSTART(MPU_I2Cx, ENABLE);
 386              		.loc 1 94 0
 387              		.cfi_startproc
 388              		@ args = 0, pretend = 0, frame = 0
 389              		@ frame_needed = 0, uses_anonymous_args = 0
 390              	.LVL40:
 391 0148 2DE9F843 		push	{r3, r4, r5, r6, r7, r8, r9, lr}
 392              		.cfi_def_cfa_offset 32
 393              		.cfi_offset 3, -32
 394              		.cfi_offset 4, -28
 395              		.cfi_offset 5, -24
 396              		.cfi_offset 6, -20
 397              		.cfi_offset 7, -16
ARM GAS  /tmp/ccuSM39H.s 			page 12


 398              		.cfi_offset 8, -12
 399              		.cfi_offset 9, -8
 400              		.cfi_offset 14, -4
 401 014c 8146     		mov	r9, r0
 402 014e 8846     		mov	r8, r1
 403 0150 1646     		mov	r6, r2
 404 0152 1F46     		mov	r7, r3
  95:drivers/tools.c ****   while(!I2C_CheckEvent(MPU_I2Cx, I2C_EVENT_MASTER_MODE_SELECT));
 405              		.loc 1 95 0
 406 0154 0121     		movs	r1, #1
 407              	.LVL41:
 408 0156 1E48     		ldr	r0, .L53
 409              	.LVL42:
 410 0158 FFF7FEFF 		bl	I2C_GenerateSTART
 411              	.LVL43:
  96:drivers/tools.c ****   I2C_Send7bitAddress(MPU_I2Cx, HardwareAddr,I2C_Direction_Transmitter);
 412              		.loc 1 96 0
 413 015c 1D4D     		ldr	r5, .L53+4
 414 015e 1C4C     		ldr	r4, .L53
 415              	.L41:
  96:drivers/tools.c ****   I2C_Send7bitAddress(MPU_I2Cx, HardwareAddr,I2C_Direction_Transmitter);
 416              		.loc 1 96 0 is_stmt 0 discriminator 1
 417 0160 2946     		mov	r1, r5
 418 0162 2046     		mov	r0, r4
 419 0164 FFF7FEFF 		bl	I2C_CheckEvent
 420              	.LVL44:
 421 0168 0028     		cmp	r0, #0
 422 016a F9D0     		beq	.L41
  97:drivers/tools.c ****   while(!I2C_CheckEvent(MPU_I2Cx, I2C_EVENT_MASTER_TRANSMITTER_MODE_SELECTED));
 423              		.loc 1 97 0 is_stmt 1
 424 016c 0022     		movs	r2, #0
 425 016e 4946     		mov	r1, r9
 426 0170 1748     		ldr	r0, .L53
 427 0172 FFF7FEFF 		bl	I2C_Send7bitAddress
 428              	.LVL45:
  98:drivers/tools.c ****   I2C_SendData(MPU_I2Cx, WriteAddr);
 429              		.loc 1 98 0
 430 0176 184D     		ldr	r5, .L53+8
 431 0178 154C     		ldr	r4, .L53
 432              	.L42:
  98:drivers/tools.c ****   I2C_SendData(MPU_I2Cx, WriteAddr);
 433              		.loc 1 98 0 is_stmt 0 discriminator 1
 434 017a 2946     		mov	r1, r5
 435 017c 2046     		mov	r0, r4
 436 017e FFF7FEFF 		bl	I2C_CheckEvent
 437              	.LVL46:
 438 0182 0028     		cmp	r0, #0
 439 0184 F9D0     		beq	.L42
  99:drivers/tools.c ****   while(!I2C_CheckEvent(MPU_I2Cx, I2C_EVENT_MASTER_BYTE_TRANSMITTED));
 440              		.loc 1 99 0 is_stmt 1
 441 0186 4146     		mov	r1, r8
 442 0188 1148     		ldr	r0, .L53
 443 018a FFF7FEFF 		bl	I2C_SendData
 444              	.LVL47:
 100:drivers/tools.c ****   while(NumByteToWrite){
 445              		.loc 1 100 0
 446 018e 134D     		ldr	r5, .L53+12
ARM GAS  /tmp/ccuSM39H.s 			page 13


 447 0190 0F4C     		ldr	r4, .L53
 448              	.L43:
 100:drivers/tools.c ****   while(NumByteToWrite){
 449              		.loc 1 100 0 is_stmt 0 discriminator 1
 450 0192 2946     		mov	r1, r5
 451 0194 2046     		mov	r0, r4
 452 0196 FFF7FEFF 		bl	I2C_CheckEvent
 453              	.LVL48:
 454 019a 0028     		cmp	r0, #0
 455 019c F9D0     		beq	.L43
 102:drivers/tools.c ****       I2C_SendData(MPU_I2Cx, *pData);
 456              		.loc 1 102 0 is_stmt 1
 457 019e 0F4D     		ldr	r5, .L53+12
 458 01a0 0B4C     		ldr	r4, .L53
 459              	.LVL49:
 460              	.L44:
 101:drivers/tools.c ****     if(I2C_CheckEvent(MPU_I2Cx, I2C_EVENT_MASTER_BYTE_TRANSMITTED)){
 461              		.loc 1 101 0
 462 01a2 6EB1     		cbz	r6, .L52
 463              	.LVL50:
 464              	.L46:
 102:drivers/tools.c ****       I2C_SendData(MPU_I2Cx, *pData);
 465              		.loc 1 102 0
 466 01a4 2946     		mov	r1, r5
 467 01a6 2046     		mov	r0, r4
 468 01a8 FFF7FEFF 		bl	I2C_CheckEvent
 469              	.LVL51:
 470 01ac 0028     		cmp	r0, #0
 471 01ae F9D0     		beq	.L46
 103:drivers/tools.c ****       pData++;
 472              		.loc 1 103 0
 473 01b0 17F8011B 		ldrb	r1, [r7], #1	@ zero_extendqisi2
 474 01b4 2046     		mov	r0, r4
 475 01b6 FFF7FEFF 		bl	I2C_SendData
 476              	.LVL52:
 105:drivers/tools.c ****     }
 477              		.loc 1 105 0
 478 01ba 013E     		subs	r6, r6, #1
 479 01bc F6B2     		uxtb	r6, r6
 480              	.LVL53:
 481 01be F0E7     		b	.L44
 482              	.L52:
 108:drivers/tools.c ****   return 0;
 483              		.loc 1 108 0
 484 01c0 0121     		movs	r1, #1
 485 01c2 0348     		ldr	r0, .L53
 486 01c4 FFF7FEFF 		bl	I2C_GenerateSTOP
 487              	.LVL54:
 110:drivers/tools.c **** 
 488              		.loc 1 110 0
 489 01c8 0020     		movs	r0, #0
 490 01ca BDE8F883 		pop	{r3, r4, r5, r6, r7, r8, r9, pc}
 491              	.LVL55:
 492              	.L54:
 493 01ce 00BF     		.align	2
 494              	.L53:
 495 01d0 00580040 		.word	1073764352
ARM GAS  /tmp/ccuSM39H.s 			page 14


 496 01d4 01000300 		.word	196609
 497 01d8 82000700 		.word	458882
 498 01dc 84000700 		.word	458884
 499              		.cfi_endproc
 500              	.LFE71:
 501              		.size	I2C_Write, .-I2C_Write
 502              		.align	1
 503              		.global	I2C_ByteRead
 504              		.syntax unified
 505              		.thumb
 506              		.thumb_func
 507              		.fpu softvfp
 508              		.type	I2C_ByteRead, %function
 509              	I2C_ByteRead:
 510              	.LFB72:
 114:drivers/tools.c ****   uint8_t receive = 0;
 511              		.loc 1 114 0
 512              		.cfi_startproc
 513              		@ args = 0, pretend = 0, frame = 0
 514              		@ frame_needed = 0, uses_anonymous_args = 0
 515              	.LVL56:
 516 01e0 F8B5     		push	{r3, r4, r5, r6, r7, lr}
 517              		.cfi_def_cfa_offset 24
 518              		.cfi_offset 3, -24
 519              		.cfi_offset 4, -20
 520              		.cfi_offset 5, -16
 521              		.cfi_offset 6, -12
 522              		.cfi_offset 7, -8
 523              		.cfi_offset 14, -4
 524 01e2 0646     		mov	r6, r0
 525 01e4 0F46     		mov	r7, r1
 526              	.LVL57:
 116:drivers/tools.c ****   I2C_GenerateSTART(MPU_I2Cx, ENABLE);//产生开始信号
 527              		.loc 1 116 0
 528 01e6 2F4D     		ldr	r5, .L72
 529 01e8 4FF40034 		mov	r4, #131072
 530              	.LVL58:
 531              	.L56:
 116:drivers/tools.c ****   I2C_GenerateSTART(MPU_I2Cx, ENABLE);//产生开始信号
 532              		.loc 1 116 0 is_stmt 0 discriminator 1
 533 01ec 2146     		mov	r1, r4
 534 01ee 2846     		mov	r0, r5
 535 01f0 FFF7FEFF 		bl	I2C_GetFlagStatus
 536              	.LVL59:
 537 01f4 0028     		cmp	r0, #0
 538 01f6 F9D1     		bne	.L56
 117:drivers/tools.c ****   while(!I2C_CheckEvent(MPU_I2Cx, I2C_EVENT_MASTER_MODE_SELECT));//清除EV5
 539              		.loc 1 117 0 is_stmt 1
 540 01f8 0121     		movs	r1, #1
 541 01fa 2A48     		ldr	r0, .L72
 542 01fc FFF7FEFF 		bl	I2C_GenerateSTART
 543              	.LVL60:
 118:drivers/tools.c ****   I2C_Send7bitAddress(MPU_I2Cx, HardwareAddr, I2C_Direction_Transmitter);//写入器件
 544              		.loc 1 118 0
 545 0200 294D     		ldr	r5, .L72+4
 546 0202 284C     		ldr	r4, .L72
 547              	.L57:
ARM GAS  /tmp/ccuSM39H.s 			page 15


 118:drivers/tools.c ****   I2C_Send7bitAddress(MPU_I2Cx, HardwareAddr, I2C_Direction_Transmitter);//写入器件
 548              		.loc 1 118 0 is_stmt 0 discriminator 1
 549 0204 2946     		mov	r1, r5
 550 0206 2046     		mov	r0, r4
 551 0208 FFF7FEFF 		bl	I2C_CheckEvent
 552              	.LVL61:
 553 020c 0028     		cmp	r0, #0
 554 020e F9D0     		beq	.L57
 119:drivers/tools.c ****   while(!I2C_CheckEvent(MPU_I2Cx, I2C_EVENT_MASTER_TRANSMITTER_MODE_SELECTED));//清除EV6
 555              		.loc 1 119 0 is_stmt 1
 556 0210 0022     		movs	r2, #0
 557 0212 3146     		mov	r1, r6
 558 0214 2348     		ldr	r0, .L72
 559 0216 FFF7FEFF 		bl	I2C_Send7bitAddress
 560              	.LVL62:
 120:drivers/tools.c ****   I2C_SendData(MPU_I2Cx, ReadAddr);//发送要读取的地址
 561              		.loc 1 120 0
 562 021a 244D     		ldr	r5, .L72+8
 563 021c 214C     		ldr	r4, .L72
 564              	.L58:
 120:drivers/tools.c ****   I2C_SendData(MPU_I2Cx, ReadAddr);//发送要读取的地址
 565              		.loc 1 120 0 is_stmt 0 discriminator 1
 566 021e 2946     		mov	r1, r5
 567 0220 2046     		mov	r0, r4
 568 0222 FFF7FEFF 		bl	I2C_CheckEvent
 569              	.LVL63:
 570 0226 0028     		cmp	r0, #0
 571 0228 F9D0     		beq	.L58
 121:drivers/tools.c ****   while(!I2C_CheckEvent(MPU_I2Cx, I2C_EVENT_MASTER_BYTE_TRANSMITTED));//清除EV8
 572              		.loc 1 121 0 is_stmt 1
 573 022a 3946     		mov	r1, r7
 574 022c 1D48     		ldr	r0, .L72
 575 022e FFF7FEFF 		bl	I2C_SendData
 576              	.LVL64:
 122:drivers/tools.c ****   I2C_GenerateSTART(MPU_I2Cx, ENABLE);//开启信号
 577              		.loc 1 122 0
 578 0232 1F4D     		ldr	r5, .L72+12
 579 0234 1B4C     		ldr	r4, .L72
 580              	.L59:
 122:drivers/tools.c ****   I2C_GenerateSTART(MPU_I2Cx, ENABLE);//开启信号
 581              		.loc 1 122 0 is_stmt 0 discriminator 1
 582 0236 2946     		mov	r1, r5
 583 0238 2046     		mov	r0, r4
 584 023a FFF7FEFF 		bl	I2C_CheckEvent
 585              	.LVL65:
 586 023e 0028     		cmp	r0, #0
 587 0240 F9D0     		beq	.L59
 123:drivers/tools.c ****   while(!I2C_CheckEvent(MPU_I2Cx, I2C_EVENT_MASTER_MODE_SELECT));//清除EV5
 588              		.loc 1 123 0 is_stmt 1
 589 0242 0121     		movs	r1, #1
 590 0244 1748     		ldr	r0, .L72
 591 0246 FFF7FEFF 		bl	I2C_GenerateSTART
 592              	.LVL66:
 124:drivers/tools.c ****   I2C_Send7bitAddress(MPU_I2Cx, HardwareAddr, I2C_Direction_Receiver);//读数据
 593              		.loc 1 124 0
 594 024a 174D     		ldr	r5, .L72+4
 595 024c 154C     		ldr	r4, .L72
ARM GAS  /tmp/ccuSM39H.s 			page 16


 596              	.L60:
 124:drivers/tools.c ****   I2C_Send7bitAddress(MPU_I2Cx, HardwareAddr, I2C_Direction_Receiver);//读数据
 597              		.loc 1 124 0 is_stmt 0 discriminator 1
 598 024e 2946     		mov	r1, r5
 599 0250 2046     		mov	r0, r4
 600 0252 FFF7FEFF 		bl	I2C_CheckEvent
 601              	.LVL67:
 602 0256 0028     		cmp	r0, #0
 603 0258 F9D0     		beq	.L60
 125:drivers/tools.c ****   while(!I2C_CheckEvent(MPU_I2Cx, I2C_EVENT_MASTER_RECEIVER_MODE_SELECTED));//清除EV6
 604              		.loc 1 125 0 is_stmt 1
 605 025a 0122     		movs	r2, #1
 606 025c 3146     		mov	r1, r6
 607 025e 1148     		ldr	r0, .L72
 608 0260 FFF7FEFF 		bl	I2C_Send7bitAddress
 609              	.LVL68:
 126:drivers/tools.c ****   while(!I2C_CheckEvent(MPU_I2Cx, I2C_EVENT_MASTER_BYTE_RECEIVED));
 610              		.loc 1 126 0
 611 0264 134D     		ldr	r5, .L72+16
 612 0266 0F4C     		ldr	r4, .L72
 613              	.L61:
 126:drivers/tools.c ****   while(!I2C_CheckEvent(MPU_I2Cx, I2C_EVENT_MASTER_BYTE_RECEIVED));
 614              		.loc 1 126 0 is_stmt 0 discriminator 1
 615 0268 2946     		mov	r1, r5
 616 026a 2046     		mov	r0, r4
 617 026c FFF7FEFF 		bl	I2C_CheckEvent
 618              	.LVL69:
 619 0270 0028     		cmp	r0, #0
 620 0272 F9D0     		beq	.L61
 127:drivers/tools.c ****   receive = I2C_ReceiveData(MPU_I2Cx);
 621              		.loc 1 127 0 is_stmt 1 discriminator 1
 622 0274 104D     		ldr	r5, .L72+20
 623 0276 0B4C     		ldr	r4, .L72
 624              	.L63:
 625 0278 2946     		mov	r1, r5
 626 027a 2046     		mov	r0, r4
 627 027c FFF7FEFF 		bl	I2C_CheckEvent
 628              	.LVL70:
 629 0280 0028     		cmp	r0, #0
 630 0282 F9D0     		beq	.L63
 128:drivers/tools.c ****   I2C_AcknowledgeConfig(MPU_I2Cx, DISABLE);
 631              		.loc 1 128 0
 632 0284 074C     		ldr	r4, .L72
 633 0286 2046     		mov	r0, r4
 634 0288 FFF7FEFF 		bl	I2C_ReceiveData
 635              	.LVL71:
 636 028c 0546     		mov	r5, r0
 637              	.LVL72:
 129:drivers/tools.c ****   I2C_GenerateSTOP(MPU_I2Cx, ENABLE);
 638              		.loc 1 129 0
 639 028e 0021     		movs	r1, #0
 640 0290 2046     		mov	r0, r4
 641 0292 FFF7FEFF 		bl	I2C_AcknowledgeConfig
 642              	.LVL73:
 130:drivers/tools.c ****   return receive;
 643              		.loc 1 130 0
 644 0296 0121     		movs	r1, #1
ARM GAS  /tmp/ccuSM39H.s 			page 17


 645 0298 2046     		mov	r0, r4
 646 029a FFF7FEFF 		bl	I2C_GenerateSTOP
 647              	.LVL74:
 132:drivers/tools.c **** 
 648              		.loc 1 132 0
 649 029e 2846     		mov	r0, r5
 650 02a0 F8BD     		pop	{r3, r4, r5, r6, r7, pc}
 651              	.LVL75:
 652              	.L73:
 653 02a2 00BF     		.align	2
 654              	.L72:
 655 02a4 00580040 		.word	1073764352
 656 02a8 01000300 		.word	196609
 657 02ac 82000700 		.word	458882
 658 02b0 84000700 		.word	458884
 659 02b4 02000300 		.word	196610
 660 02b8 40000300 		.word	196672
 661              		.cfi_endproc
 662              	.LFE72:
 663              		.size	I2C_ByteRead, .-I2C_ByteRead
 664              		.align	1
 665              		.global	I2C_Read
 666              		.syntax unified
 667              		.thumb
 668              		.thumb_func
 669              		.fpu softvfp
 670              		.type	I2C_Read, %function
 671              	I2C_Read:
 672              	.LFB73:
 137:drivers/tools.c ****   while(I2C_GetFlagStatus(MPU_I2Cx, I2C_FLAG_BUSY));//检查I2C是否忙碌中
 673              		.loc 1 137 0
 674              		.cfi_startproc
 675              		@ args = 0, pretend = 0, frame = 0
 676              		@ frame_needed = 0, uses_anonymous_args = 0
 677              	.LVL76:
 678 02bc 2DE9F843 		push	{r3, r4, r5, r6, r7, r8, r9, lr}
 679              		.cfi_def_cfa_offset 32
 680              		.cfi_offset 3, -32
 681              		.cfi_offset 4, -28
 682              		.cfi_offset 5, -24
 683              		.cfi_offset 6, -20
 684              		.cfi_offset 7, -16
 685              		.cfi_offset 8, -12
 686              		.cfi_offset 9, -8
 687              		.cfi_offset 14, -4
 688 02c0 8046     		mov	r8, r0
 689 02c2 8946     		mov	r9, r1
 690 02c4 1446     		mov	r4, r2
 691 02c6 1F46     		mov	r7, r3
 138:drivers/tools.c ****   I2C_GenerateSTART(MPU_I2Cx, ENABLE);//产生开始信号
 692              		.loc 1 138 0
 693 02c8 364E     		ldr	r6, .L96
 694 02ca 4FF40035 		mov	r5, #131072
 695              	.LVL77:
 696              	.L75:
 138:drivers/tools.c ****   I2C_GenerateSTART(MPU_I2Cx, ENABLE);//产生开始信号
 697              		.loc 1 138 0 is_stmt 0 discriminator 1
ARM GAS  /tmp/ccuSM39H.s 			page 18


 698 02ce 2946     		mov	r1, r5
 699 02d0 3046     		mov	r0, r6
 700 02d2 FFF7FEFF 		bl	I2C_GetFlagStatus
 701              	.LVL78:
 702 02d6 0028     		cmp	r0, #0
 703 02d8 F9D1     		bne	.L75
 139:drivers/tools.c ****   while(!I2C_CheckEvent(MPU_I2Cx, I2C_EVENT_MASTER_MODE_SELECT));//清除EV5
 704              		.loc 1 139 0 is_stmt 1
 705 02da 0121     		movs	r1, #1
 706 02dc 3148     		ldr	r0, .L96
 707 02de FFF7FEFF 		bl	I2C_GenerateSTART
 708              	.LVL79:
 140:drivers/tools.c ****   I2C_Send7bitAddress(MPU_I2Cx, HardwareAddr, I2C_Direction_Transmitter);//写入器件
 709              		.loc 1 140 0
 710 02e2 314E     		ldr	r6, .L96+4
 711 02e4 2F4D     		ldr	r5, .L96
 712              	.L76:
 140:drivers/tools.c ****   I2C_Send7bitAddress(MPU_I2Cx, HardwareAddr, I2C_Direction_Transmitter);//写入器件
 713              		.loc 1 140 0 is_stmt 0 discriminator 1
 714 02e6 3146     		mov	r1, r6
 715 02e8 2846     		mov	r0, r5
 716 02ea FFF7FEFF 		bl	I2C_CheckEvent
 717              	.LVL80:
 718 02ee 0028     		cmp	r0, #0
 719 02f0 F9D0     		beq	.L76
 141:drivers/tools.c ****   while(!I2C_CheckEvent(MPU_I2Cx, I2C_EVENT_MASTER_TRANSMITTER_MODE_SELECTED));//清除EV6
 720              		.loc 1 141 0 is_stmt 1
 721 02f2 0022     		movs	r2, #0
 722 02f4 4146     		mov	r1, r8
 723 02f6 2B48     		ldr	r0, .L96
 724 02f8 FFF7FEFF 		bl	I2C_Send7bitAddress
 725              	.LVL81:
 142:drivers/tools.c ****   I2C_SendData(MPU_I2Cx, ReadAddr);//发送要读取的地址
 726              		.loc 1 142 0
 727 02fc 2B4E     		ldr	r6, .L96+8
 728 02fe 294D     		ldr	r5, .L96
 729              	.L77:
 142:drivers/tools.c ****   I2C_SendData(MPU_I2Cx, ReadAddr);//发送要读取的地址
 730              		.loc 1 142 0 is_stmt 0 discriminator 1
 731 0300 3146     		mov	r1, r6
 732 0302 2846     		mov	r0, r5
 733 0304 FFF7FEFF 		bl	I2C_CheckEvent
 734              	.LVL82:
 735 0308 0028     		cmp	r0, #0
 736 030a F9D0     		beq	.L77
 143:drivers/tools.c ****   while(!I2C_CheckEvent(MPU_I2Cx, I2C_EVENT_MASTER_BYTE_TRANSMITTED));//清除EV8
 737              		.loc 1 143 0 is_stmt 1
 738 030c 4946     		mov	r1, r9
 739 030e 2548     		ldr	r0, .L96
 740 0310 FFF7FEFF 		bl	I2C_SendData
 741              	.LVL83:
 144:drivers/tools.c ****   I2C_GenerateSTART(MPU_I2Cx, ENABLE);//开启信号
 742              		.loc 1 144 0
 743 0314 264E     		ldr	r6, .L96+12
 744 0316 234D     		ldr	r5, .L96
 745              	.L78:
 144:drivers/tools.c ****   I2C_GenerateSTART(MPU_I2Cx, ENABLE);//开启信号
ARM GAS  /tmp/ccuSM39H.s 			page 19


 746              		.loc 1 144 0 is_stmt 0 discriminator 1
 747 0318 3146     		mov	r1, r6
 748 031a 2846     		mov	r0, r5
 749 031c FFF7FEFF 		bl	I2C_CheckEvent
 750              	.LVL84:
 751 0320 0028     		cmp	r0, #0
 752 0322 F9D0     		beq	.L78
 145:drivers/tools.c ****   while(!I2C_CheckEvent(MPU_I2Cx, I2C_EVENT_MASTER_MODE_SELECT));//清除EV5
 753              		.loc 1 145 0 is_stmt 1
 754 0324 0121     		movs	r1, #1
 755 0326 1F48     		ldr	r0, .L96
 756 0328 FFF7FEFF 		bl	I2C_GenerateSTART
 757              	.LVL85:
 146:drivers/tools.c ****   I2C_Send7bitAddress(MPU_I2Cx, HardwareAddr, I2C_Direction_Receiver);//读数据
 758              		.loc 1 146 0
 759 032c 1E4E     		ldr	r6, .L96+4
 760 032e 1D4D     		ldr	r5, .L96
 761              	.L79:
 146:drivers/tools.c ****   I2C_Send7bitAddress(MPU_I2Cx, HardwareAddr, I2C_Direction_Receiver);//读数据
 762              		.loc 1 146 0 is_stmt 0 discriminator 1
 763 0330 3146     		mov	r1, r6
 764 0332 2846     		mov	r0, r5
 765 0334 FFF7FEFF 		bl	I2C_CheckEvent
 766              	.LVL86:
 767 0338 0028     		cmp	r0, #0
 768 033a F9D0     		beq	.L79
 147:drivers/tools.c ****   while(!I2C_CheckEvent(MPU_I2Cx, I2C_EVENT_MASTER_RECEIVER_MODE_SELECTED));//清除EV6
 769              		.loc 1 147 0 is_stmt 1
 770 033c 0122     		movs	r2, #1
 771 033e 4146     		mov	r1, r8
 772 0340 1848     		ldr	r0, .L96
 773 0342 FFF7FEFF 		bl	I2C_Send7bitAddress
 774              	.LVL87:
 148:drivers/tools.c ****   while(NumByteToRead){//接受数据
 775              		.loc 1 148 0
 776 0346 1B4E     		ldr	r6, .L96+16
 777 0348 164D     		ldr	r5, .L96
 778              	.L80:
 148:drivers/tools.c ****   while(NumByteToRead){//接受数据
 779              		.loc 1 148 0 is_stmt 0 discriminator 1
 780 034a 3146     		mov	r1, r6
 781 034c 2846     		mov	r0, r5
 782 034e FFF7FEFF 		bl	I2C_CheckEvent
 783              	.LVL88:
 784 0352 0028     		cmp	r0, #0
 785 0354 F9D0     		beq	.L80
 154:drivers/tools.c ****       *pBuffer = I2C_ReceiveData(MPU_I2Cx);
 786              		.loc 1 154 0 is_stmt 1
 787 0356 184E     		ldr	r6, .L96+20
 151:drivers/tools.c ****       I2C_GenerateSTOP(MPU_I2Cx, ENABLE);
 788              		.loc 1 151 0
 789 0358 124D     		ldr	r5, .L96
 790              	.LVL89:
 791              	.L81:
 149:drivers/tools.c ****     if (NumByteToRead == 1) {//最后一个数据时关闭应答
 792              		.loc 1 149 0
 793 035a 04B3     		cbz	r4, .L94
ARM GAS  /tmp/ccuSM39H.s 			page 20


 151:drivers/tools.c ****       I2C_GenerateSTOP(MPU_I2Cx, ENABLE);
 794              		.loc 1 151 0
 795 035c 4FF00008 		mov	r8, #0
 796              	.LVL90:
 797              	.L92:
 150:drivers/tools.c ****       I2C_AcknowledgeConfig(MPU_I2Cx, DISABLE);
 798              		.loc 1 150 0
 799 0360 012C     		cmp	r4, #1
 800 0362 0DD0     		beq	.L95
 154:drivers/tools.c ****       *pBuffer = I2C_ReceiveData(MPU_I2Cx);
 801              		.loc 1 154 0
 802 0364 3146     		mov	r1, r6
 803 0366 2846     		mov	r0, r5
 804 0368 FFF7FEFF 		bl	I2C_CheckEvent
 805              	.LVL91:
 806 036c 0028     		cmp	r0, #0
 807 036e F7D0     		beq	.L92
 808              	.L83:
 155:drivers/tools.c ****       pBuffer++;
 809              		.loc 1 155 0
 810 0370 2846     		mov	r0, r5
 811 0372 FFF7FEFF 		bl	I2C_ReceiveData
 812              	.LVL92:
 813 0376 07F8010B 		strb	r0, [r7], #1
 814              	.LVL93:
 157:drivers/tools.c ****     }
 815              		.loc 1 157 0
 816 037a 013C     		subs	r4, r4, #1
 817              	.LVL94:
 818 037c A4B2     		uxth	r4, r4
 819              	.LVL95:
 820 037e ECE7     		b	.L81
 821              	.LVL96:
 822              	.L95:
 151:drivers/tools.c ****       I2C_GenerateSTOP(MPU_I2Cx, ENABLE);
 823              		.loc 1 151 0
 824 0380 4146     		mov	r1, r8
 825 0382 2846     		mov	r0, r5
 826 0384 FFF7FEFF 		bl	I2C_AcknowledgeConfig
 827              	.LVL97:
 152:drivers/tools.c ****     }
 828              		.loc 1 152 0
 829 0388 0121     		movs	r1, #1
 830 038a 2846     		mov	r0, r5
 831 038c FFF7FEFF 		bl	I2C_GenerateSTOP
 832              	.LVL98:
 154:drivers/tools.c ****       *pBuffer = I2C_ReceiveData(MPU_I2Cx);
 833              		.loc 1 154 0
 834 0390 3146     		mov	r1, r6
 835 0392 2846     		mov	r0, r5
 836 0394 FFF7FEFF 		bl	I2C_CheckEvent
 837              	.LVL99:
 838 0398 0028     		cmp	r0, #0
 839 039a E1D0     		beq	.L92
 840 039c E8E7     		b	.L83
 841              	.LVL100:
 842              	.L94:
ARM GAS  /tmp/ccuSM39H.s 			page 21


 162:drivers/tools.c **** // 读修改写 指定设备 指定寄存器一个字节 中的多个位
 843              		.loc 1 162 0
 844 039e 0020     		movs	r0, #0
 845 03a0 BDE8F883 		pop	{r3, r4, r5, r6, r7, r8, r9, pc}
 846              	.LVL101:
 847              	.L97:
 848              		.align	2
 849              	.L96:
 850 03a4 00580040 		.word	1073764352
 851 03a8 01000300 		.word	196609
 852 03ac 82000700 		.word	458882
 853 03b0 84000700 		.word	458884
 854 03b4 02000300 		.word	196610
 855 03b8 40000300 		.word	196672
 856              		.cfi_endproc
 857              	.LFE73:
 858              		.size	I2C_Read, .-I2C_Read
 859              		.align	1
 860              		.global	I2C_BitsWrite
 861              		.syntax unified
 862              		.thumb
 863              		.thumb_func
 864              		.fpu softvfp
 865              		.type	I2C_BitsWrite, %function
 866              	I2C_BitsWrite:
 867              	.LFB74:
 165:drivers/tools.c ****   uint8_t b;
 868              		.loc 1 165 0
 869              		.cfi_startproc
 870              		@ args = 4, pretend = 0, frame = 0
 871              		@ frame_needed = 0, uses_anonymous_args = 0
 872              	.LVL102:
 873 03bc 2DE9F047 		push	{r4, r5, r6, r7, r8, r9, r10, lr}
 874              		.cfi_def_cfa_offset 32
 875              		.cfi_offset 4, -32
 876              		.cfi_offset 5, -28
 877              		.cfi_offset 6, -24
 878              		.cfi_offset 7, -20
 879              		.cfi_offset 8, -16
 880              		.cfi_offset 9, -12
 881              		.cfi_offset 10, -8
 882              		.cfi_offset 14, -4
 883 03c0 0646     		mov	r6, r0
 884 03c2 0F46     		mov	r7, r1
 885 03c4 9146     		mov	r9, r2
 886 03c6 9A46     		mov	r10, r3
 167:drivers/tools.c ****   printf("debug:%d\r\n",b);
 887              		.loc 1 167 0
 888 03c8 FFF7FEFF 		bl	I2C_ByteRead
 889              	.LVL103:
 890 03cc 8046     		mov	r8, r0
 891              	.LVL104:
 168:drivers/tools.c ****   u8 mask = (0xFF << (BitStart + 1)) | 0xFF >> ((8 - BitStart) + Length - 1);
 892              		.loc 1 168 0
 893 03ce 144D     		ldr	r5, .L100
 894 03d0 0146     		mov	r1, r0
 895 03d2 2846     		mov	r0, r5
ARM GAS  /tmp/ccuSM39H.s 			page 22


 896              	.LVL105:
 897 03d4 FFF7FEFF 		bl	printf
 898              	.LVL106:
 170:drivers/tools.c ****   Data >>= (7 - BitStart);
 899              		.loc 1 170 0
 900 03d8 CAF10803 		rsb	r3, r10, #8
 901 03dc 9DF82040 		ldrb	r4, [sp, #32]	@ zero_extendqisi2
 902 03e0 9C40     		lsls	r4, r4, r3
 171:drivers/tools.c ****   b &= mask;
 903              		.loc 1 171 0
 904 03e2 E4B2     		uxtb	r4, r4
 905 03e4 C9F10700 		rsb	r0, r9, #7
 906 03e8 0441     		asrs	r4, r4, r0
 907              	.LVL107:
 169:drivers/tools.c ****   Data <<= (8 - Length);
 908              		.loc 1 169 0
 909 03ea AAEB0900 		sub	r0, r10, r9
 910              	.LVL108:
 911 03ee 0730     		adds	r0, r0, #7
 912              	.LVL109:
 913 03f0 FF23     		movs	r3, #255
 914 03f2 43FA00F0 		asr	r0, r3, r0
 915              	.LVL110:
 916 03f6 09F10109 		add	r9, r9, #1
 917              	.LVL111:
 918 03fa 03FA09F9 		lsl	r9, r3, r9
 919              	.LVL112:
 920 03fe 40EA0900 		orr	r0, r0, r9
 172:drivers/tools.c ****   b |= Data;
 921              		.loc 1 172 0
 922 0402 08EA0000 		and	r0, r8, r0
 923              	.LVL113:
 173:drivers/tools.c ****   printf("debug:%d\r\n",b);
 924              		.loc 1 173 0
 925 0406 0443     		orrs	r4, r4, r0
 926              	.LVL114:
 927 0408 1C40     		ands	r4, r4, r3
 928              	.LVL115:
 174:drivers/tools.c ****   I2C_ByteWrite(HardwareAddr, WriteAddr, b);
 929              		.loc 1 174 0
 930 040a 2146     		mov	r1, r4
 931 040c 2846     		mov	r0, r5
 932 040e FFF7FEFF 		bl	printf
 933              	.LVL116:
 175:drivers/tools.c **** 
 934              		.loc 1 175 0
 935 0412 2246     		mov	r2, r4
 936 0414 3946     		mov	r1, r7
 937 0416 3046     		mov	r0, r6
 938 0418 FFF7FEFF 		bl	I2C_ByteWrite
 939              	.LVL117:
 940 041c BDE8F087 		pop	{r4, r5, r6, r7, r8, r9, r10, pc}
 941              	.LVL118:
 942              	.L101:
 943              		.align	2
 944              	.L100:
 945 0420 18000000 		.word	.LC2
ARM GAS  /tmp/ccuSM39H.s 			page 23


 946              		.cfi_endproc
 947              	.LFE74:
 948              		.size	I2C_BitsWrite, .-I2C_BitsWrite
 949              		.align	1
 950              		.global	I2C_BitWrite
 951              		.syntax unified
 952              		.thumb
 953              		.thumb_func
 954              		.fpu softvfp
 955              		.type	I2C_BitWrite, %function
 956              	I2C_BitWrite:
 957              	.LFB75:
 180:drivers/tools.c ****   uint8_t b;
 958              		.loc 1 180 0
 959              		.cfi_startproc
 960              		@ args = 0, pretend = 0, frame = 0
 961              		@ frame_needed = 0, uses_anonymous_args = 0
 962              	.LVL119:
 963 0424 F8B5     		push	{r3, r4, r5, r6, r7, lr}
 964              		.cfi_def_cfa_offset 24
 965              		.cfi_offset 3, -24
 966              		.cfi_offset 4, -20
 967              		.cfi_offset 5, -16
 968              		.cfi_offset 6, -12
 969              		.cfi_offset 7, -8
 970              		.cfi_offset 14, -4
 971 0426 0446     		mov	r4, r0
 972 0428 0D46     		mov	r5, r1
 973 042a 1646     		mov	r6, r2
 974 042c 1F46     		mov	r7, r3
 182:drivers/tools.c ****   b = (Data != 0) ? (b | (1 << BitNum)) : (b & ~(1 << BitNum));
 975              		.loc 1 182 0
 976 042e FFF7FEFF 		bl	I2C_ByteRead
 977              	.LVL120:
 183:drivers/tools.c ****   I2C_ByteWrite(HardwareAddr, WriteAddr, b);
 978              		.loc 1 183 0
 979 0432 4FB9     		cbnz	r7, .L106
 183:drivers/tools.c ****   I2C_ByteWrite(HardwareAddr, WriteAddr, b);
 980              		.loc 1 183 0 is_stmt 0 discriminator 2
 981 0434 0122     		movs	r2, #1
 982 0436 B240     		lsls	r2, r2, r6
 983 0438 20EA0202 		bic	r2, r0, r2
 984 043c D2B2     		uxtb	r2, r2
 985              	.L104:
 986              	.LVL121:
 184:drivers/tools.c **** }
 987              		.loc 1 184 0 is_stmt 1 discriminator 4
 988 043e 2946     		mov	r1, r5
 989 0440 2046     		mov	r0, r4
 990 0442 FFF7FEFF 		bl	I2C_ByteWrite
 991              	.LVL122:
 992 0446 F8BD     		pop	{r3, r4, r5, r6, r7, pc}
 993              	.LVL123:
 994              	.L106:
 183:drivers/tools.c ****   I2C_ByteWrite(HardwareAddr, WriteAddr, b);
 995              		.loc 1 183 0 discriminator 1
 996 0448 0122     		movs	r2, #1
ARM GAS  /tmp/ccuSM39H.s 			page 24


 997 044a B240     		lsls	r2, r2, r6
 998 044c 0243     		orrs	r2, r2, r0
 999 044e D2B2     		uxtb	r2, r2
 1000 0450 F5E7     		b	.L104
 1001              		.cfi_endproc
 1002              	.LFE75:
 1003              		.size	I2C_BitWrite, .-I2C_BitWrite
 1004              		.align	1
 1005              		.global	DelayInit
 1006              		.syntax unified
 1007              		.thumb
 1008              		.thumb_func
 1009              		.fpu softvfp
 1010              		.type	DelayInit, %function
 1011              	DelayInit:
 1012              	.LFB76:
 189:drivers/tools.c **** 	fac_us=SYSCLK/8;		//不论是否使用ucos,fac_us都需要使用
 1013              		.loc 1 189 0
 1014              		.cfi_startproc
 1015              		@ args = 0, pretend = 0, frame = 0
 1016              		@ frame_needed = 0, uses_anonymous_args = 0
 1017              		@ link register save eliminated.
 1018              	.LVL124:
 190:drivers/tools.c **** 	fac_ms=(u16)fac_us*1000;//非ucos下,代表每个ms需要的systick时钟数   
 1019              		.loc 1 190 0
 1020 0452 C008     		lsrs	r0, r0, #3
 1021              	.LVL125:
 1022 0454 044B     		ldr	r3, .L108
 1023 0456 1870     		strb	r0, [r3]
 1024              		.loc 1 191 0
 1025 0458 C0EB4012 		rsb	r2, r0, r0, lsl #5
 1026 045c 00EB8200 		add	r0, r0, r2, lsl #2
 1027 0460 C000     		lsls	r0, r0, #3
 1028 0462 5880     		strh	r0, [r3, #2]	@ movhi
 1029 0464 7047     		bx	lr
 1030              	.L109:
 1031 0466 00BF     		.align	2
 1032              	.L108:
 1033 0468 00000000 		.word	.LANCHOR0
 1034              		.cfi_endproc
 1035              	.LFE76:
 1036              		.size	DelayInit, .-DelayInit
 1037              		.align	1
 1038              		.global	DelayUs
 1039              		.syntax unified
 1040              		.thumb
 1041              		.thumb_func
 1042              		.fpu softvfp
 1043              		.type	DelayUs, %function
 1044              	DelayUs:
 1045              	.LFB77:
 192:drivers/tools.c **** }								  
 193:drivers/tools.c **** 
 194:drivers/tools.c **** //延时nus
 195:drivers/tools.c **** //nus为要延时的us数.		  								   
 196:drivers/tools.c **** void DelayUs(u32 nus)
 197:drivers/tools.c **** {		
ARM GAS  /tmp/ccuSM39H.s 			page 25


 1046              		.loc 1 197 0
 1047              		.cfi_startproc
 1048              		@ args = 0, pretend = 0, frame = 0
 1049              		@ frame_needed = 0, uses_anonymous_args = 0
 1050              		@ link register save eliminated.
 1051              	.LVL126:
 198:drivers/tools.c **** 	u32 temp;	  	 
 199:drivers/tools.c **** 	SysTick->LOAD=nus*fac_us; //时间加载	  		 
 1052              		.loc 1 199 0
 1053 046c 0A4B     		ldr	r3, .L113
 1054 046e 1B78     		ldrb	r3, [r3]	@ zero_extendqisi2
 1055 0470 00FB03F0 		mul	r0, r0, r3
 1056              	.LVL127:
 1057 0474 094B     		ldr	r3, .L113+4
 1058 0476 5860     		str	r0, [r3, #4]
 200:drivers/tools.c **** 	SysTick->VAL=0x00;    //清空计数器
 1059              		.loc 1 200 0
 1060 0478 0022     		movs	r2, #0
 1061 047a 9A60     		str	r2, [r3, #8]
 201:drivers/tools.c **** 	SysTick->CTRL=0x01 ;    //开始倒数 	 
 1062              		.loc 1 201 0
 1063 047c 0122     		movs	r2, #1
 1064 047e 1A60     		str	r2, [r3]
 202:drivers/tools.c **** 	do {
 203:drivers/tools.c **** 		temp=SysTick->CTRL;
 1065              		.loc 1 203 0
 1066 0480 1A46     		mov	r2, r3
 1067              	.L111:
 1068              		.loc 1 203 0 is_stmt 0 discriminator 1
 1069 0482 1368     		ldr	r3, [r2]
 1070              	.LVL128:
 204:drivers/tools.c **** 	}
 205:drivers/tools.c **** 	while((temp&0x01)&&!(temp&(1<<16)));//等待时间到达   
 1071              		.loc 1 205 0 is_stmt 1 discriminator 1
 1072 0484 03F00113 		and	r3, r3, #65537
 1073              	.LVL129:
 1074 0488 012B     		cmp	r3, #1
 1075 048a FAD0     		beq	.L111
 206:drivers/tools.c **** 	SysTick->CTRL=0x00;     //关闭计数器
 1076              		.loc 1 206 0
 1077 048c 034B     		ldr	r3, .L113+4
 1078 048e 0022     		movs	r2, #0
 1079 0490 1A60     		str	r2, [r3]
 207:drivers/tools.c **** 	SysTick->VAL =0X00;     //清空计数器	 
 1080              		.loc 1 207 0
 1081 0492 9A60     		str	r2, [r3, #8]
 1082 0494 7047     		bx	lr
 1083              	.L114:
 1084 0496 00BF     		.align	2
 1085              	.L113:
 1086 0498 00000000 		.word	.LANCHOR0
 1087 049c 10E000E0 		.word	-536813552
 1088              		.cfi_endproc
 1089              	.LFE77:
 1090              		.size	DelayUs, .-DelayUs
 1091              		.global	__aeabi_i2d
 1092              		.global	__aeabi_ddiv
ARM GAS  /tmp/ccuSM39H.s 			page 26


 1093              		.global	__aeabi_d2iz
 1094              		.align	1
 1095              		.global	HCSR04_Get
 1096              		.syntax unified
 1097              		.thumb
 1098              		.thumb_func
 1099              		.fpu softvfp
 1100              		.type	HCSR04_Get, %function
 1101              	HCSR04_Get:
 1102              	.LFB65:
  19:drivers/tools.c ****   int length;
 1103              		.loc 1 19 0
 1104              		.cfi_startproc
 1105              		@ args = 0, pretend = 0, frame = 0
 1106              		@ frame_needed = 0, uses_anonymous_args = 0
 1107 04a0 70B5     		push	{r4, r5, r6, lr}
 1108              		.cfi_def_cfa_offset 16
 1109              		.cfi_offset 4, -16
 1110              		.cfi_offset 5, -12
 1111              		.cfi_offset 6, -8
 1112              		.cfi_offset 14, -4
  22:drivers/tools.c ****   DelayUs(20);
 1113              		.loc 1 22 0
 1114 04a2 274C     		ldr	r4, .L123+8
 1115 04a4 0122     		movs	r2, #1
 1116 04a6 0221     		movs	r1, #2
 1117 04a8 2046     		mov	r0, r4
 1118 04aa FFF7FEFF 		bl	GPIO_WriteBit
 1119              	.LVL130:
  23:drivers/tools.c ****   GPIO_WriteBit(GPIOA,GPIO_Pin_1,0);
 1120              		.loc 1 23 0
 1121 04ae 1420     		movs	r0, #20
 1122 04b0 FFF7FEFF 		bl	DelayUs
 1123              	.LVL131:
  24:drivers/tools.c ****   //计数器清0
 1124              		.loc 1 24 0
 1125 04b4 0022     		movs	r2, #0
 1126 04b6 0221     		movs	r1, #2
 1127 04b8 2046     		mov	r0, r4
 1128 04ba FFF7FEFF 		bl	GPIO_WriteBit
 1129              	.LVL132:
  26:drivers/tools.c ****   TIM_Cmd(TIM2, ENABLE);// TIM2 enable counter [允许tim2计数]
 1130              		.loc 1 26 0
 1131 04be 4FF08040 		mov	r0, #1073741824
 1132 04c2 0023     		movs	r3, #0
 1133 04c4 8384     		strh	r3, [r0, #36]	@ movhi
  27:drivers/tools.c ****   while(!GPIO_ReadInputDataBit(GPIOA, GPIO_Pin_0) && TIM2->CNT<1000);
 1134              		.loc 1 27 0
 1135 04c6 0121     		movs	r1, #1
 1136 04c8 FFF7FEFF 		bl	TIM_Cmd
 1137              	.LVL133:
  28:drivers/tools.c ****   TIM2->CNT = 0;
 1138              		.loc 1 28 0
 1139 04cc 2546     		mov	r5, r4
 1140 04ce 0124     		movs	r4, #1
 1141 04d0 4FF08046 		mov	r6, #1073741824
 1142              	.L117:
ARM GAS  /tmp/ccuSM39H.s 			page 27


  28:drivers/tools.c ****   TIM2->CNT = 0;
 1143              		.loc 1 28 0 is_stmt 0 discriminator 2
 1144 04d4 2146     		mov	r1, r4
 1145 04d6 2846     		mov	r0, r5
 1146 04d8 FFF7FEFF 		bl	GPIO_ReadInputDataBit
 1147              	.LVL134:
 1148 04dc 20B9     		cbnz	r0, .L116
  28:drivers/tools.c ****   TIM2->CNT = 0;
 1149              		.loc 1 28 0 discriminator 1
 1150 04de B38C     		ldrh	r3, [r6, #36]
 1151 04e0 9BB2     		uxth	r3, r3
 1152 04e2 B3F57A7F 		cmp	r3, #1000
 1153 04e6 F5D3     		bcc	.L117
 1154              	.L116:
  29:drivers/tools.c ****   while(GPIO_ReadInputDataBit(GPIOA, GPIO_Pin_0) && TIM2->CNT<60000);
 1155              		.loc 1 29 0 is_stmt 1
 1156 04e8 0022     		movs	r2, #0
 1157 04ea 4FF08043 		mov	r3, #1073741824
 1158 04ee 9A84     		strh	r2, [r3, #36]	@ movhi
  30:drivers/tools.c ****   TIM_Cmd(TIM2, DISABLE);
 1159              		.loc 1 30 0
 1160 04f0 134D     		ldr	r5, .L123+8
 1161 04f2 0124     		movs	r4, #1
 1162 04f4 1E46     		mov	r6, r3
 1163              	.L119:
  30:drivers/tools.c ****   TIM_Cmd(TIM2, DISABLE);
 1164              		.loc 1 30 0 is_stmt 0 discriminator 2
 1165 04f6 2146     		mov	r1, r4
 1166 04f8 2846     		mov	r0, r5
 1167 04fa FFF7FEFF 		bl	GPIO_ReadInputDataBit
 1168              	.LVL135:
 1169 04fe 28B1     		cbz	r0, .L118
  30:drivers/tools.c ****   TIM_Cmd(TIM2, DISABLE);
 1170              		.loc 1 30 0 discriminator 1
 1171 0500 B38C     		ldrh	r3, [r6, #36]
 1172 0502 9BB2     		uxth	r3, r3
 1173 0504 4EF65F22 		movw	r2, #59999
 1174 0508 9342     		cmp	r3, r2
 1175 050a F4D9     		bls	.L119
 1176              	.L118:
  31:drivers/tools.c **** 
 1177              		.loc 1 31 0 is_stmt 1
 1178 050c 0021     		movs	r1, #0
 1179 050e 4FF08040 		mov	r0, #1073741824
 1180 0512 FFF7FEFF 		bl	TIM_Cmd
 1181              	.LVL136:
  33:drivers/tools.c ****   return length;
 1182              		.loc 1 33 0
 1183 0516 4FF08043 		mov	r3, #1073741824
 1184 051a 988C     		ldrh	r0, [r3, #36]
 1185              	.LVL137:
 1186 051c 80B2     		uxth	r0, r0
 1187 051e FFF7FEFF 		bl	__aeabi_i2d
 1188              	.LVL138:
 1189 0522 05A3     		adr	r3, .L123
 1190 0524 D3E90023 		ldrd	r2, [r3]
 1191 0528 FFF7FEFF 		bl	__aeabi_ddiv
ARM GAS  /tmp/ccuSM39H.s 			page 28


 1192              	.LVL139:
 1193 052c FFF7FEFF 		bl	__aeabi_d2iz
 1194              	.LVL140:
  35:drivers/tools.c **** 
 1195              		.loc 1 35 0
 1196 0530 70BD     		pop	{r4, r5, r6, pc}
 1197              	.L124:
 1198 0532 00BFAFF3 		.align	3
 1198      0080
 1199              	.L123:
 1200 0538 66666666 		.word	1717986918
 1201 053c 66664D40 		.word	1078814310
 1202 0540 00080140 		.word	1073809408
 1203              		.cfi_endproc
 1204              	.LFE65:
 1205              		.size	HCSR04_Get, .-HCSR04_Get
 1206              		.align	1
 1207              		.global	DelayMs
 1208              		.syntax unified
 1209              		.thumb
 1210              		.thumb_func
 1211              		.fpu softvfp
 1212              		.type	DelayMs, %function
 1213              	DelayMs:
 1214              	.LFB78:
 208:drivers/tools.c **** }
 209:drivers/tools.c **** 
 210:drivers/tools.c **** //延时nms
 211:drivers/tools.c **** void DelayMs(u16 nms)
 212:drivers/tools.c **** {	 		  	  
 1215              		.loc 1 212 0
 1216              		.cfi_startproc
 1217              		@ args = 0, pretend = 0, frame = 0
 1218              		@ frame_needed = 0, uses_anonymous_args = 0
 1219              		@ link register save eliminated.
 1220              	.LVL141:
 213:drivers/tools.c **** 	u32 temp;		   
 214:drivers/tools.c **** 	SysTick->LOAD=(u32)nms*fac_ms;//时间加载(SysTick->LOAD为24bit)
 1221              		.loc 1 214 0
 1222 0544 044B     		ldr	r3, .L126
 1223 0546 5B88     		ldrh	r3, [r3, #2]
 1224 0548 00FB03F0 		mul	r0, r0, r3
 1225              	.LVL142:
 1226 054c 034B     		ldr	r3, .L126+4
 1227 054e 5860     		str	r0, [r3, #4]
 215:drivers/tools.c **** 	SysTick->VAL =0x00;       //清空计数器
 1228              		.loc 1 215 0
 1229 0550 0022     		movs	r2, #0
 1230 0552 9A60     		str	r2, [r3, #8]
 1231 0554 7047     		bx	lr
 1232              	.L127:
 1233 0556 00BF     		.align	2
 1234              	.L126:
 1235 0558 00000000 		.word	.LANCHOR0
 1236 055c 10E000E0 		.word	-536813552
 1237              		.cfi_endproc
 1238              	.LFE78:
ARM GAS  /tmp/ccuSM39H.s 			page 29


 1239              		.size	DelayMs, .-DelayMs
 1240              		.bss
 1241              		.align	1
 1242              		.set	.LANCHOR0,. + 0
 1243              		.type	fac_us, %object
 1244              		.size	fac_us, 1
 1245              	fac_us:
 1246 0000 00       		.space	1
 1247 0001 00       		.space	1
 1248              		.type	fac_ms, %object
 1249              		.size	fac_ms, 2
 1250              	fac_ms:
 1251 0002 0000     		.space	2
 1252              		.section	.rodata.str1.4,"aMS",%progbits,1
 1253              		.align	2
 1254              	.LC0:
 1255 0000 64656275 		.ascii	"debug:A\015\000"
 1255      673A410D 
 1255      00
 1256 0009 000000   		.space	3
 1257              	.LC1:
 1258 000c 64656275 		.ascii	"debug:B\015\000"
 1258      673A420D 
 1258      00
 1259 0015 000000   		.space	3
 1260              	.LC2:
 1261 0018 64656275 		.ascii	"debug:%d\015\012\000"
 1261      673A2564 
 1261      0D0A00
 1262              		.text
 1263              	.Letext0:
 1264              		.file 2 "/usr/arm-none-eabi/include/machine/_default_types.h"
 1265              		.file 3 "/usr/arm-none-eabi/include/sys/_stdint.h"
 1266              		.file 4 "/home/enbin/Documents/code/STM/stm32-quadrocopter/cmsis/core_cm3.h"
 1267              		.file 5 "/home/enbin/Documents/code/STM/stm32-quadrocopter/lib/inc/system_stm32f10x.h"
 1268              		.file 6 "/home/enbin/Documents/code/STM/stm32-quadrocopter/lib/inc/stm32f10x.h"
 1269              		.file 7 "/home/enbin/Documents/code/STM/stm32-quadrocopter/drivers/MPU6050.h"
 1270              		.file 8 "/usr/arm-none-eabi/include/sys/lock.h"
 1271              		.file 9 "/usr/arm-none-eabi/include/sys/_types.h"
 1272              		.file 10 "/usr/lib/gcc/arm-none-eabi/6.1.1/include/stddef.h"
 1273              		.file 11 "/usr/arm-none-eabi/include/sys/reent.h"
 1274              		.file 12 "/usr/arm-none-eabi/include/stdlib.h"
 1275              		.file 13 "/usr/arm-none-eabi/include/math.h"
 1276              		.file 14 "/usr/arm-none-eabi/include/sys/errno.h"
 1277              		.file 15 "/usr/arm-none-eabi/include/stdio.h"
 1278              		.file 16 "/home/enbin/Documents/code/STM/stm32-quadrocopter/lib/inc/stm32f10x_i2c.h"
 1279              		.file 17 "/home/enbin/Documents/code/STM/stm32-quadrocopter/lib/inc/stm32f10x_usart.h"
 1280              		.file 18 "/home/enbin/Documents/code/STM/stm32-quadrocopter/lib/inc/stm32f10x_gpio.h"
 1281              		.file 19 "/home/enbin/Documents/code/STM/stm32-quadrocopter/lib/inc/stm32f10x_tim.h"
 1282              		.file 20 "/home/enbin/Documents/code/STM/stm32-quadrocopter/project/conf.h"
 1283              		.file 21 "<built-in>"