ARM GAS  /tmp/ccOiGado.s 			page 1


   1              		.cpu cortex-m3
   2              		.eabi_attribute 20, 1
   3              		.eabi_attribute 21, 1
   4              		.eabi_attribute 23, 3
   5              		.eabi_attribute 24, 1
   6              		.eabi_attribute 25, 1
   7              		.eabi_attribute 26, 1
   8              		.eabi_attribute 30, 1
   9              		.eabi_attribute 34, 1
  10              		.eabi_attribute 18, 4
  11              		.file	"tools.c"
  12              		.text
  13              	.Ltext0:
  14              		.cfi_sections	.debug_frame
  15              		.align	1
  16              		.global	UserInit
  17              		.syntax unified
  18              		.thumb
  19              		.thumb_func
  20              		.fpu softvfp
  21              		.type	UserInit, %function
  22              	UserInit:
  23              	.LFB64:
  24              		.file 1 "drivers/tools.c"
   1:drivers/tools.c **** #include "tools.h"
   2:drivers/tools.c **** 
   3:drivers/tools.c **** static u8  fac_us=0;//us延时倍乘数			   
   4:drivers/tools.c **** static u16 fac_ms=0;//ms延时倍乘数
   5:drivers/tools.c **** 
   6:drivers/tools.c **** void UserInit(void)
   7:drivers/tools.c **** {
  25              		.loc 1 7 0
  26              		.cfi_startproc
  27              		@ args = 0, pretend = 0, frame = 0
  28              		@ frame_needed = 0, uses_anonymous_args = 0
  29 0000 08B5     		push	{r3, lr}
  30              		.cfi_def_cfa_offset 8
  31              		.cfi_offset 3, -8
  32              		.cfi_offset 14, -4
   8:drivers/tools.c ****   RCC_Conf();
  33              		.loc 1 8 0
  34 0002 FFF7FEFF 		bl	RCC_Conf
  35              	.LVL0:
   9:drivers/tools.c ****   NVIC_Conf();
  36              		.loc 1 9 0
  37 0006 FFF7FEFF 		bl	NVIC_Conf
  38              	.LVL1:
  10:drivers/tools.c ****   GPIO_Conf();
  39              		.loc 1 10 0
  40 000a FFF7FEFF 		bl	GPIO_Conf
  41              	.LVL2:
  11:drivers/tools.c ****   USART_Conf();  
  42              		.loc 1 11 0
  43 000e FFF7FEFF 		bl	USART_Conf
  44              	.LVL3:
  12:drivers/tools.c ****   TIMER_Conf();
  45              		.loc 1 12 0
ARM GAS  /tmp/ccOiGado.s 			page 2


  46 0012 FFF7FEFF 		bl	TIMER_Conf
  47              	.LVL4:
  48              	.LBB4:
  49              	.LBB5:
  13:drivers/tools.c ****   DelayInit(72);
  14:drivers/tools.c **** 
  15:drivers/tools.c ****   MPU6050_I2C_Init();
  16:drivers/tools.c ****   MPU6050_Initialize();
  17:drivers/tools.c **** }
  18:drivers/tools.c **** 
  19:drivers/tools.c **** int HCSR04_Get(void)
  20:drivers/tools.c **** {
  21:drivers/tools.c ****   int length;
  22:drivers/tools.c ****   
  23:drivers/tools.c ****   GPIO_WriteBit(GPIOA,GPIO_Pin_1,1);
  24:drivers/tools.c ****   DelayUs(20);
  25:drivers/tools.c ****   GPIO_WriteBit(GPIOA,GPIO_Pin_1,0);
  26:drivers/tools.c ****   //计数器清0
  27:drivers/tools.c ****   TIM2->CNT = 0;
  28:drivers/tools.c ****   TIM_Cmd(TIM2, ENABLE);// TIM2 enable counter [允许tim2计数]
  29:drivers/tools.c ****   while(!GPIO_ReadInputDataBit(GPIOA, GPIO_Pin_0) && TIM2->CNT<1000);
  30:drivers/tools.c ****   TIM2->CNT = 0;
  31:drivers/tools.c ****   while(GPIO_ReadInputDataBit(GPIOA, GPIO_Pin_0) && TIM2->CNT<60000);
  32:drivers/tools.c ****   TIM_Cmd(TIM2, DISABLE);
  33:drivers/tools.c **** 
  34:drivers/tools.c ****   length = TIM2->CNT/58.8;
  35:drivers/tools.c ****   return length;
  36:drivers/tools.c **** }
  37:drivers/tools.c **** 
  38:drivers/tools.c **** 
  39:drivers/tools.c **** int _read(int file, char *ptr, int len) 
  40:drivers/tools.c **** {
  41:drivers/tools.c ****   int n;
  42:drivers/tools.c ****   int num = 0;
  43:drivers/tools.c ****   for (n = 0; n < len; n++) {
  44:drivers/tools.c ****      char c = UsartGet();
  45:drivers/tools.c ****     *ptr++ = c;
  46:drivers/tools.c ****     num++;
  47:drivers/tools.c ****   }
  48:drivers/tools.c ****   return num;
  49:drivers/tools.c **** }
  50:drivers/tools.c **** 
  51:drivers/tools.c **** int _write(int file, char *ptr, int len) 
  52:drivers/tools.c **** {
  53:drivers/tools.c ****   int n;
  54:drivers/tools.c ****   for (n = 0; n < len; n++) {
  55:drivers/tools.c ****      UsartPut(*ptr++);
  56:drivers/tools.c ****   }
  57:drivers/tools.c ****   return len;
  58:drivers/tools.c **** }
  59:drivers/tools.c **** 
  60:drivers/tools.c **** // 向串口发送一个字节的数据，配合printf使用
  61:drivers/tools.c **** uint8_t UsartPut(uint8_t ch)
  62:drivers/tools.c **** {
  63:drivers/tools.c **** 	USART_SendData(USART2, (uint8_t) ch);
  64:drivers/tools.c **** 	//Loop until the end of transmission
  65:drivers/tools.c **** 	while(USART_GetFlagStatus(USART2, USART_FLAG_TC) == RESET) {
ARM GAS  /tmp/ccOiGado.s 			page 3


  66:drivers/tools.c **** 	}
  67:drivers/tools.c ****   return ch;
  68:drivers/tools.c **** }
  69:drivers/tools.c **** 
  70:drivers/tools.c **** // 从串口接受数据
  71:drivers/tools.c **** uint8_t UsartGet(void)
  72:drivers/tools.c **** {
  73:drivers/tools.c **** 	while (USART_GetFlagStatus(USART2, USART_FLAG_RXNE) == RESET);
  74:drivers/tools.c **** 	return (uint8_t)USART_ReceiveData(USART2);
  75:drivers/tools.c **** }
  76:drivers/tools.c **** 
  77:drivers/tools.c **** //初始化延迟函数
  78:drivers/tools.c **** void DelayInit(u8 SYSCLK)
  79:drivers/tools.c **** {
  80:drivers/tools.c **** 	fac_us=SYSCLK/8;		//不论是否使用ucos,fac_us都需要使用
  50              		.loc 1 80 0
  51 0016 054B     		ldr	r3, .L3
  52 0018 0922     		movs	r2, #9
  53 001a 1A70     		strb	r2, [r3]
  81:drivers/tools.c **** 	fac_ms=(u16)fac_us*1000;//非ucos下,代表每个ms需要的systick时钟数   
  54              		.loc 1 81 0
  55 001c 42F22832 		movw	r2, #9000
  56 0020 5A80     		strh	r2, [r3, #2]	@ movhi
  57              	.LVL5:
  58              	.LBE5:
  59              	.LBE4:
  15:drivers/tools.c ****   MPU6050_Initialize();
  60              		.loc 1 15 0
  61 0022 FFF7FEFF 		bl	MPU6050_I2C_Init
  62              	.LVL6:
  16:drivers/tools.c **** }
  63              		.loc 1 16 0
  64 0026 FFF7FEFF 		bl	MPU6050_Initialize
  65              	.LVL7:
  66 002a 08BD     		pop	{r3, pc}
  67              	.L4:
  68              		.align	2
  69              	.L3:
  70 002c 00000000 		.word	.LANCHOR0
  71              		.cfi_endproc
  72              	.LFE64:
  73              		.size	UserInit, .-UserInit
  74              		.align	1
  75              		.global	UsartPut
  76              		.syntax unified
  77              		.thumb
  78              		.thumb_func
  79              		.fpu softvfp
  80              		.type	UsartPut, %function
  81              	UsartPut:
  82              	.LFB68:
  62:drivers/tools.c **** 	USART_SendData(USART2, (uint8_t) ch);
  83              		.loc 1 62 0
  84              		.cfi_startproc
  85              		@ args = 0, pretend = 0, frame = 0
  86              		@ frame_needed = 0, uses_anonymous_args = 0
  87              	.LVL8:
ARM GAS  /tmp/ccOiGado.s 			page 4


  88 0030 70B5     		push	{r4, r5, r6, lr}
  89              		.cfi_def_cfa_offset 16
  90              		.cfi_offset 4, -16
  91              		.cfi_offset 5, -12
  92              		.cfi_offset 6, -8
  93              		.cfi_offset 14, -4
  94 0032 0646     		mov	r6, r0
  63:drivers/tools.c **** 	//Loop until the end of transmission
  95              		.loc 1 63 0
  96 0034 0146     		mov	r1, r0
  97 0036 0648     		ldr	r0, .L9
  98              	.LVL9:
  99 0038 FFF7FEFF 		bl	USART_SendData
 100              	.LVL10:
  65:drivers/tools.c **** 	}
 101              		.loc 1 65 0
 102 003c 044D     		ldr	r5, .L9
 103 003e 4024     		movs	r4, #64
 104              	.L6:
  65:drivers/tools.c **** 	}
 105              		.loc 1 65 0 is_stmt 0 discriminator 1
 106 0040 2146     		mov	r1, r4
 107 0042 2846     		mov	r0, r5
 108 0044 FFF7FEFF 		bl	USART_GetFlagStatus
 109              	.LVL11:
 110 0048 0028     		cmp	r0, #0
 111 004a F9D0     		beq	.L6
  68:drivers/tools.c **** 
 112              		.loc 1 68 0 is_stmt 1
 113 004c 3046     		mov	r0, r6
 114 004e 70BD     		pop	{r4, r5, r6, pc}
 115              	.L10:
 116              		.align	2
 117              	.L9:
 118 0050 00440040 		.word	1073759232
 119              		.cfi_endproc
 120              	.LFE68:
 121              		.size	UsartPut, .-UsartPut
 122              		.align	1
 123              		.global	_write
 124              		.syntax unified
 125              		.thumb
 126              		.thumb_func
 127              		.fpu softvfp
 128              		.type	_write, %function
 129              	_write:
 130              	.LFB67:
  52:drivers/tools.c ****   int n;
 131              		.loc 1 52 0
 132              		.cfi_startproc
 133              		@ args = 0, pretend = 0, frame = 0
 134              		@ frame_needed = 0, uses_anonymous_args = 0
 135              	.LVL12:
 136 0054 70B5     		push	{r4, r5, r6, lr}
 137              		.cfi_def_cfa_offset 16
 138              		.cfi_offset 4, -16
 139              		.cfi_offset 5, -12
ARM GAS  /tmp/ccOiGado.s 			page 5


 140              		.cfi_offset 6, -8
 141              		.cfi_offset 14, -4
 142              	.LVL13:
  54:drivers/tools.c ****      UsartPut(*ptr++);
 143              		.loc 1 54 0
 144 0056 161E     		subs	r6, r2, #0
 145 0058 07DD     		ble	.L12
 146 005a 0C46     		mov	r4, r1
 147 005c 8D19     		adds	r5, r1, r6
 148              	.LVL14:
 149              	.L13:
  55:drivers/tools.c ****   }
 150              		.loc 1 55 0 discriminator 3
 151 005e 14F8010B 		ldrb	r0, [r4], #1	@ zero_extendqisi2
 152              	.LVL15:
 153 0062 FFF7FEFF 		bl	UsartPut
 154              	.LVL16:
  54:drivers/tools.c ****      UsartPut(*ptr++);
 155              		.loc 1 54 0 discriminator 3
 156 0066 A542     		cmp	r5, r4
 157 0068 F9D1     		bne	.L13
 158              	.LVL17:
 159              	.L12:
  58:drivers/tools.c **** 
 160              		.loc 1 58 0
 161 006a 3046     		mov	r0, r6
 162 006c 70BD     		pop	{r4, r5, r6, pc}
 163              		.cfi_endproc
 164              	.LFE67:
 165              		.size	_write, .-_write
 166              		.align	1
 167              		.global	UsartGet
 168              		.syntax unified
 169              		.thumb
 170              		.thumb_func
 171              		.fpu softvfp
 172              		.type	UsartGet, %function
 173              	UsartGet:
 174              	.LFB69:
  72:drivers/tools.c **** 	while (USART_GetFlagStatus(USART2, USART_FLAG_RXNE) == RESET);
 175              		.loc 1 72 0
 176              		.cfi_startproc
 177              		@ args = 0, pretend = 0, frame = 0
 178              		@ frame_needed = 0, uses_anonymous_args = 0
 179 006e 38B5     		push	{r3, r4, r5, lr}
 180              		.cfi_def_cfa_offset 16
 181              		.cfi_offset 3, -16
 182              		.cfi_offset 4, -12
 183              		.cfi_offset 5, -8
 184              		.cfi_offset 14, -4
  73:drivers/tools.c **** 	return (uint8_t)USART_ReceiveData(USART2);
 185              		.loc 1 73 0
 186 0070 064D     		ldr	r5, .L20
 187 0072 2024     		movs	r4, #32
 188              	.L17:
  73:drivers/tools.c **** 	return (uint8_t)USART_ReceiveData(USART2);
 189              		.loc 1 73 0 is_stmt 0 discriminator 1
ARM GAS  /tmp/ccOiGado.s 			page 6


 190 0074 2146     		mov	r1, r4
 191 0076 2846     		mov	r0, r5
 192 0078 FFF7FEFF 		bl	USART_GetFlagStatus
 193              	.LVL18:
 194 007c 0028     		cmp	r0, #0
 195 007e F9D0     		beq	.L17
  74:drivers/tools.c **** }
 196              		.loc 1 74 0 is_stmt 1
 197 0080 0248     		ldr	r0, .L20
 198 0082 FFF7FEFF 		bl	USART_ReceiveData
 199              	.LVL19:
  75:drivers/tools.c **** 
 200              		.loc 1 75 0
 201 0086 C0B2     		uxtb	r0, r0
 202 0088 38BD     		pop	{r3, r4, r5, pc}
 203              	.L21:
 204 008a 00BF     		.align	2
 205              	.L20:
 206 008c 00440040 		.word	1073759232
 207              		.cfi_endproc
 208              	.LFE69:
 209              		.size	UsartGet, .-UsartGet
 210              		.align	1
 211              		.global	_read
 212              		.syntax unified
 213              		.thumb
 214              		.thumb_func
 215              		.fpu softvfp
 216              		.type	_read, %function
 217              	_read:
 218              	.LFB66:
  40:drivers/tools.c ****   int n;
 219              		.loc 1 40 0
 220              		.cfi_startproc
 221              		@ args = 0, pretend = 0, frame = 0
 222              		@ frame_needed = 0, uses_anonymous_args = 0
 223              	.LVL20:
 224 0090 70B5     		push	{r4, r5, r6, lr}
 225              		.cfi_def_cfa_offset 16
 226              		.cfi_offset 4, -16
 227              		.cfi_offset 5, -12
 228              		.cfi_offset 6, -8
 229              		.cfi_offset 14, -4
 230              	.LVL21:
  43:drivers/tools.c ****      char c = UsartGet();
 231              		.loc 1 43 0
 232 0092 161E     		subs	r6, r2, #0
 233 0094 09DD     		ble	.L25
 234 0096 0C46     		mov	r4, r1
 235 0098 8D19     		adds	r5, r1, r6
 236              	.LVL22:
 237              	.L24:
 238              	.LBB6:
  44:drivers/tools.c ****     *ptr++ = c;
 239              		.loc 1 44 0 discriminator 3
 240 009a FFF7FEFF 		bl	UsartGet
 241              	.LVL23:
ARM GAS  /tmp/ccOiGado.s 			page 7


  45:drivers/tools.c ****     num++;
 242              		.loc 1 45 0 discriminator 3
 243 009e 04F8010B 		strb	r0, [r4], #1
 244              	.LVL24:
 245              	.LBE6:
  43:drivers/tools.c ****      char c = UsartGet();
 246              		.loc 1 43 0 discriminator 3
 247 00a2 A542     		cmp	r5, r4
 248 00a4 F9D1     		bne	.L24
 249              	.LVL25:
 250              	.L23:
  49:drivers/tools.c **** 
 251              		.loc 1 49 0
 252 00a6 3046     		mov	r0, r6
 253 00a8 70BD     		pop	{r4, r5, r6, pc}
 254              	.LVL26:
 255              	.L25:
  43:drivers/tools.c ****      char c = UsartGet();
 256              		.loc 1 43 0
 257 00aa 0026     		movs	r6, #0
 258 00ac FBE7     		b	.L23
 259              		.cfi_endproc
 260              	.LFE66:
 261              		.size	_read, .-_read
 262              		.align	1
 263              		.global	DelayInit
 264              		.syntax unified
 265              		.thumb
 266              		.thumb_func
 267              		.fpu softvfp
 268              		.type	DelayInit, %function
 269              	DelayInit:
 270              	.LFB70:
  79:drivers/tools.c **** 	fac_us=SYSCLK/8;		//不论是否使用ucos,fac_us都需要使用
 271              		.loc 1 79 0
 272              		.cfi_startproc
 273              		@ args = 0, pretend = 0, frame = 0
 274              		@ frame_needed = 0, uses_anonymous_args = 0
 275              		@ link register save eliminated.
 276              	.LVL27:
  80:drivers/tools.c **** 	fac_ms=(u16)fac_us*1000;//非ucos下,代表每个ms需要的systick时钟数   
 277              		.loc 1 80 0
 278 00ae C008     		lsrs	r0, r0, #3
 279              	.LVL28:
 280 00b0 044B     		ldr	r3, .L29
 281 00b2 1870     		strb	r0, [r3]
 282              		.loc 1 81 0
 283 00b4 C0EB4012 		rsb	r2, r0, r0, lsl #5
 284 00b8 00EB8200 		add	r0, r0, r2, lsl #2
 285 00bc C000     		lsls	r0, r0, #3
 286 00be 5880     		strh	r0, [r3, #2]	@ movhi
 287 00c0 7047     		bx	lr
 288              	.L30:
 289 00c2 00BF     		.align	2
 290              	.L29:
 291 00c4 00000000 		.word	.LANCHOR0
 292              		.cfi_endproc
ARM GAS  /tmp/ccOiGado.s 			page 8


 293              	.LFE70:
 294              		.size	DelayInit, .-DelayInit
 295              		.align	1
 296              		.global	DelayUs
 297              		.syntax unified
 298              		.thumb
 299              		.thumb_func
 300              		.fpu softvfp
 301              		.type	DelayUs, %function
 302              	DelayUs:
 303              	.LFB71:
  82:drivers/tools.c **** }								  
  83:drivers/tools.c **** 
  84:drivers/tools.c **** //延时nus
  85:drivers/tools.c **** //nus为要延时的us数.		  								   
  86:drivers/tools.c **** void DelayUs(u32 nus)
  87:drivers/tools.c **** {		
 304              		.loc 1 87 0
 305              		.cfi_startproc
 306              		@ args = 0, pretend = 0, frame = 0
 307              		@ frame_needed = 0, uses_anonymous_args = 0
 308              		@ link register save eliminated.
 309              	.LVL29:
  88:drivers/tools.c **** 	u32 temp;	  	 
  89:drivers/tools.c **** 	SysTick->LOAD=nus*fac_us; //时间加载	  		 
 310              		.loc 1 89 0
 311 00c8 0A4B     		ldr	r3, .L34
 312 00ca 1B78     		ldrb	r3, [r3]	@ zero_extendqisi2
 313 00cc 00FB03F0 		mul	r0, r0, r3
 314              	.LVL30:
 315 00d0 094B     		ldr	r3, .L34+4
 316 00d2 5860     		str	r0, [r3, #4]
  90:drivers/tools.c **** 	SysTick->VAL=0x00;    //清空计数器
 317              		.loc 1 90 0
 318 00d4 0022     		movs	r2, #0
 319 00d6 9A60     		str	r2, [r3, #8]
  91:drivers/tools.c **** 	SysTick->CTRL=0x01 ;    //开始倒数 	 
 320              		.loc 1 91 0
 321 00d8 0122     		movs	r2, #1
 322 00da 1A60     		str	r2, [r3]
  92:drivers/tools.c **** 	do {
  93:drivers/tools.c **** 		temp=SysTick->CTRL;
 323              		.loc 1 93 0
 324 00dc 1A46     		mov	r2, r3
 325              	.L32:
 326              		.loc 1 93 0 is_stmt 0 discriminator 1
 327 00de 1368     		ldr	r3, [r2]
 328              	.LVL31:
  94:drivers/tools.c **** 	}
  95:drivers/tools.c **** 	while((temp&0x01)&&!(temp&(1<<16)));//等待时间到达   
 329              		.loc 1 95 0 is_stmt 1 discriminator 1
 330 00e0 03F00113 		and	r3, r3, #65537
 331              	.LVL32:
 332 00e4 012B     		cmp	r3, #1
 333 00e6 FAD0     		beq	.L32
  96:drivers/tools.c **** 	SysTick->CTRL=0x00;     //关闭计数器
 334              		.loc 1 96 0
ARM GAS  /tmp/ccOiGado.s 			page 9


 335 00e8 034B     		ldr	r3, .L34+4
 336 00ea 0022     		movs	r2, #0
 337 00ec 1A60     		str	r2, [r3]
  97:drivers/tools.c **** 	SysTick->VAL =0X00;     //清空计数器	 
 338              		.loc 1 97 0
 339 00ee 9A60     		str	r2, [r3, #8]
 340 00f0 7047     		bx	lr
 341              	.L35:
 342 00f2 00BF     		.align	2
 343              	.L34:
 344 00f4 00000000 		.word	.LANCHOR0
 345 00f8 10E000E0 		.word	-536813552
 346              		.cfi_endproc
 347              	.LFE71:
 348              		.size	DelayUs, .-DelayUs
 349              		.global	__aeabi_i2d
 350              		.global	__aeabi_ddiv
 351              		.global	__aeabi_d2iz
 352              		.align	1
 353              		.global	HCSR04_Get
 354              		.syntax unified
 355              		.thumb
 356              		.thumb_func
 357              		.fpu softvfp
 358              		.type	HCSR04_Get, %function
 359              	HCSR04_Get:
 360              	.LFB65:
  20:drivers/tools.c ****   int length;
 361              		.loc 1 20 0
 362              		.cfi_startproc
 363              		@ args = 0, pretend = 0, frame = 0
 364              		@ frame_needed = 0, uses_anonymous_args = 0
 365 00fc 70B5     		push	{r4, r5, r6, lr}
 366              		.cfi_def_cfa_offset 16
 367              		.cfi_offset 4, -16
 368              		.cfi_offset 5, -12
 369              		.cfi_offset 6, -8
 370              		.cfi_offset 14, -4
  23:drivers/tools.c ****   DelayUs(20);
 371              		.loc 1 23 0
 372 00fe 264C     		ldr	r4, .L44+8
 373 0100 0122     		movs	r2, #1
 374 0102 0221     		movs	r1, #2
 375 0104 2046     		mov	r0, r4
 376 0106 FFF7FEFF 		bl	GPIO_WriteBit
 377              	.LVL33:
  24:drivers/tools.c ****   GPIO_WriteBit(GPIOA,GPIO_Pin_1,0);
 378              		.loc 1 24 0
 379 010a 1420     		movs	r0, #20
 380 010c FFF7FEFF 		bl	DelayUs
 381              	.LVL34:
  25:drivers/tools.c ****   //计数器清0
 382              		.loc 1 25 0
 383 0110 0022     		movs	r2, #0
 384 0112 0221     		movs	r1, #2
 385 0114 2046     		mov	r0, r4
 386 0116 FFF7FEFF 		bl	GPIO_WriteBit
ARM GAS  /tmp/ccOiGado.s 			page 10


 387              	.LVL35:
  27:drivers/tools.c ****   TIM_Cmd(TIM2, ENABLE);// TIM2 enable counter [允许tim2计数]
 388              		.loc 1 27 0
 389 011a 4FF08040 		mov	r0, #1073741824
 390 011e 0023     		movs	r3, #0
 391 0120 8384     		strh	r3, [r0, #36]	@ movhi
  28:drivers/tools.c ****   while(!GPIO_ReadInputDataBit(GPIOA, GPIO_Pin_0) && TIM2->CNT<1000);
 392              		.loc 1 28 0
 393 0122 0121     		movs	r1, #1
 394 0124 FFF7FEFF 		bl	TIM_Cmd
 395              	.LVL36:
  29:drivers/tools.c ****   TIM2->CNT = 0;
 396              		.loc 1 29 0
 397 0128 2546     		mov	r5, r4
 398 012a 0124     		movs	r4, #1
 399 012c 4FF08046 		mov	r6, #1073741824
 400              	.L38:
  29:drivers/tools.c ****   TIM2->CNT = 0;
 401              		.loc 1 29 0 is_stmt 0 discriminator 2
 402 0130 2146     		mov	r1, r4
 403 0132 2846     		mov	r0, r5
 404 0134 FFF7FEFF 		bl	GPIO_ReadInputDataBit
 405              	.LVL37:
 406 0138 20B9     		cbnz	r0, .L37
  29:drivers/tools.c ****   TIM2->CNT = 0;
 407              		.loc 1 29 0 discriminator 1
 408 013a B38C     		ldrh	r3, [r6, #36]
 409 013c 9BB2     		uxth	r3, r3
 410 013e B3F57A7F 		cmp	r3, #1000
 411 0142 F5D3     		bcc	.L38
 412              	.L37:
  30:drivers/tools.c ****   while(GPIO_ReadInputDataBit(GPIOA, GPIO_Pin_0) && TIM2->CNT<60000);
 413              		.loc 1 30 0 is_stmt 1
 414 0144 0022     		movs	r2, #0
 415 0146 4FF08043 		mov	r3, #1073741824
 416 014a 9A84     		strh	r2, [r3, #36]	@ movhi
  31:drivers/tools.c ****   TIM_Cmd(TIM2, DISABLE);
 417              		.loc 1 31 0
 418 014c 124D     		ldr	r5, .L44+8
 419 014e 0124     		movs	r4, #1
 420 0150 1E46     		mov	r6, r3
 421              	.L40:
  31:drivers/tools.c ****   TIM_Cmd(TIM2, DISABLE);
 422              		.loc 1 31 0 is_stmt 0 discriminator 2
 423 0152 2146     		mov	r1, r4
 424 0154 2846     		mov	r0, r5
 425 0156 FFF7FEFF 		bl	GPIO_ReadInputDataBit
 426              	.LVL38:
 427 015a 28B1     		cbz	r0, .L39
  31:drivers/tools.c ****   TIM_Cmd(TIM2, DISABLE);
 428              		.loc 1 31 0 discriminator 1
 429 015c B38C     		ldrh	r3, [r6, #36]
 430 015e 9BB2     		uxth	r3, r3
 431 0160 4EF65F22 		movw	r2, #59999
 432 0164 9342     		cmp	r3, r2
 433 0166 F4D9     		bls	.L40
 434              	.L39:
ARM GAS  /tmp/ccOiGado.s 			page 11


  32:drivers/tools.c **** 
 435              		.loc 1 32 0 is_stmt 1
 436 0168 0021     		movs	r1, #0
 437 016a 4FF08040 		mov	r0, #1073741824
 438 016e FFF7FEFF 		bl	TIM_Cmd
 439              	.LVL39:
  34:drivers/tools.c ****   return length;
 440              		.loc 1 34 0
 441 0172 4FF08043 		mov	r3, #1073741824
 442 0176 988C     		ldrh	r0, [r3, #36]
 443              	.LVL40:
 444 0178 80B2     		uxth	r0, r0
 445 017a FFF7FEFF 		bl	__aeabi_i2d
 446              	.LVL41:
 447 017e 04A3     		adr	r3, .L44
 448 0180 D3E90023 		ldrd	r2, [r3]
 449 0184 FFF7FEFF 		bl	__aeabi_ddiv
 450              	.LVL42:
 451 0188 FFF7FEFF 		bl	__aeabi_d2iz
 452              	.LVL43:
  36:drivers/tools.c **** 
 453              		.loc 1 36 0
 454 018c 70BD     		pop	{r4, r5, r6, pc}
 455              	.L45:
 456 018e 00BF     		.align	3
 457              	.L44:
 458 0190 66666666 		.word	1717986918
 459 0194 66664D40 		.word	1078814310
 460 0198 00080140 		.word	1073809408
 461              		.cfi_endproc
 462              	.LFE65:
 463              		.size	HCSR04_Get, .-HCSR04_Get
 464              		.align	1
 465              		.global	DelayMs
 466              		.syntax unified
 467              		.thumb
 468              		.thumb_func
 469              		.fpu softvfp
 470              		.type	DelayMs, %function
 471              	DelayMs:
 472              	.LFB72:
  98:drivers/tools.c **** }
  99:drivers/tools.c **** 
 100:drivers/tools.c **** //延时nms
 101:drivers/tools.c **** void DelayMs(u16 nms)
 102:drivers/tools.c **** {	 		  	  
 473              		.loc 1 102 0
 474              		.cfi_startproc
 475              		@ args = 0, pretend = 0, frame = 0
 476              		@ frame_needed = 0, uses_anonymous_args = 0
 477              		@ link register save eliminated.
 478              	.LVL44:
 103:drivers/tools.c **** 	u32 temp;		   
 104:drivers/tools.c **** 	SysTick->LOAD=(u32)nms*fac_ms;//时间加载(SysTick->LOAD为24bit)
 479              		.loc 1 104 0
 480 019c 044B     		ldr	r3, .L47
 481 019e 5B88     		ldrh	r3, [r3, #2]
ARM GAS  /tmp/ccOiGado.s 			page 12


 482 01a0 00FB03F0 		mul	r0, r0, r3
 483              	.LVL45:
 484 01a4 034B     		ldr	r3, .L47+4
 485 01a6 5860     		str	r0, [r3, #4]
 105:drivers/tools.c **** 	SysTick->VAL =0x00;       //清空计数器
 486              		.loc 1 105 0
 487 01a8 0022     		movs	r2, #0
 488 01aa 9A60     		str	r2, [r3, #8]
 489 01ac 7047     		bx	lr
 490              	.L48:
 491 01ae 00BF     		.align	2
 492              	.L47:
 493 01b0 00000000 		.word	.LANCHOR0
 494 01b4 10E000E0 		.word	-536813552
 495              		.cfi_endproc
 496              	.LFE72:
 497              		.size	DelayMs, .-DelayMs
 498              		.bss
 499              		.align	1
 500              		.set	.LANCHOR0,. + 0
 501              		.type	fac_us, %object
 502              		.size	fac_us, 1
 503              	fac_us:
 504 0000 00       		.space	1
 505 0001 00       		.space	1
 506              		.type	fac_ms, %object
 507              		.size	fac_ms, 2
 508              	fac_ms:
 509 0002 0000     		.space	2
 510              		.text
 511              	.Letext0:
 512              		.file 2 "/usr/arm-none-eabi/include/machine/_default_types.h"
 513              		.file 3 "/usr/arm-none-eabi/include/sys/_stdint.h"
 514              		.file 4 "/home/faker/Documents/code/STM/stm32-quadrocopter/cmsis/core_cm3.h"
 515              		.file 5 "/home/faker/Documents/code/STM/stm32-quadrocopter/lib/inc/system_stm32f10x.h"
 516              		.file 6 "/home/faker/Documents/code/STM/stm32-quadrocopter/lib/inc/stm32f10x.h"
 517              		.file 7 "/usr/arm-none-eabi/include/sys/lock.h"
 518              		.file 8 "/usr/arm-none-eabi/include/sys/_types.h"
 519              		.file 9 "/usr/lib/gcc/arm-none-eabi/6.1.1/include/stddef.h"
 520              		.file 10 "/usr/arm-none-eabi/include/sys/reent.h"
 521              		.file 11 "/usr/arm-none-eabi/include/stdlib.h"
 522              		.file 12 "/usr/arm-none-eabi/include/math.h"
 523              		.file 13 "/usr/arm-none-eabi/include/sys/errno.h"
 524              		.file 14 "/home/faker/Documents/code/STM/stm32-quadrocopter/lib/inc/stm32f10x_usart.h"
 525              		.file 15 "/home/faker/Documents/code/STM/stm32-quadrocopter/lib/inc/stm32f10x_gpio.h"
 526              		.file 16 "/home/faker/Documents/code/STM/stm32-quadrocopter/lib/inc/stm32f10x_tim.h"
 527              		.file 17 "drivers/conf.h"
 528              		.file 18 "drivers/MPU6050.h"
 529              		.section	.debug_info,"",%progbits
 530              	.Ldebug_info0:
 531 0000 96110000 		.4byte	0x1196
 532 0004 0400     		.2byte	0x4
 533 0006 00000000 		.4byte	.Ldebug_abbrev0
 534 000a 04       		.byte	0x4
 535 000b 01       		.uleb128 0x1
 536 000c E9000000 		.4byte	.LASF208
 537 0010 0C       		.byte	0xc
ARM GAS  /tmp/ccOiGado.s 			page 13


 538 0011 D3030000 		.4byte	.LASF209
 539 0015 97050000 		.4byte	.LASF210
 540 0019 00000000 		.4byte	.Ltext0
 541 001d B8010000 		.4byte	.Letext0-.Ltext0
 542 0021 00000000 		.4byte	.Ldebug_line0
 543 0025 02       		.uleb128 0x2
 544 0026 08       		.byte	0x8
 545 0027 04       		.byte	0x4
 546 0028 81080000 		.4byte	.LASF0
 547 002c 03       		.uleb128 0x3
 548 002d 04       		.byte	0x4
 549 002e 05       		.byte	0x5
 550 002f 696E7400 		.ascii	"int\000"
 551 0033 02       		.uleb128 0x2
 552 0034 01       		.byte	0x1
 553 0035 06       		.byte	0x6
 554 0036 93010000 		.4byte	.LASF1
 555 003a 04       		.uleb128 0x4
 556 003b 53000000 		.4byte	.LASF4
 557 003f 02       		.byte	0x2
 558 0040 1D       		.byte	0x1d
 559 0041 45000000 		.4byte	0x45
 560 0045 02       		.uleb128 0x2
 561 0046 01       		.byte	0x1
 562 0047 08       		.byte	0x8
 563 0048 89050000 		.4byte	.LASF2
 564 004c 02       		.uleb128 0x2
 565 004d 02       		.byte	0x2
 566 004e 05       		.byte	0x5
 567 004f 0C000000 		.4byte	.LASF3
 568 0053 04       		.uleb128 0x4
 569 0054 F4020000 		.4byte	.LASF5
 570 0058 02       		.byte	0x2
 571 0059 2B       		.byte	0x2b
 572 005a 5E000000 		.4byte	0x5e
 573 005e 02       		.uleb128 0x2
 574 005f 02       		.byte	0x2
 575 0060 07       		.byte	0x7
 576 0061 2E070000 		.4byte	.LASF6
 577 0065 04       		.uleb128 0x4
 578 0066 0E070000 		.4byte	.LASF7
 579 006a 02       		.byte	0x2
 580 006b 3F       		.byte	0x3f
 581 006c 70000000 		.4byte	0x70
 582 0070 02       		.uleb128 0x2
 583 0071 04       		.byte	0x4
 584 0072 05       		.byte	0x5
 585 0073 28020000 		.4byte	.LASF8
 586 0077 04       		.uleb128 0x4
 587 0078 1A030000 		.4byte	.LASF9
 588 007c 02       		.byte	0x2
 589 007d 41       		.byte	0x41
 590 007e 82000000 		.4byte	0x82
 591 0082 02       		.uleb128 0x2
 592 0083 04       		.byte	0x4
 593 0084 07       		.byte	0x7
 594 0085 83030000 		.4byte	.LASF10
ARM GAS  /tmp/ccOiGado.s 			page 14


 595 0089 02       		.uleb128 0x2
 596 008a 08       		.byte	0x8
 597 008b 05       		.byte	0x5
 598 008c C5030000 		.4byte	.LASF11
 599 0090 02       		.uleb128 0x2
 600 0091 08       		.byte	0x8
 601 0092 07       		.byte	0x7
 602 0093 A3000000 		.4byte	.LASF12
 603 0097 02       		.uleb128 0x2
 604 0098 04       		.byte	0x4
 605 0099 07       		.byte	0x7
 606 009a 66020000 		.4byte	.LASF13
 607 009e 04       		.uleb128 0x4
 608 009f FE070000 		.4byte	.LASF14
 609 00a3 03       		.byte	0x3
 610 00a4 18       		.byte	0x18
 611 00a5 3A000000 		.4byte	0x3a
 612 00a9 04       		.uleb128 0x4
 613 00aa 8C020000 		.4byte	.LASF15
 614 00ae 03       		.byte	0x3
 615 00af 24       		.byte	0x24
 616 00b0 53000000 		.4byte	0x53
 617 00b4 05       		.uleb128 0x5
 618 00b5 A9000000 		.4byte	0xa9
 619 00b9 04       		.uleb128 0x4
 620 00ba 81050000 		.4byte	.LASF16
 621 00be 03       		.byte	0x3
 622 00bf 2C       		.byte	0x2c
 623 00c0 65000000 		.4byte	0x65
 624 00c4 05       		.uleb128 0x5
 625 00c5 B9000000 		.4byte	0xb9
 626 00c9 04       		.uleb128 0x4
 627 00ca 88080000 		.4byte	.LASF17
 628 00ce 03       		.byte	0x3
 629 00cf 30       		.byte	0x30
 630 00d0 77000000 		.4byte	0x77
 631 00d4 05       		.uleb128 0x5
 632 00d5 C9000000 		.4byte	0xc9
 633 00d9 06       		.uleb128 0x6
 634 00da D4000000 		.4byte	0xd4
 635 00de 02       		.uleb128 0x2
 636 00df 04       		.byte	0x4
 637 00e0 07       		.byte	0x7
 638 00e1 6D040000 		.4byte	.LASF18
 639 00e5 07       		.uleb128 0x7
 640 00e6 10       		.byte	0x10
 641 00e7 04       		.byte	0x4
 642 00e8 AB02     		.2byte	0x2ab
 643 00ea 23010000 		.4byte	0x123
 644 00ee 08       		.uleb128 0x8
 645 00ef 5B070000 		.4byte	.LASF19
 646 00f3 04       		.byte	0x4
 647 00f4 AD02     		.2byte	0x2ad
 648 00f6 D4000000 		.4byte	0xd4
 649 00fa 00       		.byte	0
 650 00fb 08       		.uleb128 0x8
 651 00fc 76040000 		.4byte	.LASF20
ARM GAS  /tmp/ccOiGado.s 			page 15


 652 0100 04       		.byte	0x4
 653 0101 AE02     		.2byte	0x2ae
 654 0103 D4000000 		.4byte	0xd4
 655 0107 04       		.byte	0x4
 656 0108 09       		.uleb128 0x9
 657 0109 56414C00 		.ascii	"VAL\000"
 658 010d 04       		.byte	0x4
 659 010e AF02     		.2byte	0x2af
 660 0110 D4000000 		.4byte	0xd4
 661 0114 08       		.byte	0x8
 662 0115 08       		.uleb128 0x8
 663 0116 A1070000 		.4byte	.LASF21
 664 011a 04       		.byte	0x4
 665 011b B002     		.2byte	0x2b0
 666 011d D9000000 		.4byte	0xd9
 667 0121 0C       		.byte	0xc
 668 0122 00       		.byte	0
 669 0123 0A       		.uleb128 0xa
 670 0124 E7020000 		.4byte	.LASF22
 671 0128 04       		.byte	0x4
 672 0129 B102     		.2byte	0x2b1
 673 012b E5000000 		.4byte	0xe5
 674 012f 0B       		.uleb128 0xb
 675 0130 C9050000 		.4byte	.LASF23
 676 0134 04       		.byte	0x4
 677 0135 9606     		.2byte	0x696
 678 0137 C4000000 		.4byte	0xc4
 679 013b 0C       		.uleb128 0xc
 680 013c 6B030000 		.4byte	.LASF24
 681 0140 05       		.byte	0x5
 682 0141 35       		.byte	0x35
 683 0142 C9000000 		.4byte	0xc9
 684 0146 0D       		.uleb128 0xd
 685 0147 75333200 		.ascii	"u32\000"
 686 014b 06       		.byte	0x6
 687 014c F701     		.2byte	0x1f7
 688 014e C9000000 		.4byte	0xc9
 689 0152 0D       		.uleb128 0xd
 690 0153 75313600 		.ascii	"u16\000"
 691 0157 06       		.byte	0x6
 692 0158 F801     		.2byte	0x1f8
 693 015a A9000000 		.4byte	0xa9
 694 015e 0D       		.uleb128 0xd
 695 015f 753800   		.ascii	"u8\000"
 696 0162 06       		.byte	0x6
 697 0163 F901     		.2byte	0x1f9
 698 0165 9E000000 		.4byte	0x9e
 699 0169 0E       		.uleb128 0xe
 700 016a 01       		.byte	0x1
 701 016b 45000000 		.4byte	0x45
 702 016f 06       		.byte	0x6
 703 0170 0702     		.2byte	0x207
 704 0172 83010000 		.4byte	0x183
 705 0176 0F       		.uleb128 0xf
 706 0177 3E040000 		.4byte	.LASF25
 707 017b 00       		.byte	0
 708 017c 10       		.uleb128 0x10
ARM GAS  /tmp/ccOiGado.s 			page 16


 709 017d 53455400 		.ascii	"SET\000"
 710 0181 01       		.byte	0x1
 711 0182 00       		.byte	0
 712 0183 0E       		.uleb128 0xe
 713 0184 01       		.byte	0x1
 714 0185 45000000 		.4byte	0x45
 715 0189 06       		.byte	0x6
 716 018a 0902     		.2byte	0x209
 717 018c 9D010000 		.4byte	0x19d
 718 0190 0F       		.uleb128 0xf
 719 0191 66060000 		.4byte	.LASF26
 720 0195 00       		.byte	0
 721 0196 0F       		.uleb128 0xf
 722 0197 3B020000 		.4byte	.LASF27
 723 019b 01       		.byte	0x1
 724 019c 00       		.byte	0
 725 019d 07       		.uleb128 0x7
 726 019e 1C       		.byte	0x1c
 727 019f 06       		.byte	0x6
 728 01a0 E903     		.2byte	0x3e9
 729 01a2 02020000 		.4byte	0x202
 730 01a6 09       		.uleb128 0x9
 731 01a7 43524C00 		.ascii	"CRL\000"
 732 01ab 06       		.byte	0x6
 733 01ac EB03     		.2byte	0x3eb
 734 01ae D4000000 		.4byte	0xd4
 735 01b2 00       		.byte	0
 736 01b3 09       		.uleb128 0x9
 737 01b4 43524800 		.ascii	"CRH\000"
 738 01b8 06       		.byte	0x6
 739 01b9 EC03     		.2byte	0x3ec
 740 01bb D4000000 		.4byte	0xd4
 741 01bf 04       		.byte	0x4
 742 01c0 09       		.uleb128 0x9
 743 01c1 49445200 		.ascii	"IDR\000"
 744 01c5 06       		.byte	0x6
 745 01c6 ED03     		.2byte	0x3ed
 746 01c8 D4000000 		.4byte	0xd4
 747 01cc 08       		.byte	0x8
 748 01cd 09       		.uleb128 0x9
 749 01ce 4F445200 		.ascii	"ODR\000"
 750 01d2 06       		.byte	0x6
 751 01d3 EE03     		.2byte	0x3ee
 752 01d5 D4000000 		.4byte	0xd4
 753 01d9 0C       		.byte	0xc
 754 01da 08       		.uleb128 0x8
 755 01db 14050000 		.4byte	.LASF28
 756 01df 06       		.byte	0x6
 757 01e0 EF03     		.2byte	0x3ef
 758 01e2 D4000000 		.4byte	0xd4
 759 01e6 10       		.byte	0x10
 760 01e7 09       		.uleb128 0x9
 761 01e8 42525200 		.ascii	"BRR\000"
 762 01ec 06       		.byte	0x6
 763 01ed F003     		.2byte	0x3f0
 764 01ef D4000000 		.4byte	0xd4
 765 01f3 14       		.byte	0x14
ARM GAS  /tmp/ccOiGado.s 			page 17


 766 01f4 08       		.uleb128 0x8
 767 01f5 16000000 		.4byte	.LASF29
 768 01f9 06       		.byte	0x6
 769 01fa F103     		.2byte	0x3f1
 770 01fc D4000000 		.4byte	0xd4
 771 0200 18       		.byte	0x18
 772 0201 00       		.byte	0
 773 0202 0A       		.uleb128 0xa
 774 0203 95030000 		.4byte	.LASF30
 775 0207 06       		.byte	0x6
 776 0208 F203     		.2byte	0x3f2
 777 020a 9D010000 		.4byte	0x19d
 778 020e 07       		.uleb128 0x7
 779 020f 50       		.byte	0x50
 780 0210 06       		.byte	0x6
 781 0211 A204     		.2byte	0x4a2
 782 0213 1F040000 		.4byte	0x41f
 783 0217 09       		.uleb128 0x9
 784 0218 43523100 		.ascii	"CR1\000"
 785 021c 06       		.byte	0x6
 786 021d A404     		.2byte	0x4a4
 787 021f B4000000 		.4byte	0xb4
 788 0223 00       		.byte	0
 789 0224 08       		.uleb128 0x8
 790 0225 27050000 		.4byte	.LASF31
 791 0229 06       		.byte	0x6
 792 022a A504     		.2byte	0x4a5
 793 022c A9000000 		.4byte	0xa9
 794 0230 02       		.byte	0x2
 795 0231 09       		.uleb128 0x9
 796 0232 43523200 		.ascii	"CR2\000"
 797 0236 06       		.byte	0x6
 798 0237 A604     		.2byte	0x4a6
 799 0239 B4000000 		.4byte	0xb4
 800 023d 04       		.byte	0x4
 801 023e 08       		.uleb128 0x8
 802 023f 31050000 		.4byte	.LASF32
 803 0243 06       		.byte	0x6
 804 0244 A704     		.2byte	0x4a7
 805 0246 A9000000 		.4byte	0xa9
 806 024a 06       		.byte	0x6
 807 024b 08       		.uleb128 0x8
 808 024c E7060000 		.4byte	.LASF33
 809 0250 06       		.byte	0x6
 810 0251 A804     		.2byte	0x4a8
 811 0253 B4000000 		.4byte	0xb4
 812 0257 08       		.byte	0x8
 813 0258 08       		.uleb128 0x8
 814 0259 3B050000 		.4byte	.LASF34
 815 025d 06       		.byte	0x6
 816 025e A904     		.2byte	0x4a9
 817 0260 A9000000 		.4byte	0xa9
 818 0264 0A       		.byte	0xa
 819 0265 08       		.uleb128 0x8
 820 0266 1B000000 		.4byte	.LASF35
 821 026a 06       		.byte	0x6
 822 026b AA04     		.2byte	0x4aa
ARM GAS  /tmp/ccOiGado.s 			page 18


 823 026d B4000000 		.4byte	0xb4
 824 0271 0C       		.byte	0xc
 825 0272 08       		.uleb128 0x8
 826 0273 45050000 		.4byte	.LASF36
 827 0277 06       		.byte	0x6
 828 0278 AB04     		.2byte	0x4ab
 829 027a A9000000 		.4byte	0xa9
 830 027e 0E       		.byte	0xe
 831 027f 09       		.uleb128 0x9
 832 0280 535200   		.ascii	"SR\000"
 833 0283 06       		.byte	0x6
 834 0284 AC04     		.2byte	0x4ac
 835 0286 B4000000 		.4byte	0xb4
 836 028a 10       		.byte	0x10
 837 028b 08       		.uleb128 0x8
 838 028c 4F050000 		.4byte	.LASF37
 839 0290 06       		.byte	0x6
 840 0291 AD04     		.2byte	0x4ad
 841 0293 A9000000 		.4byte	0xa9
 842 0297 12       		.byte	0x12
 843 0298 09       		.uleb128 0x9
 844 0299 45475200 		.ascii	"EGR\000"
 845 029d 06       		.byte	0x6
 846 029e AE04     		.2byte	0x4ae
 847 02a0 B4000000 		.4byte	0xb4
 848 02a4 14       		.byte	0x14
 849 02a5 08       		.uleb128 0x8
 850 02a6 59050000 		.4byte	.LASF38
 851 02aa 06       		.byte	0x6
 852 02ab AF04     		.2byte	0x4af
 853 02ad A9000000 		.4byte	0xa9
 854 02b1 16       		.byte	0x16
 855 02b2 08       		.uleb128 0x8
 856 02b3 80010000 		.4byte	.LASF39
 857 02b7 06       		.byte	0x6
 858 02b8 B004     		.2byte	0x4b0
 859 02ba B4000000 		.4byte	0xb4
 860 02be 18       		.byte	0x18
 861 02bf 08       		.uleb128 0x8
 862 02c0 63050000 		.4byte	.LASF40
 863 02c4 06       		.byte	0x6
 864 02c5 B104     		.2byte	0x4b1
 865 02c7 A9000000 		.4byte	0xa9
 866 02cb 1A       		.byte	0x1a
 867 02cc 08       		.uleb128 0x8
 868 02cd 86010000 		.4byte	.LASF41
 869 02d1 06       		.byte	0x6
 870 02d2 B204     		.2byte	0x4b2
 871 02d4 B4000000 		.4byte	0xb4
 872 02d8 1C       		.byte	0x1c
 873 02d9 08       		.uleb128 0x8
 874 02da 93060000 		.4byte	.LASF42
 875 02de 06       		.byte	0x6
 876 02df B304     		.2byte	0x4b3
 877 02e1 A9000000 		.4byte	0xa9
 878 02e5 1E       		.byte	0x1e
 879 02e6 08       		.uleb128 0x8
ARM GAS  /tmp/ccOiGado.s 			page 19


 880 02e7 7D020000 		.4byte	.LASF43
 881 02eb 06       		.byte	0x6
 882 02ec B404     		.2byte	0x4b4
 883 02ee B4000000 		.4byte	0xb4
 884 02f2 20       		.byte	0x20
 885 02f3 08       		.uleb128 0x8
 886 02f4 6D050000 		.4byte	.LASF44
 887 02f8 06       		.byte	0x6
 888 02f9 B504     		.2byte	0x4b5
 889 02fb A9000000 		.4byte	0xa9
 890 02ff 22       		.byte	0x22
 891 0300 09       		.uleb128 0x9
 892 0301 434E5400 		.ascii	"CNT\000"
 893 0305 06       		.byte	0x6
 894 0306 B604     		.2byte	0x4b6
 895 0308 B4000000 		.4byte	0xb4
 896 030c 24       		.byte	0x24
 897 030d 08       		.uleb128 0x8
 898 030e 77050000 		.4byte	.LASF45
 899 0312 06       		.byte	0x6
 900 0313 B704     		.2byte	0x4b7
 901 0315 A9000000 		.4byte	0xa9
 902 0319 26       		.byte	0x26
 903 031a 09       		.uleb128 0x9
 904 031b 50534300 		.ascii	"PSC\000"
 905 031f 06       		.byte	0x6
 906 0320 B804     		.2byte	0x4b8
 907 0322 B4000000 		.4byte	0xb4
 908 0326 28       		.byte	0x28
 909 0327 08       		.uleb128 0x8
 910 0328 71070000 		.4byte	.LASF46
 911 032c 06       		.byte	0x6
 912 032d B904     		.2byte	0x4b9
 913 032f A9000000 		.4byte	0xa9
 914 0333 2A       		.byte	0x2a
 915 0334 09       		.uleb128 0x9
 916 0335 41525200 		.ascii	"ARR\000"
 917 0339 06       		.byte	0x6
 918 033a BA04     		.2byte	0x4ba
 919 033c B4000000 		.4byte	0xb4
 920 0340 2C       		.byte	0x2c
 921 0341 08       		.uleb128 0x8
 922 0342 9C040000 		.4byte	.LASF47
 923 0346 06       		.byte	0x6
 924 0347 BB04     		.2byte	0x4bb
 925 0349 A9000000 		.4byte	0xa9
 926 034d 2E       		.byte	0x2e
 927 034e 09       		.uleb128 0x9
 928 034f 52435200 		.ascii	"RCR\000"
 929 0353 06       		.byte	0x6
 930 0354 BC04     		.2byte	0x4bc
 931 0356 B4000000 		.4byte	0xb4
 932 035a 30       		.byte	0x30
 933 035b 08       		.uleb128 0x8
 934 035c E1010000 		.4byte	.LASF48
 935 0360 06       		.byte	0x6
 936 0361 BD04     		.2byte	0x4bd
ARM GAS  /tmp/ccOiGado.s 			page 20


 937 0363 A9000000 		.4byte	0xa9
 938 0367 32       		.byte	0x32
 939 0368 08       		.uleb128 0x8
 940 0369 B2070000 		.4byte	.LASF49
 941 036d 06       		.byte	0x6
 942 036e BE04     		.2byte	0x4be
 943 0370 B4000000 		.4byte	0xb4
 944 0374 34       		.byte	0x34
 945 0375 08       		.uleb128 0x8
 946 0376 EC010000 		.4byte	.LASF50
 947 037a 06       		.byte	0x6
 948 037b BF04     		.2byte	0x4bf
 949 037d A9000000 		.4byte	0xa9
 950 0381 36       		.byte	0x36
 951 0382 08       		.uleb128 0x8
 952 0383 B7070000 		.4byte	.LASF51
 953 0387 06       		.byte	0x6
 954 0388 C004     		.2byte	0x4c0
 955 038a B4000000 		.4byte	0xb4
 956 038e 38       		.byte	0x38
 957 038f 08       		.uleb128 0x8
 958 0390 F7010000 		.4byte	.LASF52
 959 0394 06       		.byte	0x6
 960 0395 C104     		.2byte	0x4c1
 961 0397 A9000000 		.4byte	0xa9
 962 039b 3A       		.byte	0x3a
 963 039c 08       		.uleb128 0x8
 964 039d BC070000 		.4byte	.LASF53
 965 03a1 06       		.byte	0x6
 966 03a2 C204     		.2byte	0x4c2
 967 03a4 B4000000 		.4byte	0xb4
 968 03a8 3C       		.byte	0x3c
 969 03a9 08       		.uleb128 0x8
 970 03aa 02020000 		.4byte	.LASF54
 971 03ae 06       		.byte	0x6
 972 03af C304     		.2byte	0x4c3
 973 03b1 A9000000 		.4byte	0xa9
 974 03b5 3E       		.byte	0x3e
 975 03b6 08       		.uleb128 0x8
 976 03b7 C1070000 		.4byte	.LASF55
 977 03bb 06       		.byte	0x6
 978 03bc C404     		.2byte	0x4c4
 979 03be B4000000 		.4byte	0xb4
 980 03c2 40       		.byte	0x40
 981 03c3 08       		.uleb128 0x8
 982 03c4 C6070000 		.4byte	.LASF56
 983 03c8 06       		.byte	0x6
 984 03c9 C504     		.2byte	0x4c5
 985 03cb A9000000 		.4byte	0xa9
 986 03cf 42       		.byte	0x42
 987 03d0 08       		.uleb128 0x8
 988 03d1 5B010000 		.4byte	.LASF57
 989 03d5 06       		.byte	0x6
 990 03d6 C604     		.2byte	0x4c6
 991 03d8 B4000000 		.4byte	0xb4
 992 03dc 44       		.byte	0x44
 993 03dd 08       		.uleb128 0x8
ARM GAS  /tmp/ccOiGado.s 			page 21


 994 03de DC040000 		.4byte	.LASF58
 995 03e2 06       		.byte	0x6
 996 03e3 C704     		.2byte	0x4c7
 997 03e5 A9000000 		.4byte	0xa9
 998 03e9 46       		.byte	0x46
 999 03ea 09       		.uleb128 0x9
 1000 03eb 44435200 		.ascii	"DCR\000"
 1001 03ef 06       		.byte	0x6
 1002 03f0 C804     		.2byte	0x4c8
 1003 03f2 B4000000 		.4byte	0xb4
 1004 03f6 48       		.byte	0x48
 1005 03f7 08       		.uleb128 0x8
 1006 03f8 DB070000 		.4byte	.LASF59
 1007 03fc 06       		.byte	0x6
 1008 03fd C904     		.2byte	0x4c9
 1009 03ff A9000000 		.4byte	0xa9
 1010 0403 4A       		.byte	0x4a
 1011 0404 08       		.uleb128 0x8
 1012 0405 FA060000 		.4byte	.LASF60
 1013 0409 06       		.byte	0x6
 1014 040a CA04     		.2byte	0x4ca
 1015 040c B4000000 		.4byte	0xb4
 1016 0410 4C       		.byte	0x4c
 1017 0411 08       		.uleb128 0x8
 1018 0412 1D020000 		.4byte	.LASF61
 1019 0416 06       		.byte	0x6
 1020 0417 CB04     		.2byte	0x4cb
 1021 0419 A9000000 		.4byte	0xa9
 1022 041d 4E       		.byte	0x4e
 1023 041e 00       		.byte	0
 1024 041f 0A       		.uleb128 0xa
 1025 0420 6D000000 		.4byte	.LASF62
 1026 0424 06       		.byte	0x6
 1027 0425 CC04     		.2byte	0x4cc
 1028 0427 0E020000 		.4byte	0x20e
 1029 042b 07       		.uleb128 0x7
 1030 042c 1C       		.byte	0x1c
 1031 042d 06       		.byte	0x6
 1032 042e D204     		.2byte	0x4d2
 1033 0430 E9040000 		.4byte	0x4e9
 1034 0434 09       		.uleb128 0x9
 1035 0435 535200   		.ascii	"SR\000"
 1036 0438 06       		.byte	0x6
 1037 0439 D404     		.2byte	0x4d4
 1038 043b B4000000 		.4byte	0xb4
 1039 043f 00       		.byte	0
 1040 0440 08       		.uleb128 0x8
 1041 0441 27050000 		.4byte	.LASF31
 1042 0445 06       		.byte	0x6
 1043 0446 D504     		.2byte	0x4d5
 1044 0448 A9000000 		.4byte	0xa9
 1045 044c 02       		.byte	0x2
 1046 044d 09       		.uleb128 0x9
 1047 044e 445200   		.ascii	"DR\000"
 1048 0451 06       		.byte	0x6
 1049 0452 D604     		.2byte	0x4d6
 1050 0454 B4000000 		.4byte	0xb4
ARM GAS  /tmp/ccOiGado.s 			page 22


 1051 0458 04       		.byte	0x4
 1052 0459 08       		.uleb128 0x8
 1053 045a 31050000 		.4byte	.LASF32
 1054 045e 06       		.byte	0x6
 1055 045f D704     		.2byte	0x4d7
 1056 0461 A9000000 		.4byte	0xa9
 1057 0465 06       		.byte	0x6
 1058 0466 09       		.uleb128 0x9
 1059 0467 42525200 		.ascii	"BRR\000"
 1060 046b 06       		.byte	0x6
 1061 046c D804     		.2byte	0x4d8
 1062 046e B4000000 		.4byte	0xb4
 1063 0472 08       		.byte	0x8
 1064 0473 08       		.uleb128 0x8
 1065 0474 3B050000 		.4byte	.LASF34
 1066 0478 06       		.byte	0x6
 1067 0479 D904     		.2byte	0x4d9
 1068 047b A9000000 		.4byte	0xa9
 1069 047f 0A       		.byte	0xa
 1070 0480 09       		.uleb128 0x9
 1071 0481 43523100 		.ascii	"CR1\000"
 1072 0485 06       		.byte	0x6
 1073 0486 DA04     		.2byte	0x4da
 1074 0488 B4000000 		.4byte	0xb4
 1075 048c 0C       		.byte	0xc
 1076 048d 08       		.uleb128 0x8
 1077 048e 45050000 		.4byte	.LASF36
 1078 0492 06       		.byte	0x6
 1079 0493 DB04     		.2byte	0x4db
 1080 0495 A9000000 		.4byte	0xa9
 1081 0499 0E       		.byte	0xe
 1082 049a 09       		.uleb128 0x9
 1083 049b 43523200 		.ascii	"CR2\000"
 1084 049f 06       		.byte	0x6
 1085 04a0 DC04     		.2byte	0x4dc
 1086 04a2 B4000000 		.4byte	0xb4
 1087 04a6 10       		.byte	0x10
 1088 04a7 08       		.uleb128 0x8
 1089 04a8 4F050000 		.4byte	.LASF37
 1090 04ac 06       		.byte	0x6
 1091 04ad DD04     		.2byte	0x4dd
 1092 04af A9000000 		.4byte	0xa9
 1093 04b3 12       		.byte	0x12
 1094 04b4 09       		.uleb128 0x9
 1095 04b5 43523300 		.ascii	"CR3\000"
 1096 04b9 06       		.byte	0x6
 1097 04ba DE04     		.2byte	0x4de
 1098 04bc B4000000 		.4byte	0xb4
 1099 04c0 14       		.byte	0x14
 1100 04c1 08       		.uleb128 0x8
 1101 04c2 59050000 		.4byte	.LASF38
 1102 04c6 06       		.byte	0x6
 1103 04c7 DF04     		.2byte	0x4df
 1104 04c9 A9000000 		.4byte	0xa9
 1105 04cd 16       		.byte	0x16
 1106 04ce 08       		.uleb128 0x8
 1107 04cf B3010000 		.4byte	.LASF63
ARM GAS  /tmp/ccOiGado.s 			page 23


 1108 04d3 06       		.byte	0x6
 1109 04d4 E004     		.2byte	0x4e0
 1110 04d6 B4000000 		.4byte	0xb4
 1111 04da 18       		.byte	0x18
 1112 04db 08       		.uleb128 0x8
 1113 04dc 63050000 		.4byte	.LASF40
 1114 04e0 06       		.byte	0x6
 1115 04e1 E104     		.2byte	0x4e1
 1116 04e3 A9000000 		.4byte	0xa9
 1117 04e7 1A       		.byte	0x1a
 1118 04e8 00       		.byte	0
 1119 04e9 0A       		.uleb128 0xa
 1120 04ea 10040000 		.4byte	.LASF64
 1121 04ee 06       		.byte	0x6
 1122 04ef E204     		.2byte	0x4e2
 1123 04f1 2B040000 		.4byte	0x42b
 1124 04f5 02       		.uleb128 0x2
 1125 04f6 08       		.byte	0x8
 1126 04f7 04       		.byte	0x4
 1127 04f8 BD060000 		.4byte	.LASF65
 1128 04fc 11       		.uleb128 0x11
 1129 04fd 04       		.byte	0x4
 1130 04fe 04       		.uleb128 0x4
 1131 04ff 5B040000 		.4byte	.LASF66
 1132 0503 07       		.byte	0x7
 1133 0504 07       		.byte	0x7
 1134 0505 2C000000 		.4byte	0x2c
 1135 0509 04       		.uleb128 0x4
 1136 050a 66000000 		.4byte	.LASF67
 1137 050e 08       		.byte	0x8
 1138 050f 2C       		.byte	0x2c
 1139 0510 70000000 		.4byte	0x70
 1140 0514 04       		.uleb128 0x4
 1141 0515 B5060000 		.4byte	.LASF68
 1142 0519 08       		.byte	0x8
 1143 051a 72       		.byte	0x72
 1144 051b 70000000 		.4byte	0x70
 1145 051f 0A       		.uleb128 0xa
 1146 0520 5D030000 		.4byte	.LASF69
 1147 0524 09       		.byte	0x9
 1148 0525 6501     		.2byte	0x165
 1149 0527 97000000 		.4byte	0x97
 1150 052b 12       		.uleb128 0x12
 1151 052c 04       		.byte	0x4
 1152 052d 08       		.byte	0x8
 1153 052e A6       		.byte	0xa6
 1154 052f 4A050000 		.4byte	0x54a
 1155 0533 13       		.uleb128 0x13
 1156 0534 03040000 		.4byte	.LASF70
 1157 0538 08       		.byte	0x8
 1158 0539 A8       		.byte	0xa8
 1159 053a 1F050000 		.4byte	0x51f
 1160 053e 13       		.uleb128 0x13
 1161 053f 64030000 		.4byte	.LASF71
 1162 0543 08       		.byte	0x8
 1163 0544 A9       		.byte	0xa9
 1164 0545 4A050000 		.4byte	0x54a
ARM GAS  /tmp/ccOiGado.s 			page 24


 1165 0549 00       		.byte	0
 1166 054a 14       		.uleb128 0x14
 1167 054b 45000000 		.4byte	0x45
 1168 054f 5A050000 		.4byte	0x55a
 1169 0553 15       		.uleb128 0x15
 1170 0554 DE000000 		.4byte	0xde
 1171 0558 03       		.byte	0x3
 1172 0559 00       		.byte	0
 1173 055a 16       		.uleb128 0x16
 1174 055b 08       		.byte	0x8
 1175 055c 08       		.byte	0x8
 1176 055d A3       		.byte	0xa3
 1177 055e 7B050000 		.4byte	0x57b
 1178 0562 17       		.uleb128 0x17
 1179 0563 83060000 		.4byte	.LASF72
 1180 0567 08       		.byte	0x8
 1181 0568 A5       		.byte	0xa5
 1182 0569 2C000000 		.4byte	0x2c
 1183 056d 00       		.byte	0
 1184 056e 17       		.uleb128 0x17
 1185 056f 8B060000 		.4byte	.LASF73
 1186 0573 08       		.byte	0x8
 1187 0574 AA       		.byte	0xaa
 1188 0575 2B050000 		.4byte	0x52b
 1189 0579 04       		.byte	0x4
 1190 057a 00       		.byte	0
 1191 057b 04       		.uleb128 0x4
 1192 057c 26060000 		.4byte	.LASF74
 1193 0580 08       		.byte	0x8
 1194 0581 AB       		.byte	0xab
 1195 0582 5A050000 		.4byte	0x55a
 1196 0586 04       		.uleb128 0x4
 1197 0587 F9050000 		.4byte	.LASF75
 1198 058b 08       		.byte	0x8
 1199 058c AF       		.byte	0xaf
 1200 058d FE040000 		.4byte	0x4fe
 1201 0591 04       		.uleb128 0x4
 1202 0592 46070000 		.4byte	.LASF76
 1203 0596 0A       		.byte	0xa
 1204 0597 16       		.byte	0x16
 1205 0598 82000000 		.4byte	0x82
 1206 059c 18       		.uleb128 0x18
 1207 059d 3F030000 		.4byte	.LASF81
 1208 05a1 18       		.byte	0x18
 1209 05a2 0A       		.byte	0xa
 1210 05a3 2D       		.byte	0x2d
 1211 05a4 EF050000 		.4byte	0x5ef
 1212 05a8 17       		.uleb128 0x17
 1213 05a9 47030000 		.4byte	.LASF77
 1214 05ad 0A       		.byte	0xa
 1215 05ae 2F       		.byte	0x2f
 1216 05af EF050000 		.4byte	0x5ef
 1217 05b3 00       		.byte	0
 1218 05b4 19       		.uleb128 0x19
 1219 05b5 5F6B00   		.ascii	"_k\000"
 1220 05b8 0A       		.byte	0xa
 1221 05b9 30       		.byte	0x30
ARM GAS  /tmp/ccOiGado.s 			page 25


 1222 05ba 2C000000 		.4byte	0x2c
 1223 05be 04       		.byte	0x4
 1224 05bf 17       		.uleb128 0x17
 1225 05c0 6E060000 		.4byte	.LASF78
 1226 05c4 0A       		.byte	0xa
 1227 05c5 30       		.byte	0x30
 1228 05c6 2C000000 		.4byte	0x2c
 1229 05ca 08       		.byte	0x8
 1230 05cb 17       		.uleb128 0x17
 1231 05cc 25030000 		.4byte	.LASF79
 1232 05d0 0A       		.byte	0xa
 1233 05d1 30       		.byte	0x30
 1234 05d2 2C000000 		.4byte	0x2c
 1235 05d6 0C       		.byte	0xc
 1236 05d7 17       		.uleb128 0x17
 1237 05d8 97040000 		.4byte	.LASF80
 1238 05dc 0A       		.byte	0xa
 1239 05dd 30       		.byte	0x30
 1240 05de 2C000000 		.4byte	0x2c
 1241 05e2 10       		.byte	0x10
 1242 05e3 19       		.uleb128 0x19
 1243 05e4 5F7800   		.ascii	"_x\000"
 1244 05e7 0A       		.byte	0xa
 1245 05e8 31       		.byte	0x31
 1246 05e9 F5050000 		.4byte	0x5f5
 1247 05ed 14       		.byte	0x14
 1248 05ee 00       		.byte	0
 1249 05ef 1A       		.uleb128 0x1a
 1250 05f0 04       		.byte	0x4
 1251 05f1 9C050000 		.4byte	0x59c
 1252 05f5 14       		.uleb128 0x14
 1253 05f6 91050000 		.4byte	0x591
 1254 05fa 05060000 		.4byte	0x605
 1255 05fe 15       		.uleb128 0x15
 1256 05ff DE000000 		.4byte	0xde
 1257 0603 00       		.byte	0
 1258 0604 00       		.byte	0
 1259 0605 18       		.uleb128 0x18
 1260 0606 58030000 		.4byte	.LASF82
 1261 060a 24       		.byte	0x24
 1262 060b 0A       		.byte	0xa
 1263 060c 35       		.byte	0x35
 1264 060d 7E060000 		.4byte	0x67e
 1265 0611 17       		.uleb128 0x17
 1266 0612 77010000 		.4byte	.LASF83
 1267 0616 0A       		.byte	0xa
 1268 0617 37       		.byte	0x37
 1269 0618 2C000000 		.4byte	0x2c
 1270 061c 00       		.byte	0
 1271 061d 17       		.uleb128 0x17
 1272 061e 49080000 		.4byte	.LASF84
 1273 0622 0A       		.byte	0xa
 1274 0623 38       		.byte	0x38
 1275 0624 2C000000 		.4byte	0x2c
 1276 0628 04       		.byte	0x4
 1277 0629 17       		.uleb128 0x17
 1278 062a C4010000 		.4byte	.LASF85
ARM GAS  /tmp/ccOiGado.s 			page 26


 1279 062e 0A       		.byte	0xa
 1280 062f 39       		.byte	0x39
 1281 0630 2C000000 		.4byte	0x2c
 1282 0634 08       		.byte	0x8
 1283 0635 17       		.uleb128 0x17
 1284 0636 91080000 		.4byte	.LASF86
 1285 063a 0A       		.byte	0xa
 1286 063b 3A       		.byte	0x3a
 1287 063c 2C000000 		.4byte	0x2c
 1288 0640 0C       		.byte	0xc
 1289 0641 17       		.uleb128 0x17
 1290 0642 A7040000 		.4byte	.LASF87
 1291 0646 0A       		.byte	0xa
 1292 0647 3B       		.byte	0x3b
 1293 0648 2C000000 		.4byte	0x2c
 1294 064c 10       		.byte	0x10
 1295 064d 17       		.uleb128 0x17
 1296 064e F4070000 		.4byte	.LASF88
 1297 0652 0A       		.byte	0xa
 1298 0653 3C       		.byte	0x3c
 1299 0654 2C000000 		.4byte	0x2c
 1300 0658 14       		.byte	0x14
 1301 0659 17       		.uleb128 0x17
 1302 065a A3060000 		.4byte	.LASF89
 1303 065e 0A       		.byte	0xa
 1304 065f 3D       		.byte	0x3d
 1305 0660 2C000000 		.4byte	0x2c
 1306 0664 18       		.byte	0x18
 1307 0665 17       		.uleb128 0x17
 1308 0666 02060000 		.4byte	.LASF90
 1309 066a 0A       		.byte	0xa
 1310 066b 3E       		.byte	0x3e
 1311 066c 2C000000 		.4byte	0x2c
 1312 0670 1C       		.byte	0x1c
 1313 0671 17       		.uleb128 0x17
 1314 0672 2F080000 		.4byte	.LASF91
 1315 0676 0A       		.byte	0xa
 1316 0677 3F       		.byte	0x3f
 1317 0678 2C000000 		.4byte	0x2c
 1318 067c 20       		.byte	0x20
 1319 067d 00       		.byte	0
 1320 067e 1B       		.uleb128 0x1b
 1321 067f D3010000 		.4byte	.LASF92
 1322 0683 0801     		.2byte	0x108
 1323 0685 0A       		.byte	0xa
 1324 0686 48       		.byte	0x48
 1325 0687 BE060000 		.4byte	0x6be
 1326 068b 17       		.uleb128 0x17
 1327 068c 20000000 		.4byte	.LASF93
 1328 0690 0A       		.byte	0xa
 1329 0691 49       		.byte	0x49
 1330 0692 BE060000 		.4byte	0x6be
 1331 0696 00       		.byte	0
 1332 0697 17       		.uleb128 0x17
 1333 0698 00000000 		.4byte	.LASF94
 1334 069c 0A       		.byte	0xa
 1335 069d 4A       		.byte	0x4a
ARM GAS  /tmp/ccOiGado.s 			page 27


 1336 069e BE060000 		.4byte	0x6be
 1337 06a2 80       		.byte	0x80
 1338 06a3 1C       		.uleb128 0x1c
 1339 06a4 25070000 		.4byte	.LASF95
 1340 06a8 0A       		.byte	0xa
 1341 06a9 4C       		.byte	0x4c
 1342 06aa 91050000 		.4byte	0x591
 1343 06ae 0001     		.2byte	0x100
 1344 06b0 1C       		.uleb128 0x1c
 1345 06b1 49020000 		.4byte	.LASF96
 1346 06b5 0A       		.byte	0xa
 1347 06b6 4F       		.byte	0x4f
 1348 06b7 91050000 		.4byte	0x591
 1349 06bb 0401     		.2byte	0x104
 1350 06bd 00       		.byte	0
 1351 06be 14       		.uleb128 0x14
 1352 06bf FC040000 		.4byte	0x4fc
 1353 06c3 CE060000 		.4byte	0x6ce
 1354 06c7 15       		.uleb128 0x15
 1355 06c8 DE000000 		.4byte	0xde
 1356 06cc 1F       		.byte	0x1f
 1357 06cd 00       		.byte	0
 1358 06ce 1B       		.uleb128 0x1b
 1359 06cf B0040000 		.4byte	.LASF97
 1360 06d3 9001     		.2byte	0x190
 1361 06d5 0A       		.byte	0xa
 1362 06d6 5B       		.byte	0x5b
 1363 06d7 0C070000 		.4byte	0x70c
 1364 06db 17       		.uleb128 0x17
 1365 06dc 47030000 		.4byte	.LASF77
 1366 06e0 0A       		.byte	0xa
 1367 06e1 5C       		.byte	0x5c
 1368 06e2 0C070000 		.4byte	0x70c
 1369 06e6 00       		.byte	0
 1370 06e7 17       		.uleb128 0x17
 1371 06e8 61060000 		.4byte	.LASF98
 1372 06ec 0A       		.byte	0xa
 1373 06ed 5D       		.byte	0x5d
 1374 06ee 2C000000 		.4byte	0x2c
 1375 06f2 04       		.byte	0x4
 1376 06f3 17       		.uleb128 0x17
 1377 06f4 FF020000 		.4byte	.LASF99
 1378 06f8 0A       		.byte	0xa
 1379 06f9 5F       		.byte	0x5f
 1380 06fa 12070000 		.4byte	0x712
 1381 06fe 08       		.byte	0x8
 1382 06ff 17       		.uleb128 0x17
 1383 0700 D3010000 		.4byte	.LASF92
 1384 0704 0A       		.byte	0xa
 1385 0705 60       		.byte	0x60
 1386 0706 7E060000 		.4byte	0x67e
 1387 070a 88       		.byte	0x88
 1388 070b 00       		.byte	0
 1389 070c 1A       		.uleb128 0x1a
 1390 070d 04       		.byte	0x4
 1391 070e CE060000 		.4byte	0x6ce
 1392 0712 14       		.uleb128 0x14
ARM GAS  /tmp/ccOiGado.s 			page 28


 1393 0713 22070000 		.4byte	0x722
 1394 0717 22070000 		.4byte	0x722
 1395 071b 15       		.uleb128 0x15
 1396 071c DE000000 		.4byte	0xde
 1397 0720 1F       		.byte	0x1f
 1398 0721 00       		.byte	0
 1399 0722 1A       		.uleb128 0x1a
 1400 0723 04       		.byte	0x4
 1401 0724 28070000 		.4byte	0x728
 1402 0728 1D       		.uleb128 0x1d
 1403 0729 18       		.uleb128 0x18
 1404 072a 1A080000 		.4byte	.LASF100
 1405 072e 08       		.byte	0x8
 1406 072f 0A       		.byte	0xa
 1407 0730 73       		.byte	0x73
 1408 0731 4E070000 		.4byte	0x74e
 1409 0735 17       		.uleb128 0x17
 1410 0736 BE010000 		.4byte	.LASF101
 1411 073a 0A       		.byte	0xa
 1412 073b 74       		.byte	0x74
 1413 073c 4E070000 		.4byte	0x74e
 1414 0740 00       		.byte	0
 1415 0741 17       		.uleb128 0x17
 1416 0742 EC060000 		.4byte	.LASF102
 1417 0746 0A       		.byte	0xa
 1418 0747 75       		.byte	0x75
 1419 0748 2C000000 		.4byte	0x2c
 1420 074c 04       		.byte	0x4
 1421 074d 00       		.byte	0
 1422 074e 1A       		.uleb128 0x1a
 1423 074f 04       		.byte	0x4
 1424 0750 45000000 		.4byte	0x45
 1425 0754 18       		.uleb128 0x18
 1426 0755 31060000 		.4byte	.LASF103
 1427 0759 68       		.byte	0x68
 1428 075a 0A       		.byte	0xa
 1429 075b B3       		.byte	0xb3
 1430 075c 7E080000 		.4byte	0x87e
 1431 0760 19       		.uleb128 0x19
 1432 0761 5F7000   		.ascii	"_p\000"
 1433 0764 0A       		.byte	0xa
 1434 0765 B4       		.byte	0xb4
 1435 0766 4E070000 		.4byte	0x74e
 1436 076a 00       		.byte	0
 1437 076b 19       		.uleb128 0x19
 1438 076c 5F7200   		.ascii	"_r\000"
 1439 076f 0A       		.byte	0xa
 1440 0770 B5       		.byte	0xb5
 1441 0771 2C000000 		.4byte	0x2c
 1442 0775 04       		.byte	0x4
 1443 0776 19       		.uleb128 0x19
 1444 0777 5F7700   		.ascii	"_w\000"
 1445 077a 0A       		.byte	0xa
 1446 077b B6       		.byte	0xb6
 1447 077c 2C000000 		.4byte	0x2c
 1448 0780 08       		.byte	0x8
 1449 0781 17       		.uleb128 0x17
ARM GAS  /tmp/ccOiGado.s 			page 29


 1450 0782 42020000 		.4byte	.LASF104
 1451 0786 0A       		.byte	0xa
 1452 0787 B7       		.byte	0xb7
 1453 0788 4C000000 		.4byte	0x4c
 1454 078c 0C       		.byte	0xc
 1455 078d 17       		.uleb128 0x17
 1456 078e A2030000 		.4byte	.LASF105
 1457 0792 0A       		.byte	0xa
 1458 0793 B8       		.byte	0xb8
 1459 0794 4C000000 		.4byte	0x4c
 1460 0798 0E       		.byte	0xe
 1461 0799 19       		.uleb128 0x19
 1462 079a 5F626600 		.ascii	"_bf\000"
 1463 079e 0A       		.byte	0xa
 1464 079f B9       		.byte	0xb9
 1465 07a0 29070000 		.4byte	0x729
 1466 07a4 10       		.byte	0x10
 1467 07a5 17       		.uleb128 0x17
 1468 07a6 C9000000 		.4byte	.LASF106
 1469 07aa 0A       		.byte	0xa
 1470 07ab BA       		.byte	0xba
 1471 07ac 2C000000 		.4byte	0x2c
 1472 07b0 18       		.byte	0x18
 1473 07b1 17       		.uleb128 0x17
 1474 07b2 0D020000 		.4byte	.LASF107
 1475 07b6 0A       		.byte	0xa
 1476 07b7 C1       		.byte	0xc1
 1477 07b8 FC040000 		.4byte	0x4fc
 1478 07bc 1C       		.byte	0x1c
 1479 07bd 17       		.uleb128 0x17
 1480 07be 4D030000 		.4byte	.LASF108
 1481 07c2 0A       		.byte	0xa
 1482 07c3 C3       		.byte	0xc3
 1483 07c4 EB090000 		.4byte	0x9eb
 1484 07c8 20       		.byte	0x20
 1485 07c9 17       		.uleb128 0x17
 1486 07ca 37040000 		.4byte	.LASF109
 1487 07ce 0A       		.byte	0xa
 1488 07cf C5       		.byte	0xc5
 1489 07d0 1A0A0000 		.4byte	0xa1a
 1490 07d4 24       		.byte	0x24
 1491 07d5 17       		.uleb128 0x17
 1492 07d6 9D060000 		.4byte	.LASF110
 1493 07da 0A       		.byte	0xa
 1494 07db C8       		.byte	0xc8
 1495 07dc 3E0A0000 		.4byte	0xa3e
 1496 07e0 28       		.byte	0x28
 1497 07e1 17       		.uleb128 0x17
 1498 07e2 8C010000 		.4byte	.LASF111
 1499 07e6 0A       		.byte	0xa
 1500 07e7 C9       		.byte	0xc9
 1501 07e8 580A0000 		.4byte	0xa58
 1502 07ec 2C       		.byte	0x2c
 1503 07ed 19       		.uleb128 0x19
 1504 07ee 5F756200 		.ascii	"_ub\000"
 1505 07f2 0A       		.byte	0xa
 1506 07f3 CC       		.byte	0xcc
ARM GAS  /tmp/ccOiGado.s 			page 30


 1507 07f4 29070000 		.4byte	0x729
 1508 07f8 30       		.byte	0x30
 1509 07f9 19       		.uleb128 0x19
 1510 07fa 5F757000 		.ascii	"_up\000"
 1511 07fe 0A       		.byte	0xa
 1512 07ff CD       		.byte	0xcd
 1513 0800 4E070000 		.4byte	0x74e
 1514 0804 38       		.byte	0x38
 1515 0805 19       		.uleb128 0x19
 1516 0806 5F757200 		.ascii	"_ur\000"
 1517 080a 0A       		.byte	0xa
 1518 080b CE       		.byte	0xce
 1519 080c 2C000000 		.4byte	0x2c
 1520 0810 3C       		.byte	0x3c
 1521 0811 17       		.uleb128 0x17
 1522 0812 B8010000 		.4byte	.LASF112
 1523 0816 0A       		.byte	0xa
 1524 0817 D1       		.byte	0xd1
 1525 0818 5E0A0000 		.4byte	0xa5e
 1526 081c 40       		.byte	0x40
 1527 081d 17       		.uleb128 0x17
 1528 081e 21080000 		.4byte	.LASF113
 1529 0822 0A       		.byte	0xa
 1530 0823 D2       		.byte	0xd2
 1531 0824 6E0A0000 		.4byte	0xa6e
 1532 0828 43       		.byte	0x43
 1533 0829 19       		.uleb128 0x19
 1534 082a 5F6C6200 		.ascii	"_lb\000"
 1535 082e 0A       		.byte	0xa
 1536 082f D5       		.byte	0xd5
 1537 0830 29070000 		.4byte	0x729
 1538 0834 44       		.byte	0x44
 1539 0835 17       		.uleb128 0x17
 1540 0836 D5060000 		.4byte	.LASF114
 1541 083a 0A       		.byte	0xa
 1542 083b D8       		.byte	0xd8
 1543 083c 2C000000 		.4byte	0x2c
 1544 0840 4C       		.byte	0x4c
 1545 0841 17       		.uleb128 0x17
 1546 0842 B3020000 		.4byte	.LASF115
 1547 0846 0A       		.byte	0xa
 1548 0847 D9       		.byte	0xd9
 1549 0848 09050000 		.4byte	0x509
 1550 084c 50       		.byte	0x50
 1551 084d 17       		.uleb128 0x17
 1552 084e AD030000 		.4byte	.LASF116
 1553 0852 0A       		.byte	0xa
 1554 0853 DC       		.byte	0xdc
 1555 0854 9C080000 		.4byte	0x89c
 1556 0858 54       		.byte	0x54
 1557 0859 17       		.uleb128 0x17
 1558 085a 23040000 		.4byte	.LASF117
 1559 085e 0A       		.byte	0xa
 1560 085f E0       		.byte	0xe0
 1561 0860 86050000 		.4byte	0x586
 1562 0864 58       		.byte	0x58
 1563 0865 17       		.uleb128 0x17
ARM GAS  /tmp/ccOiGado.s 			page 31


 1564 0866 43060000 		.4byte	.LASF118
 1565 086a 0A       		.byte	0xa
 1566 086b E2       		.byte	0xe2
 1567 086c 7B050000 		.4byte	0x57b
 1568 0870 5C       		.byte	0x5c
 1569 0871 17       		.uleb128 0x17
 1570 0872 11060000 		.4byte	.LASF119
 1571 0876 0A       		.byte	0xa
 1572 0877 E3       		.byte	0xe3
 1573 0878 2C000000 		.4byte	0x2c
 1574 087c 64       		.byte	0x64
 1575 087d 00       		.byte	0
 1576 087e 1E       		.uleb128 0x1e
 1577 087f 2C000000 		.4byte	0x2c
 1578 0883 9C080000 		.4byte	0x89c
 1579 0887 1F       		.uleb128 0x1f
 1580 0888 9C080000 		.4byte	0x89c
 1581 088c 1F       		.uleb128 0x1f
 1582 088d FC040000 		.4byte	0x4fc
 1583 0891 1F       		.uleb128 0x1f
 1584 0892 D9090000 		.4byte	0x9d9
 1585 0896 1F       		.uleb128 0x1f
 1586 0897 2C000000 		.4byte	0x2c
 1587 089b 00       		.byte	0
 1588 089c 1A       		.uleb128 0x1a
 1589 089d 04       		.byte	0x4
 1590 089e A7080000 		.4byte	0x8a7
 1591 08a2 06       		.uleb128 0x6
 1592 08a3 9C080000 		.4byte	0x89c
 1593 08a7 20       		.uleb128 0x20
 1594 08a8 76060000 		.4byte	.LASF120
 1595 08ac 2804     		.2byte	0x428
 1596 08ae 0A       		.byte	0xa
 1597 08af 3802     		.2byte	0x238
 1598 08b1 D9090000 		.4byte	0x9d9
 1599 08b5 08       		.uleb128 0x8
 1600 08b6 FC030000 		.4byte	.LASF121
 1601 08ba 0A       		.byte	0xa
 1602 08bb 3A02     		.2byte	0x23a
 1603 08bd 2C000000 		.4byte	0x2c
 1604 08c1 00       		.byte	0
 1605 08c2 08       		.uleb128 0x8
 1606 08c3 51020000 		.4byte	.LASF122
 1607 08c7 0A       		.byte	0xa
 1608 08c8 3F02     		.2byte	0x23f
 1609 08ca C50A0000 		.4byte	0xac5
 1610 08ce 04       		.byte	0x4
 1611 08cf 08       		.uleb128 0x8
 1612 08d0 E6070000 		.4byte	.LASF123
 1613 08d4 0A       		.byte	0xa
 1614 08d5 3F02     		.2byte	0x23f
 1615 08d7 C50A0000 		.4byte	0xac5
 1616 08db 08       		.byte	0x8
 1617 08dc 08       		.uleb128 0x8
 1618 08dd 37030000 		.4byte	.LASF124
 1619 08e1 0A       		.byte	0xa
 1620 08e2 3F02     		.2byte	0x23f
ARM GAS  /tmp/ccOiGado.s 			page 32


 1621 08e4 C50A0000 		.4byte	0xac5
 1622 08e8 0C       		.byte	0xc
 1623 08e9 08       		.uleb128 0x8
 1624 08ea A8030000 		.4byte	.LASF125
 1625 08ee 0A       		.byte	0xa
 1626 08ef 4102     		.2byte	0x241
 1627 08f1 2C000000 		.4byte	0x2c
 1628 08f5 10       		.byte	0x10
 1629 08f6 08       		.uleb128 0x8
 1630 08f7 3F000000 		.4byte	.LASF126
 1631 08fb 0A       		.byte	0xa
 1632 08fc 4202     		.2byte	0x242
 1633 08fe A70C0000 		.4byte	0xca7
 1634 0902 14       		.byte	0x14
 1635 0903 08       		.uleb128 0x8
 1636 0904 8F070000 		.4byte	.LASF127
 1637 0908 0A       		.byte	0xa
 1638 0909 4402     		.2byte	0x244
 1639 090b 2C000000 		.4byte	0x2c
 1640 090f 30       		.byte	0x30
 1641 0910 08       		.uleb128 0x8
 1642 0911 57080000 		.4byte	.LASF128
 1643 0915 0A       		.byte	0xa
 1644 0916 4502     		.2byte	0x245
 1645 0918 0F0A0000 		.4byte	0xa0f
 1646 091c 34       		.byte	0x34
 1647 091d 08       		.uleb128 0x8
 1648 091e C2040000 		.4byte	.LASF129
 1649 0922 0A       		.byte	0xa
 1650 0923 4702     		.2byte	0x247
 1651 0925 2C000000 		.4byte	0x2c
 1652 0929 38       		.byte	0x38
 1653 092a 08       		.uleb128 0x8
 1654 092b D1070000 		.4byte	.LASF130
 1655 092f 0A       		.byte	0xa
 1656 0930 4902     		.2byte	0x249
 1657 0932 C20C0000 		.4byte	0xcc2
 1658 0936 3C       		.byte	0x3c
 1659 0937 08       		.uleb128 0x8
 1660 0938 2F040000 		.4byte	.LASF131
 1661 093c 0A       		.byte	0xa
 1662 093d 4C02     		.2byte	0x24c
 1663 093f EF050000 		.4byte	0x5ef
 1664 0943 40       		.byte	0x40
 1665 0944 08       		.uleb128 0x8
 1666 0945 73020000 		.4byte	.LASF132
 1667 0949 0A       		.byte	0xa
 1668 094a 4D02     		.2byte	0x24d
 1669 094c 2C000000 		.4byte	0x2c
 1670 0950 44       		.byte	0x44
 1671 0951 08       		.uleb128 0x8
 1672 0952 75080000 		.4byte	.LASF133
 1673 0956 0A       		.byte	0xa
 1674 0957 4E02     		.2byte	0x24e
 1675 0959 EF050000 		.4byte	0x5ef
 1676 095d 48       		.byte	0x48
 1677 095e 08       		.uleb128 0x8
ARM GAS  /tmp/ccOiGado.s 			page 33


 1678 095f 0A050000 		.4byte	.LASF134
 1679 0963 0A       		.byte	0xa
 1680 0964 4F02     		.2byte	0x24f
 1681 0966 C80C0000 		.4byte	0xcc8
 1682 096a 4C       		.byte	0x4c
 1683 096b 08       		.uleb128 0x8
 1684 096c 7B030000 		.4byte	.LASF135
 1685 0970 0A       		.byte	0xa
 1686 0971 5202     		.2byte	0x252
 1687 0973 2C000000 		.4byte	0x2c
 1688 0977 50       		.byte	0x50
 1689 0978 08       		.uleb128 0x8
 1690 0979 AB020000 		.4byte	.LASF136
 1691 097d 0A       		.byte	0xa
 1692 097e 5302     		.2byte	0x253
 1693 0980 D9090000 		.4byte	0x9d9
 1694 0984 54       		.byte	0x54
 1695 0985 08       		.uleb128 0x8
 1696 0986 1E040000 		.4byte	.LASF137
 1697 098a 0A       		.byte	0xa
 1698 098b 7602     		.2byte	0x276
 1699 098d 850C0000 		.4byte	0xc85
 1700 0991 58       		.byte	0x58
 1701 0992 21       		.uleb128 0x21
 1702 0993 B0040000 		.4byte	.LASF97
 1703 0997 0A       		.byte	0xa
 1704 0998 7A02     		.2byte	0x27a
 1705 099a 0C070000 		.4byte	0x70c
 1706 099e 4801     		.2byte	0x148
 1707 09a0 21       		.uleb128 0x21
 1708 09a1 5D000000 		.4byte	.LASF138
 1709 09a5 0A       		.byte	0xa
 1710 09a6 7B02     		.2byte	0x27b
 1711 09a8 CE060000 		.4byte	0x6ce
 1712 09ac 4C01     		.2byte	0x14c
 1713 09ae 21       		.uleb128 0x21
 1714 09af 10080000 		.4byte	.LASF139
 1715 09b3 0A       		.byte	0xa
 1716 09b4 7F02     		.2byte	0x27f
 1717 09b6 D90C0000 		.4byte	0xcd9
 1718 09ba DC02     		.2byte	0x2dc
 1719 09bc 21       		.uleb128 0x21
 1720 09bd 15020000 		.4byte	.LASF140
 1721 09c1 0A       		.byte	0xa
 1722 09c2 8402     		.2byte	0x284
 1723 09c4 8A0A0000 		.4byte	0xa8a
 1724 09c8 E002     		.2byte	0x2e0
 1725 09ca 21       		.uleb128 0x21
 1726 09cb CE010000 		.4byte	.LASF141
 1727 09cf 0A       		.byte	0xa
 1728 09d0 8502     		.2byte	0x285
 1729 09d2 E50C0000 		.4byte	0xce5
 1730 09d6 EC02     		.2byte	0x2ec
 1731 09d8 00       		.byte	0
 1732 09d9 1A       		.uleb128 0x1a
 1733 09da 04       		.byte	0x4
 1734 09db DF090000 		.4byte	0x9df
ARM GAS  /tmp/ccOiGado.s 			page 34


 1735 09df 02       		.uleb128 0x2
 1736 09e0 01       		.byte	0x1
 1737 09e1 08       		.byte	0x8
 1738 09e2 D0060000 		.4byte	.LASF142
 1739 09e6 06       		.uleb128 0x6
 1740 09e7 DF090000 		.4byte	0x9df
 1741 09eb 1A       		.uleb128 0x1a
 1742 09ec 04       		.byte	0x4
 1743 09ed 7E080000 		.4byte	0x87e
 1744 09f1 1E       		.uleb128 0x1e
 1745 09f2 2C000000 		.4byte	0x2c
 1746 09f6 0F0A0000 		.4byte	0xa0f
 1747 09fa 1F       		.uleb128 0x1f
 1748 09fb 9C080000 		.4byte	0x89c
 1749 09ff 1F       		.uleb128 0x1f
 1750 0a00 FC040000 		.4byte	0x4fc
 1751 0a04 1F       		.uleb128 0x1f
 1752 0a05 0F0A0000 		.4byte	0xa0f
 1753 0a09 1F       		.uleb128 0x1f
 1754 0a0a 2C000000 		.4byte	0x2c
 1755 0a0e 00       		.byte	0
 1756 0a0f 1A       		.uleb128 0x1a
 1757 0a10 04       		.byte	0x4
 1758 0a11 E6090000 		.4byte	0x9e6
 1759 0a15 06       		.uleb128 0x6
 1760 0a16 0F0A0000 		.4byte	0xa0f
 1761 0a1a 1A       		.uleb128 0x1a
 1762 0a1b 04       		.byte	0x4
 1763 0a1c F1090000 		.4byte	0x9f1
 1764 0a20 1E       		.uleb128 0x1e
 1765 0a21 14050000 		.4byte	0x514
 1766 0a25 3E0A0000 		.4byte	0xa3e
 1767 0a29 1F       		.uleb128 0x1f
 1768 0a2a 9C080000 		.4byte	0x89c
 1769 0a2e 1F       		.uleb128 0x1f
 1770 0a2f FC040000 		.4byte	0x4fc
 1771 0a33 1F       		.uleb128 0x1f
 1772 0a34 14050000 		.4byte	0x514
 1773 0a38 1F       		.uleb128 0x1f
 1774 0a39 2C000000 		.4byte	0x2c
 1775 0a3d 00       		.byte	0
 1776 0a3e 1A       		.uleb128 0x1a
 1777 0a3f 04       		.byte	0x4
 1778 0a40 200A0000 		.4byte	0xa20
 1779 0a44 1E       		.uleb128 0x1e
 1780 0a45 2C000000 		.4byte	0x2c
 1781 0a49 580A0000 		.4byte	0xa58
 1782 0a4d 1F       		.uleb128 0x1f
 1783 0a4e 9C080000 		.4byte	0x89c
 1784 0a52 1F       		.uleb128 0x1f
 1785 0a53 FC040000 		.4byte	0x4fc
 1786 0a57 00       		.byte	0
 1787 0a58 1A       		.uleb128 0x1a
 1788 0a59 04       		.byte	0x4
 1789 0a5a 440A0000 		.4byte	0xa44
 1790 0a5e 14       		.uleb128 0x14
 1791 0a5f 45000000 		.4byte	0x45
ARM GAS  /tmp/ccOiGado.s 			page 35


 1792 0a63 6E0A0000 		.4byte	0xa6e
 1793 0a67 15       		.uleb128 0x15
 1794 0a68 DE000000 		.4byte	0xde
 1795 0a6c 02       		.byte	0x2
 1796 0a6d 00       		.byte	0
 1797 0a6e 14       		.uleb128 0x14
 1798 0a6f 45000000 		.4byte	0x45
 1799 0a73 7E0A0000 		.4byte	0xa7e
 1800 0a77 15       		.uleb128 0x15
 1801 0a78 DE000000 		.4byte	0xde
 1802 0a7c 00       		.byte	0
 1803 0a7d 00       		.byte	0
 1804 0a7e 0A       		.uleb128 0xa
 1805 0a7f 1F060000 		.4byte	.LASF143
 1806 0a83 0A       		.byte	0xa
 1807 0a84 1D01     		.2byte	0x11d
 1808 0a86 54070000 		.4byte	0x754
 1809 0a8a 22       		.uleb128 0x22
 1810 0a8b EE070000 		.4byte	.LASF144
 1811 0a8f 0C       		.byte	0xc
 1812 0a90 0A       		.byte	0xa
 1813 0a91 2101     		.2byte	0x121
 1814 0a93 BF0A0000 		.4byte	0xabf
 1815 0a97 08       		.uleb128 0x8
 1816 0a98 47030000 		.4byte	.LASF77
 1817 0a9c 0A       		.byte	0xa
 1818 0a9d 2301     		.2byte	0x123
 1819 0a9f BF0A0000 		.4byte	0xabf
 1820 0aa3 00       		.byte	0
 1821 0aa4 08       		.uleb128 0x8
 1822 0aa5 B3030000 		.4byte	.LASF145
 1823 0aa9 0A       		.byte	0xa
 1824 0aaa 2401     		.2byte	0x124
 1825 0aac 2C000000 		.4byte	0x2c
 1826 0ab0 04       		.byte	0x4
 1827 0ab1 08       		.uleb128 0x8
 1828 0ab2 19060000 		.4byte	.LASF146
 1829 0ab6 0A       		.byte	0xa
 1830 0ab7 2501     		.2byte	0x125
 1831 0ab9 C50A0000 		.4byte	0xac5
 1832 0abd 08       		.byte	0x8
 1833 0abe 00       		.byte	0
 1834 0abf 1A       		.uleb128 0x1a
 1835 0ac0 04       		.byte	0x4
 1836 0ac1 8A0A0000 		.4byte	0xa8a
 1837 0ac5 1A       		.uleb128 0x1a
 1838 0ac6 04       		.byte	0x4
 1839 0ac7 7E0A0000 		.4byte	0xa7e
 1840 0acb 22       		.uleb128 0x22
 1841 0acc 28000000 		.4byte	.LASF147
 1842 0ad0 0E       		.byte	0xe
 1843 0ad1 0A       		.byte	0xa
 1844 0ad2 3D01     		.2byte	0x13d
 1845 0ad4 000B0000 		.4byte	0xb00
 1846 0ad8 08       		.uleb128 0x8
 1847 0ad9 7D060000 		.4byte	.LASF148
 1848 0add 0A       		.byte	0xa
ARM GAS  /tmp/ccOiGado.s 			page 36


 1849 0ade 3E01     		.2byte	0x13e
 1850 0ae0 000B0000 		.4byte	0xb00
 1851 0ae4 00       		.byte	0
 1852 0ae5 08       		.uleb128 0x8
 1853 0ae6 29040000 		.4byte	.LASF149
 1854 0aea 0A       		.byte	0xa
 1855 0aeb 3F01     		.2byte	0x13f
 1856 0aed 000B0000 		.4byte	0xb00
 1857 0af1 06       		.byte	0x6
 1858 0af2 08       		.uleb128 0x8
 1859 0af3 41070000 		.4byte	.LASF150
 1860 0af7 0A       		.byte	0xa
 1861 0af8 4001     		.2byte	0x140
 1862 0afa 5E000000 		.4byte	0x5e
 1863 0afe 0C       		.byte	0xc
 1864 0aff 00       		.byte	0
 1865 0b00 14       		.uleb128 0x14
 1866 0b01 5E000000 		.4byte	0x5e
 1867 0b05 100B0000 		.4byte	0xb10
 1868 0b09 15       		.uleb128 0x15
 1869 0b0a DE000000 		.4byte	0xde
 1870 0b0e 02       		.byte	0x2
 1871 0b0f 00       		.byte	0
 1872 0b10 07       		.uleb128 0x7
 1873 0b11 D0       		.byte	0xd0
 1874 0b12 0A       		.byte	0xa
 1875 0b13 5702     		.2byte	0x257
 1876 0b15 110C0000 		.4byte	0xc11
 1877 0b19 08       		.uleb128 0x8
 1878 0b1a DA020000 		.4byte	.LASF151
 1879 0b1e 0A       		.byte	0xa
 1880 0b1f 5902     		.2byte	0x259
 1881 0b21 97000000 		.4byte	0x97
 1882 0b25 00       		.byte	0
 1883 0b26 08       		.uleb128 0x8
 1884 0b27 18070000 		.4byte	.LASF152
 1885 0b2b 0A       		.byte	0xa
 1886 0b2c 5A02     		.2byte	0x25a
 1887 0b2e D9090000 		.4byte	0x9d9
 1888 0b32 04       		.byte	0x4
 1889 0b33 08       		.uleb128 0x8
 1890 0b34 EF030000 		.4byte	.LASF153
 1891 0b38 0A       		.byte	0xa
 1892 0b39 5B02     		.2byte	0x25b
 1893 0b3b 110C0000 		.4byte	0xc11
 1894 0b3f 08       		.byte	0x8
 1895 0b40 08       		.uleb128 0x8
 1896 0b41 3A080000 		.4byte	.LASF154
 1897 0b45 0A       		.byte	0xa
 1898 0b46 5C02     		.2byte	0x25c
 1899 0b48 05060000 		.4byte	0x605
 1900 0b4c 24       		.byte	0x24
 1901 0b4d 08       		.uleb128 0x8
 1902 0b4e CD040000 		.4byte	.LASF155
 1903 0b52 0A       		.byte	0xa
 1904 0b53 5D02     		.2byte	0x25d
 1905 0b55 2C000000 		.4byte	0x2c
ARM GAS  /tmp/ccOiGado.s 			page 37


 1906 0b59 48       		.byte	0x48
 1907 0b5a 08       		.uleb128 0x8
 1908 0b5b BA030000 		.4byte	.LASF156
 1909 0b5f 0A       		.byte	0xa
 1910 0b60 5E02     		.2byte	0x25e
 1911 0b62 90000000 		.4byte	0x90
 1912 0b66 50       		.byte	0x50
 1913 0b67 08       		.uleb128 0x8
 1914 0b68 52080000 		.4byte	.LASF157
 1915 0b6c 0A       		.byte	0xa
 1916 0b6d 5F02     		.2byte	0x25f
 1917 0b6f CB0A0000 		.4byte	0xacb
 1918 0b73 58       		.byte	0x58
 1919 0b74 08       		.uleb128 0x8
 1920 0b75 54060000 		.4byte	.LASF158
 1921 0b79 0A       		.byte	0xa
 1922 0b7a 6002     		.2byte	0x260
 1923 0b7c 7B050000 		.4byte	0x57b
 1924 0b80 68       		.byte	0x68
 1925 0b81 08       		.uleb128 0x8
 1926 0b82 67080000 		.4byte	.LASF159
 1927 0b86 0A       		.byte	0xa
 1928 0b87 6102     		.2byte	0x261
 1929 0b89 7B050000 		.4byte	0x57b
 1930 0b8d 70       		.byte	0x70
 1931 0b8e 08       		.uleb128 0x8
 1932 0b8f 69010000 		.4byte	.LASF160
 1933 0b93 0A       		.byte	0xa
 1934 0b94 6202     		.2byte	0x262
 1935 0b96 7B050000 		.4byte	0x57b
 1936 0b9a 78       		.byte	0x78
 1937 0b9b 08       		.uleb128 0x8
 1938 0b9c 06080000 		.4byte	.LASF161
 1939 0ba0 0A       		.byte	0xa
 1940 0ba1 6302     		.2byte	0x263
 1941 0ba3 210C0000 		.4byte	0xc21
 1942 0ba7 80       		.byte	0x80
 1943 0ba8 08       		.uleb128 0x8
 1944 0ba9 E3030000 		.4byte	.LASF162
 1945 0bad 0A       		.byte	0xa
 1946 0bae 6402     		.2byte	0x264
 1947 0bb0 310C0000 		.4byte	0xc31
 1948 0bb4 88       		.byte	0x88
 1949 0bb5 08       		.uleb128 0x8
 1950 0bb6 4E070000 		.4byte	.LASF163
 1951 0bba 0A       		.byte	0xa
 1952 0bbb 6502     		.2byte	0x265
 1953 0bbd 2C000000 		.4byte	0x2c
 1954 0bc1 A0       		.byte	0xa0
 1955 0bc2 08       		.uleb128 0x8
 1956 0bc3 CC020000 		.4byte	.LASF164
 1957 0bc7 0A       		.byte	0xa
 1958 0bc8 6602     		.2byte	0x266
 1959 0bca 7B050000 		.4byte	0x57b
 1960 0bce A4       		.byte	0xa4
 1961 0bcf 08       		.uleb128 0x8
 1962 0bd0 4C010000 		.4byte	.LASF165
ARM GAS  /tmp/ccOiGado.s 			page 38


 1963 0bd4 0A       		.byte	0xa
 1964 0bd5 6702     		.2byte	0x267
 1965 0bd7 7B050000 		.4byte	0x57b
 1966 0bdb AC       		.byte	0xac
 1967 0bdc 08       		.uleb128 0x8
 1968 0bdd BB020000 		.4byte	.LASF166
 1969 0be1 0A       		.byte	0xa
 1970 0be2 6802     		.2byte	0x268
 1971 0be4 7B050000 		.4byte	0x57b
 1972 0be8 B4       		.byte	0xb4
 1973 0be9 08       		.uleb128 0x8
 1974 0bea 79000000 		.4byte	.LASF167
 1975 0bee 0A       		.byte	0xa
 1976 0bef 6902     		.2byte	0x269
 1977 0bf1 7B050000 		.4byte	0x57b
 1978 0bf5 BC       		.byte	0xbc
 1979 0bf6 08       		.uleb128 0x8
 1980 0bf7 88000000 		.4byte	.LASF168
 1981 0bfb 0A       		.byte	0xa
 1982 0bfc 6A02     		.2byte	0x26a
 1983 0bfe 7B050000 		.4byte	0x57b
 1984 0c02 C4       		.byte	0xc4
 1985 0c03 08       		.uleb128 0x8
 1986 0c04 F0050000 		.4byte	.LASF169
 1987 0c08 0A       		.byte	0xa
 1988 0c09 6B02     		.2byte	0x26b
 1989 0c0b 2C000000 		.4byte	0x2c
 1990 0c0f CC       		.byte	0xcc
 1991 0c10 00       		.byte	0
 1992 0c11 14       		.uleb128 0x14
 1993 0c12 DF090000 		.4byte	0x9df
 1994 0c16 210C0000 		.4byte	0xc21
 1995 0c1a 15       		.uleb128 0x15
 1996 0c1b DE000000 		.4byte	0xde
 1997 0c1f 19       		.byte	0x19
 1998 0c20 00       		.byte	0
 1999 0c21 14       		.uleb128 0x14
 2000 0c22 DF090000 		.4byte	0x9df
 2001 0c26 310C0000 		.4byte	0xc31
 2002 0c2a 15       		.uleb128 0x15
 2003 0c2b DE000000 		.4byte	0xde
 2004 0c2f 07       		.byte	0x7
 2005 0c30 00       		.byte	0
 2006 0c31 14       		.uleb128 0x14
 2007 0c32 DF090000 		.4byte	0x9df
 2008 0c36 410C0000 		.4byte	0xc41
 2009 0c3a 15       		.uleb128 0x15
 2010 0c3b DE000000 		.4byte	0xde
 2011 0c3f 17       		.byte	0x17
 2012 0c40 00       		.byte	0
 2013 0c41 07       		.uleb128 0x7
 2014 0c42 F0       		.byte	0xf0
 2015 0c43 0A       		.byte	0xa
 2016 0c44 7002     		.2byte	0x270
 2017 0c46 650C0000 		.4byte	0xc65
 2018 0c4a 08       		.uleb128 0x8
 2019 0c4b 09040000 		.4byte	.LASF170
ARM GAS  /tmp/ccOiGado.s 			page 39


 2020 0c4f 0A       		.byte	0xa
 2021 0c50 7302     		.2byte	0x273
 2022 0c52 650C0000 		.4byte	0xc65
 2023 0c56 00       		.byte	0
 2024 0c57 08       		.uleb128 0x8
 2025 0c58 52040000 		.4byte	.LASF171
 2026 0c5c 0A       		.byte	0xa
 2027 0c5d 7402     		.2byte	0x274
 2028 0c5f 750C0000 		.4byte	0xc75
 2029 0c63 78       		.byte	0x78
 2030 0c64 00       		.byte	0
 2031 0c65 14       		.uleb128 0x14
 2032 0c66 4E070000 		.4byte	0x74e
 2033 0c6a 750C0000 		.4byte	0xc75
 2034 0c6e 15       		.uleb128 0x15
 2035 0c6f DE000000 		.4byte	0xde
 2036 0c73 1D       		.byte	0x1d
 2037 0c74 00       		.byte	0
 2038 0c75 14       		.uleb128 0x14
 2039 0c76 97000000 		.4byte	0x97
 2040 0c7a 850C0000 		.4byte	0xc85
 2041 0c7e 15       		.uleb128 0x15
 2042 0c7f DE000000 		.4byte	0xde
 2043 0c83 1D       		.byte	0x1d
 2044 0c84 00       		.byte	0
 2045 0c85 23       		.uleb128 0x23
 2046 0c86 F0       		.byte	0xf0
 2047 0c87 0A       		.byte	0xa
 2048 0c88 5502     		.2byte	0x255
 2049 0c8a A70C0000 		.4byte	0xca7
 2050 0c8e 24       		.uleb128 0x24
 2051 0c8f 76060000 		.4byte	.LASF120
 2052 0c93 0A       		.byte	0xa
 2053 0c94 6C02     		.2byte	0x26c
 2054 0c96 100B0000 		.4byte	0xb10
 2055 0c9a 24       		.uleb128 0x24
 2056 0c9b 27080000 		.4byte	.LASF172
 2057 0c9f 0A       		.byte	0xa
 2058 0ca0 7502     		.2byte	0x275
 2059 0ca2 410C0000 		.4byte	0xc41
 2060 0ca6 00       		.byte	0
 2061 0ca7 14       		.uleb128 0x14
 2062 0ca8 DF090000 		.4byte	0x9df
 2063 0cac B70C0000 		.4byte	0xcb7
 2064 0cb0 15       		.uleb128 0x15
 2065 0cb1 DE000000 		.4byte	0xde
 2066 0cb5 18       		.byte	0x18
 2067 0cb6 00       		.byte	0
 2068 0cb7 25       		.uleb128 0x25
 2069 0cb8 C20C0000 		.4byte	0xcc2
 2070 0cbc 1F       		.uleb128 0x1f
 2071 0cbd 9C080000 		.4byte	0x89c
 2072 0cc1 00       		.byte	0
 2073 0cc2 1A       		.uleb128 0x1a
 2074 0cc3 04       		.byte	0x4
 2075 0cc4 B70C0000 		.4byte	0xcb7
 2076 0cc8 1A       		.uleb128 0x1a
ARM GAS  /tmp/ccOiGado.s 			page 40


 2077 0cc9 04       		.byte	0x4
 2078 0cca EF050000 		.4byte	0x5ef
 2079 0cce 25       		.uleb128 0x25
 2080 0ccf D90C0000 		.4byte	0xcd9
 2081 0cd3 1F       		.uleb128 0x1f
 2082 0cd4 2C000000 		.4byte	0x2c
 2083 0cd8 00       		.byte	0
 2084 0cd9 1A       		.uleb128 0x1a
 2085 0cda 04       		.byte	0x4
 2086 0cdb DF0C0000 		.4byte	0xcdf
 2087 0cdf 1A       		.uleb128 0x1a
 2088 0ce0 04       		.byte	0x4
 2089 0ce1 CE0C0000 		.4byte	0xcce
 2090 0ce5 14       		.uleb128 0x14
 2091 0ce6 7E0A0000 		.4byte	0xa7e
 2092 0cea F50C0000 		.4byte	0xcf5
 2093 0cee 15       		.uleb128 0x15
 2094 0cef DE000000 		.4byte	0xde
 2095 0cf3 02       		.byte	0x2
 2096 0cf4 00       		.byte	0
 2097 0cf5 0B       		.uleb128 0xb
 2098 0cf6 2B030000 		.4byte	.LASF173
 2099 0cfa 0A       		.byte	0xa
 2100 0cfb FD02     		.2byte	0x2fd
 2101 0cfd 9C080000 		.4byte	0x89c
 2102 0d01 0B       		.uleb128 0xb
 2103 0d02 7C070000 		.4byte	.LASF174
 2104 0d06 0A       		.byte	0xa
 2105 0d07 FE02     		.2byte	0x2fe
 2106 0d09 A2080000 		.4byte	0x8a2
 2107 0d0d 0C       		.uleb128 0xc
 2108 0d0e B8040000 		.4byte	.LASF175
 2109 0d12 0B       		.byte	0xb
 2110 0d13 5F       		.byte	0x5f
 2111 0d14 D9090000 		.4byte	0x9d9
 2112 0d18 02       		.uleb128 0x2
 2113 0d19 04       		.byte	0x4
 2114 0d1a 04       		.byte	0x4
 2115 0d1b F9040000 		.4byte	.LASF176
 2116 0d1f 26       		.uleb128 0x26
 2117 0d20 60070000 		.4byte	.LASF211
 2118 0d24 01       		.byte	0x1
 2119 0d25 33000000 		.4byte	0x33
 2120 0d29 0C       		.byte	0xc
 2121 0d2a 9902     		.2byte	0x299
 2122 0d2c 490D0000 		.4byte	0xd49
 2123 0d30 27       		.uleb128 0x27
 2124 0d31 44040000 		.4byte	.LASF177
 2125 0d35 7F       		.sleb128 -1
 2126 0d36 0F       		.uleb128 0xf
 2127 0d37 58020000 		.4byte	.LASF178
 2128 0d3b 00       		.byte	0
 2129 0d3c 0F       		.uleb128 0xf
 2130 0d3d 30000000 		.4byte	.LASF179
 2131 0d41 01       		.byte	0x1
 2132 0d42 0F       		.uleb128 0xf
 2133 0d43 BA000000 		.4byte	.LASF180
ARM GAS  /tmp/ccOiGado.s 			page 41


 2134 0d47 02       		.byte	0x2
 2135 0d48 00       		.byte	0
 2136 0d49 0B       		.uleb128 0xb
 2137 0d4a D9000000 		.4byte	.LASF181
 2138 0d4e 0C       		.byte	0xc
 2139 0d4f A402     		.2byte	0x2a4
 2140 0d51 1F0D0000 		.4byte	0xd1f
 2141 0d55 14       		.uleb128 0x14
 2142 0d56 150A0000 		.4byte	0xa15
 2143 0d5a 600D0000 		.4byte	0xd60
 2144 0d5e 28       		.uleb128 0x28
 2145 0d5f 00       		.byte	0
 2146 0d60 06       		.uleb128 0x6
 2147 0d61 550D0000 		.4byte	0xd55
 2148 0d65 0C       		.uleb128 0xc
 2149 0d66 9E020000 		.4byte	.LASF182
 2150 0d6a 0D       		.byte	0xd
 2151 0d6b 14       		.byte	0x14
 2152 0d6c 600D0000 		.4byte	0xd60
 2153 0d70 0C       		.uleb128 0xc
 2154 0d71 39060000 		.4byte	.LASF183
 2155 0d75 0D       		.byte	0xd
 2156 0d76 15       		.byte	0x15
 2157 0d77 2C000000 		.4byte	0x2c
 2158 0d7b 29       		.uleb128 0x29
 2159 0d7c 7A080000 		.4byte	.LASF184
 2160 0d80 01       		.byte	0x1
 2161 0d81 03       		.byte	0x3
 2162 0d82 5E010000 		.4byte	0x15e
 2163 0d86 05       		.uleb128 0x5
 2164 0d87 03       		.byte	0x3
 2165 0d88 00000000 		.4byte	fac_us
 2166 0d8c 29       		.uleb128 0x29
 2167 0d8d E9050000 		.4byte	.LASF185
 2168 0d91 01       		.byte	0x1
 2169 0d92 04       		.byte	0x4
 2170 0d93 52010000 		.4byte	0x152
 2171 0d97 05       		.uleb128 0x5
 2172 0d98 03       		.byte	0x3
 2173 0d99 02000000 		.4byte	fac_ms
 2174 0d9d 2A       		.uleb128 0x2a
 2175 0d9e 4C060000 		.4byte	.LASF186
 2176 0da2 01       		.byte	0x1
 2177 0da3 65       		.byte	0x65
 2178 0da4 9C010000 		.4byte	.LFB72
 2179 0da8 1C000000 		.4byte	.LFE72-.LFB72
 2180 0dac 01       		.uleb128 0x1
 2181 0dad 9C       		.byte	0x9c
 2182 0dae CD0D0000 		.4byte	0xdcd
 2183 0db2 2B       		.uleb128 0x2b
 2184 0db3 6E6D7300 		.ascii	"nms\000"
 2185 0db7 01       		.byte	0x1
 2186 0db8 65       		.byte	0x65
 2187 0db9 52010000 		.4byte	0x152
 2188 0dbd 00000000 		.4byte	.LLST16
 2189 0dc1 2C       		.uleb128 0x2c
 2190 0dc2 53030000 		.4byte	.LASF188
ARM GAS  /tmp/ccOiGado.s 			page 42


 2191 0dc6 01       		.byte	0x1
 2192 0dc7 67       		.byte	0x67
 2193 0dc8 46010000 		.4byte	0x146
 2194 0dcc 00       		.byte	0
 2195 0dcd 2A       		.uleb128 0x2a
 2196 0dce AD060000 		.4byte	.LASF187
 2197 0dd2 01       		.byte	0x1
 2198 0dd3 56       		.byte	0x56
 2199 0dd4 C8000000 		.4byte	.LFB71
 2200 0dd8 34000000 		.4byte	.LFE71-.LFB71
 2201 0ddc 01       		.uleb128 0x1
 2202 0ddd 9C       		.byte	0x9c
 2203 0dde 010E0000 		.4byte	0xe01
 2204 0de2 2B       		.uleb128 0x2b
 2205 0de3 6E757300 		.ascii	"nus\000"
 2206 0de7 01       		.byte	0x1
 2207 0de8 56       		.byte	0x56
 2208 0de9 46010000 		.4byte	0x146
 2209 0ded 21000000 		.4byte	.LLST13
 2210 0df1 2D       		.uleb128 0x2d
 2211 0df2 53030000 		.4byte	.LASF188
 2212 0df6 01       		.byte	0x1
 2213 0df7 58       		.byte	0x58
 2214 0df8 46010000 		.4byte	0x146
 2215 0dfc 42000000 		.4byte	.LLST14
 2216 0e00 00       		.byte	0
 2217 0e01 2E       		.uleb128 0x2e
 2218 0e02 31020000 		.4byte	.LASF212
 2219 0e06 01       		.byte	0x1
 2220 0e07 4E       		.byte	0x4e
 2221 0e08 01       		.byte	0x1
 2222 0e09 190E0000 		.4byte	0xe19
 2223 0e0d 2F       		.uleb128 0x2f
 2224 0e0e D2000000 		.4byte	.LASF213
 2225 0e12 01       		.byte	0x1
 2226 0e13 4E       		.byte	0x4e
 2227 0e14 5E010000 		.4byte	0x15e
 2228 0e18 00       		.byte	0
 2229 0e19 30       		.uleb128 0x30
 2230 0e1a DE060000 		.4byte	.LASF189
 2231 0e1e 01       		.byte	0x1
 2232 0e1f 47       		.byte	0x47
 2233 0e20 9E000000 		.4byte	0x9e
 2234 0e24 6E000000 		.4byte	.LFB69
 2235 0e28 22000000 		.4byte	.LFE69-.LFB69
 2236 0e2c 01       		.uleb128 0x1
 2237 0e2d 9C       		.byte	0x9c
 2238 0e2e 5D0E0000 		.4byte	0xe5d
 2239 0e32 31       		.uleb128 0x31
 2240 0e33 7C000000 		.4byte	.LVL18
 2241 0e37 02110000 		.4byte	0x1102
 2242 0e3b 4C0E0000 		.4byte	0xe4c
 2243 0e3f 32       		.uleb128 0x32
 2244 0e40 01       		.uleb128 0x1
 2245 0e41 50       		.byte	0x50
 2246 0e42 02       		.uleb128 0x2
 2247 0e43 75       		.byte	0x75
ARM GAS  /tmp/ccOiGado.s 			page 43


 2248 0e44 00       		.sleb128 0
 2249 0e45 32       		.uleb128 0x32
 2250 0e46 01       		.uleb128 0x1
 2251 0e47 51       		.byte	0x51
 2252 0e48 02       		.uleb128 0x2
 2253 0e49 74       		.byte	0x74
 2254 0e4a 00       		.sleb128 0
 2255 0e4b 00       		.byte	0
 2256 0e4c 33       		.uleb128 0x33
 2257 0e4d 86000000 		.4byte	.LVL19
 2258 0e51 0E110000 		.4byte	0x110e
 2259 0e55 32       		.uleb128 0x32
 2260 0e56 01       		.uleb128 0x1
 2261 0e57 50       		.byte	0x50
 2262 0e58 02       		.uleb128 0x2
 2263 0e59 75       		.byte	0x75
 2264 0e5a 00       		.sleb128 0
 2265 0e5b 00       		.byte	0
 2266 0e5c 00       		.byte	0
 2267 0e5d 30       		.uleb128 0x30
 2268 0e5e 4A000000 		.4byte	.LASF190
 2269 0e62 01       		.byte	0x1
 2270 0e63 3D       		.byte	0x3d
 2271 0e64 9E000000 		.4byte	0x9e
 2272 0e68 30000000 		.4byte	.LFB68
 2273 0e6c 24000000 		.4byte	.LFE68-.LFB68
 2274 0e70 01       		.uleb128 0x1
 2275 0e71 9C       		.byte	0x9c
 2276 0e72 B80E0000 		.4byte	0xeb8
 2277 0e76 2B       		.uleb128 0x2b
 2278 0e77 636800   		.ascii	"ch\000"
 2279 0e7a 01       		.byte	0x1
 2280 0e7b 3D       		.byte	0x3d
 2281 0e7c 9E000000 		.4byte	0x9e
 2282 0e80 55000000 		.4byte	.LLST1
 2283 0e84 31       		.uleb128 0x31
 2284 0e85 3C000000 		.4byte	.LVL10
 2285 0e89 1A110000 		.4byte	0x111a
 2286 0e8d A10E0000 		.4byte	0xea1
 2287 0e91 32       		.uleb128 0x32
 2288 0e92 01       		.uleb128 0x1
 2289 0e93 50       		.byte	0x50
 2290 0e94 05       		.uleb128 0x5
 2291 0e95 0C       		.byte	0xc
 2292 0e96 00440040 		.4byte	0x40004400
 2293 0e9a 32       		.uleb128 0x32
 2294 0e9b 01       		.uleb128 0x1
 2295 0e9c 51       		.byte	0x51
 2296 0e9d 02       		.uleb128 0x2
 2297 0e9e 76       		.byte	0x76
 2298 0e9f 00       		.sleb128 0
 2299 0ea0 00       		.byte	0
 2300 0ea1 33       		.uleb128 0x33
 2301 0ea2 48000000 		.4byte	.LVL11
 2302 0ea6 02110000 		.4byte	0x1102
 2303 0eaa 32       		.uleb128 0x32
 2304 0eab 01       		.uleb128 0x1
ARM GAS  /tmp/ccOiGado.s 			page 44


 2305 0eac 50       		.byte	0x50
 2306 0ead 02       		.uleb128 0x2
 2307 0eae 75       		.byte	0x75
 2308 0eaf 00       		.sleb128 0
 2309 0eb0 32       		.uleb128 0x32
 2310 0eb1 01       		.uleb128 0x1
 2311 0eb2 51       		.byte	0x51
 2312 0eb3 02       		.uleb128 0x2
 2313 0eb4 74       		.byte	0x74
 2314 0eb5 00       		.sleb128 0
 2315 0eb6 00       		.byte	0
 2316 0eb7 00       		.byte	0
 2317 0eb8 30       		.uleb128 0x30
 2318 0eb9 37040000 		.4byte	.LASF109
 2319 0ebd 01       		.byte	0x1
 2320 0ebe 33       		.byte	0x33
 2321 0ebf 2C000000 		.4byte	0x2c
 2322 0ec3 54000000 		.4byte	.LFB67
 2323 0ec7 1A000000 		.4byte	.LFE67-.LFB67
 2324 0ecb 01       		.uleb128 0x1
 2325 0ecc 9C       		.byte	0x9c
 2326 0ecd 150F0000 		.4byte	0xf15
 2327 0ed1 34       		.uleb128 0x34
 2328 0ed2 0C060000 		.4byte	.LASF191
 2329 0ed6 01       		.byte	0x1
 2330 0ed7 33       		.byte	0x33
 2331 0ed8 2C000000 		.4byte	0x2c
 2332 0edc 76000000 		.4byte	.LLST2
 2333 0ee0 2B       		.uleb128 0x2b
 2334 0ee1 70747200 		.ascii	"ptr\000"
 2335 0ee5 01       		.byte	0x1
 2336 0ee6 33       		.byte	0x33
 2337 0ee7 D9090000 		.4byte	0x9d9
 2338 0eeb 97000000 		.4byte	.LLST3
 2339 0eef 2B       		.uleb128 0x2b
 2340 0ef0 6C656E00 		.ascii	"len\000"
 2341 0ef4 01       		.byte	0x1
 2342 0ef5 33       		.byte	0x33
 2343 0ef6 2C000000 		.4byte	0x2c
 2344 0efa CD000000 		.4byte	.LLST4
 2345 0efe 35       		.uleb128 0x35
 2346 0eff 6E00     		.ascii	"n\000"
 2347 0f01 01       		.byte	0x1
 2348 0f02 35       		.byte	0x35
 2349 0f03 2C000000 		.4byte	0x2c
 2350 0f07 EB000000 		.4byte	.LLST5
 2351 0f0b 36       		.uleb128 0x36
 2352 0f0c 66000000 		.4byte	.LVL16
 2353 0f10 5D0E0000 		.4byte	0xe5d
 2354 0f14 00       		.byte	0
 2355 0f15 30       		.uleb128 0x30
 2356 0f16 4D030000 		.4byte	.LASF108
 2357 0f1a 01       		.byte	0x1
 2358 0f1b 27       		.byte	0x27
 2359 0f1c 2C000000 		.4byte	0x2c
 2360 0f20 90000000 		.4byte	.LFB66
 2361 0f24 1E000000 		.4byte	.LFE66-.LFB66
ARM GAS  /tmp/ccOiGado.s 			page 45


 2362 0f28 01       		.uleb128 0x1
 2363 0f29 9C       		.byte	0x9c
 2364 0f2a 980F0000 		.4byte	0xf98
 2365 0f2e 34       		.uleb128 0x34
 2366 0f2f 0C060000 		.4byte	.LASF191
 2367 0f33 01       		.byte	0x1
 2368 0f34 27       		.byte	0x27
 2369 0f35 2C000000 		.4byte	0x2c
 2370 0f39 FF000000 		.4byte	.LLST6
 2371 0f3d 2B       		.uleb128 0x2b
 2372 0f3e 70747200 		.ascii	"ptr\000"
 2373 0f42 01       		.byte	0x1
 2374 0f43 27       		.byte	0x27
 2375 0f44 D9090000 		.4byte	0x9d9
 2376 0f48 2B010000 		.4byte	.LLST7
 2377 0f4c 2B       		.uleb128 0x2b
 2378 0f4d 6C656E00 		.ascii	"len\000"
 2379 0f51 01       		.byte	0x1
 2380 0f52 27       		.byte	0x27
 2381 0f53 2C000000 		.4byte	0x2c
 2382 0f57 54010000 		.4byte	.LLST8
 2383 0f5b 35       		.uleb128 0x35
 2384 0f5c 6E00     		.ascii	"n\000"
 2385 0f5e 01       		.byte	0x1
 2386 0f5f 29       		.byte	0x29
 2387 0f60 2C000000 		.4byte	0x2c
 2388 0f64 8B010000 		.4byte	.LLST9
 2389 0f68 35       		.uleb128 0x35
 2390 0f69 6E756D00 		.ascii	"num\000"
 2391 0f6d 01       		.byte	0x1
 2392 0f6e 2A       		.byte	0x2a
 2393 0f6f 2C000000 		.4byte	0x2c
 2394 0f73 8B010000 		.4byte	.LLST9
 2395 0f77 37       		.uleb128 0x37
 2396 0f78 9A000000 		.4byte	.LBB6
 2397 0f7c 08000000 		.4byte	.LBE6-.LBB6
 2398 0f80 35       		.uleb128 0x35
 2399 0f81 6300     		.ascii	"c\000"
 2400 0f83 01       		.byte	0x1
 2401 0f84 2C       		.byte	0x2c
 2402 0f85 DF090000 		.4byte	0x9df
 2403 0f89 AB010000 		.4byte	.LLST11
 2404 0f8d 36       		.uleb128 0x36
 2405 0f8e 9E000000 		.4byte	.LVL23
 2406 0f92 190E0000 		.4byte	0xe19
 2407 0f96 00       		.byte	0
 2408 0f97 00       		.byte	0
 2409 0f98 38       		.uleb128 0x38
 2410 0f99 A7070000 		.4byte	.LASF192
 2411 0f9d 01       		.byte	0x1
 2412 0f9e 13       		.byte	0x13
 2413 0f9f 2C000000 		.4byte	0x2c
 2414 0fa3 FC000000 		.4byte	.LFB65
 2415 0fa7 A0000000 		.4byte	.LFE65-.LFB65
 2416 0fab 01       		.uleb128 0x1
 2417 0fac 9C       		.byte	0x9c
 2418 0fad 73100000 		.4byte	0x1073
ARM GAS  /tmp/ccOiGado.s 			page 46


 2419 0fb1 2D       		.uleb128 0x2d
 2420 0fb2 C9060000 		.4byte	.LASF193
 2421 0fb6 01       		.byte	0x1
 2422 0fb7 15       		.byte	0x15
 2423 0fb8 2C000000 		.4byte	0x2c
 2424 0fbc BE010000 		.4byte	.LLST15
 2425 0fc0 31       		.uleb128 0x31
 2426 0fc1 0A010000 		.4byte	.LVL33
 2427 0fc5 26110000 		.4byte	0x1126
 2428 0fc9 DE0F0000 		.4byte	0xfde
 2429 0fcd 32       		.uleb128 0x32
 2430 0fce 01       		.uleb128 0x1
 2431 0fcf 50       		.byte	0x50
 2432 0fd0 02       		.uleb128 0x2
 2433 0fd1 74       		.byte	0x74
 2434 0fd2 00       		.sleb128 0
 2435 0fd3 32       		.uleb128 0x32
 2436 0fd4 01       		.uleb128 0x1
 2437 0fd5 51       		.byte	0x51
 2438 0fd6 01       		.uleb128 0x1
 2439 0fd7 32       		.byte	0x32
 2440 0fd8 32       		.uleb128 0x32
 2441 0fd9 01       		.uleb128 0x1
 2442 0fda 52       		.byte	0x52
 2443 0fdb 01       		.uleb128 0x1
 2444 0fdc 31       		.byte	0x31
 2445 0fdd 00       		.byte	0
 2446 0fde 31       		.uleb128 0x31
 2447 0fdf 10010000 		.4byte	.LVL34
 2448 0fe3 CD0D0000 		.4byte	0xdcd
 2449 0fe7 F10F0000 		.4byte	0xff1
 2450 0feb 32       		.uleb128 0x32
 2451 0fec 01       		.uleb128 0x1
 2452 0fed 50       		.byte	0x50
 2453 0fee 01       		.uleb128 0x1
 2454 0fef 44       		.byte	0x44
 2455 0ff0 00       		.byte	0
 2456 0ff1 31       		.uleb128 0x31
 2457 0ff2 1A010000 		.4byte	.LVL35
 2458 0ff6 26110000 		.4byte	0x1126
 2459 0ffa 0F100000 		.4byte	0x100f
 2460 0ffe 32       		.uleb128 0x32
 2461 0fff 01       		.uleb128 0x1
 2462 1000 50       		.byte	0x50
 2463 1001 02       		.uleb128 0x2
 2464 1002 74       		.byte	0x74
 2465 1003 00       		.sleb128 0
 2466 1004 32       		.uleb128 0x32
 2467 1005 01       		.uleb128 0x1
 2468 1006 51       		.byte	0x51
 2469 1007 01       		.uleb128 0x1
 2470 1008 32       		.byte	0x32
 2471 1009 32       		.uleb128 0x32
 2472 100a 01       		.uleb128 0x1
 2473 100b 52       		.byte	0x52
 2474 100c 01       		.uleb128 0x1
 2475 100d 30       		.byte	0x30
ARM GAS  /tmp/ccOiGado.s 			page 47


 2476 100e 00       		.byte	0
 2477 100f 31       		.uleb128 0x31
 2478 1010 28010000 		.4byte	.LVL36
 2479 1014 32110000 		.4byte	0x1132
 2480 1018 29100000 		.4byte	0x1029
 2481 101c 32       		.uleb128 0x32
 2482 101d 01       		.uleb128 0x1
 2483 101e 50       		.byte	0x50
 2484 101f 03       		.uleb128 0x3
 2485 1020 40       		.byte	0x40
 2486 1021 4A       		.byte	0x4a
 2487 1022 24       		.byte	0x24
 2488 1023 32       		.uleb128 0x32
 2489 1024 01       		.uleb128 0x1
 2490 1025 51       		.byte	0x51
 2491 1026 01       		.uleb128 0x1
 2492 1027 31       		.byte	0x31
 2493 1028 00       		.byte	0
 2494 1029 31       		.uleb128 0x31
 2495 102a 38010000 		.4byte	.LVL37
 2496 102e 3E110000 		.4byte	0x113e
 2497 1032 43100000 		.4byte	0x1043
 2498 1036 32       		.uleb128 0x32
 2499 1037 01       		.uleb128 0x1
 2500 1038 50       		.byte	0x50
 2501 1039 02       		.uleb128 0x2
 2502 103a 75       		.byte	0x75
 2503 103b 00       		.sleb128 0
 2504 103c 32       		.uleb128 0x32
 2505 103d 01       		.uleb128 0x1
 2506 103e 51       		.byte	0x51
 2507 103f 02       		.uleb128 0x2
 2508 1040 74       		.byte	0x74
 2509 1041 00       		.sleb128 0
 2510 1042 00       		.byte	0
 2511 1043 31       		.uleb128 0x31
 2512 1044 5A010000 		.4byte	.LVL38
 2513 1048 3E110000 		.4byte	0x113e
 2514 104c 5D100000 		.4byte	0x105d
 2515 1050 32       		.uleb128 0x32
 2516 1051 01       		.uleb128 0x1
 2517 1052 50       		.byte	0x50
 2518 1053 02       		.uleb128 0x2
 2519 1054 75       		.byte	0x75
 2520 1055 00       		.sleb128 0
 2521 1056 32       		.uleb128 0x32
 2522 1057 01       		.uleb128 0x1
 2523 1058 51       		.byte	0x51
 2524 1059 02       		.uleb128 0x2
 2525 105a 74       		.byte	0x74
 2526 105b 00       		.sleb128 0
 2527 105c 00       		.byte	0
 2528 105d 33       		.uleb128 0x33
 2529 105e 72010000 		.4byte	.LVL39
 2530 1062 32110000 		.4byte	0x1132
 2531 1066 32       		.uleb128 0x32
 2532 1067 01       		.uleb128 0x1
ARM GAS  /tmp/ccOiGado.s 			page 48


 2533 1068 50       		.byte	0x50
 2534 1069 02       		.uleb128 0x2
 2535 106a 76       		.byte	0x76
 2536 106b 00       		.sleb128 0
 2537 106c 32       		.uleb128 0x32
 2538 106d 01       		.uleb128 0x1
 2539 106e 51       		.byte	0x51
 2540 106f 01       		.uleb128 0x1
 2541 1070 30       		.byte	0x30
 2542 1071 00       		.byte	0
 2543 1072 00       		.byte	0
 2544 1073 2A       		.uleb128 0x2a
 2545 1074 95020000 		.4byte	.LASF194
 2546 1078 01       		.byte	0x1
 2547 1079 06       		.byte	0x6
 2548 107a 00000000 		.4byte	.LFB64
 2549 107e 30000000 		.4byte	.LFE64-.LFB64
 2550 1082 01       		.uleb128 0x1
 2551 1083 9C       		.byte	0x9c
 2552 1084 E5100000 		.4byte	0x10e5
 2553 1088 39       		.uleb128 0x39
 2554 1089 010E0000 		.4byte	0xe01
 2555 108d 16000000 		.4byte	.LBB4
 2556 1091 0C000000 		.4byte	.LBE4-.LBB4
 2557 1095 01       		.byte	0x1
 2558 1096 0D       		.byte	0xd
 2559 1097 A5100000 		.4byte	0x10a5
 2560 109b 3A       		.uleb128 0x3a
 2561 109c 0D0E0000 		.4byte	0xe0d
 2562 10a0 EB010000 		.4byte	.LLST0
 2563 10a4 00       		.byte	0
 2564 10a5 36       		.uleb128 0x36
 2565 10a6 06000000 		.4byte	.LVL0
 2566 10aa 4A110000 		.4byte	0x114a
 2567 10ae 36       		.uleb128 0x36
 2568 10af 0A000000 		.4byte	.LVL1
 2569 10b3 55110000 		.4byte	0x1155
 2570 10b7 36       		.uleb128 0x36
 2571 10b8 0E000000 		.4byte	.LVL2
 2572 10bc 60110000 		.4byte	0x1160
 2573 10c0 36       		.uleb128 0x36
 2574 10c1 12000000 		.4byte	.LVL3
 2575 10c5 6B110000 		.4byte	0x116b
 2576 10c9 36       		.uleb128 0x36
 2577 10ca 16000000 		.4byte	.LVL4
 2578 10ce 76110000 		.4byte	0x1176
 2579 10d2 36       		.uleb128 0x36
 2580 10d3 26000000 		.4byte	.LVL6
 2581 10d7 81110000 		.4byte	0x1181
 2582 10db 36       		.uleb128 0x36
 2583 10dc 2A000000 		.4byte	.LVL7
 2584 10e0 8D110000 		.4byte	0x118d
 2585 10e4 00       		.byte	0
 2586 10e5 3B       		.uleb128 0x3b
 2587 10e6 010E0000 		.4byte	0xe01
 2588 10ea AE000000 		.4byte	.LFB70
 2589 10ee 1A000000 		.4byte	.LFE70-.LFB70
ARM GAS  /tmp/ccOiGado.s 			page 49


 2590 10f2 01       		.uleb128 0x1
 2591 10f3 9C       		.byte	0x9c
 2592 10f4 02110000 		.4byte	0x1102
 2593 10f8 3A       		.uleb128 0x3a
 2594 10f9 0D0E0000 		.4byte	0xe0d
 2595 10fd 00020000 		.4byte	.LLST12
 2596 1101 00       		.byte	0
 2597 1102 3C       		.uleb128 0x3c
 2598 1103 9F010000 		.4byte	.LASF195
 2599 1107 9F010000 		.4byte	.LASF195
 2600 110b 0E       		.byte	0xe
 2601 110c 8601     		.2byte	0x186
 2602 110e 3C       		.uleb128 0x3c
 2603 110f E7040000 		.4byte	.LASF196
 2604 1113 E7040000 		.4byte	.LASF196
 2605 1117 0E       		.byte	0xe
 2606 1118 7B01     		.2byte	0x17b
 2607 111a 3C       		.uleb128 0x3c
 2608 111b FF060000 		.4byte	.LASF197
 2609 111f FF060000 		.4byte	.LASF197
 2610 1123 0E       		.byte	0xe
 2611 1124 7A01     		.2byte	0x17a
 2612 1126 3C       		.uleb128 0x3c
 2613 1127 19050000 		.4byte	.LASF198
 2614 112b 19050000 		.4byte	.LASF198
 2615 112f 0F       		.byte	0xf
 2616 1130 6701     		.2byte	0x167
 2617 1132 3C       		.uleb128 0x3c
 2618 1133 F2060000 		.4byte	.LASF199
 2619 1137 F2060000 		.4byte	.LASF199
 2620 113b 10       		.byte	0x10
 2621 113c 2B04     		.2byte	0x42b
 2622 113e 3C       		.uleb128 0x3c
 2623 113f 04030000 		.4byte	.LASF200
 2624 1143 04030000 		.4byte	.LASF200
 2625 1147 0F       		.byte	0xf
 2626 1148 6101     		.2byte	0x161
 2627 114a 3D       		.uleb128 0x3d
 2628 114b 60010000 		.4byte	.LASF201
 2629 114f 60010000 		.4byte	.LASF201
 2630 1153 11       		.byte	0x11
 2631 1154 41       		.byte	0x41
 2632 1155 3D       		.uleb128 0x3d
 2633 1156 99000000 		.4byte	.LASF202
 2634 115a 99000000 		.4byte	.LASF202
 2635 115e 11       		.byte	0x11
 2636 115f 44       		.byte	0x44
 2637 1160 3D       		.uleb128 0x3d
 2638 1161 82020000 		.4byte	.LASF203
 2639 1165 82020000 		.4byte	.LASF203
 2640 1169 11       		.byte	0x11
 2641 116a 43       		.byte	0x43
 2642 116b 3D       		.uleb128 0x3d
 2643 116c FF040000 		.4byte	.LASF204
 2644 1170 FF040000 		.4byte	.LASF204
 2645 1174 11       		.byte	0x11
 2646 1175 3F       		.byte	0x3f
ARM GAS  /tmp/ccOiGado.s 			page 50


 2647 1176 3D       		.uleb128 0x3d
 2648 1177 8C040000 		.4byte	.LASF205
 2649 117b 8C040000 		.4byte	.LASF205
 2650 117f 11       		.byte	0x11
 2651 1180 42       		.byte	0x42
 2652 1181 3C       		.uleb128 0x3c
 2653 1182 7B040000 		.4byte	.LASF206
 2654 1186 7B040000 		.4byte	.LASF206
 2655 118a 12       		.byte	0x12
 2656 118b A201     		.2byte	0x1a2
 2657 118d 3C       		.uleb128 0x3c
 2658 118e D6050000 		.4byte	.LASF207
 2659 1192 D6050000 		.4byte	.LASF207
 2660 1196 12       		.byte	0x12
 2661 1197 8A01     		.2byte	0x18a
 2662 1199 00       		.byte	0
 2663              		.section	.debug_abbrev,"",%progbits
 2664              	.Ldebug_abbrev0:
 2665 0000 01       		.uleb128 0x1
 2666 0001 11       		.uleb128 0x11
 2667 0002 01       		.byte	0x1
 2668 0003 25       		.uleb128 0x25
 2669 0004 0E       		.uleb128 0xe
 2670 0005 13       		.uleb128 0x13
 2671 0006 0B       		.uleb128 0xb
 2672 0007 03       		.uleb128 0x3
 2673 0008 0E       		.uleb128 0xe
 2674 0009 1B       		.uleb128 0x1b
 2675 000a 0E       		.uleb128 0xe
 2676 000b 11       		.uleb128 0x11
 2677 000c 01       		.uleb128 0x1
 2678 000d 12       		.uleb128 0x12
 2679 000e 06       		.uleb128 0x6
 2680 000f 10       		.uleb128 0x10
 2681 0010 17       		.uleb128 0x17
 2682 0011 00       		.byte	0
 2683 0012 00       		.byte	0
 2684 0013 02       		.uleb128 0x2
 2685 0014 24       		.uleb128 0x24
 2686 0015 00       		.byte	0
 2687 0016 0B       		.uleb128 0xb
 2688 0017 0B       		.uleb128 0xb
 2689 0018 3E       		.uleb128 0x3e
 2690 0019 0B       		.uleb128 0xb
 2691 001a 03       		.uleb128 0x3
 2692 001b 0E       		.uleb128 0xe
 2693 001c 00       		.byte	0
 2694 001d 00       		.byte	0
 2695 001e 03       		.uleb128 0x3
 2696 001f 24       		.uleb128 0x24
 2697 0020 00       		.byte	0
 2698 0021 0B       		.uleb128 0xb
 2699 0022 0B       		.uleb128 0xb
 2700 0023 3E       		.uleb128 0x3e
 2701 0024 0B       		.uleb128 0xb
 2702 0025 03       		.uleb128 0x3
 2703 0026 08       		.uleb128 0x8
ARM GAS  /tmp/ccOiGado.s 			page 51


 2704 0027 00       		.byte	0
 2705 0028 00       		.byte	0
 2706 0029 04       		.uleb128 0x4
 2707 002a 16       		.uleb128 0x16
 2708 002b 00       		.byte	0
 2709 002c 03       		.uleb128 0x3
 2710 002d 0E       		.uleb128 0xe
 2711 002e 3A       		.uleb128 0x3a
 2712 002f 0B       		.uleb128 0xb
 2713 0030 3B       		.uleb128 0x3b
 2714 0031 0B       		.uleb128 0xb
 2715 0032 49       		.uleb128 0x49
 2716 0033 13       		.uleb128 0x13
 2717 0034 00       		.byte	0
 2718 0035 00       		.byte	0
 2719 0036 05       		.uleb128 0x5
 2720 0037 35       		.uleb128 0x35
 2721 0038 00       		.byte	0
 2722 0039 49       		.uleb128 0x49
 2723 003a 13       		.uleb128 0x13
 2724 003b 00       		.byte	0
 2725 003c 00       		.byte	0
 2726 003d 06       		.uleb128 0x6
 2727 003e 26       		.uleb128 0x26
 2728 003f 00       		.byte	0
 2729 0040 49       		.uleb128 0x49
 2730 0041 13       		.uleb128 0x13
 2731 0042 00       		.byte	0
 2732 0043 00       		.byte	0
 2733 0044 07       		.uleb128 0x7
 2734 0045 13       		.uleb128 0x13
 2735 0046 01       		.byte	0x1
 2736 0047 0B       		.uleb128 0xb
 2737 0048 0B       		.uleb128 0xb
 2738 0049 3A       		.uleb128 0x3a
 2739 004a 0B       		.uleb128 0xb
 2740 004b 3B       		.uleb128 0x3b
 2741 004c 05       		.uleb128 0x5
 2742 004d 01       		.uleb128 0x1
 2743 004e 13       		.uleb128 0x13
 2744 004f 00       		.byte	0
 2745 0050 00       		.byte	0
 2746 0051 08       		.uleb128 0x8
 2747 0052 0D       		.uleb128 0xd
 2748 0053 00       		.byte	0
 2749 0054 03       		.uleb128 0x3
 2750 0055 0E       		.uleb128 0xe
 2751 0056 3A       		.uleb128 0x3a
 2752 0057 0B       		.uleb128 0xb
 2753 0058 3B       		.uleb128 0x3b
 2754 0059 05       		.uleb128 0x5
 2755 005a 49       		.uleb128 0x49
 2756 005b 13       		.uleb128 0x13
 2757 005c 38       		.uleb128 0x38
 2758 005d 0B       		.uleb128 0xb
 2759 005e 00       		.byte	0
 2760 005f 00       		.byte	0
ARM GAS  /tmp/ccOiGado.s 			page 52


 2761 0060 09       		.uleb128 0x9
 2762 0061 0D       		.uleb128 0xd
 2763 0062 00       		.byte	0
 2764 0063 03       		.uleb128 0x3
 2765 0064 08       		.uleb128 0x8
 2766 0065 3A       		.uleb128 0x3a
 2767 0066 0B       		.uleb128 0xb
 2768 0067 3B       		.uleb128 0x3b
 2769 0068 05       		.uleb128 0x5
 2770 0069 49       		.uleb128 0x49
 2771 006a 13       		.uleb128 0x13
 2772 006b 38       		.uleb128 0x38
 2773 006c 0B       		.uleb128 0xb
 2774 006d 00       		.byte	0
 2775 006e 00       		.byte	0
 2776 006f 0A       		.uleb128 0xa
 2777 0070 16       		.uleb128 0x16
 2778 0071 00       		.byte	0
 2779 0072 03       		.uleb128 0x3
 2780 0073 0E       		.uleb128 0xe
 2781 0074 3A       		.uleb128 0x3a
 2782 0075 0B       		.uleb128 0xb
 2783 0076 3B       		.uleb128 0x3b
 2784 0077 05       		.uleb128 0x5
 2785 0078 49       		.uleb128 0x49
 2786 0079 13       		.uleb128 0x13
 2787 007a 00       		.byte	0
 2788 007b 00       		.byte	0
 2789 007c 0B       		.uleb128 0xb
 2790 007d 34       		.uleb128 0x34
 2791 007e 00       		.byte	0
 2792 007f 03       		.uleb128 0x3
 2793 0080 0E       		.uleb128 0xe
 2794 0081 3A       		.uleb128 0x3a
 2795 0082 0B       		.uleb128 0xb
 2796 0083 3B       		.uleb128 0x3b
 2797 0084 05       		.uleb128 0x5
 2798 0085 49       		.uleb128 0x49
 2799 0086 13       		.uleb128 0x13
 2800 0087 3F       		.uleb128 0x3f
 2801 0088 19       		.uleb128 0x19
 2802 0089 3C       		.uleb128 0x3c
 2803 008a 19       		.uleb128 0x19
 2804 008b 00       		.byte	0
 2805 008c 00       		.byte	0
 2806 008d 0C       		.uleb128 0xc
 2807 008e 34       		.uleb128 0x34
 2808 008f 00       		.byte	0
 2809 0090 03       		.uleb128 0x3
 2810 0091 0E       		.uleb128 0xe
 2811 0092 3A       		.uleb128 0x3a
 2812 0093 0B       		.uleb128 0xb
 2813 0094 3B       		.uleb128 0x3b
 2814 0095 0B       		.uleb128 0xb
 2815 0096 49       		.uleb128 0x49
 2816 0097 13       		.uleb128 0x13
 2817 0098 3F       		.uleb128 0x3f
ARM GAS  /tmp/ccOiGado.s 			page 53


 2818 0099 19       		.uleb128 0x19
 2819 009a 3C       		.uleb128 0x3c
 2820 009b 19       		.uleb128 0x19
 2821 009c 00       		.byte	0
 2822 009d 00       		.byte	0
 2823 009e 0D       		.uleb128 0xd
 2824 009f 16       		.uleb128 0x16
 2825 00a0 00       		.byte	0
 2826 00a1 03       		.uleb128 0x3
 2827 00a2 08       		.uleb128 0x8
 2828 00a3 3A       		.uleb128 0x3a
 2829 00a4 0B       		.uleb128 0xb
 2830 00a5 3B       		.uleb128 0x3b
 2831 00a6 05       		.uleb128 0x5
 2832 00a7 49       		.uleb128 0x49
 2833 00a8 13       		.uleb128 0x13
 2834 00a9 00       		.byte	0
 2835 00aa 00       		.byte	0
 2836 00ab 0E       		.uleb128 0xe
 2837 00ac 04       		.uleb128 0x4
 2838 00ad 01       		.byte	0x1
 2839 00ae 0B       		.uleb128 0xb
 2840 00af 0B       		.uleb128 0xb
 2841 00b0 49       		.uleb128 0x49
 2842 00b1 13       		.uleb128 0x13
 2843 00b2 3A       		.uleb128 0x3a
 2844 00b3 0B       		.uleb128 0xb
 2845 00b4 3B       		.uleb128 0x3b
 2846 00b5 05       		.uleb128 0x5
 2847 00b6 01       		.uleb128 0x1
 2848 00b7 13       		.uleb128 0x13
 2849 00b8 00       		.byte	0
 2850 00b9 00       		.byte	0
 2851 00ba 0F       		.uleb128 0xf
 2852 00bb 28       		.uleb128 0x28
 2853 00bc 00       		.byte	0
 2854 00bd 03       		.uleb128 0x3
 2855 00be 0E       		.uleb128 0xe
 2856 00bf 1C       		.uleb128 0x1c
 2857 00c0 0B       		.uleb128 0xb
 2858 00c1 00       		.byte	0
 2859 00c2 00       		.byte	0
 2860 00c3 10       		.uleb128 0x10
 2861 00c4 28       		.uleb128 0x28
 2862 00c5 00       		.byte	0
 2863 00c6 03       		.uleb128 0x3
 2864 00c7 08       		.uleb128 0x8
 2865 00c8 1C       		.uleb128 0x1c
 2866 00c9 0B       		.uleb128 0xb
 2867 00ca 00       		.byte	0
 2868 00cb 00       		.byte	0
 2869 00cc 11       		.uleb128 0x11
 2870 00cd 0F       		.uleb128 0xf
 2871 00ce 00       		.byte	0
 2872 00cf 0B       		.uleb128 0xb
 2873 00d0 0B       		.uleb128 0xb
 2874 00d1 00       		.byte	0
ARM GAS  /tmp/ccOiGado.s 			page 54


 2875 00d2 00       		.byte	0
 2876 00d3 12       		.uleb128 0x12
 2877 00d4 17       		.uleb128 0x17
 2878 00d5 01       		.byte	0x1
 2879 00d6 0B       		.uleb128 0xb
 2880 00d7 0B       		.uleb128 0xb
 2881 00d8 3A       		.uleb128 0x3a
 2882 00d9 0B       		.uleb128 0xb
 2883 00da 3B       		.uleb128 0x3b
 2884 00db 0B       		.uleb128 0xb
 2885 00dc 01       		.uleb128 0x1
 2886 00dd 13       		.uleb128 0x13
 2887 00de 00       		.byte	0
 2888 00df 00       		.byte	0
 2889 00e0 13       		.uleb128 0x13
 2890 00e1 0D       		.uleb128 0xd
 2891 00e2 00       		.byte	0
 2892 00e3 03       		.uleb128 0x3
 2893 00e4 0E       		.uleb128 0xe
 2894 00e5 3A       		.uleb128 0x3a
 2895 00e6 0B       		.uleb128 0xb
 2896 00e7 3B       		.uleb128 0x3b
 2897 00e8 0B       		.uleb128 0xb
 2898 00e9 49       		.uleb128 0x49
 2899 00ea 13       		.uleb128 0x13
 2900 00eb 00       		.byte	0
 2901 00ec 00       		.byte	0
 2902 00ed 14       		.uleb128 0x14
 2903 00ee 01       		.uleb128 0x1
 2904 00ef 01       		.byte	0x1
 2905 00f0 49       		.uleb128 0x49
 2906 00f1 13       		.uleb128 0x13
 2907 00f2 01       		.uleb128 0x1
 2908 00f3 13       		.uleb128 0x13
 2909 00f4 00       		.byte	0
 2910 00f5 00       		.byte	0
 2911 00f6 15       		.uleb128 0x15
 2912 00f7 21       		.uleb128 0x21
 2913 00f8 00       		.byte	0
 2914 00f9 49       		.uleb128 0x49
 2915 00fa 13       		.uleb128 0x13
 2916 00fb 2F       		.uleb128 0x2f
 2917 00fc 0B       		.uleb128 0xb
 2918 00fd 00       		.byte	0
 2919 00fe 00       		.byte	0
 2920 00ff 16       		.uleb128 0x16
 2921 0100 13       		.uleb128 0x13
 2922 0101 01       		.byte	0x1
 2923 0102 0B       		.uleb128 0xb
 2924 0103 0B       		.uleb128 0xb
 2925 0104 3A       		.uleb128 0x3a
 2926 0105 0B       		.uleb128 0xb
 2927 0106 3B       		.uleb128 0x3b
 2928 0107 0B       		.uleb128 0xb
 2929 0108 01       		.uleb128 0x1
 2930 0109 13       		.uleb128 0x13
 2931 010a 00       		.byte	0
ARM GAS  /tmp/ccOiGado.s 			page 55


 2932 010b 00       		.byte	0
 2933 010c 17       		.uleb128 0x17
 2934 010d 0D       		.uleb128 0xd
 2935 010e 00       		.byte	0
 2936 010f 03       		.uleb128 0x3
 2937 0110 0E       		.uleb128 0xe
 2938 0111 3A       		.uleb128 0x3a
 2939 0112 0B       		.uleb128 0xb
 2940 0113 3B       		.uleb128 0x3b
 2941 0114 0B       		.uleb128 0xb
 2942 0115 49       		.uleb128 0x49
 2943 0116 13       		.uleb128 0x13
 2944 0117 38       		.uleb128 0x38
 2945 0118 0B       		.uleb128 0xb
 2946 0119 00       		.byte	0
 2947 011a 00       		.byte	0
 2948 011b 18       		.uleb128 0x18
 2949 011c 13       		.uleb128 0x13
 2950 011d 01       		.byte	0x1
 2951 011e 03       		.uleb128 0x3
 2952 011f 0E       		.uleb128 0xe
 2953 0120 0B       		.uleb128 0xb
 2954 0121 0B       		.uleb128 0xb
 2955 0122 3A       		.uleb128 0x3a
 2956 0123 0B       		.uleb128 0xb
 2957 0124 3B       		.uleb128 0x3b
 2958 0125 0B       		.uleb128 0xb
 2959 0126 01       		.uleb128 0x1
 2960 0127 13       		.uleb128 0x13
 2961 0128 00       		.byte	0
 2962 0129 00       		.byte	0
 2963 012a 19       		.uleb128 0x19
 2964 012b 0D       		.uleb128 0xd
 2965 012c 00       		.byte	0
 2966 012d 03       		.uleb128 0x3
 2967 012e 08       		.uleb128 0x8
 2968 012f 3A       		.uleb128 0x3a
 2969 0130 0B       		.uleb128 0xb
 2970 0131 3B       		.uleb128 0x3b
 2971 0132 0B       		.uleb128 0xb
 2972 0133 49       		.uleb128 0x49
 2973 0134 13       		.uleb128 0x13
 2974 0135 38       		.uleb128 0x38
 2975 0136 0B       		.uleb128 0xb
 2976 0137 00       		.byte	0
 2977 0138 00       		.byte	0
 2978 0139 1A       		.uleb128 0x1a
 2979 013a 0F       		.uleb128 0xf
 2980 013b 00       		.byte	0
 2981 013c 0B       		.uleb128 0xb
 2982 013d 0B       		.uleb128 0xb
 2983 013e 49       		.uleb128 0x49
 2984 013f 13       		.uleb128 0x13
 2985 0140 00       		.byte	0
 2986 0141 00       		.byte	0
 2987 0142 1B       		.uleb128 0x1b
 2988 0143 13       		.uleb128 0x13
ARM GAS  /tmp/ccOiGado.s 			page 56


 2989 0144 01       		.byte	0x1
 2990 0145 03       		.uleb128 0x3
 2991 0146 0E       		.uleb128 0xe
 2992 0147 0B       		.uleb128 0xb
 2993 0148 05       		.uleb128 0x5
 2994 0149 3A       		.uleb128 0x3a
 2995 014a 0B       		.uleb128 0xb
 2996 014b 3B       		.uleb128 0x3b
 2997 014c 0B       		.uleb128 0xb
 2998 014d 01       		.uleb128 0x1
 2999 014e 13       		.uleb128 0x13
 3000 014f 00       		.byte	0
 3001 0150 00       		.byte	0
 3002 0151 1C       		.uleb128 0x1c
 3003 0152 0D       		.uleb128 0xd
 3004 0153 00       		.byte	0
 3005 0154 03       		.uleb128 0x3
 3006 0155 0E       		.uleb128 0xe
 3007 0156 3A       		.uleb128 0x3a
 3008 0157 0B       		.uleb128 0xb
 3009 0158 3B       		.uleb128 0x3b
 3010 0159 0B       		.uleb128 0xb
 3011 015a 49       		.uleb128 0x49
 3012 015b 13       		.uleb128 0x13
 3013 015c 38       		.uleb128 0x38
 3014 015d 05       		.uleb128 0x5
 3015 015e 00       		.byte	0
 3016 015f 00       		.byte	0
 3017 0160 1D       		.uleb128 0x1d
 3018 0161 15       		.uleb128 0x15
 3019 0162 00       		.byte	0
 3020 0163 27       		.uleb128 0x27
 3021 0164 19       		.uleb128 0x19
 3022 0165 00       		.byte	0
 3023 0166 00       		.byte	0
 3024 0167 1E       		.uleb128 0x1e
 3025 0168 15       		.uleb128 0x15
 3026 0169 01       		.byte	0x1
 3027 016a 27       		.uleb128 0x27
 3028 016b 19       		.uleb128 0x19
 3029 016c 49       		.uleb128 0x49
 3030 016d 13       		.uleb128 0x13
 3031 016e 01       		.uleb128 0x1
 3032 016f 13       		.uleb128 0x13
 3033 0170 00       		.byte	0
 3034 0171 00       		.byte	0
 3035 0172 1F       		.uleb128 0x1f
 3036 0173 05       		.uleb128 0x5
 3037 0174 00       		.byte	0
 3038 0175 49       		.uleb128 0x49
 3039 0176 13       		.uleb128 0x13
 3040 0177 00       		.byte	0
 3041 0178 00       		.byte	0
 3042 0179 20       		.uleb128 0x20
 3043 017a 13       		.uleb128 0x13
 3044 017b 01       		.byte	0x1
 3045 017c 03       		.uleb128 0x3
ARM GAS  /tmp/ccOiGado.s 			page 57


 3046 017d 0E       		.uleb128 0xe
 3047 017e 0B       		.uleb128 0xb
 3048 017f 05       		.uleb128 0x5
 3049 0180 3A       		.uleb128 0x3a
 3050 0181 0B       		.uleb128 0xb
 3051 0182 3B       		.uleb128 0x3b
 3052 0183 05       		.uleb128 0x5
 3053 0184 01       		.uleb128 0x1
 3054 0185 13       		.uleb128 0x13
 3055 0186 00       		.byte	0
 3056 0187 00       		.byte	0
 3057 0188 21       		.uleb128 0x21
 3058 0189 0D       		.uleb128 0xd
 3059 018a 00       		.byte	0
 3060 018b 03       		.uleb128 0x3
 3061 018c 0E       		.uleb128 0xe
 3062 018d 3A       		.uleb128 0x3a
 3063 018e 0B       		.uleb128 0xb
 3064 018f 3B       		.uleb128 0x3b
 3065 0190 05       		.uleb128 0x5
 3066 0191 49       		.uleb128 0x49
 3067 0192 13       		.uleb128 0x13
 3068 0193 38       		.uleb128 0x38
 3069 0194 05       		.uleb128 0x5
 3070 0195 00       		.byte	0
 3071 0196 00       		.byte	0
 3072 0197 22       		.uleb128 0x22
 3073 0198 13       		.uleb128 0x13
 3074 0199 01       		.byte	0x1
 3075 019a 03       		.uleb128 0x3
 3076 019b 0E       		.uleb128 0xe
 3077 019c 0B       		.uleb128 0xb
 3078 019d 0B       		.uleb128 0xb
 3079 019e 3A       		.uleb128 0x3a
 3080 019f 0B       		.uleb128 0xb
 3081 01a0 3B       		.uleb128 0x3b
 3082 01a1 05       		.uleb128 0x5
 3083 01a2 01       		.uleb128 0x1
 3084 01a3 13       		.uleb128 0x13
 3085 01a4 00       		.byte	0
 3086 01a5 00       		.byte	0
 3087 01a6 23       		.uleb128 0x23
 3088 01a7 17       		.uleb128 0x17
 3089 01a8 01       		.byte	0x1
 3090 01a9 0B       		.uleb128 0xb
 3091 01aa 0B       		.uleb128 0xb
 3092 01ab 3A       		.uleb128 0x3a
 3093 01ac 0B       		.uleb128 0xb
 3094 01ad 3B       		.uleb128 0x3b
 3095 01ae 05       		.uleb128 0x5
 3096 01af 01       		.uleb128 0x1
 3097 01b0 13       		.uleb128 0x13
 3098 01b1 00       		.byte	0
 3099 01b2 00       		.byte	0
 3100 01b3 24       		.uleb128 0x24
 3101 01b4 0D       		.uleb128 0xd
 3102 01b5 00       		.byte	0
ARM GAS  /tmp/ccOiGado.s 			page 58


 3103 01b6 03       		.uleb128 0x3
 3104 01b7 0E       		.uleb128 0xe
 3105 01b8 3A       		.uleb128 0x3a
 3106 01b9 0B       		.uleb128 0xb
 3107 01ba 3B       		.uleb128 0x3b
 3108 01bb 05       		.uleb128 0x5
 3109 01bc 49       		.uleb128 0x49
 3110 01bd 13       		.uleb128 0x13
 3111 01be 00       		.byte	0
 3112 01bf 00       		.byte	0
 3113 01c0 25       		.uleb128 0x25
 3114 01c1 15       		.uleb128 0x15
 3115 01c2 01       		.byte	0x1
 3116 01c3 27       		.uleb128 0x27
 3117 01c4 19       		.uleb128 0x19
 3118 01c5 01       		.uleb128 0x1
 3119 01c6 13       		.uleb128 0x13
 3120 01c7 00       		.byte	0
 3121 01c8 00       		.byte	0
 3122 01c9 26       		.uleb128 0x26
 3123 01ca 04       		.uleb128 0x4
 3124 01cb 01       		.byte	0x1
 3125 01cc 03       		.uleb128 0x3
 3126 01cd 0E       		.uleb128 0xe
 3127 01ce 0B       		.uleb128 0xb
 3128 01cf 0B       		.uleb128 0xb
 3129 01d0 49       		.uleb128 0x49
 3130 01d1 13       		.uleb128 0x13
 3131 01d2 3A       		.uleb128 0x3a
 3132 01d3 0B       		.uleb128 0xb
 3133 01d4 3B       		.uleb128 0x3b
 3134 01d5 05       		.uleb128 0x5
 3135 01d6 01       		.uleb128 0x1
 3136 01d7 13       		.uleb128 0x13
 3137 01d8 00       		.byte	0
 3138 01d9 00       		.byte	0
 3139 01da 27       		.uleb128 0x27
 3140 01db 28       		.uleb128 0x28
 3141 01dc 00       		.byte	0
 3142 01dd 03       		.uleb128 0x3
 3143 01de 0E       		.uleb128 0xe
 3144 01df 1C       		.uleb128 0x1c
 3145 01e0 0D       		.uleb128 0xd
 3146 01e1 00       		.byte	0
 3147 01e2 00       		.byte	0
 3148 01e3 28       		.uleb128 0x28
 3149 01e4 21       		.uleb128 0x21
 3150 01e5 00       		.byte	0
 3151 01e6 00       		.byte	0
 3152 01e7 00       		.byte	0
 3153 01e8 29       		.uleb128 0x29
 3154 01e9 34       		.uleb128 0x34
 3155 01ea 00       		.byte	0
 3156 01eb 03       		.uleb128 0x3
 3157 01ec 0E       		.uleb128 0xe
 3158 01ed 3A       		.uleb128 0x3a
 3159 01ee 0B       		.uleb128 0xb
ARM GAS  /tmp/ccOiGado.s 			page 59


 3160 01ef 3B       		.uleb128 0x3b
 3161 01f0 0B       		.uleb128 0xb
 3162 01f1 49       		.uleb128 0x49
 3163 01f2 13       		.uleb128 0x13
 3164 01f3 02       		.uleb128 0x2
 3165 01f4 18       		.uleb128 0x18
 3166 01f5 00       		.byte	0
 3167 01f6 00       		.byte	0
 3168 01f7 2A       		.uleb128 0x2a
 3169 01f8 2E       		.uleb128 0x2e
 3170 01f9 01       		.byte	0x1
 3171 01fa 3F       		.uleb128 0x3f
 3172 01fb 19       		.uleb128 0x19
 3173 01fc 03       		.uleb128 0x3
 3174 01fd 0E       		.uleb128 0xe
 3175 01fe 3A       		.uleb128 0x3a
 3176 01ff 0B       		.uleb128 0xb
 3177 0200 3B       		.uleb128 0x3b
 3178 0201 0B       		.uleb128 0xb
 3179 0202 27       		.uleb128 0x27
 3180 0203 19       		.uleb128 0x19
 3181 0204 11       		.uleb128 0x11
 3182 0205 01       		.uleb128 0x1
 3183 0206 12       		.uleb128 0x12
 3184 0207 06       		.uleb128 0x6
 3185 0208 40       		.uleb128 0x40
 3186 0209 18       		.uleb128 0x18
 3187 020a 9742     		.uleb128 0x2117
 3188 020c 19       		.uleb128 0x19
 3189 020d 01       		.uleb128 0x1
 3190 020e 13       		.uleb128 0x13
 3191 020f 00       		.byte	0
 3192 0210 00       		.byte	0
 3193 0211 2B       		.uleb128 0x2b
 3194 0212 05       		.uleb128 0x5
 3195 0213 00       		.byte	0
 3196 0214 03       		.uleb128 0x3
 3197 0215 08       		.uleb128 0x8
 3198 0216 3A       		.uleb128 0x3a
 3199 0217 0B       		.uleb128 0xb
 3200 0218 3B       		.uleb128 0x3b
 3201 0219 0B       		.uleb128 0xb
 3202 021a 49       		.uleb128 0x49
 3203 021b 13       		.uleb128 0x13
 3204 021c 02       		.uleb128 0x2
 3205 021d 17       		.uleb128 0x17
 3206 021e 00       		.byte	0
 3207 021f 00       		.byte	0
 3208 0220 2C       		.uleb128 0x2c
 3209 0221 34       		.uleb128 0x34
 3210 0222 00       		.byte	0
 3211 0223 03       		.uleb128 0x3
 3212 0224 0E       		.uleb128 0xe
 3213 0225 3A       		.uleb128 0x3a
 3214 0226 0B       		.uleb128 0xb
 3215 0227 3B       		.uleb128 0x3b
 3216 0228 0B       		.uleb128 0xb
ARM GAS  /tmp/ccOiGado.s 			page 60


 3217 0229 49       		.uleb128 0x49
 3218 022a 13       		.uleb128 0x13
 3219 022b 00       		.byte	0
 3220 022c 00       		.byte	0
 3221 022d 2D       		.uleb128 0x2d
 3222 022e 34       		.uleb128 0x34
 3223 022f 00       		.byte	0
 3224 0230 03       		.uleb128 0x3
 3225 0231 0E       		.uleb128 0xe
 3226 0232 3A       		.uleb128 0x3a
 3227 0233 0B       		.uleb128 0xb
 3228 0234 3B       		.uleb128 0x3b
 3229 0235 0B       		.uleb128 0xb
 3230 0236 49       		.uleb128 0x49
 3231 0237 13       		.uleb128 0x13
 3232 0238 02       		.uleb128 0x2
 3233 0239 17       		.uleb128 0x17
 3234 023a 00       		.byte	0
 3235 023b 00       		.byte	0
 3236 023c 2E       		.uleb128 0x2e
 3237 023d 2E       		.uleb128 0x2e
 3238 023e 01       		.byte	0x1
 3239 023f 3F       		.uleb128 0x3f
 3240 0240 19       		.uleb128 0x19
 3241 0241 03       		.uleb128 0x3
 3242 0242 0E       		.uleb128 0xe
 3243 0243 3A       		.uleb128 0x3a
 3244 0244 0B       		.uleb128 0xb
 3245 0245 3B       		.uleb128 0x3b
 3246 0246 0B       		.uleb128 0xb
 3247 0247 27       		.uleb128 0x27
 3248 0248 19       		.uleb128 0x19
 3249 0249 20       		.uleb128 0x20
 3250 024a 0B       		.uleb128 0xb
 3251 024b 01       		.uleb128 0x1
 3252 024c 13       		.uleb128 0x13
 3253 024d 00       		.byte	0
 3254 024e 00       		.byte	0
 3255 024f 2F       		.uleb128 0x2f
 3256 0250 05       		.uleb128 0x5
 3257 0251 00       		.byte	0
 3258 0252 03       		.uleb128 0x3
 3259 0253 0E       		.uleb128 0xe
 3260 0254 3A       		.uleb128 0x3a
 3261 0255 0B       		.uleb128 0xb
 3262 0256 3B       		.uleb128 0x3b
 3263 0257 0B       		.uleb128 0xb
 3264 0258 49       		.uleb128 0x49
 3265 0259 13       		.uleb128 0x13
 3266 025a 00       		.byte	0
 3267 025b 00       		.byte	0
 3268 025c 30       		.uleb128 0x30
 3269 025d 2E       		.uleb128 0x2e
 3270 025e 01       		.byte	0x1
 3271 025f 3F       		.uleb128 0x3f
 3272 0260 19       		.uleb128 0x19
 3273 0261 03       		.uleb128 0x3
ARM GAS  /tmp/ccOiGado.s 			page 61


 3274 0262 0E       		.uleb128 0xe
 3275 0263 3A       		.uleb128 0x3a
 3276 0264 0B       		.uleb128 0xb
 3277 0265 3B       		.uleb128 0x3b
 3278 0266 0B       		.uleb128 0xb
 3279 0267 27       		.uleb128 0x27
 3280 0268 19       		.uleb128 0x19
 3281 0269 49       		.uleb128 0x49
 3282 026a 13       		.uleb128 0x13
 3283 026b 11       		.uleb128 0x11
 3284 026c 01       		.uleb128 0x1
 3285 026d 12       		.uleb128 0x12
 3286 026e 06       		.uleb128 0x6
 3287 026f 40       		.uleb128 0x40
 3288 0270 18       		.uleb128 0x18
 3289 0271 9742     		.uleb128 0x2117
 3290 0273 19       		.uleb128 0x19
 3291 0274 01       		.uleb128 0x1
 3292 0275 13       		.uleb128 0x13
 3293 0276 00       		.byte	0
 3294 0277 00       		.byte	0
 3295 0278 31       		.uleb128 0x31
 3296 0279 898201   		.uleb128 0x4109
 3297 027c 01       		.byte	0x1
 3298 027d 11       		.uleb128 0x11
 3299 027e 01       		.uleb128 0x1
 3300 027f 31       		.uleb128 0x31
 3301 0280 13       		.uleb128 0x13
 3302 0281 01       		.uleb128 0x1
 3303 0282 13       		.uleb128 0x13
 3304 0283 00       		.byte	0
 3305 0284 00       		.byte	0
 3306 0285 32       		.uleb128 0x32
 3307 0286 8A8201   		.uleb128 0x410a
 3308 0289 00       		.byte	0
 3309 028a 02       		.uleb128 0x2
 3310 028b 18       		.uleb128 0x18
 3311 028c 9142     		.uleb128 0x2111
 3312 028e 18       		.uleb128 0x18
 3313 028f 00       		.byte	0
 3314 0290 00       		.byte	0
 3315 0291 33       		.uleb128 0x33
 3316 0292 898201   		.uleb128 0x4109
 3317 0295 01       		.byte	0x1
 3318 0296 11       		.uleb128 0x11
 3319 0297 01       		.uleb128 0x1
 3320 0298 31       		.uleb128 0x31
 3321 0299 13       		.uleb128 0x13
 3322 029a 00       		.byte	0
 3323 029b 00       		.byte	0
 3324 029c 34       		.uleb128 0x34
 3325 029d 05       		.uleb128 0x5
 3326 029e 00       		.byte	0
 3327 029f 03       		.uleb128 0x3
 3328 02a0 0E       		.uleb128 0xe
 3329 02a1 3A       		.uleb128 0x3a
 3330 02a2 0B       		.uleb128 0xb
ARM GAS  /tmp/ccOiGado.s 			page 62


 3331 02a3 3B       		.uleb128 0x3b
 3332 02a4 0B       		.uleb128 0xb
 3333 02a5 49       		.uleb128 0x49
 3334 02a6 13       		.uleb128 0x13
 3335 02a7 02       		.uleb128 0x2
 3336 02a8 17       		.uleb128 0x17
 3337 02a9 00       		.byte	0
 3338 02aa 00       		.byte	0
 3339 02ab 35       		.uleb128 0x35
 3340 02ac 34       		.uleb128 0x34
 3341 02ad 00       		.byte	0
 3342 02ae 03       		.uleb128 0x3
 3343 02af 08       		.uleb128 0x8
 3344 02b0 3A       		.uleb128 0x3a
 3345 02b1 0B       		.uleb128 0xb
 3346 02b2 3B       		.uleb128 0x3b
 3347 02b3 0B       		.uleb128 0xb
 3348 02b4 49       		.uleb128 0x49
 3349 02b5 13       		.uleb128 0x13
 3350 02b6 02       		.uleb128 0x2
 3351 02b7 17       		.uleb128 0x17
 3352 02b8 00       		.byte	0
 3353 02b9 00       		.byte	0
 3354 02ba 36       		.uleb128 0x36
 3355 02bb 898201   		.uleb128 0x4109
 3356 02be 00       		.byte	0
 3357 02bf 11       		.uleb128 0x11
 3358 02c0 01       		.uleb128 0x1
 3359 02c1 31       		.uleb128 0x31
 3360 02c2 13       		.uleb128 0x13
 3361 02c3 00       		.byte	0
 3362 02c4 00       		.byte	0
 3363 02c5 37       		.uleb128 0x37
 3364 02c6 0B       		.uleb128 0xb
 3365 02c7 01       		.byte	0x1
 3366 02c8 11       		.uleb128 0x11
 3367 02c9 01       		.uleb128 0x1
 3368 02ca 12       		.uleb128 0x12
 3369 02cb 06       		.uleb128 0x6
 3370 02cc 00       		.byte	0
 3371 02cd 00       		.byte	0
 3372 02ce 38       		.uleb128 0x38
 3373 02cf 2E       		.uleb128 0x2e
 3374 02d0 01       		.byte	0x1
 3375 02d1 3F       		.uleb128 0x3f
 3376 02d2 19       		.uleb128 0x19
 3377 02d3 03       		.uleb128 0x3
 3378 02d4 0E       		.uleb128 0xe
 3379 02d5 3A       		.uleb128 0x3a
 3380 02d6 0B       		.uleb128 0xb
 3381 02d7 3B       		.uleb128 0x3b
 3382 02d8 0B       		.uleb128 0xb
 3383 02d9 27       		.uleb128 0x27
 3384 02da 19       		.uleb128 0x19
 3385 02db 49       		.uleb128 0x49
 3386 02dc 13       		.uleb128 0x13
 3387 02dd 11       		.uleb128 0x11
ARM GAS  /tmp/ccOiGado.s 			page 63


 3388 02de 01       		.uleb128 0x1
 3389 02df 12       		.uleb128 0x12
 3390 02e0 06       		.uleb128 0x6
 3391 02e1 40       		.uleb128 0x40
 3392 02e2 18       		.uleb128 0x18
 3393 02e3 9642     		.uleb128 0x2116
 3394 02e5 19       		.uleb128 0x19
 3395 02e6 01       		.uleb128 0x1
 3396 02e7 13       		.uleb128 0x13
 3397 02e8 00       		.byte	0
 3398 02e9 00       		.byte	0
 3399 02ea 39       		.uleb128 0x39
 3400 02eb 1D       		.uleb128 0x1d
 3401 02ec 01       		.byte	0x1
 3402 02ed 31       		.uleb128 0x31
 3403 02ee 13       		.uleb128 0x13
 3404 02ef 11       		.uleb128 0x11
 3405 02f0 01       		.uleb128 0x1
 3406 02f1 12       		.uleb128 0x12
 3407 02f2 06       		.uleb128 0x6
 3408 02f3 58       		.uleb128 0x58
 3409 02f4 0B       		.uleb128 0xb
 3410 02f5 59       		.uleb128 0x59
 3411 02f6 0B       		.uleb128 0xb
 3412 02f7 01       		.uleb128 0x1
 3413 02f8 13       		.uleb128 0x13
 3414 02f9 00       		.byte	0
 3415 02fa 00       		.byte	0
 3416 02fb 3A       		.uleb128 0x3a
 3417 02fc 05       		.uleb128 0x5
 3418 02fd 00       		.byte	0
 3419 02fe 31       		.uleb128 0x31
 3420 02ff 13       		.uleb128 0x13
 3421 0300 02       		.uleb128 0x2
 3422 0301 17       		.uleb128 0x17
 3423 0302 00       		.byte	0
 3424 0303 00       		.byte	0
 3425 0304 3B       		.uleb128 0x3b
 3426 0305 2E       		.uleb128 0x2e
 3427 0306 01       		.byte	0x1
 3428 0307 31       		.uleb128 0x31
 3429 0308 13       		.uleb128 0x13
 3430 0309 11       		.uleb128 0x11
 3431 030a 01       		.uleb128 0x1
 3432 030b 12       		.uleb128 0x12
 3433 030c 06       		.uleb128 0x6
 3434 030d 40       		.uleb128 0x40
 3435 030e 18       		.uleb128 0x18
 3436 030f 9742     		.uleb128 0x2117
 3437 0311 19       		.uleb128 0x19
 3438 0312 01       		.uleb128 0x1
 3439 0313 13       		.uleb128 0x13
 3440 0314 00       		.byte	0
 3441 0315 00       		.byte	0
 3442 0316 3C       		.uleb128 0x3c
 3443 0317 2E       		.uleb128 0x2e
 3444 0318 00       		.byte	0
ARM GAS  /tmp/ccOiGado.s 			page 64


 3445 0319 3F       		.uleb128 0x3f
 3446 031a 19       		.uleb128 0x19
 3447 031b 3C       		.uleb128 0x3c
 3448 031c 19       		.uleb128 0x19
 3449 031d 6E       		.uleb128 0x6e
 3450 031e 0E       		.uleb128 0xe
 3451 031f 03       		.uleb128 0x3
 3452 0320 0E       		.uleb128 0xe
 3453 0321 3A       		.uleb128 0x3a
 3454 0322 0B       		.uleb128 0xb
 3455 0323 3B       		.uleb128 0x3b
 3456 0324 05       		.uleb128 0x5
 3457 0325 00       		.byte	0
 3458 0326 00       		.byte	0
 3459 0327 3D       		.uleb128 0x3d
 3460 0328 2E       		.uleb128 0x2e
 3461 0329 00       		.byte	0
 3462 032a 3F       		.uleb128 0x3f
 3463 032b 19       		.uleb128 0x19
 3464 032c 3C       		.uleb128 0x3c
 3465 032d 19       		.uleb128 0x19
 3466 032e 6E       		.uleb128 0x6e
 3467 032f 0E       		.uleb128 0xe
 3468 0330 03       		.uleb128 0x3
 3469 0331 0E       		.uleb128 0xe
 3470 0332 3A       		.uleb128 0x3a
 3471 0333 0B       		.uleb128 0xb
 3472 0334 3B       		.uleb128 0x3b
 3473 0335 0B       		.uleb128 0xb
 3474 0336 00       		.byte	0
 3475 0337 00       		.byte	0
 3476 0338 00       		.byte	0
 3477              		.section	.debug_loc,"",%progbits
 3478              	.Ldebug_loc0:
 3479              	.LLST16:
 3480 0000 9C010000 		.4byte	.LVL44-.Ltext0
 3481 0004 A4010000 		.4byte	.LVL45-.Ltext0
 3482 0008 0100     		.2byte	0x1
 3483 000a 50       		.byte	0x50
 3484 000b A4010000 		.4byte	.LVL45-.Ltext0
 3485 000f B8010000 		.4byte	.LFE72-.Ltext0
 3486 0013 0400     		.2byte	0x4
 3487 0015 F3       		.byte	0xf3
 3488 0016 01       		.uleb128 0x1
 3489 0017 50       		.byte	0x50
 3490 0018 9F       		.byte	0x9f
 3491 0019 00000000 		.4byte	0
 3492 001d 00000000 		.4byte	0
 3493              	.LLST13:
 3494 0021 C8000000 		.4byte	.LVL29-.Ltext0
 3495 0025 D0000000 		.4byte	.LVL30-.Ltext0
 3496 0029 0100     		.2byte	0x1
 3497 002b 50       		.byte	0x50
 3498 002c D0000000 		.4byte	.LVL30-.Ltext0
 3499 0030 FC000000 		.4byte	.LFE71-.Ltext0
 3500 0034 0400     		.2byte	0x4
 3501 0036 F3       		.byte	0xf3
ARM GAS  /tmp/ccOiGado.s 			page 65


 3502 0037 01       		.uleb128 0x1
 3503 0038 50       		.byte	0x50
 3504 0039 9F       		.byte	0x9f
 3505 003a 00000000 		.4byte	0
 3506 003e 00000000 		.4byte	0
 3507              	.LLST14:
 3508 0042 E0000000 		.4byte	.LVL31-.Ltext0
 3509 0046 E4000000 		.4byte	.LVL32-.Ltext0
 3510 004a 0100     		.2byte	0x1
 3511 004c 53       		.byte	0x53
 3512 004d 00000000 		.4byte	0
 3513 0051 00000000 		.4byte	0
 3514              	.LLST1:
 3515 0055 30000000 		.4byte	.LVL8-.Ltext0
 3516 0059 38000000 		.4byte	.LVL9-.Ltext0
 3517 005d 0100     		.2byte	0x1
 3518 005f 50       		.byte	0x50
 3519 0060 38000000 		.4byte	.LVL9-.Ltext0
 3520 0064 54000000 		.4byte	.LFE68-.Ltext0
 3521 0068 0400     		.2byte	0x4
 3522 006a F3       		.byte	0xf3
 3523 006b 01       		.uleb128 0x1
 3524 006c 50       		.byte	0x50
 3525 006d 9F       		.byte	0x9f
 3526 006e 00000000 		.4byte	0
 3527 0072 00000000 		.4byte	0
 3528              	.LLST2:
 3529 0076 54000000 		.4byte	.LVL12-.Ltext0
 3530 007a 5E000000 		.4byte	.LVL14-.Ltext0
 3531 007e 0100     		.2byte	0x1
 3532 0080 50       		.byte	0x50
 3533 0081 5E000000 		.4byte	.LVL14-.Ltext0
 3534 0085 6E000000 		.4byte	.LFE67-.Ltext0
 3535 0089 0400     		.2byte	0x4
 3536 008b F3       		.byte	0xf3
 3537 008c 01       		.uleb128 0x1
 3538 008d 50       		.byte	0x50
 3539 008e 9F       		.byte	0x9f
 3540 008f 00000000 		.4byte	0
 3541 0093 00000000 		.4byte	0
 3542              	.LLST3:
 3543 0097 54000000 		.4byte	.LVL12-.Ltext0
 3544 009b 5E000000 		.4byte	.LVL14-.Ltext0
 3545 009f 0100     		.2byte	0x1
 3546 00a1 51       		.byte	0x51
 3547 00a2 5E000000 		.4byte	.LVL14-.Ltext0
 3548 00a6 62000000 		.4byte	.LVL15-.Ltext0
 3549 00aa 0100     		.2byte	0x1
 3550 00ac 54       		.byte	0x54
 3551 00ad 62000000 		.4byte	.LVL15-.Ltext0
 3552 00b1 66000000 		.4byte	.LVL16-.Ltext0
 3553 00b5 0300     		.2byte	0x3
 3554 00b7 74       		.byte	0x74
 3555 00b8 7F       		.sleb128 -1
 3556 00b9 9F       		.byte	0x9f
 3557 00ba 66000000 		.4byte	.LVL16-.Ltext0
 3558 00be 6A000000 		.4byte	.LVL17-.Ltext0
ARM GAS  /tmp/ccOiGado.s 			page 66


 3559 00c2 0100     		.2byte	0x1
 3560 00c4 54       		.byte	0x54
 3561 00c5 00000000 		.4byte	0
 3562 00c9 00000000 		.4byte	0
 3563              	.LLST4:
 3564 00cd 54000000 		.4byte	.LVL12-.Ltext0
 3565 00d1 5E000000 		.4byte	.LVL14-.Ltext0
 3566 00d5 0100     		.2byte	0x1
 3567 00d7 52       		.byte	0x52
 3568 00d8 5E000000 		.4byte	.LVL14-.Ltext0
 3569 00dc 6E000000 		.4byte	.LFE67-.Ltext0
 3570 00e0 0100     		.2byte	0x1
 3571 00e2 56       		.byte	0x56
 3572 00e3 00000000 		.4byte	0
 3573 00e7 00000000 		.4byte	0
 3574              	.LLST5:
 3575 00eb 56000000 		.4byte	.LVL13-.Ltext0
 3576 00ef 6A000000 		.4byte	.LVL17-.Ltext0
 3577 00f3 0200     		.2byte	0x2
 3578 00f5 30       		.byte	0x30
 3579 00f6 9F       		.byte	0x9f
 3580 00f7 00000000 		.4byte	0
 3581 00fb 00000000 		.4byte	0
 3582              	.LLST6:
 3583 00ff 90000000 		.4byte	.LVL20-.Ltext0
 3584 0103 9A000000 		.4byte	.LVL22-.Ltext0
 3585 0107 0100     		.2byte	0x1
 3586 0109 50       		.byte	0x50
 3587 010a 9A000000 		.4byte	.LVL22-.Ltext0
 3588 010e AA000000 		.4byte	.LVL26-.Ltext0
 3589 0112 0400     		.2byte	0x4
 3590 0114 F3       		.byte	0xf3
 3591 0115 01       		.uleb128 0x1
 3592 0116 50       		.byte	0x50
 3593 0117 9F       		.byte	0x9f
 3594 0118 AA000000 		.4byte	.LVL26-.Ltext0
 3595 011c AE000000 		.4byte	.LFE66-.Ltext0
 3596 0120 0100     		.2byte	0x1
 3597 0122 50       		.byte	0x50
 3598 0123 00000000 		.4byte	0
 3599 0127 00000000 		.4byte	0
 3600              	.LLST7:
 3601 012b 90000000 		.4byte	.LVL20-.Ltext0
 3602 012f 9A000000 		.4byte	.LVL22-.Ltext0
 3603 0133 0100     		.2byte	0x1
 3604 0135 51       		.byte	0x51
 3605 0136 9A000000 		.4byte	.LVL22-.Ltext0
 3606 013a A6000000 		.4byte	.LVL25-.Ltext0
 3607 013e 0100     		.2byte	0x1
 3608 0140 54       		.byte	0x54
 3609 0141 AA000000 		.4byte	.LVL26-.Ltext0
 3610 0145 AE000000 		.4byte	.LFE66-.Ltext0
 3611 0149 0100     		.2byte	0x1
 3612 014b 51       		.byte	0x51
 3613 014c 00000000 		.4byte	0
 3614 0150 00000000 		.4byte	0
 3615              	.LLST8:
ARM GAS  /tmp/ccOiGado.s 			page 67


 3616 0154 90000000 		.4byte	.LVL20-.Ltext0
 3617 0158 9A000000 		.4byte	.LVL22-.Ltext0
 3618 015c 0100     		.2byte	0x1
 3619 015e 52       		.byte	0x52
 3620 015f 9A000000 		.4byte	.LVL22-.Ltext0
 3621 0163 A6000000 		.4byte	.LVL25-.Ltext0
 3622 0167 0100     		.2byte	0x1
 3623 0169 56       		.byte	0x56
 3624 016a A6000000 		.4byte	.LVL25-.Ltext0
 3625 016e AA000000 		.4byte	.LVL26-.Ltext0
 3626 0172 0400     		.2byte	0x4
 3627 0174 F3       		.byte	0xf3
 3628 0175 01       		.uleb128 0x1
 3629 0176 52       		.byte	0x52
 3630 0177 9F       		.byte	0x9f
 3631 0178 AA000000 		.4byte	.LVL26-.Ltext0
 3632 017c AE000000 		.4byte	.LFE66-.Ltext0
 3633 0180 0100     		.2byte	0x1
 3634 0182 52       		.byte	0x52
 3635 0183 00000000 		.4byte	0
 3636 0187 00000000 		.4byte	0
 3637              	.LLST9:
 3638 018b 92000000 		.4byte	.LVL21-.Ltext0
 3639 018f A6000000 		.4byte	.LVL25-.Ltext0
 3640 0193 0200     		.2byte	0x2
 3641 0195 30       		.byte	0x30
 3642 0196 9F       		.byte	0x9f
 3643 0197 AA000000 		.4byte	.LVL26-.Ltext0
 3644 019b AE000000 		.4byte	.LFE66-.Ltext0
 3645 019f 0200     		.2byte	0x2
 3646 01a1 30       		.byte	0x30
 3647 01a2 9F       		.byte	0x9f
 3648 01a3 00000000 		.4byte	0
 3649 01a7 00000000 		.4byte	0
 3650              	.LLST11:
 3651 01ab 9E000000 		.4byte	.LVL23-.Ltext0
 3652 01af A6000000 		.4byte	.LVL25-.Ltext0
 3653 01b3 0100     		.2byte	0x1
 3654 01b5 50       		.byte	0x50
 3655 01b6 00000000 		.4byte	0
 3656 01ba 00000000 		.4byte	0
 3657              	.LLST15:
 3658 01be 78010000 		.4byte	.LVL40-.Ltext0
 3659 01c2 7D010000 		.4byte	.LVL41-1-.Ltext0
 3660 01c6 1B00     		.2byte	0x1b
 3661 01c8 70       		.byte	0x70
 3662 01c9 00       		.sleb128 0
 3663 01ca 0A       		.byte	0xa
 3664 01cb FFFF     		.2byte	0xffff
 3665 01cd 1A       		.byte	0x1a
 3666 01ce F7       		.byte	0xf7
 3667 01cf 2C       		.uleb128 0x2c
 3668 01d0 F7       		.byte	0xf7
 3669 01d1 25       		.uleb128 0x25
 3670 01d2 F4       		.byte	0xf4
 3671 01d3 25       		.uleb128 0x25
 3672 01d4 08       		.byte	0x8
ARM GAS  /tmp/ccOiGado.s 			page 68


 3673 01d5 66666666 		.4byte	0x66666666
 3674 01d9 66664D40 		.4byte	0x404d6666
 3675 01dd 1B       		.byte	0x1b
 3676 01de F7       		.byte	0xf7
 3677 01df 2C       		.uleb128 0x2c
 3678 01e0 F7       		.byte	0xf7
 3679 01e1 00       		.uleb128 0
 3680 01e2 9F       		.byte	0x9f
 3681 01e3 00000000 		.4byte	0
 3682 01e7 00000000 		.4byte	0
 3683              	.LLST0:
 3684 01eb 16000000 		.4byte	.LVL4-.Ltext0
 3685 01ef 22000000 		.4byte	.LVL5-.Ltext0
 3686 01f3 0300     		.2byte	0x3
 3687 01f5 08       		.byte	0x8
 3688 01f6 48       		.byte	0x48
 3689 01f7 9F       		.byte	0x9f
 3690 01f8 00000000 		.4byte	0
 3691 01fc 00000000 		.4byte	0
 3692              	.LLST12:
 3693 0200 AE000000 		.4byte	.LVL27-.Ltext0
 3694 0204 B0000000 		.4byte	.LVL28-.Ltext0
 3695 0208 0100     		.2byte	0x1
 3696 020a 50       		.byte	0x50
 3697 020b B0000000 		.4byte	.LVL28-.Ltext0
 3698 020f C8000000 		.4byte	.LFE70-.Ltext0
 3699 0213 0400     		.2byte	0x4
 3700 0215 F3       		.byte	0xf3
 3701 0216 01       		.uleb128 0x1
 3702 0217 50       		.byte	0x50
 3703 0218 9F       		.byte	0x9f
 3704 0219 00000000 		.4byte	0
 3705 021d 00000000 		.4byte	0
 3706              		.section	.debug_aranges,"",%progbits
 3707 0000 1C000000 		.4byte	0x1c
 3708 0004 0200     		.2byte	0x2
 3709 0006 00000000 		.4byte	.Ldebug_info0
 3710 000a 04       		.byte	0x4
 3711 000b 00       		.byte	0
 3712 000c 0000     		.2byte	0
 3713 000e 0000     		.2byte	0
 3714 0010 00000000 		.4byte	.Ltext0
 3715 0014 B8010000 		.4byte	.Letext0-.Ltext0
 3716 0018 00000000 		.4byte	0
 3717 001c 00000000 		.4byte	0
 3718              		.section	.debug_line,"",%progbits
 3719              	.Ldebug_line0:
 3720 0000 BA020000 		.section	.debug_str,"MS",%progbits,1
 3720      02001302 
 3720      00000201 
 3720      FB0E0D00 
 3720      01010101 
 3721              	.LASF94:
 3722 0000 5F64736F 		.ascii	"_dso_handle\000"
 3722      5F68616E 
 3722      646C6500 
 3723              	.LASF3:
ARM GAS  /tmp/ccOiGado.s 			page 69


 3724 000c 73686F72 		.ascii	"short int\000"
 3724      7420696E 
 3724      7400
 3725              	.LASF29:
 3726 0016 4C434B52 		.ascii	"LCKR\000"
 3726      00
 3727              	.LASF35:
 3728 001b 44494552 		.ascii	"DIER\000"
 3728      00
 3729              	.LASF93:
 3730 0020 5F666E61 		.ascii	"_fnargs\000"
 3730      72677300 
 3731              	.LASF147:
 3732 0028 5F72616E 		.ascii	"_rand48\000"
 3732      64343800 
 3733              	.LASF179:
 3734 0030 5F5F6664 		.ascii	"__fdlibm_xopen\000"
 3734      6C69626D 
 3734      5F786F70 
 3734      656E00
 3735              	.LASF126:
 3736 003f 5F656D65 		.ascii	"_emergency\000"
 3736      7267656E 
 3736      637900
 3737              	.LASF190:
 3738 004a 55736172 		.ascii	"UsartPut\000"
 3738      74507574 
 3738      00
 3739              	.LASF4:
 3740 0053 5F5F7569 		.ascii	"__uint8_t\000"
 3740      6E74385F 
 3740      7400
 3741              	.LASF138:
 3742 005d 5F617465 		.ascii	"_atexit0\000"
 3742      78697430 
 3742      00
 3743              	.LASF67:
 3744 0066 5F6F6666 		.ascii	"_off_t\000"
 3744      5F7400
 3745              	.LASF62:
 3746 006d 54494D5F 		.ascii	"TIM_TypeDef\000"
 3746      54797065 
 3746      44656600 
 3747              	.LASF167:
 3748 0079 5F776372 		.ascii	"_wcrtomb_state\000"
 3748      746F6D62 
 3748      5F737461 
 3748      746500
 3749              	.LASF168:
 3750 0088 5F776373 		.ascii	"_wcsrtombs_state\000"
 3750      72746F6D 
 3750      62735F73 
 3750      74617465 
 3750      00
 3751              	.LASF202:
 3752 0099 4E564943 		.ascii	"NVIC_Conf\000"
 3752      5F436F6E 
ARM GAS  /tmp/ccOiGado.s 			page 70


 3752      6600
 3753              	.LASF12:
 3754 00a3 6C6F6E67 		.ascii	"long long unsigned int\000"
 3754      206C6F6E 
 3754      6720756E 
 3754      7369676E 
 3754      65642069 
 3755              	.LASF180:
 3756 00ba 5F5F6664 		.ascii	"__fdlibm_posix\000"
 3756      6C69626D 
 3756      5F706F73 
 3756      697800
 3757              	.LASF106:
 3758 00c9 5F6C6266 		.ascii	"_lbfsize\000"
 3758      73697A65 
 3758      00
 3759              	.LASF213:
 3760 00d2 53595343 		.ascii	"SYSCLK\000"
 3760      4C4B00
 3761              	.LASF181:
 3762 00d9 5F5F6664 		.ascii	"__fdlib_version\000"
 3762      6C69625F 
 3762      76657273 
 3762      696F6E00 
 3763              	.LASF208:
 3764 00e9 474E5520 		.ascii	"GNU C11 6.1.1 20160526 -mcpu=cortex-m3 -mthumb -mfl"
 3764      43313120 
 3764      362E312E 
 3764      31203230 
 3764      31363035 
 3765 011c 6F61742D 		.ascii	"oat-abi=soft -g -O1 -fno-common -fno-math-errno\000"
 3765      6162693D 
 3765      736F6674 
 3765      202D6720 
 3765      2D4F3120 
 3766              	.LASF165:
 3767 014c 5F6D6272 		.ascii	"_mbrtowc_state\000"
 3767      746F7763 
 3767      5F737461 
 3767      746500
 3768              	.LASF57:
 3769 015b 42445452 		.ascii	"BDTR\000"
 3769      00
 3770              	.LASF201:
 3771 0160 5243435F 		.ascii	"RCC_Conf\000"
 3771      436F6E66 
 3771      00
 3772              	.LASF160:
 3773 0169 5F776374 		.ascii	"_wctomb_state\000"
 3773      6F6D625F 
 3773      73746174 
 3773      6500
 3774              	.LASF83:
 3775 0177 5F5F746D 		.ascii	"__tm_sec\000"
 3775      5F736563 
 3775      00
 3776              	.LASF39:
ARM GAS  /tmp/ccOiGado.s 			page 71


 3777 0180 43434D52 		.ascii	"CCMR1\000"
 3777      3100
 3778              	.LASF41:
 3779 0186 43434D52 		.ascii	"CCMR2\000"
 3779      3200
 3780              	.LASF111:
 3781 018c 5F636C6F 		.ascii	"_close\000"
 3781      736500
 3782              	.LASF1:
 3783 0193 7369676E 		.ascii	"signed char\000"
 3783      65642063 
 3783      68617200 
 3784              	.LASF195:
 3785 019f 55534152 		.ascii	"USART_GetFlagStatus\000"
 3785      545F4765 
 3785      74466C61 
 3785      67537461 
 3785      74757300 
 3786              	.LASF63:
 3787 01b3 47545052 		.ascii	"GTPR\000"
 3787      00
 3788              	.LASF112:
 3789 01b8 5F756275 		.ascii	"_ubuf\000"
 3789      6600
 3790              	.LASF101:
 3791 01be 5F626173 		.ascii	"_base\000"
 3791      6500
 3792              	.LASF85:
 3793 01c4 5F5F746D 		.ascii	"__tm_hour\000"
 3793      5F686F75 
 3793      7200
 3794              	.LASF141:
 3795 01ce 5F5F7366 		.ascii	"__sf\000"
 3795      00
 3796              	.LASF92:
 3797 01d3 5F6F6E5F 		.ascii	"_on_exit_args\000"
 3797      65786974 
 3797      5F617267 
 3797      7300
 3798              	.LASF48:
 3799 01e1 52455345 		.ascii	"RESERVED12\000"
 3799      52564544 
 3799      313200
 3800              	.LASF50:
 3801 01ec 52455345 		.ascii	"RESERVED13\000"
 3801      52564544 
 3801      313300
 3802              	.LASF52:
 3803 01f7 52455345 		.ascii	"RESERVED14\000"
 3803      52564544 
 3803      313400
 3804              	.LASF54:
 3805 0202 52455345 		.ascii	"RESERVED15\000"
 3805      52564544 
 3805      313500
 3806              	.LASF107:
 3807 020d 5F636F6F 		.ascii	"_cookie\000"
ARM GAS  /tmp/ccOiGado.s 			page 72


 3807      6B696500 
 3808              	.LASF140:
 3809 0215 5F5F7367 		.ascii	"__sglue\000"
 3809      6C756500 
 3810              	.LASF61:
 3811 021d 52455345 		.ascii	"RESERVED19\000"
 3811      52564544 
 3811      313900
 3812              	.LASF8:
 3813 0228 6C6F6E67 		.ascii	"long int\000"
 3813      20696E74 
 3813      00
 3814              	.LASF212:
 3815 0231 44656C61 		.ascii	"DelayInit\000"
 3815      79496E69 
 3815      7400
 3816              	.LASF27:
 3817 023b 454E4142 		.ascii	"ENABLE\000"
 3817      4C4500
 3818              	.LASF104:
 3819 0242 5F666C61 		.ascii	"_flags\000"
 3819      677300
 3820              	.LASF96:
 3821 0249 5F69735F 		.ascii	"_is_cxa\000"
 3821      63786100 
 3822              	.LASF122:
 3823 0251 5F737464 		.ascii	"_stdin\000"
 3823      696E00
 3824              	.LASF178:
 3825 0258 5F5F6664 		.ascii	"__fdlibm_svid\000"
 3825      6C69626D 
 3825      5F737669 
 3825      6400
 3826              	.LASF13:
 3827 0266 756E7369 		.ascii	"unsigned int\000"
 3827      676E6564 
 3827      20696E74 
 3827      00
 3828              	.LASF132:
 3829 0273 5F726573 		.ascii	"_result_k\000"
 3829      756C745F 
 3829      6B00
 3830              	.LASF43:
 3831 027d 43434552 		.ascii	"CCER\000"
 3831      00
 3832              	.LASF203:
 3833 0282 4750494F 		.ascii	"GPIO_Conf\000"
 3833      5F436F6E 
 3833      6600
 3834              	.LASF15:
 3835 028c 75696E74 		.ascii	"uint16_t\000"
 3835      31365F74 
 3835      00
 3836              	.LASF194:
 3837 0295 55736572 		.ascii	"UserInit\000"
 3837      496E6974 
 3837      00
ARM GAS  /tmp/ccOiGado.s 			page 73


 3838              	.LASF182:
 3839 029e 5F737973 		.ascii	"_sys_errlist\000"
 3839      5F657272 
 3839      6C697374 
 3839      00
 3840              	.LASF136:
 3841 02ab 5F637674 		.ascii	"_cvtbuf\000"
 3841      62756600 
 3842              	.LASF115:
 3843 02b3 5F6F6666 		.ascii	"_offset\000"
 3843      73657400 
 3844              	.LASF166:
 3845 02bb 5F6D6273 		.ascii	"_mbsrtowcs_state\000"
 3845      72746F77 
 3845      63735F73 
 3845      74617465 
 3845      00
 3846              	.LASF164:
 3847 02cc 5F6D6272 		.ascii	"_mbrlen_state\000"
 3847      6C656E5F 
 3847      73746174 
 3847      6500
 3848              	.LASF151:
 3849 02da 5F756E75 		.ascii	"_unused_rand\000"
 3849      7365645F 
 3849      72616E64 
 3849      00
 3850              	.LASF22:
 3851 02e7 53797354 		.ascii	"SysTick_Type\000"
 3851      69636B5F 
 3851      54797065 
 3851      00
 3852              	.LASF5:
 3853 02f4 5F5F7569 		.ascii	"__uint16_t\000"
 3853      6E743136 
 3853      5F7400
 3854              	.LASF99:
 3855 02ff 5F666E73 		.ascii	"_fns\000"
 3855      00
 3856              	.LASF200:
 3857 0304 4750494F 		.ascii	"GPIO_ReadInputDataBit\000"
 3857      5F526561 
 3857      64496E70 
 3857      75744461 
 3857      74614269 
 3858              	.LASF9:
 3859 031a 5F5F7569 		.ascii	"__uint32_t\000"
 3859      6E743332 
 3859      5F7400
 3860              	.LASF79:
 3861 0325 5F736967 		.ascii	"_sign\000"
 3861      6E00
 3862              	.LASF173:
 3863 032b 5F696D70 		.ascii	"_impure_ptr\000"
 3863      7572655F 
 3863      70747200 
 3864              	.LASF124:
ARM GAS  /tmp/ccOiGado.s 			page 74


 3865 0337 5F737464 		.ascii	"_stderr\000"
 3865      65727200 
 3866              	.LASF81:
 3867 033f 5F426967 		.ascii	"_Bigint\000"
 3867      696E7400 
 3868              	.LASF77:
 3869 0347 5F6E6578 		.ascii	"_next\000"
 3869      7400
 3870              	.LASF108:
 3871 034d 5F726561 		.ascii	"_read\000"
 3871      6400
 3872              	.LASF188:
 3873 0353 74656D70 		.ascii	"temp\000"
 3873      00
 3874              	.LASF82:
 3875 0358 5F5F746D 		.ascii	"__tm\000"
 3875      00
 3876              	.LASF69:
 3877 035d 77696E74 		.ascii	"wint_t\000"
 3877      5F7400
 3878              	.LASF71:
 3879 0364 5F5F7763 		.ascii	"__wchb\000"
 3879      686200
 3880              	.LASF24:
 3881 036b 53797374 		.ascii	"SystemCoreClock\000"
 3881      656D436F 
 3881      7265436C 
 3881      6F636B00 
 3882              	.LASF135:
 3883 037b 5F637674 		.ascii	"_cvtlen\000"
 3883      6C656E00 
 3884              	.LASF10:
 3885 0383 6C6F6E67 		.ascii	"long unsigned int\000"
 3885      20756E73 
 3885      69676E65 
 3885      6420696E 
 3885      7400
 3886              	.LASF30:
 3887 0395 4750494F 		.ascii	"GPIO_TypeDef\000"
 3887      5F547970 
 3887      65446566 
 3887      00
 3888              	.LASF105:
 3889 03a2 5F66696C 		.ascii	"_file\000"
 3889      6500
 3890              	.LASF125:
 3891 03a8 5F696E63 		.ascii	"_inc\000"
 3891      00
 3892              	.LASF116:
 3893 03ad 5F646174 		.ascii	"_data\000"
 3893      6100
 3894              	.LASF145:
 3895 03b3 5F6E696F 		.ascii	"_niobs\000"
 3895      627300
 3896              	.LASF156:
 3897 03ba 5F72616E 		.ascii	"_rand_next\000"
 3897      645F6E65 
ARM GAS  /tmp/ccOiGado.s 			page 75


 3897      787400
 3898              	.LASF11:
 3899 03c5 6C6F6E67 		.ascii	"long long int\000"
 3899      206C6F6E 
 3899      6720696E 
 3899      7400
 3900              	.LASF209:
 3901 03d3 64726976 		.ascii	"drivers/tools.c\000"
 3901      6572732F 
 3901      746F6F6C 
 3901      732E6300 
 3902              	.LASF162:
 3903 03e3 5F736967 		.ascii	"_signal_buf\000"
 3903      6E616C5F 
 3903      62756600 
 3904              	.LASF153:
 3905 03ef 5F617363 		.ascii	"_asctime_buf\000"
 3905      74696D65 
 3905      5F627566 
 3905      00
 3906              	.LASF121:
 3907 03fc 5F657272 		.ascii	"_errno\000"
 3907      6E6F00
 3908              	.LASF70:
 3909 0403 5F5F7763 		.ascii	"__wch\000"
 3909      6800
 3910              	.LASF170:
 3911 0409 5F6E6578 		.ascii	"_nextf\000"
 3911      746600
 3912              	.LASF64:
 3913 0410 55534152 		.ascii	"USART_TypeDef\000"
 3913      545F5479 
 3913      70654465 
 3913      6600
 3914              	.LASF137:
 3915 041e 5F6E6577 		.ascii	"_new\000"
 3915      00
 3916              	.LASF117:
 3917 0423 5F6C6F63 		.ascii	"_lock\000"
 3917      6B00
 3918              	.LASF149:
 3919 0429 5F6D756C 		.ascii	"_mult\000"
 3919      7400
 3920              	.LASF131:
 3921 042f 5F726573 		.ascii	"_result\000"
 3921      756C7400 
 3922              	.LASF109:
 3923 0437 5F777269 		.ascii	"_write\000"
 3923      746500
 3924              	.LASF25:
 3925 043e 52455345 		.ascii	"RESET\000"
 3925      5400
 3926              	.LASF177:
 3927 0444 5F5F6664 		.ascii	"__fdlibm_ieee\000"
 3927      6C69626D 
 3927      5F696565 
 3927      6500
ARM GAS  /tmp/ccOiGado.s 			page 76


 3928              	.LASF171:
 3929 0452 5F6E6D61 		.ascii	"_nmalloc\000"
 3929      6C6C6F63 
 3929      00
 3930              	.LASF66:
 3931 045b 5F4C4F43 		.ascii	"_LOCK_RECURSIVE_T\000"
 3931      4B5F5245 
 3931      43555253 
 3931      4956455F 
 3931      5400
 3932              	.LASF18:
 3933 046d 73697A65 		.ascii	"sizetype\000"
 3933      74797065 
 3933      00
 3934              	.LASF20:
 3935 0476 4C4F4144 		.ascii	"LOAD\000"
 3935      00
 3936              	.LASF206:
 3937 047b 4D505536 		.ascii	"MPU6050_I2C_Init\000"
 3937      3035305F 
 3937      4932435F 
 3937      496E6974 
 3937      00
 3938              	.LASF205:
 3939 048c 54494D45 		.ascii	"TIMER_Conf\000"
 3939      525F436F 
 3939      6E6600
 3940              	.LASF80:
 3941 0497 5F776473 		.ascii	"_wds\000"
 3941      00
 3942              	.LASF47:
 3943 049c 52455345 		.ascii	"RESERVED11\000"
 3943      52564544 
 3943      313100
 3944              	.LASF87:
 3945 04a7 5F5F746D 		.ascii	"__tm_mon\000"
 3945      5F6D6F6E 
 3945      00
 3946              	.LASF97:
 3947 04b0 5F617465 		.ascii	"_atexit\000"
 3947      78697400 
 3948              	.LASF175:
 3949 04b8 7375626F 		.ascii	"suboptarg\000"
 3949      70746172 
 3949      6700
 3950              	.LASF129:
 3951 04c2 5F5F7364 		.ascii	"__sdidinit\000"
 3951      6964696E 
 3951      697400
 3952              	.LASF155:
 3953 04cd 5F67616D 		.ascii	"_gamma_signgam\000"
 3953      6D615F73 
 3953      69676E67 
 3953      616D00
 3954              	.LASF58:
 3955 04dc 52455345 		.ascii	"RESERVED17\000"
 3955      52564544 
ARM GAS  /tmp/ccOiGado.s 			page 77


 3955      313700
 3956              	.LASF196:
 3957 04e7 55534152 		.ascii	"USART_ReceiveData\000"
 3957      545F5265 
 3957      63656976 
 3957      65446174 
 3957      6100
 3958              	.LASF176:
 3959 04f9 666C6F61 		.ascii	"float\000"
 3959      7400
 3960              	.LASF204:
 3961 04ff 55534152 		.ascii	"USART_Conf\000"
 3961      545F436F 
 3961      6E6600
 3962              	.LASF134:
 3963 050a 5F667265 		.ascii	"_freelist\000"
 3963      656C6973 
 3963      7400
 3964              	.LASF28:
 3965 0514 42535252 		.ascii	"BSRR\000"
 3965      00
 3966              	.LASF198:
 3967 0519 4750494F 		.ascii	"GPIO_WriteBit\000"
 3967      5F577269 
 3967      74654269 
 3967      7400
 3968              	.LASF31:
 3969 0527 52455345 		.ascii	"RESERVED0\000"
 3969      52564544 
 3969      3000
 3970              	.LASF32:
 3971 0531 52455345 		.ascii	"RESERVED1\000"
 3971      52564544 
 3971      3100
 3972              	.LASF34:
 3973 053b 52455345 		.ascii	"RESERVED2\000"
 3973      52564544 
 3973      3200
 3974              	.LASF36:
 3975 0545 52455345 		.ascii	"RESERVED3\000"
 3975      52564544 
 3975      3300
 3976              	.LASF37:
 3977 054f 52455345 		.ascii	"RESERVED4\000"
 3977      52564544 
 3977      3400
 3978              	.LASF38:
 3979 0559 52455345 		.ascii	"RESERVED5\000"
 3979      52564544 
 3979      3500
 3980              	.LASF40:
 3981 0563 52455345 		.ascii	"RESERVED6\000"
 3981      52564544 
 3981      3600
 3982              	.LASF44:
 3983 056d 52455345 		.ascii	"RESERVED8\000"
 3983      52564544 
ARM GAS  /tmp/ccOiGado.s 			page 78


 3983      3800
 3984              	.LASF45:
 3985 0577 52455345 		.ascii	"RESERVED9\000"
 3985      52564544 
 3985      3900
 3986              	.LASF16:
 3987 0581 696E7433 		.ascii	"int32_t\000"
 3987      325F7400 
 3988              	.LASF2:
 3989 0589 756E7369 		.ascii	"unsigned char\000"
 3989      676E6564 
 3989      20636861 
 3989      7200
 3990              	.LASF210:
 3991 0597 2F686F6D 		.ascii	"/home/faker/Documents/code/STM/stm32-quadrocopter\000"
 3991      652F6661 
 3991      6B65722F 
 3991      446F6375 
 3991      6D656E74 
 3992              	.LASF23:
 3993 05c9 49544D5F 		.ascii	"ITM_RxBuffer\000"
 3993      52784275 
 3993      66666572 
 3993      00
 3994              	.LASF207:
 3995 05d6 4D505536 		.ascii	"MPU6050_Initialize\000"
 3995      3035305F 
 3995      496E6974 
 3995      69616C69 
 3995      7A6500
 3996              	.LASF185:
 3997 05e9 6661635F 		.ascii	"fac_ms\000"
 3997      6D7300
 3998              	.LASF169:
 3999 05f0 5F685F65 		.ascii	"_h_errno\000"
 3999      72726E6F 
 3999      00
 4000              	.LASF75:
 4001 05f9 5F666C6F 		.ascii	"_flock_t\000"
 4001      636B5F74 
 4001      00
 4002              	.LASF90:
 4003 0602 5F5F746D 		.ascii	"__tm_yday\000"
 4003      5F796461 
 4003      7900
 4004              	.LASF191:
 4005 060c 66696C65 		.ascii	"file\000"
 4005      00
 4006              	.LASF119:
 4007 0611 5F666C61 		.ascii	"_flags2\000"
 4007      67733200 
 4008              	.LASF146:
 4009 0619 5F696F62 		.ascii	"_iobs\000"
 4009      7300
 4010              	.LASF143:
 4011 061f 5F5F4649 		.ascii	"__FILE\000"
 4011      4C4500
ARM GAS  /tmp/ccOiGado.s 			page 79


 4012              	.LASF74:
 4013 0626 5F6D6273 		.ascii	"_mbstate_t\000"
 4013      74617465 
 4013      5F7400
 4014              	.LASF103:
 4015 0631 5F5F7346 		.ascii	"__sFILE\000"
 4015      494C4500 
 4016              	.LASF183:
 4017 0639 5F737973 		.ascii	"_sys_nerr\000"
 4017      5F6E6572 
 4017      7200
 4018              	.LASF118:
 4019 0643 5F6D6273 		.ascii	"_mbstate\000"
 4019      74617465 
 4019      00
 4020              	.LASF186:
 4021 064c 44656C61 		.ascii	"DelayMs\000"
 4021      794D7300 
 4022              	.LASF158:
 4023 0654 5F6D626C 		.ascii	"_mblen_state\000"
 4023      656E5F73 
 4023      74617465 
 4023      00
 4024              	.LASF98:
 4025 0661 5F696E64 		.ascii	"_ind\000"
 4025      00
 4026              	.LASF26:
 4027 0666 44495341 		.ascii	"DISABLE\000"
 4027      424C4500 
 4028              	.LASF78:
 4029 066e 5F6D6178 		.ascii	"_maxwds\000"
 4029      77647300 
 4030              	.LASF120:
 4031 0676 5F726565 		.ascii	"_reent\000"
 4031      6E7400
 4032              	.LASF148:
 4033 067d 5F736565 		.ascii	"_seed\000"
 4033      6400
 4034              	.LASF72:
 4035 0683 5F5F636F 		.ascii	"__count\000"
 4035      756E7400 
 4036              	.LASF73:
 4037 068b 5F5F7661 		.ascii	"__value\000"
 4037      6C756500 
 4038              	.LASF42:
 4039 0693 52455345 		.ascii	"RESERVED7\000"
 4039      52564544 
 4039      3700
 4040              	.LASF110:
 4041 069d 5F736565 		.ascii	"_seek\000"
 4041      6B00
 4042              	.LASF89:
 4043 06a3 5F5F746D 		.ascii	"__tm_wday\000"
 4043      5F776461 
 4043      7900
 4044              	.LASF187:
 4045 06ad 44656C61 		.ascii	"DelayUs\000"
ARM GAS  /tmp/ccOiGado.s 			page 80


 4045      79557300 
 4046              	.LASF68:
 4047 06b5 5F66706F 		.ascii	"_fpos_t\000"
 4047      735F7400 
 4048              	.LASF65:
 4049 06bd 6C6F6E67 		.ascii	"long double\000"
 4049      20646F75 
 4049      626C6500 
 4050              	.LASF193:
 4051 06c9 6C656E67 		.ascii	"length\000"
 4051      746800
 4052              	.LASF142:
 4053 06d0 63686172 		.ascii	"char\000"
 4053      00
 4054              	.LASF114:
 4055 06d5 5F626C6B 		.ascii	"_blksize\000"
 4055      73697A65 
 4055      00
 4056              	.LASF189:
 4057 06de 55736172 		.ascii	"UsartGet\000"
 4057      74476574 
 4057      00
 4058              	.LASF33:
 4059 06e7 534D4352 		.ascii	"SMCR\000"
 4059      00
 4060              	.LASF102:
 4061 06ec 5F73697A 		.ascii	"_size\000"
 4061      6500
 4062              	.LASF199:
 4063 06f2 54494D5F 		.ascii	"TIM_Cmd\000"
 4063      436D6400 
 4064              	.LASF60:
 4065 06fa 444D4152 		.ascii	"DMAR\000"
 4065      00
 4066              	.LASF197:
 4067 06ff 55534152 		.ascii	"USART_SendData\000"
 4067      545F5365 
 4067      6E644461 
 4067      746100
 4068              	.LASF7:
 4069 070e 5F5F696E 		.ascii	"__int32_t\000"
 4069      7433325F 
 4069      7400
 4070              	.LASF152:
 4071 0718 5F737472 		.ascii	"_strtok_last\000"
 4071      746F6B5F 
 4071      6C617374 
 4071      00
 4072              	.LASF95:
 4073 0725 5F666E74 		.ascii	"_fntypes\000"
 4073      79706573 
 4073      00
 4074              	.LASF6:
 4075 072e 73686F72 		.ascii	"short unsigned int\000"
 4075      7420756E 
 4075      7369676E 
 4075      65642069 
ARM GAS  /tmp/ccOiGado.s 			page 81


 4075      6E7400
 4076              	.LASF150:
 4077 0741 5F616464 		.ascii	"_add\000"
 4077      00
 4078              	.LASF76:
 4079 0746 5F5F554C 		.ascii	"__ULong\000"
 4079      6F6E6700 
 4080              	.LASF163:
 4081 074e 5F676574 		.ascii	"_getdate_err\000"
 4081      64617465 
 4081      5F657272 
 4081      00
 4082              	.LASF19:
 4083 075b 4354524C 		.ascii	"CTRL\000"
 4083      00
 4084              	.LASF211:
 4085 0760 5F5F6664 		.ascii	"__fdlibm_version\000"
 4085      6C69626D 
 4085      5F766572 
 4085      73696F6E 
 4085      00
 4086              	.LASF46:
 4087 0771 52455345 		.ascii	"RESERVED10\000"
 4087      52564544 
 4087      313000
 4088              	.LASF174:
 4089 077c 5F676C6F 		.ascii	"_global_impure_ptr\000"
 4089      62616C5F 
 4089      696D7075 
 4089      72655F70 
 4089      747200
 4090              	.LASF127:
 4091 078f 5F637572 		.ascii	"_current_category\000"
 4091      72656E74 
 4091      5F636174 
 4091      65676F72 
 4091      7900
 4092              	.LASF21:
 4093 07a1 43414C49 		.ascii	"CALIB\000"
 4093      4200
 4094              	.LASF192:
 4095 07a7 48435352 		.ascii	"HCSR04_Get\000"
 4095      30345F47 
 4095      657400
 4096              	.LASF49:
 4097 07b2 43435231 		.ascii	"CCR1\000"
 4097      00
 4098              	.LASF51:
 4099 07b7 43435232 		.ascii	"CCR2\000"
 4099      00
 4100              	.LASF53:
 4101 07bc 43435233 		.ascii	"CCR3\000"
 4101      00
 4102              	.LASF55:
 4103 07c1 43435234 		.ascii	"CCR4\000"
 4103      00
 4104              	.LASF56:
ARM GAS  /tmp/ccOiGado.s 			page 82


 4105 07c6 52455345 		.ascii	"RESERVED16\000"
 4105      52564544 
 4105      313600
 4106              	.LASF130:
 4107 07d1 5F5F636C 		.ascii	"__cleanup\000"
 4107      65616E75 
 4107      7000
 4108              	.LASF59:
 4109 07db 52455345 		.ascii	"RESERVED18\000"
 4109      52564544 
 4109      313800
 4110              	.LASF123:
 4111 07e6 5F737464 		.ascii	"_stdout\000"
 4111      6F757400 
 4112              	.LASF144:
 4113 07ee 5F676C75 		.ascii	"_glue\000"
 4113      6500
 4114              	.LASF88:
 4115 07f4 5F5F746D 		.ascii	"__tm_year\000"
 4115      5F796561 
 4115      7200
 4116              	.LASF14:
 4117 07fe 75696E74 		.ascii	"uint8_t\000"
 4117      385F7400 
 4118              	.LASF161:
 4119 0806 5F6C3634 		.ascii	"_l64a_buf\000"
 4119      615F6275 
 4119      6600
 4120              	.LASF139:
 4121 0810 5F736967 		.ascii	"_sig_func\000"
 4121      5F66756E 
 4121      6300
 4122              	.LASF100:
 4123 081a 5F5F7362 		.ascii	"__sbuf\000"
 4123      756600
 4124              	.LASF113:
 4125 0821 5F6E6275 		.ascii	"_nbuf\000"
 4125      6600
 4126              	.LASF172:
 4127 0827 5F756E75 		.ascii	"_unused\000"
 4127      73656400 
 4128              	.LASF91:
 4129 082f 5F5F746D 		.ascii	"__tm_isdst\000"
 4129      5F697364 
 4129      737400
 4130              	.LASF154:
 4131 083a 5F6C6F63 		.ascii	"_localtime_buf\000"
 4131      616C7469 
 4131      6D655F62 
 4131      756600
 4132              	.LASF84:
 4133 0849 5F5F746D 		.ascii	"__tm_min\000"
 4133      5F6D696E 
 4133      00
 4134              	.LASF157:
 4135 0852 5F723438 		.ascii	"_r48\000"
 4135      00
ARM GAS  /tmp/ccOiGado.s 			page 83


 4136              	.LASF128:
 4137 0857 5F637572 		.ascii	"_current_locale\000"
 4137      72656E74 
 4137      5F6C6F63 
 4137      616C6500 
 4138              	.LASF159:
 4139 0867 5F6D6274 		.ascii	"_mbtowc_state\000"
 4139      6F77635F 
 4139      73746174 
 4139      6500
 4140              	.LASF133:
 4141 0875 5F703573 		.ascii	"_p5s\000"
 4141      00
 4142              	.LASF184:
 4143 087a 6661635F 		.ascii	"fac_us\000"
 4143      757300
 4144              	.LASF0:
 4145 0881 646F7562 		.ascii	"double\000"
 4145      6C6500
 4146              	.LASF17:
 4147 0888 75696E74 		.ascii	"uint32_t\000"
 4147      33325F74 
 4147      00
 4148              	.LASF86:
 4149 0891 5F5F746D 		.ascii	"__tm_mday\000"
 4149      5F6D6461 
 4149      7900
 4150              		.ident	"GCC: (Arch Repository) 6.1.1 20160526"
ARM GAS  /tmp/ccOiGado.s 			page 84


DEFINED SYMBOLS
                            *ABS*:0000000000000000 tools.c
     /tmp/ccOiGado.s:15     .text:0000000000000000 $t
     /tmp/ccOiGado.s:22     .text:0000000000000000 UserInit
     /tmp/ccOiGado.s:70     .text:000000000000002c $d
     /tmp/ccOiGado.s:74     .text:0000000000000030 $t
     /tmp/ccOiGado.s:81     .text:0000000000000030 UsartPut
     /tmp/ccOiGado.s:118    .text:0000000000000050 $d
     /tmp/ccOiGado.s:122    .text:0000000000000054 $t
     /tmp/ccOiGado.s:129    .text:0000000000000054 _write
     /tmp/ccOiGado.s:173    .text:000000000000006e UsartGet
     /tmp/ccOiGado.s:206    .text:000000000000008c $d
     /tmp/ccOiGado.s:210    .text:0000000000000090 $t
     /tmp/ccOiGado.s:217    .text:0000000000000090 _read
     /tmp/ccOiGado.s:269    .text:00000000000000ae DelayInit
     /tmp/ccOiGado.s:291    .text:00000000000000c4 $d
     /tmp/ccOiGado.s:295    .text:00000000000000c8 $t
     /tmp/ccOiGado.s:302    .text:00000000000000c8 DelayUs
     /tmp/ccOiGado.s:344    .text:00000000000000f4 $d
     /tmp/ccOiGado.s:352    .text:00000000000000fc $t
     /tmp/ccOiGado.s:359    .text:00000000000000fc HCSR04_Get
     /tmp/ccOiGado.s:458    .text:0000000000000190 $d
     /tmp/ccOiGado.s:464    .text:000000000000019c $t
     /tmp/ccOiGado.s:471    .text:000000000000019c DelayMs
     /tmp/ccOiGado.s:493    .text:00000000000001b0 $d
     /tmp/ccOiGado.s:499    .bss:0000000000000000 $d
     /tmp/ccOiGado.s:503    .bss:0000000000000000 fac_us
     /tmp/ccOiGado.s:508    .bss:0000000000000002 fac_ms
                     .debug_frame:0000000000000010 $d

UNDEFINED SYMBOLS
RCC_Conf
NVIC_Conf
GPIO_Conf
USART_Conf
TIMER_Conf
MPU6050_I2C_Init
MPU6050_Initialize
USART_SendData
USART_GetFlagStatus
USART_ReceiveData
__aeabi_i2d
__aeabi_ddiv
__aeabi_d2iz
GPIO_WriteBit
TIM_Cmd
GPIO_ReadInputDataBit
