ARM GAS  /tmp/cc7mxXpk.s 			page 1


   1              		.cpu cortex-m3
   2              		.eabi_attribute 20, 1
   3              		.eabi_attribute 21, 1
   4              		.eabi_attribute 23, 3
   5              		.eabi_attribute 24, 1
   6              		.eabi_attribute 25, 1
   7              		.eabi_attribute 26, 1
   8              		.eabi_attribute 30, 6
   9              		.eabi_attribute 34, 1
  10              		.eabi_attribute 18, 4
  11              		.file	"usart2.c"
  12              		.text
  13              	.Ltext0:
  14              		.cfi_sections	.debug_frame
  15              		.align	1
  16              		.global	_read
  17              		.syntax unified
  18              		.thumb
  19              		.thumb_func
  20              		.fpu softvfp
  21              		.type	_read, %function
  22              	_read:
  23              	.LFB64:
  24              		.file 1 "src/usart2.c"
   1:src/usart2.c  **** #include "main.h"
   2:src/usart2.c  **** 
   3:src/usart2.c  **** int _read(int file, char *ptr, int len) 
   4:src/usart2.c  **** {
  25              		.loc 1 4 0
  26              		.cfi_startproc
  27              		@ args = 0, pretend = 0, frame = 32
  28              		@ frame_needed = 1, uses_anonymous_args = 0
  29 0000 80B5     		push	{r7, lr}
  30              		.cfi_def_cfa_offset 8
  31              		.cfi_offset 7, -8
  32              		.cfi_offset 14, -4
  33 0002 88B0     		sub	sp, sp, #32
  34              		.cfi_def_cfa_offset 40
  35 0004 00AF     		add	r7, sp, #0
  36              		.cfi_def_cfa_register 7
  37 0006 F860     		str	r0, [r7, #12]
  38 0008 B960     		str	r1, [r7, #8]
  39 000a 7A60     		str	r2, [r7, #4]
   5:src/usart2.c  ****   int n;
   6:src/usart2.c  ****   int num = 0;
  40              		.loc 1 6 0
  41 000c 0023     		movs	r3, #0
  42 000e BB61     		str	r3, [r7, #24]
   7:src/usart2.c  ****   for (n = 0; n < len; n++) {
  43              		.loc 1 7 0
  44 0010 0023     		movs	r3, #0
  45 0012 FB61     		str	r3, [r7, #28]
  46 0014 0EE0     		b	.L2
  47              	.L3:
  48              	.LBB2:
   8:src/usart2.c  ****      char c = UsartGet();
  49              		.loc 1 8 0 discriminator 3
ARM GAS  /tmp/cc7mxXpk.s 			page 2


  50 0016 FFF7FEFF 		bl	UsartGet
  51 001a 0346     		mov	r3, r0
  52 001c FB75     		strb	r3, [r7, #23]
   9:src/usart2.c  ****     *ptr++ = c;
  53              		.loc 1 9 0 discriminator 3
  54 001e BB68     		ldr	r3, [r7, #8]
  55 0020 5A1C     		adds	r2, r3, #1
  56 0022 BA60     		str	r2, [r7, #8]
  57 0024 FA7D     		ldrb	r2, [r7, #23]
  58 0026 1A70     		strb	r2, [r3]
  10:src/usart2.c  ****     num++;
  59              		.loc 1 10 0 discriminator 3
  60 0028 BB69     		ldr	r3, [r7, #24]
  61 002a 0133     		adds	r3, r3, #1
  62 002c BB61     		str	r3, [r7, #24]
  63              	.LBE2:
   7:src/usart2.c  ****      char c = UsartGet();
  64              		.loc 1 7 0 discriminator 3
  65 002e FB69     		ldr	r3, [r7, #28]
  66 0030 0133     		adds	r3, r3, #1
  67 0032 FB61     		str	r3, [r7, #28]
  68              	.L2:
   7:src/usart2.c  ****      char c = UsartGet();
  69              		.loc 1 7 0 is_stmt 0 discriminator 1
  70 0034 FA69     		ldr	r2, [r7, #28]
  71 0036 7B68     		ldr	r3, [r7, #4]
  72 0038 9A42     		cmp	r2, r3
  73 003a ECDB     		blt	.L3
  11:src/usart2.c  ****   }
  12:src/usart2.c  ****   return num;
  74              		.loc 1 12 0 is_stmt 1
  75 003c BB69     		ldr	r3, [r7, #24]
  13:src/usart2.c  **** }
  76              		.loc 1 13 0
  77 003e 1846     		mov	r0, r3
  78 0040 2037     		adds	r7, r7, #32
  79              		.cfi_def_cfa_offset 8
  80 0042 BD46     		mov	sp, r7
  81              		.cfi_def_cfa_register 13
  82              		@ sp needed
  83 0044 80BD     		pop	{r7, pc}
  84              		.cfi_endproc
  85              	.LFE64:
  86              		.size	_read, .-_read
  87              		.align	1
  88              		.global	_write
  89              		.syntax unified
  90              		.thumb
  91              		.thumb_func
  92              		.fpu softvfp
  93              		.type	_write, %function
  94              	_write:
  95              	.LFB65:
  14:src/usart2.c  **** 
  15:src/usart2.c  **** int _write(int file, char *ptr, int len) 
  16:src/usart2.c  **** {
  96              		.loc 1 16 0
ARM GAS  /tmp/cc7mxXpk.s 			page 3


  97              		.cfi_startproc
  98              		@ args = 0, pretend = 0, frame = 24
  99              		@ frame_needed = 1, uses_anonymous_args = 0
 100 0046 80B5     		push	{r7, lr}
 101              		.cfi_def_cfa_offset 8
 102              		.cfi_offset 7, -8
 103              		.cfi_offset 14, -4
 104 0048 86B0     		sub	sp, sp, #24
 105              		.cfi_def_cfa_offset 32
 106 004a 00AF     		add	r7, sp, #0
 107              		.cfi_def_cfa_register 7
 108 004c F860     		str	r0, [r7, #12]
 109 004e B960     		str	r1, [r7, #8]
 110 0050 7A60     		str	r2, [r7, #4]
  17:src/usart2.c  ****   int n;
  18:src/usart2.c  ****   for (n = 0; n < len; n++) {
 111              		.loc 1 18 0
 112 0052 0023     		movs	r3, #0
 113 0054 7B61     		str	r3, [r7, #20]
 114 0056 09E0     		b	.L6
 115              	.L7:
  19:src/usart2.c  ****      UsartPut(*ptr++);
 116              		.loc 1 19 0 discriminator 3
 117 0058 BB68     		ldr	r3, [r7, #8]
 118 005a 5A1C     		adds	r2, r3, #1
 119 005c BA60     		str	r2, [r7, #8]
 120 005e 1B78     		ldrb	r3, [r3]	@ zero_extendqisi2
 121 0060 1846     		mov	r0, r3
 122 0062 FFF7FEFF 		bl	UsartPut
  18:src/usart2.c  ****      UsartPut(*ptr++);
 123              		.loc 1 18 0 discriminator 3
 124 0066 7B69     		ldr	r3, [r7, #20]
 125 0068 0133     		adds	r3, r3, #1
 126 006a 7B61     		str	r3, [r7, #20]
 127              	.L6:
  18:src/usart2.c  ****      UsartPut(*ptr++);
 128              		.loc 1 18 0 is_stmt 0 discriminator 1
 129 006c 7A69     		ldr	r2, [r7, #20]
 130 006e 7B68     		ldr	r3, [r7, #4]
 131 0070 9A42     		cmp	r2, r3
 132 0072 F1DB     		blt	.L7
  20:src/usart2.c  ****   }
  21:src/usart2.c  ****   return len;
 133              		.loc 1 21 0 is_stmt 1
 134 0074 7B68     		ldr	r3, [r7, #4]
  22:src/usart2.c  **** }
 135              		.loc 1 22 0
 136 0076 1846     		mov	r0, r3
 137 0078 1837     		adds	r7, r7, #24
 138              		.cfi_def_cfa_offset 8
 139 007a BD46     		mov	sp, r7
 140              		.cfi_def_cfa_register 13
 141              		@ sp needed
 142 007c 80BD     		pop	{r7, pc}
 143              		.cfi_endproc
 144              	.LFE65:
 145              		.size	_write, .-_write
ARM GAS  /tmp/cc7mxXpk.s 			page 4


 146              		.align	1
 147              		.global	UsartPut
 148              		.syntax unified
 149              		.thumb
 150              		.thumb_func
 151              		.fpu softvfp
 152              		.type	UsartPut, %function
 153              	UsartPut:
 154              	.LFB66:
  23:src/usart2.c  **** 
  24:src/usart2.c  **** 
  25:src/usart2.c  **** uint8_t UsartPut(uint8_t ch)
  26:src/usart2.c  **** {
 155              		.loc 1 26 0
 156              		.cfi_startproc
 157              		@ args = 0, pretend = 0, frame = 8
 158              		@ frame_needed = 1, uses_anonymous_args = 0
 159 007e 80B5     		push	{r7, lr}
 160              		.cfi_def_cfa_offset 8
 161              		.cfi_offset 7, -8
 162              		.cfi_offset 14, -4
 163 0080 82B0     		sub	sp, sp, #8
 164              		.cfi_def_cfa_offset 16
 165 0082 00AF     		add	r7, sp, #0
 166              		.cfi_def_cfa_register 7
 167 0084 0346     		mov	r3, r0
 168 0086 FB71     		strb	r3, [r7, #7]
  27:src/usart2.c  **** 	USART_SendData(USARTx, (uint8_t) ch);
 169              		.loc 1 27 0
 170 0088 FB79     		ldrb	r3, [r7, #7]	@ zero_extendqisi2
 171 008a 9BB2     		uxth	r3, r3
 172 008c 1946     		mov	r1, r3
 173 008e 0848     		ldr	r0, .L12
 174 0090 FFF7FEFF 		bl	USART_SendData
  28:src/usart2.c  **** 	//Loop until the end of transmission
  29:src/usart2.c  **** 	while(USART_GetFlagStatus(USARTx, USART_FLAG_TC) == RESET) {
 175              		.loc 1 29 0
 176 0094 00BF     		nop
 177              	.L10:
 178              		.loc 1 29 0 is_stmt 0 discriminator 1
 179 0096 4021     		movs	r1, #64
 180 0098 0548     		ldr	r0, .L12
 181 009a FFF7FEFF 		bl	USART_GetFlagStatus
 182 009e 0346     		mov	r3, r0
 183 00a0 002B     		cmp	r3, #0
 184 00a2 F8D0     		beq	.L10
  30:src/usart2.c  **** 	}
  31:src/usart2.c  ****   return ch;
 185              		.loc 1 31 0 is_stmt 1
 186 00a4 FB79     		ldrb	r3, [r7, #7]	@ zero_extendqisi2
  32:src/usart2.c  **** }
 187              		.loc 1 32 0
 188 00a6 1846     		mov	r0, r3
 189 00a8 0837     		adds	r7, r7, #8
 190              		.cfi_def_cfa_offset 8
 191 00aa BD46     		mov	sp, r7
 192              		.cfi_def_cfa_register 13
ARM GAS  /tmp/cc7mxXpk.s 			page 5


 193              		@ sp needed
 194 00ac 80BD     		pop	{r7, pc}
 195              	.L13:
 196 00ae 00BF     		.align	2
 197              	.L12:
 198 00b0 00440040 		.word	1073759232
 199              		.cfi_endproc
 200              	.LFE66:
 201              		.size	UsartPut, .-UsartPut
 202              		.align	1
 203              		.global	UsartGet
 204              		.syntax unified
 205              		.thumb
 206              		.thumb_func
 207              		.fpu softvfp
 208              		.type	UsartGet, %function
 209              	UsartGet:
 210              	.LFB67:
  33:src/usart2.c  **** 
  34:src/usart2.c  **** uint8_t UsartGet(void)
  35:src/usart2.c  **** {
 211              		.loc 1 35 0
 212              		.cfi_startproc
 213              		@ args = 0, pretend = 0, frame = 0
 214              		@ frame_needed = 1, uses_anonymous_args = 0
 215 00b4 80B5     		push	{r7, lr}
 216              		.cfi_def_cfa_offset 8
 217              		.cfi_offset 7, -8
 218              		.cfi_offset 14, -4
 219 00b6 00AF     		add	r7, sp, #0
 220              		.cfi_def_cfa_register 7
  36:src/usart2.c  **** 	while (USART_GetFlagStatus(USARTx, USART_FLAG_RXNE) == RESET);
 221              		.loc 1 36 0
 222 00b8 00BF     		nop
 223              	.L15:
 224              		.loc 1 36 0 is_stmt 0 discriminator 1
 225 00ba 2021     		movs	r1, #32
 226 00bc 0648     		ldr	r0, .L17
 227 00be FFF7FEFF 		bl	USART_GetFlagStatus
 228 00c2 0346     		mov	r3, r0
 229 00c4 002B     		cmp	r3, #0
 230 00c6 F8D0     		beq	.L15
  37:src/usart2.c  **** 	return (uint8_t)USART_ReceiveData(USARTx);
 231              		.loc 1 37 0 is_stmt 1
 232 00c8 0348     		ldr	r0, .L17
 233 00ca FFF7FEFF 		bl	USART_ReceiveData
 234 00ce 0346     		mov	r3, r0
 235 00d0 DBB2     		uxtb	r3, r3
  38:src/usart2.c  **** }
 236              		.loc 1 38 0
 237 00d2 1846     		mov	r0, r3
 238 00d4 80BD     		pop	{r7, pc}
 239              	.L18:
 240 00d6 00BF     		.align	2
 241              	.L17:
 242 00d8 00440040 		.word	1073759232
 243              		.cfi_endproc
ARM GAS  /tmp/cc7mxXpk.s 			page 6


 244              	.LFE67:
 245              		.size	UsartGet, .-UsartGet
 246              		.align	1
 247              		.global	USART_Conf
 248              		.syntax unified
 249              		.thumb
 250              		.thumb_func
 251              		.fpu softvfp
 252              		.type	USART_Conf, %function
 253              	USART_Conf:
 254              	.LFB68:
  39:src/usart2.c  **** 
  40:src/usart2.c  **** void USART_Conf(void)
  41:src/usart2.c  **** {
 255              		.loc 1 41 0
 256              		.cfi_startproc
 257              		@ args = 0, pretend = 0, frame = 16
 258              		@ frame_needed = 1, uses_anonymous_args = 0
 259 00dc 80B5     		push	{r7, lr}
 260              		.cfi_def_cfa_offset 8
 261              		.cfi_offset 7, -8
 262              		.cfi_offset 14, -4
 263 00de 84B0     		sub	sp, sp, #16
 264              		.cfi_def_cfa_offset 24
 265 00e0 00AF     		add	r7, sp, #0
 266              		.cfi_def_cfa_register 7
  42:src/usart2.c  ****   USART_InitTypeDef USART_InitStructure;
  43:src/usart2.c  ****   //串口配置： 波特率 115200 数据位 8 停止位 1  奇偶位 NONE  
  44:src/usart2.c  ****   USART_InitStructure.USART_BaudRate = 115200;
 267              		.loc 1 44 0
 268 00e2 4FF4E133 		mov	r3, #115200
 269 00e6 3B60     		str	r3, [r7]
  45:src/usart2.c  ****   USART_InitStructure.USART_WordLength = USART_WordLength_8b;
 270              		.loc 1 45 0
 271 00e8 0023     		movs	r3, #0
 272 00ea BB80     		strh	r3, [r7, #4]	@ movhi
  46:src/usart2.c  ****   USART_InitStructure.USART_StopBits = USART_StopBits_1;
 273              		.loc 1 46 0
 274 00ec 0023     		movs	r3, #0
 275 00ee FB80     		strh	r3, [r7, #6]	@ movhi
  47:src/usart2.c  ****   USART_InitStructure.USART_Parity =  USART_Parity_No ;
 276              		.loc 1 47 0
 277 00f0 0023     		movs	r3, #0
 278 00f2 3B81     		strh	r3, [r7, #8]	@ movhi
  48:src/usart2.c  ****   USART_InitStructure.USART_HardwareFlowControl = USART_HardwareFlowControl_None;
 279              		.loc 1 48 0
 280 00f4 0023     		movs	r3, #0
 281 00f6 BB81     		strh	r3, [r7, #12]	@ movhi
  49:src/usart2.c  ****   USART_InitStructure.USART_Mode = USART_Mode_Rx | USART_Mode_Tx;
 282              		.loc 1 49 0
 283 00f8 0C23     		movs	r3, #12
 284 00fa 7B81     		strh	r3, [r7, #10]	@ movhi
  50:src/usart2.c  ****   //初始化串口
  51:src/usart2.c  ****   USART_Init(USARTx, &USART_InitStructure);
 285              		.loc 1 51 0
 286 00fc 3B46     		mov	r3, r7
 287 00fe 1946     		mov	r1, r3
ARM GAS  /tmp/cc7mxXpk.s 			page 7


 288 0100 0548     		ldr	r0, .L20
 289 0102 FFF7FEFF 		bl	USART_Init
  52:src/usart2.c  ****   //启动串口
  53:src/usart2.c  ****   USART_Cmd(USARTx, ENABLE);
 290              		.loc 1 53 0
 291 0106 0121     		movs	r1, #1
 292 0108 0348     		ldr	r0, .L20
 293 010a FFF7FEFF 		bl	USART_Cmd
  54:src/usart2.c  **** }
 294              		.loc 1 54 0
 295 010e 00BF     		nop
 296 0110 1037     		adds	r7, r7, #16
 297              		.cfi_def_cfa_offset 8
 298 0112 BD46     		mov	sp, r7
 299              		.cfi_def_cfa_register 13
 300              		@ sp needed
 301 0114 80BD     		pop	{r7, pc}
 302              	.L21:
 303 0116 00BF     		.align	2
 304              	.L20:
 305 0118 00440040 		.word	1073759232
 306              		.cfi_endproc
 307              	.LFE68:
 308              		.size	USART_Conf, .-USART_Conf
 309              	.Letext0:
 310              		.file 2 "/usr/arm-none-eabi/include/machine/_default_types.h"
 311              		.file 3 "/usr/arm-none-eabi/include/sys/_stdint.h"
 312              		.file 4 "include/../include/STM32/../CMSIS/core_cm3.h"
 313              		.file 5 "include/../include/STM32/system_stm32f10x.h"
 314              		.file 6 "include/../include/STM32/stm32f10x.h"
 315              		.file 7 "include/../include/STM32/usart.h"
 316              		.file 8 "include/../include/MPU6050/mpu6050.h"
 317              		.file 9 "/usr/arm-none-eabi/include/sys/lock.h"
 318              		.file 10 "/usr/arm-none-eabi/include/sys/_types.h"
 319              		.file 11 "/usr/lib/gcc/arm-none-eabi/6.1.1/include/stddef.h"
 320              		.file 12 "/usr/arm-none-eabi/include/sys/reent.h"
 321              		.file 13 "/usr/arm-none-eabi/include/math.h"