ARM GAS  /tmp/cc7mxXpk.s 			page 1


   1              		.cpu cortex-m3
   2              		.eabi_attribute 20, 1
   3              		.eabi_attribute 21, 1
   4              		.eabi_attribute 23, 3
   5              		.eabi_attribute 24, 1
   6              		.eabi_attribute 25, 1
   7              		.eabi_attribute 26, 1
   8              		.eabi_attribute 30, 6
   9              		.eabi_attribute 34, 1
  10              		.eabi_attribute 18, 4
  11              		.file	"usart2.c"
  12              		.text
  13              	.Ltext0:
  14              		.cfi_sections	.debug_frame
  15              		.align	1
  16              		.global	_read
  17              		.syntax unified
  18              		.thumb
  19              		.thumb_func
  20              		.fpu softvfp
  21              		.type	_read, %function
  22              	_read:
  23              	.LFB64:
  24              		.file 1 "src/usart2.c"
   1:src/usart2.c  **** #include "main.h"
   2:src/usart2.c  **** 
   3:src/usart2.c  **** int _read(int file, char *ptr, int len) 
   4:src/usart2.c  **** {
  25              		.loc 1 4 0
  26              		.cfi_startproc
  27              		@ args = 0, pretend = 0, frame = 32
  28              		@ frame_needed = 1, uses_anonymous_args = 0
  29 0000 80B5     		push	{r7, lr}
  30              		.cfi_def_cfa_offset 8
  31              		.cfi_offset 7, -8
  32              		.cfi_offset 14, -4
  33 0002 88B0     		sub	sp, sp, #32
  34              		.cfi_def_cfa_offset 40
  35 0004 00AF     		add	r7, sp, #0
  36              		.cfi_def_cfa_register 7
  37 0006 F860     		str	r0, [r7, #12]
  38 0008 B960     		str	r1, [r7, #8]
  39 000a 7A60     		str	r2, [r7, #4]
   5:src/usart2.c  ****   int n;
   6:src/usart2.c  ****   int num = 0;
  40              		.loc 1 6 0
  41 000c 0023     		movs	r3, #0
  42 000e BB61     		str	r3, [r7, #24]
   7:src/usart2.c  ****   for (n = 0; n < len; n++) {
  43              		.loc 1 7 0
  44 0010 0023     		movs	r3, #0
  45 0012 FB61     		str	r3, [r7, #28]
  46 0014 0EE0     		b	.L2
  47              	.L3:
  48              	.LBB2:
   8:src/usart2.c  ****      char c = UsartGet();
  49              		.loc 1 8 0 discriminator 3
ARM GAS  /tmp/cc7mxXpk.s 			page 2


  50 0016 FFF7FEFF 		bl	UsartGet
  51 001a 0346     		mov	r3, r0
  52 001c FB75     		strb	r3, [r7, #23]
   9:src/usart2.c  ****     *ptr++ = c;
  53              		.loc 1 9 0 discriminator 3
  54 001e BB68     		ldr	r3, [r7, #8]
  55 0020 5A1C     		adds	r2, r3, #1
  56 0022 BA60     		str	r2, [r7, #8]
  57 0024 FA7D     		ldrb	r2, [r7, #23]
  58 0026 1A70     		strb	r2, [r3]
  10:src/usart2.c  ****     num++;
  59              		.loc 1 10 0 discriminator 3
  60 0028 BB69     		ldr	r3, [r7, #24]
  61 002a 0133     		adds	r3, r3, #1
  62 002c BB61     		str	r3, [r7, #24]
  63              	.LBE2:
   7:src/usart2.c  ****      char c = UsartGet();
  64              		.loc 1 7 0 discriminator 3
  65 002e FB69     		ldr	r3, [r7, #28]
  66 0030 0133     		adds	r3, r3, #1
  67 0032 FB61     		str	r3, [r7, #28]
  68              	.L2:
   7:src/usart2.c  ****      char c = UsartGet();
  69              		.loc 1 7 0 is_stmt 0 discriminator 1
  70 0034 FA69     		ldr	r2, [r7, #28]
  71 0036 7B68     		ldr	r3, [r7, #4]
  72 0038 9A42     		cmp	r2, r3
  73 003a ECDB     		blt	.L3
  11:src/usart2.c  ****   }
  12:src/usart2.c  ****   return num;
  74              		.loc 1 12 0 is_stmt 1
  75 003c BB69     		ldr	r3, [r7, #24]
  13:src/usart2.c  **** }
  76              		.loc 1 13 0
  77 003e 1846     		mov	r0, r3
  78 0040 2037     		adds	r7, r7, #32
  79              		.cfi_def_cfa_offset 8
  80 0042 BD46     		mov	sp, r7
  81              		.cfi_def_cfa_register 13
  82              		@ sp needed
  83 0044 80BD     		pop	{r7, pc}
  84              		.cfi_endproc
  85              	.LFE64:
  86              		.size	_read, .-_read
  87              		.align	1
  88              		.global	_write
  89              		.syntax unified
  90              		.thumb
  91              		.thumb_func
  92              		.fpu softvfp
  93              		.type	_write, %function
  94              	_write:
  95              	.LFB65:
  14:src/usart2.c  **** 
  15:src/usart2.c  **** int _write(int file, char *ptr, int len) 
  16:src/usart2.c  **** {
  96              		.loc 1 16 0
ARM GAS  /tmp/cc7mxXpk.s 			page 3


  97              		.cfi_startproc
  98              		@ args = 0, pretend = 0, frame = 24
  99              		@ frame_needed = 1, uses_anonymous_args = 0
 100 0046 80B5     		push	{r7, lr}
 101              		.cfi_def_cfa_offset 8
 102              		.cfi_offset 7, -8
 103              		.cfi_offset 14, -4
 104 0048 86B0     		sub	sp, sp, #24
 105              		.cfi_def_cfa_offset 32
 106 004a 00AF     		add	r7, sp, #0
 107              		.cfi_def_cfa_register 7
 108 004c F860     		str	r0, [r7, #12]
 109 004e B960     		str	r1, [r7, #8]
 110 0050 7A60     		str	r2, [r7, #4]
  17:src/usart2.c  ****   int n;
  18:src/usart2.c  ****   for (n = 0; n < len; n++) {
 111              		.loc 1 18 0
 112 0052 0023     		movs	r3, #0
 113 0054 7B61     		str	r3, [r7, #20]
 114 0056 09E0     		b	.L6
 115              	.L7:
  19:src/usart2.c  ****      UsartPut(*ptr++);
 116              		.loc 1 19 0 discriminator 3
 117 0058 BB68     		ldr	r3, [r7, #8]
 118 005a 5A1C     		adds	r2, r3, #1
 119 005c BA60     		str	r2, [r7, #8]
 120 005e 1B78     		ldrb	r3, [r3]	@ zero_extendqisi2
 121 0060 1846     		mov	r0, r3
 122 0062 FFF7FEFF 		bl	UsartPut
  18:src/usart2.c  ****      UsartPut(*ptr++);
 123              		.loc 1 18 0 discriminator 3
 124 0066 7B69     		ldr	r3, [r7, #20]
 125 0068 0133     		adds	r3, r3, #1
 126 006a 7B61     		str	r3, [r7, #20]
 127              	.L6:
  18:src/usart2.c  ****      UsartPut(*ptr++);
 128              		.loc 1 18 0 is_stmt 0 discriminator 1
 129 006c 7A69     		ldr	r2, [r7, #20]
 130 006e 7B68     		ldr	r3, [r7, #4]
 131 0070 9A42     		cmp	r2, r3
 132 0072 F1DB     		blt	.L7
  20:src/usart2.c  ****   }
  21:src/usart2.c  ****   return len;
 133              		.loc 1 21 0 is_stmt 1
 134 0074 7B68     		ldr	r3, [r7, #4]
  22:src/usart2.c  **** }
 135              		.loc 1 22 0
 136 0076 1846     		mov	r0, r3
 137 0078 1837     		adds	r7, r7, #24
 138              		.cfi_def_cfa_offset 8
 139 007a BD46     		mov	sp, r7
 140              		.cfi_def_cfa_register 13
 141              		@ sp needed
 142 007c 80BD     		pop	{r7, pc}
 143              		.cfi_endproc
 144              	.LFE65:
 145              		.size	_write, .-_write
ARM GAS  /tmp/cc7mxXpk.s 			page 4


 146              		.align	1
 147              		.global	UsartPut
 148              		.syntax unified
 149              		.thumb
 150              		.thumb_func
 151              		.fpu softvfp
 152              		.type	UsartPut, %function
 153              	UsartPut:
 154              	.LFB66:
  23:src/usart2.c  **** 
  24:src/usart2.c  **** 
  25:src/usart2.c  **** uint8_t UsartPut(uint8_t ch)
  26:src/usart2.c  **** {
 155              		.loc 1 26 0
 156              		.cfi_startproc
 157              		@ args = 0, pretend = 0, frame = 8
 158              		@ frame_needed = 1, uses_anonymous_args = 0
 159 007e 80B5     		push	{r7, lr}
 160              		.cfi_def_cfa_offset 8
 161              		.cfi_offset 7, -8
 162              		.cfi_offset 14, -4
 163 0080 82B0     		sub	sp, sp, #8
 164              		.cfi_def_cfa_offset 16
 165 0082 00AF     		add	r7, sp, #0
 166              		.cfi_def_cfa_register 7
 167 0084 0346     		mov	r3, r0
 168 0086 FB71     		strb	r3, [r7, #7]
  27:src/usart2.c  **** 	USART_SendData(USARTx, (uint8_t) ch);
 169              		.loc 1 27 0
 170 0088 FB79     		ldrb	r3, [r7, #7]	@ zero_extendqisi2
 171 008a 9BB2     		uxth	r3, r3
 172 008c 1946     		mov	r1, r3
 173 008e 0848     		ldr	r0, .L12
 174 0090 FFF7FEFF 		bl	USART_SendData
  28:src/usart2.c  **** 	//Loop until the end of transmission
  29:src/usart2.c  **** 	while(USART_GetFlagStatus(USARTx, USART_FLAG_TC) == RESET) {
 175              		.loc 1 29 0
 176 0094 00BF     		nop
 177              	.L10:
 178              		.loc 1 29 0 is_stmt 0 discriminator 1
 179 0096 4021     		movs	r1, #64
 180 0098 0548     		ldr	r0, .L12
 181 009a FFF7FEFF 		bl	USART_GetFlagStatus
 182 009e 0346     		mov	r3, r0
 183 00a0 002B     		cmp	r3, #0
 184 00a2 F8D0     		beq	.L10
  30:src/usart2.c  **** 	}
  31:src/usart2.c  ****   return ch;
 185              		.loc 1 31 0 is_stmt 1
 186 00a4 FB79     		ldrb	r3, [r7, #7]	@ zero_extendqisi2
  32:src/usart2.c  **** }
 187              		.loc 1 32 0
 188 00a6 1846     		mov	r0, r3
 189 00a8 0837     		adds	r7, r7, #8
 190              		.cfi_def_cfa_offset 8
 191 00aa BD46     		mov	sp, r7
 192              		.cfi_def_cfa_register 13
ARM GAS  /tmp/cc7mxXpk.s 			page 5


 193              		@ sp needed
 194 00ac 80BD     		pop	{r7, pc}
 195              	.L13:
 196 00ae 00BF     		.align	2
 197              	.L12:
 198 00b0 00440040 		.word	1073759232
 199              		.cfi_endproc
 200              	.LFE66:
 201              		.size	UsartPut, .-UsartPut
 202              		.align	1
 203              		.global	UsartGet
 204              		.syntax unified
 205              		.thumb
 206              		.thumb_func
 207              		.fpu softvfp
 208              		.type	UsartGet, %function
 209              	UsartGet:
 210              	.LFB67:
  33:src/usart2.c  **** 
  34:src/usart2.c  **** uint8_t UsartGet(void)
  35:src/usart2.c  **** {
 211              		.loc 1 35 0
 212              		.cfi_startproc
 213              		@ args = 0, pretend = 0, frame = 0
 214              		@ frame_needed = 1, uses_anonymous_args = 0
 215 00b4 80B5     		push	{r7, lr}
 216              		.cfi_def_cfa_offset 8
 217              		.cfi_offset 7, -8
 218              		.cfi_offset 14, -4
 219 00b6 00AF     		add	r7, sp, #0
 220              		.cfi_def_cfa_register 7
  36:src/usart2.c  **** 	while (USART_GetFlagStatus(USARTx, USART_FLAG_RXNE) == RESET);
 221              		.loc 1 36 0
 222 00b8 00BF     		nop
 223              	.L15:
 224              		.loc 1 36 0 is_stmt 0 discriminator 1
 225 00ba 2021     		movs	r1, #32
 226 00bc 0648     		ldr	r0, .L17
 227 00be FFF7FEFF 		bl	USART_GetFlagStatus
 228 00c2 0346     		mov	r3, r0
 229 00c4 002B     		cmp	r3, #0
 230 00c6 F8D0     		beq	.L15
  37:src/usart2.c  **** 	return (uint8_t)USART_ReceiveData(USARTx);
 231              		.loc 1 37 0 is_stmt 1
 232 00c8 0348     		ldr	r0, .L17
 233 00ca FFF7FEFF 		bl	USART_ReceiveData
 234 00ce 0346     		mov	r3, r0
 235 00d0 DBB2     		uxtb	r3, r3
  38:src/usart2.c  **** }
 236              		.loc 1 38 0
 237 00d2 1846     		mov	r0, r3
 238 00d4 80BD     		pop	{r7, pc}
 239              	.L18:
 240 00d6 00BF     		.align	2
 241              	.L17:
 242 00d8 00440040 		.word	1073759232
 243              		.cfi_endproc
ARM GAS  /tmp/cc7mxXpk.s 			page 6


 244              	.LFE67:
 245              		.size	UsartGet, .-UsartGet
 246              		.align	1
 247              		.global	USART_Conf
 248              		.syntax unified
 249              		.thumb
 250              		.thumb_func
 251              		.fpu softvfp
 252              		.type	USART_Conf, %function
 253              	USART_Conf:
 254              	.LFB68:
  39:src/usart2.c  **** 
  40:src/usart2.c  **** void USART_Conf(void)
  41:src/usart2.c  **** {
 255              		.loc 1 41 0
 256              		.cfi_startproc
 257              		@ args = 0, pretend = 0, frame = 16
 258              		@ frame_needed = 1, uses_anonymous_args = 0
 259 00dc 80B5     		push	{r7, lr}
 260              		.cfi_def_cfa_offset 8
 261              		.cfi_offset 7, -8
 262              		.cfi_offset 14, -4
 263 00de 84B0     		sub	sp, sp, #16
 264              		.cfi_def_cfa_offset 24
 265 00e0 00AF     		add	r7, sp, #0
 266              		.cfi_def_cfa_register 7
  42:src/usart2.c  ****   USART_InitTypeDef USART_InitStructure;
  43:src/usart2.c  ****   //串口配置： 波特率 115200 数据位 8 停止位 1  奇偶位 NONE  
  44:src/usart2.c  ****   USART_InitStructure.USART_BaudRate = 115200;
 267              		.loc 1 44 0
 268 00e2 4FF4E133 		mov	r3, #115200
 269 00e6 3B60     		str	r3, [r7]
  45:src/usart2.c  ****   USART_InitStructure.USART_WordLength = USART_WordLength_8b;
 270              		.loc 1 45 0
 271 00e8 0023     		movs	r3, #0
 272 00ea BB80     		strh	r3, [r7, #4]	@ movhi
  46:src/usart2.c  ****   USART_InitStructure.USART_StopBits = USART_StopBits_1;
 273              		.loc 1 46 0
 274 00ec 0023     		movs	r3, #0
 275 00ee FB80     		strh	r3, [r7, #6]	@ movhi
  47:src/usart2.c  ****   USART_InitStructure.USART_Parity =  USART_Parity_No ;
 276              		.loc 1 47 0
 277 00f0 0023     		movs	r3, #0
 278 00f2 3B81     		strh	r3, [r7, #8]	@ movhi
  48:src/usart2.c  ****   USART_InitStructure.USART_HardwareFlowControl = USART_HardwareFlowControl_None;
 279              		.loc 1 48 0
 280 00f4 0023     		movs	r3, #0
 281 00f6 BB81     		strh	r3, [r7, #12]	@ movhi
  49:src/usart2.c  ****   USART_InitStructure.USART_Mode = USART_Mode_Rx | USART_Mode_Tx;
 282              		.loc 1 49 0
 283 00f8 0C23     		movs	r3, #12
 284 00fa 7B81     		strh	r3, [r7, #10]	@ movhi
  50:src/usart2.c  ****   //初始化串口
  51:src/usart2.c  ****   USART_Init(USARTx, &USART_InitStructure);
 285              		.loc 1 51 0
 286 00fc 3B46     		mov	r3, r7
 287 00fe 1946     		mov	r1, r3
ARM GAS  /tmp/cc7mxXpk.s 			page 7


 288 0100 0548     		ldr	r0, .L20
 289 0102 FFF7FEFF 		bl	USART_Init
  52:src/usart2.c  ****   //启动串口
  53:src/usart2.c  ****   USART_Cmd(USARTx, ENABLE);
 290              		.loc 1 53 0
 291 0106 0121     		movs	r1, #1
 292 0108 0348     		ldr	r0, .L20
 293 010a FFF7FEFF 		bl	USART_Cmd
  54:src/usart2.c  **** }
 294              		.loc 1 54 0
 295 010e 00BF     		nop
 296 0110 1037     		adds	r7, r7, #16
 297              		.cfi_def_cfa_offset 8
 298 0112 BD46     		mov	sp, r7
 299              		.cfi_def_cfa_register 13
 300              		@ sp needed
 301 0114 80BD     		pop	{r7, pc}
 302              	.L21:
 303 0116 00BF     		.align	2
 304              	.L20:
 305 0118 00440040 		.word	1073759232
 306              		.cfi_endproc
 307              	.LFE68:
 308              		.size	USART_Conf, .-USART_Conf
 309              	.Letext0:
 310              		.file 2 "/usr/arm-none-eabi/include/machine/_default_types.h"
 311              		.file 3 "/usr/arm-none-eabi/include/sys/_stdint.h"
 312              		.file 4 "include/../include/STM32/../CMSIS/core_cm3.h"
 313              		.file 5 "include/../include/STM32/system_stm32f10x.h"
 314              		.file 6 "include/../include/STM32/stm32f10x.h"
 315              		.file 7 "include/../include/STM32/usart.h"
 316              		.file 8 "include/../include/MPU6050/mpu6050.h"
 317              		.file 9 "/usr/arm-none-eabi/include/sys/lock.h"
 318              		.file 10 "/usr/arm-none-eabi/include/sys/_types.h"
 319              		.file 11 "/usr/lib/gcc/arm-none-eabi/6.1.1/include/stddef.h"
 320              		.file 12 "/usr/arm-none-eabi/include/sys/reent.h"
 321              		.file 13 "/usr/arm-none-eabi/include/math.h"
 322              		.section	.debug_info,"",%progbits
 323              	.Ldebug_info0:
 324 0000 4B0C0000 		.4byte	0xc4b
 325 0004 0400     		.2byte	0x4
 326 0006 00000000 		.4byte	.Ldebug_abbrev0
 327 000a 04       		.byte	0x4
 328 000b 01       		.uleb128 0x1
 329 000c BD050000 		.4byte	.LASF170
 330 0010 0C       		.byte	0xc
 331 0011 95050000 		.4byte	.LASF171
 332 0015 84010000 		.4byte	.LASF172
 333 0019 00000000 		.4byte	.Ltext0
 334 001d 1C010000 		.4byte	.Letext0-.Ltext0
 335 0021 00000000 		.4byte	.Ldebug_line0
 336 0025 02       		.uleb128 0x2
 337 0026 01       		.byte	0x1
 338 0027 06       		.byte	0x6
 339 0028 00010000 		.4byte	.LASF0
 340 002c 03       		.uleb128 0x3
 341 002d 40000000 		.4byte	.LASF2
ARM GAS  /tmp/cc7mxXpk.s 			page 8


 342 0031 02       		.byte	0x2
 343 0032 1D       		.byte	0x1d
 344 0033 37000000 		.4byte	0x37
 345 0037 02       		.uleb128 0x2
 346 0038 01       		.byte	0x1
 347 0039 08       		.byte	0x8
 348 003a 7F040000 		.4byte	.LASF1
 349 003e 03       		.uleb128 0x3
 350 003f BE060000 		.4byte	.LASF3
 351 0043 02       		.byte	0x2
 352 0044 29       		.byte	0x29
 353 0045 49000000 		.4byte	0x49
 354 0049 02       		.uleb128 0x2
 355 004a 02       		.byte	0x2
 356 004b 05       		.byte	0x5
 357 004c 0C000000 		.4byte	.LASF4
 358 0050 03       		.uleb128 0x3
 359 0051 79050000 		.4byte	.LASF5
 360 0055 02       		.byte	0x2
 361 0056 2B       		.byte	0x2b
 362 0057 5B000000 		.4byte	0x5b
 363 005b 02       		.uleb128 0x2
 364 005c 02       		.byte	0x2
 365 005d 07       		.byte	0x7
 366 005e FB050000 		.4byte	.LASF6
 367 0062 03       		.uleb128 0x3
 368 0063 49030000 		.4byte	.LASF7
 369 0067 02       		.byte	0x2
 370 0068 3F       		.byte	0x3f
 371 0069 6D000000 		.4byte	0x6d
 372 006d 02       		.uleb128 0x2
 373 006e 04       		.byte	0x4
 374 006f 05       		.byte	0x5
 375 0070 7B010000 		.4byte	.LASF8
 376 0074 03       		.uleb128 0x3
 377 0075 47020000 		.4byte	.LASF9
 378 0079 02       		.byte	0x2
 379 007a 41       		.byte	0x41
 380 007b 7F000000 		.4byte	0x7f
 381 007f 02       		.uleb128 0x2
 382 0080 04       		.byte	0x4
 383 0081 07       		.byte	0x7
 384 0082 C3020000 		.4byte	.LASF10
 385 0086 02       		.uleb128 0x2
 386 0087 08       		.byte	0x8
 387 0088 05       		.byte	0x5
 388 0089 E4010000 		.4byte	.LASF11
 389 008d 02       		.uleb128 0x2
 390 008e 08       		.byte	0x8
 391 008f 07       		.byte	0x7
 392 0090 73000000 		.4byte	.LASF12
 393 0094 04       		.uleb128 0x4
 394 0095 04       		.byte	0x4
 395 0096 05       		.byte	0x5
 396 0097 696E7400 		.ascii	"int\000"
 397 009b 02       		.uleb128 0x2
 398 009c 04       		.byte	0x4
ARM GAS  /tmp/cc7mxXpk.s 			page 9


 399 009d 07       		.byte	0x7
 400 009e 6C050000 		.4byte	.LASF13
 401 00a2 03       		.uleb128 0x3
 402 00a3 A2060000 		.4byte	.LASF14
 403 00a7 03       		.byte	0x3
 404 00a8 18       		.byte	0x18
 405 00a9 2C000000 		.4byte	0x2c
 406 00ad 03       		.uleb128 0x3
 407 00ae EA000000 		.4byte	.LASF15
 408 00b2 03       		.byte	0x3
 409 00b3 20       		.byte	0x20
 410 00b4 3E000000 		.4byte	0x3e
 411 00b8 03       		.uleb128 0x3
 412 00b9 34030000 		.4byte	.LASF16
 413 00bd 03       		.byte	0x3
 414 00be 24       		.byte	0x24
 415 00bf 50000000 		.4byte	0x50
 416 00c3 05       		.uleb128 0x5
 417 00c4 B8000000 		.4byte	0xb8
 418 00c8 03       		.uleb128 0x3
 419 00c9 77040000 		.4byte	.LASF17
 420 00cd 03       		.byte	0x3
 421 00ce 2C       		.byte	0x2c
 422 00cf 62000000 		.4byte	0x62
 423 00d3 05       		.uleb128 0x5
 424 00d4 C8000000 		.4byte	0xc8
 425 00d8 03       		.uleb128 0x3
 426 00d9 18070000 		.4byte	.LASF18
 427 00dd 03       		.byte	0x3
 428 00de 30       		.byte	0x30
 429 00df 74000000 		.4byte	0x74
 430 00e3 02       		.uleb128 0x2
 431 00e4 04       		.byte	0x4
 432 00e5 07       		.byte	0x7
 433 00e6 91030000 		.4byte	.LASF19
 434 00ea 06       		.uleb128 0x6
 435 00eb A2000000 		.4byte	.LASF20
 436 00ef 04       		.byte	0x4
 437 00f0 9606     		.2byte	0x696
 438 00f2 D3000000 		.4byte	0xd3
 439 00f6 07       		.uleb128 0x7
 440 00f7 A3020000 		.4byte	.LASF21
 441 00fb 05       		.byte	0x5
 442 00fc 35       		.byte	0x35
 443 00fd D8000000 		.4byte	0xd8
 444 0101 08       		.uleb128 0x8
 445 0102 01       		.byte	0x1
 446 0103 37000000 		.4byte	0x37
 447 0107 06       		.byte	0x6
 448 0108 9001     		.2byte	0x190
 449 010a 1B010000 		.4byte	0x11b
 450 010e 09       		.uleb128 0x9
 451 010f 54040000 		.4byte	.LASF22
 452 0113 00       		.byte	0
 453 0114 0A       		.uleb128 0xa
 454 0115 53455400 		.ascii	"SET\000"
 455 0119 01       		.byte	0x1
ARM GAS  /tmp/cc7mxXpk.s 			page 10


 456 011a 00       		.byte	0
 457 011b 08       		.uleb128 0x8
 458 011c 01       		.byte	0x1
 459 011d 37000000 		.4byte	0x37
 460 0121 06       		.byte	0x6
 461 0122 9201     		.2byte	0x192
 462 0124 35010000 		.4byte	0x135
 463 0128 09       		.uleb128 0x9
 464 0129 94020000 		.4byte	.LASF23
 465 012d 00       		.byte	0
 466 012e 09       		.uleb128 0x9
 467 012f DD010000 		.4byte	.LASF24
 468 0133 01       		.byte	0x1
 469 0134 00       		.byte	0
 470 0135 0B       		.uleb128 0xb
 471 0136 1C       		.byte	0x1c
 472 0137 06       		.byte	0x6
 473 0138 5B04     		.2byte	0x45b
 474 013a F3010000 		.4byte	0x1f3
 475 013e 0C       		.uleb128 0xc
 476 013f 535200   		.ascii	"SR\000"
 477 0142 06       		.byte	0x6
 478 0143 5D04     		.2byte	0x45d
 479 0145 C3000000 		.4byte	0xc3
 480 0149 00       		.byte	0
 481 014a 0D       		.uleb128 0xd
 482 014b 0E040000 		.4byte	.LASF25
 483 014f 06       		.byte	0x6
 484 0150 5E04     		.2byte	0x45e
 485 0152 B8000000 		.4byte	0xb8
 486 0156 02       		.byte	0x2
 487 0157 0C       		.uleb128 0xc
 488 0158 445200   		.ascii	"DR\000"
 489 015b 06       		.byte	0x6
 490 015c 5F04     		.2byte	0x45f
 491 015e C3000000 		.4byte	0xc3
 492 0162 04       		.byte	0x4
 493 0163 0D       		.uleb128 0xd
 494 0164 18040000 		.4byte	.LASF26
 495 0168 06       		.byte	0x6
 496 0169 6004     		.2byte	0x460
 497 016b B8000000 		.4byte	0xb8
 498 016f 06       		.byte	0x6
 499 0170 0C       		.uleb128 0xc
 500 0171 42525200 		.ascii	"BRR\000"
 501 0175 06       		.byte	0x6
 502 0176 6104     		.2byte	0x461
 503 0178 C3000000 		.4byte	0xc3
 504 017c 08       		.byte	0x8
 505 017d 0D       		.uleb128 0xd
 506 017e 22040000 		.4byte	.LASF27
 507 0182 06       		.byte	0x6
 508 0183 6204     		.2byte	0x462
 509 0185 B8000000 		.4byte	0xb8
 510 0189 0A       		.byte	0xa
 511 018a 0C       		.uleb128 0xc
 512 018b 43523100 		.ascii	"CR1\000"
ARM GAS  /tmp/cc7mxXpk.s 			page 11


 513 018f 06       		.byte	0x6
 514 0190 6304     		.2byte	0x463
 515 0192 C3000000 		.4byte	0xc3
 516 0196 0C       		.byte	0xc
 517 0197 0D       		.uleb128 0xd
 518 0198 2C040000 		.4byte	.LASF28
 519 019c 06       		.byte	0x6
 520 019d 6404     		.2byte	0x464
 521 019f B8000000 		.4byte	0xb8
 522 01a3 0E       		.byte	0xe
 523 01a4 0C       		.uleb128 0xc
 524 01a5 43523200 		.ascii	"CR2\000"
 525 01a9 06       		.byte	0x6
 526 01aa 6504     		.2byte	0x465
 527 01ac C3000000 		.4byte	0xc3
 528 01b0 10       		.byte	0x10
 529 01b1 0D       		.uleb128 0xd
 530 01b2 36040000 		.4byte	.LASF29
 531 01b6 06       		.byte	0x6
 532 01b7 6604     		.2byte	0x466
 533 01b9 B8000000 		.4byte	0xb8
 534 01bd 12       		.byte	0x12
 535 01be 0C       		.uleb128 0xc
 536 01bf 43523300 		.ascii	"CR3\000"
 537 01c3 06       		.byte	0x6
 538 01c4 6704     		.2byte	0x467
 539 01c6 C3000000 		.4byte	0xc3
 540 01ca 14       		.byte	0x14
 541 01cb 0D       		.uleb128 0xd
 542 01cc 40040000 		.4byte	.LASF30
 543 01d0 06       		.byte	0x6
 544 01d1 6804     		.2byte	0x468
 545 01d3 B8000000 		.4byte	0xb8
 546 01d7 16       		.byte	0x16
 547 01d8 0D       		.uleb128 0xd
 548 01d9 19010000 		.4byte	.LASF31
 549 01dd 06       		.byte	0x6
 550 01de 6904     		.2byte	0x469
 551 01e0 C3000000 		.4byte	0xc3
 552 01e4 18       		.byte	0x18
 553 01e5 0D       		.uleb128 0xd
 554 01e6 4A040000 		.4byte	.LASF32
 555 01ea 06       		.byte	0x6
 556 01eb 6A04     		.2byte	0x46a
 557 01ed B8000000 		.4byte	0xb8
 558 01f1 1A       		.byte	0x1a
 559 01f2 00       		.byte	0
 560 01f3 0E       		.uleb128 0xe
 561 01f4 21030000 		.4byte	.LASF33
 562 01f8 06       		.byte	0x6
 563 01f9 6B04     		.2byte	0x46b
 564 01fb 35010000 		.4byte	0x135
 565 01ff 0F       		.uleb128 0xf
 566 0200 10       		.byte	0x10
 567 0201 07       		.byte	0x7
 568 0202 0C       		.byte	0xc
 569 0203 50020000 		.4byte	0x250
ARM GAS  /tmp/cc7mxXpk.s 			page 12


 570 0207 10       		.uleb128 0x10
 571 0208 64010000 		.4byte	.LASF34
 572 020c 07       		.byte	0x7
 573 020d 0E       		.byte	0xe
 574 020e D8000000 		.4byte	0xd8
 575 0212 00       		.byte	0
 576 0213 10       		.uleb128 0x10
 577 0214 84050000 		.4byte	.LASF35
 578 0218 07       		.byte	0x7
 579 0219 13       		.byte	0x13
 580 021a B8000000 		.4byte	0xb8
 581 021e 04       		.byte	0x4
 582 021f 10       		.uleb128 0x10
 583 0220 52020000 		.4byte	.LASF36
 584 0224 07       		.byte	0x7
 585 0225 16       		.byte	0x16
 586 0226 B8000000 		.4byte	0xb8
 587 022a 06       		.byte	0x6
 588 022b 10       		.uleb128 0x10
 589 022c 0C010000 		.4byte	.LASF37
 590 0230 07       		.byte	0x7
 591 0231 19       		.byte	0x19
 592 0232 B8000000 		.4byte	0xb8
 593 0236 08       		.byte	0x8
 594 0237 10       		.uleb128 0x10
 595 0238 51010000 		.4byte	.LASF38
 596 023c 07       		.byte	0x7
 597 023d 20       		.byte	0x20
 598 023e B8000000 		.4byte	0xb8
 599 0242 0A       		.byte	0xa
 600 0243 10       		.uleb128 0x10
 601 0244 09020000 		.4byte	.LASF39
 602 0248 07       		.byte	0x7
 603 0249 23       		.byte	0x23
 604 024a B8000000 		.4byte	0xb8
 605 024e 0C       		.byte	0xc
 606 024f 00       		.byte	0
 607 0250 03       		.uleb128 0x3
 608 0251 53030000 		.4byte	.LASF40
 609 0255 07       		.byte	0x7
 610 0256 26       		.byte	0x26
 611 0257 FF010000 		.4byte	0x1ff
 612 025b 11       		.uleb128 0x11
 613 025c 12       		.uleb128 0x12
 614 025d 04       		.byte	0x4
 615 025e 5B020000 		.4byte	0x25b
 616 0262 13       		.uleb128 0x13
 617 0263 49000000 		.4byte	0x49
 618 0267 72020000 		.4byte	0x272
 619 026b 14       		.uleb128 0x14
 620 026c E3000000 		.4byte	0xe3
 621 0270 02       		.byte	0x2
 622 0271 00       		.byte	0
 623 0272 06       		.uleb128 0x6
 624 0273 BF000000 		.4byte	.LASF41
 625 0277 08       		.byte	0x8
 626 0278 6301     		.2byte	0x163
ARM GAS  /tmp/cc7mxXpk.s 			page 13


 627 027a 62020000 		.4byte	0x262
 628 027e 06       		.uleb128 0x6
 629 027f AB030000 		.4byte	.LASF42
 630 0283 08       		.byte	0x8
 631 0284 6301     		.2byte	0x163
 632 0286 62020000 		.4byte	0x262
 633 028a 06       		.uleb128 0x6
 634 028b 24010000 		.4byte	.LASF43
 635 028f 08       		.byte	0x8
 636 0290 6401     		.2byte	0x164
 637 0292 AD000000 		.4byte	0xad
 638 0296 06       		.uleb128 0x6
 639 0297 9A030000 		.4byte	.LASF44
 640 029b 08       		.byte	0x8
 641 029c 6401     		.2byte	0x164
 642 029e AD000000 		.4byte	0xad
 643 02a2 06       		.uleb128 0x6
 644 02a3 B1030000 		.4byte	.LASF45
 645 02a7 08       		.byte	0x8
 646 02a8 6401     		.2byte	0x164
 647 02aa AD000000 		.4byte	0xad
 648 02ae 06       		.uleb128 0x6
 649 02af 39060000 		.4byte	.LASF46
 650 02b3 08       		.byte	0x8
 651 02b4 6501     		.2byte	0x165
 652 02b6 BA020000 		.4byte	0x2ba
 653 02ba 02       		.uleb128 0x2
 654 02bb 04       		.byte	0x4
 655 02bc 04       		.byte	0x4
 656 02bd ED030000 		.4byte	.LASF47
 657 02c1 06       		.uleb128 0x6
 658 02c2 08040000 		.4byte	.LASF48
 659 02c6 08       		.byte	0x8
 660 02c7 6601     		.2byte	0x166
 661 02c9 BA020000 		.4byte	0x2ba
 662 02cd 06       		.uleb128 0x6
 663 02ce A2050000 		.4byte	.LASF49
 664 02d2 08       		.byte	0x8
 665 02d3 6601     		.2byte	0x166
 666 02d5 BA020000 		.4byte	0x2ba
 667 02d9 15       		.uleb128 0x15
 668 02da 59617700 		.ascii	"Yaw\000"
 669 02de 08       		.byte	0x8
 670 02df 6601     		.2byte	0x166
 671 02e1 BA020000 		.4byte	0x2ba
 672 02e5 02       		.uleb128 0x2
 673 02e6 08       		.byte	0x8
 674 02e7 04       		.byte	0x4
 675 02e8 43050000 		.4byte	.LASF50
 676 02ec 16       		.uleb128 0x16
 677 02ed 04       		.byte	0x4
 678 02ee 03       		.uleb128 0x3
 679 02ef 7F030000 		.4byte	.LASF51
 680 02f3 09       		.byte	0x9
 681 02f4 07       		.byte	0x7
 682 02f5 94000000 		.4byte	0x94
 683 02f9 03       		.uleb128 0x3
ARM GAS  /tmp/cc7mxXpk.s 			page 14


 684 02fa F2000000 		.4byte	.LASF52
 685 02fe 0A       		.byte	0xa
 686 02ff 2C       		.byte	0x2c
 687 0300 6D000000 		.4byte	0x6d
 688 0304 03       		.uleb128 0x3
 689 0305 3B050000 		.4byte	.LASF53
 690 0309 0A       		.byte	0xa
 691 030a 72       		.byte	0x72
 692 030b 6D000000 		.4byte	0x6d
 693 030f 0E       		.uleb128 0xe
 694 0310 E6030000 		.4byte	.LASF54
 695 0314 0B       		.byte	0xb
 696 0315 6501     		.2byte	0x165
 697 0317 9B000000 		.4byte	0x9b
 698 031b 17       		.uleb128 0x17
 699 031c 04       		.byte	0x4
 700 031d 0A       		.byte	0xa
 701 031e A6       		.byte	0xa6
 702 031f 3A030000 		.4byte	0x33a
 703 0323 18       		.uleb128 0x18
 704 0324 1B030000 		.4byte	.LASF55
 705 0328 0A       		.byte	0xa
 706 0329 A8       		.byte	0xa8
 707 032a 0F030000 		.4byte	0x30f
 708 032e 18       		.uleb128 0x18
 709 032f 9C020000 		.4byte	.LASF56
 710 0333 0A       		.byte	0xa
 711 0334 A9       		.byte	0xa9
 712 0335 3A030000 		.4byte	0x33a
 713 0339 00       		.byte	0
 714 033a 13       		.uleb128 0x13
 715 033b 37000000 		.4byte	0x37
 716 033f 4A030000 		.4byte	0x34a
 717 0343 14       		.uleb128 0x14
 718 0344 E3000000 		.4byte	0xe3
 719 0348 03       		.byte	0x3
 720 0349 00       		.byte	0
 721 034a 0F       		.uleb128 0xf
 722 034b 08       		.byte	0x8
 723 034c 0A       		.byte	0xa
 724 034d A3       		.byte	0xa3
 725 034e 6B030000 		.4byte	0x36b
 726 0352 10       		.uleb128 0x10
 727 0353 1B050000 		.4byte	.LASF57
 728 0357 0A       		.byte	0xa
 729 0358 A5       		.byte	0xa5
 730 0359 94000000 		.4byte	0x94
 731 035d 00       		.byte	0
 732 035e 10       		.uleb128 0x10
 733 035f 23050000 		.4byte	.LASF58
 734 0363 0A       		.byte	0xa
 735 0364 AA       		.byte	0xaa
 736 0365 1B030000 		.4byte	0x31b
 737 0369 04       		.byte	0x4
 738 036a 00       		.byte	0
 739 036b 03       		.uleb128 0x3
 740 036c C3040000 		.4byte	.LASF59
ARM GAS  /tmp/cc7mxXpk.s 			page 15


 741 0370 0A       		.byte	0xa
 742 0371 AB       		.byte	0xab
 743 0372 4A030000 		.4byte	0x34a
 744 0376 03       		.uleb128 0x3
 745 0377 9C040000 		.4byte	.LASF60
 746 037b 0A       		.byte	0xa
 747 037c AF       		.byte	0xaf
 748 037d EE020000 		.4byte	0x2ee
 749 0381 03       		.uleb128 0x3
 750 0382 13060000 		.4byte	.LASF61
 751 0386 0C       		.byte	0xc
 752 0387 16       		.byte	0x16
 753 0388 7F000000 		.4byte	0x7f
 754 038c 19       		.uleb128 0x19
 755 038d 7B020000 		.4byte	.LASF66
 756 0391 18       		.byte	0x18
 757 0392 0C       		.byte	0xc
 758 0393 2D       		.byte	0x2d
 759 0394 DF030000 		.4byte	0x3df
 760 0398 10       		.uleb128 0x10
 761 0399 83020000 		.4byte	.LASF62
 762 039d 0C       		.byte	0xc
 763 039e 2F       		.byte	0x2f
 764 039f DF030000 		.4byte	0x3df
 765 03a3 00       		.byte	0
 766 03a4 1A       		.uleb128 0x1a
 767 03a5 5F6B00   		.ascii	"_k\000"
 768 03a8 0C       		.byte	0xc
 769 03a9 30       		.byte	0x30
 770 03aa 94000000 		.4byte	0x94
 771 03ae 04       		.byte	0x4
 772 03af 10       		.uleb128 0x10
 773 03b0 06050000 		.4byte	.LASF63
 774 03b4 0C       		.byte	0xc
 775 03b5 30       		.byte	0x30
 776 03b6 94000000 		.4byte	0x94
 777 03ba 08       		.byte	0x8
 778 03bb 10       		.uleb128 0x10
 779 03bc 61020000 		.4byte	.LASF64
 780 03c0 0C       		.byte	0xc
 781 03c1 30       		.byte	0x30
 782 03c2 94000000 		.4byte	0x94
 783 03c6 0C       		.byte	0xc
 784 03c7 10       		.uleb128 0x10
 785 03c8 90060000 		.4byte	.LASF65
 786 03cc 0C       		.byte	0xc
 787 03cd 30       		.byte	0x30
 788 03ce 94000000 		.4byte	0x94
 789 03d2 10       		.byte	0x10
 790 03d3 1A       		.uleb128 0x1a
 791 03d4 5F7800   		.ascii	"_x\000"
 792 03d7 0C       		.byte	0xc
 793 03d8 31       		.byte	0x31
 794 03d9 E5030000 		.4byte	0x3e5
 795 03dd 14       		.byte	0x14
 796 03de 00       		.byte	0
 797 03df 12       		.uleb128 0x12
ARM GAS  /tmp/cc7mxXpk.s 			page 16


 798 03e0 04       		.byte	0x4
 799 03e1 8C030000 		.4byte	0x38c
 800 03e5 13       		.uleb128 0x13
 801 03e6 81030000 		.4byte	0x381
 802 03ea F5030000 		.4byte	0x3f5
 803 03ee 14       		.uleb128 0x14
 804 03ef E3000000 		.4byte	0xe3
 805 03f3 00       		.byte	0
 806 03f4 00       		.byte	0
 807 03f5 19       		.uleb128 0x19
 808 03f6 8F020000 		.4byte	.LASF67
 809 03fa 24       		.byte	0x24
 810 03fb 0C       		.byte	0xc
 811 03fc 35       		.byte	0x35
 812 03fd 6E040000 		.4byte	0x46e
 813 0401 10       		.uleb128 0x10
 814 0402 E1000000 		.4byte	.LASF68
 815 0406 0C       		.byte	0xc
 816 0407 37       		.byte	0x37
 817 0408 94000000 		.4byte	0x94
 818 040c 00       		.byte	0
 819 040d 10       		.uleb128 0x10
 820 040e F0060000 		.4byte	.LASF69
 821 0412 0C       		.byte	0xc
 822 0413 38       		.byte	0x38
 823 0414 94000000 		.4byte	0x94
 824 0418 04       		.byte	0x4
 825 0419 10       		.uleb128 0x10
 826 041a 34010000 		.4byte	.LASF70
 827 041e 0C       		.byte	0xc
 828 041f 39       		.byte	0x39
 829 0420 94000000 		.4byte	0x94
 830 0424 08       		.byte	0x8
 831 0425 10       		.uleb128 0x10
 832 0426 21070000 		.4byte	.LASF71
 833 042a 0C       		.byte	0xc
 834 042b 3A       		.byte	0x3a
 835 042c 94000000 		.4byte	0x94
 836 0430 0C       		.byte	0xc
 837 0431 10       		.uleb128 0x10
 838 0432 BB030000 		.4byte	.LASF72
 839 0436 0C       		.byte	0xc
 840 0437 3B       		.byte	0x3b
 841 0438 94000000 		.4byte	0x94
 842 043c 10       		.byte	0x10
 843 043d 10       		.uleb128 0x10
 844 043e 6C030000 		.4byte	.LASF73
 845 0442 0C       		.byte	0xc
 846 0443 3C       		.byte	0x3c
 847 0444 94000000 		.4byte	0x94
 848 0448 14       		.byte	0x14
 849 0449 10       		.uleb128 0x10
 850 044a 31050000 		.4byte	.LASF74
 851 044e 0C       		.byte	0xc
 852 044f 3D       		.byte	0x3d
 853 0450 94000000 		.4byte	0x94
 854 0454 18       		.byte	0x18
ARM GAS  /tmp/cc7mxXpk.s 			page 17


 855 0455 10       		.uleb128 0x10
 856 0456 A5040000 		.4byte	.LASF75
 857 045a 0C       		.byte	0xc
 858 045b 3E       		.byte	0x3e
 859 045c 94000000 		.4byte	0x94
 860 0460 1C       		.byte	0x1c
 861 0461 10       		.uleb128 0x10
 862 0462 D6060000 		.4byte	.LASF76
 863 0466 0C       		.byte	0xc
 864 0467 3F       		.byte	0x3f
 865 0468 94000000 		.4byte	0x94
 866 046c 20       		.byte	0x20
 867 046d 00       		.byte	0
 868 046e 1B       		.uleb128 0x1b
 869 046f 43010000 		.4byte	.LASF77
 870 0473 0801     		.2byte	0x108
 871 0475 0C       		.byte	0xc
 872 0476 48       		.byte	0x48
 873 0477 AE040000 		.4byte	0x4ae
 874 047b 10       		.uleb128 0x10
 875 047c 16000000 		.4byte	.LASF78
 876 0480 0C       		.byte	0xc
 877 0481 49       		.byte	0x49
 878 0482 AE040000 		.4byte	0x4ae
 879 0486 00       		.byte	0
 880 0487 10       		.uleb128 0x10
 881 0488 00000000 		.4byte	.LASF79
 882 048c 0C       		.byte	0xc
 883 048d 4A       		.byte	0x4a
 884 048e AE040000 		.4byte	0x4ae
 885 0492 80       		.byte	0x80
 886 0493 1C       		.uleb128 0x1c
 887 0494 B4050000 		.4byte	.LASF80
 888 0498 0C       		.byte	0xc
 889 0499 4C       		.byte	0x4c
 890 049a 81030000 		.4byte	0x381
 891 049e 0001     		.2byte	0x100
 892 04a0 1C       		.uleb128 0x1c
 893 04a1 B6010000 		.4byte	.LASF81
 894 04a5 0C       		.byte	0xc
 895 04a6 4F       		.byte	0x4f
 896 04a7 81030000 		.4byte	0x381
 897 04ab 0401     		.2byte	0x104
 898 04ad 00       		.byte	0
 899 04ae 13       		.uleb128 0x13
 900 04af EC020000 		.4byte	0x2ec
 901 04b3 BE040000 		.4byte	0x4be
 902 04b7 14       		.uleb128 0x14
 903 04b8 E3000000 		.4byte	0xe3
 904 04bc 1F       		.byte	0x1f
 905 04bd 00       		.byte	0
 906 04be 1B       		.uleb128 0x1b
 907 04bf C4030000 		.4byte	.LASF82
 908 04c3 9001     		.2byte	0x190
 909 04c5 0C       		.byte	0xc
 910 04c6 5B       		.byte	0x5b
 911 04c7 FC040000 		.4byte	0x4fc
ARM GAS  /tmp/cc7mxXpk.s 			page 18


 912 04cb 10       		.uleb128 0x10
 913 04cc 83020000 		.4byte	.LASF62
 914 04d0 0C       		.byte	0xc
 915 04d1 5C       		.byte	0x5c
 916 04d2 FC040000 		.4byte	0x4fc
 917 04d6 00       		.byte	0
 918 04d7 10       		.uleb128 0x10
 919 04d8 F1040000 		.4byte	.LASF83
 920 04dc 0C       		.byte	0xc
 921 04dd 5D       		.byte	0x5d
 922 04de 94000000 		.4byte	0x94
 923 04e2 04       		.byte	0x4
 924 04e3 10       		.uleb128 0x10
 925 04e4 42020000 		.4byte	.LASF84
 926 04e8 0C       		.byte	0xc
 927 04e9 5F       		.byte	0x5f
 928 04ea 02050000 		.4byte	0x502
 929 04ee 08       		.byte	0x8
 930 04ef 10       		.uleb128 0x10
 931 04f0 43010000 		.4byte	.LASF77
 932 04f4 0C       		.byte	0xc
 933 04f5 60       		.byte	0x60
 934 04f6 6E040000 		.4byte	0x46e
 935 04fa 88       		.byte	0x88
 936 04fb 00       		.byte	0
 937 04fc 12       		.uleb128 0x12
 938 04fd 04       		.byte	0x4
 939 04fe BE040000 		.4byte	0x4be
 940 0502 13       		.uleb128 0x13
 941 0503 5C020000 		.4byte	0x25c
 942 0507 12050000 		.4byte	0x512
 943 050b 14       		.uleb128 0x14
 944 050c E3000000 		.4byte	0xe3
 945 0510 1F       		.byte	0x1f
 946 0511 00       		.byte	0
 947 0512 19       		.uleb128 0x19
 948 0513 11070000 		.4byte	.LASF85
 949 0517 08       		.byte	0x8
 950 0518 0C       		.byte	0xc
 951 0519 73       		.byte	0x73
 952 051a 37050000 		.4byte	0x537
 953 051e 10       		.uleb128 0x10
 954 051f 2E010000 		.4byte	.LASF86
 955 0523 0C       		.byte	0xc
 956 0524 74       		.byte	0x74
 957 0525 37050000 		.4byte	0x537
 958 0529 00       		.byte	0
 959 052a 10       		.uleb128 0x10
 960 052b 66050000 		.4byte	.LASF87
 961 052f 0C       		.byte	0xc
 962 0530 75       		.byte	0x75
 963 0531 94000000 		.4byte	0x94
 964 0535 04       		.byte	0x4
 965 0536 00       		.byte	0
 966 0537 12       		.uleb128 0x12
 967 0538 04       		.byte	0x4
 968 0539 37000000 		.4byte	0x37
ARM GAS  /tmp/cc7mxXpk.s 			page 19


 969 053d 19       		.uleb128 0x19
 970 053e CE040000 		.4byte	.LASF88
 971 0542 68       		.byte	0x68
 972 0543 0C       		.byte	0xc
 973 0544 B3       		.byte	0xb3
 974 0545 67060000 		.4byte	0x667
 975 0549 1A       		.uleb128 0x1a
 976 054a 5F7000   		.ascii	"_p\000"
 977 054d 0C       		.byte	0xc
 978 054e B4       		.byte	0xb4
 979 054f 37050000 		.4byte	0x537
 980 0553 00       		.byte	0
 981 0554 1A       		.uleb128 0x1a
 982 0555 5F7200   		.ascii	"_r\000"
 983 0558 0C       		.byte	0xc
 984 0559 B5       		.byte	0xb5
 985 055a 94000000 		.4byte	0x94
 986 055e 04       		.byte	0x4
 987 055f 1A       		.uleb128 0x1a
 988 0560 5F7700   		.ascii	"_w\000"
 989 0563 0C       		.byte	0xc
 990 0564 B6       		.byte	0xb6
 991 0565 94000000 		.4byte	0x94
 992 0569 08       		.byte	0x8
 993 056a 10       		.uleb128 0x10
 994 056b 9B060000 		.4byte	.LASF89
 995 056f 0C       		.byte	0xc
 996 0570 B7       		.byte	0xb7
 997 0571 49000000 		.4byte	0x49
 998 0575 0C       		.byte	0xc
 999 0576 10       		.uleb128 0x10
 1000 0577 D5020000 		.4byte	.LASF90
 1001 057b 0C       		.byte	0xc
 1002 057c B8       		.byte	0xb8
 1003 057d 49000000 		.4byte	0x49
 1004 0581 0E       		.byte	0xe
 1005 0582 1A       		.uleb128 0x1a
 1006 0583 5F626600 		.ascii	"_bf\000"
 1007 0587 0C       		.byte	0xc
 1008 0588 B9       		.byte	0xb9
 1009 0589 12050000 		.4byte	0x512
 1010 058d 10       		.byte	0x10
 1011 058e 10       		.uleb128 0x10
 1012 058f 99000000 		.4byte	.LASF91
 1013 0593 0C       		.byte	0xc
 1014 0594 BA       		.byte	0xba
 1015 0595 94000000 		.4byte	0x94
 1016 0599 18       		.byte	0x18
 1017 059a 10       		.uleb128 0x10
 1018 059b 5C010000 		.4byte	.LASF92
 1019 059f 0C       		.byte	0xc
 1020 05a0 C1       		.byte	0xc1
 1021 05a1 EC020000 		.4byte	0x2ec
 1022 05a5 1C       		.byte	0x1c
 1023 05a6 10       		.uleb128 0x10
 1024 05a7 89020000 		.4byte	.LASF93
 1025 05ab 0C       		.byte	0xc
ARM GAS  /tmp/cc7mxXpk.s 			page 20


 1026 05ac C3       		.byte	0xc3
 1027 05ad D4070000 		.4byte	0x7d4
 1028 05b1 20       		.byte	0x20
 1029 05b2 10       		.uleb128 0x10
 1030 05b3 65030000 		.4byte	.LASF94
 1031 05b7 0C       		.byte	0xc
 1032 05b8 C5       		.byte	0xc5
 1033 05b9 FE070000 		.4byte	0x7fe
 1034 05bd 24       		.byte	0x24
 1035 05be 10       		.uleb128 0x10
 1036 05bf 2B050000 		.4byte	.LASF95
 1037 05c3 0C       		.byte	0xc
 1038 05c4 C8       		.byte	0xc8
 1039 05c5 22080000 		.4byte	0x822
 1040 05c9 28       		.byte	0x28
 1041 05ca 10       		.uleb128 0x10
 1042 05cb F9000000 		.4byte	.LASF96
 1043 05cf 0C       		.byte	0xc
 1044 05d0 C9       		.byte	0xc9
 1045 05d1 3C080000 		.4byte	0x83c
 1046 05d5 2C       		.byte	0x2c
 1047 05d6 1A       		.uleb128 0x1a
 1048 05d7 5F756200 		.ascii	"_ub\000"
 1049 05db 0C       		.byte	0xc
 1050 05dc CC       		.byte	0xcc
 1051 05dd 12050000 		.4byte	0x512
 1052 05e1 30       		.byte	0x30
 1053 05e2 1A       		.uleb128 0x1a
 1054 05e3 5F757000 		.ascii	"_up\000"
 1055 05e7 0C       		.byte	0xc
 1056 05e8 CD       		.byte	0xcd
 1057 05e9 37050000 		.4byte	0x537
 1058 05ed 38       		.byte	0x38
 1059 05ee 1A       		.uleb128 0x1a
 1060 05ef 5F757200 		.ascii	"_ur\000"
 1061 05f3 0C       		.byte	0xc
 1062 05f4 CE       		.byte	0xce
 1063 05f5 94000000 		.4byte	0x94
 1064 05f9 3C       		.byte	0x3c
 1065 05fa 10       		.uleb128 0x10
 1066 05fb 1E010000 		.4byte	.LASF97
 1067 05ff 0C       		.byte	0xc
 1068 0600 D1       		.byte	0xd1
 1069 0601 42080000 		.4byte	0x842
 1070 0605 40       		.byte	0x40
 1071 0606 10       		.uleb128 0x10
 1072 0607 C8060000 		.4byte	.LASF98
 1073 060b 0C       		.byte	0xc
 1074 060c D2       		.byte	0xd2
 1075 060d 52080000 		.4byte	0x852
 1076 0611 43       		.byte	0x43
 1077 0612 1A       		.uleb128 0x1a
 1078 0613 5F6C6200 		.ascii	"_lb\000"
 1079 0617 0C       		.byte	0xc
 1080 0618 D5       		.byte	0xd5
 1081 0619 12050000 		.4byte	0x512
 1082 061d 44       		.byte	0x44
ARM GAS  /tmp/cc7mxXpk.s 			page 21


 1083 061e 10       		.uleb128 0x10
 1084 061f 54050000 		.4byte	.LASF99
 1085 0623 0C       		.byte	0xc
 1086 0624 D8       		.byte	0xd8
 1087 0625 94000000 		.4byte	0x94
 1088 0629 4C       		.byte	0x4c
 1089 062a 10       		.uleb128 0x10
 1090 062b 01020000 		.4byte	.LASF100
 1091 062f 0C       		.byte	0xc
 1092 0630 D9       		.byte	0xd9
 1093 0631 F9020000 		.4byte	0x2f9
 1094 0635 50       		.byte	0x50
 1095 0636 10       		.uleb128 0x10
 1096 0637 DB020000 		.4byte	.LASF101
 1097 063b 0C       		.byte	0xc
 1098 063c DC       		.byte	0xdc
 1099 063d 85060000 		.4byte	0x685
 1100 0641 54       		.byte	0x54
 1101 0642 10       		.uleb128 0x10
 1102 0643 3D030000 		.4byte	.LASF102
 1103 0647 0C       		.byte	0xc
 1104 0648 E0       		.byte	0xe0
 1105 0649 76030000 		.4byte	0x376
 1106 064d 58       		.byte	0x58
 1107 064e 10       		.uleb128 0x10
 1108 064f D6040000 		.4byte	.LASF103
 1109 0653 0C       		.byte	0xc
 1110 0654 E2       		.byte	0xe2
 1111 0655 6B030000 		.4byte	0x36b
 1112 0659 5C       		.byte	0x5c
 1113 065a 10       		.uleb128 0x10
 1114 065b B4040000 		.4byte	.LASF104
 1115 065f 0C       		.byte	0xc
 1116 0660 E3       		.byte	0xe3
 1117 0661 94000000 		.4byte	0x94
 1118 0665 64       		.byte	0x64
 1119 0666 00       		.byte	0
 1120 0667 1D       		.uleb128 0x1d
 1121 0668 94000000 		.4byte	0x94
 1122 066c 85060000 		.4byte	0x685
 1123 0670 1E       		.uleb128 0x1e
 1124 0671 85060000 		.4byte	0x685
 1125 0675 1E       		.uleb128 0x1e
 1126 0676 EC020000 		.4byte	0x2ec
 1127 067a 1E       		.uleb128 0x1e
 1128 067b C2070000 		.4byte	0x7c2
 1129 067f 1E       		.uleb128 0x1e
 1130 0680 94000000 		.4byte	0x94
 1131 0684 00       		.byte	0
 1132 0685 12       		.uleb128 0x12
 1133 0686 04       		.byte	0x4
 1134 0687 90060000 		.4byte	0x690
 1135 068b 1F       		.uleb128 0x1f
 1136 068c 85060000 		.4byte	0x685
 1137 0690 20       		.uleb128 0x20
 1138 0691 0E050000 		.4byte	.LASF105
 1139 0695 2804     		.2byte	0x428
ARM GAS  /tmp/cc7mxXpk.s 			page 22


 1140 0697 0C       		.byte	0xc
 1141 0698 3802     		.2byte	0x238
 1142 069a C2070000 		.4byte	0x7c2
 1143 069e 0D       		.uleb128 0xd
 1144 069f 0C030000 		.4byte	.LASF106
 1145 06a3 0C       		.byte	0xc
 1146 06a4 3A02     		.2byte	0x23a
 1147 06a6 94000000 		.4byte	0x94
 1148 06aa 00       		.byte	0
 1149 06ab 0D       		.uleb128 0xd
 1150 06ac BE010000 		.4byte	.LASF107
 1151 06b0 0C       		.byte	0xc
 1152 06b1 3F02     		.2byte	0x23f
 1153 06b3 A9080000 		.4byte	0x8a9
 1154 06b7 04       		.byte	0x4
 1155 06b8 0D       		.uleb128 0xd
 1156 06b9 B3020000 		.4byte	.LASF108
 1157 06bd 0C       		.byte	0xc
 1158 06be 3F02     		.2byte	0x23f
 1159 06c0 A9080000 		.4byte	0x8a9
 1160 06c4 08       		.byte	0x8
 1161 06c5 0D       		.uleb128 0xd
 1162 06c6 73020000 		.4byte	.LASF109
 1163 06ca 0C       		.byte	0xc
 1164 06cb 3F02     		.2byte	0x23f
 1165 06cd A9080000 		.4byte	0x8a9
 1166 06d1 0C       		.byte	0xc
 1167 06d2 0D       		.uleb128 0xd
 1168 06d3 EC040000 		.4byte	.LASF110
 1169 06d7 0C       		.byte	0xc
 1170 06d8 4102     		.2byte	0x241
 1171 06da 94000000 		.4byte	0x94
 1172 06de 10       		.byte	0x10
 1173 06df 0D       		.uleb128 0xd
 1174 06e0 35000000 		.4byte	.LASF111
 1175 06e4 0C       		.byte	0xc
 1176 06e5 4202     		.2byte	0x242
 1177 06e7 8B0A0000 		.4byte	0xa8b
 1178 06eb 14       		.byte	0x14
 1179 06ec 0D       		.uleb128 0xd
 1180 06ed 59060000 		.4byte	.LASF112
 1181 06f1 0C       		.byte	0xc
 1182 06f2 4402     		.2byte	0x244
 1183 06f4 94000000 		.4byte	0x94
 1184 06f8 30       		.byte	0x30
 1185 06f9 0D       		.uleb128 0xd
 1186 06fa F6040000 		.4byte	.LASF113
 1187 06fe 0C       		.byte	0xc
 1188 06ff 4502     		.2byte	0x245
 1189 0701 F8070000 		.4byte	0x7f8
 1190 0705 34       		.byte	0x34
 1191 0706 0D       		.uleb128 0xd
 1192 0707 CC030000 		.4byte	.LASF114
 1193 070b 0C       		.byte	0xc
 1194 070c 4702     		.2byte	0x247
 1195 070e 94000000 		.4byte	0x94
 1196 0712 38       		.byte	0x38
ARM GAS  /tmp/cc7mxXpk.s 			page 23


 1197 0713 0D       		.uleb128 0xd
 1198 0714 86060000 		.4byte	.LASF115
 1199 0718 0C       		.byte	0xc
 1200 0719 4902     		.2byte	0x249
 1201 071b A60A0000 		.4byte	0xaa6
 1202 071f 3C       		.byte	0x3c
 1203 0720 0D       		.uleb128 0xd
 1204 0721 13030000 		.4byte	.LASF116
 1205 0725 0C       		.byte	0xc
 1206 0726 4C02     		.2byte	0x24c
 1207 0728 DF030000 		.4byte	0x3df
 1208 072c 40       		.byte	0x40
 1209 072d 0D       		.uleb128 0xd
 1210 072e D3010000 		.4byte	.LASF117
 1211 0732 0C       		.byte	0xc
 1212 0733 4D02     		.2byte	0x24d
 1213 0735 94000000 		.4byte	0x94
 1214 0739 44       		.byte	0x44
 1215 073a 0D       		.uleb128 0xd
 1216 073b 0C070000 		.4byte	.LASF118
 1217 073f 0C       		.byte	0xc
 1218 0740 4E02     		.2byte	0x24e
 1219 0742 DF030000 		.4byte	0x3df
 1220 0746 48       		.byte	0x48
 1221 0747 0D       		.uleb128 0xd
 1222 0748 FE030000 		.4byte	.LASF119
 1223 074c 0C       		.byte	0xc
 1224 074d 4F02     		.2byte	0x24f
 1225 074f AC0A0000 		.4byte	0xaac
 1226 0753 4C       		.byte	0x4c
 1227 0754 0D       		.uleb128 0xd
 1228 0755 BB020000 		.4byte	.LASF120
 1229 0759 0C       		.byte	0xc
 1230 075a 5202     		.2byte	0x252
 1231 075c 94000000 		.4byte	0x94
 1232 0760 50       		.byte	0x50
 1233 0761 0D       		.uleb128 0xd
 1234 0762 F9010000 		.4byte	.LASF121
 1235 0766 0C       		.byte	0xc
 1236 0767 5302     		.2byte	0x253
 1237 0769 C2070000 		.4byte	0x7c2
 1238 076d 54       		.byte	0x54
 1239 076e 0D       		.uleb128 0xd
 1240 076f 2F030000 		.4byte	.LASF122
 1241 0773 0C       		.byte	0xc
 1242 0774 7602     		.2byte	0x276
 1243 0776 690A0000 		.4byte	0xa69
 1244 077a 58       		.byte	0x58
 1245 077b 21       		.uleb128 0x21
 1246 077c C4030000 		.4byte	.LASF82
 1247 0780 0C       		.byte	0xc
 1248 0781 7A02     		.2byte	0x27a
 1249 0783 FC040000 		.4byte	0x4fc
 1250 0787 4801     		.2byte	0x148
 1251 0789 21       		.uleb128 0x21
 1252 078a 4A000000 		.4byte	.LASF123
 1253 078e 0C       		.byte	0xc
ARM GAS  /tmp/cc7mxXpk.s 			page 24


 1254 078f 7B02     		.2byte	0x27b
 1255 0791 BE040000 		.4byte	0x4be
 1256 0795 4C01     		.2byte	0x14c
 1257 0797 21       		.uleb128 0x21
 1258 0798 B4060000 		.4byte	.LASF124
 1259 079c 0C       		.byte	0xc
 1260 079d 7F02     		.2byte	0x27f
 1261 079f BD0A0000 		.4byte	0xabd
 1262 07a3 DC02     		.2byte	0x2dc
 1263 07a5 21       		.uleb128 0x21
 1264 07a6 73010000 		.4byte	.LASF125
 1265 07aa 0C       		.byte	0xc
 1266 07ab 8402     		.2byte	0x284
 1267 07ad 6E080000 		.4byte	0x86e
 1268 07b1 E002     		.2byte	0x2e0
 1269 07b3 21       		.uleb128 0x21
 1270 07b4 3E010000 		.4byte	.LASF126
 1271 07b8 0C       		.byte	0xc
 1272 07b9 8502     		.2byte	0x285
 1273 07bb C90A0000 		.4byte	0xac9
 1274 07bf EC02     		.2byte	0x2ec
 1275 07c1 00       		.byte	0
 1276 07c2 12       		.uleb128 0x12
 1277 07c3 04       		.byte	0x4
 1278 07c4 C8070000 		.4byte	0x7c8
 1279 07c8 02       		.uleb128 0x2
 1280 07c9 01       		.byte	0x1
 1281 07ca 08       		.byte	0x8
 1282 07cb 4F050000 		.4byte	.LASF127
 1283 07cf 1F       		.uleb128 0x1f
 1284 07d0 C8070000 		.4byte	0x7c8
 1285 07d4 12       		.uleb128 0x12
 1286 07d5 04       		.byte	0x4
 1287 07d6 67060000 		.4byte	0x667
 1288 07da 1D       		.uleb128 0x1d
 1289 07db 94000000 		.4byte	0x94
 1290 07df F8070000 		.4byte	0x7f8
 1291 07e3 1E       		.uleb128 0x1e
 1292 07e4 85060000 		.4byte	0x685
 1293 07e8 1E       		.uleb128 0x1e
 1294 07e9 EC020000 		.4byte	0x2ec
 1295 07ed 1E       		.uleb128 0x1e
 1296 07ee F8070000 		.4byte	0x7f8
 1297 07f2 1E       		.uleb128 0x1e
 1298 07f3 94000000 		.4byte	0x94
 1299 07f7 00       		.byte	0
 1300 07f8 12       		.uleb128 0x12
 1301 07f9 04       		.byte	0x4
 1302 07fa CF070000 		.4byte	0x7cf
 1303 07fe 12       		.uleb128 0x12
 1304 07ff 04       		.byte	0x4
 1305 0800 DA070000 		.4byte	0x7da
 1306 0804 1D       		.uleb128 0x1d
 1307 0805 04030000 		.4byte	0x304
 1308 0809 22080000 		.4byte	0x822
 1309 080d 1E       		.uleb128 0x1e
 1310 080e 85060000 		.4byte	0x685
ARM GAS  /tmp/cc7mxXpk.s 			page 25


 1311 0812 1E       		.uleb128 0x1e
 1312 0813 EC020000 		.4byte	0x2ec
 1313 0817 1E       		.uleb128 0x1e
 1314 0818 04030000 		.4byte	0x304
 1315 081c 1E       		.uleb128 0x1e
 1316 081d 94000000 		.4byte	0x94
 1317 0821 00       		.byte	0
 1318 0822 12       		.uleb128 0x12
 1319 0823 04       		.byte	0x4
 1320 0824 04080000 		.4byte	0x804
 1321 0828 1D       		.uleb128 0x1d
 1322 0829 94000000 		.4byte	0x94
 1323 082d 3C080000 		.4byte	0x83c
 1324 0831 1E       		.uleb128 0x1e
 1325 0832 85060000 		.4byte	0x685
 1326 0836 1E       		.uleb128 0x1e
 1327 0837 EC020000 		.4byte	0x2ec
 1328 083b 00       		.byte	0
 1329 083c 12       		.uleb128 0x12
 1330 083d 04       		.byte	0x4
 1331 083e 28080000 		.4byte	0x828
 1332 0842 13       		.uleb128 0x13
 1333 0843 37000000 		.4byte	0x37
 1334 0847 52080000 		.4byte	0x852
 1335 084b 14       		.uleb128 0x14
 1336 084c E3000000 		.4byte	0xe3
 1337 0850 02       		.byte	0x2
 1338 0851 00       		.byte	0
 1339 0852 13       		.uleb128 0x13
 1340 0853 37000000 		.4byte	0x37
 1341 0857 62080000 		.4byte	0x862
 1342 085b 14       		.uleb128 0x14
 1343 085c E3000000 		.4byte	0xe3
 1344 0860 00       		.byte	0
 1345 0861 00       		.byte	0
 1346 0862 0E       		.uleb128 0xe
 1347 0863 BC040000 		.4byte	.LASF128
 1348 0867 0C       		.byte	0xc
 1349 0868 1D01     		.2byte	0x11d
 1350 086a 3D050000 		.4byte	0x53d
 1351 086e 22       		.uleb128 0x22
 1352 086f 95060000 		.4byte	.LASF129
 1353 0873 0C       		.byte	0xc
 1354 0874 0C       		.byte	0xc
 1355 0875 2101     		.2byte	0x121
 1356 0877 A3080000 		.4byte	0x8a3
 1357 087b 0D       		.uleb128 0xd
 1358 087c 83020000 		.4byte	.LASF62
 1359 0880 0C       		.byte	0xc
 1360 0881 2301     		.2byte	0x123
 1361 0883 A3080000 		.4byte	0x8a3
 1362 0887 00       		.byte	0
 1363 0888 0D       		.uleb128 0xd
 1364 0889 E1020000 		.4byte	.LASF130
 1365 088d 0C       		.byte	0xc
 1366 088e 2401     		.2byte	0x124
 1367 0890 94000000 		.4byte	0x94
ARM GAS  /tmp/cc7mxXpk.s 			page 26


 1368 0894 04       		.byte	0x4
 1369 0895 0D       		.uleb128 0xd
 1370 0896 8D040000 		.4byte	.LASF131
 1371 089a 0C       		.byte	0xc
 1372 089b 2501     		.2byte	0x125
 1373 089d A9080000 		.4byte	0x8a9
 1374 08a1 08       		.byte	0x8
 1375 08a2 00       		.byte	0
 1376 08a3 12       		.uleb128 0x12
 1377 08a4 04       		.byte	0x4
 1378 08a5 6E080000 		.4byte	0x86e
 1379 08a9 12       		.uleb128 0x12
 1380 08aa 04       		.byte	0x4
 1381 08ab 62080000 		.4byte	0x862
 1382 08af 22       		.uleb128 0x22
 1383 08b0 1E000000 		.4byte	.LASF132
 1384 08b4 0E       		.byte	0xe
 1385 08b5 0C       		.byte	0xc
 1386 08b6 3D01     		.2byte	0x13d
 1387 08b8 E4080000 		.4byte	0x8e4
 1388 08bc 0D       		.uleb128 0xd
 1389 08bd 15050000 		.4byte	.LASF133
 1390 08c1 0C       		.byte	0xc
 1391 08c2 3E01     		.2byte	0x13e
 1392 08c4 E4080000 		.4byte	0x8e4
 1393 08c8 00       		.byte	0
 1394 08c9 0D       		.uleb128 0xd
 1395 08ca 43030000 		.4byte	.LASF134
 1396 08ce 0C       		.byte	0xc
 1397 08cf 3F01     		.2byte	0x13f
 1398 08d1 E4080000 		.4byte	0x8e4
 1399 08d5 06       		.byte	0x6
 1400 08d6 0D       		.uleb128 0xd
 1401 08d7 0E060000 		.4byte	.LASF135
 1402 08db 0C       		.byte	0xc
 1403 08dc 4001     		.2byte	0x140
 1404 08de 5B000000 		.4byte	0x5b
 1405 08e2 0C       		.byte	0xc
 1406 08e3 00       		.byte	0
 1407 08e4 13       		.uleb128 0x13
 1408 08e5 5B000000 		.4byte	0x5b
 1409 08e9 F4080000 		.4byte	0x8f4
 1410 08ed 14       		.uleb128 0x14
 1411 08ee E3000000 		.4byte	0xe3
 1412 08f2 02       		.byte	0x2
 1413 08f3 00       		.byte	0
 1414 08f4 0B       		.uleb128 0xb
 1415 08f5 D0       		.byte	0xd0
 1416 08f6 0C       		.byte	0xc
 1417 08f7 5702     		.2byte	0x257
 1418 08f9 F5090000 		.4byte	0x9f5
 1419 08fd 0D       		.uleb128 0xd
 1420 08fe 79060000 		.4byte	.LASF136
 1421 0902 0C       		.byte	0xc
 1422 0903 5902     		.2byte	0x259
 1423 0905 9B000000 		.4byte	0x9b
 1424 0909 00       		.byte	0
ARM GAS  /tmp/cc7mxXpk.s 			page 27


 1425 090a 0D       		.uleb128 0xd
 1426 090b A7050000 		.4byte	.LASF137
 1427 090f 0C       		.byte	0xc
 1428 0910 5A02     		.2byte	0x25a
 1429 0912 C2070000 		.4byte	0x7c2
 1430 0916 04       		.byte	0x4
 1431 0917 0D       		.uleb128 0xd
 1432 0918 FF020000 		.4byte	.LASF138
 1433 091c 0C       		.byte	0xc
 1434 091d 5B02     		.2byte	0x25b
 1435 091f F5090000 		.4byte	0x9f5
 1436 0923 08       		.byte	0x8
 1437 0924 0D       		.uleb128 0xd
 1438 0925 E1060000 		.4byte	.LASF139
 1439 0929 0C       		.byte	0xc
 1440 092a 5C02     		.2byte	0x25c
 1441 092c F5030000 		.4byte	0x3f5
 1442 0930 24       		.byte	0x24
 1443 0931 0D       		.uleb128 0xd
 1444 0932 D7030000 		.4byte	.LASF140
 1445 0936 0C       		.byte	0xc
 1446 0937 5D02     		.2byte	0x25d
 1447 0939 94000000 		.4byte	0x94
 1448 093d 48       		.byte	0x48
 1449 093e 0D       		.uleb128 0xd
 1450 093f E8020000 		.4byte	.LASF141
 1451 0943 0C       		.byte	0xc
 1452 0944 5E02     		.2byte	0x25e
 1453 0946 8D000000 		.4byte	0x8d
 1454 094a 50       		.byte	0x50
 1455 094b 0D       		.uleb128 0xd
 1456 094c F9060000 		.4byte	.LASF142
 1457 0950 0C       		.byte	0xc
 1458 0951 5F02     		.2byte	0x25f
 1459 0953 AF080000 		.4byte	0x8af
 1460 0957 58       		.byte	0x58
 1461 0958 0D       		.uleb128 0xd
 1462 0959 DF040000 		.4byte	.LASF143
 1463 095d 0C       		.byte	0xc
 1464 095e 6002     		.2byte	0x260
 1465 0960 6B030000 		.4byte	0x36b
 1466 0964 68       		.byte	0x68
 1467 0965 0D       		.uleb128 0xd
 1468 0966 FE060000 		.4byte	.LASF144
 1469 096a 0C       		.byte	0xc
 1470 096b 6102     		.2byte	0x261
 1471 096d 6B030000 		.4byte	0x36b
 1472 0971 70       		.byte	0x70
 1473 0972 0D       		.uleb128 0xd
 1474 0973 D3000000 		.4byte	.LASF145
 1475 0977 0C       		.byte	0xc
 1476 0978 6202     		.2byte	0x262
 1477 097a 6B030000 		.4byte	0x36b
 1478 097e 78       		.byte	0x78
 1479 097f 0D       		.uleb128 0xd
 1480 0980 AA060000 		.4byte	.LASF146
 1481 0984 0C       		.byte	0xc
ARM GAS  /tmp/cc7mxXpk.s 			page 28


 1482 0985 6302     		.2byte	0x263
 1483 0987 050A0000 		.4byte	0xa05
 1484 098b 80       		.byte	0x80
 1485 098c 0D       		.uleb128 0xd
 1486 098d F3020000 		.4byte	.LASF147
 1487 0991 0C       		.byte	0xc
 1488 0992 6402     		.2byte	0x264
 1489 0994 150A0000 		.4byte	0xa15
 1490 0998 88       		.byte	0x88
 1491 0999 0D       		.uleb128 0xd
 1492 099a 1B060000 		.4byte	.LASF148
 1493 099e 0C       		.byte	0xc
 1494 099f 6502     		.2byte	0x265
 1495 09a1 94000000 		.4byte	0x94
 1496 09a5 A0       		.byte	0xa0
 1497 09a6 0D       		.uleb128 0xd
 1498 09a7 23020000 		.4byte	.LASF149
 1499 09ab 0C       		.byte	0xc
 1500 09ac 6602     		.2byte	0x266
 1501 09ae 6B030000 		.4byte	0x36b
 1502 09b2 A4       		.byte	0xa4
 1503 09b3 0D       		.uleb128 0xd
 1504 09b4 C4000000 		.4byte	.LASF150
 1505 09b8 0C       		.byte	0xc
 1506 09b9 6702     		.2byte	0x267
 1507 09bb 6B030000 		.4byte	0x36b
 1508 09bf AC       		.byte	0xac
 1509 09c0 0D       		.uleb128 0xd
 1510 09c1 31020000 		.4byte	.LASF151
 1511 09c5 0C       		.byte	0xc
 1512 09c6 6802     		.2byte	0x268
 1513 09c8 6B030000 		.4byte	0x36b
 1514 09cc B4       		.byte	0xb4
 1515 09cd 0D       		.uleb128 0xd
 1516 09ce 53000000 		.4byte	.LASF152
 1517 09d2 0C       		.byte	0xc
 1518 09d3 6902     		.2byte	0x269
 1519 09d5 6B030000 		.4byte	0x36b
 1520 09d9 BC       		.byte	0xbc
 1521 09da 0D       		.uleb128 0xd
 1522 09db 62000000 		.4byte	.LASF153
 1523 09df 0C       		.byte	0xc
 1524 09e0 6A02     		.2byte	0x26a
 1525 09e2 6B030000 		.4byte	0x36b
 1526 09e6 C4       		.byte	0xc4
 1527 09e7 0D       		.uleb128 0xd
 1528 09e8 93040000 		.4byte	.LASF154
 1529 09ec 0C       		.byte	0xc
 1530 09ed 6B02     		.2byte	0x26b
 1531 09ef 94000000 		.4byte	0x94
 1532 09f3 CC       		.byte	0xcc
 1533 09f4 00       		.byte	0
 1534 09f5 13       		.uleb128 0x13
 1535 09f6 C8070000 		.4byte	0x7c8
 1536 09fa 050A0000 		.4byte	0xa05
 1537 09fe 14       		.uleb128 0x14
 1538 09ff E3000000 		.4byte	0xe3
ARM GAS  /tmp/cc7mxXpk.s 			page 29


 1539 0a03 19       		.byte	0x19
 1540 0a04 00       		.byte	0
 1541 0a05 13       		.uleb128 0x13
 1542 0a06 C8070000 		.4byte	0x7c8
 1543 0a0a 150A0000 		.4byte	0xa15
 1544 0a0e 14       		.uleb128 0x14
 1545 0a0f E3000000 		.4byte	0xe3
 1546 0a13 07       		.byte	0x7
 1547 0a14 00       		.byte	0
 1548 0a15 13       		.uleb128 0x13
 1549 0a16 C8070000 		.4byte	0x7c8
 1550 0a1a 250A0000 		.4byte	0xa25
 1551 0a1e 14       		.uleb128 0x14
 1552 0a1f E3000000 		.4byte	0xe3
 1553 0a23 17       		.byte	0x17
 1554 0a24 00       		.byte	0
 1555 0a25 0B       		.uleb128 0xb
 1556 0a26 F0       		.byte	0xf0
 1557 0a27 0C       		.byte	0xc
 1558 0a28 7002     		.2byte	0x270
 1559 0a2a 490A0000 		.4byte	0xa49
 1560 0a2e 0D       		.uleb128 0xd
 1561 0a2f A4030000 		.4byte	.LASF155
 1562 0a33 0C       		.byte	0xc
 1563 0a34 7302     		.2byte	0x273
 1564 0a36 490A0000 		.4byte	0xa49
 1565 0a3a 00       		.byte	0
 1566 0a3b 0D       		.uleb128 0xd
 1567 0a3c 76030000 		.4byte	.LASF156
 1568 0a40 0C       		.byte	0xc
 1569 0a41 7402     		.2byte	0x274
 1570 0a43 590A0000 		.4byte	0xa59
 1571 0a47 78       		.byte	0x78
 1572 0a48 00       		.byte	0
 1573 0a49 13       		.uleb128 0x13
 1574 0a4a 37050000 		.4byte	0x537
 1575 0a4e 590A0000 		.4byte	0xa59
 1576 0a52 14       		.uleb128 0x14
 1577 0a53 E3000000 		.4byte	0xe3
 1578 0a57 1D       		.byte	0x1d
 1579 0a58 00       		.byte	0
 1580 0a59 13       		.uleb128 0x13
 1581 0a5a 9B000000 		.4byte	0x9b
 1582 0a5e 690A0000 		.4byte	0xa69
 1583 0a62 14       		.uleb128 0x14
 1584 0a63 E3000000 		.4byte	0xe3
 1585 0a67 1D       		.byte	0x1d
 1586 0a68 00       		.byte	0
 1587 0a69 23       		.uleb128 0x23
 1588 0a6a F0       		.byte	0xf0
 1589 0a6b 0C       		.byte	0xc
 1590 0a6c 5502     		.2byte	0x255
 1591 0a6e 8B0A0000 		.4byte	0xa8b
 1592 0a72 24       		.uleb128 0x24
 1593 0a73 0E050000 		.4byte	.LASF105
 1594 0a77 0C       		.byte	0xc
 1595 0a78 6C02     		.2byte	0x26c
ARM GAS  /tmp/cc7mxXpk.s 			page 30


 1596 0a7a F4080000 		.4byte	0x8f4
 1597 0a7e 24       		.uleb128 0x24
 1598 0a7f CE060000 		.4byte	.LASF157
 1599 0a83 0C       		.byte	0xc
 1600 0a84 7502     		.2byte	0x275
 1601 0a86 250A0000 		.4byte	0xa25
 1602 0a8a 00       		.byte	0
 1603 0a8b 13       		.uleb128 0x13
 1604 0a8c C8070000 		.4byte	0x7c8
 1605 0a90 9B0A0000 		.4byte	0xa9b
 1606 0a94 14       		.uleb128 0x14
 1607 0a95 E3000000 		.4byte	0xe3
 1608 0a99 18       		.byte	0x18
 1609 0a9a 00       		.byte	0
 1610 0a9b 25       		.uleb128 0x25
 1611 0a9c A60A0000 		.4byte	0xaa6
 1612 0aa0 1E       		.uleb128 0x1e
 1613 0aa1 85060000 		.4byte	0x685
 1614 0aa5 00       		.byte	0
 1615 0aa6 12       		.uleb128 0x12
 1616 0aa7 04       		.byte	0x4
 1617 0aa8 9B0A0000 		.4byte	0xa9b
 1618 0aac 12       		.uleb128 0x12
 1619 0aad 04       		.byte	0x4
 1620 0aae DF030000 		.4byte	0x3df
 1621 0ab2 25       		.uleb128 0x25
 1622 0ab3 BD0A0000 		.4byte	0xabd
 1623 0ab7 1E       		.uleb128 0x1e
 1624 0ab8 94000000 		.4byte	0x94
 1625 0abc 00       		.byte	0
 1626 0abd 12       		.uleb128 0x12
 1627 0abe 04       		.byte	0x4
 1628 0abf C30A0000 		.4byte	0xac3
 1629 0ac3 12       		.uleb128 0x12
 1630 0ac4 04       		.byte	0x4
 1631 0ac5 B20A0000 		.4byte	0xab2
 1632 0ac9 13       		.uleb128 0x13
 1633 0aca 62080000 		.4byte	0x862
 1634 0ace D90A0000 		.4byte	0xad9
 1635 0ad2 14       		.uleb128 0x14
 1636 0ad3 E3000000 		.4byte	0xe3
 1637 0ad7 02       		.byte	0x2
 1638 0ad8 00       		.byte	0
 1639 0ad9 06       		.uleb128 0x6
 1640 0ada 67020000 		.4byte	.LASF158
 1641 0ade 0C       		.byte	0xc
 1642 0adf FD02     		.2byte	0x2fd
 1643 0ae1 85060000 		.4byte	0x685
 1644 0ae5 06       		.uleb128 0x6
 1645 0ae6 46060000 		.4byte	.LASF159
 1646 0aea 0C       		.byte	0xc
 1647 0aeb FE02     		.2byte	0x2fe
 1648 0aed 8B060000 		.4byte	0x68b
 1649 0af1 02       		.uleb128 0x2
 1650 0af2 08       		.byte	0x8
 1651 0af3 04       		.byte	0x4
 1652 0af4 F2010000 		.4byte	.LASF160
ARM GAS  /tmp/cc7mxXpk.s 			page 31


 1653 0af8 26       		.uleb128 0x26
 1654 0af9 28060000 		.4byte	.LASF173
 1655 0afd 01       		.byte	0x1
 1656 0afe 25000000 		.4byte	0x25
 1657 0b02 0D       		.byte	0xd
 1658 0b03 9902     		.2byte	0x299
 1659 0b05 220B0000 		.4byte	0xb22
 1660 0b09 27       		.uleb128 0x27
 1661 0b0a 6B060000 		.4byte	.LASF161
 1662 0b0e 7F       		.sleb128 -1
 1663 0b0f 09       		.uleb128 0x9
 1664 0b10 C5010000 		.4byte	.LASF162
 1665 0b14 00       		.byte	0
 1666 0b15 09       		.uleb128 0x9
 1667 0b16 26000000 		.4byte	.LASF163
 1668 0b1a 01       		.byte	0x1
 1669 0b1b 09       		.uleb128 0x9
 1670 0b1c 8A000000 		.4byte	.LASF164
 1671 0b20 02       		.byte	0x2
 1672 0b21 00       		.byte	0
 1673 0b22 06       		.uleb128 0x6
 1674 0b23 AF000000 		.4byte	.LASF165
 1675 0b27 0D       		.byte	0xd
 1676 0b28 A402     		.2byte	0x2a4
 1677 0b2a F80A0000 		.4byte	0xaf8
 1678 0b2e 28       		.uleb128 0x28
 1679 0b2f F3030000 		.4byte	.LASF169
 1680 0b33 01       		.byte	0x1
 1681 0b34 28       		.byte	0x28
 1682 0b35 DC000000 		.4byte	.LFB68
 1683 0b39 40000000 		.4byte	.LFE68-.LFB68
 1684 0b3d 01       		.uleb128 0x1
 1685 0b3e 9C       		.byte	0x9c
 1686 0b3f 520B0000 		.4byte	0xb52
 1687 0b43 29       		.uleb128 0x29
 1688 0b44 63040000 		.4byte	.LASF168
 1689 0b48 01       		.byte	0x1
 1690 0b49 2A       		.byte	0x2a
 1691 0b4a 50020000 		.4byte	0x250
 1692 0b4e 02       		.uleb128 0x2
 1693 0b4f 91       		.byte	0x91
 1694 0b50 68       		.sleb128 -24
 1695 0b51 00       		.byte	0
 1696 0b52 2A       		.uleb128 0x2a
 1697 0b53 5D050000 		.4byte	.LASF174
 1698 0b57 01       		.byte	0x1
 1699 0b58 22       		.byte	0x22
 1700 0b59 A2000000 		.4byte	0xa2
 1701 0b5d B4000000 		.4byte	.LFB67
 1702 0b61 28000000 		.4byte	.LFE67-.LFB67
 1703 0b65 01       		.uleb128 0x1
 1704 0b66 9C       		.byte	0x9c
 1705 0b67 2B       		.uleb128 0x2b
 1706 0b68 5A040000 		.4byte	.LASF166
 1707 0b6c 01       		.byte	0x1
 1708 0b6d 19       		.byte	0x19
 1709 0b6e A2000000 		.4byte	0xa2
ARM GAS  /tmp/cc7mxXpk.s 			page 32


 1710 0b72 7E000000 		.4byte	.LFB66
 1711 0b76 36000000 		.4byte	.LFE66-.LFB66
 1712 0b7a 01       		.uleb128 0x1
 1713 0b7b 9C       		.byte	0x9c
 1714 0b7c 8E0B0000 		.4byte	0xb8e
 1715 0b80 2C       		.uleb128 0x2c
 1716 0b81 636800   		.ascii	"ch\000"
 1717 0b84 01       		.byte	0x1
 1718 0b85 19       		.byte	0x19
 1719 0b86 A2000000 		.4byte	0xa2
 1720 0b8a 02       		.uleb128 0x2
 1721 0b8b 91       		.byte	0x91
 1722 0b8c 77       		.sleb128 -9
 1723 0b8d 00       		.byte	0
 1724 0b8e 2B       		.uleb128 0x2b
 1725 0b8f 65030000 		.4byte	.LASF94
 1726 0b93 01       		.byte	0x1
 1727 0b94 0F       		.byte	0xf
 1728 0b95 94000000 		.4byte	0x94
 1729 0b99 46000000 		.4byte	.LFB65
 1730 0b9d 38000000 		.4byte	.LFE65-.LFB65
 1731 0ba1 01       		.uleb128 0x1
 1732 0ba2 9C       		.byte	0x9c
 1733 0ba3 DE0B0000 		.4byte	0xbde
 1734 0ba7 2D       		.uleb128 0x2d
 1735 0ba8 AF040000 		.4byte	.LASF167
 1736 0bac 01       		.byte	0x1
 1737 0bad 0F       		.byte	0xf
 1738 0bae 94000000 		.4byte	0x94
 1739 0bb2 02       		.uleb128 0x2
 1740 0bb3 91       		.byte	0x91
 1741 0bb4 6C       		.sleb128 -20
 1742 0bb5 2C       		.uleb128 0x2c
 1743 0bb6 70747200 		.ascii	"ptr\000"
 1744 0bba 01       		.byte	0x1
 1745 0bbb 0F       		.byte	0xf
 1746 0bbc C2070000 		.4byte	0x7c2
 1747 0bc0 02       		.uleb128 0x2
 1748 0bc1 91       		.byte	0x91
 1749 0bc2 68       		.sleb128 -24
 1750 0bc3 2C       		.uleb128 0x2c
 1751 0bc4 6C656E00 		.ascii	"len\000"
 1752 0bc8 01       		.byte	0x1
 1753 0bc9 0F       		.byte	0xf
 1754 0bca 94000000 		.4byte	0x94
 1755 0bce 02       		.uleb128 0x2
 1756 0bcf 91       		.byte	0x91
 1757 0bd0 64       		.sleb128 -28
 1758 0bd1 2E       		.uleb128 0x2e
 1759 0bd2 6E00     		.ascii	"n\000"
 1760 0bd4 01       		.byte	0x1
 1761 0bd5 11       		.byte	0x11
 1762 0bd6 94000000 		.4byte	0x94
 1763 0bda 02       		.uleb128 0x2
 1764 0bdb 91       		.byte	0x91
 1765 0bdc 74       		.sleb128 -12
 1766 0bdd 00       		.byte	0
ARM GAS  /tmp/cc7mxXpk.s 			page 33


 1767 0bde 2F       		.uleb128 0x2f
 1768 0bdf 89020000 		.4byte	.LASF93
 1769 0be3 01       		.byte	0x1
 1770 0be4 03       		.byte	0x3
 1771 0be5 94000000 		.4byte	0x94
 1772 0be9 00000000 		.4byte	.LFB64
 1773 0bed 46000000 		.4byte	.LFE64-.LFB64
 1774 0bf1 01       		.uleb128 0x1
 1775 0bf2 9C       		.byte	0x9c
 1776 0bf3 2D       		.uleb128 0x2d
 1777 0bf4 AF040000 		.4byte	.LASF167
 1778 0bf8 01       		.byte	0x1
 1779 0bf9 03       		.byte	0x3
 1780 0bfa 94000000 		.4byte	0x94
 1781 0bfe 02       		.uleb128 0x2
 1782 0bff 91       		.byte	0x91
 1783 0c00 64       		.sleb128 -28
 1784 0c01 2C       		.uleb128 0x2c
 1785 0c02 70747200 		.ascii	"ptr\000"
 1786 0c06 01       		.byte	0x1
 1787 0c07 03       		.byte	0x3
 1788 0c08 C2070000 		.4byte	0x7c2
 1789 0c0c 02       		.uleb128 0x2
 1790 0c0d 91       		.byte	0x91
 1791 0c0e 60       		.sleb128 -32
 1792 0c0f 2C       		.uleb128 0x2c
 1793 0c10 6C656E00 		.ascii	"len\000"
 1794 0c14 01       		.byte	0x1
 1795 0c15 03       		.byte	0x3
 1796 0c16 94000000 		.4byte	0x94
 1797 0c1a 02       		.uleb128 0x2
 1798 0c1b 91       		.byte	0x91
 1799 0c1c 5C       		.sleb128 -36
 1800 0c1d 2E       		.uleb128 0x2e
 1801 0c1e 6E00     		.ascii	"n\000"
 1802 0c20 01       		.byte	0x1
 1803 0c21 05       		.byte	0x5
 1804 0c22 94000000 		.4byte	0x94
 1805 0c26 02       		.uleb128 0x2
 1806 0c27 91       		.byte	0x91
 1807 0c28 74       		.sleb128 -12
 1808 0c29 2E       		.uleb128 0x2e
 1809 0c2a 6E756D00 		.ascii	"num\000"
 1810 0c2e 01       		.byte	0x1
 1811 0c2f 06       		.byte	0x6
 1812 0c30 94000000 		.4byte	0x94
 1813 0c34 02       		.uleb128 0x2
 1814 0c35 91       		.byte	0x91
 1815 0c36 70       		.sleb128 -16
 1816 0c37 30       		.uleb128 0x30
 1817 0c38 16000000 		.4byte	.LBB2
 1818 0c3c 18000000 		.4byte	.LBE2-.LBB2
 1819 0c40 2E       		.uleb128 0x2e
 1820 0c41 6300     		.ascii	"c\000"
 1821 0c43 01       		.byte	0x1
 1822 0c44 08       		.byte	0x8
 1823 0c45 C8070000 		.4byte	0x7c8
ARM GAS  /tmp/cc7mxXpk.s 			page 34


 1824 0c49 02       		.uleb128 0x2
 1825 0c4a 91       		.byte	0x91
 1826 0c4b 6F       		.sleb128 -17
 1827 0c4c 00       		.byte	0
 1828 0c4d 00       		.byte	0
 1829 0c4e 00       		.byte	0
 1830              		.section	.debug_abbrev,"",%progbits
 1831              	.Ldebug_abbrev0:
 1832 0000 01       		.uleb128 0x1
 1833 0001 11       		.uleb128 0x11
 1834 0002 01       		.byte	0x1
 1835 0003 25       		.uleb128 0x25
 1836 0004 0E       		.uleb128 0xe
 1837 0005 13       		.uleb128 0x13
 1838 0006 0B       		.uleb128 0xb
 1839 0007 03       		.uleb128 0x3
 1840 0008 0E       		.uleb128 0xe
 1841 0009 1B       		.uleb128 0x1b
 1842 000a 0E       		.uleb128 0xe
 1843 000b 11       		.uleb128 0x11
 1844 000c 01       		.uleb128 0x1
 1845 000d 12       		.uleb128 0x12
 1846 000e 06       		.uleb128 0x6
 1847 000f 10       		.uleb128 0x10
 1848 0010 17       		.uleb128 0x17
 1849 0011 00       		.byte	0
 1850 0012 00       		.byte	0
 1851 0013 02       		.uleb128 0x2
 1852 0014 24       		.uleb128 0x24
 1853 0015 00       		.byte	0
 1854 0016 0B       		.uleb128 0xb
 1855 0017 0B       		.uleb128 0xb
 1856 0018 3E       		.uleb128 0x3e
 1857 0019 0B       		.uleb128 0xb
 1858 001a 03       		.uleb128 0x3
 1859 001b 0E       		.uleb128 0xe
 1860 001c 00       		.byte	0
 1861 001d 00       		.byte	0
 1862 001e 03       		.uleb128 0x3
 1863 001f 16       		.uleb128 0x16
 1864 0020 00       		.byte	0
 1865 0021 03       		.uleb128 0x3
 1866 0022 0E       		.uleb128 0xe
 1867 0023 3A       		.uleb128 0x3a
 1868 0024 0B       		.uleb128 0xb
 1869 0025 3B       		.uleb128 0x3b
 1870 0026 0B       		.uleb128 0xb
 1871 0027 49       		.uleb128 0x49
 1872 0028 13       		.uleb128 0x13
 1873 0029 00       		.byte	0
 1874 002a 00       		.byte	0
 1875 002b 04       		.uleb128 0x4
 1876 002c 24       		.uleb128 0x24
 1877 002d 00       		.byte	0
 1878 002e 0B       		.uleb128 0xb
 1879 002f 0B       		.uleb128 0xb
 1880 0030 3E       		.uleb128 0x3e
ARM GAS  /tmp/cc7mxXpk.s 			page 35


 1881 0031 0B       		.uleb128 0xb
 1882 0032 03       		.uleb128 0x3
 1883 0033 08       		.uleb128 0x8
 1884 0034 00       		.byte	0
 1885 0035 00       		.byte	0
 1886 0036 05       		.uleb128 0x5
 1887 0037 35       		.uleb128 0x35
 1888 0038 00       		.byte	0
 1889 0039 49       		.uleb128 0x49
 1890 003a 13       		.uleb128 0x13
 1891 003b 00       		.byte	0
 1892 003c 00       		.byte	0
 1893 003d 06       		.uleb128 0x6
 1894 003e 34       		.uleb128 0x34
 1895 003f 00       		.byte	0
 1896 0040 03       		.uleb128 0x3
 1897 0041 0E       		.uleb128 0xe
 1898 0042 3A       		.uleb128 0x3a
 1899 0043 0B       		.uleb128 0xb
 1900 0044 3B       		.uleb128 0x3b
 1901 0045 05       		.uleb128 0x5
 1902 0046 49       		.uleb128 0x49
 1903 0047 13       		.uleb128 0x13
 1904 0048 3F       		.uleb128 0x3f
 1905 0049 19       		.uleb128 0x19
 1906 004a 3C       		.uleb128 0x3c
 1907 004b 19       		.uleb128 0x19
 1908 004c 00       		.byte	0
 1909 004d 00       		.byte	0
 1910 004e 07       		.uleb128 0x7
 1911 004f 34       		.uleb128 0x34
 1912 0050 00       		.byte	0
 1913 0051 03       		.uleb128 0x3
 1914 0052 0E       		.uleb128 0xe
 1915 0053 3A       		.uleb128 0x3a
 1916 0054 0B       		.uleb128 0xb
 1917 0055 3B       		.uleb128 0x3b
 1918 0056 0B       		.uleb128 0xb
 1919 0057 49       		.uleb128 0x49
 1920 0058 13       		.uleb128 0x13
 1921 0059 3F       		.uleb128 0x3f
 1922 005a 19       		.uleb128 0x19
 1923 005b 3C       		.uleb128 0x3c
 1924 005c 19       		.uleb128 0x19
 1925 005d 00       		.byte	0
 1926 005e 00       		.byte	0
 1927 005f 08       		.uleb128 0x8
 1928 0060 04       		.uleb128 0x4
 1929 0061 01       		.byte	0x1
 1930 0062 0B       		.uleb128 0xb
 1931 0063 0B       		.uleb128 0xb
 1932 0064 49       		.uleb128 0x49
 1933 0065 13       		.uleb128 0x13
 1934 0066 3A       		.uleb128 0x3a
 1935 0067 0B       		.uleb128 0xb
 1936 0068 3B       		.uleb128 0x3b
 1937 0069 05       		.uleb128 0x5
ARM GAS  /tmp/cc7mxXpk.s 			page 36


 1938 006a 01       		.uleb128 0x1
 1939 006b 13       		.uleb128 0x13
 1940 006c 00       		.byte	0
 1941 006d 00       		.byte	0
 1942 006e 09       		.uleb128 0x9
 1943 006f 28       		.uleb128 0x28
 1944 0070 00       		.byte	0
 1945 0071 03       		.uleb128 0x3
 1946 0072 0E       		.uleb128 0xe
 1947 0073 1C       		.uleb128 0x1c
 1948 0074 0B       		.uleb128 0xb
 1949 0075 00       		.byte	0
 1950 0076 00       		.byte	0
 1951 0077 0A       		.uleb128 0xa
 1952 0078 28       		.uleb128 0x28
 1953 0079 00       		.byte	0
 1954 007a 03       		.uleb128 0x3
 1955 007b 08       		.uleb128 0x8
 1956 007c 1C       		.uleb128 0x1c
 1957 007d 0B       		.uleb128 0xb
 1958 007e 00       		.byte	0
 1959 007f 00       		.byte	0
 1960 0080 0B       		.uleb128 0xb
 1961 0081 13       		.uleb128 0x13
 1962 0082 01       		.byte	0x1
 1963 0083 0B       		.uleb128 0xb
 1964 0084 0B       		.uleb128 0xb
 1965 0085 3A       		.uleb128 0x3a
 1966 0086 0B       		.uleb128 0xb
 1967 0087 3B       		.uleb128 0x3b
 1968 0088 05       		.uleb128 0x5
 1969 0089 01       		.uleb128 0x1
 1970 008a 13       		.uleb128 0x13
 1971 008b 00       		.byte	0
 1972 008c 00       		.byte	0
 1973 008d 0C       		.uleb128 0xc
 1974 008e 0D       		.uleb128 0xd
 1975 008f 00       		.byte	0
 1976 0090 03       		.uleb128 0x3
 1977 0091 08       		.uleb128 0x8
 1978 0092 3A       		.uleb128 0x3a
 1979 0093 0B       		.uleb128 0xb
 1980 0094 3B       		.uleb128 0x3b
 1981 0095 05       		.uleb128 0x5
 1982 0096 49       		.uleb128 0x49
 1983 0097 13       		.uleb128 0x13
 1984 0098 38       		.uleb128 0x38
 1985 0099 0B       		.uleb128 0xb
 1986 009a 00       		.byte	0
 1987 009b 00       		.byte	0
 1988 009c 0D       		.uleb128 0xd
 1989 009d 0D       		.uleb128 0xd
 1990 009e 00       		.byte	0
 1991 009f 03       		.uleb128 0x3
 1992 00a0 0E       		.uleb128 0xe
 1993 00a1 3A       		.uleb128 0x3a
 1994 00a2 0B       		.uleb128 0xb
ARM GAS  /tmp/cc7mxXpk.s 			page 37


 1995 00a3 3B       		.uleb128 0x3b
 1996 00a4 05       		.uleb128 0x5
 1997 00a5 49       		.uleb128 0x49
 1998 00a6 13       		.uleb128 0x13
 1999 00a7 38       		.uleb128 0x38
 2000 00a8 0B       		.uleb128 0xb
 2001 00a9 00       		.byte	0
 2002 00aa 00       		.byte	0
 2003 00ab 0E       		.uleb128 0xe
 2004 00ac 16       		.uleb128 0x16
 2005 00ad 00       		.byte	0
 2006 00ae 03       		.uleb128 0x3
 2007 00af 0E       		.uleb128 0xe
 2008 00b0 3A       		.uleb128 0x3a
 2009 00b1 0B       		.uleb128 0xb
 2010 00b2 3B       		.uleb128 0x3b
 2011 00b3 05       		.uleb128 0x5
 2012 00b4 49       		.uleb128 0x49
 2013 00b5 13       		.uleb128 0x13
 2014 00b6 00       		.byte	0
 2015 00b7 00       		.byte	0
 2016 00b8 0F       		.uleb128 0xf
 2017 00b9 13       		.uleb128 0x13
 2018 00ba 01       		.byte	0x1
 2019 00bb 0B       		.uleb128 0xb
 2020 00bc 0B       		.uleb128 0xb
 2021 00bd 3A       		.uleb128 0x3a
 2022 00be 0B       		.uleb128 0xb
 2023 00bf 3B       		.uleb128 0x3b
 2024 00c0 0B       		.uleb128 0xb
 2025 00c1 01       		.uleb128 0x1
 2026 00c2 13       		.uleb128 0x13
 2027 00c3 00       		.byte	0
 2028 00c4 00       		.byte	0
 2029 00c5 10       		.uleb128 0x10
 2030 00c6 0D       		.uleb128 0xd
 2031 00c7 00       		.byte	0
 2032 00c8 03       		.uleb128 0x3
 2033 00c9 0E       		.uleb128 0xe
 2034 00ca 3A       		.uleb128 0x3a
 2035 00cb 0B       		.uleb128 0xb
 2036 00cc 3B       		.uleb128 0x3b
 2037 00cd 0B       		.uleb128 0xb
 2038 00ce 49       		.uleb128 0x49
 2039 00cf 13       		.uleb128 0x13
 2040 00d0 38       		.uleb128 0x38
 2041 00d1 0B       		.uleb128 0xb
 2042 00d2 00       		.byte	0
 2043 00d3 00       		.byte	0
 2044 00d4 11       		.uleb128 0x11
 2045 00d5 15       		.uleb128 0x15
 2046 00d6 00       		.byte	0
 2047 00d7 27       		.uleb128 0x27
 2048 00d8 19       		.uleb128 0x19
 2049 00d9 00       		.byte	0
 2050 00da 00       		.byte	0
 2051 00db 12       		.uleb128 0x12
ARM GAS  /tmp/cc7mxXpk.s 			page 38


 2052 00dc 0F       		.uleb128 0xf
 2053 00dd 00       		.byte	0
 2054 00de 0B       		.uleb128 0xb
 2055 00df 0B       		.uleb128 0xb
 2056 00e0 49       		.uleb128 0x49
 2057 00e1 13       		.uleb128 0x13
 2058 00e2 00       		.byte	0
 2059 00e3 00       		.byte	0
 2060 00e4 13       		.uleb128 0x13
 2061 00e5 01       		.uleb128 0x1
 2062 00e6 01       		.byte	0x1
 2063 00e7 49       		.uleb128 0x49
 2064 00e8 13       		.uleb128 0x13
 2065 00e9 01       		.uleb128 0x1
 2066 00ea 13       		.uleb128 0x13
 2067 00eb 00       		.byte	0
 2068 00ec 00       		.byte	0
 2069 00ed 14       		.uleb128 0x14
 2070 00ee 21       		.uleb128 0x21
 2071 00ef 00       		.byte	0
 2072 00f0 49       		.uleb128 0x49
 2073 00f1 13       		.uleb128 0x13
 2074 00f2 2F       		.uleb128 0x2f
 2075 00f3 0B       		.uleb128 0xb
 2076 00f4 00       		.byte	0
 2077 00f5 00       		.byte	0
 2078 00f6 15       		.uleb128 0x15
 2079 00f7 34       		.uleb128 0x34
 2080 00f8 00       		.byte	0
 2081 00f9 03       		.uleb128 0x3
 2082 00fa 08       		.uleb128 0x8
 2083 00fb 3A       		.uleb128 0x3a
 2084 00fc 0B       		.uleb128 0xb
 2085 00fd 3B       		.uleb128 0x3b
 2086 00fe 05       		.uleb128 0x5
 2087 00ff 49       		.uleb128 0x49
 2088 0100 13       		.uleb128 0x13
 2089 0101 3F       		.uleb128 0x3f
 2090 0102 19       		.uleb128 0x19
 2091 0103 3C       		.uleb128 0x3c
 2092 0104 19       		.uleb128 0x19
 2093 0105 00       		.byte	0
 2094 0106 00       		.byte	0
 2095 0107 16       		.uleb128 0x16
 2096 0108 0F       		.uleb128 0xf
 2097 0109 00       		.byte	0
 2098 010a 0B       		.uleb128 0xb
 2099 010b 0B       		.uleb128 0xb
 2100 010c 00       		.byte	0
 2101 010d 00       		.byte	0
 2102 010e 17       		.uleb128 0x17
 2103 010f 17       		.uleb128 0x17
 2104 0110 01       		.byte	0x1
 2105 0111 0B       		.uleb128 0xb
 2106 0112 0B       		.uleb128 0xb
 2107 0113 3A       		.uleb128 0x3a
 2108 0114 0B       		.uleb128 0xb
ARM GAS  /tmp/cc7mxXpk.s 			page 39


 2109 0115 3B       		.uleb128 0x3b
 2110 0116 0B       		.uleb128 0xb
 2111 0117 01       		.uleb128 0x1
 2112 0118 13       		.uleb128 0x13
 2113 0119 00       		.byte	0
 2114 011a 00       		.byte	0
 2115 011b 18       		.uleb128 0x18
 2116 011c 0D       		.uleb128 0xd
 2117 011d 00       		.byte	0
 2118 011e 03       		.uleb128 0x3
 2119 011f 0E       		.uleb128 0xe
 2120 0120 3A       		.uleb128 0x3a
 2121 0121 0B       		.uleb128 0xb
 2122 0122 3B       		.uleb128 0x3b
 2123 0123 0B       		.uleb128 0xb
 2124 0124 49       		.uleb128 0x49
 2125 0125 13       		.uleb128 0x13
 2126 0126 00       		.byte	0
 2127 0127 00       		.byte	0
 2128 0128 19       		.uleb128 0x19
 2129 0129 13       		.uleb128 0x13
 2130 012a 01       		.byte	0x1
 2131 012b 03       		.uleb128 0x3
 2132 012c 0E       		.uleb128 0xe
 2133 012d 0B       		.uleb128 0xb
 2134 012e 0B       		.uleb128 0xb
 2135 012f 3A       		.uleb128 0x3a
 2136 0130 0B       		.uleb128 0xb
 2137 0131 3B       		.uleb128 0x3b
 2138 0132 0B       		.uleb128 0xb
 2139 0133 01       		.uleb128 0x1
 2140 0134 13       		.uleb128 0x13
 2141 0135 00       		.byte	0
 2142 0136 00       		.byte	0
 2143 0137 1A       		.uleb128 0x1a
 2144 0138 0D       		.uleb128 0xd
 2145 0139 00       		.byte	0
 2146 013a 03       		.uleb128 0x3
 2147 013b 08       		.uleb128 0x8
 2148 013c 3A       		.uleb128 0x3a
 2149 013d 0B       		.uleb128 0xb
 2150 013e 3B       		.uleb128 0x3b
 2151 013f 0B       		.uleb128 0xb
 2152 0140 49       		.uleb128 0x49
 2153 0141 13       		.uleb128 0x13
 2154 0142 38       		.uleb128 0x38
 2155 0143 0B       		.uleb128 0xb
 2156 0144 00       		.byte	0
 2157 0145 00       		.byte	0
 2158 0146 1B       		.uleb128 0x1b
 2159 0147 13       		.uleb128 0x13
 2160 0148 01       		.byte	0x1
 2161 0149 03       		.uleb128 0x3
 2162 014a 0E       		.uleb128 0xe
 2163 014b 0B       		.uleb128 0xb
 2164 014c 05       		.uleb128 0x5
 2165 014d 3A       		.uleb128 0x3a
ARM GAS  /tmp/cc7mxXpk.s 			page 40


 2166 014e 0B       		.uleb128 0xb
 2167 014f 3B       		.uleb128 0x3b
 2168 0150 0B       		.uleb128 0xb
 2169 0151 01       		.uleb128 0x1
 2170 0152 13       		.uleb128 0x13
 2171 0153 00       		.byte	0
 2172 0154 00       		.byte	0
 2173 0155 1C       		.uleb128 0x1c
 2174 0156 0D       		.uleb128 0xd
 2175 0157 00       		.byte	0
 2176 0158 03       		.uleb128 0x3
 2177 0159 0E       		.uleb128 0xe
 2178 015a 3A       		.uleb128 0x3a
 2179 015b 0B       		.uleb128 0xb
 2180 015c 3B       		.uleb128 0x3b
 2181 015d 0B       		.uleb128 0xb
 2182 015e 49       		.uleb128 0x49
 2183 015f 13       		.uleb128 0x13
 2184 0160 38       		.uleb128 0x38
 2185 0161 05       		.uleb128 0x5
 2186 0162 00       		.byte	0
 2187 0163 00       		.byte	0
 2188 0164 1D       		.uleb128 0x1d
 2189 0165 15       		.uleb128 0x15
 2190 0166 01       		.byte	0x1
 2191 0167 27       		.uleb128 0x27
 2192 0168 19       		.uleb128 0x19
 2193 0169 49       		.uleb128 0x49
 2194 016a 13       		.uleb128 0x13
 2195 016b 01       		.uleb128 0x1
 2196 016c 13       		.uleb128 0x13
 2197 016d 00       		.byte	0
 2198 016e 00       		.byte	0
 2199 016f 1E       		.uleb128 0x1e
 2200 0170 05       		.uleb128 0x5
 2201 0171 00       		.byte	0
 2202 0172 49       		.uleb128 0x49
 2203 0173 13       		.uleb128 0x13
 2204 0174 00       		.byte	0
 2205 0175 00       		.byte	0
 2206 0176 1F       		.uleb128 0x1f
 2207 0177 26       		.uleb128 0x26
 2208 0178 00       		.byte	0
 2209 0179 49       		.uleb128 0x49
 2210 017a 13       		.uleb128 0x13
 2211 017b 00       		.byte	0
 2212 017c 00       		.byte	0
 2213 017d 20       		.uleb128 0x20
 2214 017e 13       		.uleb128 0x13
 2215 017f 01       		.byte	0x1
 2216 0180 03       		.uleb128 0x3
 2217 0181 0E       		.uleb128 0xe
 2218 0182 0B       		.uleb128 0xb
 2219 0183 05       		.uleb128 0x5
 2220 0184 3A       		.uleb128 0x3a
 2221 0185 0B       		.uleb128 0xb
 2222 0186 3B       		.uleb128 0x3b
ARM GAS  /tmp/cc7mxXpk.s 			page 41


 2223 0187 05       		.uleb128 0x5
 2224 0188 01       		.uleb128 0x1
 2225 0189 13       		.uleb128 0x13
 2226 018a 00       		.byte	0
 2227 018b 00       		.byte	0
 2228 018c 21       		.uleb128 0x21
 2229 018d 0D       		.uleb128 0xd
 2230 018e 00       		.byte	0
 2231 018f 03       		.uleb128 0x3
 2232 0190 0E       		.uleb128 0xe
 2233 0191 3A       		.uleb128 0x3a
 2234 0192 0B       		.uleb128 0xb
 2235 0193 3B       		.uleb128 0x3b
 2236 0194 05       		.uleb128 0x5
 2237 0195 49       		.uleb128 0x49
 2238 0196 13       		.uleb128 0x13
 2239 0197 38       		.uleb128 0x38
 2240 0198 05       		.uleb128 0x5
 2241 0199 00       		.byte	0
 2242 019a 00       		.byte	0
 2243 019b 22       		.uleb128 0x22
 2244 019c 13       		.uleb128 0x13
 2245 019d 01       		.byte	0x1
 2246 019e 03       		.uleb128 0x3
 2247 019f 0E       		.uleb128 0xe
 2248 01a0 0B       		.uleb128 0xb
 2249 01a1 0B       		.uleb128 0xb
 2250 01a2 3A       		.uleb128 0x3a
 2251 01a3 0B       		.uleb128 0xb
 2252 01a4 3B       		.uleb128 0x3b
 2253 01a5 05       		.uleb128 0x5
 2254 01a6 01       		.uleb128 0x1
 2255 01a7 13       		.uleb128 0x13
 2256 01a8 00       		.byte	0
 2257 01a9 00       		.byte	0
 2258 01aa 23       		.uleb128 0x23
 2259 01ab 17       		.uleb128 0x17
 2260 01ac 01       		.byte	0x1
 2261 01ad 0B       		.uleb128 0xb
 2262 01ae 0B       		.uleb128 0xb
 2263 01af 3A       		.uleb128 0x3a
 2264 01b0 0B       		.uleb128 0xb
 2265 01b1 3B       		.uleb128 0x3b
 2266 01b2 05       		.uleb128 0x5
 2267 01b3 01       		.uleb128 0x1
 2268 01b4 13       		.uleb128 0x13
 2269 01b5 00       		.byte	0
 2270 01b6 00       		.byte	0
 2271 01b7 24       		.uleb128 0x24
 2272 01b8 0D       		.uleb128 0xd
 2273 01b9 00       		.byte	0
 2274 01ba 03       		.uleb128 0x3
 2275 01bb 0E       		.uleb128 0xe
 2276 01bc 3A       		.uleb128 0x3a
 2277 01bd 0B       		.uleb128 0xb
 2278 01be 3B       		.uleb128 0x3b
 2279 01bf 05       		.uleb128 0x5
ARM GAS  /tmp/cc7mxXpk.s 			page 42


 2280 01c0 49       		.uleb128 0x49
 2281 01c1 13       		.uleb128 0x13
 2282 01c2 00       		.byte	0
 2283 01c3 00       		.byte	0
 2284 01c4 25       		.uleb128 0x25
 2285 01c5 15       		.uleb128 0x15
 2286 01c6 01       		.byte	0x1
 2287 01c7 27       		.uleb128 0x27
 2288 01c8 19       		.uleb128 0x19
 2289 01c9 01       		.uleb128 0x1
 2290 01ca 13       		.uleb128 0x13
 2291 01cb 00       		.byte	0
 2292 01cc 00       		.byte	0
 2293 01cd 26       		.uleb128 0x26
 2294 01ce 04       		.uleb128 0x4
 2295 01cf 01       		.byte	0x1
 2296 01d0 03       		.uleb128 0x3
 2297 01d1 0E       		.uleb128 0xe
 2298 01d2 0B       		.uleb128 0xb
 2299 01d3 0B       		.uleb128 0xb
 2300 01d4 49       		.uleb128 0x49
 2301 01d5 13       		.uleb128 0x13
 2302 01d6 3A       		.uleb128 0x3a
 2303 01d7 0B       		.uleb128 0xb
 2304 01d8 3B       		.uleb128 0x3b
 2305 01d9 05       		.uleb128 0x5
 2306 01da 01       		.uleb128 0x1
 2307 01db 13       		.uleb128 0x13
 2308 01dc 00       		.byte	0
 2309 01dd 00       		.byte	0
 2310 01de 27       		.uleb128 0x27
 2311 01df 28       		.uleb128 0x28
 2312 01e0 00       		.byte	0
 2313 01e1 03       		.uleb128 0x3
 2314 01e2 0E       		.uleb128 0xe
 2315 01e3 1C       		.uleb128 0x1c
 2316 01e4 0D       		.uleb128 0xd
 2317 01e5 00       		.byte	0
 2318 01e6 00       		.byte	0
 2319 01e7 28       		.uleb128 0x28
 2320 01e8 2E       		.uleb128 0x2e
 2321 01e9 01       		.byte	0x1
 2322 01ea 3F       		.uleb128 0x3f
 2323 01eb 19       		.uleb128 0x19
 2324 01ec 03       		.uleb128 0x3
 2325 01ed 0E       		.uleb128 0xe
 2326 01ee 3A       		.uleb128 0x3a
 2327 01ef 0B       		.uleb128 0xb
 2328 01f0 3B       		.uleb128 0x3b
 2329 01f1 0B       		.uleb128 0xb
 2330 01f2 27       		.uleb128 0x27
 2331 01f3 19       		.uleb128 0x19
 2332 01f4 11       		.uleb128 0x11
 2333 01f5 01       		.uleb128 0x1
 2334 01f6 12       		.uleb128 0x12
 2335 01f7 06       		.uleb128 0x6
 2336 01f8 40       		.uleb128 0x40
ARM GAS  /tmp/cc7mxXpk.s 			page 43


 2337 01f9 18       		.uleb128 0x18
 2338 01fa 9642     		.uleb128 0x2116
 2339 01fc 19       		.uleb128 0x19
 2340 01fd 01       		.uleb128 0x1
 2341 01fe 13       		.uleb128 0x13
 2342 01ff 00       		.byte	0
 2343 0200 00       		.byte	0
 2344 0201 29       		.uleb128 0x29
 2345 0202 34       		.uleb128 0x34
 2346 0203 00       		.byte	0
 2347 0204 03       		.uleb128 0x3
 2348 0205 0E       		.uleb128 0xe
 2349 0206 3A       		.uleb128 0x3a
 2350 0207 0B       		.uleb128 0xb
 2351 0208 3B       		.uleb128 0x3b
 2352 0209 0B       		.uleb128 0xb
 2353 020a 49       		.uleb128 0x49
 2354 020b 13       		.uleb128 0x13
 2355 020c 02       		.uleb128 0x2
 2356 020d 18       		.uleb128 0x18
 2357 020e 00       		.byte	0
 2358 020f 00       		.byte	0
 2359 0210 2A       		.uleb128 0x2a
 2360 0211 2E       		.uleb128 0x2e
 2361 0212 00       		.byte	0
 2362 0213 3F       		.uleb128 0x3f
 2363 0214 19       		.uleb128 0x19
 2364 0215 03       		.uleb128 0x3
 2365 0216 0E       		.uleb128 0xe
 2366 0217 3A       		.uleb128 0x3a
 2367 0218 0B       		.uleb128 0xb
 2368 0219 3B       		.uleb128 0x3b
 2369 021a 0B       		.uleb128 0xb
 2370 021b 27       		.uleb128 0x27
 2371 021c 19       		.uleb128 0x19
 2372 021d 49       		.uleb128 0x49
 2373 021e 13       		.uleb128 0x13
 2374 021f 11       		.uleb128 0x11
 2375 0220 01       		.uleb128 0x1
 2376 0221 12       		.uleb128 0x12
 2377 0222 06       		.uleb128 0x6
 2378 0223 40       		.uleb128 0x40
 2379 0224 18       		.uleb128 0x18
 2380 0225 9642     		.uleb128 0x2116
 2381 0227 19       		.uleb128 0x19
 2382 0228 00       		.byte	0
 2383 0229 00       		.byte	0
 2384 022a 2B       		.uleb128 0x2b
 2385 022b 2E       		.uleb128 0x2e
 2386 022c 01       		.byte	0x1
 2387 022d 3F       		.uleb128 0x3f
 2388 022e 19       		.uleb128 0x19
 2389 022f 03       		.uleb128 0x3
 2390 0230 0E       		.uleb128 0xe
 2391 0231 3A       		.uleb128 0x3a
 2392 0232 0B       		.uleb128 0xb
 2393 0233 3B       		.uleb128 0x3b
ARM GAS  /tmp/cc7mxXpk.s 			page 44


 2394 0234 0B       		.uleb128 0xb
 2395 0235 27       		.uleb128 0x27
 2396 0236 19       		.uleb128 0x19
 2397 0237 49       		.uleb128 0x49
 2398 0238 13       		.uleb128 0x13
 2399 0239 11       		.uleb128 0x11
 2400 023a 01       		.uleb128 0x1
 2401 023b 12       		.uleb128 0x12
 2402 023c 06       		.uleb128 0x6
 2403 023d 40       		.uleb128 0x40
 2404 023e 18       		.uleb128 0x18
 2405 023f 9642     		.uleb128 0x2116
 2406 0241 19       		.uleb128 0x19
 2407 0242 01       		.uleb128 0x1
 2408 0243 13       		.uleb128 0x13
 2409 0244 00       		.byte	0
 2410 0245 00       		.byte	0
 2411 0246 2C       		.uleb128 0x2c
 2412 0247 05       		.uleb128 0x5
 2413 0248 00       		.byte	0
 2414 0249 03       		.uleb128 0x3
 2415 024a 08       		.uleb128 0x8
 2416 024b 3A       		.uleb128 0x3a
 2417 024c 0B       		.uleb128 0xb
 2418 024d 3B       		.uleb128 0x3b
 2419 024e 0B       		.uleb128 0xb
 2420 024f 49       		.uleb128 0x49
 2421 0250 13       		.uleb128 0x13
 2422 0251 02       		.uleb128 0x2
 2423 0252 18       		.uleb128 0x18
 2424 0253 00       		.byte	0
 2425 0254 00       		.byte	0
 2426 0255 2D       		.uleb128 0x2d
 2427 0256 05       		.uleb128 0x5
 2428 0257 00       		.byte	0
 2429 0258 03       		.uleb128 0x3
 2430 0259 0E       		.uleb128 0xe
 2431 025a 3A       		.uleb128 0x3a
 2432 025b 0B       		.uleb128 0xb
 2433 025c 3B       		.uleb128 0x3b
 2434 025d 0B       		.uleb128 0xb
 2435 025e 49       		.uleb128 0x49
 2436 025f 13       		.uleb128 0x13
 2437 0260 02       		.uleb128 0x2
 2438 0261 18       		.uleb128 0x18
 2439 0262 00       		.byte	0
 2440 0263 00       		.byte	0
 2441 0264 2E       		.uleb128 0x2e
 2442 0265 34       		.uleb128 0x34
 2443 0266 00       		.byte	0
 2444 0267 03       		.uleb128 0x3
 2445 0268 08       		.uleb128 0x8
 2446 0269 3A       		.uleb128 0x3a
 2447 026a 0B       		.uleb128 0xb
 2448 026b 3B       		.uleb128 0x3b
 2449 026c 0B       		.uleb128 0xb
 2450 026d 49       		.uleb128 0x49
ARM GAS  /tmp/cc7mxXpk.s 			page 45


 2451 026e 13       		.uleb128 0x13
 2452 026f 02       		.uleb128 0x2
 2453 0270 18       		.uleb128 0x18
 2454 0271 00       		.byte	0
 2455 0272 00       		.byte	0
 2456 0273 2F       		.uleb128 0x2f
 2457 0274 2E       		.uleb128 0x2e
 2458 0275 01       		.byte	0x1
 2459 0276 3F       		.uleb128 0x3f
 2460 0277 19       		.uleb128 0x19
 2461 0278 03       		.uleb128 0x3
 2462 0279 0E       		.uleb128 0xe
 2463 027a 3A       		.uleb128 0x3a
 2464 027b 0B       		.uleb128 0xb
 2465 027c 3B       		.uleb128 0x3b
 2466 027d 0B       		.uleb128 0xb
 2467 027e 27       		.uleb128 0x27
 2468 027f 19       		.uleb128 0x19
 2469 0280 49       		.uleb128 0x49
 2470 0281 13       		.uleb128 0x13
 2471 0282 11       		.uleb128 0x11
 2472 0283 01       		.uleb128 0x1
 2473 0284 12       		.uleb128 0x12
 2474 0285 06       		.uleb128 0x6
 2475 0286 40       		.uleb128 0x40
 2476 0287 18       		.uleb128 0x18
 2477 0288 9642     		.uleb128 0x2116
 2478 028a 19       		.uleb128 0x19
 2479 028b 00       		.byte	0
 2480 028c 00       		.byte	0
 2481 028d 30       		.uleb128 0x30
 2482 028e 0B       		.uleb128 0xb
 2483 028f 01       		.byte	0x1
 2484 0290 11       		.uleb128 0x11
 2485 0291 01       		.uleb128 0x1
 2486 0292 12       		.uleb128 0x12
 2487 0293 06       		.uleb128 0x6
 2488 0294 00       		.byte	0
 2489 0295 00       		.byte	0
 2490 0296 00       		.byte	0
 2491              		.section	.debug_aranges,"",%progbits
 2492 0000 1C000000 		.4byte	0x1c
 2493 0004 0200     		.2byte	0x2
 2494 0006 00000000 		.4byte	.Ldebug_info0
 2495 000a 04       		.byte	0x4
 2496 000b 00       		.byte	0
 2497 000c 0000     		.2byte	0
 2498 000e 0000     		.2byte	0
 2499 0010 00000000 		.4byte	.Ltext0
 2500 0014 1C010000 		.4byte	.Letext0-.Ltext0
 2501 0018 00000000 		.4byte	0
 2502 001c 00000000 		.4byte	0
 2503              		.section	.debug_line,"",%progbits
 2504              	.Ldebug_line0:
 2505 0000 0A020000 		.section	.debug_str,"MS",%progbits,1
 2505      0200A201 
 2505      00000201 
ARM GAS  /tmp/cc7mxXpk.s 			page 46


 2505      FB0E0D00 
 2505      01010101 
 2506              	.LASF79:
 2507 0000 5F64736F 		.ascii	"_dso_handle\000"
 2507      5F68616E 
 2507      646C6500 
 2508              	.LASF4:
 2509 000c 73686F72 		.ascii	"short int\000"
 2509      7420696E 
 2509      7400
 2510              	.LASF78:
 2511 0016 5F666E61 		.ascii	"_fnargs\000"
 2511      72677300 
 2512              	.LASF132:
 2513 001e 5F72616E 		.ascii	"_rand48\000"
 2513      64343800 
 2514              	.LASF163:
 2515 0026 5F5F6664 		.ascii	"__fdlibm_xopen\000"
 2515      6C69626D 
 2515      5F786F70 
 2515      656E00
 2516              	.LASF111:
 2517 0035 5F656D65 		.ascii	"_emergency\000"
 2517      7267656E 
 2517      637900
 2518              	.LASF2:
 2519 0040 5F5F7569 		.ascii	"__uint8_t\000"
 2519      6E74385F 
 2519      7400
 2520              	.LASF123:
 2521 004a 5F617465 		.ascii	"_atexit0\000"
 2521      78697430 
 2521      00
 2522              	.LASF152:
 2523 0053 5F776372 		.ascii	"_wcrtomb_state\000"
 2523      746F6D62 
 2523      5F737461 
 2523      746500
 2524              	.LASF153:
 2525 0062 5F776373 		.ascii	"_wcsrtombs_state\000"
 2525      72746F6D 
 2525      62735F73 
 2525      74617465 
 2525      00
 2526              	.LASF12:
 2527 0073 6C6F6E67 		.ascii	"long long unsigned int\000"
 2527      206C6F6E 
 2527      6720756E 
 2527      7369676E 
 2527      65642069 
 2528              	.LASF164:
 2529 008a 5F5F6664 		.ascii	"__fdlibm_posix\000"
 2529      6C69626D 
 2529      5F706F73 
 2529      697800
 2530              	.LASF91:
 2531 0099 5F6C6266 		.ascii	"_lbfsize\000"
ARM GAS  /tmp/cc7mxXpk.s 			page 47


 2531      73697A65 
 2531      00
 2532              	.LASF20:
 2533 00a2 49544D5F 		.ascii	"ITM_RxBuffer\000"
 2533      52784275 
 2533      66666572 
 2533      00
 2534              	.LASF165:
 2535 00af 5F5F6664 		.ascii	"__fdlib_version\000"
 2535      6C69625F 
 2535      76657273 
 2535      696F6E00 
 2536              	.LASF41:
 2537 00bf 6779726F 		.ascii	"gyro\000"
 2537      00
 2538              	.LASF150:
 2539 00c4 5F6D6272 		.ascii	"_mbrtowc_state\000"
 2539      746F7763 
 2539      5F737461 
 2539      746500
 2540              	.LASF145:
 2541 00d3 5F776374 		.ascii	"_wctomb_state\000"
 2541      6F6D625F 
 2541      73746174 
 2541      6500
 2542              	.LASF68:
 2543 00e1 5F5F746D 		.ascii	"__tm_sec\000"
 2543      5F736563 
 2543      00
 2544              	.LASF15:
 2545 00ea 696E7431 		.ascii	"int16_t\000"
 2545      365F7400 
 2546              	.LASF52:
 2547 00f2 5F6F6666 		.ascii	"_off_t\000"
 2547      5F7400
 2548              	.LASF96:
 2549 00f9 5F636C6F 		.ascii	"_close\000"
 2549      736500
 2550              	.LASF0:
 2551 0100 7369676E 		.ascii	"signed char\000"
 2551      65642063 
 2551      68617200 
 2552              	.LASF37:
 2553 010c 55534152 		.ascii	"USART_Parity\000"
 2553      545F5061 
 2553      72697479 
 2553      00
 2554              	.LASF31:
 2555 0119 47545052 		.ascii	"GTPR\000"
 2555      00
 2556              	.LASF97:
 2557 011e 5F756275 		.ascii	"_ubuf\000"
 2557      6600
 2558              	.LASF43:
 2559 0124 47785F6F 		.ascii	"Gx_offset\000"
 2559      66667365 
 2559      7400
ARM GAS  /tmp/cc7mxXpk.s 			page 48


 2560              	.LASF86:
 2561 012e 5F626173 		.ascii	"_base\000"
 2561      6500
 2562              	.LASF70:
 2563 0134 5F5F746D 		.ascii	"__tm_hour\000"
 2563      5F686F75 
 2563      7200
 2564              	.LASF126:
 2565 013e 5F5F7366 		.ascii	"__sf\000"
 2565      00
 2566              	.LASF77:
 2567 0143 5F6F6E5F 		.ascii	"_on_exit_args\000"
 2567      65786974 
 2567      5F617267 
 2567      7300
 2568              	.LASF38:
 2569 0151 55534152 		.ascii	"USART_Mode\000"
 2569      545F4D6F 
 2569      646500
 2570              	.LASF92:
 2571 015c 5F636F6F 		.ascii	"_cookie\000"
 2571      6B696500 
 2572              	.LASF34:
 2573 0164 55534152 		.ascii	"USART_BaudRate\000"
 2573      545F4261 
 2573      75645261 
 2573      746500
 2574              	.LASF125:
 2575 0173 5F5F7367 		.ascii	"__sglue\000"
 2575      6C756500 
 2576              	.LASF8:
 2577 017b 6C6F6E67 		.ascii	"long int\000"
 2577      20696E74 
 2577      00
 2578              	.LASF172:
 2579 0184 2F686F6D 		.ascii	"/home/enbin/Documents/code/STM/stm32-quadrocopter\000"
 2579      652F656E 
 2579      62696E2F 
 2579      446F6375 
 2579      6D656E74 
 2580              	.LASF81:
 2581 01b6 5F69735F 		.ascii	"_is_cxa\000"
 2581      63786100 
 2582              	.LASF107:
 2583 01be 5F737464 		.ascii	"_stdin\000"
 2583      696E00
 2584              	.LASF162:
 2585 01c5 5F5F6664 		.ascii	"__fdlibm_svid\000"
 2585      6C69626D 
 2585      5F737669 
 2585      6400
 2586              	.LASF117:
 2587 01d3 5F726573 		.ascii	"_result_k\000"
 2587      756C745F 
 2587      6B00
 2588              	.LASF24:
 2589 01dd 454E4142 		.ascii	"ENABLE\000"
ARM GAS  /tmp/cc7mxXpk.s 			page 49


 2589      4C4500
 2590              	.LASF11:
 2591 01e4 6C6F6E67 		.ascii	"long long int\000"
 2591      206C6F6E 
 2591      6720696E 
 2591      7400
 2592              	.LASF160:
 2593 01f2 646F7562 		.ascii	"double\000"
 2593      6C6500
 2594              	.LASF121:
 2595 01f9 5F637674 		.ascii	"_cvtbuf\000"
 2595      62756600 
 2596              	.LASF100:
 2597 0201 5F6F6666 		.ascii	"_offset\000"
 2597      73657400 
 2598              	.LASF39:
 2599 0209 55534152 		.ascii	"USART_HardwareFlowControl\000"
 2599      545F4861 
 2599      72647761 
 2599      7265466C 
 2599      6F77436F 
 2600              	.LASF149:
 2601 0223 5F6D6272 		.ascii	"_mbrlen_state\000"
 2601      6C656E5F 
 2601      73746174 
 2601      6500
 2602              	.LASF151:
 2603 0231 5F6D6273 		.ascii	"_mbsrtowcs_state\000"
 2603      72746F77 
 2603      63735F73 
 2603      74617465 
 2603      00
 2604              	.LASF84:
 2605 0242 5F666E73 		.ascii	"_fns\000"
 2605      00
 2606              	.LASF9:
 2607 0247 5F5F7569 		.ascii	"__uint32_t\000"
 2607      6E743332 
 2607      5F7400
 2608              	.LASF36:
 2609 0252 55534152 		.ascii	"USART_StopBits\000"
 2609      545F5374 
 2609      6F704269 
 2609      747300
 2610              	.LASF64:
 2611 0261 5F736967 		.ascii	"_sign\000"
 2611      6E00
 2612              	.LASF158:
 2613 0267 5F696D70 		.ascii	"_impure_ptr\000"
 2613      7572655F 
 2613      70747200 
 2614              	.LASF109:
 2615 0273 5F737464 		.ascii	"_stderr\000"
 2615      65727200 
 2616              	.LASF66:
 2617 027b 5F426967 		.ascii	"_Bigint\000"
 2617      696E7400 
ARM GAS  /tmp/cc7mxXpk.s 			page 50


 2618              	.LASF62:
 2619 0283 5F6E6578 		.ascii	"_next\000"
 2619      7400
 2620              	.LASF93:
 2621 0289 5F726561 		.ascii	"_read\000"
 2621      6400
 2622              	.LASF67:
 2623 028f 5F5F746D 		.ascii	"__tm\000"
 2623      00
 2624              	.LASF23:
 2625 0294 44495341 		.ascii	"DISABLE\000"
 2625      424C4500 
 2626              	.LASF56:
 2627 029c 5F5F7763 		.ascii	"__wchb\000"
 2627      686200
 2628              	.LASF21:
 2629 02a3 53797374 		.ascii	"SystemCoreClock\000"
 2629      656D436F 
 2629      7265436C 
 2629      6F636B00 
 2630              	.LASF108:
 2631 02b3 5F737464 		.ascii	"_stdout\000"
 2631      6F757400 
 2632              	.LASF120:
 2633 02bb 5F637674 		.ascii	"_cvtlen\000"
 2633      6C656E00 
 2634              	.LASF10:
 2635 02c3 6C6F6E67 		.ascii	"long unsigned int\000"
 2635      20756E73 
 2635      69676E65 
 2635      6420696E 
 2635      7400
 2636              	.LASF90:
 2637 02d5 5F66696C 		.ascii	"_file\000"
 2637      6500
 2638              	.LASF101:
 2639 02db 5F646174 		.ascii	"_data\000"
 2639      6100
 2640              	.LASF130:
 2641 02e1 5F6E696F 		.ascii	"_niobs\000"
 2641      627300
 2642              	.LASF141:
 2643 02e8 5F72616E 		.ascii	"_rand_next\000"
 2643      645F6E65 
 2643      787400
 2644              	.LASF147:
 2645 02f3 5F736967 		.ascii	"_signal_buf\000"
 2645      6E616C5F 
 2645      62756600 
 2646              	.LASF138:
 2647 02ff 5F617363 		.ascii	"_asctime_buf\000"
 2647      74696D65 
 2647      5F627566 
 2647      00
 2648              	.LASF106:
 2649 030c 5F657272 		.ascii	"_errno\000"
 2649      6E6F00
ARM GAS  /tmp/cc7mxXpk.s 			page 51


 2650              	.LASF116:
 2651 0313 5F726573 		.ascii	"_result\000"
 2651      756C7400 
 2652              	.LASF55:
 2653 031b 5F5F7763 		.ascii	"__wch\000"
 2653      6800
 2654              	.LASF33:
 2655 0321 55534152 		.ascii	"USART_TypeDef\000"
 2655      545F5479 
 2655      70654465 
 2655      6600
 2656              	.LASF122:
 2657 032f 5F6E6577 		.ascii	"_new\000"
 2657      00
 2658              	.LASF16:
 2659 0334 75696E74 		.ascii	"uint16_t\000"
 2659      31365F74 
 2659      00
 2660              	.LASF102:
 2661 033d 5F6C6F63 		.ascii	"_lock\000"
 2661      6B00
 2662              	.LASF134:
 2663 0343 5F6D756C 		.ascii	"_mult\000"
 2663      7400
 2664              	.LASF7:
 2665 0349 5F5F696E 		.ascii	"__int32_t\000"
 2665      7433325F 
 2665      7400
 2666              	.LASF40:
 2667 0353 55534152 		.ascii	"USART_InitTypeDef\000"
 2667      545F496E 
 2667      69745479 
 2667      70654465 
 2667      6600
 2668              	.LASF94:
 2669 0365 5F777269 		.ascii	"_write\000"
 2669      746500
 2670              	.LASF73:
 2671 036c 5F5F746D 		.ascii	"__tm_year\000"
 2671      5F796561 
 2671      7200
 2672              	.LASF156:
 2673 0376 5F6E6D61 		.ascii	"_nmalloc\000"
 2673      6C6C6F63 
 2673      00
 2674              	.LASF51:
 2675 037f 5F4C4F43 		.ascii	"_LOCK_RECURSIVE_T\000"
 2675      4B5F5245 
 2675      43555253 
 2675      4956455F 
 2675      5400
 2676              	.LASF19:
 2677 0391 73697A65 		.ascii	"sizetype\000"
 2677      74797065 
 2677      00
 2678              	.LASF44:
 2679 039a 47795F6F 		.ascii	"Gy_offset\000"
ARM GAS  /tmp/cc7mxXpk.s 			page 52


 2679      66667365 
 2679      7400
 2680              	.LASF155:
 2681 03a4 5F6E6578 		.ascii	"_nextf\000"
 2681      746600
 2682              	.LASF42:
 2683 03ab 61636365 		.ascii	"accel\000"
 2683      6C00
 2684              	.LASF45:
 2685 03b1 477A5F6F 		.ascii	"Gz_offset\000"
 2685      66667365 
 2685      7400
 2686              	.LASF72:
 2687 03bb 5F5F746D 		.ascii	"__tm_mon\000"
 2687      5F6D6F6E 
 2687      00
 2688              	.LASF82:
 2689 03c4 5F617465 		.ascii	"_atexit\000"
 2689      78697400 
 2690              	.LASF114:
 2691 03cc 5F5F7364 		.ascii	"__sdidinit\000"
 2691      6964696E 
 2691      697400
 2692              	.LASF140:
 2693 03d7 5F67616D 		.ascii	"_gamma_signgam\000"
 2693      6D615F73 
 2693      69676E67 
 2693      616D00
 2694              	.LASF54:
 2695 03e6 77696E74 		.ascii	"wint_t\000"
 2695      5F7400
 2696              	.LASF47:
 2697 03ed 666C6F61 		.ascii	"float\000"
 2697      7400
 2698              	.LASF169:
 2699 03f3 55534152 		.ascii	"USART_Conf\000"
 2699      545F436F 
 2699      6E6600
 2700              	.LASF119:
 2701 03fe 5F667265 		.ascii	"_freelist\000"
 2701      656C6973 
 2701      7400
 2702              	.LASF48:
 2703 0408 50697463 		.ascii	"Pitch\000"
 2703      6800
 2704              	.LASF25:
 2705 040e 52455345 		.ascii	"RESERVED0\000"
 2705      52564544 
 2705      3000
 2706              	.LASF26:
 2707 0418 52455345 		.ascii	"RESERVED1\000"
 2707      52564544 
 2707      3100
 2708              	.LASF27:
 2709 0422 52455345 		.ascii	"RESERVED2\000"
 2709      52564544 
 2709      3200
ARM GAS  /tmp/cc7mxXpk.s 			page 53


 2710              	.LASF28:
 2711 042c 52455345 		.ascii	"RESERVED3\000"
 2711      52564544 
 2711      3300
 2712              	.LASF29:
 2713 0436 52455345 		.ascii	"RESERVED4\000"
 2713      52564544 
 2713      3400
 2714              	.LASF30:
 2715 0440 52455345 		.ascii	"RESERVED5\000"
 2715      52564544 
 2715      3500
 2716              	.LASF32:
 2717 044a 52455345 		.ascii	"RESERVED6\000"
 2717      52564544 
 2717      3600
 2718              	.LASF22:
 2719 0454 52455345 		.ascii	"RESET\000"
 2719      5400
 2720              	.LASF166:
 2721 045a 55736172 		.ascii	"UsartPut\000"
 2721      74507574 
 2721      00
 2722              	.LASF168:
 2723 0463 55534152 		.ascii	"USART_InitStructure\000"
 2723      545F496E 
 2723      69745374 
 2723      72756374 
 2723      75726500 
 2724              	.LASF17:
 2725 0477 696E7433 		.ascii	"int32_t\000"
 2725      325F7400 
 2726              	.LASF1:
 2727 047f 756E7369 		.ascii	"unsigned char\000"
 2727      676E6564 
 2727      20636861 
 2727      7200
 2728              	.LASF131:
 2729 048d 5F696F62 		.ascii	"_iobs\000"
 2729      7300
 2730              	.LASF154:
 2731 0493 5F685F65 		.ascii	"_h_errno\000"
 2731      72726E6F 
 2731      00
 2732              	.LASF60:
 2733 049c 5F666C6F 		.ascii	"_flock_t\000"
 2733      636B5F74 
 2733      00
 2734              	.LASF75:
 2735 04a5 5F5F746D 		.ascii	"__tm_yday\000"
 2735      5F796461 
 2735      7900
 2736              	.LASF167:
 2737 04af 66696C65 		.ascii	"file\000"
 2737      00
 2738              	.LASF104:
 2739 04b4 5F666C61 		.ascii	"_flags2\000"
ARM GAS  /tmp/cc7mxXpk.s 			page 54


 2739      67733200 
 2740              	.LASF128:
 2741 04bc 5F5F4649 		.ascii	"__FILE\000"
 2741      4C4500
 2742              	.LASF59:
 2743 04c3 5F6D6273 		.ascii	"_mbstate_t\000"
 2743      74617465 
 2743      5F7400
 2744              	.LASF88:
 2745 04ce 5F5F7346 		.ascii	"__sFILE\000"
 2745      494C4500 
 2746              	.LASF103:
 2747 04d6 5F6D6273 		.ascii	"_mbstate\000"
 2747      74617465 
 2747      00
 2748              	.LASF143:
 2749 04df 5F6D626C 		.ascii	"_mblen_state\000"
 2749      656E5F73 
 2749      74617465 
 2749      00
 2750              	.LASF110:
 2751 04ec 5F696E63 		.ascii	"_inc\000"
 2751      00
 2752              	.LASF83:
 2753 04f1 5F696E64 		.ascii	"_ind\000"
 2753      00
 2754              	.LASF113:
 2755 04f6 5F637572 		.ascii	"_current_locale\000"
 2755      72656E74 
 2755      5F6C6F63 
 2755      616C6500 
 2756              	.LASF63:
 2757 0506 5F6D6178 		.ascii	"_maxwds\000"
 2757      77647300 
 2758              	.LASF105:
 2759 050e 5F726565 		.ascii	"_reent\000"
 2759      6E7400
 2760              	.LASF133:
 2761 0515 5F736565 		.ascii	"_seed\000"
 2761      6400
 2762              	.LASF57:
 2763 051b 5F5F636F 		.ascii	"__count\000"
 2763      756E7400 
 2764              	.LASF58:
 2765 0523 5F5F7661 		.ascii	"__value\000"
 2765      6C756500 
 2766              	.LASF95:
 2767 052b 5F736565 		.ascii	"_seek\000"
 2767      6B00
 2768              	.LASF74:
 2769 0531 5F5F746D 		.ascii	"__tm_wday\000"
 2769      5F776461 
 2769      7900
 2770              	.LASF53:
 2771 053b 5F66706F 		.ascii	"_fpos_t\000"
 2771      735F7400 
 2772              	.LASF50:
ARM GAS  /tmp/cc7mxXpk.s 			page 55


 2773 0543 6C6F6E67 		.ascii	"long double\000"
 2773      20646F75 
 2773      626C6500 
 2774              	.LASF127:
 2775 054f 63686172 		.ascii	"char\000"
 2775      00
 2776              	.LASF99:
 2777 0554 5F626C6B 		.ascii	"_blksize\000"
 2777      73697A65 
 2777      00
 2778              	.LASF174:
 2779 055d 55736172 		.ascii	"UsartGet\000"
 2779      74476574 
 2779      00
 2780              	.LASF87:
 2781 0566 5F73697A 		.ascii	"_size\000"
 2781      6500
 2782              	.LASF13:
 2783 056c 756E7369 		.ascii	"unsigned int\000"
 2783      676E6564 
 2783      20696E74 
 2783      00
 2784              	.LASF5:
 2785 0579 5F5F7569 		.ascii	"__uint16_t\000"
 2785      6E743136 
 2785      5F7400
 2786              	.LASF35:
 2787 0584 55534152 		.ascii	"USART_WordLength\000"
 2787      545F576F 
 2787      72644C65 
 2787      6E677468 
 2787      00
 2788              	.LASF171:
 2789 0595 7372632F 		.ascii	"src/usart2.c\000"
 2789      75736172 
 2789      74322E63 
 2789      00
 2790              	.LASF49:
 2791 05a2 526F6C6C 		.ascii	"Roll\000"
 2791      00
 2792              	.LASF137:
 2793 05a7 5F737472 		.ascii	"_strtok_last\000"
 2793      746F6B5F 
 2793      6C617374 
 2793      00
 2794              	.LASF80:
 2795 05b4 5F666E74 		.ascii	"_fntypes\000"
 2795      79706573 
 2795      00
 2796              	.LASF170:
 2797 05bd 474E5520 		.ascii	"GNU C11 6.1.1 20160526 -mcpu=cortex-m3 -mthumb -g -"
 2797      43313120 
 2797      362E312E 
 2797      31203230 
 2797      31363035 
 2798 05f0 666E6F2D 		.ascii	"fno-common\000"
 2798      636F6D6D 
ARM GAS  /tmp/cc7mxXpk.s 			page 56


 2798      6F6E00
 2799              	.LASF6:
 2800 05fb 73686F72 		.ascii	"short unsigned int\000"
 2800      7420756E 
 2800      7369676E 
 2800      65642069 
 2800      6E7400
 2801              	.LASF135:
 2802 060e 5F616464 		.ascii	"_add\000"
 2802      00
 2803              	.LASF61:
 2804 0613 5F5F554C 		.ascii	"__ULong\000"
 2804      6F6E6700 
 2805              	.LASF148:
 2806 061b 5F676574 		.ascii	"_getdate_err\000"
 2806      64617465 
 2806      5F657272 
 2806      00
 2807              	.LASF173:
 2808 0628 5F5F6664 		.ascii	"__fdlibm_version\000"
 2808      6C69626D 
 2808      5F766572 
 2808      73696F6E 
 2808      00
 2809              	.LASF46:
 2810 0639 41636331 		.ascii	"Acc1G_Values\000"
 2810      475F5661 
 2810      6C756573 
 2810      00
 2811              	.LASF159:
 2812 0646 5F676C6F 		.ascii	"_global_impure_ptr\000"
 2812      62616C5F 
 2812      696D7075 
 2812      72655F70 
 2812      747200
 2813              	.LASF112:
 2814 0659 5F637572 		.ascii	"_current_category\000"
 2814      72656E74 
 2814      5F636174 
 2814      65676F72 
 2814      7900
 2815              	.LASF161:
 2816 066b 5F5F6664 		.ascii	"__fdlibm_ieee\000"
 2816      6C69626D 
 2816      5F696565 
 2816      6500
 2817              	.LASF136:
 2818 0679 5F756E75 		.ascii	"_unused_rand\000"
 2818      7365645F 
 2818      72616E64 
 2818      00
 2819              	.LASF115:
 2820 0686 5F5F636C 		.ascii	"__cleanup\000"
 2820      65616E75 
 2820      7000
 2821              	.LASF65:
 2822 0690 5F776473 		.ascii	"_wds\000"
ARM GAS  /tmp/cc7mxXpk.s 			page 57


 2822      00
 2823              	.LASF129:
 2824 0695 5F676C75 		.ascii	"_glue\000"
 2824      6500
 2825              	.LASF89:
 2826 069b 5F666C61 		.ascii	"_flags\000"
 2826      677300
 2827              	.LASF14:
 2828 06a2 75696E74 		.ascii	"uint8_t\000"
 2828      385F7400 
 2829              	.LASF146:
 2830 06aa 5F6C3634 		.ascii	"_l64a_buf\000"
 2830      615F6275 
 2830      6600
 2831              	.LASF124:
 2832 06b4 5F736967 		.ascii	"_sig_func\000"
 2832      5F66756E 
 2832      6300
 2833              	.LASF3:
 2834 06be 5F5F696E 		.ascii	"__int16_t\000"
 2834      7431365F 
 2834      7400
 2835              	.LASF98:
 2836 06c8 5F6E6275 		.ascii	"_nbuf\000"
 2836      6600
 2837              	.LASF157:
 2838 06ce 5F756E75 		.ascii	"_unused\000"
 2838      73656400 
 2839              	.LASF76:
 2840 06d6 5F5F746D 		.ascii	"__tm_isdst\000"
 2840      5F697364 
 2840      737400
 2841              	.LASF139:
 2842 06e1 5F6C6F63 		.ascii	"_localtime_buf\000"
 2842      616C7469 
 2842      6D655F62 
 2842      756600
 2843              	.LASF69:
 2844 06f0 5F5F746D 		.ascii	"__tm_min\000"
 2844      5F6D696E 
 2844      00
 2845              	.LASF142:
 2846 06f9 5F723438 		.ascii	"_r48\000"
 2846      00
 2847              	.LASF144:
 2848 06fe 5F6D6274 		.ascii	"_mbtowc_state\000"
 2848      6F77635F 
 2848      73746174 
 2848      6500
 2849              	.LASF118:
 2850 070c 5F703573 		.ascii	"_p5s\000"
 2850      00
 2851              	.LASF85:
 2852 0711 5F5F7362 		.ascii	"__sbuf\000"
 2852      756600
 2853              	.LASF18:
 2854 0718 75696E74 		.ascii	"uint32_t\000"
ARM GAS  /tmp/cc7mxXpk.s 			page 58


 2854      33325F74 
 2854      00
 2855              	.LASF71:
 2856 0721 5F5F746D 		.ascii	"__tm_mday\000"
 2856      5F6D6461 
 2856      7900
 2857              		.ident	"GCC: (Arch Repository) 6.1.1 20160526"
ARM GAS  /tmp/cc7mxXpk.s 			page 59


DEFINED SYMBOLS
                            *ABS*:0000000000000000 usart2.c
     /tmp/cc7mxXpk.s:15     .text:0000000000000000 $t
     /tmp/cc7mxXpk.s:22     .text:0000000000000000 _read
     /tmp/cc7mxXpk.s:209    .text:00000000000000b4 UsartGet
     /tmp/cc7mxXpk.s:94     .text:0000000000000046 _write
     /tmp/cc7mxXpk.s:153    .text:000000000000007e UsartPut
     /tmp/cc7mxXpk.s:198    .text:00000000000000b0 $d
     /tmp/cc7mxXpk.s:202    .text:00000000000000b4 $t
     /tmp/cc7mxXpk.s:242    .text:00000000000000d8 $d
     /tmp/cc7mxXpk.s:246    .text:00000000000000dc $t
     /tmp/cc7mxXpk.s:253    .text:00000000000000dc USART_Conf
     /tmp/cc7mxXpk.s:305    .text:0000000000000118 $d
                     .debug_frame:0000000000000010 $d

UNDEFINED SYMBOLS
USART_SendData
USART_GetFlagStatus
USART_ReceiveData
USART_Init
USART_Cmd
