ARM GAS  /tmp/ccPeiUWo.s 			page 1


   1              		.cpu cortex-m3
   2              		.eabi_attribute 20, 1
   3              		.eabi_attribute 21, 1
   4              		.eabi_attribute 23, 3
   5              		.eabi_attribute 24, 1
   6              		.eabi_attribute 25, 1
   7              		.eabi_attribute 26, 1
   8              		.eabi_attribute 30, 6
   9              		.eabi_attribute 34, 1
  10              		.eabi_attribute 18, 4
  11              		.file	"main.c"
  12              		.text
  13              	.Ltext0:
  14              		.cfi_sections	.debug_frame
  15              		.global	HSEStartUpStatus
  16              		.bss
  17              		.type	HSEStartUpStatus, %object
  18              		.size	HSEStartUpStatus, 1
  19              	HSEStartUpStatus:
  20 0000 00       		.space	1
  21              		.section	.rodata
  22              		.align	2
  23              	.LC0:
  24 0000 4E756D3A 		.ascii	"Num:%d.\015\012\000"
  24      25642E0D 
  24      0A00
  25              		.text
  26              		.align	1
  27              		.global	main
  28              		.syntax unified
  29              		.thumb
  30              		.thumb_func
  31              		.fpu softvfp
  32              		.type	main, %function
  33              	main:
  34              	.LFB63:
  35              		.file 1 "src/main.c"
   1:src/main.c    **** /**
   2:src/main.c    ****  * STM32F103C8 USRAT Demonstration
   3:src/main.c    ****  */
   4:src/main.c    **** #include "main.h"
   5:src/main.c    **** 
   6:src/main.c    **** /*************************** 宏定义***********************************************/
   7:src/main.c    **** #define  USARTx                     USART2
   8:src/main.c    **** #define  GPIOx                      GPIOA
   9:src/main.c    **** #define  RCC_APB2Periph_GPIOx       RCC_APB2Periph_GPIOA
  10:src/main.c    **** #define  GPIO_RxPin                 GPIO_Pin_3
  11:src/main.c    **** #define  GPIO_TxPin                 GPIO_Pin_2
  12:src/main.c    **** 
  13:src/main.c    **** /******************************** 变量定义 ------------------------------------*/
  14:src/main.c    **** ErrorStatus HSEStartUpStatus;
  15:src/main.c    **** 
  16:src/main.c    **** 
  17:src/main.c    **** extern u32 counter;
  18:src/main.c    **** 
  19:src/main.c    **** /*********************************声明函数 ------------------------------------*/
  20:src/main.c    **** void RCC_Configuration(void);
ARM GAS  /tmp/ccPeiUWo.s 			page 2


  21:src/main.c    **** void GPIO_Configuration(void);
  22:src/main.c    **** void NVIC_Configuration(void);
  23:src/main.c    **** void USART_Configuration(void);
  24:src/main.c    **** void TIM_Configuration(void);
  25:src/main.c    **** u8 Uartx_PutChar(u8 ch);
  26:src/main.c    **** void delay_us(u32 nus);
  27:src/main.c    **** void delay_ms(u32 nms);
  28:src/main.c    **** int usart_send_num(uint32_t num);
  29:src/main.c    **** int msr_dist(void);
  30:src/main.c    **** int printf(char *fmt, ...);
  31:src/main.c    **** 
  32:src/main.c    **** 
  33:src/main.c    **** int main(void)
  34:src/main.c    **** {
  36              		.loc 1 34 0
  37              		.cfi_startproc
  38              		@ args = 0, pretend = 0, frame = 8
  39              		@ frame_needed = 1, uses_anonymous_args = 0
  40 0000 80B5     		push	{r7, lr}
  41              		.cfi_def_cfa_offset 8
  42              		.cfi_offset 7, -8
  43              		.cfi_offset 14, -4
  44 0002 82B0     		sub	sp, sp, #8
  45              		.cfi_def_cfa_offset 16
  46 0004 00AF     		add	r7, sp, #0
  47              		.cfi_def_cfa_register 7
  35:src/main.c    ****   RCC_Configuration();
  48              		.loc 1 35 0
  49 0006 FFF7FEFF 		bl	RCC_Configuration
  36:src/main.c    ****   NVIC_Configuration();
  50              		.loc 1 36 0
  51 000a FFF7FEFF 		bl	NVIC_Configuration
  37:src/main.c    ****   GPIO_Configuration();
  52              		.loc 1 37 0
  53 000e FFF7FEFF 		bl	GPIO_Configuration
  38:src/main.c    ****   USART_Configuration();  
  54              		.loc 1 38 0
  55 0012 FFF7FEFF 		bl	USART_Configuration
  39:src/main.c    ****   TIM_Configuration();
  56              		.loc 1 39 0
  57 0016 FFF7FEFF 		bl	TIM_Configuration
  40:src/main.c    ****   int k =0;
  58              		.loc 1 40 0
  59 001a 0023     		movs	r3, #0
  60 001c 3B60     		str	r3, [r7]
  41:src/main.c    ****   long i = 0;
  61              		.loc 1 41 0
  62 001e 0023     		movs	r3, #0
  63 0020 7B60     		str	r3, [r7, #4]
  64              	.L2:
  42:src/main.c    ****     
  43:src/main.c    ****   while (1)
  44:src/main.c    ****   {  
  45:src/main.c    ****     printf("Num:%d.\r\n",i);
  65              		.loc 1 45 0 discriminator 1
  66 0022 7968     		ldr	r1, [r7, #4]
  67 0024 0648     		ldr	r0, .L3
ARM GAS  /tmp/ccPeiUWo.s 			page 3


  68 0026 FFF7FEFF 		bl	printf
  46:src/main.c    ****     k = msr_dist();
  69              		.loc 1 46 0 discriminator 1
  70 002a FFF7FEFF 		bl	msr_dist
  71 002e 3860     		str	r0, [r7]
  47:src/main.c    ****     i++;
  72              		.loc 1 47 0 discriminator 1
  73 0030 7B68     		ldr	r3, [r7, #4]
  74 0032 0133     		adds	r3, r3, #1
  75 0034 7B60     		str	r3, [r7, #4]
  48:src/main.c    ****     delay_ms(0xfffff);
  76              		.loc 1 48 0 discriminator 1
  77 0036 0348     		ldr	r0, .L3+4
  78 0038 FFF7FEFF 		bl	delay_ms
  45:src/main.c    ****     k = msr_dist();
  79              		.loc 1 45 0 discriminator 1
  80 003c F1E7     		b	.L2
  81              	.L4:
  82 003e 00BF     		.align	2
  83              	.L3:
  84 0040 00000000 		.word	.LC0
  85 0044 FFFF0F00 		.word	1048575
  86              		.cfi_endproc
  87              	.LFE63:
  88              		.size	main, .-main
  89              		.section	.rodata
  90 000a 0000     		.align	2
  91              	.LC1:
  92 000c 53656E64 		.ascii	"Send sound.\015\012\000"
  92      20736F75 
  92      6E642E0D 
  92      0A00
  93 001a 0000     		.align	2
  94              	.LC2:
  95 001c 3E3E3E45 		.ascii	">>>ERROR:timeout_echo.\015\012\000"
  95      52524F52 
  95      3A74696D 
  95      656F7574 
  95      5F656368 
  96              		.global	__aeabi_ui2d
  97              		.global	__aeabi_ddiv
  98              		.global	__aeabi_d2iz
  99 0035 000000   		.align	2
 100              	.LC3:
 101 0038 74726963 		.ascii	"trick: %d \015\012Distance:%d cm\015\012-----------"
 101      6B3A2025 
 101      64200D0A 
 101      44697374 
 101      616E6365 
 102 005f 2D2D2D2D 		.ascii	"------------\015\012\000"
 102      2D2D2D2D 
 102      2D2D2D2D 
 102      0D0A00
 103              		.text
 104              		.align	1
 105              		.global	msr_dist
 106              		.syntax unified
ARM GAS  /tmp/ccPeiUWo.s 			page 4


 107              		.thumb
 108              		.thumb_func
 109              		.fpu softvfp
 110              		.type	msr_dist, %function
 111              	msr_dist:
 112              	.LFB64:
  49:src/main.c    ****   }
  50:src/main.c    **** }
  51:src/main.c    **** 
  52:src/main.c    **** int msr_dist(void)
  53:src/main.c    **** {
 113              		.loc 1 53 0
 114              		.cfi_startproc
 115              		@ args = 0, pretend = 0, frame = 8
 116              		@ frame_needed = 1, uses_anonymous_args = 0
 117 0048 90B5     		push	{r4, r7, lr}
 118              		.cfi_def_cfa_offset 12
 119              		.cfi_offset 4, -12
 120              		.cfi_offset 7, -8
 121              		.cfi_offset 14, -4
 122 004a 83B0     		sub	sp, sp, #12
 123              		.cfi_def_cfa_offset 24
 124 004c 00AF     		add	r7, sp, #0
 125              		.cfi_def_cfa_register 7
  54:src/main.c    ****     int length;
  55:src/main.c    ****     printf("Send sound.\r\n",1);
 126              		.loc 1 55 0
 127 004e 0121     		movs	r1, #1
 128 0050 2D48     		ldr	r0, .L11+8
 129 0052 FFF7FEFF 		bl	printf
  56:src/main.c    ****     GPIO_WriteBit(GPIOA,GPIO_Pin_1,1);
 130              		.loc 1 56 0
 131 0056 0122     		movs	r2, #1
 132 0058 0221     		movs	r1, #2
 133 005a 2C48     		ldr	r0, .L11+12
 134 005c FFF7FEFF 		bl	GPIO_WriteBit
  57:src/main.c    ****     delay_us(20);
 135              		.loc 1 57 0
 136 0060 1420     		movs	r0, #20
 137 0062 FFF7FEFF 		bl	delay_us
  58:src/main.c    ****     GPIO_WriteBit(GPIOA,GPIO_Pin_1,0);
 138              		.loc 1 58 0
 139 0066 0022     		movs	r2, #0
 140 0068 0221     		movs	r1, #2
 141 006a 2848     		ldr	r0, .L11+12
 142 006c FFF7FEFF 		bl	GPIO_WriteBit
  59:src/main.c    ****     //计数器清0
  60:src/main.c    ****     counter = 0;
 143              		.loc 1 60 0
 144 0070 274B     		ldr	r3, .L11+16
 145 0072 0022     		movs	r2, #0
 146 0074 1A60     		str	r2, [r3]
  61:src/main.c    ****     while(!GPIO_ReadInputDataBit(GPIOA, GPIO_Pin_0));
 147              		.loc 1 61 0
 148 0076 00BF     		nop
 149              	.L6:
 150              		.loc 1 61 0 is_stmt 0 discriminator 1
ARM GAS  /tmp/ccPeiUWo.s 			page 5


 151 0078 0121     		movs	r1, #1
 152 007a 2448     		ldr	r0, .L11+12
 153 007c FFF7FEFF 		bl	GPIO_ReadInputDataBit
 154 0080 0346     		mov	r3, r0
 155 0082 002B     		cmp	r3, #0
 156 0084 F8D0     		beq	.L6
  62:src/main.c    ****     TIM_Cmd(TIM2, ENABLE);// TIM2 enable counter [允许tim2计数]
 157              		.loc 1 62 0 is_stmt 1
 158 0086 0121     		movs	r1, #1
 159 0088 4FF08040 		mov	r0, #1073741824
 160 008c FFF7FEFF 		bl	TIM_Cmd
  63:src/main.c    ****     while(GPIO_ReadInputDataBit(GPIOA, GPIO_Pin_0)){
 161              		.loc 1 63 0
 162 0090 0CE0     		b	.L7
 163              	.L9:
  64:src/main.c    ****       if(counter>90000){
 164              		.loc 1 64 0
 165 0092 1F4B     		ldr	r3, .L11+16
 166 0094 1B68     		ldr	r3, [r3]
 167 0096 1F4A     		ldr	r2, .L11+20
 168 0098 9342     		cmp	r3, r2
 169 009a 07D9     		bls	.L7
  65:src/main.c    ****         printf(">>>ERROR:timeout_echo.\r\n",1);
 170              		.loc 1 65 0
 171 009c 0121     		movs	r1, #1
 172 009e 1E48     		ldr	r0, .L11+24
 173 00a0 FFF7FEFF 		bl	printf
  66:src/main.c    ****     delay_ms(0x2fffff);
 174              		.loc 1 66 0
 175 00a4 1D48     		ldr	r0, .L11+28
 176 00a6 FFF7FEFF 		bl	delay_ms
  67:src/main.c    ****         break;
 177              		.loc 1 67 0
 178 00aa 06E0     		b	.L8
 179              	.L7:
  63:src/main.c    ****       if(counter>90000){
 180              		.loc 1 63 0
 181 00ac 0121     		movs	r1, #1
 182 00ae 1748     		ldr	r0, .L11+12
 183 00b0 FFF7FEFF 		bl	GPIO_ReadInputDataBit
 184 00b4 0346     		mov	r3, r0
 185 00b6 002B     		cmp	r3, #0
 186 00b8 EBD1     		bne	.L9
 187              	.L8:
  68:src/main.c    ****       }
  69:src/main.c    ****     }
  70:src/main.c    ****     TIM_Cmd(TIM2, DISABLE);
 188              		.loc 1 70 0
 189 00ba 0021     		movs	r1, #0
 190 00bc 4FF08040 		mov	r0, #1073741824
 191 00c0 FFF7FEFF 		bl	TIM_Cmd
  71:src/main.c    ****     
  72:src/main.c    ****     length=counter/26.3;
 192              		.loc 1 72 0
 193 00c4 124B     		ldr	r3, .L11+16
 194 00c6 1B68     		ldr	r3, [r3]
 195 00c8 1846     		mov	r0, r3
ARM GAS  /tmp/ccPeiUWo.s 			page 6


 196 00ca FFF7FEFF 		bl	__aeabi_ui2d
 197              	.LVL0:
 198 00ce 0CA3     		adr	r3, .L11
 199 00d0 D3E90023 		ldrd	r2, [r3]
 200 00d4 FFF7FEFF 		bl	__aeabi_ddiv
 201              	.LVL1:
 202 00d8 0346     		mov	r3, r0
 203 00da 0C46     		mov	r4, r1
 204 00dc 1846     		mov	r0, r3
 205 00de 2146     		mov	r1, r4
 206 00e0 FFF7FEFF 		bl	__aeabi_d2iz
 207              	.LVL2:
 208 00e4 0346     		mov	r3, r0
 209 00e6 7B60     		str	r3, [r7, #4]
  73:src/main.c    ****     printf("trick: %d \r\nDistance:%d cm\r\n-----------------------\r\n",counter,length);
 210              		.loc 1 73 0
 211 00e8 094B     		ldr	r3, .L11+16
 212 00ea 1B68     		ldr	r3, [r3]
 213 00ec 7A68     		ldr	r2, [r7, #4]
 214 00ee 1946     		mov	r1, r3
 215 00f0 0B48     		ldr	r0, .L11+32
 216 00f2 FFF7FEFF 		bl	printf
  74:src/main.c    ****     return length;
 217              		.loc 1 74 0
 218 00f6 7B68     		ldr	r3, [r7, #4]
  75:src/main.c    **** }
 219              		.loc 1 75 0
 220 00f8 1846     		mov	r0, r3
 221 00fa 0C37     		adds	r7, r7, #12
 222              		.cfi_def_cfa_offset 12
 223 00fc BD46     		mov	sp, r7
 224              		.cfi_def_cfa_register 13
 225              		@ sp needed
 226 00fe 90BD     		pop	{r4, r7, pc}
 227              	.L12:
 228              		.align	3
 229              	.L11:
 230 0100 CDCCCCCC 		.word	3435973837
 231 0104 CC4C3A40 		.word	1077562572
 232 0108 0C000000 		.word	.LC1
 233 010c 00080140 		.word	1073809408
 234 0110 00000000 		.word	counter
 235 0114 905F0100 		.word	90000
 236 0118 1C000000 		.word	.LC2
 237 011c FFFF2F00 		.word	3145727
 238 0120 38000000 		.word	.LC3
 239              		.cfi_endproc
 240              	.LFE64:
 241              		.size	msr_dist, .-msr_dist
 242              		.align	1
 243              		.global	delay_ms
 244              		.syntax unified
 245              		.thumb
 246              		.thumb_func
 247              		.fpu softvfp
 248              		.type	delay_ms, %function
 249              	delay_ms:
ARM GAS  /tmp/ccPeiUWo.s 			page 7


 250              	.LFB65:
  76:src/main.c    **** 
  77:src/main.c    **** void delay_ms(u32 nms)
  78:src/main.c    **** {
 251              		.loc 1 78 0
 252              		.cfi_startproc
 253              		@ args = 0, pretend = 0, frame = 8
 254              		@ frame_needed = 1, uses_anonymous_args = 0
 255              		@ link register save eliminated.
 256 0124 80B4     		push	{r7}
 257              		.cfi_def_cfa_offset 4
 258              		.cfi_offset 7, -4
 259 0126 83B0     		sub	sp, sp, #12
 260              		.cfi_def_cfa_offset 16
 261 0128 00AF     		add	r7, sp, #0
 262              		.cfi_def_cfa_register 7
 263 012a 7860     		str	r0, [r7, #4]
 264              	.L14:
  79:src/main.c    ****   while(--nms);
 265              		.loc 1 79 0 discriminator 1
 266 012c 7B68     		ldr	r3, [r7, #4]
 267 012e 013B     		subs	r3, r3, #1
 268 0130 7B60     		str	r3, [r7, #4]
 269 0132 7B68     		ldr	r3, [r7, #4]
 270 0134 002B     		cmp	r3, #0
 271 0136 F9D1     		bne	.L14
  80:src/main.c    **** }
 272              		.loc 1 80 0
 273 0138 00BF     		nop
 274 013a 0C37     		adds	r7, r7, #12
 275              		.cfi_def_cfa_offset 4
 276 013c BD46     		mov	sp, r7
 277              		.cfi_def_cfa_register 13
 278              		@ sp needed
 279 013e 80BC     		pop	{r7}
 280              		.cfi_restore 7
 281              		.cfi_def_cfa_offset 0
 282 0140 7047     		bx	lr
 283              		.cfi_endproc
 284              	.LFE65:
 285              		.size	delay_ms, .-delay_ms
 286              		.align	1
 287              		.global	delay_us
 288              		.syntax unified
 289              		.thumb
 290              		.thumb_func
 291              		.fpu softvfp
 292              		.type	delay_us, %function
 293              	delay_us:
 294              	.LFB66:
  81:src/main.c    **** 
  82:src/main.c    **** 
  83:src/main.c    **** void delay_us(u32 nus)
  84:src/main.c    **** {
 295              		.loc 1 84 0
 296              		.cfi_startproc
 297              		@ args = 0, pretend = 0, frame = 8
ARM GAS  /tmp/ccPeiUWo.s 			page 8


 298              		@ frame_needed = 1, uses_anonymous_args = 0
 299 0142 80B5     		push	{r7, lr}
 300              		.cfi_def_cfa_offset 8
 301              		.cfi_offset 7, -8
 302              		.cfi_offset 14, -4
 303 0144 82B0     		sub	sp, sp, #8
 304              		.cfi_def_cfa_offset 16
 305 0146 00AF     		add	r7, sp, #0
 306              		.cfi_def_cfa_register 7
 307 0148 7860     		str	r0, [r7, #4]
  85:src/main.c    ****   counter = 0;
 308              		.loc 1 85 0
 309 014a 0B4B     		ldr	r3, .L17
 310 014c 0022     		movs	r2, #0
 311 014e 1A60     		str	r2, [r3]
  86:src/main.c    ****   TIM_Cmd(TIM2, ENABLE);// TIM2 enable counter
 312              		.loc 1 86 0
 313 0150 0121     		movs	r1, #1
 314 0152 4FF08040 		mov	r0, #1073741824
 315 0156 FFF7FEFF 		bl	TIM_Cmd
  87:src/main.c    ****   while(nus>counter){
 316              		.loc 1 87 0
 317 015a 00BF     		nop
 318              	.L16:
 319              		.loc 1 87 0 is_stmt 0 discriminator 1
 320 015c 064B     		ldr	r3, .L17
 321 015e 1B68     		ldr	r3, [r3]
 322 0160 7A68     		ldr	r2, [r7, #4]
 323 0162 9A42     		cmp	r2, r3
 324 0164 FAD8     		bhi	.L16
  88:src/main.c    ****   }
  89:src/main.c    ****   TIM_Cmd(TIM2, DISABLE);
 325              		.loc 1 89 0 is_stmt 1
 326 0166 0021     		movs	r1, #0
 327 0168 4FF08040 		mov	r0, #1073741824
 328 016c FFF7FEFF 		bl	TIM_Cmd
  90:src/main.c    **** 
  91:src/main.c    **** }
 329              		.loc 1 91 0
 330 0170 00BF     		nop
 331 0172 0837     		adds	r7, r7, #8
 332              		.cfi_def_cfa_offset 8
 333 0174 BD46     		mov	sp, r7
 334              		.cfi_def_cfa_register 13
 335              		@ sp needed
 336 0176 80BD     		pop	{r7, pc}
 337              	.L18:
 338              		.align	2
 339              	.L17:
 340 0178 00000000 		.word	counter
 341              		.cfi_endproc
 342              	.LFE66:
 343              		.size	delay_us, .-delay_us
 344              		.align	1
 345              		.global	usart_send_num
 346              		.syntax unified
 347              		.thumb
ARM GAS  /tmp/ccPeiUWo.s 			page 9


 348              		.thumb_func
 349              		.fpu softvfp
 350              		.type	usart_send_num, %function
 351              	usart_send_num:
 352              	.LFB67:
  92:src/main.c    **** 
  93:src/main.c    **** //以指定的宽度发送十进制数的ascii码。
  94:src/main.c    **** int usart_send_num(uint32_t num)
  95:src/main.c    **** {
 353              		.loc 1 95 0
 354              		.cfi_startproc
 355              		@ args = 0, pretend = 0, frame = 40
 356              		@ frame_needed = 1, uses_anonymous_args = 0
 357 017c 80B5     		push	{r7, lr}
 358              		.cfi_def_cfa_offset 8
 359              		.cfi_offset 7, -8
 360              		.cfi_offset 14, -4
 361 017e 8AB0     		sub	sp, sp, #40
 362              		.cfi_def_cfa_offset 48
 363 0180 00AF     		add	r7, sp, #0
 364              		.cfi_def_cfa_register 7
 365 0182 7860     		str	r0, [r7, #4]
  96:src/main.c    ****     int data[5]={0};
 366              		.loc 1 96 0
 367 0184 07F10803 		add	r3, r7, #8
 368 0188 0022     		movs	r2, #0
 369 018a 1A60     		str	r2, [r3]
 370 018c 5A60     		str	r2, [r3, #4]
 371 018e 9A60     		str	r2, [r3, #8]
 372 0190 DA60     		str	r2, [r3, #12]
 373 0192 1A61     		str	r2, [r3, #16]
  97:src/main.c    ****     int tmp = num;
 374              		.loc 1 97 0
 375 0194 7B68     		ldr	r3, [r7, #4]
 376 0196 7B62     		str	r3, [r7, #36]
  98:src/main.c    ****     int r = 0, i;
 377              		.loc 1 98 0
 378 0198 0023     		movs	r3, #0
 379 019a 3B62     		str	r3, [r7, #32]
  99:src/main.c    ****     while(tmp>0){
 380              		.loc 1 99 0
 381 019c 1DE0     		b	.L20
 382              	.L21:
 100:src/main.c    ****         data[r] = tmp % 10;
 383              		.loc 1 100 0
 384 019e 796A     		ldr	r1, [r7, #36]
 385 01a0 204B     		ldr	r3, .L26
 386 01a2 83FB0123 		smull	r2, r3, r3, r1
 387 01a6 9A10     		asrs	r2, r3, #2
 388 01a8 CB17     		asrs	r3, r1, #31
 389 01aa D21A     		subs	r2, r2, r3
 390 01ac 1346     		mov	r3, r2
 391 01ae 9B00     		lsls	r3, r3, #2
 392 01b0 1344     		add	r3, r3, r2
 393 01b2 5B00     		lsls	r3, r3, #1
 394 01b4 CA1A     		subs	r2, r1, r3
 395 01b6 3B6A     		ldr	r3, [r7, #32]
ARM GAS  /tmp/ccPeiUWo.s 			page 10


 396 01b8 9B00     		lsls	r3, r3, #2
 397 01ba 07F12801 		add	r1, r7, #40
 398 01be 0B44     		add	r3, r3, r1
 399 01c0 43F8202C 		str	r2, [r3, #-32]
 101:src/main.c    ****         r++;
 400              		.loc 1 101 0
 401 01c4 3B6A     		ldr	r3, [r7, #32]
 402 01c6 0133     		adds	r3, r3, #1
 403 01c8 3B62     		str	r3, [r7, #32]
 102:src/main.c    ****         tmp /= 10;
 404              		.loc 1 102 0
 405 01ca 7B6A     		ldr	r3, [r7, #36]
 406 01cc 154A     		ldr	r2, .L26
 407 01ce 82FB0312 		smull	r1, r2, r2, r3
 408 01d2 9210     		asrs	r2, r2, #2
 409 01d4 DB17     		asrs	r3, r3, #31
 410 01d6 D31A     		subs	r3, r2, r3
 411 01d8 7B62     		str	r3, [r7, #36]
 412              	.L20:
  99:src/main.c    ****         data[r] = tmp % 10;
 413              		.loc 1 99 0
 414 01da 7B6A     		ldr	r3, [r7, #36]
 415 01dc 002B     		cmp	r3, #0
 416 01de DEDC     		bgt	.L21
 103:src/main.c    ****     }
 104:src/main.c    ****     for (i = r-1; i >= 0; --i) {
 417              		.loc 1 104 0
 418 01e0 3B6A     		ldr	r3, [r7, #32]
 419 01e2 013B     		subs	r3, r3, #1
 420 01e4 FB61     		str	r3, [r7, #28]
 421 01e6 0FE0     		b	.L22
 422              	.L23:
 105:src/main.c    ****         Uartx_PutChar(data[i]+'0');
 423              		.loc 1 105 0 discriminator 3
 424 01e8 FB69     		ldr	r3, [r7, #28]
 425 01ea 9B00     		lsls	r3, r3, #2
 426 01ec 07F12802 		add	r2, r7, #40
 427 01f0 1344     		add	r3, r3, r2
 428 01f2 53F8203C 		ldr	r3, [r3, #-32]
 429 01f6 DBB2     		uxtb	r3, r3
 430 01f8 3033     		adds	r3, r3, #48
 431 01fa DBB2     		uxtb	r3, r3
 432 01fc 1846     		mov	r0, r3
 433 01fe FFF7FEFF 		bl	Uartx_PutChar
 104:src/main.c    ****         Uartx_PutChar(data[i]+'0');
 434              		.loc 1 104 0 discriminator 3
 435 0202 FB69     		ldr	r3, [r7, #28]
 436 0204 013B     		subs	r3, r3, #1
 437 0206 FB61     		str	r3, [r7, #28]
 438              	.L22:
 104:src/main.c    ****         Uartx_PutChar(data[i]+'0');
 439              		.loc 1 104 0 is_stmt 0 discriminator 1
 440 0208 FB69     		ldr	r3, [r7, #28]
 441 020a 002B     		cmp	r3, #0
 442 020c ECDA     		bge	.L23
 106:src/main.c    ****     }
 107:src/main.c    ****     if(r==0){
ARM GAS  /tmp/ccPeiUWo.s 			page 11


 443              		.loc 1 107 0 is_stmt 1
 444 020e 3B6A     		ldr	r3, [r7, #32]
 445 0210 002B     		cmp	r3, #0
 446 0212 02D1     		bne	.L24
 108:src/main.c    ****         Uartx_PutChar('0');
 447              		.loc 1 108 0
 448 0214 3020     		movs	r0, #48
 449 0216 FFF7FEFF 		bl	Uartx_PutChar
 450              	.L24:
 109:src/main.c    ****     }
 110:src/main.c    ****     return 0;
 451              		.loc 1 110 0
 452 021a 0023     		movs	r3, #0
 111:src/main.c    **** }
 453              		.loc 1 111 0
 454 021c 1846     		mov	r0, r3
 455 021e 2837     		adds	r7, r7, #40
 456              		.cfi_def_cfa_offset 8
 457 0220 BD46     		mov	sp, r7
 458              		.cfi_def_cfa_register 13
 459              		@ sp needed
 460 0222 80BD     		pop	{r7, pc}
 461              	.L27:
 462              		.align	2
 463              	.L26:
 464 0224 67666666 		.word	1717986919
 465              		.cfi_endproc
 466              	.LFE67:
 467              		.size	usart_send_num, .-usart_send_num
 468              		.align	1
 469              		.global	printf
 470              		.syntax unified
 471              		.thumb
 472              		.thumb_func
 473              		.fpu softvfp
 474              		.type	printf, %function
 475              	printf:
 476              	.LFB68:
 112:src/main.c    **** 
 113:src/main.c    **** int printf(char *fmt, ...)
 114:src/main.c    **** {
 477              		.loc 1 114 0
 478              		.cfi_startproc
 479              		@ args = 4, pretend = 16, frame = 8
 480              		@ frame_needed = 1, uses_anonymous_args = 1
 481 0228 0FB4     		push	{r0, r1, r2, r3}
 482              		.cfi_def_cfa_offset 16
 483              		.cfi_offset 0, -16
 484              		.cfi_offset 1, -12
 485              		.cfi_offset 2, -8
 486              		.cfi_offset 3, -4
 487 022a 80B5     		push	{r7, lr}
 488              		.cfi_def_cfa_offset 24
 489              		.cfi_offset 7, -24
 490              		.cfi_offset 14, -20
 491 022c 82B0     		sub	sp, sp, #8
 492              		.cfi_def_cfa_offset 32
ARM GAS  /tmp/ccPeiUWo.s 			page 12


 493 022e 00AF     		add	r7, sp, #0
 494              		.cfi_def_cfa_register 7
 115:src/main.c    ****      char *p = (char *)&fmt + sizeof(fmt);
 495              		.loc 1 115 0
 496 0230 07F11403 		add	r3, r7, #20
 497 0234 7B60     		str	r3, [r7, #4]
 116:src/main.c    ****      uint8_t temp = 0;
 498              		.loc 1 116 0
 499 0236 0023     		movs	r3, #0
 500 0238 FB70     		strb	r3, [r7, #3]
 501              	.L34:
 117:src/main.c    ****      while (1) {
 118:src/main.c    ****         temp = *fmt;
 502              		.loc 1 118 0
 503 023a 3B69     		ldr	r3, [r7, #16]
 504 023c 1B78     		ldrb	r3, [r3]
 505 023e FB70     		strb	r3, [r7, #3]
 119:src/main.c    ****         if (temp == '\0')
 506              		.loc 1 119 0
 507 0240 FB78     		ldrb	r3, [r7, #3]	@ zero_extendqisi2
 508 0242 002B     		cmp	r3, #0
 509 0244 1AD0     		beq	.L37
 120:src/main.c    ****             break;
 121:src/main.c    ****         /*else if (temp == '\\')*/
 122:src/main.c    ****             /*Uartx_PutChar(*++fmt);*/
 123:src/main.c    ****         else if (temp == '%') {
 510              		.loc 1 123 0
 511 0246 FB78     		ldrb	r3, [r7, #3]	@ zero_extendqisi2
 512 0248 252B     		cmp	r3, #37
 513 024a 0FD1     		bne	.L31
 124:src/main.c    ****             fmt++;
 514              		.loc 1 124 0
 515 024c 3B69     		ldr	r3, [r7, #16]
 516 024e 0133     		adds	r3, r3, #1
 517 0250 3B61     		str	r3, [r7, #16]
 125:src/main.c    ****             if (*fmt == 'd')
 518              		.loc 1 125 0
 519 0252 3B69     		ldr	r3, [r7, #16]
 520 0254 1B78     		ldrb	r3, [r3]	@ zero_extendqisi2
 521 0256 642B     		cmp	r3, #100
 522 0258 04D1     		bne	.L32
 126:src/main.c    ****                 usart_send_num(*((int *)p));
 523              		.loc 1 126 0
 524 025a 7B68     		ldr	r3, [r7, #4]
 525 025c 1B68     		ldr	r3, [r3]
 526 025e 1846     		mov	r0, r3
 527 0260 FFF7FEFF 		bl	usart_send_num
 528              	.L32:
 127:src/main.c    ****             p += sizeof(int);
 529              		.loc 1 127 0
 530 0264 7B68     		ldr	r3, [r7, #4]
 531 0266 0433     		adds	r3, r3, #4
 532 0268 7B60     		str	r3, [r7, #4]
 533 026a 03E0     		b	.L33
 534              	.L31:
 128:src/main.c    ****         }else{
 129:src/main.c    ****             Uartx_PutChar(temp);
ARM GAS  /tmp/ccPeiUWo.s 			page 13


 535              		.loc 1 129 0
 536 026c FB78     		ldrb	r3, [r7, #3]	@ zero_extendqisi2
 537 026e 1846     		mov	r0, r3
 538 0270 FFF7FEFF 		bl	Uartx_PutChar
 539              	.L33:
 130:src/main.c    ****         }
 131:src/main.c    ****         fmt++;
 540              		.loc 1 131 0
 541 0274 3B69     		ldr	r3, [r7, #16]
 542 0276 0133     		adds	r3, r3, #1
 543 0278 3B61     		str	r3, [r7, #16]
 118:src/main.c    ****         if (temp == '\0')
 544              		.loc 1 118 0
 545 027a DEE7     		b	.L34
 546              	.L37:
 120:src/main.c    ****         /*else if (temp == '\\')*/
 547              		.loc 1 120 0
 548 027c 00BF     		nop
 132:src/main.c    ****     }
 133:src/main.c    ****    return 0;
 549              		.loc 1 133 0
 550 027e 0023     		movs	r3, #0
 134:src/main.c    **** }
 551              		.loc 1 134 0
 552 0280 1846     		mov	r0, r3
 553 0282 0837     		adds	r7, r7, #8
 554              		.cfi_def_cfa_offset 24
 555 0284 BD46     		mov	sp, r7
 556              		.cfi_def_cfa_register 13
 557              		@ sp needed
 558 0286 BDE88040 		pop	{r7, lr}
 559              		.cfi_restore 14
 560              		.cfi_restore 7
 561              		.cfi_def_cfa_offset 16
 562 028a 04B0     		add	sp, sp, #16
 563              		.cfi_restore 3
 564              		.cfi_restore 2
 565              		.cfi_restore 1
 566              		.cfi_restore 0
 567              		.cfi_def_cfa_offset 0
 568 028c 7047     		bx	lr
 569              		.cfi_endproc
 570              	.LFE68:
 571              		.size	printf, .-printf
 572              		.align	1
 573              		.global	Uartx_PutChar
 574              		.syntax unified
 575              		.thumb
 576              		.thumb_func
 577              		.fpu softvfp
 578              		.type	Uartx_PutChar, %function
 579              	Uartx_PutChar:
 580              	.LFB69:
 135:src/main.c    **** 
 136:src/main.c    **** 
 137:src/main.c    **** u8 Uartx_PutChar(u8 ch)
 138:src/main.c    **** {
ARM GAS  /tmp/ccPeiUWo.s 			page 14


 581              		.loc 1 138 0
 582              		.cfi_startproc
 583              		@ args = 0, pretend = 0, frame = 8
 584              		@ frame_needed = 1, uses_anonymous_args = 0
 585 028e 80B5     		push	{r7, lr}
 586              		.cfi_def_cfa_offset 8
 587              		.cfi_offset 7, -8
 588              		.cfi_offset 14, -4
 589 0290 82B0     		sub	sp, sp, #8
 590              		.cfi_def_cfa_offset 16
 591 0292 00AF     		add	r7, sp, #0
 592              		.cfi_def_cfa_register 7
 593 0294 0346     		mov	r3, r0
 594 0296 FB71     		strb	r3, [r7, #7]
 139:src/main.c    ****    /* Write a character to the USART */
 140:src/main.c    ****    USART_SendData(USARTx, (u8) ch);
 595              		.loc 1 140 0
 596 0298 FB79     		ldrb	r3, [r7, #7]	@ zero_extendqisi2
 597 029a 9BB2     		uxth	r3, r3
 598 029c 1946     		mov	r1, r3
 599 029e 0848     		ldr	r0, .L41
 600 02a0 FFF7FEFF 		bl	USART_SendData
 141:src/main.c    ****    while(USART_GetFlagStatus(USARTx, USART_FLAG_TXE) == RESET) {
 601              		.loc 1 141 0
 602 02a4 00BF     		nop
 603              	.L39:
 604              		.loc 1 141 0 is_stmt 0 discriminator 1
 605 02a6 8021     		movs	r1, #128
 606 02a8 0548     		ldr	r0, .L41
 607 02aa FFF7FEFF 		bl	USART_GetFlagStatus
 608 02ae 0346     		mov	r3, r0
 609 02b0 002B     		cmp	r3, #0
 610 02b2 F8D0     		beq	.L39
 142:src/main.c    ****    }
 143:src/main.c    ****    return ch;
 611              		.loc 1 143 0 is_stmt 1
 612 02b4 FB79     		ldrb	r3, [r7, #7]	@ zero_extendqisi2
 144:src/main.c    **** }
 613              		.loc 1 144 0
 614 02b6 1846     		mov	r0, r3
 615 02b8 0837     		adds	r7, r7, #8
 616              		.cfi_def_cfa_offset 8
 617 02ba BD46     		mov	sp, r7
 618              		.cfi_def_cfa_register 13
 619              		@ sp needed
 620 02bc 80BD     		pop	{r7, pc}
 621              	.L42:
 622 02be 00BF     		.align	2
 623              	.L41:
 624 02c0 00440040 		.word	1073759232
 625              		.cfi_endproc
 626              	.LFE69:
 627              		.size	Uartx_PutChar, .-Uartx_PutChar
 628              		.align	1
 629              		.global	USART_Configuration
 630              		.syntax unified
 631              		.thumb
ARM GAS  /tmp/ccPeiUWo.s 			page 15


 632              		.thumb_func
 633              		.fpu softvfp
 634              		.type	USART_Configuration, %function
 635              	USART_Configuration:
 636              	.LFB70:
 145:src/main.c    **** 
 146:src/main.c    **** 
 147:src/main.c    **** void USART_Configuration(void)
 148:src/main.c    **** {
 637              		.loc 1 148 0
 638              		.cfi_startproc
 639              		@ args = 0, pretend = 0, frame = 16
 640              		@ frame_needed = 1, uses_anonymous_args = 0
 641 02c4 80B5     		push	{r7, lr}
 642              		.cfi_def_cfa_offset 8
 643              		.cfi_offset 7, -8
 644              		.cfi_offset 14, -4
 645 02c6 84B0     		sub	sp, sp, #16
 646              		.cfi_def_cfa_offset 24
 647 02c8 00AF     		add	r7, sp, #0
 648              		.cfi_def_cfa_register 7
 149:src/main.c    ****   USART_InitTypeDef USART_InitStructure;
 150:src/main.c    ****   //串口配置： 波特率 115200 数据位 8 停止位 1  奇偶位 NONE  
 151:src/main.c    ****   USART_InitStructure.USART_BaudRate = 115200;
 649              		.loc 1 151 0
 650 02ca 4FF4E133 		mov	r3, #115200
 651 02ce 3B60     		str	r3, [r7]
 152:src/main.c    ****   USART_InitStructure.USART_WordLength = USART_WordLength_8b;
 652              		.loc 1 152 0
 653 02d0 0023     		movs	r3, #0
 654 02d2 BB80     		strh	r3, [r7, #4]	@ movhi
 153:src/main.c    ****   USART_InitStructure.USART_StopBits = USART_StopBits_1;
 655              		.loc 1 153 0
 656 02d4 0023     		movs	r3, #0
 657 02d6 FB80     		strh	r3, [r7, #6]	@ movhi
 154:src/main.c    ****   USART_InitStructure.USART_Parity =  USART_Parity_No ;
 658              		.loc 1 154 0
 659 02d8 0023     		movs	r3, #0
 660 02da 3B81     		strh	r3, [r7, #8]	@ movhi
 155:src/main.c    ****   USART_InitStructure.USART_HardwareFlowControl = USART_HardwareFlowControl_None;
 661              		.loc 1 155 0
 662 02dc 0023     		movs	r3, #0
 663 02de BB81     		strh	r3, [r7, #12]	@ movhi
 156:src/main.c    ****   USART_InitStructure.USART_Mode = USART_Mode_Rx | USART_Mode_Tx;
 664              		.loc 1 156 0
 665 02e0 0C23     		movs	r3, #12
 666 02e2 7B81     		strh	r3, [r7, #10]	@ movhi
 157:src/main.c    ****     //初始化串口
 158:src/main.c    ****   USART_Init(USARTx, &USART_InitStructure);
 667              		.loc 1 158 0
 668 02e4 3B46     		mov	r3, r7
 669 02e6 1946     		mov	r1, r3
 670 02e8 0548     		ldr	r0, .L44
 671 02ea FFF7FEFF 		bl	USART_Init
 159:src/main.c    ****   //启动串口
 160:src/main.c    ****   USART_Cmd(USARTx, ENABLE);
 672              		.loc 1 160 0
ARM GAS  /tmp/ccPeiUWo.s 			page 16


 673 02ee 0121     		movs	r1, #1
 674 02f0 0348     		ldr	r0, .L44
 675 02f2 FFF7FEFF 		bl	USART_Cmd
 161:src/main.c    **** }
 676              		.loc 1 161 0
 677 02f6 00BF     		nop
 678 02f8 1037     		adds	r7, r7, #16
 679              		.cfi_def_cfa_offset 8
 680 02fa BD46     		mov	sp, r7
 681              		.cfi_def_cfa_register 13
 682              		@ sp needed
 683 02fc 80BD     		pop	{r7, pc}
 684              	.L45:
 685 02fe 00BF     		.align	2
 686              	.L44:
 687 0300 00440040 		.word	1073759232
 688              		.cfi_endproc
 689              	.LFE70:
 690              		.size	USART_Configuration, .-USART_Configuration
 691              		.align	1
 692              		.global	RCC_Configuration
 693              		.syntax unified
 694              		.thumb
 695              		.thumb_func
 696              		.fpu softvfp
 697              		.type	RCC_Configuration, %function
 698              	RCC_Configuration:
 699              	.LFB71:
 162:src/main.c    **** 
 163:src/main.c    **** void RCC_Configuration(void)
 164:src/main.c    **** {
 700              		.loc 1 164 0
 701              		.cfi_startproc
 702              		@ args = 0, pretend = 0, frame = 0
 703              		@ frame_needed = 1, uses_anonymous_args = 0
 704 0304 80B5     		push	{r7, lr}
 705              		.cfi_def_cfa_offset 8
 706              		.cfi_offset 7, -8
 707              		.cfi_offset 14, -4
 708 0306 00AF     		add	r7, sp, #0
 709              		.cfi_def_cfa_register 7
 165:src/main.c    ****   //复位RCC外部设备寄存器到默认值
 166:src/main.c    ****   RCC_DeInit();  
 710              		.loc 1 166 0
 711 0308 FFF7FEFF 		bl	RCC_DeInit
 167:src/main.c    ****   //打开外部高速晶振
 168:src/main.c    ****   RCC_HSEConfig(RCC_HSE_ON); 
 712              		.loc 1 168 0
 713 030c 4FF48030 		mov	r0, #65536
 714 0310 FFF7FEFF 		bl	RCC_HSEConfig
 169:src/main.c    ****  //等待外部高速时钟准备好
 170:src/main.c    ****   HSEStartUpStatus = RCC_WaitForHSEStartUp(); 
 715              		.loc 1 170 0
 716 0314 FFF7FEFF 		bl	RCC_WaitForHSEStartUp
 717 0318 0346     		mov	r3, r0
 718 031a 1A46     		mov	r2, r3
 719 031c 204B     		ldr	r3, .L50
ARM GAS  /tmp/ccPeiUWo.s 			page 17


 720 031e 1A70     		strb	r2, [r3]
 171:src/main.c    ****   //外部高速时钟已经准别好
 172:src/main.c    ****   if(HSEStartUpStatus == SUCCESS)  
 721              		.loc 1 172 0
 722 0320 1F4B     		ldr	r3, .L50
 723 0322 1B78     		ldrb	r3, [r3]	@ zero_extendqisi2
 724 0324 012B     		cmp	r3, #1
 725 0326 30D1     		bne	.L47
 173:src/main.c    ****   {
 174:src/main.c    ****     FLASH_PrefetchBufferCmd(FLASH_PrefetchBuffer_Enable);
 726              		.loc 1 174 0
 727 0328 1020     		movs	r0, #16
 728 032a FFF7FEFF 		bl	FLASH_PrefetchBufferCmd
 175:src/main.c    ****     FLASH_SetLatency(FLASH_Latency_2);
 729              		.loc 1 175 0
 730 032e 0220     		movs	r0, #2
 731 0330 FFF7FEFF 		bl	FLASH_SetLatency
 176:src/main.c    ****    //配置AHB(HCLK)时钟=SYSCLK
 177:src/main.c    ****     RCC_HCLKConfig(RCC_SYSCLK_Div1);
 732              		.loc 1 177 0
 733 0334 0020     		movs	r0, #0
 734 0336 FFF7FEFF 		bl	RCC_HCLKConfig
 178:src/main.c    ****     //配置APB2(PCLK2)钟=AHB时钟
 179:src/main.c    ****     RCC_PCLK2Config(RCC_HCLK_Div1); 
 735              		.loc 1 179 0
 736 033a 0020     		movs	r0, #0
 737 033c FFF7FEFF 		bl	RCC_PCLK2Config
 180:src/main.c    ****     //配置APB1(PCLK1)钟=AHB 1/2时钟
 181:src/main.c    ****     RCC_PCLK1Config(RCC_HCLK_Div2);  
 738              		.loc 1 181 0
 739 0340 4FF48060 		mov	r0, #1024
 740 0344 FFF7FEFF 		bl	RCC_PCLK1Config
 182:src/main.c    ****     //配置ADC时钟=PCLK2 1/4
 183:src/main.c    ****     RCC_ADCCLKConfig(RCC_PCLK2_Div4); 
 741              		.loc 1 183 0
 742 0348 4FF48040 		mov	r0, #16384
 743 034c FFF7FEFF 		bl	RCC_ADCCLKConfig
 184:src/main.c    ****     //配置PLL时钟 == 外部高速晶体时钟*9
 185:src/main.c    ****     RCC_PLLConfig(RCC_PLLSource_HSE_Div1, RCC_PLLMul_9); 
 744              		.loc 1 185 0
 745 0350 4FF4E011 		mov	r1, #1835008
 746 0354 4FF48030 		mov	r0, #65536
 747 0358 FFF7FEFF 		bl	RCC_PLLConfig
 186:src/main.c    **** 	//配置ADC时钟= PCLK2/4
 187:src/main.c    ****     RCC_ADCCLKConfig(RCC_PCLK2_Div4);
 748              		.loc 1 187 0
 749 035c 4FF48040 		mov	r0, #16384
 750 0360 FFF7FEFF 		bl	RCC_ADCCLKConfig
 188:src/main.c    ****    //使能PLL时钟
 189:src/main.c    ****     RCC_PLLCmd(ENABLE);  
 751              		.loc 1 189 0
 752 0364 0120     		movs	r0, #1
 753 0366 FFF7FEFF 		bl	RCC_PLLCmd
 190:src/main.c    ****    //等待PLL时钟就绪
 191:src/main.c    ****     while(RCC_GetFlagStatus(RCC_FLAG_PLLRDY) == RESET)  {
 754              		.loc 1 191 0
 755 036a 00BF     		nop
ARM GAS  /tmp/ccPeiUWo.s 			page 18


 756              	.L48:
 757              		.loc 1 191 0 is_stmt 0 discriminator 1
 758 036c 3920     		movs	r0, #57
 759 036e FFF7FEFF 		bl	RCC_GetFlagStatus
 760 0372 0346     		mov	r3, r0
 761 0374 002B     		cmp	r3, #0
 762 0376 F9D0     		beq	.L48
 192:src/main.c    ****     }
 193:src/main.c    ****     //配置系统时钟 = PLL时钟
 194:src/main.c    ****     RCC_SYSCLKConfig(RCC_SYSCLKSource_PLLCLK); 
 763              		.loc 1 194 0 is_stmt 1
 764 0378 0220     		movs	r0, #2
 765 037a FFF7FEFF 		bl	RCC_SYSCLKConfig
 195:src/main.c    ****    //检查PLL时钟是否作为系统时钟
 196:src/main.c    ****     while(RCC_GetSYSCLKSource() != 0x08)  {
 766              		.loc 1 196 0
 767 037e 00BF     		nop
 768              	.L49:
 769              		.loc 1 196 0 is_stmt 0 discriminator 1
 770 0380 FFF7FEFF 		bl	RCC_GetSYSCLKSource
 771 0384 0346     		mov	r3, r0
 772 0386 082B     		cmp	r3, #8
 773 0388 FAD1     		bne	.L49
 774              	.L47:
 197:src/main.c    ****     }
 198:src/main.c    ****   }
 199:src/main.c    ****     
 200:src/main.c    ****   //Enable GPIO timer
 201:src/main.c    ****   RCC_APB2PeriphClockCmd(RCC_APB2Periph_GPIOx, ENABLE);
 775              		.loc 1 201 0 is_stmt 1
 776 038a 0121     		movs	r1, #1
 777 038c 0420     		movs	r0, #4
 778 038e FFF7FEFF 		bl	RCC_APB2PeriphClockCmd
 202:src/main.c    **** 
 203:src/main.c    ****   //Enable serial timer
 204:src/main.c    ****   RCC_APB1PeriphClockCmd(RCC_APB1Periph_USART2, ENABLE);
 779              		.loc 1 204 0
 780 0392 0121     		movs	r1, #1
 781 0394 4FF40030 		mov	r0, #131072
 782 0398 FFF7FEFF 		bl	RCC_APB1PeriphClockCmd
 205:src/main.c    **** 
 206:src/main.c    **** }
 783              		.loc 1 206 0
 784 039c 00BF     		nop
 785 039e 80BD     		pop	{r7, pc}
 786              	.L51:
 787              		.align	2
 788              	.L50:
 789 03a0 00000000 		.word	HSEStartUpStatus
 790              		.cfi_endproc
 791              	.LFE71:
 792              		.size	RCC_Configuration, .-RCC_Configuration
 793              		.align	1
 794              		.global	TIM_Configuration
 795              		.syntax unified
 796              		.thumb
 797              		.thumb_func
ARM GAS  /tmp/ccPeiUWo.s 			page 19


 798              		.fpu softvfp
 799              		.type	TIM_Configuration, %function
 800              	TIM_Configuration:
 801              	.LFB72:
 207:src/main.c    **** 
 208:src/main.c    **** void TIM_Configuration(void)
 209:src/main.c    **** {
 802              		.loc 1 209 0
 803              		.cfi_startproc
 804              		@ args = 0, pretend = 0, frame = 16
 805              		@ frame_needed = 1, uses_anonymous_args = 0
 806 03a4 80B5     		push	{r7, lr}
 807              		.cfi_def_cfa_offset 8
 808              		.cfi_offset 7, -8
 809              		.cfi_offset 14, -4
 810 03a6 84B0     		sub	sp, sp, #16
 811              		.cfi_def_cfa_offset 24
 812 03a8 00AF     		add	r7, sp, #0
 813              		.cfi_def_cfa_register 7
 210:src/main.c    ****   TIM_TimeBaseInitTypeDef  TIM_TimeBaseStructure;
 211:src/main.c    **** 
 212:src/main.c    ****   RCC_APB1PeriphClockCmd(RCC_APB1Periph_TIM2, ENABLE); //配置RCC，使能TIMx
 814              		.loc 1 212 0
 815 03aa 0121     		movs	r1, #1
 816 03ac 0120     		movs	r0, #1
 817 03ae FFF7FEFF 		bl	RCC_APB1PeriphClockCmd
 213:src/main.c    ****   /* Time Base configuration */
 214:src/main.c    ****   TIM_TimeBaseStructure.TIM_Prescaler = 35;  //时钟预分频数 例如:时钟频率=72/(时钟预
 818              		.loc 1 214 0
 819 03b2 2323     		movs	r3, #35
 820 03b4 BB80     		strh	r3, [r7, #4]	@ movhi
 215:src/main.c    ****   TIM_TimeBaseStructure.TIM_CounterMode = TIM_CounterMode_Up; ////定时器模式 向上计数  
 821              		.loc 1 215 0
 822 03b6 0023     		movs	r3, #0
 823 03b8 FB80     		strh	r3, [r7, #6]	@ movhi
 216:src/main.c    ****   TIM_TimeBaseStructure.TIM_Period = 1;//自动重装载寄存器周期的值(定时时间)累计 0
 824              		.loc 1 216 0
 825 03ba 0123     		movs	r3, #1
 826 03bc 3B81     		strh	r3, [r7, #8]	@ movhi
 217:src/main.c    ****   TIM_TimeBaseStructure.TIM_ClockDivision = 0; ////时间分割值  
 827              		.loc 1 217 0
 828 03be 0023     		movs	r3, #0
 829 03c0 7B81     		strh	r3, [r7, #10]	@ movhi
 218:src/main.c    ****   TIM_TimeBaseStructure.TIM_RepetitionCounter = 0;
 830              		.loc 1 218 0
 831 03c2 0023     		movs	r3, #0
 832 03c4 3B73     		strb	r3, [r7, #12]
 219:src/main.c    ****   TIM_TimeBaseInit(TIM2, &TIM_TimeBaseStructure); //初始化定时器2
 833              		.loc 1 219 0
 834 03c6 3B1D     		adds	r3, r7, #4
 835 03c8 1946     		mov	r1, r3
 836 03ca 4FF08040 		mov	r0, #1073741824
 837 03ce FFF7FEFF 		bl	TIM_TimeBaseInit
 220:src/main.c    ****   TIM_ClearFlag(TIM2, TIM_FLAG_Update);
 838              		.loc 1 220 0
 839 03d2 0121     		movs	r1, #1
 840 03d4 4FF08040 		mov	r0, #1073741824
ARM GAS  /tmp/ccPeiUWo.s 			page 20


 841 03d8 FFF7FEFF 		bl	TIM_ClearFlag
 221:src/main.c    ****   TIM_ITConfig(TIM2, TIM_IT_Update, ENABLE); //打开中断 溢出中断  
 842              		.loc 1 221 0
 843 03dc 0122     		movs	r2, #1
 844 03de 0121     		movs	r1, #1
 845 03e0 4FF08040 		mov	r0, #1073741824
 846 03e4 FFF7FEFF 		bl	TIM_ITConfig
 222:src/main.c    **** 
 223:src/main.c    **** }
 847              		.loc 1 223 0
 848 03e8 00BF     		nop
 849 03ea 1037     		adds	r7, r7, #16
 850              		.cfi_def_cfa_offset 8
 851 03ec BD46     		mov	sp, r7
 852              		.cfi_def_cfa_register 13
 853              		@ sp needed
 854 03ee 80BD     		pop	{r7, pc}
 855              		.cfi_endproc
 856              	.LFE72:
 857              		.size	TIM_Configuration, .-TIM_Configuration
 858              		.align	1
 859              		.global	GPIO_Configuration
 860              		.syntax unified
 861              		.thumb
 862              		.thumb_func
 863              		.fpu softvfp
 864              		.type	GPIO_Configuration, %function
 865              	GPIO_Configuration:
 866              	.LFB73:
 224:src/main.c    **** /*******************************************************************************
 225:src/main.c    **** * Function Name  : GPIO_Configuration
 226:src/main.c    **** * Description    : Configures the different GPIO ports.
 227:src/main.c    **** * Input          : None
 228:src/main.c    **** * Output         : None
 229:src/main.c    **** * Return         : None
 230:src/main.c    **** *******************************************************************************/
 231:src/main.c    **** void GPIO_Configuration(void)
 232:src/main.c    **** {
 867              		.loc 1 232 0
 868              		.cfi_startproc
 869              		@ args = 0, pretend = 0, frame = 8
 870              		@ frame_needed = 1, uses_anonymous_args = 0
 871 03f0 80B5     		push	{r7, lr}
 872              		.cfi_def_cfa_offset 8
 873              		.cfi_offset 7, -8
 874              		.cfi_offset 14, -4
 875 03f2 82B0     		sub	sp, sp, #8
 876              		.cfi_def_cfa_offset 16
 877 03f4 00AF     		add	r7, sp, #0
 878              		.cfi_def_cfa_register 7
 233:src/main.c    ****   GPIO_InitTypeDef GPIO_InitStructure;
 234:src/main.c    **** 
 235:src/main.c    ****   //开启AFIO时钟
 236:src/main.c    ****   RCC_APB2PeriphClockCmd(RCC_APB2Periph_AFIO, ENABLE);
 879              		.loc 1 236 0
 880 03f6 0121     		movs	r1, #1
 881 03f8 0120     		movs	r0, #1
ARM GAS  /tmp/ccPeiUWo.s 			page 21


 882 03fa FFF7FEFF 		bl	RCC_APB2PeriphClockCmd
 237:src/main.c    **** 
 238:src/main.c    ****    //配置USARTx_Tx为复合推挽输出
 239:src/main.c    ****   GPIO_InitStructure.GPIO_Pin = GPIO_TxPin;
 883              		.loc 1 239 0
 884 03fe 0423     		movs	r3, #4
 885 0400 BB80     		strh	r3, [r7, #4]	@ movhi
 240:src/main.c    ****   GPIO_InitStructure.GPIO_Speed = GPIO_Speed_50MHz;
 886              		.loc 1 240 0
 887 0402 0323     		movs	r3, #3
 888 0404 BB71     		strb	r3, [r7, #6]
 241:src/main.c    ****   GPIO_InitStructure.GPIO_Mode = GPIO_Mode_AF_PP;
 889              		.loc 1 241 0
 890 0406 1823     		movs	r3, #24
 891 0408 FB71     		strb	r3, [r7, #7]
 242:src/main.c    ****   GPIO_Init(GPIOx, &GPIO_InitStructure);
 892              		.loc 1 242 0
 893 040a 3B1D     		adds	r3, r7, #4
 894 040c 1946     		mov	r1, r3
 895 040e 1148     		ldr	r0, .L54
 896 0410 FFF7FEFF 		bl	GPIO_Init
 243:src/main.c    **** 
 244:src/main.c    ****   //配置 USARTx_Rx 为浮空输入
 245:src/main.c    ****   GPIO_InitStructure.GPIO_Pin = GPIO_RxPin;
 897              		.loc 1 245 0
 898 0414 0823     		movs	r3, #8
 899 0416 BB80     		strh	r3, [r7, #4]	@ movhi
 246:src/main.c    ****   GPIO_InitStructure.GPIO_Mode = GPIO_Mode_IN_FLOATING;
 900              		.loc 1 246 0
 901 0418 0423     		movs	r3, #4
 902 041a FB71     		strb	r3, [r7, #7]
 247:src/main.c    ****   GPIO_Init(GPIOx, &GPIO_InitStructure);
 903              		.loc 1 247 0
 904 041c 3B1D     		adds	r3, r7, #4
 905 041e 1946     		mov	r1, r3
 906 0420 0C48     		ldr	r0, .L54
 907 0422 FFF7FEFF 		bl	GPIO_Init
 248:src/main.c    **** 
 249:src/main.c    ****   //HC-SR02 
 250:src/main.c    ****   GPIO_InitStructure.GPIO_Pin = GPIO_Pin_1; 
 908              		.loc 1 250 0
 909 0426 0223     		movs	r3, #2
 910 0428 BB80     		strh	r3, [r7, #4]	@ movhi
 251:src/main.c    ****   GPIO_InitStructure.GPIO_Mode = GPIO_Mode_Out_PP;
 911              		.loc 1 251 0
 912 042a 1023     		movs	r3, #16
 913 042c FB71     		strb	r3, [r7, #7]
 252:src/main.c    ****   GPIO_Init(GPIOA, &GPIO_InitStructure);
 914              		.loc 1 252 0
 915 042e 3B1D     		adds	r3, r7, #4
 916 0430 1946     		mov	r1, r3
 917 0432 0848     		ldr	r0, .L54
 918 0434 FFF7FEFF 		bl	GPIO_Init
 253:src/main.c    ****   GPIO_InitStructure.GPIO_Pin = GPIO_Pin_0; 
 919              		.loc 1 253 0
 920 0438 0123     		movs	r3, #1
 921 043a BB80     		strh	r3, [r7, #4]	@ movhi
ARM GAS  /tmp/ccPeiUWo.s 			page 22


 254:src/main.c    ****   GPIO_InitStructure.GPIO_Mode = GPIO_Mode_IN_FLOATING;
 922              		.loc 1 254 0
 923 043c 0423     		movs	r3, #4
 924 043e FB71     		strb	r3, [r7, #7]
 255:src/main.c    ****   GPIO_Init(GPIOA, &GPIO_InitStructure);
 925              		.loc 1 255 0
 926 0440 3B1D     		adds	r3, r7, #4
 927 0442 1946     		mov	r1, r3
 928 0444 0348     		ldr	r0, .L54
 929 0446 FFF7FEFF 		bl	GPIO_Init
 256:src/main.c    **** 
 257:src/main.c    **** }
 930              		.loc 1 257 0
 931 044a 00BF     		nop
 932 044c 0837     		adds	r7, r7, #8
 933              		.cfi_def_cfa_offset 8
 934 044e BD46     		mov	sp, r7
 935              		.cfi_def_cfa_register 13
 936              		@ sp needed
 937 0450 80BD     		pop	{r7, pc}
 938              	.L55:
 939 0452 00BF     		.align	2
 940              	.L54:
 941 0454 00080140 		.word	1073809408
 942              		.cfi_endproc
 943              	.LFE73:
 944              		.size	GPIO_Configuration, .-GPIO_Configuration
 945              		.align	1
 946              		.global	NVIC_Configuration
 947              		.syntax unified
 948              		.thumb
 949              		.thumb_func
 950              		.fpu softvfp
 951              		.type	NVIC_Configuration, %function
 952              	NVIC_Configuration:
 953              	.LFB74:
 258:src/main.c    **** 
 259:src/main.c    **** /*******************************************************************************
 260:src/main.c    **** * Function Name  : NVIC_Configuration
 261:src/main.c    **** * Description    : Configures Vector Table base location.
 262:src/main.c    **** * Input          : None
 263:src/main.c    **** * Output         : None
 264:src/main.c    **** * Return         : None
 265:src/main.c    **** *******************************************************************************/
 266:src/main.c    **** void NVIC_Configuration(void)
 267:src/main.c    **** { 
 954              		.loc 1 267 0
 955              		.cfi_startproc
 956              		@ args = 0, pretend = 0, frame = 8
 957              		@ frame_needed = 1, uses_anonymous_args = 0
 958 0458 80B5     		push	{r7, lr}
 959              		.cfi_def_cfa_offset 8
 960              		.cfi_offset 7, -8
 961              		.cfi_offset 14, -4
 962 045a 82B0     		sub	sp, sp, #8
 963              		.cfi_def_cfa_offset 16
 964 045c 00AF     		add	r7, sp, #0
ARM GAS  /tmp/ccPeiUWo.s 			page 23


 965              		.cfi_def_cfa_register 7
 268:src/main.c    ****   NVIC_InitTypeDef NVIC_InitStructure;
 269:src/main.c    **** #ifdef  VECT_TAB_RAM  
 270:src/main.c    ****   /* Set the Vector Table base location at 0x20000000 */ 
 271:src/main.c    ****   NVIC_SetVectorTable(NVIC_VectTab_RAM, 0x0); 
 272:src/main.c    **** #else  /* VECT_TAB_FLASH  */
 273:src/main.c    ****   /* Set the Vector Table base location at 0x08000000 */ 
 274:src/main.c    ****   NVIC_SetVectorTable(NVIC_VectTab_FLASH, 0x0);   
 966              		.loc 1 274 0
 967 045e 0021     		movs	r1, #0
 968 0460 4FF00060 		mov	r0, #134217728
 969 0464 FFF7FEFF 		bl	NVIC_SetVectorTable
 275:src/main.c    **** #endif
 276:src/main.c    ****   /* Enable the TIM2 Interrupt */
 277:src/main.c    ****   NVIC_InitStructure.NVIC_IRQChannel = TIM2_IRQChannel;
 970              		.loc 1 277 0
 971 0468 1C23     		movs	r3, #28
 972 046a 3B71     		strb	r3, [r7, #4]
 278:src/main.c    ****   NVIC_InitStructure.NVIC_IRQChannelPreemptionPriority = 0;
 973              		.loc 1 278 0
 974 046c 0023     		movs	r3, #0
 975 046e 7B71     		strb	r3, [r7, #5]
 279:src/main.c    ****   NVIC_InitStructure.NVIC_IRQChannelSubPriority = 0;
 976              		.loc 1 279 0
 977 0470 0023     		movs	r3, #0
 978 0472 BB71     		strb	r3, [r7, #6]
 280:src/main.c    ****   NVIC_InitStructure.NVIC_IRQChannelCmd = ENABLE;
 979              		.loc 1 280 0
 980 0474 0123     		movs	r3, #1
 981 0476 FB71     		strb	r3, [r7, #7]
 281:src/main.c    ****   NVIC_Init(&NVIC_InitStructure);
 982              		.loc 1 281 0
 983 0478 3B1D     		adds	r3, r7, #4
 984 047a 1846     		mov	r0, r3
 985 047c FFF7FEFF 		bl	NVIC_Init
 282:src/main.c    **** 
 283:src/main.c    ****   //NVIC_SystemHandlerPriorityConfig(SystemHandler_SysTick, 0, 0);
 284:src/main.c    **** }
 986              		.loc 1 284 0
 987 0480 00BF     		nop
 988 0482 0837     		adds	r7, r7, #8
 989              		.cfi_def_cfa_offset 8
 990 0484 BD46     		mov	sp, r7
 991              		.cfi_def_cfa_register 13
 992              		@ sp needed
 993 0486 80BD     		pop	{r7, pc}
 994              		.cfi_endproc
 995              	.LFE74:
 996              		.size	NVIC_Configuration, .-NVIC_Configuration
 997              	.Letext0:
 998              		.file 2 "/usr/arm-none-eabi/include/machine/_default_types.h"
 999              		.file 3 "/usr/arm-none-eabi/include/sys/_stdint.h"
 1000              		.file 4 "src/../include/core_cm3.h"
 1001              		.file 5 "src/../include/system_stm32f10x.h"
 1002              		.file 6 "src/../include/stm32f10x.h"
 1003              		.file 7 "src/../include/stm32f10x_gpio.h"
 1004              		.file 8 "src/../include/stm32f10x_tim.h"
ARM GAS  /tmp/ccPeiUWo.s 			page 24


 1005              		.file 9 "src/../include/stm32f10x_usart.h"
 1006              		.file 10 "src/../include/misc.h"