ARM GAS  /tmp/ccF5odmp.s 			page 1


   1              		.cpu cortex-m3
   2              		.eabi_attribute 20, 1
   3              		.eabi_attribute 21, 1
   4              		.eabi_attribute 23, 3
   5              		.eabi_attribute 24, 1
   6              		.eabi_attribute 25, 1
   7              		.eabi_attribute 26, 1
   8              		.eabi_attribute 30, 6
   9              		.eabi_attribute 34, 1
  10              		.eabi_attribute 18, 4
  11              		.file	"misc.c"
  12              		.text
  13              	.Ltext0:
  14              		.cfi_sections	.debug_frame
  15              		.align	1
  16              		.global	NVIC_PriorityGroupConfig
  17              		.syntax unified
  18              		.thumb
  19              		.thumb_func
  20              		.fpu softvfp
  21              		.type	NVIC_PriorityGroupConfig, %function
  22              	NVIC_PriorityGroupConfig:
  23              	.LFB63:
  24              		.file 1 "common/misc.c"
   1:common/misc.c **** /**
   2:common/misc.c ****   ******************************************************************************
   3:common/misc.c ****   * @file    misc.c
   4:common/misc.c ****   * @author  MCD Application Team
   5:common/misc.c ****   * @version V3.5.0
   6:common/misc.c ****   * @date    11-March-2011
   7:common/misc.c ****   * @brief   This file provides all the miscellaneous firmware functions (add-on
   8:common/misc.c ****   *          to CMSIS functions).
   9:common/misc.c ****   ******************************************************************************
  10:common/misc.c ****   * @attention
  11:common/misc.c ****   *
  12:common/misc.c ****   * THE PRESENT FIRMWARE WHICH IS FOR GUIDANCE ONLY AIMS AT PROVIDING CUSTOMERS
  13:common/misc.c ****   * WITH CODING INFORMATION REGARDING THEIR PRODUCTS IN ORDER FOR THEM TO SAVE
  14:common/misc.c ****   * TIME. AS A RESULT, STMICROELECTRONICS SHALL NOT BE HELD LIABLE FOR ANY
  15:common/misc.c ****   * DIRECT, INDIRECT OR CONSEQUENTIAL DAMAGES WITH RESPECT TO ANY CLAIMS ARISING
  16:common/misc.c ****   * FROM THE CONTENT OF SUCH FIRMWARE AND/OR THE USE MADE BY CUSTOMERS OF THE
  17:common/misc.c ****   * CODING INFORMATION CONTAINED HEREIN IN CONNECTION WITH THEIR PRODUCTS.
  18:common/misc.c ****   *
  19:common/misc.c ****   * <h2><center>&copy; COPYRIGHT 2011 STMicroelectronics</center></h2>
  20:common/misc.c ****   ******************************************************************************
  21:common/misc.c ****   */
  22:common/misc.c **** 
  23:common/misc.c **** /* Includes ------------------------------------------------------------------*/
  24:common/misc.c **** #include "misc.h"
  25:common/misc.c **** #include "stm32f10x_conf.h"
  26:common/misc.c **** 
  27:common/misc.c **** /** @addtogroup STM32F10x_StdPeriph_Driver
  28:common/misc.c ****   * @{
  29:common/misc.c ****   */
  30:common/misc.c **** 
  31:common/misc.c **** /** @defgroup MISC 
  32:common/misc.c ****   * @brief MISC driver modules
  33:common/misc.c ****   * @{
ARM GAS  /tmp/ccF5odmp.s 			page 2


  34:common/misc.c ****   */
  35:common/misc.c **** 
  36:common/misc.c **** /** @defgroup MISC_Private_TypesDefinitions
  37:common/misc.c ****   * @{
  38:common/misc.c ****   */
  39:common/misc.c **** 
  40:common/misc.c **** /**
  41:common/misc.c ****   * @}
  42:common/misc.c ****   */ 
  43:common/misc.c **** 
  44:common/misc.c **** /** @defgroup MISC_Private_Defines
  45:common/misc.c ****   * @{
  46:common/misc.c ****   */
  47:common/misc.c **** 
  48:common/misc.c **** #define AIRCR_VECTKEY_MASK    ((uint32_t)0x05FA0000)
  49:common/misc.c **** /**
  50:common/misc.c ****   * @}
  51:common/misc.c ****   */
  52:common/misc.c **** 
  53:common/misc.c **** /** @defgroup MISC_Private_Macros
  54:common/misc.c ****   * @{
  55:common/misc.c ****   */
  56:common/misc.c **** 
  57:common/misc.c **** /**
  58:common/misc.c ****   * @}
  59:common/misc.c ****   */
  60:common/misc.c **** 
  61:common/misc.c **** /** @defgroup MISC_Private_Variables
  62:common/misc.c ****   * @{
  63:common/misc.c ****   */
  64:common/misc.c **** 
  65:common/misc.c **** /**
  66:common/misc.c ****   * @}
  67:common/misc.c ****   */
  68:common/misc.c **** 
  69:common/misc.c **** /** @defgroup MISC_Private_FunctionPrototypes
  70:common/misc.c ****   * @{
  71:common/misc.c ****   */
  72:common/misc.c **** 
  73:common/misc.c **** /**
  74:common/misc.c ****   * @}
  75:common/misc.c ****   */
  76:common/misc.c **** 
  77:common/misc.c **** /** @defgroup MISC_Private_Functions
  78:common/misc.c ****   * @{
  79:common/misc.c ****   */
  80:common/misc.c **** 
  81:common/misc.c **** /**
  82:common/misc.c ****   * @brief  Configures the priority grouping: pre-emption priority and subpriority.
  83:common/misc.c ****   * @param  NVIC_PriorityGroup: specifies the priority grouping bits length. 
  84:common/misc.c ****   *   This parameter can be one of the following values:
  85:common/misc.c ****   *     @arg NVIC_PriorityGroup_0: 0 bits for pre-emption priority
  86:common/misc.c ****   *                                4 bits for subpriority
  87:common/misc.c ****   *     @arg NVIC_PriorityGroup_1: 1 bits for pre-emption priority
  88:common/misc.c ****   *                                3 bits for subpriority
  89:common/misc.c ****   *     @arg NVIC_PriorityGroup_2: 2 bits for pre-emption priority
  90:common/misc.c ****   *                                2 bits for subpriority
ARM GAS  /tmp/ccF5odmp.s 			page 3


  91:common/misc.c ****   *     @arg NVIC_PriorityGroup_3: 3 bits for pre-emption priority
  92:common/misc.c ****   *                                1 bits for subpriority
  93:common/misc.c ****   *     @arg NVIC_PriorityGroup_4: 4 bits for pre-emption priority
  94:common/misc.c ****   *                                0 bits for subpriority
  95:common/misc.c ****   * @retval None
  96:common/misc.c ****   */
  97:common/misc.c **** void NVIC_PriorityGroupConfig(uint32_t NVIC_PriorityGroup)
  98:common/misc.c **** {
  25              		.loc 1 98 0
  26              		.cfi_startproc
  27              		@ args = 0, pretend = 0, frame = 8
  28              		@ frame_needed = 1, uses_anonymous_args = 0
  29              		@ link register save eliminated.
  30 0000 80B4     		push	{r7}
  31              		.cfi_def_cfa_offset 4
  32              		.cfi_offset 7, -4
  33 0002 83B0     		sub	sp, sp, #12
  34              		.cfi_def_cfa_offset 16
  35 0004 00AF     		add	r7, sp, #0
  36              		.cfi_def_cfa_register 7
  37 0006 7860     		str	r0, [r7, #4]
  99:common/misc.c ****   /* Check the parameters */
 100:common/misc.c ****   assert_param(IS_NVIC_PRIORITY_GROUP(NVIC_PriorityGroup));
 101:common/misc.c ****   
 102:common/misc.c ****   /* Set the PRIGROUP[10:8] bits according to NVIC_PriorityGroup value */
 103:common/misc.c ****   SCB->AIRCR = AIRCR_VECTKEY_MASK | NVIC_PriorityGroup;
  38              		.loc 1 103 0
  39 0008 054A     		ldr	r2, .L2
  40 000a 7B68     		ldr	r3, [r7, #4]
  41 000c 43F0BF63 		orr	r3, r3, #100139008
  42 0010 43F40033 		orr	r3, r3, #131072
  43 0014 D360     		str	r3, [r2, #12]
 104:common/misc.c **** }
  44              		.loc 1 104 0
  45 0016 00BF     		nop
  46 0018 0C37     		adds	r7, r7, #12
  47              		.cfi_def_cfa_offset 4
  48 001a BD46     		mov	sp, r7
  49              		.cfi_def_cfa_register 13
  50              		@ sp needed
  51 001c 80BC     		pop	{r7}
  52              		.cfi_restore 7
  53              		.cfi_def_cfa_offset 0
  54 001e 7047     		bx	lr
  55              	.L3:
  56              		.align	2
  57              	.L2:
  58 0020 00ED00E0 		.word	-536810240
  59              		.cfi_endproc
  60              	.LFE63:
  61              		.size	NVIC_PriorityGroupConfig, .-NVIC_PriorityGroupConfig
  62              		.align	1
  63              		.global	NVIC_Init
  64              		.syntax unified
  65              		.thumb
  66              		.thumb_func
  67              		.fpu softvfp
ARM GAS  /tmp/ccF5odmp.s 			page 4


  68              		.type	NVIC_Init, %function
  69              	NVIC_Init:
  70              	.LFB64:
 105:common/misc.c **** 
 106:common/misc.c **** /**
 107:common/misc.c ****   * @brief  Initializes the NVIC peripheral according to the specified
 108:common/misc.c ****   *         parameters in the NVIC_InitStruct.
 109:common/misc.c ****   * @param  NVIC_InitStruct: pointer to a NVIC_InitTypeDef structure that contains
 110:common/misc.c ****   *         the configuration information for the specified NVIC peripheral.
 111:common/misc.c ****   * @retval None
 112:common/misc.c ****   */
 113:common/misc.c **** void NVIC_Init(NVIC_InitTypeDef* NVIC_InitStruct)
 114:common/misc.c **** {
  71              		.loc 1 114 0
  72              		.cfi_startproc
  73              		@ args = 0, pretend = 0, frame = 24
  74              		@ frame_needed = 1, uses_anonymous_args = 0
  75              		@ link register save eliminated.
  76 0024 80B4     		push	{r7}
  77              		.cfi_def_cfa_offset 4
  78              		.cfi_offset 7, -4
  79 0026 87B0     		sub	sp, sp, #28
  80              		.cfi_def_cfa_offset 32
  81 0028 00AF     		add	r7, sp, #0
  82              		.cfi_def_cfa_register 7
  83 002a 7860     		str	r0, [r7, #4]
 115:common/misc.c ****   uint32_t tmppriority = 0x00, tmppre = 0x00, tmpsub = 0x0F;
  84              		.loc 1 115 0
  85 002c 0023     		movs	r3, #0
  86 002e 7B61     		str	r3, [r7, #20]
  87 0030 0023     		movs	r3, #0
  88 0032 3B61     		str	r3, [r7, #16]
  89 0034 0F23     		movs	r3, #15
  90 0036 FB60     		str	r3, [r7, #12]
 116:common/misc.c ****   
 117:common/misc.c ****   /* Check the parameters */
 118:common/misc.c ****   assert_param(IS_FUNCTIONAL_STATE(NVIC_InitStruct->NVIC_IRQChannelCmd));
 119:common/misc.c ****   assert_param(IS_NVIC_PREEMPTION_PRIORITY(NVIC_InitStruct->NVIC_IRQChannelPreemptionPriority));  
 120:common/misc.c ****   assert_param(IS_NVIC_SUB_PRIORITY(NVIC_InitStruct->NVIC_IRQChannelSubPriority));
 121:common/misc.c ****     
 122:common/misc.c ****   if (NVIC_InitStruct->NVIC_IRQChannelCmd != DISABLE)
  91              		.loc 1 122 0
  92 0038 7B68     		ldr	r3, [r7, #4]
  93 003a DB78     		ldrb	r3, [r3, #3]	@ zero_extendqisi2
  94 003c 002B     		cmp	r3, #0
  95 003e 3AD0     		beq	.L5
 123:common/misc.c ****   {
 124:common/misc.c ****     /* Compute the Corresponding IRQ Priority --------------------------------*/    
 125:common/misc.c ****     tmppriority = (0x700 - ((SCB->AIRCR) & (uint32_t)0x700))>> 0x08;
  96              		.loc 1 125 0
  97 0040 274B     		ldr	r3, .L8
  98 0042 DB68     		ldr	r3, [r3, #12]
  99 0044 DB43     		mvns	r3, r3
 100 0046 1B0A     		lsrs	r3, r3, #8
 101 0048 03F00703 		and	r3, r3, #7
 102 004c 7B61     		str	r3, [r7, #20]
 126:common/misc.c ****     tmppre = (0x4 - tmppriority);
ARM GAS  /tmp/ccF5odmp.s 			page 5


 103              		.loc 1 126 0
 104 004e 7B69     		ldr	r3, [r7, #20]
 105 0050 C3F10403 		rsb	r3, r3, #4
 106 0054 3B61     		str	r3, [r7, #16]
 127:common/misc.c ****     tmpsub = tmpsub >> tmppriority;
 107              		.loc 1 127 0
 108 0056 FA68     		ldr	r2, [r7, #12]
 109 0058 7B69     		ldr	r3, [r7, #20]
 110 005a 22FA03F3 		lsr	r3, r2, r3
 111 005e FB60     		str	r3, [r7, #12]
 128:common/misc.c **** 
 129:common/misc.c ****     tmppriority = (uint32_t)NVIC_InitStruct->NVIC_IRQChannelPreemptionPriority << tmppre;
 112              		.loc 1 129 0
 113 0060 7B68     		ldr	r3, [r7, #4]
 114 0062 5B78     		ldrb	r3, [r3, #1]	@ zero_extendqisi2
 115 0064 1A46     		mov	r2, r3
 116 0066 3B69     		ldr	r3, [r7, #16]
 117 0068 02FA03F3 		lsl	r3, r2, r3
 118 006c 7B61     		str	r3, [r7, #20]
 130:common/misc.c ****     tmppriority |=  NVIC_InitStruct->NVIC_IRQChannelSubPriority & tmpsub;
 119              		.loc 1 130 0
 120 006e 7B68     		ldr	r3, [r7, #4]
 121 0070 9B78     		ldrb	r3, [r3, #2]	@ zero_extendqisi2
 122 0072 1A46     		mov	r2, r3
 123 0074 FB68     		ldr	r3, [r7, #12]
 124 0076 1340     		ands	r3, r3, r2
 125 0078 7A69     		ldr	r2, [r7, #20]
 126 007a 1343     		orrs	r3, r3, r2
 127 007c 7B61     		str	r3, [r7, #20]
 131:common/misc.c ****     tmppriority = tmppriority << 0x04;
 128              		.loc 1 131 0
 129 007e 7B69     		ldr	r3, [r7, #20]
 130 0080 1B01     		lsls	r3, r3, #4
 131 0082 7B61     		str	r3, [r7, #20]
 132:common/misc.c ****         
 133:common/misc.c ****     NVIC->IP[NVIC_InitStruct->NVIC_IRQChannel] = tmppriority;
 132              		.loc 1 133 0
 133 0084 174A     		ldr	r2, .L8+4
 134 0086 7B68     		ldr	r3, [r7, #4]
 135 0088 1B78     		ldrb	r3, [r3]	@ zero_extendqisi2
 136 008a 7969     		ldr	r1, [r7, #20]
 137 008c C9B2     		uxtb	r1, r1
 138 008e 1344     		add	r3, r3, r2
 139 0090 0A46     		mov	r2, r1
 140 0092 83F80023 		strb	r2, [r3, #768]
 134:common/misc.c ****     
 135:common/misc.c ****     /* Enable the Selected IRQ Channels --------------------------------------*/
 136:common/misc.c ****     NVIC->ISER[NVIC_InitStruct->NVIC_IRQChannel >> 0x05] =
 141              		.loc 1 136 0
 142 0096 134A     		ldr	r2, .L8+4
 143 0098 7B68     		ldr	r3, [r7, #4]
 144 009a 1B78     		ldrb	r3, [r3]	@ zero_extendqisi2
 145 009c 5B09     		lsrs	r3, r3, #5
 146 009e DBB2     		uxtb	r3, r3
 147 00a0 1846     		mov	r0, r3
 137:common/misc.c ****       (uint32_t)0x01 << (NVIC_InitStruct->NVIC_IRQChannel & (uint8_t)0x1F);
 148              		.loc 1 137 0
ARM GAS  /tmp/ccF5odmp.s 			page 6


 149 00a2 7B68     		ldr	r3, [r7, #4]
 150 00a4 1B78     		ldrb	r3, [r3]	@ zero_extendqisi2
 151 00a6 03F01F03 		and	r3, r3, #31
 152 00aa 0121     		movs	r1, #1
 153 00ac 01FA03F3 		lsl	r3, r1, r3
 136:common/misc.c ****       (uint32_t)0x01 << (NVIC_InitStruct->NVIC_IRQChannel & (uint8_t)0x1F);
 154              		.loc 1 136 0
 155 00b0 42F82030 		str	r3, [r2, r0, lsl #2]
 138:common/misc.c ****   }
 139:common/misc.c ****   else
 140:common/misc.c ****   {
 141:common/misc.c ****     /* Disable the Selected IRQ Channels -------------------------------------*/
 142:common/misc.c ****     NVIC->ICER[NVIC_InitStruct->NVIC_IRQChannel >> 0x05] =
 143:common/misc.c ****       (uint32_t)0x01 << (NVIC_InitStruct->NVIC_IRQChannel & (uint8_t)0x1F);
 144:common/misc.c ****   }
 145:common/misc.c **** }
 156              		.loc 1 145 0
 157 00b4 0FE0     		b	.L7
 158              	.L5:
 142:common/misc.c ****       (uint32_t)0x01 << (NVIC_InitStruct->NVIC_IRQChannel & (uint8_t)0x1F);
 159              		.loc 1 142 0
 160 00b6 0B49     		ldr	r1, .L8+4
 161 00b8 7B68     		ldr	r3, [r7, #4]
 162 00ba 1B78     		ldrb	r3, [r3]	@ zero_extendqisi2
 163 00bc 5B09     		lsrs	r3, r3, #5
 164 00be DBB2     		uxtb	r3, r3
 165 00c0 1846     		mov	r0, r3
 143:common/misc.c ****   }
 166              		.loc 1 143 0
 167 00c2 7B68     		ldr	r3, [r7, #4]
 168 00c4 1B78     		ldrb	r3, [r3]	@ zero_extendqisi2
 169 00c6 03F01F03 		and	r3, r3, #31
 170 00ca 0122     		movs	r2, #1
 171 00cc 9A40     		lsls	r2, r2, r3
 142:common/misc.c ****       (uint32_t)0x01 << (NVIC_InitStruct->NVIC_IRQChannel & (uint8_t)0x1F);
 172              		.loc 1 142 0
 173 00ce 00F12003 		add	r3, r0, #32
 174 00d2 41F82320 		str	r2, [r1, r3, lsl #2]
 175              	.L7:
 176              		.loc 1 145 0
 177 00d6 00BF     		nop
 178 00d8 1C37     		adds	r7, r7, #28
 179              		.cfi_def_cfa_offset 4
 180 00da BD46     		mov	sp, r7
 181              		.cfi_def_cfa_register 13
 182              		@ sp needed
 183 00dc 80BC     		pop	{r7}
 184              		.cfi_restore 7
 185              		.cfi_def_cfa_offset 0
 186 00de 7047     		bx	lr
 187              	.L9:
 188              		.align	2
 189              	.L8:
 190 00e0 00ED00E0 		.word	-536810240
 191 00e4 00E100E0 		.word	-536813312
 192              		.cfi_endproc
 193              	.LFE64:
ARM GAS  /tmp/ccF5odmp.s 			page 7


 194              		.size	NVIC_Init, .-NVIC_Init
 195              		.align	1
 196              		.global	NVIC_SetVectorTable
 197              		.syntax unified
 198              		.thumb
 199              		.thumb_func
 200              		.fpu softvfp
 201              		.type	NVIC_SetVectorTable, %function
 202              	NVIC_SetVectorTable:
 203              	.LFB65:
 146:common/misc.c **** 
 147:common/misc.c **** /**
 148:common/misc.c ****   * @brief  Sets the vector table location and Offset.
 149:common/misc.c ****   * @param  NVIC_VectTab: specifies if the vector table is in RAM or FLASH memory.
 150:common/misc.c ****   *   This parameter can be one of the following values:
 151:common/misc.c ****   *     @arg NVIC_VectTab_RAM
 152:common/misc.c ****   *     @arg NVIC_VectTab_FLASH
 153:common/misc.c ****   * @param  Offset: Vector Table base offset field. This value must be a multiple 
 154:common/misc.c ****   *         of 0x200.
 155:common/misc.c ****   * @retval None
 156:common/misc.c ****   */
 157:common/misc.c **** void NVIC_SetVectorTable(uint32_t NVIC_VectTab, uint32_t Offset)
 158:common/misc.c **** { 
 204              		.loc 1 158 0
 205              		.cfi_startproc
 206              		@ args = 0, pretend = 0, frame = 8
 207              		@ frame_needed = 1, uses_anonymous_args = 0
 208              		@ link register save eliminated.
 209 00e8 80B4     		push	{r7}
 210              		.cfi_def_cfa_offset 4
 211              		.cfi_offset 7, -4
 212 00ea 83B0     		sub	sp, sp, #12
 213              		.cfi_def_cfa_offset 16
 214 00ec 00AF     		add	r7, sp, #0
 215              		.cfi_def_cfa_register 7
 216 00ee 7860     		str	r0, [r7, #4]
 217 00f0 3960     		str	r1, [r7]
 159:common/misc.c ****   /* Check the parameters */
 160:common/misc.c ****   assert_param(IS_NVIC_VECTTAB(NVIC_VectTab));
 161:common/misc.c ****   assert_param(IS_NVIC_OFFSET(Offset));  
 162:common/misc.c ****    
 163:common/misc.c ****   SCB->VTOR = NVIC_VectTab | (Offset & (uint32_t)0x1FFFFF80);
 218              		.loc 1 163 0
 219 00f2 0749     		ldr	r1, .L11
 220 00f4 3B68     		ldr	r3, [r7]
 221 00f6 23F06043 		bic	r3, r3, #-536870912
 222 00fa 23F07F03 		bic	r3, r3, #127
 223 00fe 7A68     		ldr	r2, [r7, #4]
 224 0100 1343     		orrs	r3, r3, r2
 225 0102 8B60     		str	r3, [r1, #8]
 164:common/misc.c **** }
 226              		.loc 1 164 0
 227 0104 00BF     		nop
 228 0106 0C37     		adds	r7, r7, #12
 229              		.cfi_def_cfa_offset 4
 230 0108 BD46     		mov	sp, r7
 231              		.cfi_def_cfa_register 13
ARM GAS  /tmp/ccF5odmp.s 			page 8


 232              		@ sp needed
 233 010a 80BC     		pop	{r7}
 234              		.cfi_restore 7
 235              		.cfi_def_cfa_offset 0
 236 010c 7047     		bx	lr
 237              	.L12:
 238 010e 00BF     		.align	2
 239              	.L11:
 240 0110 00ED00E0 		.word	-536810240
 241              		.cfi_endproc
 242              	.LFE65:
 243              		.size	NVIC_SetVectorTable, .-NVIC_SetVectorTable
 244              		.align	1
 245              		.global	NVIC_SystemLPConfig
 246              		.syntax unified
 247              		.thumb
 248              		.thumb_func
 249              		.fpu softvfp
 250              		.type	NVIC_SystemLPConfig, %function
 251              	NVIC_SystemLPConfig:
 252              	.LFB66:
 165:common/misc.c **** 
 166:common/misc.c **** /**
 167:common/misc.c ****   * @brief  Selects the condition for the system to enter low power mode.
 168:common/misc.c ****   * @param  LowPowerMode: Specifies the new mode for the system to enter low power mode.
 169:common/misc.c ****   *   This parameter can be one of the following values:
 170:common/misc.c ****   *     @arg NVIC_LP_SEVONPEND
 171:common/misc.c ****   *     @arg NVIC_LP_SLEEPDEEP
 172:common/misc.c ****   *     @arg NVIC_LP_SLEEPONEXIT
 173:common/misc.c ****   * @param  NewState: new state of LP condition. This parameter can be: ENABLE or DISABLE.
 174:common/misc.c ****   * @retval None
 175:common/misc.c ****   */
 176:common/misc.c **** void NVIC_SystemLPConfig(uint8_t LowPowerMode, FunctionalState NewState)
 177:common/misc.c **** {
 253              		.loc 1 177 0
 254              		.cfi_startproc
 255              		@ args = 0, pretend = 0, frame = 8
 256              		@ frame_needed = 1, uses_anonymous_args = 0
 257              		@ link register save eliminated.
 258 0114 80B4     		push	{r7}
 259              		.cfi_def_cfa_offset 4
 260              		.cfi_offset 7, -4
 261 0116 83B0     		sub	sp, sp, #12
 262              		.cfi_def_cfa_offset 16
 263 0118 00AF     		add	r7, sp, #0
 264              		.cfi_def_cfa_register 7
 265 011a 0346     		mov	r3, r0
 266 011c 0A46     		mov	r2, r1
 267 011e FB71     		strb	r3, [r7, #7]
 268 0120 1346     		mov	r3, r2
 269 0122 BB71     		strb	r3, [r7, #6]
 178:common/misc.c ****   /* Check the parameters */
 179:common/misc.c ****   assert_param(IS_NVIC_LP(LowPowerMode));
 180:common/misc.c ****   assert_param(IS_FUNCTIONAL_STATE(NewState));  
 181:common/misc.c ****   
 182:common/misc.c ****   if (NewState != DISABLE)
 270              		.loc 1 182 0
ARM GAS  /tmp/ccF5odmp.s 			page 9


 271 0124 BB79     		ldrb	r3, [r7, #6]	@ zero_extendqisi2
 272 0126 002B     		cmp	r3, #0
 273 0128 06D0     		beq	.L14
 183:common/misc.c ****   {
 184:common/misc.c ****     SCB->SCR |= LowPowerMode;
 274              		.loc 1 184 0
 275 012a 0949     		ldr	r1, .L17
 276 012c 084B     		ldr	r3, .L17
 277 012e 1A69     		ldr	r2, [r3, #16]
 278 0130 FB79     		ldrb	r3, [r7, #7]	@ zero_extendqisi2
 279 0132 1343     		orrs	r3, r3, r2
 280 0134 0B61     		str	r3, [r1, #16]
 185:common/misc.c ****   }
 186:common/misc.c ****   else
 187:common/misc.c ****   {
 188:common/misc.c ****     SCB->SCR &= (uint32_t)(~(uint32_t)LowPowerMode);
 189:common/misc.c ****   }
 190:common/misc.c **** }
 281              		.loc 1 190 0
 282 0136 06E0     		b	.L16
 283              	.L14:
 188:common/misc.c ****   }
 284              		.loc 1 188 0
 285 0138 0549     		ldr	r1, .L17
 286 013a 054B     		ldr	r3, .L17
 287 013c 1A69     		ldr	r2, [r3, #16]
 288 013e FB79     		ldrb	r3, [r7, #7]	@ zero_extendqisi2
 289 0140 DB43     		mvns	r3, r3
 290 0142 1340     		ands	r3, r3, r2
 291 0144 0B61     		str	r3, [r1, #16]
 292              	.L16:
 293              		.loc 1 190 0
 294 0146 00BF     		nop
 295 0148 0C37     		adds	r7, r7, #12
 296              		.cfi_def_cfa_offset 4
 297 014a BD46     		mov	sp, r7
 298              		.cfi_def_cfa_register 13
 299              		@ sp needed
 300 014c 80BC     		pop	{r7}
 301              		.cfi_restore 7
 302              		.cfi_def_cfa_offset 0
 303 014e 7047     		bx	lr
 304              	.L18:
 305              		.align	2
 306              	.L17:
 307 0150 00ED00E0 		.word	-536810240
 308              		.cfi_endproc
 309              	.LFE66:
 310              		.size	NVIC_SystemLPConfig, .-NVIC_SystemLPConfig
 311              		.align	1
 312              		.global	SysTick_CLKSourceConfig
 313              		.syntax unified
 314              		.thumb
 315              		.thumb_func
 316              		.fpu softvfp
 317              		.type	SysTick_CLKSourceConfig, %function
 318              	SysTick_CLKSourceConfig:
ARM GAS  /tmp/ccF5odmp.s 			page 10


 319              	.LFB67:
 191:common/misc.c **** 
 192:common/misc.c **** /**
 193:common/misc.c ****   * @brief  Configures the SysTick clock source.
 194:common/misc.c ****   * @param  SysTick_CLKSource: specifies the SysTick clock source.
 195:common/misc.c ****   *   This parameter can be one of the following values:
 196:common/misc.c ****   *     @arg SysTick_CLKSource_HCLK_Div8: AHB clock divided by 8 selected as SysTick clock source.
 197:common/misc.c ****   *     @arg SysTick_CLKSource_HCLK: AHB clock selected as SysTick clock source.
 198:common/misc.c ****   * @retval None
 199:common/misc.c ****   */
 200:common/misc.c **** void SysTick_CLKSourceConfig(uint32_t SysTick_CLKSource)
 201:common/misc.c **** {
 320              		.loc 1 201 0
 321              		.cfi_startproc
 322              		@ args = 0, pretend = 0, frame = 8
 323              		@ frame_needed = 1, uses_anonymous_args = 0
 324              		@ link register save eliminated.
 325 0154 80B4     		push	{r7}
 326              		.cfi_def_cfa_offset 4
 327              		.cfi_offset 7, -4
 328 0156 83B0     		sub	sp, sp, #12
 329              		.cfi_def_cfa_offset 16
 330 0158 00AF     		add	r7, sp, #0
 331              		.cfi_def_cfa_register 7
 332 015a 7860     		str	r0, [r7, #4]
 202:common/misc.c ****   /* Check the parameters */
 203:common/misc.c ****   assert_param(IS_SYSTICK_CLK_SOURCE(SysTick_CLKSource));
 204:common/misc.c ****   if (SysTick_CLKSource == SysTick_CLKSource_HCLK)
 333              		.loc 1 204 0
 334 015c 7B68     		ldr	r3, [r7, #4]
 335 015e 042B     		cmp	r3, #4
 336 0160 06D1     		bne	.L20
 205:common/misc.c ****   {
 206:common/misc.c ****     SysTick->CTRL |= SysTick_CLKSource_HCLK;
 337              		.loc 1 206 0
 338 0162 094A     		ldr	r2, .L23
 339 0164 084B     		ldr	r3, .L23
 340 0166 1B68     		ldr	r3, [r3]
 341 0168 43F00403 		orr	r3, r3, #4
 342 016c 1360     		str	r3, [r2]
 207:common/misc.c ****   }
 208:common/misc.c ****   else
 209:common/misc.c ****   {
 210:common/misc.c ****     SysTick->CTRL &= SysTick_CLKSource_HCLK_Div8;
 211:common/misc.c ****   }
 212:common/misc.c **** }
 343              		.loc 1 212 0
 344 016e 05E0     		b	.L22
 345              	.L20:
 210:common/misc.c ****   }
 346              		.loc 1 210 0
 347 0170 054A     		ldr	r2, .L23
 348 0172 054B     		ldr	r3, .L23
 349 0174 1B68     		ldr	r3, [r3]
 350 0176 23F00403 		bic	r3, r3, #4
 351 017a 1360     		str	r3, [r2]
 352              	.L22:
ARM GAS  /tmp/ccF5odmp.s 			page 11


 353              		.loc 1 212 0
 354 017c 00BF     		nop
 355 017e 0C37     		adds	r7, r7, #12
 356              		.cfi_def_cfa_offset 4
 357 0180 BD46     		mov	sp, r7
 358              		.cfi_def_cfa_register 13
 359              		@ sp needed
 360 0182 80BC     		pop	{r7}
 361              		.cfi_restore 7
 362              		.cfi_def_cfa_offset 0
 363 0184 7047     		bx	lr
 364              	.L24:
 365 0186 00BF     		.align	2
 366              	.L23:
 367 0188 10E000E0 		.word	-536813552
 368              		.cfi_endproc
 369              	.LFE67:
 370              		.size	SysTick_CLKSourceConfig, .-SysTick_CLKSourceConfig
 371              	.Letext0:
 372              		.file 2 "/usr/arm-none-eabi/include/machine/_default_types.h"
 373              		.file 3 "/usr/arm-none-eabi/include/sys/_stdint.h"
 374              		.file 4 "include/core_cm3.h"
 375              		.file 5 "include/system_stm32f10x.h"
 376              		.file 6 "include/stm32f10x.h"
 377              		.file 7 "include/misc.h"