ARM GAS  /tmp/ccF5odmp.s 			page 1


   1              		.cpu cortex-m3
   2              		.eabi_attribute 20, 1
   3              		.eabi_attribute 21, 1
   4              		.eabi_attribute 23, 3
   5              		.eabi_attribute 24, 1
   6              		.eabi_attribute 25, 1
   7              		.eabi_attribute 26, 1
   8              		.eabi_attribute 30, 6
   9              		.eabi_attribute 34, 1
  10              		.eabi_attribute 18, 4
  11              		.file	"misc.c"
  12              		.text
  13              	.Ltext0:
  14              		.cfi_sections	.debug_frame
  15              		.align	1
  16              		.global	NVIC_PriorityGroupConfig
  17              		.syntax unified
  18              		.thumb
  19              		.thumb_func
  20              		.fpu softvfp
  21              		.type	NVIC_PriorityGroupConfig, %function
  22              	NVIC_PriorityGroupConfig:
  23              	.LFB63:
  24              		.file 1 "common/misc.c"
   1:common/misc.c **** /**
   2:common/misc.c ****   ******************************************************************************
   3:common/misc.c ****   * @file    misc.c
   4:common/misc.c ****   * @author  MCD Application Team
   5:common/misc.c ****   * @version V3.5.0
   6:common/misc.c ****   * @date    11-March-2011
   7:common/misc.c ****   * @brief   This file provides all the miscellaneous firmware functions (add-on
   8:common/misc.c ****   *          to CMSIS functions).
   9:common/misc.c ****   ******************************************************************************
  10:common/misc.c ****   * @attention
  11:common/misc.c ****   *
  12:common/misc.c ****   * THE PRESENT FIRMWARE WHICH IS FOR GUIDANCE ONLY AIMS AT PROVIDING CUSTOMERS
  13:common/misc.c ****   * WITH CODING INFORMATION REGARDING THEIR PRODUCTS IN ORDER FOR THEM TO SAVE
  14:common/misc.c ****   * TIME. AS A RESULT, STMICROELECTRONICS SHALL NOT BE HELD LIABLE FOR ANY
  15:common/misc.c ****   * DIRECT, INDIRECT OR CONSEQUENTIAL DAMAGES WITH RESPECT TO ANY CLAIMS ARISING
  16:common/misc.c ****   * FROM THE CONTENT OF SUCH FIRMWARE AND/OR THE USE MADE BY CUSTOMERS OF THE
  17:common/misc.c ****   * CODING INFORMATION CONTAINED HEREIN IN CONNECTION WITH THEIR PRODUCTS.
  18:common/misc.c ****   *
  19:common/misc.c ****   * <h2><center>&copy; COPYRIGHT 2011 STMicroelectronics</center></h2>
  20:common/misc.c ****   ******************************************************************************
  21:common/misc.c ****   */
  22:common/misc.c **** 
  23:common/misc.c **** /* Includes ------------------------------------------------------------------*/
  24:common/misc.c **** #include "misc.h"
  25:common/misc.c **** #include "stm32f10x_conf.h"
  26:common/misc.c **** 
  27:common/misc.c **** /** @addtogroup STM32F10x_StdPeriph_Driver
  28:common/misc.c ****   * @{
  29:common/misc.c ****   */
  30:common/misc.c **** 
  31:common/misc.c **** /** @defgroup MISC 
  32:common/misc.c ****   * @brief MISC driver modules
  33:common/misc.c ****   * @{
ARM GAS  /tmp/ccF5odmp.s 			page 2


  34:common/misc.c ****   */
  35:common/misc.c **** 
  36:common/misc.c **** /** @defgroup MISC_Private_TypesDefinitions
  37:common/misc.c ****   * @{
  38:common/misc.c ****   */
  39:common/misc.c **** 
  40:common/misc.c **** /**
  41:common/misc.c ****   * @}
  42:common/misc.c ****   */ 
  43:common/misc.c **** 
  44:common/misc.c **** /** @defgroup MISC_Private_Defines
  45:common/misc.c ****   * @{
  46:common/misc.c ****   */
  47:common/misc.c **** 
  48:common/misc.c **** #define AIRCR_VECTKEY_MASK    ((uint32_t)0x05FA0000)
  49:common/misc.c **** /**
  50:common/misc.c ****   * @}
  51:common/misc.c ****   */
  52:common/misc.c **** 
  53:common/misc.c **** /** @defgroup MISC_Private_Macros
  54:common/misc.c ****   * @{
  55:common/misc.c ****   */
  56:common/misc.c **** 
  57:common/misc.c **** /**
  58:common/misc.c ****   * @}
  59:common/misc.c ****   */
  60:common/misc.c **** 
  61:common/misc.c **** /** @defgroup MISC_Private_Variables
  62:common/misc.c ****   * @{
  63:common/misc.c ****   */
  64:common/misc.c **** 
  65:common/misc.c **** /**
  66:common/misc.c ****   * @}
  67:common/misc.c ****   */
  68:common/misc.c **** 
  69:common/misc.c **** /** @defgroup MISC_Private_FunctionPrototypes
  70:common/misc.c ****   * @{
  71:common/misc.c ****   */
  72:common/misc.c **** 
  73:common/misc.c **** /**
  74:common/misc.c ****   * @}
  75:common/misc.c ****   */
  76:common/misc.c **** 
  77:common/misc.c **** /** @defgroup MISC_Private_Functions
  78:common/misc.c ****   * @{
  79:common/misc.c ****   */
  80:common/misc.c **** 
  81:common/misc.c **** /**
  82:common/misc.c ****   * @brief  Configures the priority grouping: pre-emption priority and subpriority.
  83:common/misc.c ****   * @param  NVIC_PriorityGroup: specifies the priority grouping bits length. 
  84:common/misc.c ****   *   This parameter can be one of the following values:
  85:common/misc.c ****   *     @arg NVIC_PriorityGroup_0: 0 bits for pre-emption priority
  86:common/misc.c ****   *                                4 bits for subpriority
  87:common/misc.c ****   *     @arg NVIC_PriorityGroup_1: 1 bits for pre-emption priority
  88:common/misc.c ****   *                                3 bits for subpriority
  89:common/misc.c ****   *     @arg NVIC_PriorityGroup_2: 2 bits for pre-emption priority
  90:common/misc.c ****   *                                2 bits for subpriority
ARM GAS  /tmp/ccF5odmp.s 			page 3


  91:common/misc.c ****   *     @arg NVIC_PriorityGroup_3: 3 bits for pre-emption priority
  92:common/misc.c ****   *                                1 bits for subpriority
  93:common/misc.c ****   *     @arg NVIC_PriorityGroup_4: 4 bits for pre-emption priority
  94:common/misc.c ****   *                                0 bits for subpriority
  95:common/misc.c ****   * @retval None
  96:common/misc.c ****   */
  97:common/misc.c **** void NVIC_PriorityGroupConfig(uint32_t NVIC_PriorityGroup)
  98:common/misc.c **** {
  25              		.loc 1 98 0
  26              		.cfi_startproc
  27              		@ args = 0, pretend = 0, frame = 8
  28              		@ frame_needed = 1, uses_anonymous_args = 0
  29              		@ link register save eliminated.
  30 0000 80B4     		push	{r7}
  31              		.cfi_def_cfa_offset 4
  32              		.cfi_offset 7, -4
  33 0002 83B0     		sub	sp, sp, #12
  34              		.cfi_def_cfa_offset 16
  35 0004 00AF     		add	r7, sp, #0
  36              		.cfi_def_cfa_register 7
  37 0006 7860     		str	r0, [r7, #4]
  99:common/misc.c ****   /* Check the parameters */
 100:common/misc.c ****   assert_param(IS_NVIC_PRIORITY_GROUP(NVIC_PriorityGroup));
 101:common/misc.c ****   
 102:common/misc.c ****   /* Set the PRIGROUP[10:8] bits according to NVIC_PriorityGroup value */
 103:common/misc.c ****   SCB->AIRCR = AIRCR_VECTKEY_MASK | NVIC_PriorityGroup;
  38              		.loc 1 103 0
  39 0008 054A     		ldr	r2, .L2
  40 000a 7B68     		ldr	r3, [r7, #4]
  41 000c 43F0BF63 		orr	r3, r3, #100139008
  42 0010 43F40033 		orr	r3, r3, #131072
  43 0014 D360     		str	r3, [r2, #12]
 104:common/misc.c **** }
  44              		.loc 1 104 0
  45 0016 00BF     		nop
  46 0018 0C37     		adds	r7, r7, #12
  47              		.cfi_def_cfa_offset 4
  48 001a BD46     		mov	sp, r7
  49              		.cfi_def_cfa_register 13
  50              		@ sp needed
  51 001c 80BC     		pop	{r7}
  52              		.cfi_restore 7
  53              		.cfi_def_cfa_offset 0
  54 001e 7047     		bx	lr
  55              	.L3:
  56              		.align	2
  57              	.L2:
  58 0020 00ED00E0 		.word	-536810240
  59              		.cfi_endproc
  60              	.LFE63:
  61              		.size	NVIC_PriorityGroupConfig, .-NVIC_PriorityGroupConfig
  62              		.align	1
  63              		.global	NVIC_Init
  64              		.syntax unified
  65              		.thumb
  66              		.thumb_func
  67              		.fpu softvfp
ARM GAS  /tmp/ccF5odmp.s 			page 4


  68              		.type	NVIC_Init, %function
  69              	NVIC_Init:
  70              	.LFB64:
 105:common/misc.c **** 
 106:common/misc.c **** /**
 107:common/misc.c ****   * @brief  Initializes the NVIC peripheral according to the specified
 108:common/misc.c ****   *         parameters in the NVIC_InitStruct.
 109:common/misc.c ****   * @param  NVIC_InitStruct: pointer to a NVIC_InitTypeDef structure that contains
 110:common/misc.c ****   *         the configuration information for the specified NVIC peripheral.
 111:common/misc.c ****   * @retval None
 112:common/misc.c ****   */
 113:common/misc.c **** void NVIC_Init(NVIC_InitTypeDef* NVIC_InitStruct)
 114:common/misc.c **** {
  71              		.loc 1 114 0
  72              		.cfi_startproc
  73              		@ args = 0, pretend = 0, frame = 24
  74              		@ frame_needed = 1, uses_anonymous_args = 0
  75              		@ link register save eliminated.
  76 0024 80B4     		push	{r7}
  77              		.cfi_def_cfa_offset 4
  78              		.cfi_offset 7, -4
  79 0026 87B0     		sub	sp, sp, #28
  80              		.cfi_def_cfa_offset 32
  81 0028 00AF     		add	r7, sp, #0
  82              		.cfi_def_cfa_register 7
  83 002a 7860     		str	r0, [r7, #4]
 115:common/misc.c ****   uint32_t tmppriority = 0x00, tmppre = 0x00, tmpsub = 0x0F;
  84              		.loc 1 115 0
  85 002c 0023     		movs	r3, #0
  86 002e 7B61     		str	r3, [r7, #20]
  87 0030 0023     		movs	r3, #0
  88 0032 3B61     		str	r3, [r7, #16]
  89 0034 0F23     		movs	r3, #15
  90 0036 FB60     		str	r3, [r7, #12]
 116:common/misc.c ****   
 117:common/misc.c ****   /* Check the parameters */
 118:common/misc.c ****   assert_param(IS_FUNCTIONAL_STATE(NVIC_InitStruct->NVIC_IRQChannelCmd));
 119:common/misc.c ****   assert_param(IS_NVIC_PREEMPTION_PRIORITY(NVIC_InitStruct->NVIC_IRQChannelPreemptionPriority));  
 120:common/misc.c ****   assert_param(IS_NVIC_SUB_PRIORITY(NVIC_InitStruct->NVIC_IRQChannelSubPriority));
 121:common/misc.c ****     
 122:common/misc.c ****   if (NVIC_InitStruct->NVIC_IRQChannelCmd != DISABLE)
  91              		.loc 1 122 0
  92 0038 7B68     		ldr	r3, [r7, #4]
  93 003a DB78     		ldrb	r3, [r3, #3]	@ zero_extendqisi2
  94 003c 002B     		cmp	r3, #0
  95 003e 3AD0     		beq	.L5
 123:common/misc.c ****   {
 124:common/misc.c ****     /* Compute the Corresponding IRQ Priority --------------------------------*/    
 125:common/misc.c ****     tmppriority = (0x700 - ((SCB->AIRCR) & (uint32_t)0x700))>> 0x08;
  96              		.loc 1 125 0
  97 0040 274B     		ldr	r3, .L8
  98 0042 DB68     		ldr	r3, [r3, #12]
  99 0044 DB43     		mvns	r3, r3
 100 0046 1B0A     		lsrs	r3, r3, #8
 101 0048 03F00703 		and	r3, r3, #7
 102 004c 7B61     		str	r3, [r7, #20]
 126:common/misc.c ****     tmppre = (0x4 - tmppriority);
ARM GAS  /tmp/ccF5odmp.s 			page 5


 103              		.loc 1 126 0
 104 004e 7B69     		ldr	r3, [r7, #20]
 105 0050 C3F10403 		rsb	r3, r3, #4
 106 0054 3B61     		str	r3, [r7, #16]
 127:common/misc.c ****     tmpsub = tmpsub >> tmppriority;
 107              		.loc 1 127 0
 108 0056 FA68     		ldr	r2, [r7, #12]
 109 0058 7B69     		ldr	r3, [r7, #20]
 110 005a 22FA03F3 		lsr	r3, r2, r3
 111 005e FB60     		str	r3, [r7, #12]
 128:common/misc.c **** 
 129:common/misc.c ****     tmppriority = (uint32_t)NVIC_InitStruct->NVIC_IRQChannelPreemptionPriority << tmppre;
 112              		.loc 1 129 0
 113 0060 7B68     		ldr	r3, [r7, #4]
 114 0062 5B78     		ldrb	r3, [r3, #1]	@ zero_extendqisi2
 115 0064 1A46     		mov	r2, r3
 116 0066 3B69     		ldr	r3, [r7, #16]
 117 0068 02FA03F3 		lsl	r3, r2, r3
 118 006c 7B61     		str	r3, [r7, #20]
 130:common/misc.c ****     tmppriority |=  NVIC_InitStruct->NVIC_IRQChannelSubPriority & tmpsub;
 119              		.loc 1 130 0
 120 006e 7B68     		ldr	r3, [r7, #4]
 121 0070 9B78     		ldrb	r3, [r3, #2]	@ zero_extendqisi2
 122 0072 1A46     		mov	r2, r3
 123 0074 FB68     		ldr	r3, [r7, #12]
 124 0076 1340     		ands	r3, r3, r2
 125 0078 7A69     		ldr	r2, [r7, #20]
 126 007a 1343     		orrs	r3, r3, r2
 127 007c 7B61     		str	r3, [r7, #20]
 131:common/misc.c ****     tmppriority = tmppriority << 0x04;
 128              		.loc 1 131 0
 129 007e 7B69     		ldr	r3, [r7, #20]
 130 0080 1B01     		lsls	r3, r3, #4
 131 0082 7B61     		str	r3, [r7, #20]
 132:common/misc.c ****         
 133:common/misc.c ****     NVIC->IP[NVIC_InitStruct->NVIC_IRQChannel] = tmppriority;
 132              		.loc 1 133 0
 133 0084 174A     		ldr	r2, .L8+4
 134 0086 7B68     		ldr	r3, [r7, #4]
 135 0088 1B78     		ldrb	r3, [r3]	@ zero_extendqisi2
 136 008a 7969     		ldr	r1, [r7, #20]
 137 008c C9B2     		uxtb	r1, r1
 138 008e 1344     		add	r3, r3, r2
 139 0090 0A46     		mov	r2, r1
 140 0092 83F80023 		strb	r2, [r3, #768]
 134:common/misc.c ****     
 135:common/misc.c ****     /* Enable the Selected IRQ Channels --------------------------------------*/
 136:common/misc.c ****     NVIC->ISER[NVIC_InitStruct->NVIC_IRQChannel >> 0x05] =
 141              		.loc 1 136 0
 142 0096 134A     		ldr	r2, .L8+4
 143 0098 7B68     		ldr	r3, [r7, #4]
 144 009a 1B78     		ldrb	r3, [r3]	@ zero_extendqisi2
 145 009c 5B09     		lsrs	r3, r3, #5
 146 009e DBB2     		uxtb	r3, r3
 147 00a0 1846     		mov	r0, r3
 137:common/misc.c ****       (uint32_t)0x01 << (NVIC_InitStruct->NVIC_IRQChannel & (uint8_t)0x1F);
 148              		.loc 1 137 0
ARM GAS  /tmp/ccF5odmp.s 			page 6


 149 00a2 7B68     		ldr	r3, [r7, #4]
 150 00a4 1B78     		ldrb	r3, [r3]	@ zero_extendqisi2
 151 00a6 03F01F03 		and	r3, r3, #31
 152 00aa 0121     		movs	r1, #1
 153 00ac 01FA03F3 		lsl	r3, r1, r3
 136:common/misc.c ****       (uint32_t)0x01 << (NVIC_InitStruct->NVIC_IRQChannel & (uint8_t)0x1F);
 154              		.loc 1 136 0
 155 00b0 42F82030 		str	r3, [r2, r0, lsl #2]
 138:common/misc.c ****   }
 139:common/misc.c ****   else
 140:common/misc.c ****   {
 141:common/misc.c ****     /* Disable the Selected IRQ Channels -------------------------------------*/
 142:common/misc.c ****     NVIC->ICER[NVIC_InitStruct->NVIC_IRQChannel >> 0x05] =
 143:common/misc.c ****       (uint32_t)0x01 << (NVIC_InitStruct->NVIC_IRQChannel & (uint8_t)0x1F);
 144:common/misc.c ****   }
 145:common/misc.c **** }
 156              		.loc 1 145 0
 157 00b4 0FE0     		b	.L7
 158              	.L5:
 142:common/misc.c ****       (uint32_t)0x01 << (NVIC_InitStruct->NVIC_IRQChannel & (uint8_t)0x1F);
 159              		.loc 1 142 0
 160 00b6 0B49     		ldr	r1, .L8+4
 161 00b8 7B68     		ldr	r3, [r7, #4]
 162 00ba 1B78     		ldrb	r3, [r3]	@ zero_extendqisi2
 163 00bc 5B09     		lsrs	r3, r3, #5
 164 00be DBB2     		uxtb	r3, r3
 165 00c0 1846     		mov	r0, r3
 143:common/misc.c ****   }
 166              		.loc 1 143 0
 167 00c2 7B68     		ldr	r3, [r7, #4]
 168 00c4 1B78     		ldrb	r3, [r3]	@ zero_extendqisi2
 169 00c6 03F01F03 		and	r3, r3, #31
 170 00ca 0122     		movs	r2, #1
 171 00cc 9A40     		lsls	r2, r2, r3
 142:common/misc.c ****       (uint32_t)0x01 << (NVIC_InitStruct->NVIC_IRQChannel & (uint8_t)0x1F);
 172              		.loc 1 142 0
 173 00ce 00F12003 		add	r3, r0, #32
 174 00d2 41F82320 		str	r2, [r1, r3, lsl #2]
 175              	.L7:
 176              		.loc 1 145 0
 177 00d6 00BF     		nop
 178 00d8 1C37     		adds	r7, r7, #28
 179              		.cfi_def_cfa_offset 4
 180 00da BD46     		mov	sp, r7
 181              		.cfi_def_cfa_register 13
 182              		@ sp needed
 183 00dc 80BC     		pop	{r7}
 184              		.cfi_restore 7
 185              		.cfi_def_cfa_offset 0
 186 00de 7047     		bx	lr
 187              	.L9:
 188              		.align	2
 189              	.L8:
 190 00e0 00ED00E0 		.word	-536810240
 191 00e4 00E100E0 		.word	-536813312
 192              		.cfi_endproc
 193              	.LFE64:
ARM GAS  /tmp/ccF5odmp.s 			page 7


 194              		.size	NVIC_Init, .-NVIC_Init
 195              		.align	1
 196              		.global	NVIC_SetVectorTable
 197              		.syntax unified
 198              		.thumb
 199              		.thumb_func
 200              		.fpu softvfp
 201              		.type	NVIC_SetVectorTable, %function
 202              	NVIC_SetVectorTable:
 203              	.LFB65:
 146:common/misc.c **** 
 147:common/misc.c **** /**
 148:common/misc.c ****   * @brief  Sets the vector table location and Offset.
 149:common/misc.c ****   * @param  NVIC_VectTab: specifies if the vector table is in RAM or FLASH memory.
 150:common/misc.c ****   *   This parameter can be one of the following values:
 151:common/misc.c ****   *     @arg NVIC_VectTab_RAM
 152:common/misc.c ****   *     @arg NVIC_VectTab_FLASH
 153:common/misc.c ****   * @param  Offset: Vector Table base offset field. This value must be a multiple 
 154:common/misc.c ****   *         of 0x200.
 155:common/misc.c ****   * @retval None
 156:common/misc.c ****   */
 157:common/misc.c **** void NVIC_SetVectorTable(uint32_t NVIC_VectTab, uint32_t Offset)
 158:common/misc.c **** { 
 204              		.loc 1 158 0
 205              		.cfi_startproc
 206              		@ args = 0, pretend = 0, frame = 8
 207              		@ frame_needed = 1, uses_anonymous_args = 0
 208              		@ link register save eliminated.
 209 00e8 80B4     		push	{r7}
 210              		.cfi_def_cfa_offset 4
 211              		.cfi_offset 7, -4
 212 00ea 83B0     		sub	sp, sp, #12
 213              		.cfi_def_cfa_offset 16
 214 00ec 00AF     		add	r7, sp, #0
 215              		.cfi_def_cfa_register 7
 216 00ee 7860     		str	r0, [r7, #4]
 217 00f0 3960     		str	r1, [r7]
 159:common/misc.c ****   /* Check the parameters */
 160:common/misc.c ****   assert_param(IS_NVIC_VECTTAB(NVIC_VectTab));
 161:common/misc.c ****   assert_param(IS_NVIC_OFFSET(Offset));  
 162:common/misc.c ****    
 163:common/misc.c ****   SCB->VTOR = NVIC_VectTab | (Offset & (uint32_t)0x1FFFFF80);
 218              		.loc 1 163 0
 219 00f2 0749     		ldr	r1, .L11
 220 00f4 3B68     		ldr	r3, [r7]
 221 00f6 23F06043 		bic	r3, r3, #-536870912
 222 00fa 23F07F03 		bic	r3, r3, #127
 223 00fe 7A68     		ldr	r2, [r7, #4]
 224 0100 1343     		orrs	r3, r3, r2
 225 0102 8B60     		str	r3, [r1, #8]
 164:common/misc.c **** }
 226              		.loc 1 164 0
 227 0104 00BF     		nop
 228 0106 0C37     		adds	r7, r7, #12
 229              		.cfi_def_cfa_offset 4
 230 0108 BD46     		mov	sp, r7
 231              		.cfi_def_cfa_register 13
ARM GAS  /tmp/ccF5odmp.s 			page 8


 232              		@ sp needed
 233 010a 80BC     		pop	{r7}
 234              		.cfi_restore 7
 235              		.cfi_def_cfa_offset 0
 236 010c 7047     		bx	lr
 237              	.L12:
 238 010e 00BF     		.align	2
 239              	.L11:
 240 0110 00ED00E0 		.word	-536810240
 241              		.cfi_endproc
 242              	.LFE65:
 243              		.size	NVIC_SetVectorTable, .-NVIC_SetVectorTable
 244              		.align	1
 245              		.global	NVIC_SystemLPConfig
 246              		.syntax unified
 247              		.thumb
 248              		.thumb_func
 249              		.fpu softvfp
 250              		.type	NVIC_SystemLPConfig, %function
 251              	NVIC_SystemLPConfig:
 252              	.LFB66:
 165:common/misc.c **** 
 166:common/misc.c **** /**
 167:common/misc.c ****   * @brief  Selects the condition for the system to enter low power mode.
 168:common/misc.c ****   * @param  LowPowerMode: Specifies the new mode for the system to enter low power mode.
 169:common/misc.c ****   *   This parameter can be one of the following values:
 170:common/misc.c ****   *     @arg NVIC_LP_SEVONPEND
 171:common/misc.c ****   *     @arg NVIC_LP_SLEEPDEEP
 172:common/misc.c ****   *     @arg NVIC_LP_SLEEPONEXIT
 173:common/misc.c ****   * @param  NewState: new state of LP condition. This parameter can be: ENABLE or DISABLE.
 174:common/misc.c ****   * @retval None
 175:common/misc.c ****   */
 176:common/misc.c **** void NVIC_SystemLPConfig(uint8_t LowPowerMode, FunctionalState NewState)
 177:common/misc.c **** {
 253              		.loc 1 177 0
 254              		.cfi_startproc
 255              		@ args = 0, pretend = 0, frame = 8
 256              		@ frame_needed = 1, uses_anonymous_args = 0
 257              		@ link register save eliminated.
 258 0114 80B4     		push	{r7}
 259              		.cfi_def_cfa_offset 4
 260              		.cfi_offset 7, -4
 261 0116 83B0     		sub	sp, sp, #12
 262              		.cfi_def_cfa_offset 16
 263 0118 00AF     		add	r7, sp, #0
 264              		.cfi_def_cfa_register 7
 265 011a 0346     		mov	r3, r0
 266 011c 0A46     		mov	r2, r1
 267 011e FB71     		strb	r3, [r7, #7]
 268 0120 1346     		mov	r3, r2
 269 0122 BB71     		strb	r3, [r7, #6]
 178:common/misc.c ****   /* Check the parameters */
 179:common/misc.c ****   assert_param(IS_NVIC_LP(LowPowerMode));
 180:common/misc.c ****   assert_param(IS_FUNCTIONAL_STATE(NewState));  
 181:common/misc.c ****   
 182:common/misc.c ****   if (NewState != DISABLE)
 270              		.loc 1 182 0
ARM GAS  /tmp/ccF5odmp.s 			page 9


 271 0124 BB79     		ldrb	r3, [r7, #6]	@ zero_extendqisi2
 272 0126 002B     		cmp	r3, #0
 273 0128 06D0     		beq	.L14
 183:common/misc.c ****   {
 184:common/misc.c ****     SCB->SCR |= LowPowerMode;
 274              		.loc 1 184 0
 275 012a 0949     		ldr	r1, .L17
 276 012c 084B     		ldr	r3, .L17
 277 012e 1A69     		ldr	r2, [r3, #16]
 278 0130 FB79     		ldrb	r3, [r7, #7]	@ zero_extendqisi2
 279 0132 1343     		orrs	r3, r3, r2
 280 0134 0B61     		str	r3, [r1, #16]
 185:common/misc.c ****   }
 186:common/misc.c ****   else
 187:common/misc.c ****   {
 188:common/misc.c ****     SCB->SCR &= (uint32_t)(~(uint32_t)LowPowerMode);
 189:common/misc.c ****   }
 190:common/misc.c **** }
 281              		.loc 1 190 0
 282 0136 06E0     		b	.L16
 283              	.L14:
 188:common/misc.c ****   }
 284              		.loc 1 188 0
 285 0138 0549     		ldr	r1, .L17
 286 013a 054B     		ldr	r3, .L17
 287 013c 1A69     		ldr	r2, [r3, #16]
 288 013e FB79     		ldrb	r3, [r7, #7]	@ zero_extendqisi2
 289 0140 DB43     		mvns	r3, r3
 290 0142 1340     		ands	r3, r3, r2
 291 0144 0B61     		str	r3, [r1, #16]
 292              	.L16:
 293              		.loc 1 190 0
 294 0146 00BF     		nop
 295 0148 0C37     		adds	r7, r7, #12
 296              		.cfi_def_cfa_offset 4
 297 014a BD46     		mov	sp, r7
 298              		.cfi_def_cfa_register 13
 299              		@ sp needed
 300 014c 80BC     		pop	{r7}
 301              		.cfi_restore 7
 302              		.cfi_def_cfa_offset 0
 303 014e 7047     		bx	lr
 304              	.L18:
 305              		.align	2
 306              	.L17:
 307 0150 00ED00E0 		.word	-536810240
 308              		.cfi_endproc
 309              	.LFE66:
 310              		.size	NVIC_SystemLPConfig, .-NVIC_SystemLPConfig
 311              		.align	1
 312              		.global	SysTick_CLKSourceConfig
 313              		.syntax unified
 314              		.thumb
 315              		.thumb_func
 316              		.fpu softvfp
 317              		.type	SysTick_CLKSourceConfig, %function
 318              	SysTick_CLKSourceConfig:
ARM GAS  /tmp/ccF5odmp.s 			page 10


 319              	.LFB67:
 191:common/misc.c **** 
 192:common/misc.c **** /**
 193:common/misc.c ****   * @brief  Configures the SysTick clock source.
 194:common/misc.c ****   * @param  SysTick_CLKSource: specifies the SysTick clock source.
 195:common/misc.c ****   *   This parameter can be one of the following values:
 196:common/misc.c ****   *     @arg SysTick_CLKSource_HCLK_Div8: AHB clock divided by 8 selected as SysTick clock source.
 197:common/misc.c ****   *     @arg SysTick_CLKSource_HCLK: AHB clock selected as SysTick clock source.
 198:common/misc.c ****   * @retval None
 199:common/misc.c ****   */
 200:common/misc.c **** void SysTick_CLKSourceConfig(uint32_t SysTick_CLKSource)
 201:common/misc.c **** {
 320              		.loc 1 201 0
 321              		.cfi_startproc
 322              		@ args = 0, pretend = 0, frame = 8
 323              		@ frame_needed = 1, uses_anonymous_args = 0
 324              		@ link register save eliminated.
 325 0154 80B4     		push	{r7}
 326              		.cfi_def_cfa_offset 4
 327              		.cfi_offset 7, -4
 328 0156 83B0     		sub	sp, sp, #12
 329              		.cfi_def_cfa_offset 16
 330 0158 00AF     		add	r7, sp, #0
 331              		.cfi_def_cfa_register 7
 332 015a 7860     		str	r0, [r7, #4]
 202:common/misc.c ****   /* Check the parameters */
 203:common/misc.c ****   assert_param(IS_SYSTICK_CLK_SOURCE(SysTick_CLKSource));
 204:common/misc.c ****   if (SysTick_CLKSource == SysTick_CLKSource_HCLK)
 333              		.loc 1 204 0
 334 015c 7B68     		ldr	r3, [r7, #4]
 335 015e 042B     		cmp	r3, #4
 336 0160 06D1     		bne	.L20
 205:common/misc.c ****   {
 206:common/misc.c ****     SysTick->CTRL |= SysTick_CLKSource_HCLK;
 337              		.loc 1 206 0
 338 0162 094A     		ldr	r2, .L23
 339 0164 084B     		ldr	r3, .L23
 340 0166 1B68     		ldr	r3, [r3]
 341 0168 43F00403 		orr	r3, r3, #4
 342 016c 1360     		str	r3, [r2]
 207:common/misc.c ****   }
 208:common/misc.c ****   else
 209:common/misc.c ****   {
 210:common/misc.c ****     SysTick->CTRL &= SysTick_CLKSource_HCLK_Div8;
 211:common/misc.c ****   }
 212:common/misc.c **** }
 343              		.loc 1 212 0
 344 016e 05E0     		b	.L22
 345              	.L20:
 210:common/misc.c ****   }
 346              		.loc 1 210 0
 347 0170 054A     		ldr	r2, .L23
 348 0172 054B     		ldr	r3, .L23
 349 0174 1B68     		ldr	r3, [r3]
 350 0176 23F00403 		bic	r3, r3, #4
 351 017a 1360     		str	r3, [r2]
 352              	.L22:
ARM GAS  /tmp/ccF5odmp.s 			page 11


 353              		.loc 1 212 0
 354 017c 00BF     		nop
 355 017e 0C37     		adds	r7, r7, #12
 356              		.cfi_def_cfa_offset 4
 357 0180 BD46     		mov	sp, r7
 358              		.cfi_def_cfa_register 13
 359              		@ sp needed
 360 0182 80BC     		pop	{r7}
 361              		.cfi_restore 7
 362              		.cfi_def_cfa_offset 0
 363 0184 7047     		bx	lr
 364              	.L24:
 365 0186 00BF     		.align	2
 366              	.L23:
 367 0188 10E000E0 		.word	-536813552
 368              		.cfi_endproc
 369              	.LFE67:
 370              		.size	SysTick_CLKSourceConfig, .-SysTick_CLKSourceConfig
 371              	.Letext0:
 372              		.file 2 "/usr/arm-none-eabi/include/machine/_default_types.h"
 373              		.file 3 "/usr/arm-none-eabi/include/sys/_stdint.h"
 374              		.file 4 "include/core_cm3.h"
 375              		.file 5 "include/system_stm32f10x.h"
 376              		.file 6 "include/stm32f10x.h"
 377              		.file 7 "include/misc.h"
 378              		.section	.debug_info,"",%progbits
 379              	.Ldebug_info0:
 380 0000 49050000 		.4byte	0x549
 381 0004 0400     		.2byte	0x4
 382 0006 00000000 		.4byte	.Ldebug_abbrev0
 383 000a 04       		.byte	0x4
 384 000b 01       		.uleb128 0x1
 385 000c C8010000 		.4byte	.LASF72
 386 0010 0C       		.byte	0xc
 387 0011 6D010000 		.4byte	.LASF73
 388 0015 34010000 		.4byte	.LASF74
 389 0019 00000000 		.4byte	.Ltext0
 390 001d 8C010000 		.4byte	.Letext0-.Ltext0
 391 0021 00000000 		.4byte	.Ldebug_line0
 392 0025 02       		.uleb128 0x2
 393 0026 01       		.byte	0x1
 394 0027 06       		.byte	0x6
 395 0028 8F010000 		.4byte	.LASF0
 396 002c 03       		.uleb128 0x3
 397 002d 25010000 		.4byte	.LASF4
 398 0031 02       		.byte	0x2
 399 0032 1D       		.byte	0x1d
 400 0033 37000000 		.4byte	0x37
 401 0037 02       		.uleb128 0x2
 402 0038 01       		.byte	0x1
 403 0039 08       		.byte	0x8
 404 003a 59010000 		.4byte	.LASF1
 405 003e 02       		.uleb128 0x2
 406 003f 02       		.byte	0x2
 407 0040 05       		.byte	0x5
 408 0041 76000000 		.4byte	.LASF2
 409 0045 02       		.uleb128 0x2
ARM GAS  /tmp/ccF5odmp.s 			page 12


 410 0046 02       		.byte	0x2
 411 0047 07       		.byte	0x7
 412 0048 41020000 		.4byte	.LASF3
 413 004c 03       		.uleb128 0x3
 414 004d 32030000 		.4byte	.LASF5
 415 0051 02       		.byte	0x2
 416 0052 3F       		.byte	0x3f
 417 0053 57000000 		.4byte	0x57
 418 0057 02       		.uleb128 0x2
 419 0058 04       		.byte	0x4
 420 0059 05       		.byte	0x5
 421 005a 1C010000 		.4byte	.LASF6
 422 005e 03       		.uleb128 0x3
 423 005f AE000000 		.4byte	.LASF7
 424 0063 02       		.byte	0x2
 425 0064 41       		.byte	0x41
 426 0065 69000000 		.4byte	0x69
 427 0069 02       		.uleb128 0x2
 428 006a 04       		.byte	0x4
 429 006b 07       		.byte	0x7
 430 006c EE020000 		.4byte	.LASF8
 431 0070 02       		.uleb128 0x2
 432 0071 08       		.byte	0x8
 433 0072 05       		.byte	0x5
 434 0073 FE000000 		.4byte	.LASF9
 435 0077 02       		.uleb128 0x2
 436 0078 08       		.byte	0x8
 437 0079 07       		.byte	0x7
 438 007a 9B010000 		.4byte	.LASF10
 439 007e 04       		.uleb128 0x4
 440 007f 04       		.byte	0x4
 441 0080 05       		.byte	0x5
 442 0081 696E7400 		.ascii	"int\000"
 443 0085 02       		.uleb128 0x2
 444 0086 04       		.byte	0x4
 445 0087 07       		.byte	0x7
 446 0088 BB010000 		.4byte	.LASF11
 447 008c 03       		.uleb128 0x3
 448 008d C9000000 		.4byte	.LASF12
 449 0091 03       		.byte	0x3
 450 0092 18       		.byte	0x18
 451 0093 2C000000 		.4byte	0x2c
 452 0097 05       		.uleb128 0x5
 453 0098 8C000000 		.4byte	0x8c
 454 009c 03       		.uleb128 0x3
 455 009d 60020000 		.4byte	.LASF13
 456 00a1 03       		.byte	0x3
 457 00a2 2C       		.byte	0x2c
 458 00a3 4C000000 		.4byte	0x4c
 459 00a7 05       		.uleb128 0x5
 460 00a8 9C000000 		.4byte	0x9c
 461 00ac 03       		.uleb128 0x3
 462 00ad B2010000 		.4byte	.LASF14
 463 00b1 03       		.byte	0x3
 464 00b2 30       		.byte	0x30
 465 00b3 5E000000 		.4byte	0x5e
 466 00b7 05       		.uleb128 0x5
ARM GAS  /tmp/ccF5odmp.s 			page 13


 467 00b8 AC000000 		.4byte	0xac
 468 00bc 06       		.uleb128 0x6
 469 00bd B7000000 		.4byte	0xb7
 470 00c1 07       		.uleb128 0x7
 471 00c2 040E     		.2byte	0xe04
 472 00c4 04       		.byte	0x4
 473 00c5 7F01     		.2byte	0x17f
 474 00c7 7D010000 		.4byte	0x17d
 475 00cb 08       		.uleb128 0x8
 476 00cc C1020000 		.4byte	.LASF15
 477 00d0 04       		.byte	0x4
 478 00d1 8101     		.2byte	0x181
 479 00d3 8D010000 		.4byte	0x18d
 480 00d7 00       		.byte	0
 481 00d8 08       		.uleb128 0x8
 482 00d9 BF000000 		.4byte	.LASF16
 483 00dd 04       		.byte	0x4
 484 00de 8201     		.2byte	0x182
 485 00e0 99010000 		.4byte	0x199
 486 00e4 20       		.byte	0x20
 487 00e5 08       		.uleb128 0x8
 488 00e6 B7020000 		.4byte	.LASF17
 489 00ea 04       		.byte	0x4
 490 00eb 8301     		.2byte	0x183
 491 00ed 8D010000 		.4byte	0x18d
 492 00f1 80       		.byte	0x80
 493 00f2 08       		.uleb128 0x8
 494 00f3 F5000000 		.4byte	.LASF18
 495 00f7 04       		.byte	0x4
 496 00f8 8401     		.2byte	0x184
 497 00fa 99010000 		.4byte	0x199
 498 00fe A0       		.byte	0xa0
 499 00ff 09       		.uleb128 0x9
 500 0100 6D020000 		.4byte	.LASF19
 501 0104 04       		.byte	0x4
 502 0105 8501     		.2byte	0x185
 503 0107 8D010000 		.4byte	0x18d
 504 010b 0001     		.2byte	0x100
 505 010d 09       		.uleb128 0x9
 506 010e C6020000 		.4byte	.LASF20
 507 0112 04       		.byte	0x4
 508 0113 8601     		.2byte	0x186
 509 0115 99010000 		.4byte	0x199
 510 0119 2001     		.2byte	0x120
 511 011b 09       		.uleb128 0x9
 512 011c 8A010000 		.4byte	.LASF21
 513 0120 04       		.byte	0x4
 514 0121 8701     		.2byte	0x187
 515 0123 8D010000 		.4byte	0x18d
 516 0127 8001     		.2byte	0x180
 517 0129 09       		.uleb128 0x9
 518 012a D0020000 		.4byte	.LASF22
 519 012e 04       		.byte	0x4
 520 012f 8801     		.2byte	0x188
 521 0131 99010000 		.4byte	0x199
 522 0135 A001     		.2byte	0x1a0
 523 0137 09       		.uleb128 0x9
ARM GAS  /tmp/ccF5odmp.s 			page 14


 524 0138 00000000 		.4byte	.LASF23
 525 013c 04       		.byte	0x4
 526 013d 8901     		.2byte	0x189
 527 013f 8D010000 		.4byte	0x18d
 528 0143 0002     		.2byte	0x200
 529 0145 09       		.uleb128 0x9
 530 0146 DA020000 		.4byte	.LASF24
 531 014a 04       		.byte	0x4
 532 014b 8A01     		.2byte	0x18a
 533 014d A9010000 		.4byte	0x1a9
 534 0151 2002     		.2byte	0x220
 535 0153 0A       		.uleb128 0xa
 536 0154 495000   		.ascii	"IP\000"
 537 0157 04       		.byte	0x4
 538 0158 8B01     		.2byte	0x18b
 539 015a C9010000 		.4byte	0x1c9
 540 015e 0003     		.2byte	0x300
 541 0160 09       		.uleb128 0x9
 542 0161 E4020000 		.4byte	.LASF25
 543 0165 04       		.byte	0x4
 544 0166 8C01     		.2byte	0x18c
 545 0168 CE010000 		.4byte	0x1ce
 546 016c F003     		.2byte	0x3f0
 547 016e 09       		.uleb128 0x9
 548 016f E3000000 		.4byte	.LASF26
 549 0173 04       		.byte	0x4
 550 0174 8D01     		.2byte	0x18d
 551 0176 B7000000 		.4byte	0xb7
 552 017a 000E     		.2byte	0xe00
 553 017c 00       		.byte	0
 554 017d 0B       		.uleb128 0xb
 555 017e B7000000 		.4byte	0xb7
 556 0182 8D010000 		.4byte	0x18d
 557 0186 0C       		.uleb128 0xc
 558 0187 92010000 		.4byte	0x192
 559 018b 07       		.byte	0x7
 560 018c 00       		.byte	0
 561 018d 05       		.uleb128 0x5
 562 018e 7D010000 		.4byte	0x17d
 563 0192 02       		.uleb128 0x2
 564 0193 04       		.byte	0x4
 565 0194 07       		.byte	0x7
 566 0195 94000000 		.4byte	.LASF27
 567 0199 0B       		.uleb128 0xb
 568 019a AC000000 		.4byte	0xac
 569 019e A9010000 		.4byte	0x1a9
 570 01a2 0C       		.uleb128 0xc
 571 01a3 92010000 		.4byte	0x192
 572 01a7 17       		.byte	0x17
 573 01a8 00       		.byte	0
 574 01a9 0B       		.uleb128 0xb
 575 01aa AC000000 		.4byte	0xac
 576 01ae B9010000 		.4byte	0x1b9
 577 01b2 0C       		.uleb128 0xc
 578 01b3 92010000 		.4byte	0x192
 579 01b7 37       		.byte	0x37
 580 01b8 00       		.byte	0
ARM GAS  /tmp/ccF5odmp.s 			page 15


 581 01b9 0B       		.uleb128 0xb
 582 01ba 97000000 		.4byte	0x97
 583 01be C9010000 		.4byte	0x1c9
 584 01c2 0C       		.uleb128 0xc
 585 01c3 92010000 		.4byte	0x192
 586 01c7 EF       		.byte	0xef
 587 01c8 00       		.byte	0
 588 01c9 05       		.uleb128 0x5
 589 01ca B9010000 		.4byte	0x1b9
 590 01ce 0B       		.uleb128 0xb
 591 01cf AC000000 		.4byte	0xac
 592 01d3 DF010000 		.4byte	0x1df
 593 01d7 0D       		.uleb128 0xd
 594 01d8 92010000 		.4byte	0x192
 595 01dc 8302     		.2byte	0x283
 596 01de 00       		.byte	0
 597 01df 0E       		.uleb128 0xe
 598 01e0 80010000 		.4byte	.LASF28
 599 01e4 04       		.byte	0x4
 600 01e5 8E01     		.2byte	0x18e
 601 01e7 C1000000 		.4byte	0xc1
 602 01eb 0F       		.uleb128 0xf
 603 01ec 8C       		.byte	0x8c
 604 01ed 04       		.byte	0x4
 605 01ee A101     		.2byte	0x1a1
 606 01f0 06030000 		.4byte	0x306
 607 01f4 08       		.uleb128 0x8
 608 01f5 B9000000 		.4byte	.LASF29
 609 01f9 04       		.byte	0x4
 610 01fa A301     		.2byte	0x1a3
 611 01fc BC000000 		.4byte	0xbc
 612 0200 00       		.byte	0
 613 0201 08       		.uleb128 0x8
 614 0202 F0000000 		.4byte	.LASF30
 615 0206 04       		.byte	0x4
 616 0207 A401     		.2byte	0x1a4
 617 0209 B7000000 		.4byte	0xb7
 618 020d 04       		.byte	0x4
 619 020e 08       		.uleb128 0x8
 620 020f 12010000 		.4byte	.LASF31
 621 0213 04       		.byte	0x4
 622 0214 A501     		.2byte	0x1a5
 623 0216 B7000000 		.4byte	0xb7
 624 021a 08       		.byte	0x8
 625 021b 08       		.uleb128 0x8
 626 021c 67010000 		.4byte	.LASF32
 627 0220 04       		.byte	0x4
 628 0221 A601     		.2byte	0x1a6
 629 0223 B7000000 		.4byte	0xb7
 630 0227 0C       		.byte	0xc
 631 0228 10       		.uleb128 0x10
 632 0229 53435200 		.ascii	"SCR\000"
 633 022d 04       		.byte	0x4
 634 022e A701     		.2byte	0x1a7
 635 0230 B7000000 		.4byte	0xb7
 636 0234 10       		.byte	0x10
 637 0235 10       		.uleb128 0x10
ARM GAS  /tmp/ccF5odmp.s 			page 16


 638 0236 43435200 		.ascii	"CCR\000"
 639 023a 04       		.byte	0x4
 640 023b A801     		.2byte	0x1a8
 641 023d B7000000 		.4byte	0xb7
 642 0241 14       		.byte	0x14
 643 0242 10       		.uleb128 0x10
 644 0243 53485000 		.ascii	"SHP\000"
 645 0247 04       		.byte	0x4
 646 0248 A901     		.2byte	0x1a9
 647 024a 16030000 		.4byte	0x316
 648 024e 18       		.byte	0x18
 649 024f 08       		.uleb128 0x8
 650 0250 06020000 		.4byte	.LASF33
 651 0254 04       		.byte	0x4
 652 0255 AA01     		.2byte	0x1aa
 653 0257 B7000000 		.4byte	0xb7
 654 025b 24       		.byte	0x24
 655 025c 08       		.uleb128 0x8
 656 025d 2F010000 		.4byte	.LASF34
 657 0261 04       		.byte	0x4
 658 0262 AB01     		.2byte	0x1ab
 659 0264 B7000000 		.4byte	0xb7
 660 0268 28       		.byte	0x28
 661 0269 08       		.uleb128 0x8
 662 026a B2020000 		.4byte	.LASF35
 663 026e 04       		.byte	0x4
 664 026f AC01     		.2byte	0x1ac
 665 0271 B7000000 		.4byte	0xb7
 666 0275 2C       		.byte	0x2c
 667 0276 08       		.uleb128 0x8
 668 0277 72020000 		.4byte	.LASF36
 669 027b 04       		.byte	0x4
 670 027c AD01     		.2byte	0x1ad
 671 027e B7000000 		.4byte	0xb7
 672 0282 30       		.byte	0x30
 673 0283 08       		.uleb128 0x8
 674 0284 0C020000 		.4byte	.LASF37
 675 0288 04       		.byte	0x4
 676 0289 AE01     		.2byte	0x1ae
 677 028b B7000000 		.4byte	0xb7
 678 028f 34       		.byte	0x34
 679 0290 08       		.uleb128 0x8
 680 0291 17010000 		.4byte	.LASF38
 681 0295 04       		.byte	0x4
 682 0296 AF01     		.2byte	0x1af
 683 0298 B7000000 		.4byte	0xb7
 684 029c 38       		.byte	0x38
 685 029d 08       		.uleb128 0x8
 686 029e 4E030000 		.4byte	.LASF39
 687 02a2 04       		.byte	0x4
 688 02a3 B001     		.2byte	0x1b0
 689 02a5 B7000000 		.4byte	0xb7
 690 02a9 3C       		.byte	0x3c
 691 02aa 10       		.uleb128 0x10
 692 02ab 50465200 		.ascii	"PFR\000"
 693 02af 04       		.byte	0x4
 694 02b0 B101     		.2byte	0x1b1
ARM GAS  /tmp/ccF5odmp.s 			page 17


 695 02b2 30030000 		.4byte	0x330
 696 02b6 40       		.byte	0x40
 697 02b7 10       		.uleb128 0x10
 698 02b8 44465200 		.ascii	"DFR\000"
 699 02bc 04       		.byte	0x4
 700 02bd B201     		.2byte	0x1b2
 701 02bf BC000000 		.4byte	0xbc
 702 02c3 48       		.byte	0x48
 703 02c4 10       		.uleb128 0x10
 704 02c5 41445200 		.ascii	"ADR\000"
 705 02c9 04       		.byte	0x4
 706 02ca B301     		.2byte	0x1b3
 707 02cc BC000000 		.4byte	0xbc
 708 02d0 4C       		.byte	0x4c
 709 02d1 08       		.uleb128 0x8
 710 02d2 BC020000 		.4byte	.LASF40
 711 02d6 04       		.byte	0x4
 712 02d7 B401     		.2byte	0x1b4
 713 02d9 4A030000 		.4byte	0x34a
 714 02dd 50       		.byte	0x50
 715 02de 08       		.uleb128 0x8
 716 02df 68020000 		.4byte	.LASF41
 717 02e3 04       		.byte	0x4
 718 02e4 B501     		.2byte	0x1b5
 719 02e6 64030000 		.4byte	0x364
 720 02ea 60       		.byte	0x60
 721 02eb 08       		.uleb128 0x8
 722 02ec BF000000 		.4byte	.LASF16
 723 02f0 04       		.byte	0x4
 724 02f1 B601     		.2byte	0x1b6
 725 02f3 69030000 		.4byte	0x369
 726 02f7 74       		.byte	0x74
 727 02f8 08       		.uleb128 0x8
 728 02f9 6D030000 		.4byte	.LASF42
 729 02fd 04       		.byte	0x4
 730 02fe B701     		.2byte	0x1b7
 731 0300 B7000000 		.4byte	0xb7
 732 0304 88       		.byte	0x88
 733 0305 00       		.byte	0
 734 0306 0B       		.uleb128 0xb
 735 0307 97000000 		.4byte	0x97
 736 030b 16030000 		.4byte	0x316
 737 030f 0C       		.uleb128 0xc
 738 0310 92010000 		.4byte	0x192
 739 0314 0B       		.byte	0xb
 740 0315 00       		.byte	0
 741 0316 05       		.uleb128 0x5
 742 0317 06030000 		.4byte	0x306
 743 031b 0B       		.uleb128 0xb
 744 031c BC000000 		.4byte	0xbc
 745 0320 2B030000 		.4byte	0x32b
 746 0324 0C       		.uleb128 0xc
 747 0325 92010000 		.4byte	0x192
 748 0329 01       		.byte	0x1
 749 032a 00       		.byte	0
 750 032b 06       		.uleb128 0x6
 751 032c 1B030000 		.4byte	0x31b
ARM GAS  /tmp/ccF5odmp.s 			page 18


 752 0330 05       		.uleb128 0x5
 753 0331 2B030000 		.4byte	0x32b
 754 0335 0B       		.uleb128 0xb
 755 0336 BC000000 		.4byte	0xbc
 756 033a 45030000 		.4byte	0x345
 757 033e 0C       		.uleb128 0xc
 758 033f 92010000 		.4byte	0x192
 759 0343 03       		.byte	0x3
 760 0344 00       		.byte	0
 761 0345 06       		.uleb128 0x6
 762 0346 35030000 		.4byte	0x335
 763 034a 05       		.uleb128 0x5
 764 034b 45030000 		.4byte	0x345
 765 034f 0B       		.uleb128 0xb
 766 0350 BC000000 		.4byte	0xbc
 767 0354 5F030000 		.4byte	0x35f
 768 0358 0C       		.uleb128 0xc
 769 0359 92010000 		.4byte	0x192
 770 035d 04       		.byte	0x4
 771 035e 00       		.byte	0
 772 035f 06       		.uleb128 0x6
 773 0360 4F030000 		.4byte	0x34f
 774 0364 05       		.uleb128 0x5
 775 0365 5F030000 		.4byte	0x35f
 776 0369 0B       		.uleb128 0xb
 777 036a AC000000 		.4byte	0xac
 778 036e 79030000 		.4byte	0x379
 779 0372 0C       		.uleb128 0xc
 780 0373 92010000 		.4byte	0x192
 781 0377 04       		.byte	0x4
 782 0378 00       		.byte	0
 783 0379 0E       		.uleb128 0xe
 784 037a D1000000 		.4byte	.LASF43
 785 037e 04       		.byte	0x4
 786 037f B801     		.2byte	0x1b8
 787 0381 EB010000 		.4byte	0x1eb
 788 0385 0F       		.uleb128 0xf
 789 0386 10       		.byte	0x10
 790 0387 04       		.byte	0x4
 791 0388 AB02     		.2byte	0x2ab
 792 038a C3030000 		.4byte	0x3c3
 793 038e 08       		.uleb128 0x8
 794 038f 7B010000 		.4byte	.LASF44
 795 0393 04       		.byte	0x4
 796 0394 AD02     		.2byte	0x2ad
 797 0396 B7000000 		.4byte	0xb7
 798 039a 00       		.byte	0
 799 039b 08       		.uleb128 0x8
 800 039c 49030000 		.4byte	.LASF45
 801 03a0 04       		.byte	0x4
 802 03a1 AE02     		.2byte	0x2ae
 803 03a3 B7000000 		.4byte	0xb7
 804 03a7 04       		.byte	0x4
 805 03a8 10       		.uleb128 0x10
 806 03a9 56414C00 		.ascii	"VAL\000"
 807 03ad 04       		.byte	0x4
 808 03ae AF02     		.2byte	0x2af
ARM GAS  /tmp/ccF5odmp.s 			page 19


 809 03b0 B7000000 		.4byte	0xb7
 810 03b4 08       		.byte	0x8
 811 03b5 08       		.uleb128 0x8
 812 03b6 0C010000 		.4byte	.LASF46
 813 03ba 04       		.byte	0x4
 814 03bb B002     		.2byte	0x2b0
 815 03bd BC000000 		.4byte	0xbc
 816 03c1 0C       		.byte	0xc
 817 03c2 00       		.byte	0
 818 03c3 0E       		.uleb128 0xe
 819 03c4 34020000 		.4byte	.LASF47
 820 03c8 04       		.byte	0x4
 821 03c9 B102     		.2byte	0x2b1
 822 03cb 85030000 		.4byte	0x385
 823 03cf 11       		.uleb128 0x11
 824 03d0 60030000 		.4byte	.LASF48
 825 03d4 04       		.byte	0x4
 826 03d5 9606     		.2byte	0x696
 827 03d7 A7000000 		.4byte	0xa7
 828 03db 12       		.uleb128 0x12
 829 03dc A2020000 		.4byte	.LASF49
 830 03e0 05       		.byte	0x5
 831 03e1 35       		.byte	0x35
 832 03e2 AC000000 		.4byte	0xac
 833 03e6 13       		.uleb128 0x13
 834 03e7 01       		.byte	0x1
 835 03e8 37000000 		.4byte	0x37
 836 03ec 06       		.byte	0x6
 837 03ed 0902     		.2byte	0x209
 838 03ef 00040000 		.4byte	0x400
 839 03f3 14       		.uleb128 0x14
 840 03f4 E8000000 		.4byte	.LASF50
 841 03f8 00       		.byte	0
 842 03f9 14       		.uleb128 0x14
 843 03fa 73030000 		.4byte	.LASF51
 844 03fe 01       		.byte	0x1
 845 03ff 00       		.byte	0
 846 0400 0E       		.uleb128 0xe
 847 0401 22030000 		.4byte	.LASF52
 848 0405 06       		.byte	0x6
 849 0406 0902     		.2byte	0x209
 850 0408 E6030000 		.4byte	0x3e6
 851 040c 15       		.uleb128 0x15
 852 040d 04       		.byte	0x4
 853 040e 07       		.byte	0x7
 854 040f 32       		.byte	0x32
 855 0410 45040000 		.4byte	0x445
 856 0414 16       		.uleb128 0x16
 857 0415 77020000 		.4byte	.LASF53
 858 0419 07       		.byte	0x7
 859 041a 34       		.byte	0x34
 860 041b 8C000000 		.4byte	0x8c
 861 041f 00       		.byte	0
 862 0420 16       		.uleb128 0x16
 863 0421 00030000 		.4byte	.LASF54
 864 0425 07       		.byte	0x7
 865 0426 39       		.byte	0x39
ARM GAS  /tmp/ccF5odmp.s 			page 20


 866 0427 8C000000 		.4byte	0x8c
 867 042b 01       		.byte	0x1
 868 042c 16       		.uleb128 0x16
 869 042d 87020000 		.4byte	.LASF55
 870 0431 07       		.byte	0x7
 871 0432 3D       		.byte	0x3d
 872 0433 8C000000 		.4byte	0x8c
 873 0437 02       		.byte	0x2
 874 0438 16       		.uleb128 0x16
 875 0439 16000000 		.4byte	.LASF56
 876 043d 07       		.byte	0x7
 877 043e 41       		.byte	0x41
 878 043f 00040000 		.4byte	0x400
 879 0443 03       		.byte	0x3
 880 0444 00       		.byte	0
 881 0445 03       		.uleb128 0x3
 882 0446 05000000 		.4byte	.LASF57
 883 044a 07       		.byte	0x7
 884 044b 44       		.byte	0x44
 885 044c 0C040000 		.4byte	0x40c
 886 0450 17       		.uleb128 0x17
 887 0451 5E000000 		.4byte	.LASF58
 888 0455 01       		.byte	0x1
 889 0456 C8       		.byte	0xc8
 890 0457 54010000 		.4byte	.LFB67
 891 045b 38000000 		.4byte	.LFE67-.LFB67
 892 045f 01       		.uleb128 0x1
 893 0460 9C       		.byte	0x9c
 894 0461 74040000 		.4byte	0x474
 895 0465 18       		.uleb128 0x18
 896 0466 29000000 		.4byte	.LASF60
 897 046a 01       		.byte	0x1
 898 046b C8       		.byte	0xc8
 899 046c AC000000 		.4byte	0xac
 900 0470 02       		.uleb128 0x2
 901 0471 91       		.byte	0x91
 902 0472 74       		.sleb128 -12
 903 0473 00       		.byte	0
 904 0474 17       		.uleb128 0x17
 905 0475 19020000 		.4byte	.LASF59
 906 0479 01       		.byte	0x1
 907 047a B0       		.byte	0xb0
 908 047b 14010000 		.4byte	.LFB66
 909 047f 40000000 		.4byte	.LFE66-.LFB66
 910 0483 01       		.uleb128 0x1
 911 0484 9C       		.byte	0x9c
 912 0485 A6040000 		.4byte	0x4a6
 913 0489 18       		.uleb128 0x18
 914 048a 53030000 		.4byte	.LASF61
 915 048e 01       		.byte	0x1
 916 048f B0       		.byte	0xb0
 917 0490 8C000000 		.4byte	0x8c
 918 0494 02       		.uleb128 0x2
 919 0495 91       		.byte	0x91
 920 0496 77       		.sleb128 -9
 921 0497 18       		.uleb128 0x18
 922 0498 DA000000 		.4byte	.LASF62
ARM GAS  /tmp/ccF5odmp.s 			page 21


 923 049c 01       		.byte	0x1
 924 049d B0       		.byte	0xb0
 925 049e 00040000 		.4byte	0x400
 926 04a2 02       		.uleb128 0x2
 927 04a3 91       		.byte	0x91
 928 04a4 76       		.sleb128 -10
 929 04a5 00       		.byte	0
 930 04a6 17       		.uleb128 0x17
 931 04a7 80000000 		.4byte	.LASF63
 932 04ab 01       		.byte	0x1
 933 04ac 9D       		.byte	0x9d
 934 04ad E8000000 		.4byte	.LFB65
 935 04b1 2C000000 		.4byte	.LFE65-.LFB65
 936 04b5 01       		.uleb128 0x1
 937 04b6 9C       		.byte	0x9c
 938 04b7 D8040000 		.4byte	0x4d8
 939 04bb 18       		.uleb128 0x18
 940 04bc 3C030000 		.4byte	.LASF64
 941 04c0 01       		.byte	0x1
 942 04c1 9D       		.byte	0x9d
 943 04c2 AC000000 		.4byte	0xac
 944 04c6 02       		.uleb128 0x2
 945 04c7 91       		.byte	0x91
 946 04c8 74       		.sleb128 -12
 947 04c9 18       		.uleb128 0x18
 948 04ca 2D020000 		.4byte	.LASF65
 949 04ce 01       		.byte	0x1
 950 04cf 9D       		.byte	0x9d
 951 04d0 AC000000 		.4byte	0xac
 952 04d4 02       		.uleb128 0x2
 953 04d5 91       		.byte	0x91
 954 04d6 70       		.sleb128 -16
 955 04d7 00       		.byte	0
 956 04d8 17       		.uleb128 0x17
 957 04d9 9D000000 		.4byte	.LASF66
 958 04dd 01       		.byte	0x1
 959 04de 71       		.byte	0x71
 960 04df 24000000 		.4byte	.LFB64
 961 04e3 C4000000 		.4byte	.LFE64-.LFB64
 962 04e7 01       		.uleb128 0x1
 963 04e8 9C       		.byte	0x9c
 964 04e9 26050000 		.4byte	0x526
 965 04ed 18       		.uleb128 0x18
 966 04ee 3B000000 		.4byte	.LASF67
 967 04f2 01       		.byte	0x1
 968 04f3 71       		.byte	0x71
 969 04f4 26050000 		.4byte	0x526
 970 04f8 02       		.uleb128 0x2
 971 04f9 91       		.byte	0x91
 972 04fa 64       		.sleb128 -28
 973 04fb 19       		.uleb128 0x19
 974 04fc 54020000 		.4byte	.LASF68
 975 0500 01       		.byte	0x1
 976 0501 73       		.byte	0x73
 977 0502 AC000000 		.4byte	0xac
 978 0506 02       		.uleb128 0x2
 979 0507 91       		.byte	0x91
ARM GAS  /tmp/ccF5odmp.s 			page 22


 980 0508 74       		.sleb128 -12
 981 0509 19       		.uleb128 0x19
 982 050a A7000000 		.4byte	.LASF69
 983 050e 01       		.byte	0x1
 984 050f 73       		.byte	0x73
 985 0510 AC000000 		.4byte	0xac
 986 0514 02       		.uleb128 0x2
 987 0515 91       		.byte	0x91
 988 0516 70       		.sleb128 -16
 989 0517 19       		.uleb128 0x19
 990 0518 12020000 		.4byte	.LASF70
 991 051c 01       		.byte	0x1
 992 051d 73       		.byte	0x73
 993 051e AC000000 		.4byte	0xac
 994 0522 02       		.uleb128 0x2
 995 0523 91       		.byte	0x91
 996 0524 6C       		.sleb128 -20
 997 0525 00       		.byte	0
 998 0526 1A       		.uleb128 0x1a
 999 0527 04       		.byte	0x4
 1000 0528 45040000 		.4byte	0x445
 1001 052c 1B       		.uleb128 0x1b
 1002 052d 7A030000 		.4byte	.LASF75
 1003 0531 01       		.byte	0x1
 1004 0532 61       		.byte	0x61
 1005 0533 00000000 		.4byte	.LFB63
 1006 0537 24000000 		.4byte	.LFE63-.LFB63
 1007 053b 01       		.uleb128 0x1
 1008 053c 9C       		.byte	0x9c
 1009 053d 18       		.uleb128 0x18
 1010 053e 4B000000 		.4byte	.LASF71
 1011 0542 01       		.byte	0x1
 1012 0543 61       		.byte	0x61
 1013 0544 AC000000 		.4byte	0xac
 1014 0548 02       		.uleb128 0x2
 1015 0549 91       		.byte	0x91
 1016 054a 74       		.sleb128 -12
 1017 054b 00       		.byte	0
 1018 054c 00       		.byte	0
 1019              		.section	.debug_abbrev,"",%progbits
 1020              	.Ldebug_abbrev0:
 1021 0000 01       		.uleb128 0x1
 1022 0001 11       		.uleb128 0x11
 1023 0002 01       		.byte	0x1
 1024 0003 25       		.uleb128 0x25
 1025 0004 0E       		.uleb128 0xe
 1026 0005 13       		.uleb128 0x13
 1027 0006 0B       		.uleb128 0xb
 1028 0007 03       		.uleb128 0x3
 1029 0008 0E       		.uleb128 0xe
 1030 0009 1B       		.uleb128 0x1b
 1031 000a 0E       		.uleb128 0xe
 1032 000b 11       		.uleb128 0x11
 1033 000c 01       		.uleb128 0x1
 1034 000d 12       		.uleb128 0x12
 1035 000e 06       		.uleb128 0x6
 1036 000f 10       		.uleb128 0x10
ARM GAS  /tmp/ccF5odmp.s 			page 23


 1037 0010 17       		.uleb128 0x17
 1038 0011 00       		.byte	0
 1039 0012 00       		.byte	0
 1040 0013 02       		.uleb128 0x2
 1041 0014 24       		.uleb128 0x24
 1042 0015 00       		.byte	0
 1043 0016 0B       		.uleb128 0xb
 1044 0017 0B       		.uleb128 0xb
 1045 0018 3E       		.uleb128 0x3e
 1046 0019 0B       		.uleb128 0xb
 1047 001a 03       		.uleb128 0x3
 1048 001b 0E       		.uleb128 0xe
 1049 001c 00       		.byte	0
 1050 001d 00       		.byte	0
 1051 001e 03       		.uleb128 0x3
 1052 001f 16       		.uleb128 0x16
 1053 0020 00       		.byte	0
 1054 0021 03       		.uleb128 0x3
 1055 0022 0E       		.uleb128 0xe
 1056 0023 3A       		.uleb128 0x3a
 1057 0024 0B       		.uleb128 0xb
 1058 0025 3B       		.uleb128 0x3b
 1059 0026 0B       		.uleb128 0xb
 1060 0027 49       		.uleb128 0x49
 1061 0028 13       		.uleb128 0x13
 1062 0029 00       		.byte	0
 1063 002a 00       		.byte	0
 1064 002b 04       		.uleb128 0x4
 1065 002c 24       		.uleb128 0x24
 1066 002d 00       		.byte	0
 1067 002e 0B       		.uleb128 0xb
 1068 002f 0B       		.uleb128 0xb
 1069 0030 3E       		.uleb128 0x3e
 1070 0031 0B       		.uleb128 0xb
 1071 0032 03       		.uleb128 0x3
 1072 0033 08       		.uleb128 0x8
 1073 0034 00       		.byte	0
 1074 0035 00       		.byte	0
 1075 0036 05       		.uleb128 0x5
 1076 0037 35       		.uleb128 0x35
 1077 0038 00       		.byte	0
 1078 0039 49       		.uleb128 0x49
 1079 003a 13       		.uleb128 0x13
 1080 003b 00       		.byte	0
 1081 003c 00       		.byte	0
 1082 003d 06       		.uleb128 0x6
 1083 003e 26       		.uleb128 0x26
 1084 003f 00       		.byte	0
 1085 0040 49       		.uleb128 0x49
 1086 0041 13       		.uleb128 0x13
 1087 0042 00       		.byte	0
 1088 0043 00       		.byte	0
 1089 0044 07       		.uleb128 0x7
 1090 0045 13       		.uleb128 0x13
 1091 0046 01       		.byte	0x1
 1092 0047 0B       		.uleb128 0xb
 1093 0048 05       		.uleb128 0x5
ARM GAS  /tmp/ccF5odmp.s 			page 24


 1094 0049 3A       		.uleb128 0x3a
 1095 004a 0B       		.uleb128 0xb
 1096 004b 3B       		.uleb128 0x3b
 1097 004c 05       		.uleb128 0x5
 1098 004d 01       		.uleb128 0x1
 1099 004e 13       		.uleb128 0x13
 1100 004f 00       		.byte	0
 1101 0050 00       		.byte	0
 1102 0051 08       		.uleb128 0x8
 1103 0052 0D       		.uleb128 0xd
 1104 0053 00       		.byte	0
 1105 0054 03       		.uleb128 0x3
 1106 0055 0E       		.uleb128 0xe
 1107 0056 3A       		.uleb128 0x3a
 1108 0057 0B       		.uleb128 0xb
 1109 0058 3B       		.uleb128 0x3b
 1110 0059 05       		.uleb128 0x5
 1111 005a 49       		.uleb128 0x49
 1112 005b 13       		.uleb128 0x13
 1113 005c 38       		.uleb128 0x38
 1114 005d 0B       		.uleb128 0xb
 1115 005e 00       		.byte	0
 1116 005f 00       		.byte	0
 1117 0060 09       		.uleb128 0x9
 1118 0061 0D       		.uleb128 0xd
 1119 0062 00       		.byte	0
 1120 0063 03       		.uleb128 0x3
 1121 0064 0E       		.uleb128 0xe
 1122 0065 3A       		.uleb128 0x3a
 1123 0066 0B       		.uleb128 0xb
 1124 0067 3B       		.uleb128 0x3b
 1125 0068 05       		.uleb128 0x5
 1126 0069 49       		.uleb128 0x49
 1127 006a 13       		.uleb128 0x13
 1128 006b 38       		.uleb128 0x38
 1129 006c 05       		.uleb128 0x5
 1130 006d 00       		.byte	0
 1131 006e 00       		.byte	0
 1132 006f 0A       		.uleb128 0xa
 1133 0070 0D       		.uleb128 0xd
 1134 0071 00       		.byte	0
 1135 0072 03       		.uleb128 0x3
 1136 0073 08       		.uleb128 0x8
 1137 0074 3A       		.uleb128 0x3a
 1138 0075 0B       		.uleb128 0xb
 1139 0076 3B       		.uleb128 0x3b
 1140 0077 05       		.uleb128 0x5
 1141 0078 49       		.uleb128 0x49
 1142 0079 13       		.uleb128 0x13
 1143 007a 38       		.uleb128 0x38
 1144 007b 05       		.uleb128 0x5
 1145 007c 00       		.byte	0
 1146 007d 00       		.byte	0
 1147 007e 0B       		.uleb128 0xb
 1148 007f 01       		.uleb128 0x1
 1149 0080 01       		.byte	0x1
 1150 0081 49       		.uleb128 0x49
ARM GAS  /tmp/ccF5odmp.s 			page 25


 1151 0082 13       		.uleb128 0x13
 1152 0083 01       		.uleb128 0x1
 1153 0084 13       		.uleb128 0x13
 1154 0085 00       		.byte	0
 1155 0086 00       		.byte	0
 1156 0087 0C       		.uleb128 0xc
 1157 0088 21       		.uleb128 0x21
 1158 0089 00       		.byte	0
 1159 008a 49       		.uleb128 0x49
 1160 008b 13       		.uleb128 0x13
 1161 008c 2F       		.uleb128 0x2f
 1162 008d 0B       		.uleb128 0xb
 1163 008e 00       		.byte	0
 1164 008f 00       		.byte	0
 1165 0090 0D       		.uleb128 0xd
 1166 0091 21       		.uleb128 0x21
 1167 0092 00       		.byte	0
 1168 0093 49       		.uleb128 0x49
 1169 0094 13       		.uleb128 0x13
 1170 0095 2F       		.uleb128 0x2f
 1171 0096 05       		.uleb128 0x5
 1172 0097 00       		.byte	0
 1173 0098 00       		.byte	0
 1174 0099 0E       		.uleb128 0xe
 1175 009a 16       		.uleb128 0x16
 1176 009b 00       		.byte	0
 1177 009c 03       		.uleb128 0x3
 1178 009d 0E       		.uleb128 0xe
 1179 009e 3A       		.uleb128 0x3a
 1180 009f 0B       		.uleb128 0xb
 1181 00a0 3B       		.uleb128 0x3b
 1182 00a1 05       		.uleb128 0x5
 1183 00a2 49       		.uleb128 0x49
 1184 00a3 13       		.uleb128 0x13
 1185 00a4 00       		.byte	0
 1186 00a5 00       		.byte	0
 1187 00a6 0F       		.uleb128 0xf
 1188 00a7 13       		.uleb128 0x13
 1189 00a8 01       		.byte	0x1
 1190 00a9 0B       		.uleb128 0xb
 1191 00aa 0B       		.uleb128 0xb
 1192 00ab 3A       		.uleb128 0x3a
 1193 00ac 0B       		.uleb128 0xb
 1194 00ad 3B       		.uleb128 0x3b
 1195 00ae 05       		.uleb128 0x5
 1196 00af 01       		.uleb128 0x1
 1197 00b0 13       		.uleb128 0x13
 1198 00b1 00       		.byte	0
 1199 00b2 00       		.byte	0
 1200 00b3 10       		.uleb128 0x10
 1201 00b4 0D       		.uleb128 0xd
 1202 00b5 00       		.byte	0
 1203 00b6 03       		.uleb128 0x3
 1204 00b7 08       		.uleb128 0x8
 1205 00b8 3A       		.uleb128 0x3a
 1206 00b9 0B       		.uleb128 0xb
 1207 00ba 3B       		.uleb128 0x3b
ARM GAS  /tmp/ccF5odmp.s 			page 26


 1208 00bb 05       		.uleb128 0x5
 1209 00bc 49       		.uleb128 0x49
 1210 00bd 13       		.uleb128 0x13
 1211 00be 38       		.uleb128 0x38
 1212 00bf 0B       		.uleb128 0xb
 1213 00c0 00       		.byte	0
 1214 00c1 00       		.byte	0
 1215 00c2 11       		.uleb128 0x11
 1216 00c3 34       		.uleb128 0x34
 1217 00c4 00       		.byte	0
 1218 00c5 03       		.uleb128 0x3
 1219 00c6 0E       		.uleb128 0xe
 1220 00c7 3A       		.uleb128 0x3a
 1221 00c8 0B       		.uleb128 0xb
 1222 00c9 3B       		.uleb128 0x3b
 1223 00ca 05       		.uleb128 0x5
 1224 00cb 49       		.uleb128 0x49
 1225 00cc 13       		.uleb128 0x13
 1226 00cd 3F       		.uleb128 0x3f
 1227 00ce 19       		.uleb128 0x19
 1228 00cf 3C       		.uleb128 0x3c
 1229 00d0 19       		.uleb128 0x19
 1230 00d1 00       		.byte	0
 1231 00d2 00       		.byte	0
 1232 00d3 12       		.uleb128 0x12
 1233 00d4 34       		.uleb128 0x34
 1234 00d5 00       		.byte	0
 1235 00d6 03       		.uleb128 0x3
 1236 00d7 0E       		.uleb128 0xe
 1237 00d8 3A       		.uleb128 0x3a
 1238 00d9 0B       		.uleb128 0xb
 1239 00da 3B       		.uleb128 0x3b
 1240 00db 0B       		.uleb128 0xb
 1241 00dc 49       		.uleb128 0x49
 1242 00dd 13       		.uleb128 0x13
 1243 00de 3F       		.uleb128 0x3f
 1244 00df 19       		.uleb128 0x19
 1245 00e0 3C       		.uleb128 0x3c
 1246 00e1 19       		.uleb128 0x19
 1247 00e2 00       		.byte	0
 1248 00e3 00       		.byte	0
 1249 00e4 13       		.uleb128 0x13
 1250 00e5 04       		.uleb128 0x4
 1251 00e6 01       		.byte	0x1
 1252 00e7 0B       		.uleb128 0xb
 1253 00e8 0B       		.uleb128 0xb
 1254 00e9 49       		.uleb128 0x49
 1255 00ea 13       		.uleb128 0x13
 1256 00eb 3A       		.uleb128 0x3a
 1257 00ec 0B       		.uleb128 0xb
 1258 00ed 3B       		.uleb128 0x3b
 1259 00ee 05       		.uleb128 0x5
 1260 00ef 01       		.uleb128 0x1
 1261 00f0 13       		.uleb128 0x13
 1262 00f1 00       		.byte	0
 1263 00f2 00       		.byte	0
 1264 00f3 14       		.uleb128 0x14
ARM GAS  /tmp/ccF5odmp.s 			page 27


 1265 00f4 28       		.uleb128 0x28
 1266 00f5 00       		.byte	0
 1267 00f6 03       		.uleb128 0x3
 1268 00f7 0E       		.uleb128 0xe
 1269 00f8 1C       		.uleb128 0x1c
 1270 00f9 0B       		.uleb128 0xb
 1271 00fa 00       		.byte	0
 1272 00fb 00       		.byte	0
 1273 00fc 15       		.uleb128 0x15
 1274 00fd 13       		.uleb128 0x13
 1275 00fe 01       		.byte	0x1
 1276 00ff 0B       		.uleb128 0xb
 1277 0100 0B       		.uleb128 0xb
 1278 0101 3A       		.uleb128 0x3a
 1279 0102 0B       		.uleb128 0xb
 1280 0103 3B       		.uleb128 0x3b
 1281 0104 0B       		.uleb128 0xb
 1282 0105 01       		.uleb128 0x1
 1283 0106 13       		.uleb128 0x13
 1284 0107 00       		.byte	0
 1285 0108 00       		.byte	0
 1286 0109 16       		.uleb128 0x16
 1287 010a 0D       		.uleb128 0xd
 1288 010b 00       		.byte	0
 1289 010c 03       		.uleb128 0x3
 1290 010d 0E       		.uleb128 0xe
 1291 010e 3A       		.uleb128 0x3a
 1292 010f 0B       		.uleb128 0xb
 1293 0110 3B       		.uleb128 0x3b
 1294 0111 0B       		.uleb128 0xb
 1295 0112 49       		.uleb128 0x49
 1296 0113 13       		.uleb128 0x13
 1297 0114 38       		.uleb128 0x38
 1298 0115 0B       		.uleb128 0xb
 1299 0116 00       		.byte	0
 1300 0117 00       		.byte	0
 1301 0118 17       		.uleb128 0x17
 1302 0119 2E       		.uleb128 0x2e
 1303 011a 01       		.byte	0x1
 1304 011b 3F       		.uleb128 0x3f
 1305 011c 19       		.uleb128 0x19
 1306 011d 03       		.uleb128 0x3
 1307 011e 0E       		.uleb128 0xe
 1308 011f 3A       		.uleb128 0x3a
 1309 0120 0B       		.uleb128 0xb
 1310 0121 3B       		.uleb128 0x3b
 1311 0122 0B       		.uleb128 0xb
 1312 0123 27       		.uleb128 0x27
 1313 0124 19       		.uleb128 0x19
 1314 0125 11       		.uleb128 0x11
 1315 0126 01       		.uleb128 0x1
 1316 0127 12       		.uleb128 0x12
 1317 0128 06       		.uleb128 0x6
 1318 0129 40       		.uleb128 0x40
 1319 012a 18       		.uleb128 0x18
 1320 012b 9742     		.uleb128 0x2117
 1321 012d 19       		.uleb128 0x19
ARM GAS  /tmp/ccF5odmp.s 			page 28


 1322 012e 01       		.uleb128 0x1
 1323 012f 13       		.uleb128 0x13
 1324 0130 00       		.byte	0
 1325 0131 00       		.byte	0
 1326 0132 18       		.uleb128 0x18
 1327 0133 05       		.uleb128 0x5
 1328 0134 00       		.byte	0
 1329 0135 03       		.uleb128 0x3
 1330 0136 0E       		.uleb128 0xe
 1331 0137 3A       		.uleb128 0x3a
 1332 0138 0B       		.uleb128 0xb
 1333 0139 3B       		.uleb128 0x3b
 1334 013a 0B       		.uleb128 0xb
 1335 013b 49       		.uleb128 0x49
 1336 013c 13       		.uleb128 0x13
 1337 013d 02       		.uleb128 0x2
 1338 013e 18       		.uleb128 0x18
 1339 013f 00       		.byte	0
 1340 0140 00       		.byte	0
 1341 0141 19       		.uleb128 0x19
 1342 0142 34       		.uleb128 0x34
 1343 0143 00       		.byte	0
 1344 0144 03       		.uleb128 0x3
 1345 0145 0E       		.uleb128 0xe
 1346 0146 3A       		.uleb128 0x3a
 1347 0147 0B       		.uleb128 0xb
 1348 0148 3B       		.uleb128 0x3b
 1349 0149 0B       		.uleb128 0xb
 1350 014a 49       		.uleb128 0x49
 1351 014b 13       		.uleb128 0x13
 1352 014c 02       		.uleb128 0x2
 1353 014d 18       		.uleb128 0x18
 1354 014e 00       		.byte	0
 1355 014f 00       		.byte	0
 1356 0150 1A       		.uleb128 0x1a
 1357 0151 0F       		.uleb128 0xf
 1358 0152 00       		.byte	0
 1359 0153 0B       		.uleb128 0xb
 1360 0154 0B       		.uleb128 0xb
 1361 0155 49       		.uleb128 0x49
 1362 0156 13       		.uleb128 0x13
 1363 0157 00       		.byte	0
 1364 0158 00       		.byte	0
 1365 0159 1B       		.uleb128 0x1b
 1366 015a 2E       		.uleb128 0x2e
 1367 015b 01       		.byte	0x1
 1368 015c 3F       		.uleb128 0x3f
 1369 015d 19       		.uleb128 0x19
 1370 015e 03       		.uleb128 0x3
 1371 015f 0E       		.uleb128 0xe
 1372 0160 3A       		.uleb128 0x3a
 1373 0161 0B       		.uleb128 0xb
 1374 0162 3B       		.uleb128 0x3b
 1375 0163 0B       		.uleb128 0xb
 1376 0164 27       		.uleb128 0x27
 1377 0165 19       		.uleb128 0x19
 1378 0166 11       		.uleb128 0x11
ARM GAS  /tmp/ccF5odmp.s 			page 29


 1379 0167 01       		.uleb128 0x1
 1380 0168 12       		.uleb128 0x12
 1381 0169 06       		.uleb128 0x6
 1382 016a 40       		.uleb128 0x40
 1383 016b 18       		.uleb128 0x18
 1384 016c 9742     		.uleb128 0x2117
 1385 016e 19       		.uleb128 0x19
 1386 016f 00       		.byte	0
 1387 0170 00       		.byte	0
 1388 0171 00       		.byte	0
 1389              		.section	.debug_aranges,"",%progbits
 1390 0000 1C000000 		.4byte	0x1c
 1391 0004 0200     		.2byte	0x2
 1392 0006 00000000 		.4byte	.Ldebug_info0
 1393 000a 04       		.byte	0x4
 1394 000b 00       		.byte	0
 1395 000c 0000     		.2byte	0
 1396 000e 0000     		.2byte	0
 1397 0010 00000000 		.4byte	.Ltext0
 1398 0014 8C010000 		.4byte	.Letext0-.Ltext0
 1399 0018 00000000 		.4byte	0
 1400 001c 00000000 		.4byte	0
 1401              		.section	.debug_line,"",%progbits
 1402              	.Ldebug_line0:
 1403 0000 0F010000 		.section	.debug_str,"MS",%progbits,1
 1403      0200CC00 
 1403      00000201 
 1403      FB0E0D00 
 1403      01010101 
 1404              	.LASF23:
 1405 0000 49414252 		.ascii	"IABR\000"
 1405      00
 1406              	.LASF57:
 1407 0005 4E564943 		.ascii	"NVIC_InitTypeDef\000"
 1407      5F496E69 
 1407      74547970 
 1407      65446566 
 1407      00
 1408              	.LASF56:
 1409 0016 4E564943 		.ascii	"NVIC_IRQChannelCmd\000"
 1409      5F495251 
 1409      4368616E 
 1409      6E656C43 
 1409      6D6400
 1410              	.LASF60:
 1411 0029 53797354 		.ascii	"SysTick_CLKSource\000"
 1411      69636B5F 
 1411      434C4B53 
 1411      6F757263 
 1411      6500
 1412              	.LASF67:
 1413 003b 4E564943 		.ascii	"NVIC_InitStruct\000"
 1413      5F496E69 
 1413      74537472 
 1413      75637400 
 1414              	.LASF71:
 1415 004b 4E564943 		.ascii	"NVIC_PriorityGroup\000"
ARM GAS  /tmp/ccF5odmp.s 			page 30


 1415      5F507269 
 1415      6F726974 
 1415      7947726F 
 1415      757000
 1416              	.LASF58:
 1417 005e 53797354 		.ascii	"SysTick_CLKSourceConfig\000"
 1417      69636B5F 
 1417      434C4B53 
 1417      6F757263 
 1417      65436F6E 
 1418              	.LASF2:
 1419 0076 73686F72 		.ascii	"short int\000"
 1419      7420696E 
 1419      7400
 1420              	.LASF63:
 1421 0080 4E564943 		.ascii	"NVIC_SetVectorTable\000"
 1421      5F536574 
 1421      56656374 
 1421      6F725461 
 1421      626C6500 
 1422              	.LASF27:
 1423 0094 73697A65 		.ascii	"sizetype\000"
 1423      74797065 
 1423      00
 1424              	.LASF66:
 1425 009d 4E564943 		.ascii	"NVIC_Init\000"
 1425      5F496E69 
 1425      7400
 1426              	.LASF69:
 1427 00a7 746D7070 		.ascii	"tmppre\000"
 1427      726500
 1428              	.LASF7:
 1429 00ae 5F5F7569 		.ascii	"__uint32_t\000"
 1429      6E743332 
 1429      5F7400
 1430              	.LASF29:
 1431 00b9 43505549 		.ascii	"CPUID\000"
 1431      4400
 1432              	.LASF16:
 1433 00bf 52455345 		.ascii	"RESERVED0\000"
 1433      52564544 
 1433      3000
 1434              	.LASF12:
 1435 00c9 75696E74 		.ascii	"uint8_t\000"
 1435      385F7400 
 1436              	.LASF43:
 1437 00d1 5343425F 		.ascii	"SCB_Type\000"
 1437      54797065 
 1437      00
 1438              	.LASF62:
 1439 00da 4E657753 		.ascii	"NewState\000"
 1439      74617465 
 1439      00
 1440              	.LASF26:
 1441 00e3 53544952 		.ascii	"STIR\000"
 1441      00
 1442              	.LASF50:
ARM GAS  /tmp/ccF5odmp.s 			page 31


 1443 00e8 44495341 		.ascii	"DISABLE\000"
 1443      424C4500 
 1444              	.LASF30:
 1445 00f0 49435352 		.ascii	"ICSR\000"
 1445      00
 1446              	.LASF18:
 1447 00f5 52534552 		.ascii	"RSERVED1\000"
 1447      56454431 
 1447      00
 1448              	.LASF9:
 1449 00fe 6C6F6E67 		.ascii	"long long int\000"
 1449      206C6F6E 
 1449      6720696E 
 1449      7400
 1450              	.LASF46:
 1451 010c 43414C49 		.ascii	"CALIB\000"
 1451      4200
 1452              	.LASF31:
 1453 0112 56544F52 		.ascii	"VTOR\000"
 1453      00
 1454              	.LASF38:
 1455 0117 42464152 		.ascii	"BFAR\000"
 1455      00
 1456              	.LASF6:
 1457 011c 6C6F6E67 		.ascii	"long int\000"
 1457      20696E74 
 1457      00
 1458              	.LASF4:
 1459 0125 5F5F7569 		.ascii	"__uint8_t\000"
 1459      6E74385F 
 1459      7400
 1460              	.LASF34:
 1461 012f 43465352 		.ascii	"CFSR\000"
 1461      00
 1462              	.LASF74:
 1463 0134 2F686F6D 		.ascii	"/home/enbin/Documents/code/STM/usart\000"
 1463      652F656E 
 1463      62696E2F 
 1463      446F6375 
 1463      6D656E74 
 1464              	.LASF1:
 1465 0159 756E7369 		.ascii	"unsigned char\000"
 1465      676E6564 
 1465      20636861 
 1465      7200
 1466              	.LASF32:
 1467 0167 41495243 		.ascii	"AIRCR\000"
 1467      5200
 1468              	.LASF73:
 1469 016d 636F6D6D 		.ascii	"common/misc.c\000"
 1469      6F6E2F6D 
 1469      6973632E 
 1469      6300
 1470              	.LASF44:
 1471 017b 4354524C 		.ascii	"CTRL\000"
 1471      00
 1472              	.LASF28:
ARM GAS  /tmp/ccF5odmp.s 			page 32


 1473 0180 4E564943 		.ascii	"NVIC_Type\000"
 1473      5F547970 
 1473      6500
 1474              	.LASF21:
 1475 018a 49435052 		.ascii	"ICPR\000"
 1475      00
 1476              	.LASF0:
 1477 018f 7369676E 		.ascii	"signed char\000"
 1477      65642063 
 1477      68617200 
 1478              	.LASF10:
 1479 019b 6C6F6E67 		.ascii	"long long unsigned int\000"
 1479      206C6F6E 
 1479      6720756E 
 1479      7369676E 
 1479      65642069 
 1480              	.LASF14:
 1481 01b2 75696E74 		.ascii	"uint32_t\000"
 1481      33325F74 
 1481      00
 1482              	.LASF11:
 1483 01bb 756E7369 		.ascii	"unsigned int\000"
 1483      676E6564 
 1483      20696E74 
 1483      00
 1484              	.LASF72:
 1485 01c8 474E5520 		.ascii	"GNU C11 6.1.1 20160526 -mthumb -mcpu=cortex-m3 -g -"
 1485      43313120 
 1485      362E312E 
 1485      31203230 
 1485      31363035 
 1486 01fb 666E6F2D 		.ascii	"fno-common\000"
 1486      636F6D6D 
 1486      6F6E00
 1487              	.LASF33:
 1488 0206 53484353 		.ascii	"SHCSR\000"
 1488      5200
 1489              	.LASF37:
 1490 020c 4D4D4641 		.ascii	"MMFAR\000"
 1490      5200
 1491              	.LASF70:
 1492 0212 746D7073 		.ascii	"tmpsub\000"
 1492      756200
 1493              	.LASF59:
 1494 0219 4E564943 		.ascii	"NVIC_SystemLPConfig\000"
 1494      5F537973 
 1494      74656D4C 
 1494      50436F6E 
 1494      66696700 
 1495              	.LASF65:
 1496 022d 4F666673 		.ascii	"Offset\000"
 1496      657400
 1497              	.LASF47:
 1498 0234 53797354 		.ascii	"SysTick_Type\000"
 1498      69636B5F 
 1498      54797065 
 1498      00
ARM GAS  /tmp/ccF5odmp.s 			page 33


 1499              	.LASF3:
 1500 0241 73686F72 		.ascii	"short unsigned int\000"
 1500      7420756E 
 1500      7369676E 
 1500      65642069 
 1500      6E7400
 1501              	.LASF68:
 1502 0254 746D7070 		.ascii	"tmppriority\000"
 1502      72696F72 
 1502      69747900 
 1503              	.LASF13:
 1504 0260 696E7433 		.ascii	"int32_t\000"
 1504      325F7400 
 1505              	.LASF41:
 1506 0268 49534152 		.ascii	"ISAR\000"
 1506      00
 1507              	.LASF19:
 1508 026d 49535052 		.ascii	"ISPR\000"
 1508      00
 1509              	.LASF36:
 1510 0272 44465352 		.ascii	"DFSR\000"
 1510      00
 1511              	.LASF53:
 1512 0277 4E564943 		.ascii	"NVIC_IRQChannel\000"
 1512      5F495251 
 1512      4368616E 
 1512      6E656C00 
 1513              	.LASF55:
 1514 0287 4E564943 		.ascii	"NVIC_IRQChannelSubPriority\000"
 1514      5F495251 
 1514      4368616E 
 1514      6E656C53 
 1514      75625072 
 1515              	.LASF49:
 1516 02a2 53797374 		.ascii	"SystemCoreClock\000"
 1516      656D436F 
 1516      7265436C 
 1516      6F636B00 
 1517              	.LASF35:
 1518 02b2 48465352 		.ascii	"HFSR\000"
 1518      00
 1519              	.LASF17:
 1520 02b7 49434552 		.ascii	"ICER\000"
 1520      00
 1521              	.LASF40:
 1522 02bc 4D4D4652 		.ascii	"MMFR\000"
 1522      00
 1523              	.LASF15:
 1524 02c1 49534552 		.ascii	"ISER\000"
 1524      00
 1525              	.LASF20:
 1526 02c6 52455345 		.ascii	"RESERVED2\000"
 1526      52564544 
 1526      3200
 1527              	.LASF22:
 1528 02d0 52455345 		.ascii	"RESERVED3\000"
 1528      52564544 
ARM GAS  /tmp/ccF5odmp.s 			page 34


 1528      3300
 1529              	.LASF24:
 1530 02da 52455345 		.ascii	"RESERVED4\000"
 1530      52564544 
 1530      3400
 1531              	.LASF25:
 1532 02e4 52455345 		.ascii	"RESERVED5\000"
 1532      52564544 
 1532      3500
 1533              	.LASF8:
 1534 02ee 6C6F6E67 		.ascii	"long unsigned int\000"
 1534      20756E73 
 1534      69676E65 
 1534      6420696E 
 1534      7400
 1535              	.LASF54:
 1536 0300 4E564943 		.ascii	"NVIC_IRQChannelPreemptionPriority\000"
 1536      5F495251 
 1536      4368616E 
 1536      6E656C50 
 1536      7265656D 
 1537              	.LASF52:
 1538 0322 46756E63 		.ascii	"FunctionalState\000"
 1538      74696F6E 
 1538      616C5374 
 1538      61746500 
 1539              	.LASF5:
 1540 0332 5F5F696E 		.ascii	"__int32_t\000"
 1540      7433325F 
 1540      7400
 1541              	.LASF64:
 1542 033c 4E564943 		.ascii	"NVIC_VectTab\000"
 1542      5F566563 
 1542      74546162 
 1542      00
 1543              	.LASF45:
 1544 0349 4C4F4144 		.ascii	"LOAD\000"
 1544      00
 1545              	.LASF39:
 1546 034e 41465352 		.ascii	"AFSR\000"
 1546      00
 1547              	.LASF61:
 1548 0353 4C6F7750 		.ascii	"LowPowerMode\000"
 1548      6F776572 
 1548      4D6F6465 
 1548      00
 1549              	.LASF48:
 1550 0360 49544D5F 		.ascii	"ITM_RxBuffer\000"
 1550      52784275 
 1550      66666572 
 1550      00
 1551              	.LASF42:
 1552 036d 43504143 		.ascii	"CPACR\000"
 1552      5200
 1553              	.LASF51:
 1554 0373 454E4142 		.ascii	"ENABLE\000"
 1554      4C4500
ARM GAS  /tmp/ccF5odmp.s 			page 35


 1555              	.LASF75:
 1556 037a 4E564943 		.ascii	"NVIC_PriorityGroupConfig\000"
 1556      5F507269 
 1556      6F726974 
 1556      7947726F 
 1556      7570436F 
 1557              		.ident	"GCC: (Arch Repository) 6.1.1 20160526"
ARM GAS  /tmp/ccF5odmp.s 			page 36


DEFINED SYMBOLS
                            *ABS*:0000000000000000 misc.c
     /tmp/ccF5odmp.s:15     .text:0000000000000000 $t
     /tmp/ccF5odmp.s:22     .text:0000000000000000 NVIC_PriorityGroupConfig
     /tmp/ccF5odmp.s:58     .text:0000000000000020 $d
     /tmp/ccF5odmp.s:62     .text:0000000000000024 $t
     /tmp/ccF5odmp.s:69     .text:0000000000000024 NVIC_Init
     /tmp/ccF5odmp.s:190    .text:00000000000000e0 $d
     /tmp/ccF5odmp.s:195    .text:00000000000000e8 $t
     /tmp/ccF5odmp.s:202    .text:00000000000000e8 NVIC_SetVectorTable
     /tmp/ccF5odmp.s:240    .text:0000000000000110 $d
     /tmp/ccF5odmp.s:244    .text:0000000000000114 $t
     /tmp/ccF5odmp.s:251    .text:0000000000000114 NVIC_SystemLPConfig
     /tmp/ccF5odmp.s:307    .text:0000000000000150 $d
     /tmp/ccF5odmp.s:311    .text:0000000000000154 $t
     /tmp/ccF5odmp.s:318    .text:0000000000000154 SysTick_CLKSourceConfig
     /tmp/ccF5odmp.s:367    .text:0000000000000188 $d
                     .debug_frame:0000000000000010 $d

NO UNDEFINED SYMBOLS
