ARM GAS  /tmp/ccdacDx2.s 			page 1


   1              		.cpu cortex-m3
   2              		.eabi_attribute 20, 1
   3              		.eabi_attribute 21, 1
   4              		.eabi_attribute 23, 3
   5              		.eabi_attribute 24, 1
   6              		.eabi_attribute 25, 1
   7              		.eabi_attribute 26, 1
   8              		.eabi_attribute 30, 6
   9              		.eabi_attribute 34, 1
  10              		.eabi_attribute 18, 4
  11              		.file	"stm32f10x_it.c"
  12              		.text
  13              	.Ltext0:
  14              		.cfi_sections	.debug_frame
  15              		.global	counter
  16              		.bss
  17              		.align	2
  18              		.type	counter, %object
  19              		.size	counter, 4
  20              	counter:
  21 0000 00000000 		.space	4
  22              		.text
  23              		.align	1
  24              		.global	NMI_Handler
  25              		.syntax unified
  26              		.thumb
  27              		.thumb_func
  28              		.fpu softvfp
  29              		.type	NMI_Handler, %function
  30              	NMI_Handler:
  31              	.LFB63:
  32              		.file 1 "src/stm32f10x_it.c"
   1:src/stm32f10x_it.c **** /**
   2:src/stm32f10x_it.c ****   ******************************************************************************
   3:src/stm32f10x_it.c ****   * @file    RCC/RCC_ClockConfig/stm32f10x_it.c 
   4:src/stm32f10x_it.c ****   * @author  MCD Application Team
   5:src/stm32f10x_it.c ****   * @version V3.5.0
   6:src/stm32f10x_it.c ****   * @date    08-April-2011
   7:src/stm32f10x_it.c ****   * @brief   Main Interrupt Service Routines.
   8:src/stm32f10x_it.c ****   *          This file provides template for all exceptions handler and peripherals
   9:src/stm32f10x_it.c ****   *          interrupt service routine.
  10:src/stm32f10x_it.c ****   ******************************************************************************
  11:src/stm32f10x_it.c ****   * @attention
  12:src/stm32f10x_it.c ****   *
  13:src/stm32f10x_it.c ****   * THE PRESENT FIRMWARE WHICH IS FOR GUIDANCE ONLY AIMS AT PROVIDING CUSTOMERS
  14:src/stm32f10x_it.c ****   * WITH CODING INFORMATION REGARDING THEIR PRODUCTS IN ORDER FOR THEM TO SAVE
  15:src/stm32f10x_it.c ****   * TIME. AS A RESULT, STMICROELECTRONICS SHALL NOT BE HELD LIABLE FOR ANY
  16:src/stm32f10x_it.c ****   * DIRECT, INDIRECT OR CONSEQUENTIAL DAMAGES WITH RESPECT TO ANY CLAIMS ARISING
  17:src/stm32f10x_it.c ****   * FROM THE CONTENT OF SUCH FIRMWARE AND/OR THE USE MADE BY CUSTOMERS OF THE
  18:src/stm32f10x_it.c ****   * CODING INFORMATION CONTAINED HEREIN IN CONNECTION WITH THEIR PRODUCTS.
  19:src/stm32f10x_it.c ****   *
  20:src/stm32f10x_it.c ****   * <h2><center>&copy; COPYRIGHT 2011 STMicroelectronics</center></h2>
  21:src/stm32f10x_it.c ****   ******************************************************************************
  22:src/stm32f10x_it.c ****   */ 
  23:src/stm32f10x_it.c **** 
  24:src/stm32f10x_it.c **** /* Includes ------------------------------------------------------------------*/
  25:src/stm32f10x_it.c **** #include "stm32f10x_it.h"
ARM GAS  /tmp/ccdacDx2.s 			page 2


  26:src/stm32f10x_it.c **** #include "main.h"
  27:src/stm32f10x_it.c **** 
  28:src/stm32f10x_it.c **** u32 counter;
  29:src/stm32f10x_it.c **** /** @addtogroup STM32F10x_StdPeriph_Examples
  30:src/stm32f10x_it.c ****   * @{
  31:src/stm32f10x_it.c ****   */
  32:src/stm32f10x_it.c **** 
  33:src/stm32f10x_it.c **** /** @addtogroup RCC_ClockConfig
  34:src/stm32f10x_it.c ****   * @{
  35:src/stm32f10x_it.c ****   */ 
  36:src/stm32f10x_it.c **** 
  37:src/stm32f10x_it.c **** /* Private typedef -----------------------------------------------------------*/
  38:src/stm32f10x_it.c **** /* Private define ------------------------------------------------------------*/
  39:src/stm32f10x_it.c **** /* Private macro -------------------------------------------------------------*/
  40:src/stm32f10x_it.c **** /* Private variables ---------------------------------------------------------*/
  41:src/stm32f10x_it.c **** /* Private function prototypes -----------------------------------------------*/
  42:src/stm32f10x_it.c **** /* Private functions ---------------------------------------------------------*/
  43:src/stm32f10x_it.c **** 
  44:src/stm32f10x_it.c **** /******************************************************************************/
  45:src/stm32f10x_it.c **** /*            Cortex-M3 Processor Exceptions Handlers                         */
  46:src/stm32f10x_it.c **** /******************************************************************************/
  47:src/stm32f10x_it.c **** 
  48:src/stm32f10x_it.c **** /**
  49:src/stm32f10x_it.c ****   * @brief  This function handles NMI exception.
  50:src/stm32f10x_it.c ****   * @param  None
  51:src/stm32f10x_it.c ****   * @retval None
  52:src/stm32f10x_it.c ****   */
  53:src/stm32f10x_it.c **** void NMI_Handler(void)
  54:src/stm32f10x_it.c **** {
  33              		.loc 1 54 0
  34              		.cfi_startproc
  35              		@ args = 0, pretend = 0, frame = 0
  36              		@ frame_needed = 1, uses_anonymous_args = 0
  37 0000 80B5     		push	{r7, lr}
  38              		.cfi_def_cfa_offset 8
  39              		.cfi_offset 7, -8
  40              		.cfi_offset 14, -4
  41 0002 00AF     		add	r7, sp, #0
  42              		.cfi_def_cfa_register 7
  55:src/stm32f10x_it.c ****   /* This interrupt is generated when HSE clock fails */
  56:src/stm32f10x_it.c **** 
  57:src/stm32f10x_it.c ****   if (RCC_GetITStatus(RCC_IT_CSS) != RESET)
  43              		.loc 1 57 0
  44 0004 8020     		movs	r0, #128
  45 0006 FFF7FEFF 		bl	RCC_GetITStatus
  46 000a 0346     		mov	r3, r0
  47 000c 002B     		cmp	r3, #0
  48 000e 0ED0     		beq	.L3
  58:src/stm32f10x_it.c ****   {/* At this stage: HSE, PLL are disabled (but no change on PLL config) and HSI
  59:src/stm32f10x_it.c ****        is selected as system clock source */
  60:src/stm32f10x_it.c **** 
  61:src/stm32f10x_it.c ****     /* Enable HSE */
  62:src/stm32f10x_it.c ****     RCC_HSEConfig(RCC_HSE_ON);
  49              		.loc 1 62 0
  50 0010 4FF48030 		mov	r0, #65536
  51 0014 FFF7FEFF 		bl	RCC_HSEConfig
  63:src/stm32f10x_it.c **** 
ARM GAS  /tmp/ccdacDx2.s 			page 3


  64:src/stm32f10x_it.c ****     /* Enable HSE Ready interrupt */
  65:src/stm32f10x_it.c ****     RCC_ITConfig(RCC_IT_HSERDY, ENABLE);
  52              		.loc 1 65 0
  53 0018 0121     		movs	r1, #1
  54 001a 0820     		movs	r0, #8
  55 001c FFF7FEFF 		bl	RCC_ITConfig
  66:src/stm32f10x_it.c **** 
  67:src/stm32f10x_it.c **** #ifndef SYSCLK_HSE
  68:src/stm32f10x_it.c ****  #ifdef STM32F10X_CL
  69:src/stm32f10x_it.c ****     /* Enable PLL and PLL2 Ready interrupts */
  70:src/stm32f10x_it.c ****     RCC_ITConfig(RCC_IT_PLLRDY | RCC_IT_PLL2RDY, ENABLE);
  71:src/stm32f10x_it.c ****  #else
  72:src/stm32f10x_it.c ****     /* Enable PLL Ready interrupt */
  73:src/stm32f10x_it.c ****     RCC_ITConfig(RCC_IT_PLLRDY, ENABLE);
  56              		.loc 1 73 0
  57 0020 0121     		movs	r1, #1
  58 0022 1020     		movs	r0, #16
  59 0024 FFF7FEFF 		bl	RCC_ITConfig
  74:src/stm32f10x_it.c ****  #endif	/* STM32F10X_CL */
  75:src/stm32f10x_it.c **** #endif /* SYSCLK_HSE */
  76:src/stm32f10x_it.c **** 
  77:src/stm32f10x_it.c ****     /* Clear Clock Security System interrupt pending bit */
  78:src/stm32f10x_it.c ****     RCC_ClearITPendingBit(RCC_IT_CSS);
  60              		.loc 1 78 0
  61 0028 8020     		movs	r0, #128
  62 002a FFF7FEFF 		bl	RCC_ClearITPendingBit
  63              	.L3:
  79:src/stm32f10x_it.c **** 
  80:src/stm32f10x_it.c ****     /* Once HSE clock recover, the HSERDY interrupt is generated and in the RCC ISR
  81:src/stm32f10x_it.c ****        routine the system clock will be reconfigured to its previous state (before
  82:src/stm32f10x_it.c ****        HSE clock failure) */
  83:src/stm32f10x_it.c ****   }
  84:src/stm32f10x_it.c **** }
  64              		.loc 1 84 0
  65 002e 00BF     		nop
  66 0030 80BD     		pop	{r7, pc}
  67              		.cfi_endproc
  68              	.LFE63:
  69              		.size	NMI_Handler, .-NMI_Handler
  70              		.align	1
  71              		.global	HardFault_Handler
  72              		.syntax unified
  73              		.thumb
  74              		.thumb_func
  75              		.fpu softvfp
  76              		.type	HardFault_Handler, %function
  77              	HardFault_Handler:
  78              	.LFB64:
  85:src/stm32f10x_it.c **** 
  86:src/stm32f10x_it.c **** /**
  87:src/stm32f10x_it.c ****   * @brief  This function handles Hard Fault exception.
  88:src/stm32f10x_it.c ****   * @param  None
  89:src/stm32f10x_it.c ****   * @retval None
  90:src/stm32f10x_it.c ****   */
  91:src/stm32f10x_it.c **** void HardFault_Handler(void)
  92:src/stm32f10x_it.c **** {
  79              		.loc 1 92 0
ARM GAS  /tmp/ccdacDx2.s 			page 4


  80              		.cfi_startproc
  81              		@ args = 0, pretend = 0, frame = 0
  82              		@ frame_needed = 1, uses_anonymous_args = 0
  83              		@ link register save eliminated.
  84 0032 80B4     		push	{r7}
  85              		.cfi_def_cfa_offset 4
  86              		.cfi_offset 7, -4
  87 0034 00AF     		add	r7, sp, #0
  88              		.cfi_def_cfa_register 7
  89              	.L5:
  93:src/stm32f10x_it.c ****   /* Go to infinite loop when Hard Fault exception occurs */
  94:src/stm32f10x_it.c ****   while (1)
  90              		.loc 1 94 0 discriminator 1
  91 0036 FEE7     		b	.L5
  92              		.cfi_endproc
  93              	.LFE64:
  94              		.size	HardFault_Handler, .-HardFault_Handler
  95              		.align	1
  96              		.global	MemManage_Handler
  97              		.syntax unified
  98              		.thumb
  99              		.thumb_func
 100              		.fpu softvfp
 101              		.type	MemManage_Handler, %function
 102              	MemManage_Handler:
 103              	.LFB65:
  95:src/stm32f10x_it.c ****   {
  96:src/stm32f10x_it.c ****   }
  97:src/stm32f10x_it.c **** }
  98:src/stm32f10x_it.c **** 
  99:src/stm32f10x_it.c **** /**
 100:src/stm32f10x_it.c ****   * @brief  This function handles Memory Manage exception.
 101:src/stm32f10x_it.c ****   * @param  None
 102:src/stm32f10x_it.c ****   * @retval None
 103:src/stm32f10x_it.c ****   */
 104:src/stm32f10x_it.c **** void MemManage_Handler(void)
 105:src/stm32f10x_it.c **** {
 104              		.loc 1 105 0
 105              		.cfi_startproc
 106              		@ args = 0, pretend = 0, frame = 0
 107              		@ frame_needed = 1, uses_anonymous_args = 0
 108              		@ link register save eliminated.
 109 0038 80B4     		push	{r7}
 110              		.cfi_def_cfa_offset 4
 111              		.cfi_offset 7, -4
 112 003a 00AF     		add	r7, sp, #0
 113              		.cfi_def_cfa_register 7
 114              	.L7:
 106:src/stm32f10x_it.c ****   /* Go to infinite loop when Memory Manage exception occurs */
 107:src/stm32f10x_it.c ****   while (1)
 115              		.loc 1 107 0 discriminator 1
 116 003c FEE7     		b	.L7
 117              		.cfi_endproc
 118              	.LFE65:
 119              		.size	MemManage_Handler, .-MemManage_Handler
 120              		.align	1
 121              		.global	BusFault_Handler
ARM GAS  /tmp/ccdacDx2.s 			page 5


 122              		.syntax unified
 123              		.thumb
 124              		.thumb_func
 125              		.fpu softvfp
 126              		.type	BusFault_Handler, %function
 127              	BusFault_Handler:
 128              	.LFB66:
 108:src/stm32f10x_it.c ****   {
 109:src/stm32f10x_it.c ****   }
 110:src/stm32f10x_it.c **** }
 111:src/stm32f10x_it.c **** 
 112:src/stm32f10x_it.c **** /**
 113:src/stm32f10x_it.c ****   * @brief  This function handles Bus Fault exception.
 114:src/stm32f10x_it.c ****   * @param  None
 115:src/stm32f10x_it.c ****   * @retval None
 116:src/stm32f10x_it.c ****   */
 117:src/stm32f10x_it.c **** void BusFault_Handler(void)
 118:src/stm32f10x_it.c **** {
 129              		.loc 1 118 0
 130              		.cfi_startproc
 131              		@ args = 0, pretend = 0, frame = 0
 132              		@ frame_needed = 1, uses_anonymous_args = 0
 133              		@ link register save eliminated.
 134 003e 80B4     		push	{r7}
 135              		.cfi_def_cfa_offset 4
 136              		.cfi_offset 7, -4
 137 0040 00AF     		add	r7, sp, #0
 138              		.cfi_def_cfa_register 7
 139              	.L9:
 119:src/stm32f10x_it.c ****   /* Go to infinite loop when Bus Fault exception occurs */
 120:src/stm32f10x_it.c ****   while (1)
 140              		.loc 1 120 0 discriminator 1
 141 0042 FEE7     		b	.L9
 142              		.cfi_endproc
 143              	.LFE66:
 144              		.size	BusFault_Handler, .-BusFault_Handler
 145              		.align	1
 146              		.global	SVC_Handler
 147              		.syntax unified
 148              		.thumb
 149              		.thumb_func
 150              		.fpu softvfp
 151              		.type	SVC_Handler, %function
 152              	SVC_Handler:
 153              	.LFB67:
 121:src/stm32f10x_it.c ****   {
 122:src/stm32f10x_it.c ****   }
 123:src/stm32f10x_it.c **** }
 124:src/stm32f10x_it.c **** 
 125:src/stm32f10x_it.c **** /**
 126:src/stm32f10x_it.c ****   * @brief  This function handles Usage Fault exception.
 127:src/stm32f10x_it.c **** rief  This function handles SVCall exception.
 128:src/stm32f10x_it.c ****   * @param  None
 129:src/stm32f10x_it.c ****   * @retval None
 130:src/stm32f10x_it.c ****   */
 131:src/stm32f10x_it.c **** void SVC_Handler(void)
 132:src/stm32f10x_it.c **** {
ARM GAS  /tmp/ccdacDx2.s 			page 6


 154              		.loc 1 132 0
 155              		.cfi_startproc
 156              		@ args = 0, pretend = 0, frame = 0
 157              		@ frame_needed = 1, uses_anonymous_args = 0
 158              		@ link register save eliminated.
 159 0044 80B4     		push	{r7}
 160              		.cfi_def_cfa_offset 4
 161              		.cfi_offset 7, -4
 162 0046 00AF     		add	r7, sp, #0
 163              		.cfi_def_cfa_register 7
 133:src/stm32f10x_it.c **** }
 164              		.loc 1 133 0
 165 0048 00BF     		nop
 166 004a BD46     		mov	sp, r7
 167              		.cfi_def_cfa_register 13
 168              		@ sp needed
 169 004c 80BC     		pop	{r7}
 170              		.cfi_restore 7
 171              		.cfi_def_cfa_offset 0
 172 004e 7047     		bx	lr
 173              		.cfi_endproc
 174              	.LFE67:
 175              		.size	SVC_Handler, .-SVC_Handler
 176              		.align	1
 177              		.global	DebugMon_Handler
 178              		.syntax unified
 179              		.thumb
 180              		.thumb_func
 181              		.fpu softvfp
 182              		.type	DebugMon_Handler, %function
 183              	DebugMon_Handler:
 184              	.LFB68:
 134:src/stm32f10x_it.c **** 
 135:src/stm32f10x_it.c **** /**
 136:src/stm32f10x_it.c ****   * @brief  This function handles Debug Monitor exception.
 137:src/stm32f10x_it.c ****   * @param  None
 138:src/stm32f10x_it.c ****   * @retval None
 139:src/stm32f10x_it.c ****   */
 140:src/stm32f10x_it.c **** void DebugMon_Handler(void)
 141:src/stm32f10x_it.c **** {
 185              		.loc 1 141 0
 186              		.cfi_startproc
 187              		@ args = 0, pretend = 0, frame = 0
 188              		@ frame_needed = 1, uses_anonymous_args = 0
 189              		@ link register save eliminated.
 190 0050 80B4     		push	{r7}
 191              		.cfi_def_cfa_offset 4
 192              		.cfi_offset 7, -4
 193 0052 00AF     		add	r7, sp, #0
 194              		.cfi_def_cfa_register 7
 142:src/stm32f10x_it.c **** }
 195              		.loc 1 142 0
 196 0054 00BF     		nop
 197 0056 BD46     		mov	sp, r7
 198              		.cfi_def_cfa_register 13
 199              		@ sp needed
 200 0058 80BC     		pop	{r7}
ARM GAS  /tmp/ccdacDx2.s 			page 7


 201              		.cfi_restore 7
 202              		.cfi_def_cfa_offset 0
 203 005a 7047     		bx	lr
 204              		.cfi_endproc
 205              	.LFE68:
 206              		.size	DebugMon_Handler, .-DebugMon_Handler
 207              		.align	1
 208              		.global	PendSV_Handler
 209              		.syntax unified
 210              		.thumb
 211              		.thumb_func
 212              		.fpu softvfp
 213              		.type	PendSV_Handler, %function
 214              	PendSV_Handler:
 215              	.LFB69:
 143:src/stm32f10x_it.c **** 
 144:src/stm32f10x_it.c **** /**
 145:src/stm32f10x_it.c ****   * @brief  This function handles PendSV_Handler exception.
 146:src/stm32f10x_it.c ****   * @param  None
 147:src/stm32f10x_it.c ****   * @retval None
 148:src/stm32f10x_it.c ****   */
 149:src/stm32f10x_it.c **** void PendSV_Handler(void)
 150:src/stm32f10x_it.c **** {
 216              		.loc 1 150 0
 217              		.cfi_startproc
 218              		@ args = 0, pretend = 0, frame = 0
 219              		@ frame_needed = 1, uses_anonymous_args = 0
 220              		@ link register save eliminated.
 221 005c 80B4     		push	{r7}
 222              		.cfi_def_cfa_offset 4
 223              		.cfi_offset 7, -4
 224 005e 00AF     		add	r7, sp, #0
 225              		.cfi_def_cfa_register 7
 151:src/stm32f10x_it.c **** }
 226              		.loc 1 151 0
 227 0060 00BF     		nop
 228 0062 BD46     		mov	sp, r7
 229              		.cfi_def_cfa_register 13
 230              		@ sp needed
 231 0064 80BC     		pop	{r7}
 232              		.cfi_restore 7
 233              		.cfi_def_cfa_offset 0
 234 0066 7047     		bx	lr
 235              		.cfi_endproc
 236              	.LFE69:
 237              		.size	PendSV_Handler, .-PendSV_Handler
 238              		.align	1
 239              		.global	SysTick_Handler
 240              		.syntax unified
 241              		.thumb
 242              		.thumb_func
 243              		.fpu softvfp
 244              		.type	SysTick_Handler, %function
 245              	SysTick_Handler:
 246              	.LFB70:
 152:src/stm32f10x_it.c **** 
 153:src/stm32f10x_it.c **** /**
ARM GAS  /tmp/ccdacDx2.s 			page 8


 154:src/stm32f10x_it.c ****   * @brief  This function handles SysTick Handler.
 155:src/stm32f10x_it.c ****   * @param  None
 156:src/stm32f10x_it.c ****   * @retval None
 157:src/stm32f10x_it.c ****   */
 158:src/stm32f10x_it.c **** void SysTick_Handler(void)
 159:src/stm32f10x_it.c **** {
 247              		.loc 1 159 0
 248              		.cfi_startproc
 249              		@ args = 0, pretend = 0, frame = 0
 250              		@ frame_needed = 1, uses_anonymous_args = 0
 251              		@ link register save eliminated.
 252 0068 80B4     		push	{r7}
 253              		.cfi_def_cfa_offset 4
 254              		.cfi_offset 7, -4
 255 006a 00AF     		add	r7, sp, #0
 256              		.cfi_def_cfa_register 7
 160:src/stm32f10x_it.c **** }
 257              		.loc 1 160 0
 258 006c 00BF     		nop
 259 006e BD46     		mov	sp, r7
 260              		.cfi_def_cfa_register 13
 261              		@ sp needed
 262 0070 80BC     		pop	{r7}
 263              		.cfi_restore 7
 264              		.cfi_def_cfa_offset 0
 265 0072 7047     		bx	lr
 266              		.cfi_endproc
 267              	.LFE70:
 268              		.size	SysTick_Handler, .-SysTick_Handler
 269              		.align	1
 270              		.global	TIM2_IRQHandler
 271              		.syntax unified
 272              		.thumb
 273              		.thumb_func
 274              		.fpu softvfp
 275              		.type	TIM2_IRQHandler, %function
 276              	TIM2_IRQHandler:
 277              	.LFB71:
 161:src/stm32f10x_it.c **** 
 162:src/stm32f10x_it.c **** void TIM2_IRQHandler(void)
 163:src/stm32f10x_it.c **** {
 278              		.loc 1 163 0
 279              		.cfi_startproc
 280              		@ args = 0, pretend = 0, frame = 0
 281              		@ frame_needed = 1, uses_anonymous_args = 0
 282 0074 80B5     		push	{r7, lr}
 283              		.cfi_def_cfa_offset 8
 284              		.cfi_offset 7, -8
 285              		.cfi_offset 14, -4
 286 0076 00AF     		add	r7, sp, #0
 287              		.cfi_def_cfa_register 7
 164:src/stm32f10x_it.c ****    //检测是否发生溢出更新事件
 165:src/stm32f10x_it.c ****    if(TIM_GetITStatus(TIM2, TIM_IT_Update) != RESET) {
 288              		.loc 1 165 0
 289 0078 0121     		movs	r1, #1
 290 007a 4FF08040 		mov	r0, #1073741824
 291 007e FFF7FEFF 		bl	TIM_GetITStatus
ARM GAS  /tmp/ccdacDx2.s 			page 9


 292 0082 0346     		mov	r3, r0
 293 0084 002B     		cmp	r3, #0
 294 0086 09D0     		beq	.L16
 166:src/stm32f10x_it.c ****       //清除TIM2的中断待处理位
 167:src/stm32f10x_it.c ****       TIM_ClearITPendingBit(TIM2 , TIM_FLAG_Update);
 295              		.loc 1 167 0
 296 0088 0121     		movs	r1, #1
 297 008a 4FF08040 		mov	r0, #1073741824
 298 008e FFF7FEFF 		bl	TIM_ClearITPendingBit
 168:src/stm32f10x_it.c ****       counter++;
 299              		.loc 1 168 0
 300 0092 034B     		ldr	r3, .L17
 301 0094 1B68     		ldr	r3, [r3]
 302 0096 0133     		adds	r3, r3, #1
 303 0098 014A     		ldr	r2, .L17
 304 009a 1360     		str	r3, [r2]
 305              	.L16:
 169:src/stm32f10x_it.c ****    }
 170:src/stm32f10x_it.c **** }
 306              		.loc 1 170 0
 307 009c 00BF     		nop
 308 009e 80BD     		pop	{r7, pc}
 309              	.L18:
 310              		.align	2
 311              	.L17:
 312 00a0 00000000 		.word	counter
 313              		.cfi_endproc
 314              	.LFE71:
 315              		.size	TIM2_IRQHandler, .-TIM2_IRQHandler
 316              		.align	1
 317              		.global	RCC_IRQHandler
 318              		.syntax unified
 319              		.thumb
 320              		.thumb_func
 321              		.fpu softvfp
 322              		.type	RCC_IRQHandler, %function
 323              	RCC_IRQHandler:
 324              	.LFB72:
 171:src/stm32f10x_it.c **** 
 172:src/stm32f10x_it.c **** /******************************************************************************/
 173:src/stm32f10x_it.c **** /*            STM32F10x Peripherals Interrupt Handlers                        */
 174:src/stm32f10x_it.c **** /******************************************************************************/
 175:src/stm32f10x_it.c **** 
 176:src/stm32f10x_it.c **** /**
 177:src/stm32f10x_it.c ****   * @brief  This function handles RCC interrupt request. 
 178:src/stm32f10x_it.c ****   * @param  None
 179:src/stm32f10x_it.c ****   * @retval None
 180:src/stm32f10x_it.c ****   */
 181:src/stm32f10x_it.c **** void RCC_IRQHandler(void)
 182:src/stm32f10x_it.c **** {
 325              		.loc 1 182 0
 326              		.cfi_startproc
 327              		@ args = 0, pretend = 0, frame = 0
 328              		@ frame_needed = 1, uses_anonymous_args = 0
 329 00a4 80B5     		push	{r7, lr}
 330              		.cfi_def_cfa_offset 8
 331              		.cfi_offset 7, -8
ARM GAS  /tmp/ccdacDx2.s 			page 10


 332              		.cfi_offset 14, -4
 333 00a6 00AF     		add	r7, sp, #0
 334              		.cfi_def_cfa_register 7
 183:src/stm32f10x_it.c ****   if(RCC_GetITStatus(RCC_IT_HSERDY) != RESET)
 335              		.loc 1 183 0
 336 00a8 0820     		movs	r0, #8
 337 00aa FFF7FEFF 		bl	RCC_GetITStatus
 338 00ae 0346     		mov	r3, r0
 339 00b0 002B     		cmp	r3, #0
 340 00b2 0BD0     		beq	.L20
 184:src/stm32f10x_it.c ****   { 
 185:src/stm32f10x_it.c ****     /* Clear HSERDY interrupt pending bit */
 186:src/stm32f10x_it.c ****     RCC_ClearITPendingBit(RCC_IT_HSERDY);
 341              		.loc 1 186 0
 342 00b4 0820     		movs	r0, #8
 343 00b6 FFF7FEFF 		bl	RCC_ClearITPendingBit
 187:src/stm32f10x_it.c **** 
 188:src/stm32f10x_it.c ****     /* Check if the HSE clock is still available */
 189:src/stm32f10x_it.c ****     if (RCC_GetFlagStatus(RCC_FLAG_HSERDY) != RESET)
 344              		.loc 1 189 0
 345 00ba 3120     		movs	r0, #49
 346 00bc FFF7FEFF 		bl	RCC_GetFlagStatus
 347 00c0 0346     		mov	r3, r0
 348 00c2 002B     		cmp	r3, #0
 349 00c4 02D0     		beq	.L20
 190:src/stm32f10x_it.c ****     { 
 191:src/stm32f10x_it.c **** #ifdef SYSCLK_HSE
 192:src/stm32f10x_it.c ****       /* Select HSE as system clock source */
 193:src/stm32f10x_it.c ****       RCC_SYSCLKConfig(RCC_SYSCLKSource_HSE);
 194:src/stm32f10x_it.c **** #else
 195:src/stm32f10x_it.c ****  #ifdef STM32F10X_CL
 196:src/stm32f10x_it.c ****       /* Enable PLL2 */
 197:src/stm32f10x_it.c ****       RCC_PLL2Cmd(ENABLE);
 198:src/stm32f10x_it.c ****  #else
 199:src/stm32f10x_it.c ****       /* Enable PLL: once the PLL is ready the PLLRDY interrupt is generated */ 
 200:src/stm32f10x_it.c ****       RCC_PLLCmd(ENABLE);
 350              		.loc 1 200 0
 351 00c6 0120     		movs	r0, #1
 352 00c8 FFF7FEFF 		bl	RCC_PLLCmd
 353              	.L20:
 201:src/stm32f10x_it.c ****  #endif	/* STM32F10X_CL */
 202:src/stm32f10x_it.c **** #endif /* SYSCLK_HSE */      
 203:src/stm32f10x_it.c ****     }
 204:src/stm32f10x_it.c ****   }
 205:src/stm32f10x_it.c **** 
 206:src/stm32f10x_it.c **** #ifdef STM32F10X_CL
 207:src/stm32f10x_it.c ****   if(RCC_GetITStatus(RCC_IT_PLL2RDY) != RESET)
 208:src/stm32f10x_it.c ****   { 
 209:src/stm32f10x_it.c ****     /* Clear PLL2RDY interrupt pending bit */
 210:src/stm32f10x_it.c ****     RCC_ClearITPendingBit(RCC_IT_PLL2RDY);
 211:src/stm32f10x_it.c **** 
 212:src/stm32f10x_it.c ****     /* Enable PLL: once the PLL is ready the PLLRDY interrupt is generated */ 
 213:src/stm32f10x_it.c ****     RCC_PLLCmd(ENABLE);
 214:src/stm32f10x_it.c ****   }
 215:src/stm32f10x_it.c **** #endif /* STM32F10X_CL */   
 216:src/stm32f10x_it.c **** 
 217:src/stm32f10x_it.c ****   if(RCC_GetITStatus(RCC_IT_PLLRDY) != RESET)
ARM GAS  /tmp/ccdacDx2.s 			page 11


 354              		.loc 1 217 0
 355 00cc 1020     		movs	r0, #16
 356 00ce FFF7FEFF 		bl	RCC_GetITStatus
 357 00d2 0346     		mov	r3, r0
 358 00d4 002B     		cmp	r3, #0
 359 00d6 0BD0     		beq	.L22
 218:src/stm32f10x_it.c ****   { 
 219:src/stm32f10x_it.c ****     /* Clear PLLRDY interrupt pending bit */
 220:src/stm32f10x_it.c ****     RCC_ClearITPendingBit(RCC_IT_PLLRDY);
 360              		.loc 1 220 0
 361 00d8 1020     		movs	r0, #16
 362 00da FFF7FEFF 		bl	RCC_ClearITPendingBit
 221:src/stm32f10x_it.c **** 
 222:src/stm32f10x_it.c ****     /* Check if the PLL is still locked */
 223:src/stm32f10x_it.c ****     if (RCC_GetFlagStatus(RCC_FLAG_PLLRDY) != RESET)
 363              		.loc 1 223 0
 364 00de 3920     		movs	r0, #57
 365 00e0 FFF7FEFF 		bl	RCC_GetFlagStatus
 366 00e4 0346     		mov	r3, r0
 367 00e6 002B     		cmp	r3, #0
 368 00e8 02D0     		beq	.L22
 224:src/stm32f10x_it.c ****     { 
 225:src/stm32f10x_it.c ****       /* Select PLL as system clock source */
 226:src/stm32f10x_it.c ****       RCC_SYSCLKConfig(RCC_SYSCLKSource_PLLCLK);
 369              		.loc 1 226 0
 370 00ea 0220     		movs	r0, #2
 371 00ec FFF7FEFF 		bl	RCC_SYSCLKConfig
 372              	.L22:
 227:src/stm32f10x_it.c ****     }
 228:src/stm32f10x_it.c ****   }
 229:src/stm32f10x_it.c **** }
 373              		.loc 1 229 0
 374 00f0 00BF     		nop
 375 00f2 80BD     		pop	{r7, pc}
 376              		.cfi_endproc
 377              	.LFE72:
 378              		.size	RCC_IRQHandler, .-RCC_IRQHandler
 379              	.Letext0:
 380              		.file 2 "/usr/arm-none-eabi/include/machine/_default_types.h"
 381              		.file 3 "/usr/arm-none-eabi/include/sys/_stdint.h"
 382              		.file 4 "include/core_cm3.h"
 383              		.file 5 "include/system_stm32f10x.h"
 384              		.file 6 "include/stm32f10x.h"