ARM GAS  /tmp/cckH6qNJ.s 			page 1


   1              		.cpu cortex-m3
   2              		.eabi_attribute 20, 1
   3              		.eabi_attribute 21, 1
   4              		.eabi_attribute 23, 3
   5              		.eabi_attribute 24, 1
   6              		.eabi_attribute 25, 1
   7              		.eabi_attribute 26, 1
   8              		.eabi_attribute 30, 6
   9              		.eabi_attribute 34, 1
  10              		.eabi_attribute 18, 4
  11              		.file	"stm32f10x_exti.c"
  12              		.text
  13              	.Ltext0:
  14              		.cfi_sections	.debug_frame
  15              		.align	1
  16              		.global	EXTI_DeInit
  17              		.syntax unified
  18              		.thumb
  19              		.thumb_func
  20              		.fpu softvfp
  21              		.type	EXTI_DeInit, %function
  22              	EXTI_DeInit:
  23              	.LFB63:
  24              		.file 1 "common/stm32f10x_exti.c"
   1:common/stm32f10x_exti.c **** /**
   2:common/stm32f10x_exti.c ****   ******************************************************************************
   3:common/stm32f10x_exti.c ****   * @file    stm32f10x_exti.c
   4:common/stm32f10x_exti.c ****   * @author  MCD Application Team
   5:common/stm32f10x_exti.c ****   * @version V3.5.0
   6:common/stm32f10x_exti.c ****   * @date    11-March-2011
   7:common/stm32f10x_exti.c ****   * @brief   This file provides all the EXTI firmware functions.
   8:common/stm32f10x_exti.c ****   ******************************************************************************
   9:common/stm32f10x_exti.c ****   * @attention
  10:common/stm32f10x_exti.c ****   *
  11:common/stm32f10x_exti.c ****   * THE PRESENT FIRMWARE WHICH IS FOR GUIDANCE ONLY AIMS AT PROVIDING CUSTOMERS
  12:common/stm32f10x_exti.c ****   * WITH CODING INFORMATION REGARDING THEIR PRODUCTS IN ORDER FOR THEM TO SAVE
  13:common/stm32f10x_exti.c ****   * TIME. AS A RESULT, STMICROELECTRONICS SHALL NOT BE HELD LIABLE FOR ANY
  14:common/stm32f10x_exti.c ****   * DIRECT, INDIRECT OR CONSEQUENTIAL DAMAGES WITH RESPECT TO ANY CLAIMS ARISING
  15:common/stm32f10x_exti.c ****   * FROM THE CONTENT OF SUCH FIRMWARE AND/OR THE USE MADE BY CUSTOMERS OF THE
  16:common/stm32f10x_exti.c ****   * CODING INFORMATION CONTAINED HEREIN IN CONNECTION WITH THEIR PRODUCTS.
  17:common/stm32f10x_exti.c ****   *
  18:common/stm32f10x_exti.c ****   * <h2><center>&copy; COPYRIGHT 2011 STMicroelectronics</center></h2>
  19:common/stm32f10x_exti.c ****   ******************************************************************************
  20:common/stm32f10x_exti.c ****   */
  21:common/stm32f10x_exti.c **** 
  22:common/stm32f10x_exti.c **** /* Includes ------------------------------------------------------------------*/
  23:common/stm32f10x_exti.c **** #include "stm32f10x_exti.h"
  24:common/stm32f10x_exti.c **** #include "stm32f10x_conf.h"
  25:common/stm32f10x_exti.c **** 
  26:common/stm32f10x_exti.c **** /** @addtogroup STM32F10x_StdPeriph_Driver
  27:common/stm32f10x_exti.c ****   * @{
  28:common/stm32f10x_exti.c ****   */
  29:common/stm32f10x_exti.c **** 
  30:common/stm32f10x_exti.c **** /** @defgroup EXTI 
  31:common/stm32f10x_exti.c ****   * @brief EXTI driver modules
  32:common/stm32f10x_exti.c ****   * @{
  33:common/stm32f10x_exti.c ****   */
ARM GAS  /tmp/cckH6qNJ.s 			page 2


  34:common/stm32f10x_exti.c **** 
  35:common/stm32f10x_exti.c **** /** @defgroup EXTI_Private_TypesDefinitions
  36:common/stm32f10x_exti.c ****   * @{
  37:common/stm32f10x_exti.c ****   */
  38:common/stm32f10x_exti.c **** 
  39:common/stm32f10x_exti.c **** /**
  40:common/stm32f10x_exti.c ****   * @}
  41:common/stm32f10x_exti.c ****   */
  42:common/stm32f10x_exti.c **** 
  43:common/stm32f10x_exti.c **** /** @defgroup EXTI_Private_Defines
  44:common/stm32f10x_exti.c ****   * @{
  45:common/stm32f10x_exti.c ****   */
  46:common/stm32f10x_exti.c **** 
  47:common/stm32f10x_exti.c **** #define EXTI_LINENONE    ((uint32_t)0x00000)  /* No interrupt selected */
  48:common/stm32f10x_exti.c **** 
  49:common/stm32f10x_exti.c **** /**
  50:common/stm32f10x_exti.c ****   * @}
  51:common/stm32f10x_exti.c ****   */
  52:common/stm32f10x_exti.c **** 
  53:common/stm32f10x_exti.c **** /** @defgroup EXTI_Private_Macros
  54:common/stm32f10x_exti.c ****   * @{
  55:common/stm32f10x_exti.c ****   */
  56:common/stm32f10x_exti.c **** 
  57:common/stm32f10x_exti.c **** /**
  58:common/stm32f10x_exti.c ****   * @}
  59:common/stm32f10x_exti.c ****   */
  60:common/stm32f10x_exti.c **** 
  61:common/stm32f10x_exti.c **** /** @defgroup EXTI_Private_Variables
  62:common/stm32f10x_exti.c ****   * @{
  63:common/stm32f10x_exti.c ****   */
  64:common/stm32f10x_exti.c **** 
  65:common/stm32f10x_exti.c **** /**
  66:common/stm32f10x_exti.c ****   * @}
  67:common/stm32f10x_exti.c ****   */
  68:common/stm32f10x_exti.c **** 
  69:common/stm32f10x_exti.c **** /** @defgroup EXTI_Private_FunctionPrototypes
  70:common/stm32f10x_exti.c ****   * @{
  71:common/stm32f10x_exti.c ****   */
  72:common/stm32f10x_exti.c **** 
  73:common/stm32f10x_exti.c **** /**
  74:common/stm32f10x_exti.c ****   * @}
  75:common/stm32f10x_exti.c ****   */
  76:common/stm32f10x_exti.c **** 
  77:common/stm32f10x_exti.c **** /** @defgroup EXTI_Private_Functions
  78:common/stm32f10x_exti.c ****   * @{
  79:common/stm32f10x_exti.c ****   */
  80:common/stm32f10x_exti.c **** 
  81:common/stm32f10x_exti.c **** /**
  82:common/stm32f10x_exti.c ****   * @brief  Deinitializes the EXTI peripheral registers to their default reset values.
  83:common/stm32f10x_exti.c ****   * @param  None
  84:common/stm32f10x_exti.c ****   * @retval None
  85:common/stm32f10x_exti.c ****   */
  86:common/stm32f10x_exti.c **** void EXTI_DeInit(void)
  87:common/stm32f10x_exti.c **** {
  25              		.loc 1 87 0
  26              		.cfi_startproc
  27              		@ args = 0, pretend = 0, frame = 0
ARM GAS  /tmp/cckH6qNJ.s 			page 3


  28              		@ frame_needed = 1, uses_anonymous_args = 0
  29              		@ link register save eliminated.
  30 0000 80B4     		push	{r7}
  31              		.cfi_def_cfa_offset 4
  32              		.cfi_offset 7, -4
  33 0002 00AF     		add	r7, sp, #0
  34              		.cfi_def_cfa_register 7
  88:common/stm32f10x_exti.c ****   EXTI->IMR = 0x00000000;
  35              		.loc 1 88 0
  36 0004 094B     		ldr	r3, .L2
  37 0006 0022     		movs	r2, #0
  38 0008 1A60     		str	r2, [r3]
  89:common/stm32f10x_exti.c ****   EXTI->EMR = 0x00000000;
  39              		.loc 1 89 0
  40 000a 084B     		ldr	r3, .L2
  41 000c 0022     		movs	r2, #0
  42 000e 5A60     		str	r2, [r3, #4]
  90:common/stm32f10x_exti.c ****   EXTI->RTSR = 0x00000000; 
  43              		.loc 1 90 0
  44 0010 064B     		ldr	r3, .L2
  45 0012 0022     		movs	r2, #0
  46 0014 9A60     		str	r2, [r3, #8]
  91:common/stm32f10x_exti.c ****   EXTI->FTSR = 0x00000000; 
  47              		.loc 1 91 0
  48 0016 054B     		ldr	r3, .L2
  49 0018 0022     		movs	r2, #0
  50 001a DA60     		str	r2, [r3, #12]
  92:common/stm32f10x_exti.c ****   EXTI->PR = 0x000FFFFF;
  51              		.loc 1 92 0
  52 001c 034B     		ldr	r3, .L2
  53 001e 044A     		ldr	r2, .L2+4
  54 0020 5A61     		str	r2, [r3, #20]
  93:common/stm32f10x_exti.c **** }
  55              		.loc 1 93 0
  56 0022 00BF     		nop
  57 0024 BD46     		mov	sp, r7
  58              		.cfi_def_cfa_register 13
  59              		@ sp needed
  60 0026 80BC     		pop	{r7}
  61              		.cfi_restore 7
  62              		.cfi_def_cfa_offset 0
  63 0028 7047     		bx	lr
  64              	.L3:
  65 002a 00BF     		.align	2
  66              	.L2:
  67 002c 00040140 		.word	1073808384
  68 0030 FFFF0F00 		.word	1048575
  69              		.cfi_endproc
  70              	.LFE63:
  71              		.size	EXTI_DeInit, .-EXTI_DeInit
  72              		.align	1
  73              		.global	EXTI_Init
  74              		.syntax unified
  75              		.thumb
  76              		.thumb_func
  77              		.fpu softvfp
  78              		.type	EXTI_Init, %function
ARM GAS  /tmp/cckH6qNJ.s 			page 4


  79              	EXTI_Init:
  80              	.LFB64:
  94:common/stm32f10x_exti.c **** 
  95:common/stm32f10x_exti.c **** /**
  96:common/stm32f10x_exti.c ****   * @brief  Initializes the EXTI peripheral according to the specified
  97:common/stm32f10x_exti.c ****   *         parameters in the EXTI_InitStruct.
  98:common/stm32f10x_exti.c ****   * @param  EXTI_InitStruct: pointer to a EXTI_InitTypeDef structure
  99:common/stm32f10x_exti.c ****   *         that contains the configuration information for the EXTI peripheral.
 100:common/stm32f10x_exti.c ****   * @retval None
 101:common/stm32f10x_exti.c ****   */
 102:common/stm32f10x_exti.c **** void EXTI_Init(EXTI_InitTypeDef* EXTI_InitStruct)
 103:common/stm32f10x_exti.c **** {
  81              		.loc 1 103 0
  82              		.cfi_startproc
  83              		@ args = 0, pretend = 0, frame = 16
  84              		@ frame_needed = 1, uses_anonymous_args = 0
  85              		@ link register save eliminated.
  86 0034 80B4     		push	{r7}
  87              		.cfi_def_cfa_offset 4
  88              		.cfi_offset 7, -4
  89 0036 85B0     		sub	sp, sp, #20
  90              		.cfi_def_cfa_offset 24
  91 0038 00AF     		add	r7, sp, #0
  92              		.cfi_def_cfa_register 7
  93 003a 7860     		str	r0, [r7, #4]
 104:common/stm32f10x_exti.c ****   uint32_t tmp = 0;
  94              		.loc 1 104 0
  95 003c 0023     		movs	r3, #0
  96 003e FB60     		str	r3, [r7, #12]
 105:common/stm32f10x_exti.c **** 
 106:common/stm32f10x_exti.c ****   /* Check the parameters */
 107:common/stm32f10x_exti.c ****   assert_param(IS_EXTI_MODE(EXTI_InitStruct->EXTI_Mode));
 108:common/stm32f10x_exti.c ****   assert_param(IS_EXTI_TRIGGER(EXTI_InitStruct->EXTI_Trigger));
 109:common/stm32f10x_exti.c ****   assert_param(IS_EXTI_LINE(EXTI_InitStruct->EXTI_Line));  
 110:common/stm32f10x_exti.c ****   assert_param(IS_FUNCTIONAL_STATE(EXTI_InitStruct->EXTI_LineCmd));
 111:common/stm32f10x_exti.c **** 
 112:common/stm32f10x_exti.c ****   tmp = (uint32_t)EXTI_BASE;
  97              		.loc 1 112 0
  98 0040 344B     		ldr	r3, .L10
  99 0042 FB60     		str	r3, [r7, #12]
 113:common/stm32f10x_exti.c ****      
 114:common/stm32f10x_exti.c ****   if (EXTI_InitStruct->EXTI_LineCmd != DISABLE)
 100              		.loc 1 114 0
 101 0044 7B68     		ldr	r3, [r7, #4]
 102 0046 9B79     		ldrb	r3, [r3, #6]	@ zero_extendqisi2
 103 0048 002B     		cmp	r3, #0
 104 004a 4FD0     		beq	.L5
 115:common/stm32f10x_exti.c ****   {
 116:common/stm32f10x_exti.c ****     /* Clear EXTI line configuration */
 117:common/stm32f10x_exti.c ****     EXTI->IMR &= ~EXTI_InitStruct->EXTI_Line;
 105              		.loc 1 117 0
 106 004c 3149     		ldr	r1, .L10
 107 004e 314B     		ldr	r3, .L10
 108 0050 1A68     		ldr	r2, [r3]
 109 0052 7B68     		ldr	r3, [r7, #4]
 110 0054 1B68     		ldr	r3, [r3]
 111 0056 DB43     		mvns	r3, r3
ARM GAS  /tmp/cckH6qNJ.s 			page 5


 112 0058 1340     		ands	r3, r3, r2
 113 005a 0B60     		str	r3, [r1]
 118:common/stm32f10x_exti.c ****     EXTI->EMR &= ~EXTI_InitStruct->EXTI_Line;
 114              		.loc 1 118 0
 115 005c 2D49     		ldr	r1, .L10
 116 005e 2D4B     		ldr	r3, .L10
 117 0060 5A68     		ldr	r2, [r3, #4]
 118 0062 7B68     		ldr	r3, [r7, #4]
 119 0064 1B68     		ldr	r3, [r3]
 120 0066 DB43     		mvns	r3, r3
 121 0068 1340     		ands	r3, r3, r2
 122 006a 4B60     		str	r3, [r1, #4]
 119:common/stm32f10x_exti.c ****     
 120:common/stm32f10x_exti.c ****     tmp += EXTI_InitStruct->EXTI_Mode;
 123              		.loc 1 120 0
 124 006c 7B68     		ldr	r3, [r7, #4]
 125 006e 1B79     		ldrb	r3, [r3, #4]	@ zero_extendqisi2
 126 0070 1A46     		mov	r2, r3
 127 0072 FB68     		ldr	r3, [r7, #12]
 128 0074 1344     		add	r3, r3, r2
 129 0076 FB60     		str	r3, [r7, #12]
 121:common/stm32f10x_exti.c **** 
 122:common/stm32f10x_exti.c ****     *(__IO uint32_t *) tmp |= EXTI_InitStruct->EXTI_Line;
 130              		.loc 1 122 0
 131 0078 FB68     		ldr	r3, [r7, #12]
 132 007a FA68     		ldr	r2, [r7, #12]
 133 007c 1168     		ldr	r1, [r2]
 134 007e 7A68     		ldr	r2, [r7, #4]
 135 0080 1268     		ldr	r2, [r2]
 136 0082 0A43     		orrs	r2, r2, r1
 137 0084 1A60     		str	r2, [r3]
 123:common/stm32f10x_exti.c **** 
 124:common/stm32f10x_exti.c ****     /* Clear Rising Falling edge configuration */
 125:common/stm32f10x_exti.c ****     EXTI->RTSR &= ~EXTI_InitStruct->EXTI_Line;
 138              		.loc 1 125 0
 139 0086 2349     		ldr	r1, .L10
 140 0088 224B     		ldr	r3, .L10
 141 008a 9A68     		ldr	r2, [r3, #8]
 142 008c 7B68     		ldr	r3, [r7, #4]
 143 008e 1B68     		ldr	r3, [r3]
 144 0090 DB43     		mvns	r3, r3
 145 0092 1340     		ands	r3, r3, r2
 146 0094 8B60     		str	r3, [r1, #8]
 126:common/stm32f10x_exti.c ****     EXTI->FTSR &= ~EXTI_InitStruct->EXTI_Line;
 147              		.loc 1 126 0
 148 0096 1F49     		ldr	r1, .L10
 149 0098 1E4B     		ldr	r3, .L10
 150 009a DA68     		ldr	r2, [r3, #12]
 151 009c 7B68     		ldr	r3, [r7, #4]
 152 009e 1B68     		ldr	r3, [r3]
 153 00a0 DB43     		mvns	r3, r3
 154 00a2 1340     		ands	r3, r3, r2
 155 00a4 CB60     		str	r3, [r1, #12]
 127:common/stm32f10x_exti.c ****     
 128:common/stm32f10x_exti.c ****     /* Select the trigger for the selected external interrupts */
 129:common/stm32f10x_exti.c ****     if (EXTI_InitStruct->EXTI_Trigger == EXTI_Trigger_Rising_Falling)
 156              		.loc 1 129 0
ARM GAS  /tmp/cckH6qNJ.s 			page 6


 157 00a6 7B68     		ldr	r3, [r7, #4]
 158 00a8 5B79     		ldrb	r3, [r3, #5]	@ zero_extendqisi2
 159 00aa 102B     		cmp	r3, #16
 160 00ac 0ED1     		bne	.L6
 130:common/stm32f10x_exti.c ****     {
 131:common/stm32f10x_exti.c ****       /* Rising Falling edge */
 132:common/stm32f10x_exti.c ****       EXTI->RTSR |= EXTI_InitStruct->EXTI_Line;
 161              		.loc 1 132 0
 162 00ae 1949     		ldr	r1, .L10
 163 00b0 184B     		ldr	r3, .L10
 164 00b2 9A68     		ldr	r2, [r3, #8]
 165 00b4 7B68     		ldr	r3, [r7, #4]
 166 00b6 1B68     		ldr	r3, [r3]
 167 00b8 1343     		orrs	r3, r3, r2
 168 00ba 8B60     		str	r3, [r1, #8]
 133:common/stm32f10x_exti.c ****       EXTI->FTSR |= EXTI_InitStruct->EXTI_Line;
 169              		.loc 1 133 0
 170 00bc 1549     		ldr	r1, .L10
 171 00be 154B     		ldr	r3, .L10
 172 00c0 DA68     		ldr	r2, [r3, #12]
 173 00c2 7B68     		ldr	r3, [r7, #4]
 174 00c4 1B68     		ldr	r3, [r3]
 175 00c6 1343     		orrs	r3, r3, r2
 176 00c8 CB60     		str	r3, [r1, #12]
 134:common/stm32f10x_exti.c ****     }
 135:common/stm32f10x_exti.c ****     else
 136:common/stm32f10x_exti.c ****     {
 137:common/stm32f10x_exti.c ****       tmp = (uint32_t)EXTI_BASE;
 138:common/stm32f10x_exti.c ****       tmp += EXTI_InitStruct->EXTI_Trigger;
 139:common/stm32f10x_exti.c **** 
 140:common/stm32f10x_exti.c ****       *(__IO uint32_t *) tmp |= EXTI_InitStruct->EXTI_Line;
 141:common/stm32f10x_exti.c ****     }
 142:common/stm32f10x_exti.c ****   }
 143:common/stm32f10x_exti.c ****   else
 144:common/stm32f10x_exti.c ****   {
 145:common/stm32f10x_exti.c ****     tmp += EXTI_InitStruct->EXTI_Mode;
 146:common/stm32f10x_exti.c **** 
 147:common/stm32f10x_exti.c ****     /* Disable the selected external lines */
 148:common/stm32f10x_exti.c ****     *(__IO uint32_t *) tmp &= ~EXTI_InitStruct->EXTI_Line;
 149:common/stm32f10x_exti.c ****   }
 150:common/stm32f10x_exti.c **** }
 177              		.loc 1 150 0
 178 00ca 1DE0     		b	.L9
 179              	.L6:
 137:common/stm32f10x_exti.c ****       tmp += EXTI_InitStruct->EXTI_Trigger;
 180              		.loc 1 137 0
 181 00cc 114B     		ldr	r3, .L10
 182 00ce FB60     		str	r3, [r7, #12]
 138:common/stm32f10x_exti.c **** 
 183              		.loc 1 138 0
 184 00d0 7B68     		ldr	r3, [r7, #4]
 185 00d2 5B79     		ldrb	r3, [r3, #5]	@ zero_extendqisi2
 186 00d4 1A46     		mov	r2, r3
 187 00d6 FB68     		ldr	r3, [r7, #12]
 188 00d8 1344     		add	r3, r3, r2
 189 00da FB60     		str	r3, [r7, #12]
 140:common/stm32f10x_exti.c ****     }
ARM GAS  /tmp/cckH6qNJ.s 			page 7


 190              		.loc 1 140 0
 191 00dc FB68     		ldr	r3, [r7, #12]
 192 00de FA68     		ldr	r2, [r7, #12]
 193 00e0 1168     		ldr	r1, [r2]
 194 00e2 7A68     		ldr	r2, [r7, #4]
 195 00e4 1268     		ldr	r2, [r2]
 196 00e6 0A43     		orrs	r2, r2, r1
 197 00e8 1A60     		str	r2, [r3]
 198              		.loc 1 150 0
 199 00ea 0DE0     		b	.L9
 200              	.L5:
 145:common/stm32f10x_exti.c **** 
 201              		.loc 1 145 0
 202 00ec 7B68     		ldr	r3, [r7, #4]
 203 00ee 1B79     		ldrb	r3, [r3, #4]	@ zero_extendqisi2
 204 00f0 1A46     		mov	r2, r3
 205 00f2 FB68     		ldr	r3, [r7, #12]
 206 00f4 1344     		add	r3, r3, r2
 207 00f6 FB60     		str	r3, [r7, #12]
 148:common/stm32f10x_exti.c ****   }
 208              		.loc 1 148 0
 209 00f8 FB68     		ldr	r3, [r7, #12]
 210 00fa FA68     		ldr	r2, [r7, #12]
 211 00fc 1168     		ldr	r1, [r2]
 212 00fe 7A68     		ldr	r2, [r7, #4]
 213 0100 1268     		ldr	r2, [r2]
 214 0102 D243     		mvns	r2, r2
 215 0104 0A40     		ands	r2, r2, r1
 216 0106 1A60     		str	r2, [r3]
 217              	.L9:
 218              		.loc 1 150 0
 219 0108 00BF     		nop
 220 010a 1437     		adds	r7, r7, #20
 221              		.cfi_def_cfa_offset 4
 222 010c BD46     		mov	sp, r7
 223              		.cfi_def_cfa_register 13
 224              		@ sp needed
 225 010e 80BC     		pop	{r7}
 226              		.cfi_restore 7
 227              		.cfi_def_cfa_offset 0
 228 0110 7047     		bx	lr
 229              	.L11:
 230 0112 00BF     		.align	2
 231              	.L10:
 232 0114 00040140 		.word	1073808384
 233              		.cfi_endproc
 234              	.LFE64:
 235              		.size	EXTI_Init, .-EXTI_Init
 236              		.align	1
 237              		.global	EXTI_StructInit
 238              		.syntax unified
 239              		.thumb
 240              		.thumb_func
 241              		.fpu softvfp
 242              		.type	EXTI_StructInit, %function
 243              	EXTI_StructInit:
 244              	.LFB65:
ARM GAS  /tmp/cckH6qNJ.s 			page 8


 151:common/stm32f10x_exti.c **** 
 152:common/stm32f10x_exti.c **** /**
 153:common/stm32f10x_exti.c ****   * @brief  Fills each EXTI_InitStruct member with its reset value.
 154:common/stm32f10x_exti.c ****   * @param  EXTI_InitStruct: pointer to a EXTI_InitTypeDef structure which will
 155:common/stm32f10x_exti.c ****   *         be initialized.
 156:common/stm32f10x_exti.c ****   * @retval None
 157:common/stm32f10x_exti.c ****   */
 158:common/stm32f10x_exti.c **** void EXTI_StructInit(EXTI_InitTypeDef* EXTI_InitStruct)
 159:common/stm32f10x_exti.c **** {
 245              		.loc 1 159 0
 246              		.cfi_startproc
 247              		@ args = 0, pretend = 0, frame = 8
 248              		@ frame_needed = 1, uses_anonymous_args = 0
 249              		@ link register save eliminated.
 250 0118 80B4     		push	{r7}
 251              		.cfi_def_cfa_offset 4
 252              		.cfi_offset 7, -4
 253 011a 83B0     		sub	sp, sp, #12
 254              		.cfi_def_cfa_offset 16
 255 011c 00AF     		add	r7, sp, #0
 256              		.cfi_def_cfa_register 7
 257 011e 7860     		str	r0, [r7, #4]
 160:common/stm32f10x_exti.c ****   EXTI_InitStruct->EXTI_Line = EXTI_LINENONE;
 258              		.loc 1 160 0
 259 0120 7B68     		ldr	r3, [r7, #4]
 260 0122 0022     		movs	r2, #0
 261 0124 1A60     		str	r2, [r3]
 161:common/stm32f10x_exti.c ****   EXTI_InitStruct->EXTI_Mode = EXTI_Mode_Interrupt;
 262              		.loc 1 161 0
 263 0126 7B68     		ldr	r3, [r7, #4]
 264 0128 0022     		movs	r2, #0
 265 012a 1A71     		strb	r2, [r3, #4]
 162:common/stm32f10x_exti.c ****   EXTI_InitStruct->EXTI_Trigger = EXTI_Trigger_Falling;
 266              		.loc 1 162 0
 267 012c 7B68     		ldr	r3, [r7, #4]
 268 012e 0C22     		movs	r2, #12
 269 0130 5A71     		strb	r2, [r3, #5]
 163:common/stm32f10x_exti.c ****   EXTI_InitStruct->EXTI_LineCmd = DISABLE;
 270              		.loc 1 163 0
 271 0132 7B68     		ldr	r3, [r7, #4]
 272 0134 0022     		movs	r2, #0
 273 0136 9A71     		strb	r2, [r3, #6]
 164:common/stm32f10x_exti.c **** }
 274              		.loc 1 164 0
 275 0138 00BF     		nop
 276 013a 0C37     		adds	r7, r7, #12
 277              		.cfi_def_cfa_offset 4
 278 013c BD46     		mov	sp, r7
 279              		.cfi_def_cfa_register 13
 280              		@ sp needed
 281 013e 80BC     		pop	{r7}
 282              		.cfi_restore 7
 283              		.cfi_def_cfa_offset 0
 284 0140 7047     		bx	lr
 285              		.cfi_endproc
 286              	.LFE65:
 287              		.size	EXTI_StructInit, .-EXTI_StructInit
ARM GAS  /tmp/cckH6qNJ.s 			page 9


 288              		.align	1
 289              		.global	EXTI_GenerateSWInterrupt
 290              		.syntax unified
 291              		.thumb
 292              		.thumb_func
 293              		.fpu softvfp
 294              		.type	EXTI_GenerateSWInterrupt, %function
 295              	EXTI_GenerateSWInterrupt:
 296              	.LFB66:
 165:common/stm32f10x_exti.c **** 
 166:common/stm32f10x_exti.c **** /**
 167:common/stm32f10x_exti.c ****   * @brief  Generates a Software interrupt.
 168:common/stm32f10x_exti.c ****   * @param  EXTI_Line: specifies the EXTI lines to be enabled or disabled.
 169:common/stm32f10x_exti.c ****   *   This parameter can be any combination of EXTI_Linex where x can be (0..19).
 170:common/stm32f10x_exti.c ****   * @retval None
 171:common/stm32f10x_exti.c ****   */
 172:common/stm32f10x_exti.c **** void EXTI_GenerateSWInterrupt(uint32_t EXTI_Line)
 173:common/stm32f10x_exti.c **** {
 297              		.loc 1 173 0
 298              		.cfi_startproc
 299              		@ args = 0, pretend = 0, frame = 8
 300              		@ frame_needed = 1, uses_anonymous_args = 0
 301              		@ link register save eliminated.
 302 0142 80B4     		push	{r7}
 303              		.cfi_def_cfa_offset 4
 304              		.cfi_offset 7, -4
 305 0144 83B0     		sub	sp, sp, #12
 306              		.cfi_def_cfa_offset 16
 307 0146 00AF     		add	r7, sp, #0
 308              		.cfi_def_cfa_register 7
 309 0148 7860     		str	r0, [r7, #4]
 174:common/stm32f10x_exti.c ****   /* Check the parameters */
 175:common/stm32f10x_exti.c ****   assert_param(IS_EXTI_LINE(EXTI_Line));
 176:common/stm32f10x_exti.c ****   
 177:common/stm32f10x_exti.c ****   EXTI->SWIER |= EXTI_Line;
 310              		.loc 1 177 0
 311 014a 0549     		ldr	r1, .L14
 312 014c 044B     		ldr	r3, .L14
 313 014e 1A69     		ldr	r2, [r3, #16]
 314 0150 7B68     		ldr	r3, [r7, #4]
 315 0152 1343     		orrs	r3, r3, r2
 316 0154 0B61     		str	r3, [r1, #16]
 178:common/stm32f10x_exti.c **** }
 317              		.loc 1 178 0
 318 0156 00BF     		nop
 319 0158 0C37     		adds	r7, r7, #12
 320              		.cfi_def_cfa_offset 4
 321 015a BD46     		mov	sp, r7
 322              		.cfi_def_cfa_register 13
 323              		@ sp needed
 324 015c 80BC     		pop	{r7}
 325              		.cfi_restore 7
 326              		.cfi_def_cfa_offset 0
 327 015e 7047     		bx	lr
 328              	.L15:
 329              		.align	2
 330              	.L14:
ARM GAS  /tmp/cckH6qNJ.s 			page 10


 331 0160 00040140 		.word	1073808384
 332              		.cfi_endproc
 333              	.LFE66:
 334              		.size	EXTI_GenerateSWInterrupt, .-EXTI_GenerateSWInterrupt
 335              		.align	1
 336              		.global	EXTI_GetFlagStatus
 337              		.syntax unified
 338              		.thumb
 339              		.thumb_func
 340              		.fpu softvfp
 341              		.type	EXTI_GetFlagStatus, %function
 342              	EXTI_GetFlagStatus:
 343              	.LFB67:
 179:common/stm32f10x_exti.c **** 
 180:common/stm32f10x_exti.c **** /**
 181:common/stm32f10x_exti.c ****   * @brief  Checks whether the specified EXTI line flag is set or not.
 182:common/stm32f10x_exti.c ****   * @param  EXTI_Line: specifies the EXTI line flag to check.
 183:common/stm32f10x_exti.c ****   *   This parameter can be:
 184:common/stm32f10x_exti.c ****   *     @arg EXTI_Linex: External interrupt line x where x(0..19)
 185:common/stm32f10x_exti.c ****   * @retval The new state of EXTI_Line (SET or RESET).
 186:common/stm32f10x_exti.c ****   */
 187:common/stm32f10x_exti.c **** FlagStatus EXTI_GetFlagStatus(uint32_t EXTI_Line)
 188:common/stm32f10x_exti.c **** {
 344              		.loc 1 188 0
 345              		.cfi_startproc
 346              		@ args = 0, pretend = 0, frame = 16
 347              		@ frame_needed = 1, uses_anonymous_args = 0
 348              		@ link register save eliminated.
 349 0164 80B4     		push	{r7}
 350              		.cfi_def_cfa_offset 4
 351              		.cfi_offset 7, -4
 352 0166 85B0     		sub	sp, sp, #20
 353              		.cfi_def_cfa_offset 24
 354 0168 00AF     		add	r7, sp, #0
 355              		.cfi_def_cfa_register 7
 356 016a 7860     		str	r0, [r7, #4]
 189:common/stm32f10x_exti.c ****   FlagStatus bitstatus = RESET;
 357              		.loc 1 189 0
 358 016c 0023     		movs	r3, #0
 359 016e FB73     		strb	r3, [r7, #15]
 190:common/stm32f10x_exti.c ****   /* Check the parameters */
 191:common/stm32f10x_exti.c ****   assert_param(IS_GET_EXTI_LINE(EXTI_Line));
 192:common/stm32f10x_exti.c ****   
 193:common/stm32f10x_exti.c ****   if ((EXTI->PR & EXTI_Line) != (uint32_t)RESET)
 360              		.loc 1 193 0
 361 0170 084B     		ldr	r3, .L20
 362 0172 5A69     		ldr	r2, [r3, #20]
 363 0174 7B68     		ldr	r3, [r7, #4]
 364 0176 1340     		ands	r3, r3, r2
 365 0178 002B     		cmp	r3, #0
 366 017a 02D0     		beq	.L17
 194:common/stm32f10x_exti.c ****   {
 195:common/stm32f10x_exti.c ****     bitstatus = SET;
 367              		.loc 1 195 0
 368 017c 0123     		movs	r3, #1
 369 017e FB73     		strb	r3, [r7, #15]
 370 0180 01E0     		b	.L18
ARM GAS  /tmp/cckH6qNJ.s 			page 11


 371              	.L17:
 196:common/stm32f10x_exti.c ****   }
 197:common/stm32f10x_exti.c ****   else
 198:common/stm32f10x_exti.c ****   {
 199:common/stm32f10x_exti.c ****     bitstatus = RESET;
 372              		.loc 1 199 0
 373 0182 0023     		movs	r3, #0
 374 0184 FB73     		strb	r3, [r7, #15]
 375              	.L18:
 200:common/stm32f10x_exti.c ****   }
 201:common/stm32f10x_exti.c ****   return bitstatus;
 376              		.loc 1 201 0
 377 0186 FB7B     		ldrb	r3, [r7, #15]	@ zero_extendqisi2
 202:common/stm32f10x_exti.c **** }
 378              		.loc 1 202 0
 379 0188 1846     		mov	r0, r3
 380 018a 1437     		adds	r7, r7, #20
 381              		.cfi_def_cfa_offset 4
 382 018c BD46     		mov	sp, r7
 383              		.cfi_def_cfa_register 13
 384              		@ sp needed
 385 018e 80BC     		pop	{r7}
 386              		.cfi_restore 7
 387              		.cfi_def_cfa_offset 0
 388 0190 7047     		bx	lr
 389              	.L21:
 390 0192 00BF     		.align	2
 391              	.L20:
 392 0194 00040140 		.word	1073808384
 393              		.cfi_endproc
 394              	.LFE67:
 395              		.size	EXTI_GetFlagStatus, .-EXTI_GetFlagStatus
 396              		.align	1
 397              		.global	EXTI_ClearFlag
 398              		.syntax unified
 399              		.thumb
 400              		.thumb_func
 401              		.fpu softvfp
 402              		.type	EXTI_ClearFlag, %function
 403              	EXTI_ClearFlag:
 404              	.LFB68:
 203:common/stm32f10x_exti.c **** 
 204:common/stm32f10x_exti.c **** /**
 205:common/stm32f10x_exti.c ****   * @brief  Clears the EXTI's line pending flags.
 206:common/stm32f10x_exti.c ****   * @param  EXTI_Line: specifies the EXTI lines flags to clear.
 207:common/stm32f10x_exti.c ****   *   This parameter can be any combination of EXTI_Linex where x can be (0..19).
 208:common/stm32f10x_exti.c ****   * @retval None
 209:common/stm32f10x_exti.c ****   */
 210:common/stm32f10x_exti.c **** void EXTI_ClearFlag(uint32_t EXTI_Line)
 211:common/stm32f10x_exti.c **** {
 405              		.loc 1 211 0
 406              		.cfi_startproc
 407              		@ args = 0, pretend = 0, frame = 8
 408              		@ frame_needed = 1, uses_anonymous_args = 0
 409              		@ link register save eliminated.
 410 0198 80B4     		push	{r7}
 411              		.cfi_def_cfa_offset 4
ARM GAS  /tmp/cckH6qNJ.s 			page 12


 412              		.cfi_offset 7, -4
 413 019a 83B0     		sub	sp, sp, #12
 414              		.cfi_def_cfa_offset 16
 415 019c 00AF     		add	r7, sp, #0
 416              		.cfi_def_cfa_register 7
 417 019e 7860     		str	r0, [r7, #4]
 212:common/stm32f10x_exti.c ****   /* Check the parameters */
 213:common/stm32f10x_exti.c ****   assert_param(IS_EXTI_LINE(EXTI_Line));
 214:common/stm32f10x_exti.c ****   
 215:common/stm32f10x_exti.c ****   EXTI->PR = EXTI_Line;
 418              		.loc 1 215 0
 419 01a0 034A     		ldr	r2, .L23
 420 01a2 7B68     		ldr	r3, [r7, #4]
 421 01a4 5361     		str	r3, [r2, #20]
 216:common/stm32f10x_exti.c **** }
 422              		.loc 1 216 0
 423 01a6 00BF     		nop
 424 01a8 0C37     		adds	r7, r7, #12
 425              		.cfi_def_cfa_offset 4
 426 01aa BD46     		mov	sp, r7
 427              		.cfi_def_cfa_register 13
 428              		@ sp needed
 429 01ac 80BC     		pop	{r7}
 430              		.cfi_restore 7
 431              		.cfi_def_cfa_offset 0
 432 01ae 7047     		bx	lr
 433              	.L24:
 434              		.align	2
 435              	.L23:
 436 01b0 00040140 		.word	1073808384
 437              		.cfi_endproc
 438              	.LFE68:
 439              		.size	EXTI_ClearFlag, .-EXTI_ClearFlag
 440              		.align	1
 441              		.global	EXTI_GetITStatus
 442              		.syntax unified
 443              		.thumb
 444              		.thumb_func
 445              		.fpu softvfp
 446              		.type	EXTI_GetITStatus, %function
 447              	EXTI_GetITStatus:
 448              	.LFB69:
 217:common/stm32f10x_exti.c **** 
 218:common/stm32f10x_exti.c **** /**
 219:common/stm32f10x_exti.c ****   * @brief  Checks whether the specified EXTI line is asserted or not.
 220:common/stm32f10x_exti.c ****   * @param  EXTI_Line: specifies the EXTI line to check.
 221:common/stm32f10x_exti.c ****   *   This parameter can be:
 222:common/stm32f10x_exti.c ****   *     @arg EXTI_Linex: External interrupt line x where x(0..19)
 223:common/stm32f10x_exti.c ****   * @retval The new state of EXTI_Line (SET or RESET).
 224:common/stm32f10x_exti.c ****   */
 225:common/stm32f10x_exti.c **** ITStatus EXTI_GetITStatus(uint32_t EXTI_Line)
 226:common/stm32f10x_exti.c **** {
 449              		.loc 1 226 0
 450              		.cfi_startproc
 451              		@ args = 0, pretend = 0, frame = 16
 452              		@ frame_needed = 1, uses_anonymous_args = 0
 453              		@ link register save eliminated.
ARM GAS  /tmp/cckH6qNJ.s 			page 13


 454 01b4 80B4     		push	{r7}
 455              		.cfi_def_cfa_offset 4
 456              		.cfi_offset 7, -4
 457 01b6 85B0     		sub	sp, sp, #20
 458              		.cfi_def_cfa_offset 24
 459 01b8 00AF     		add	r7, sp, #0
 460              		.cfi_def_cfa_register 7
 461 01ba 7860     		str	r0, [r7, #4]
 227:common/stm32f10x_exti.c ****   ITStatus bitstatus = RESET;
 462              		.loc 1 227 0
 463 01bc 0023     		movs	r3, #0
 464 01be FB73     		strb	r3, [r7, #15]
 228:common/stm32f10x_exti.c ****   uint32_t enablestatus = 0;
 465              		.loc 1 228 0
 466 01c0 0023     		movs	r3, #0
 467 01c2 BB60     		str	r3, [r7, #8]
 229:common/stm32f10x_exti.c ****   /* Check the parameters */
 230:common/stm32f10x_exti.c ****   assert_param(IS_GET_EXTI_LINE(EXTI_Line));
 231:common/stm32f10x_exti.c ****   
 232:common/stm32f10x_exti.c ****   enablestatus =  EXTI->IMR & EXTI_Line;
 468              		.loc 1 232 0
 469 01c4 0C4B     		ldr	r3, .L29
 470 01c6 1A68     		ldr	r2, [r3]
 471 01c8 7B68     		ldr	r3, [r7, #4]
 472 01ca 1340     		ands	r3, r3, r2
 473 01cc BB60     		str	r3, [r7, #8]
 233:common/stm32f10x_exti.c ****   if (((EXTI->PR & EXTI_Line) != (uint32_t)RESET) && (enablestatus != (uint32_t)RESET))
 474              		.loc 1 233 0
 475 01ce 0A4B     		ldr	r3, .L29
 476 01d0 5A69     		ldr	r2, [r3, #20]
 477 01d2 7B68     		ldr	r3, [r7, #4]
 478 01d4 1340     		ands	r3, r3, r2
 479 01d6 002B     		cmp	r3, #0
 480 01d8 05D0     		beq	.L26
 481              		.loc 1 233 0 is_stmt 0 discriminator 1
 482 01da BB68     		ldr	r3, [r7, #8]
 483 01dc 002B     		cmp	r3, #0
 484 01de 02D0     		beq	.L26
 234:common/stm32f10x_exti.c ****   {
 235:common/stm32f10x_exti.c ****     bitstatus = SET;
 485              		.loc 1 235 0 is_stmt 1
 486 01e0 0123     		movs	r3, #1
 487 01e2 FB73     		strb	r3, [r7, #15]
 488 01e4 01E0     		b	.L27
 489              	.L26:
 236:common/stm32f10x_exti.c ****   }
 237:common/stm32f10x_exti.c ****   else
 238:common/stm32f10x_exti.c ****   {
 239:common/stm32f10x_exti.c ****     bitstatus = RESET;
 490              		.loc 1 239 0
 491 01e6 0023     		movs	r3, #0
 492 01e8 FB73     		strb	r3, [r7, #15]
 493              	.L27:
 240:common/stm32f10x_exti.c ****   }
 241:common/stm32f10x_exti.c ****   return bitstatus;
 494              		.loc 1 241 0
 495 01ea FB7B     		ldrb	r3, [r7, #15]	@ zero_extendqisi2
ARM GAS  /tmp/cckH6qNJ.s 			page 14


 242:common/stm32f10x_exti.c **** }
 496              		.loc 1 242 0
 497 01ec 1846     		mov	r0, r3
 498 01ee 1437     		adds	r7, r7, #20
 499              		.cfi_def_cfa_offset 4
 500 01f0 BD46     		mov	sp, r7
 501              		.cfi_def_cfa_register 13
 502              		@ sp needed
 503 01f2 80BC     		pop	{r7}
 504              		.cfi_restore 7
 505              		.cfi_def_cfa_offset 0
 506 01f4 7047     		bx	lr
 507              	.L30:
 508 01f6 00BF     		.align	2
 509              	.L29:
 510 01f8 00040140 		.word	1073808384
 511              		.cfi_endproc
 512              	.LFE69:
 513              		.size	EXTI_GetITStatus, .-EXTI_GetITStatus
 514              		.align	1
 515              		.global	EXTI_ClearITPendingBit
 516              		.syntax unified
 517              		.thumb
 518              		.thumb_func
 519              		.fpu softvfp
 520              		.type	EXTI_ClearITPendingBit, %function
 521              	EXTI_ClearITPendingBit:
 522              	.LFB70:
 243:common/stm32f10x_exti.c **** 
 244:common/stm32f10x_exti.c **** /**
 245:common/stm32f10x_exti.c ****   * @brief  Clears the EXTI's line pending bits.
 246:common/stm32f10x_exti.c ****   * @param  EXTI_Line: specifies the EXTI lines to clear.
 247:common/stm32f10x_exti.c ****   *   This parameter can be any combination of EXTI_Linex where x can be (0..19).
 248:common/stm32f10x_exti.c ****   * @retval None
 249:common/stm32f10x_exti.c ****   */
 250:common/stm32f10x_exti.c **** void EXTI_ClearITPendingBit(uint32_t EXTI_Line)
 251:common/stm32f10x_exti.c **** {
 523              		.loc 1 251 0
 524              		.cfi_startproc
 525              		@ args = 0, pretend = 0, frame = 8
 526              		@ frame_needed = 1, uses_anonymous_args = 0
 527              		@ link register save eliminated.
 528 01fc 80B4     		push	{r7}
 529              		.cfi_def_cfa_offset 4
 530              		.cfi_offset 7, -4
 531 01fe 83B0     		sub	sp, sp, #12
 532              		.cfi_def_cfa_offset 16
 533 0200 00AF     		add	r7, sp, #0
 534              		.cfi_def_cfa_register 7
 535 0202 7860     		str	r0, [r7, #4]
 252:common/stm32f10x_exti.c ****   /* Check the parameters */
 253:common/stm32f10x_exti.c ****   assert_param(IS_EXTI_LINE(EXTI_Line));
 254:common/stm32f10x_exti.c ****   
 255:common/stm32f10x_exti.c ****   EXTI->PR = EXTI_Line;
 536              		.loc 1 255 0
 537 0204 034A     		ldr	r2, .L32
 538 0206 7B68     		ldr	r3, [r7, #4]
ARM GAS  /tmp/cckH6qNJ.s 			page 15


 539 0208 5361     		str	r3, [r2, #20]
 256:common/stm32f10x_exti.c **** }
 540              		.loc 1 256 0
 541 020a 00BF     		nop
 542 020c 0C37     		adds	r7, r7, #12
 543              		.cfi_def_cfa_offset 4
 544 020e BD46     		mov	sp, r7
 545              		.cfi_def_cfa_register 13
 546              		@ sp needed
 547 0210 80BC     		pop	{r7}
 548              		.cfi_restore 7
 549              		.cfi_def_cfa_offset 0
 550 0212 7047     		bx	lr
 551              	.L33:
 552              		.align	2
 553              	.L32:
 554 0214 00040140 		.word	1073808384
 555              		.cfi_endproc
 556              	.LFE70:
 557              		.size	EXTI_ClearITPendingBit, .-EXTI_ClearITPendingBit
 558              	.Letext0:
 559              		.file 2 "/usr/arm-none-eabi/include/machine/_default_types.h"
 560              		.file 3 "/usr/arm-none-eabi/include/sys/_stdint.h"
 561              		.file 4 "include/core_cm3.h"
 562              		.file 5 "include/system_stm32f10x.h"
 563              		.file 6 "include/stm32f10x.h"
 564              		.file 7 "include/stm32f10x_exti.h"