ARM GAS  /tmp/ccRayNMu.s 			page 1


   1              		.cpu cortex-m3
   2              		.eabi_attribute 20, 1
   3              		.eabi_attribute 21, 1
   4              		.eabi_attribute 23, 3
   5              		.eabi_attribute 24, 1
   6              		.eabi_attribute 25, 1
   7              		.eabi_attribute 26, 1
   8              		.eabi_attribute 30, 6
   9              		.eabi_attribute 34, 1
  10              		.eabi_attribute 18, 4
  11              		.file	"stm32f10x_tim.c"
  12              		.text
  13              	.Ltext0:
  14              		.cfi_sections	.debug_frame
  15              		.align	1
  16              		.global	TIM_DeInit
  17              		.syntax unified
  18              		.thumb
  19              		.thumb_func
  20              		.fpu softvfp
  21              		.type	TIM_DeInit, %function
  22              	TIM_DeInit:
  23              	.LFB63:
  24              		.file 1 "common/stm32f10x_tim.c"
   1:common/stm32f10x_tim.c **** /**
   2:common/stm32f10x_tim.c ****   ******************************************************************************
   3:common/stm32f10x_tim.c ****   * @file    stm32f10x_tim.c
   4:common/stm32f10x_tim.c ****   * @author  MCD Application Team
   5:common/stm32f10x_tim.c ****   * @version V3.5.0
   6:common/stm32f10x_tim.c ****   * @date    11-March-2011
   7:common/stm32f10x_tim.c ****   * @brief   This file provides all the TIM firmware functions.
   8:common/stm32f10x_tim.c ****   ******************************************************************************
   9:common/stm32f10x_tim.c ****   * @attention
  10:common/stm32f10x_tim.c ****   *
  11:common/stm32f10x_tim.c ****   * THE PRESENT FIRMWARE WHICH IS FOR GUIDANCE ONLY AIMS AT PROVIDING CUSTOMERS
  12:common/stm32f10x_tim.c ****   * WITH CODING INFORMATION REGARDING THEIR PRODUCTS IN ORDER FOR THEM TO SAVE
  13:common/stm32f10x_tim.c ****   * TIME. AS A RESULT, STMICROELECTRONICS SHALL NOT BE HELD LIABLE FOR ANY
  14:common/stm32f10x_tim.c ****   * DIRECT, INDIRECT OR CONSEQUENTIAL DAMAGES WITH RESPECT TO ANY CLAIMS ARISING
  15:common/stm32f10x_tim.c ****   * FROM THE CONTENT OF SUCH FIRMWARE AND/OR THE USE MADE BY CUSTOMERS OF THE
  16:common/stm32f10x_tim.c ****   * CODING INFORMATION CONTAINED HEREIN IN CONNECTION WITH THEIR PRODUCTS.
  17:common/stm32f10x_tim.c ****   *
  18:common/stm32f10x_tim.c ****   * <h2><center>&copy; COPYRIGHT 2011 STMicroelectronics</center></h2>
  19:common/stm32f10x_tim.c ****   ******************************************************************************
  20:common/stm32f10x_tim.c ****   */
  21:common/stm32f10x_tim.c **** 
  22:common/stm32f10x_tim.c **** /* Includes ------------------------------------------------------------------*/
  23:common/stm32f10x_tim.c **** #include "stm32f10x_tim.h"
  24:common/stm32f10x_tim.c **** #include "stm32f10x_rcc.h"
  25:common/stm32f10x_tim.c **** #include "stm32f10x_conf.h"
  26:common/stm32f10x_tim.c **** 
  27:common/stm32f10x_tim.c **** /** @addtogroup STM32F10x_StdPeriph_Driver
  28:common/stm32f10x_tim.c ****   * @{
  29:common/stm32f10x_tim.c ****   */
  30:common/stm32f10x_tim.c **** 
  31:common/stm32f10x_tim.c **** /** @defgroup TIM 
  32:common/stm32f10x_tim.c ****   * @brief TIM driver modules
  33:common/stm32f10x_tim.c ****   * @{
ARM GAS  /tmp/ccRayNMu.s 			page 2


  34:common/stm32f10x_tim.c ****   */
  35:common/stm32f10x_tim.c **** 
  36:common/stm32f10x_tim.c **** /** @defgroup TIM_Private_TypesDefinitions
  37:common/stm32f10x_tim.c ****   * @{
  38:common/stm32f10x_tim.c ****   */
  39:common/stm32f10x_tim.c **** 
  40:common/stm32f10x_tim.c **** /**
  41:common/stm32f10x_tim.c ****   * @}
  42:common/stm32f10x_tim.c ****   */
  43:common/stm32f10x_tim.c **** 
  44:common/stm32f10x_tim.c **** /** @defgroup TIM_Private_Defines
  45:common/stm32f10x_tim.c ****   * @{
  46:common/stm32f10x_tim.c ****   */
  47:common/stm32f10x_tim.c **** 
  48:common/stm32f10x_tim.c **** /* ---------------------- TIM registers bit mask ------------------------ */
  49:common/stm32f10x_tim.c **** #define SMCR_ETR_Mask               ((uint16_t)0x00FF) 
  50:common/stm32f10x_tim.c **** #define CCMR_Offset                 ((uint16_t)0x0018)
  51:common/stm32f10x_tim.c **** #define CCER_CCE_Set                ((uint16_t)0x0001)  
  52:common/stm32f10x_tim.c **** #define	CCER_CCNE_Set               ((uint16_t)0x0004) 
  53:common/stm32f10x_tim.c **** 
  54:common/stm32f10x_tim.c **** /**
  55:common/stm32f10x_tim.c ****   * @}
  56:common/stm32f10x_tim.c ****   */
  57:common/stm32f10x_tim.c **** 
  58:common/stm32f10x_tim.c **** /** @defgroup TIM_Private_Macros
  59:common/stm32f10x_tim.c ****   * @{
  60:common/stm32f10x_tim.c ****   */
  61:common/stm32f10x_tim.c **** 
  62:common/stm32f10x_tim.c **** /**
  63:common/stm32f10x_tim.c ****   * @}
  64:common/stm32f10x_tim.c ****   */
  65:common/stm32f10x_tim.c **** 
  66:common/stm32f10x_tim.c **** /** @defgroup TIM_Private_Variables
  67:common/stm32f10x_tim.c ****   * @{
  68:common/stm32f10x_tim.c ****   */
  69:common/stm32f10x_tim.c **** 
  70:common/stm32f10x_tim.c **** /**
  71:common/stm32f10x_tim.c ****   * @}
  72:common/stm32f10x_tim.c ****   */
  73:common/stm32f10x_tim.c **** 
  74:common/stm32f10x_tim.c **** /** @defgroup TIM_Private_FunctionPrototypes
  75:common/stm32f10x_tim.c ****   * @{
  76:common/stm32f10x_tim.c ****   */
  77:common/stm32f10x_tim.c **** 
  78:common/stm32f10x_tim.c **** static void TI1_Config(TIM_TypeDef* TIMx, uint16_t TIM_ICPolarity, uint16_t TIM_ICSelection,
  79:common/stm32f10x_tim.c ****                        uint16_t TIM_ICFilter);
  80:common/stm32f10x_tim.c **** static void TI2_Config(TIM_TypeDef* TIMx, uint16_t TIM_ICPolarity, uint16_t TIM_ICSelection,
  81:common/stm32f10x_tim.c ****                        uint16_t TIM_ICFilter);
  82:common/stm32f10x_tim.c **** static void TI3_Config(TIM_TypeDef* TIMx, uint16_t TIM_ICPolarity, uint16_t TIM_ICSelection,
  83:common/stm32f10x_tim.c ****                        uint16_t TIM_ICFilter);
  84:common/stm32f10x_tim.c **** static void TI4_Config(TIM_TypeDef* TIMx, uint16_t TIM_ICPolarity, uint16_t TIM_ICSelection,
  85:common/stm32f10x_tim.c ****                        uint16_t TIM_ICFilter);
  86:common/stm32f10x_tim.c **** /**
  87:common/stm32f10x_tim.c ****   * @}
  88:common/stm32f10x_tim.c ****   */
  89:common/stm32f10x_tim.c **** 
  90:common/stm32f10x_tim.c **** /** @defgroup TIM_Private_Macros
ARM GAS  /tmp/ccRayNMu.s 			page 3


  91:common/stm32f10x_tim.c ****   * @{
  92:common/stm32f10x_tim.c ****   */
  93:common/stm32f10x_tim.c **** 
  94:common/stm32f10x_tim.c **** /**
  95:common/stm32f10x_tim.c ****   * @}
  96:common/stm32f10x_tim.c ****   */
  97:common/stm32f10x_tim.c **** 
  98:common/stm32f10x_tim.c **** /** @defgroup TIM_Private_Variables
  99:common/stm32f10x_tim.c ****   * @{
 100:common/stm32f10x_tim.c ****   */
 101:common/stm32f10x_tim.c **** 
 102:common/stm32f10x_tim.c **** /**
 103:common/stm32f10x_tim.c ****   * @}
 104:common/stm32f10x_tim.c ****   */
 105:common/stm32f10x_tim.c **** 
 106:common/stm32f10x_tim.c **** /** @defgroup TIM_Private_FunctionPrototypes
 107:common/stm32f10x_tim.c ****   * @{
 108:common/stm32f10x_tim.c ****   */
 109:common/stm32f10x_tim.c **** 
 110:common/stm32f10x_tim.c **** /**
 111:common/stm32f10x_tim.c ****   * @}
 112:common/stm32f10x_tim.c ****   */
 113:common/stm32f10x_tim.c **** 
 114:common/stm32f10x_tim.c **** /** @defgroup TIM_Private_Functions
 115:common/stm32f10x_tim.c ****   * @{
 116:common/stm32f10x_tim.c ****   */
 117:common/stm32f10x_tim.c **** 
 118:common/stm32f10x_tim.c **** /**
 119:common/stm32f10x_tim.c ****   * @brief  Deinitializes the TIMx peripheral registers to their default reset values.
 120:common/stm32f10x_tim.c ****   * @param  TIMx: where x can be 1 to 17 to select the TIM peripheral.
 121:common/stm32f10x_tim.c ****   * @retval None
 122:common/stm32f10x_tim.c ****   */
 123:common/stm32f10x_tim.c **** void TIM_DeInit(TIM_TypeDef* TIMx)
 124:common/stm32f10x_tim.c **** {
  25              		.loc 1 124 0
  26              		.cfi_startproc
  27              		@ args = 0, pretend = 0, frame = 8
  28              		@ frame_needed = 1, uses_anonymous_args = 0
  29 0000 80B5     		push	{r7, lr}
  30              		.cfi_def_cfa_offset 8
  31              		.cfi_offset 7, -8
  32              		.cfi_offset 14, -4
  33 0002 82B0     		sub	sp, sp, #8
  34              		.cfi_def_cfa_offset 16
  35 0004 00AF     		add	r7, sp, #0
  36              		.cfi_def_cfa_register 7
  37 0006 7860     		str	r0, [r7, #4]
 125:common/stm32f10x_tim.c ****   /* Check the parameters */
 126:common/stm32f10x_tim.c ****   assert_param(IS_TIM_ALL_PERIPH(TIMx)); 
 127:common/stm32f10x_tim.c ****  
 128:common/stm32f10x_tim.c ****   if (TIMx == TIM1)
  38              		.loc 1 128 0
  39 0008 7B68     		ldr	r3, [r7, #4]
  40 000a 784A     		ldr	r2, .L20
  41 000c 9342     		cmp	r3, r2
  42 000e 0AD1     		bne	.L2
 129:common/stm32f10x_tim.c ****   {
ARM GAS  /tmp/ccRayNMu.s 			page 4


 130:common/stm32f10x_tim.c ****     RCC_APB2PeriphResetCmd(RCC_APB2Periph_TIM1, ENABLE);
  43              		.loc 1 130 0
  44 0010 0121     		movs	r1, #1
  45 0012 4FF40060 		mov	r0, #2048
  46 0016 FFF7FEFF 		bl	RCC_APB2PeriphResetCmd
 131:common/stm32f10x_tim.c ****     RCC_APB2PeriphResetCmd(RCC_APB2Periph_TIM1, DISABLE);  
  47              		.loc 1 131 0
  48 001a 0021     		movs	r1, #0
  49 001c 4FF40060 		mov	r0, #2048
  50 0020 FFF7FEFF 		bl	RCC_APB2PeriphResetCmd
 132:common/stm32f10x_tim.c ****   }     
 133:common/stm32f10x_tim.c ****   else if (TIMx == TIM2)
 134:common/stm32f10x_tim.c ****   {
 135:common/stm32f10x_tim.c ****     RCC_APB1PeriphResetCmd(RCC_APB1Periph_TIM2, ENABLE);
 136:common/stm32f10x_tim.c ****     RCC_APB1PeriphResetCmd(RCC_APB1Periph_TIM2, DISABLE);
 137:common/stm32f10x_tim.c ****   }
 138:common/stm32f10x_tim.c ****   else if (TIMx == TIM3)
 139:common/stm32f10x_tim.c ****   {
 140:common/stm32f10x_tim.c ****     RCC_APB1PeriphResetCmd(RCC_APB1Periph_TIM3, ENABLE);
 141:common/stm32f10x_tim.c ****     RCC_APB1PeriphResetCmd(RCC_APB1Periph_TIM3, DISABLE);
 142:common/stm32f10x_tim.c ****   }
 143:common/stm32f10x_tim.c ****   else if (TIMx == TIM4)
 144:common/stm32f10x_tim.c ****   {
 145:common/stm32f10x_tim.c ****     RCC_APB1PeriphResetCmd(RCC_APB1Periph_TIM4, ENABLE);
 146:common/stm32f10x_tim.c ****     RCC_APB1PeriphResetCmd(RCC_APB1Periph_TIM4, DISABLE);
 147:common/stm32f10x_tim.c ****   } 
 148:common/stm32f10x_tim.c ****   else if (TIMx == TIM5)
 149:common/stm32f10x_tim.c ****   {
 150:common/stm32f10x_tim.c ****     RCC_APB1PeriphResetCmd(RCC_APB1Periph_TIM5, ENABLE);
 151:common/stm32f10x_tim.c ****     RCC_APB1PeriphResetCmd(RCC_APB1Periph_TIM5, DISABLE);
 152:common/stm32f10x_tim.c ****   } 
 153:common/stm32f10x_tim.c ****   else if (TIMx == TIM6)
 154:common/stm32f10x_tim.c ****   {
 155:common/stm32f10x_tim.c ****     RCC_APB1PeriphResetCmd(RCC_APB1Periph_TIM6, ENABLE);
 156:common/stm32f10x_tim.c ****     RCC_APB1PeriphResetCmd(RCC_APB1Periph_TIM6, DISABLE);
 157:common/stm32f10x_tim.c ****   } 
 158:common/stm32f10x_tim.c ****   else if (TIMx == TIM7)
 159:common/stm32f10x_tim.c ****   {
 160:common/stm32f10x_tim.c ****     RCC_APB1PeriphResetCmd(RCC_APB1Periph_TIM7, ENABLE);
 161:common/stm32f10x_tim.c ****     RCC_APB1PeriphResetCmd(RCC_APB1Periph_TIM7, DISABLE);
 162:common/stm32f10x_tim.c ****   } 
 163:common/stm32f10x_tim.c ****   else if (TIMx == TIM8)
 164:common/stm32f10x_tim.c ****   {
 165:common/stm32f10x_tim.c ****     RCC_APB2PeriphResetCmd(RCC_APB2Periph_TIM8, ENABLE);
 166:common/stm32f10x_tim.c ****     RCC_APB2PeriphResetCmd(RCC_APB2Periph_TIM8, DISABLE);
 167:common/stm32f10x_tim.c ****   }
 168:common/stm32f10x_tim.c ****   else if (TIMx == TIM9)
 169:common/stm32f10x_tim.c ****   {      
 170:common/stm32f10x_tim.c ****     RCC_APB2PeriphResetCmd(RCC_APB2Periph_TIM9, ENABLE);
 171:common/stm32f10x_tim.c ****     RCC_APB2PeriphResetCmd(RCC_APB2Periph_TIM9, DISABLE);  
 172:common/stm32f10x_tim.c ****    }  
 173:common/stm32f10x_tim.c ****   else if (TIMx == TIM10)
 174:common/stm32f10x_tim.c ****   {      
 175:common/stm32f10x_tim.c ****     RCC_APB2PeriphResetCmd(RCC_APB2Periph_TIM10, ENABLE);
 176:common/stm32f10x_tim.c ****     RCC_APB2PeriphResetCmd(RCC_APB2Periph_TIM10, DISABLE);  
 177:common/stm32f10x_tim.c ****   }  
 178:common/stm32f10x_tim.c ****   else if (TIMx == TIM11) 
ARM GAS  /tmp/ccRayNMu.s 			page 5


 179:common/stm32f10x_tim.c ****   {     
 180:common/stm32f10x_tim.c ****     RCC_APB2PeriphResetCmd(RCC_APB2Periph_TIM11, ENABLE);
 181:common/stm32f10x_tim.c ****     RCC_APB2PeriphResetCmd(RCC_APB2Periph_TIM11, DISABLE);  
 182:common/stm32f10x_tim.c ****   }  
 183:common/stm32f10x_tim.c ****   else if (TIMx == TIM12)
 184:common/stm32f10x_tim.c ****   {      
 185:common/stm32f10x_tim.c ****     RCC_APB1PeriphResetCmd(RCC_APB1Periph_TIM12, ENABLE);
 186:common/stm32f10x_tim.c ****     RCC_APB1PeriphResetCmd(RCC_APB1Periph_TIM12, DISABLE);  
 187:common/stm32f10x_tim.c ****   }  
 188:common/stm32f10x_tim.c ****   else if (TIMx == TIM13) 
 189:common/stm32f10x_tim.c ****   {       
 190:common/stm32f10x_tim.c ****     RCC_APB1PeriphResetCmd(RCC_APB1Periph_TIM13, ENABLE);
 191:common/stm32f10x_tim.c ****     RCC_APB1PeriphResetCmd(RCC_APB1Periph_TIM13, DISABLE);  
 192:common/stm32f10x_tim.c ****   }
 193:common/stm32f10x_tim.c ****   else if (TIMx == TIM14) 
 194:common/stm32f10x_tim.c ****   {       
 195:common/stm32f10x_tim.c ****     RCC_APB1PeriphResetCmd(RCC_APB1Periph_TIM14, ENABLE);
 196:common/stm32f10x_tim.c ****     RCC_APB1PeriphResetCmd(RCC_APB1Periph_TIM14, DISABLE);  
 197:common/stm32f10x_tim.c ****   }        
 198:common/stm32f10x_tim.c ****   else if (TIMx == TIM15)
 199:common/stm32f10x_tim.c ****   {
 200:common/stm32f10x_tim.c ****     RCC_APB2PeriphResetCmd(RCC_APB2Periph_TIM15, ENABLE);
 201:common/stm32f10x_tim.c ****     RCC_APB2PeriphResetCmd(RCC_APB2Periph_TIM15, DISABLE);
 202:common/stm32f10x_tim.c ****   } 
 203:common/stm32f10x_tim.c ****   else if (TIMx == TIM16)
 204:common/stm32f10x_tim.c ****   {
 205:common/stm32f10x_tim.c ****     RCC_APB2PeriphResetCmd(RCC_APB2Periph_TIM16, ENABLE);
 206:common/stm32f10x_tim.c ****     RCC_APB2PeriphResetCmd(RCC_APB2Periph_TIM16, DISABLE);
 207:common/stm32f10x_tim.c ****   } 
 208:common/stm32f10x_tim.c ****   else
 209:common/stm32f10x_tim.c ****   {
 210:common/stm32f10x_tim.c ****     if (TIMx == TIM17)
 211:common/stm32f10x_tim.c ****     {
 212:common/stm32f10x_tim.c ****       RCC_APB2PeriphResetCmd(RCC_APB2Periph_TIM17, ENABLE);
 213:common/stm32f10x_tim.c ****       RCC_APB2PeriphResetCmd(RCC_APB2Periph_TIM17, DISABLE);
 214:common/stm32f10x_tim.c ****     }  
 215:common/stm32f10x_tim.c ****   }
 216:common/stm32f10x_tim.c **** }
  51              		.loc 1 216 0
  52 0024 DEE0     		b	.L19
  53              	.L2:
 133:common/stm32f10x_tim.c ****   {
  54              		.loc 1 133 0
  55 0026 7B68     		ldr	r3, [r7, #4]
  56 0028 B3F1804F 		cmp	r3, #1073741824
  57 002c 08D1     		bne	.L4
 135:common/stm32f10x_tim.c ****     RCC_APB1PeriphResetCmd(RCC_APB1Periph_TIM2, DISABLE);
  58              		.loc 1 135 0
  59 002e 0121     		movs	r1, #1
  60 0030 0120     		movs	r0, #1
  61 0032 FFF7FEFF 		bl	RCC_APB1PeriphResetCmd
 136:common/stm32f10x_tim.c ****   }
  62              		.loc 1 136 0
  63 0036 0021     		movs	r1, #0
  64 0038 0120     		movs	r0, #1
  65 003a FFF7FEFF 		bl	RCC_APB1PeriphResetCmd
  66              		.loc 1 216 0
ARM GAS  /tmp/ccRayNMu.s 			page 6


  67 003e D1E0     		b	.L19
  68              	.L4:
 138:common/stm32f10x_tim.c ****   {
  69              		.loc 1 138 0
  70 0040 7B68     		ldr	r3, [r7, #4]
  71 0042 6B4A     		ldr	r2, .L20+4
  72 0044 9342     		cmp	r3, r2
  73 0046 08D1     		bne	.L5
 140:common/stm32f10x_tim.c ****     RCC_APB1PeriphResetCmd(RCC_APB1Periph_TIM3, DISABLE);
  74              		.loc 1 140 0
  75 0048 0121     		movs	r1, #1
  76 004a 0220     		movs	r0, #2
  77 004c FFF7FEFF 		bl	RCC_APB1PeriphResetCmd
 141:common/stm32f10x_tim.c ****   }
  78              		.loc 1 141 0
  79 0050 0021     		movs	r1, #0
  80 0052 0220     		movs	r0, #2
  81 0054 FFF7FEFF 		bl	RCC_APB1PeriphResetCmd
  82              		.loc 1 216 0
  83 0058 C4E0     		b	.L19
  84              	.L5:
 143:common/stm32f10x_tim.c ****   {
  85              		.loc 1 143 0
  86 005a 7B68     		ldr	r3, [r7, #4]
  87 005c 654A     		ldr	r2, .L20+8
  88 005e 9342     		cmp	r3, r2
  89 0060 08D1     		bne	.L6
 145:common/stm32f10x_tim.c ****     RCC_APB1PeriphResetCmd(RCC_APB1Periph_TIM4, DISABLE);
  90              		.loc 1 145 0
  91 0062 0121     		movs	r1, #1
  92 0064 0420     		movs	r0, #4
  93 0066 FFF7FEFF 		bl	RCC_APB1PeriphResetCmd
 146:common/stm32f10x_tim.c ****   } 
  94              		.loc 1 146 0
  95 006a 0021     		movs	r1, #0
  96 006c 0420     		movs	r0, #4
  97 006e FFF7FEFF 		bl	RCC_APB1PeriphResetCmd
  98              		.loc 1 216 0
  99 0072 B7E0     		b	.L19
 100              	.L6:
 148:common/stm32f10x_tim.c ****   {
 101              		.loc 1 148 0
 102 0074 7B68     		ldr	r3, [r7, #4]
 103 0076 604A     		ldr	r2, .L20+12
 104 0078 9342     		cmp	r3, r2
 105 007a 08D1     		bne	.L7
 150:common/stm32f10x_tim.c ****     RCC_APB1PeriphResetCmd(RCC_APB1Periph_TIM5, DISABLE);
 106              		.loc 1 150 0
 107 007c 0121     		movs	r1, #1
 108 007e 0820     		movs	r0, #8
 109 0080 FFF7FEFF 		bl	RCC_APB1PeriphResetCmd
 151:common/stm32f10x_tim.c ****   } 
 110              		.loc 1 151 0
 111 0084 0021     		movs	r1, #0
 112 0086 0820     		movs	r0, #8
 113 0088 FFF7FEFF 		bl	RCC_APB1PeriphResetCmd
 114              		.loc 1 216 0
ARM GAS  /tmp/ccRayNMu.s 			page 7


 115 008c AAE0     		b	.L19
 116              	.L7:
 153:common/stm32f10x_tim.c ****   {
 117              		.loc 1 153 0
 118 008e 7B68     		ldr	r3, [r7, #4]
 119 0090 5A4A     		ldr	r2, .L20+16
 120 0092 9342     		cmp	r3, r2
 121 0094 08D1     		bne	.L8
 155:common/stm32f10x_tim.c ****     RCC_APB1PeriphResetCmd(RCC_APB1Periph_TIM6, DISABLE);
 122              		.loc 1 155 0
 123 0096 0121     		movs	r1, #1
 124 0098 1020     		movs	r0, #16
 125 009a FFF7FEFF 		bl	RCC_APB1PeriphResetCmd
 156:common/stm32f10x_tim.c ****   } 
 126              		.loc 1 156 0
 127 009e 0021     		movs	r1, #0
 128 00a0 1020     		movs	r0, #16
 129 00a2 FFF7FEFF 		bl	RCC_APB1PeriphResetCmd
 130              		.loc 1 216 0
 131 00a6 9DE0     		b	.L19
 132              	.L8:
 158:common/stm32f10x_tim.c ****   {
 133              		.loc 1 158 0
 134 00a8 7B68     		ldr	r3, [r7, #4]
 135 00aa 554A     		ldr	r2, .L20+20
 136 00ac 9342     		cmp	r3, r2
 137 00ae 08D1     		bne	.L9
 160:common/stm32f10x_tim.c ****     RCC_APB1PeriphResetCmd(RCC_APB1Periph_TIM7, DISABLE);
 138              		.loc 1 160 0
 139 00b0 0121     		movs	r1, #1
 140 00b2 2020     		movs	r0, #32
 141 00b4 FFF7FEFF 		bl	RCC_APB1PeriphResetCmd
 161:common/stm32f10x_tim.c ****   } 
 142              		.loc 1 161 0
 143 00b8 0021     		movs	r1, #0
 144 00ba 2020     		movs	r0, #32
 145 00bc FFF7FEFF 		bl	RCC_APB1PeriphResetCmd
 146              		.loc 1 216 0
 147 00c0 90E0     		b	.L19
 148              	.L9:
 163:common/stm32f10x_tim.c ****   {
 149              		.loc 1 163 0
 150 00c2 7B68     		ldr	r3, [r7, #4]
 151 00c4 4F4A     		ldr	r2, .L20+24
 152 00c6 9342     		cmp	r3, r2
 153 00c8 0AD1     		bne	.L10
 165:common/stm32f10x_tim.c ****     RCC_APB2PeriphResetCmd(RCC_APB2Periph_TIM8, DISABLE);
 154              		.loc 1 165 0
 155 00ca 0121     		movs	r1, #1
 156 00cc 4FF40050 		mov	r0, #8192
 157 00d0 FFF7FEFF 		bl	RCC_APB2PeriphResetCmd
 166:common/stm32f10x_tim.c ****   }
 158              		.loc 1 166 0
 159 00d4 0021     		movs	r1, #0
 160 00d6 4FF40050 		mov	r0, #8192
 161 00da FFF7FEFF 		bl	RCC_APB2PeriphResetCmd
 162              		.loc 1 216 0
ARM GAS  /tmp/ccRayNMu.s 			page 8


 163 00de 81E0     		b	.L19
 164              	.L10:
 168:common/stm32f10x_tim.c ****   {      
 165              		.loc 1 168 0
 166 00e0 7B68     		ldr	r3, [r7, #4]
 167 00e2 494A     		ldr	r2, .L20+28
 168 00e4 9342     		cmp	r3, r2
 169 00e6 0AD1     		bne	.L11
 170:common/stm32f10x_tim.c ****     RCC_APB2PeriphResetCmd(RCC_APB2Periph_TIM9, DISABLE);  
 170              		.loc 1 170 0
 171 00e8 0121     		movs	r1, #1
 172 00ea 4FF40020 		mov	r0, #524288
 173 00ee FFF7FEFF 		bl	RCC_APB2PeriphResetCmd
 171:common/stm32f10x_tim.c ****    }  
 174              		.loc 1 171 0
 175 00f2 0021     		movs	r1, #0
 176 00f4 4FF40020 		mov	r0, #524288
 177 00f8 FFF7FEFF 		bl	RCC_APB2PeriphResetCmd
 178              		.loc 1 216 0
 179 00fc 72E0     		b	.L19
 180              	.L11:
 173:common/stm32f10x_tim.c ****   {      
 181              		.loc 1 173 0
 182 00fe 7B68     		ldr	r3, [r7, #4]
 183 0100 424A     		ldr	r2, .L20+32
 184 0102 9342     		cmp	r3, r2
 185 0104 0AD1     		bne	.L12
 175:common/stm32f10x_tim.c ****     RCC_APB2PeriphResetCmd(RCC_APB2Periph_TIM10, DISABLE);  
 186              		.loc 1 175 0
 187 0106 0121     		movs	r1, #1
 188 0108 4FF48010 		mov	r0, #1048576
 189 010c FFF7FEFF 		bl	RCC_APB2PeriphResetCmd
 176:common/stm32f10x_tim.c ****   }  
 190              		.loc 1 176 0
 191 0110 0021     		movs	r1, #0
 192 0112 4FF48010 		mov	r0, #1048576
 193 0116 FFF7FEFF 		bl	RCC_APB2PeriphResetCmd
 194              		.loc 1 216 0
 195 011a 63E0     		b	.L19
 196              	.L12:
 178:common/stm32f10x_tim.c ****   {     
 197              		.loc 1 178 0
 198 011c 7B68     		ldr	r3, [r7, #4]
 199 011e 3C4A     		ldr	r2, .L20+36
 200 0120 9342     		cmp	r3, r2
 201 0122 0AD1     		bne	.L13
 180:common/stm32f10x_tim.c ****     RCC_APB2PeriphResetCmd(RCC_APB2Periph_TIM11, DISABLE);  
 202              		.loc 1 180 0
 203 0124 0121     		movs	r1, #1
 204 0126 4FF40010 		mov	r0, #2097152
 205 012a FFF7FEFF 		bl	RCC_APB2PeriphResetCmd
 181:common/stm32f10x_tim.c ****   }  
 206              		.loc 1 181 0
 207 012e 0021     		movs	r1, #0
 208 0130 4FF40010 		mov	r0, #2097152
 209 0134 FFF7FEFF 		bl	RCC_APB2PeriphResetCmd
 210              		.loc 1 216 0
ARM GAS  /tmp/ccRayNMu.s 			page 9


 211 0138 54E0     		b	.L19
 212              	.L13:
 183:common/stm32f10x_tim.c ****   {      
 213              		.loc 1 183 0
 214 013a 7B68     		ldr	r3, [r7, #4]
 215 013c 354A     		ldr	r2, .L20+40
 216 013e 9342     		cmp	r3, r2
 217 0140 08D1     		bne	.L14
 185:common/stm32f10x_tim.c ****     RCC_APB1PeriphResetCmd(RCC_APB1Periph_TIM12, DISABLE);  
 218              		.loc 1 185 0
 219 0142 0121     		movs	r1, #1
 220 0144 4020     		movs	r0, #64
 221 0146 FFF7FEFF 		bl	RCC_APB1PeriphResetCmd
 186:common/stm32f10x_tim.c ****   }  
 222              		.loc 1 186 0
 223 014a 0021     		movs	r1, #0
 224 014c 4020     		movs	r0, #64
 225 014e FFF7FEFF 		bl	RCC_APB1PeriphResetCmd
 226              		.loc 1 216 0
 227 0152 47E0     		b	.L19
 228              	.L14:
 188:common/stm32f10x_tim.c ****   {       
 229              		.loc 1 188 0
 230 0154 7B68     		ldr	r3, [r7, #4]
 231 0156 304A     		ldr	r2, .L20+44
 232 0158 9342     		cmp	r3, r2
 233 015a 08D1     		bne	.L15
 190:common/stm32f10x_tim.c ****     RCC_APB1PeriphResetCmd(RCC_APB1Periph_TIM13, DISABLE);  
 234              		.loc 1 190 0
 235 015c 0121     		movs	r1, #1
 236 015e 8020     		movs	r0, #128
 237 0160 FFF7FEFF 		bl	RCC_APB1PeriphResetCmd
 191:common/stm32f10x_tim.c ****   }
 238              		.loc 1 191 0
 239 0164 0021     		movs	r1, #0
 240 0166 8020     		movs	r0, #128
 241 0168 FFF7FEFF 		bl	RCC_APB1PeriphResetCmd
 242              		.loc 1 216 0
 243 016c 3AE0     		b	.L19
 244              	.L15:
 193:common/stm32f10x_tim.c ****   {       
 245              		.loc 1 193 0
 246 016e 7B68     		ldr	r3, [r7, #4]
 247 0170 2A4A     		ldr	r2, .L20+48
 248 0172 9342     		cmp	r3, r2
 249 0174 0AD1     		bne	.L16
 195:common/stm32f10x_tim.c ****     RCC_APB1PeriphResetCmd(RCC_APB1Periph_TIM14, DISABLE);  
 250              		.loc 1 195 0
 251 0176 0121     		movs	r1, #1
 252 0178 4FF48070 		mov	r0, #256
 253 017c FFF7FEFF 		bl	RCC_APB1PeriphResetCmd
 196:common/stm32f10x_tim.c ****   }        
 254              		.loc 1 196 0
 255 0180 0021     		movs	r1, #0
 256 0182 4FF48070 		mov	r0, #256
 257 0186 FFF7FEFF 		bl	RCC_APB1PeriphResetCmd
 258              		.loc 1 216 0
ARM GAS  /tmp/ccRayNMu.s 			page 10


 259 018a 2BE0     		b	.L19
 260              	.L16:
 198:common/stm32f10x_tim.c ****   {
 261              		.loc 1 198 0
 262 018c 7B68     		ldr	r3, [r7, #4]
 263 018e 244A     		ldr	r2, .L20+52
 264 0190 9342     		cmp	r3, r2
 265 0192 0AD1     		bne	.L17
 200:common/stm32f10x_tim.c ****     RCC_APB2PeriphResetCmd(RCC_APB2Periph_TIM15, DISABLE);
 266              		.loc 1 200 0
 267 0194 0121     		movs	r1, #1
 268 0196 4FF48030 		mov	r0, #65536
 269 019a FFF7FEFF 		bl	RCC_APB2PeriphResetCmd
 201:common/stm32f10x_tim.c ****   } 
 270              		.loc 1 201 0
 271 019e 0021     		movs	r1, #0
 272 01a0 4FF48030 		mov	r0, #65536
 273 01a4 FFF7FEFF 		bl	RCC_APB2PeriphResetCmd
 274              		.loc 1 216 0
 275 01a8 1CE0     		b	.L19
 276              	.L17:
 203:common/stm32f10x_tim.c ****   {
 277              		.loc 1 203 0
 278 01aa 7B68     		ldr	r3, [r7, #4]
 279 01ac 1D4A     		ldr	r2, .L20+56
 280 01ae 9342     		cmp	r3, r2
 281 01b0 0AD1     		bne	.L18
 205:common/stm32f10x_tim.c ****     RCC_APB2PeriphResetCmd(RCC_APB2Periph_TIM16, DISABLE);
 282              		.loc 1 205 0
 283 01b2 0121     		movs	r1, #1
 284 01b4 4FF40030 		mov	r0, #131072
 285 01b8 FFF7FEFF 		bl	RCC_APB2PeriphResetCmd
 206:common/stm32f10x_tim.c ****   } 
 286              		.loc 1 206 0
 287 01bc 0021     		movs	r1, #0
 288 01be 4FF40030 		mov	r0, #131072
 289 01c2 FFF7FEFF 		bl	RCC_APB2PeriphResetCmd
 290              		.loc 1 216 0
 291 01c6 0DE0     		b	.L19
 292              	.L18:
 210:common/stm32f10x_tim.c ****     {
 293              		.loc 1 210 0
 294 01c8 7B68     		ldr	r3, [r7, #4]
 295 01ca 174A     		ldr	r2, .L20+60
 296 01cc 9342     		cmp	r3, r2
 297 01ce 09D1     		bne	.L19
 212:common/stm32f10x_tim.c ****       RCC_APB2PeriphResetCmd(RCC_APB2Periph_TIM17, DISABLE);
 298              		.loc 1 212 0
 299 01d0 0121     		movs	r1, #1
 300 01d2 4FF48020 		mov	r0, #262144
 301 01d6 FFF7FEFF 		bl	RCC_APB2PeriphResetCmd
 213:common/stm32f10x_tim.c ****     }  
 302              		.loc 1 213 0
 303 01da 0021     		movs	r1, #0
 304 01dc 4FF48020 		mov	r0, #262144
 305 01e0 FFF7FEFF 		bl	RCC_APB2PeriphResetCmd
 306              	.L19:
ARM GAS  /tmp/ccRayNMu.s 			page 11


 307              		.loc 1 216 0
 308 01e4 00BF     		nop
 309 01e6 0837     		adds	r7, r7, #8
 310              		.cfi_def_cfa_offset 8
 311 01e8 BD46     		mov	sp, r7
 312              		.cfi_def_cfa_register 13
 313              		@ sp needed
 314 01ea 80BD     		pop	{r7, pc}
 315              	.L21:
 316              		.align	2
 317              	.L20:
 318 01ec 002C0140 		.word	1073818624
 319 01f0 00040040 		.word	1073742848
 320 01f4 00080040 		.word	1073743872
 321 01f8 000C0040 		.word	1073744896
 322 01fc 00100040 		.word	1073745920
 323 0200 00140040 		.word	1073746944
 324 0204 00340140 		.word	1073820672
 325 0208 004C0140 		.word	1073826816
 326 020c 00500140 		.word	1073827840
 327 0210 00540140 		.word	1073828864
 328 0214 00180040 		.word	1073747968
 329 0218 001C0040 		.word	1073748992
 330 021c 00200040 		.word	1073750016
 331 0220 00400140 		.word	1073823744
 332 0224 00440140 		.word	1073824768
 333 0228 00480140 		.word	1073825792
 334              		.cfi_endproc
 335              	.LFE63:
 336              		.size	TIM_DeInit, .-TIM_DeInit
 337              		.align	1
 338              		.global	TIM_TimeBaseInit
 339              		.syntax unified
 340              		.thumb
 341              		.thumb_func
 342              		.fpu softvfp
 343              		.type	TIM_TimeBaseInit, %function
 344              	TIM_TimeBaseInit:
 345              	.LFB64:
 217:common/stm32f10x_tim.c **** 
 218:common/stm32f10x_tim.c **** /**
 219:common/stm32f10x_tim.c ****   * @brief  Initializes the TIMx Time Base Unit peripheral according to 
 220:common/stm32f10x_tim.c ****   *         the specified parameters in the TIM_TimeBaseInitStruct.
 221:common/stm32f10x_tim.c ****   * @param  TIMx: where x can be 1 to 17 to select the TIM peripheral.
 222:common/stm32f10x_tim.c ****   * @param  TIM_TimeBaseInitStruct: pointer to a TIM_TimeBaseInitTypeDef
 223:common/stm32f10x_tim.c ****   *         structure that contains the configuration information for the 
 224:common/stm32f10x_tim.c ****   *         specified TIM peripheral.
 225:common/stm32f10x_tim.c ****   * @retval None
 226:common/stm32f10x_tim.c ****   */
 227:common/stm32f10x_tim.c **** void TIM_TimeBaseInit(TIM_TypeDef* TIMx, TIM_TimeBaseInitTypeDef* TIM_TimeBaseInitStruct)
 228:common/stm32f10x_tim.c **** {
 346              		.loc 1 228 0
 347              		.cfi_startproc
 348              		@ args = 0, pretend = 0, frame = 16
 349              		@ frame_needed = 1, uses_anonymous_args = 0
 350              		@ link register save eliminated.
 351 022c 80B4     		push	{r7}
ARM GAS  /tmp/ccRayNMu.s 			page 12


 352              		.cfi_def_cfa_offset 4
 353              		.cfi_offset 7, -4
 354 022e 85B0     		sub	sp, sp, #20
 355              		.cfi_def_cfa_offset 24
 356 0230 00AF     		add	r7, sp, #0
 357              		.cfi_def_cfa_register 7
 358 0232 7860     		str	r0, [r7, #4]
 359 0234 3960     		str	r1, [r7]
 229:common/stm32f10x_tim.c ****   uint16_t tmpcr1 = 0;
 360              		.loc 1 229 0
 361 0236 0023     		movs	r3, #0
 362 0238 FB81     		strh	r3, [r7, #14]	@ movhi
 230:common/stm32f10x_tim.c **** 
 231:common/stm32f10x_tim.c ****   /* Check the parameters */
 232:common/stm32f10x_tim.c ****   assert_param(IS_TIM_ALL_PERIPH(TIMx)); 
 233:common/stm32f10x_tim.c ****   assert_param(IS_TIM_COUNTER_MODE(TIM_TimeBaseInitStruct->TIM_CounterMode));
 234:common/stm32f10x_tim.c ****   assert_param(IS_TIM_CKD_DIV(TIM_TimeBaseInitStruct->TIM_ClockDivision));
 235:common/stm32f10x_tim.c **** 
 236:common/stm32f10x_tim.c ****   tmpcr1 = TIMx->CR1;  
 363              		.loc 1 236 0
 364 023a 7B68     		ldr	r3, [r7, #4]
 365 023c 1B88     		ldrh	r3, [r3]	@ movhi
 366 023e FB81     		strh	r3, [r7, #14]	@ movhi
 237:common/stm32f10x_tim.c **** 
 238:common/stm32f10x_tim.c ****   if((TIMx == TIM1) || (TIMx == TIM8)|| (TIMx == TIM2) || (TIMx == TIM3)||
 367              		.loc 1 238 0
 368 0240 7B68     		ldr	r3, [r7, #4]
 369 0242 2E4A     		ldr	r2, .L28
 370 0244 9342     		cmp	r3, r2
 371 0246 13D0     		beq	.L23
 372              		.loc 1 238 0 is_stmt 0 discriminator 1
 373 0248 7B68     		ldr	r3, [r7, #4]
 374 024a 2D4A     		ldr	r2, .L28+4
 375 024c 9342     		cmp	r3, r2
 376 024e 0FD0     		beq	.L23
 377              		.loc 1 238 0 discriminator 2
 378 0250 7B68     		ldr	r3, [r7, #4]
 379 0252 B3F1804F 		cmp	r3, #1073741824
 380 0256 0BD0     		beq	.L23
 381              		.loc 1 238 0 discriminator 3
 382 0258 7B68     		ldr	r3, [r7, #4]
 383 025a 2A4A     		ldr	r2, .L28+8
 384 025c 9342     		cmp	r3, r2
 385 025e 07D0     		beq	.L23
 386              		.loc 1 238 0 discriminator 4
 387 0260 7B68     		ldr	r3, [r7, #4]
 388 0262 294A     		ldr	r2, .L28+12
 389 0264 9342     		cmp	r3, r2
 390 0266 03D0     		beq	.L23
 239:common/stm32f10x_tim.c ****      (TIMx == TIM4) || (TIMx == TIM5)) 
 391              		.loc 1 239 0 is_stmt 1
 392 0268 7B68     		ldr	r3, [r7, #4]
 393 026a 284A     		ldr	r2, .L28+16
 394 026c 9342     		cmp	r3, r2
 395 026e 08D1     		bne	.L24
 396              	.L23:
 240:common/stm32f10x_tim.c ****   {
ARM GAS  /tmp/ccRayNMu.s 			page 13


 241:common/stm32f10x_tim.c ****     /* Select the Counter Mode */
 242:common/stm32f10x_tim.c ****     tmpcr1 &= (uint16_t)(~((uint16_t)(TIM_CR1_DIR | TIM_CR1_CMS)));
 397              		.loc 1 242 0
 398 0270 FB89     		ldrh	r3, [r7, #14]	@ movhi
 399 0272 23F07003 		bic	r3, r3, #112
 400 0276 FB81     		strh	r3, [r7, #14]	@ movhi
 243:common/stm32f10x_tim.c ****     tmpcr1 |= (uint32_t)TIM_TimeBaseInitStruct->TIM_CounterMode;
 401              		.loc 1 243 0
 402 0278 3B68     		ldr	r3, [r7]
 403 027a 5A88     		ldrh	r2, [r3, #2]
 404 027c FB89     		ldrh	r3, [r7, #14]	@ movhi
 405 027e 1343     		orrs	r3, r3, r2
 406 0280 FB81     		strh	r3, [r7, #14]	@ movhi
 407              	.L24:
 244:common/stm32f10x_tim.c ****   }
 245:common/stm32f10x_tim.c ****  
 246:common/stm32f10x_tim.c ****   if((TIMx != TIM6) && (TIMx != TIM7))
 408              		.loc 1 246 0
 409 0282 7B68     		ldr	r3, [r7, #4]
 410 0284 224A     		ldr	r2, .L28+20
 411 0286 9342     		cmp	r3, r2
 412 0288 0CD0     		beq	.L25
 413              		.loc 1 246 0 is_stmt 0 discriminator 1
 414 028a 7B68     		ldr	r3, [r7, #4]
 415 028c 214A     		ldr	r2, .L28+24
 416 028e 9342     		cmp	r3, r2
 417 0290 08D0     		beq	.L25
 247:common/stm32f10x_tim.c ****   {
 248:common/stm32f10x_tim.c ****     /* Set the clock division */
 249:common/stm32f10x_tim.c ****     tmpcr1 &= (uint16_t)(~((uint16_t)TIM_CR1_CKD));
 418              		.loc 1 249 0 is_stmt 1
 419 0292 FB89     		ldrh	r3, [r7, #14]	@ movhi
 420 0294 23F44073 		bic	r3, r3, #768
 421 0298 FB81     		strh	r3, [r7, #14]	@ movhi
 250:common/stm32f10x_tim.c ****     tmpcr1 |= (uint32_t)TIM_TimeBaseInitStruct->TIM_ClockDivision;
 422              		.loc 1 250 0
 423 029a 3B68     		ldr	r3, [r7]
 424 029c DA88     		ldrh	r2, [r3, #6]
 425 029e FB89     		ldrh	r3, [r7, #14]	@ movhi
 426 02a0 1343     		orrs	r3, r3, r2
 427 02a2 FB81     		strh	r3, [r7, #14]	@ movhi
 428              	.L25:
 251:common/stm32f10x_tim.c ****   }
 252:common/stm32f10x_tim.c **** 
 253:common/stm32f10x_tim.c ****   TIMx->CR1 = tmpcr1;
 429              		.loc 1 253 0
 430 02a4 7B68     		ldr	r3, [r7, #4]
 431 02a6 FA89     		ldrh	r2, [r7, #14]	@ movhi
 432 02a8 1A80     		strh	r2, [r3]	@ movhi
 254:common/stm32f10x_tim.c **** 
 255:common/stm32f10x_tim.c ****   /* Set the Autoreload value */
 256:common/stm32f10x_tim.c ****   TIMx->ARR = TIM_TimeBaseInitStruct->TIM_Period ;
 433              		.loc 1 256 0
 434 02aa 3B68     		ldr	r3, [r7]
 435 02ac 9A88     		ldrh	r2, [r3, #4]
 436 02ae 7B68     		ldr	r3, [r7, #4]
 437 02b0 9A85     		strh	r2, [r3, #44]	@ movhi
ARM GAS  /tmp/ccRayNMu.s 			page 14


 257:common/stm32f10x_tim.c ****  
 258:common/stm32f10x_tim.c ****   /* Set the Prescaler value */
 259:common/stm32f10x_tim.c ****   TIMx->PSC = TIM_TimeBaseInitStruct->TIM_Prescaler;
 438              		.loc 1 259 0
 439 02b2 3B68     		ldr	r3, [r7]
 440 02b4 1A88     		ldrh	r2, [r3]
 441 02b6 7B68     		ldr	r3, [r7, #4]
 442 02b8 1A85     		strh	r2, [r3, #40]	@ movhi
 260:common/stm32f10x_tim.c ****     
 261:common/stm32f10x_tim.c ****   if ((TIMx == TIM1) || (TIMx == TIM8)|| (TIMx == TIM15)|| (TIMx == TIM16) || (TIMx == TIM17))  
 443              		.loc 1 261 0
 444 02ba 7B68     		ldr	r3, [r7, #4]
 445 02bc 0F4A     		ldr	r2, .L28
 446 02be 9342     		cmp	r3, r2
 447 02c0 0FD0     		beq	.L26
 448              		.loc 1 261 0 is_stmt 0 discriminator 1
 449 02c2 7B68     		ldr	r3, [r7, #4]
 450 02c4 0E4A     		ldr	r2, .L28+4
 451 02c6 9342     		cmp	r3, r2
 452 02c8 0BD0     		beq	.L26
 453              		.loc 1 261 0 discriminator 2
 454 02ca 7B68     		ldr	r3, [r7, #4]
 455 02cc 124A     		ldr	r2, .L28+28
 456 02ce 9342     		cmp	r3, r2
 457 02d0 07D0     		beq	.L26
 458              		.loc 1 261 0 discriminator 3
 459 02d2 7B68     		ldr	r3, [r7, #4]
 460 02d4 114A     		ldr	r2, .L28+32
 461 02d6 9342     		cmp	r3, r2
 462 02d8 03D0     		beq	.L26
 463              		.loc 1 261 0 discriminator 4
 464 02da 7B68     		ldr	r3, [r7, #4]
 465 02dc 104A     		ldr	r2, .L28+36
 466 02de 9342     		cmp	r3, r2
 467 02e0 04D1     		bne	.L27
 468              	.L26:
 262:common/stm32f10x_tim.c ****   {
 263:common/stm32f10x_tim.c ****     /* Set the Repetition Counter value */
 264:common/stm32f10x_tim.c ****     TIMx->RCR = TIM_TimeBaseInitStruct->TIM_RepetitionCounter;
 469              		.loc 1 264 0 is_stmt 1
 470 02e2 3B68     		ldr	r3, [r7]
 471 02e4 1B7A     		ldrb	r3, [r3, #8]	@ zero_extendqisi2
 472 02e6 9AB2     		uxth	r2, r3
 473 02e8 7B68     		ldr	r3, [r7, #4]
 474 02ea 1A86     		strh	r2, [r3, #48]	@ movhi
 475              	.L27:
 265:common/stm32f10x_tim.c ****   }
 266:common/stm32f10x_tim.c **** 
 267:common/stm32f10x_tim.c ****   /* Generate an update event to reload the Prescaler and the Repetition counter
 268:common/stm32f10x_tim.c ****      values immediately */
 269:common/stm32f10x_tim.c ****   TIMx->EGR = TIM_PSCReloadMode_Immediate;           
 476              		.loc 1 269 0
 477 02ec 7B68     		ldr	r3, [r7, #4]
 478 02ee 0122     		movs	r2, #1
 479 02f0 9A82     		strh	r2, [r3, #20]	@ movhi
 270:common/stm32f10x_tim.c **** }
 480              		.loc 1 270 0
ARM GAS  /tmp/ccRayNMu.s 			page 15


 481 02f2 00BF     		nop
 482 02f4 1437     		adds	r7, r7, #20
 483              		.cfi_def_cfa_offset 4
 484 02f6 BD46     		mov	sp, r7
 485              		.cfi_def_cfa_register 13
 486              		@ sp needed
 487 02f8 80BC     		pop	{r7}
 488              		.cfi_restore 7
 489              		.cfi_def_cfa_offset 0
 490 02fa 7047     		bx	lr
 491              	.L29:
 492              		.align	2
 493              	.L28:
 494 02fc 002C0140 		.word	1073818624
 495 0300 00340140 		.word	1073820672
 496 0304 00040040 		.word	1073742848
 497 0308 00080040 		.word	1073743872
 498 030c 000C0040 		.word	1073744896
 499 0310 00100040 		.word	1073745920
 500 0314 00140040 		.word	1073746944
 501 0318 00400140 		.word	1073823744
 502 031c 00440140 		.word	1073824768
 503 0320 00480140 		.word	1073825792
 504              		.cfi_endproc
 505              	.LFE64:
 506              		.size	TIM_TimeBaseInit, .-TIM_TimeBaseInit
 507              		.align	1
 508              		.global	TIM_OC1Init
 509              		.syntax unified
 510              		.thumb
 511              		.thumb_func
 512              		.fpu softvfp
 513              		.type	TIM_OC1Init, %function
 514              	TIM_OC1Init:
 515              	.LFB65:
 271:common/stm32f10x_tim.c **** 
 272:common/stm32f10x_tim.c **** /**
 273:common/stm32f10x_tim.c ****   * @brief  Initializes the TIMx Channel1 according to the specified
 274:common/stm32f10x_tim.c ****   *         parameters in the TIM_OCInitStruct.
 275:common/stm32f10x_tim.c ****   * @param  TIMx: where x can be  1 to 17 except 6 and 7 to select the TIM peripheral.
 276:common/stm32f10x_tim.c ****   * @param  TIM_OCInitStruct: pointer to a TIM_OCInitTypeDef structure
 277:common/stm32f10x_tim.c ****   *         that contains the configuration information for the specified TIM peripheral.
 278:common/stm32f10x_tim.c ****   * @retval None
 279:common/stm32f10x_tim.c ****   */
 280:common/stm32f10x_tim.c **** void TIM_OC1Init(TIM_TypeDef* TIMx, TIM_OCInitTypeDef* TIM_OCInitStruct)
 281:common/stm32f10x_tim.c **** {
 516              		.loc 1 281 0
 517              		.cfi_startproc
 518              		@ args = 0, pretend = 0, frame = 16
 519              		@ frame_needed = 1, uses_anonymous_args = 0
 520              		@ link register save eliminated.
 521 0324 80B4     		push	{r7}
 522              		.cfi_def_cfa_offset 4
 523              		.cfi_offset 7, -4
 524 0326 85B0     		sub	sp, sp, #20
 525              		.cfi_def_cfa_offset 24
 526 0328 00AF     		add	r7, sp, #0
ARM GAS  /tmp/ccRayNMu.s 			page 16


 527              		.cfi_def_cfa_register 7
 528 032a 7860     		str	r0, [r7, #4]
 529 032c 3960     		str	r1, [r7]
 282:common/stm32f10x_tim.c ****   uint16_t tmpccmrx = 0, tmpccer = 0, tmpcr2 = 0;
 530              		.loc 1 282 0
 531 032e 0023     		movs	r3, #0
 532 0330 7B81     		strh	r3, [r7, #10]	@ movhi
 533 0332 0023     		movs	r3, #0
 534 0334 FB81     		strh	r3, [r7, #14]	@ movhi
 535 0336 0023     		movs	r3, #0
 536 0338 BB81     		strh	r3, [r7, #12]	@ movhi
 283:common/stm32f10x_tim.c ****    
 284:common/stm32f10x_tim.c ****   /* Check the parameters */
 285:common/stm32f10x_tim.c ****   assert_param(IS_TIM_LIST8_PERIPH(TIMx));
 286:common/stm32f10x_tim.c ****   assert_param(IS_TIM_OC_MODE(TIM_OCInitStruct->TIM_OCMode));
 287:common/stm32f10x_tim.c ****   assert_param(IS_TIM_OUTPUT_STATE(TIM_OCInitStruct->TIM_OutputState));
 288:common/stm32f10x_tim.c ****   assert_param(IS_TIM_OC_POLARITY(TIM_OCInitStruct->TIM_OCPolarity));   
 289:common/stm32f10x_tim.c ****  /* Disable the Channel 1: Reset the CC1E Bit */
 290:common/stm32f10x_tim.c ****   TIMx->CCER &= (uint16_t)(~(uint16_t)TIM_CCER_CC1E);
 537              		.loc 1 290 0
 538 033a 7B68     		ldr	r3, [r7, #4]
 539 033c 1B8C     		ldrh	r3, [r3, #32]	@ movhi
 540 033e 9BB2     		uxth	r3, r3
 541 0340 23F00103 		bic	r3, r3, #1
 542 0344 9AB2     		uxth	r2, r3
 543 0346 7B68     		ldr	r3, [r7, #4]
 544 0348 1A84     		strh	r2, [r3, #32]	@ movhi
 291:common/stm32f10x_tim.c ****   /* Get the TIMx CCER register value */
 292:common/stm32f10x_tim.c ****   tmpccer = TIMx->CCER;
 545              		.loc 1 292 0
 546 034a 7B68     		ldr	r3, [r7, #4]
 547 034c 1B8C     		ldrh	r3, [r3, #32]	@ movhi
 548 034e FB81     		strh	r3, [r7, #14]	@ movhi
 293:common/stm32f10x_tim.c ****   /* Get the TIMx CR2 register value */
 294:common/stm32f10x_tim.c ****   tmpcr2 =  TIMx->CR2;
 549              		.loc 1 294 0
 550 0350 7B68     		ldr	r3, [r7, #4]
 551 0352 9B88     		ldrh	r3, [r3, #4]	@ movhi
 552 0354 BB81     		strh	r3, [r7, #12]	@ movhi
 295:common/stm32f10x_tim.c ****   
 296:common/stm32f10x_tim.c ****   /* Get the TIMx CCMR1 register value */
 297:common/stm32f10x_tim.c ****   tmpccmrx = TIMx->CCMR1;
 553              		.loc 1 297 0
 554 0356 7B68     		ldr	r3, [r7, #4]
 555 0358 1B8B     		ldrh	r3, [r3, #24]	@ movhi
 556 035a 7B81     		strh	r3, [r7, #10]	@ movhi
 298:common/stm32f10x_tim.c ****     
 299:common/stm32f10x_tim.c ****   /* Reset the Output Compare Mode Bits */
 300:common/stm32f10x_tim.c ****   tmpccmrx &= (uint16_t)(~((uint16_t)TIM_CCMR1_OC1M));
 557              		.loc 1 300 0
 558 035c 7B89     		ldrh	r3, [r7, #10]	@ movhi
 559 035e 23F07003 		bic	r3, r3, #112
 560 0362 7B81     		strh	r3, [r7, #10]	@ movhi
 301:common/stm32f10x_tim.c ****   tmpccmrx &= (uint16_t)(~((uint16_t)TIM_CCMR1_CC1S));
 561              		.loc 1 301 0
 562 0364 7B89     		ldrh	r3, [r7, #10]	@ movhi
 563 0366 23F00303 		bic	r3, r3, #3
ARM GAS  /tmp/ccRayNMu.s 			page 17


 564 036a 7B81     		strh	r3, [r7, #10]	@ movhi
 302:common/stm32f10x_tim.c **** 
 303:common/stm32f10x_tim.c ****   /* Select the Output Compare Mode */
 304:common/stm32f10x_tim.c ****   tmpccmrx |= TIM_OCInitStruct->TIM_OCMode;
 565              		.loc 1 304 0
 566 036c 3B68     		ldr	r3, [r7]
 567 036e 1A88     		ldrh	r2, [r3]
 568 0370 7B89     		ldrh	r3, [r7, #10]	@ movhi
 569 0372 1343     		orrs	r3, r3, r2
 570 0374 7B81     		strh	r3, [r7, #10]	@ movhi
 305:common/stm32f10x_tim.c ****   
 306:common/stm32f10x_tim.c ****   /* Reset the Output Polarity level */
 307:common/stm32f10x_tim.c ****   tmpccer &= (uint16_t)(~((uint16_t)TIM_CCER_CC1P));
 571              		.loc 1 307 0
 572 0376 FB89     		ldrh	r3, [r7, #14]	@ movhi
 573 0378 23F00203 		bic	r3, r3, #2
 574 037c FB81     		strh	r3, [r7, #14]	@ movhi
 308:common/stm32f10x_tim.c ****   /* Set the Output Compare Polarity */
 309:common/stm32f10x_tim.c ****   tmpccer |= TIM_OCInitStruct->TIM_OCPolarity;
 575              		.loc 1 309 0
 576 037e 3B68     		ldr	r3, [r7]
 577 0380 1A89     		ldrh	r2, [r3, #8]
 578 0382 FB89     		ldrh	r3, [r7, #14]	@ movhi
 579 0384 1343     		orrs	r3, r3, r2
 580 0386 FB81     		strh	r3, [r7, #14]	@ movhi
 310:common/stm32f10x_tim.c ****   
 311:common/stm32f10x_tim.c ****   /* Set the Output State */
 312:common/stm32f10x_tim.c ****   tmpccer |= TIM_OCInitStruct->TIM_OutputState;
 581              		.loc 1 312 0
 582 0388 3B68     		ldr	r3, [r7]
 583 038a 5A88     		ldrh	r2, [r3, #2]
 584 038c FB89     		ldrh	r3, [r7, #14]	@ movhi
 585 038e 1343     		orrs	r3, r3, r2
 586 0390 FB81     		strh	r3, [r7, #14]	@ movhi
 313:common/stm32f10x_tim.c ****     
 314:common/stm32f10x_tim.c ****   if((TIMx == TIM1) || (TIMx == TIM8)|| (TIMx == TIM15)||
 587              		.loc 1 314 0
 588 0392 7B68     		ldr	r3, [r7, #4]
 589 0394 244A     		ldr	r2, .L33
 590 0396 9342     		cmp	r3, r2
 591 0398 0FD0     		beq	.L31
 592              		.loc 1 314 0 is_stmt 0 discriminator 1
 593 039a 7B68     		ldr	r3, [r7, #4]
 594 039c 234A     		ldr	r2, .L33+4
 595 039e 9342     		cmp	r3, r2
 596 03a0 0BD0     		beq	.L31
 597              		.loc 1 314 0 discriminator 2
 598 03a2 7B68     		ldr	r3, [r7, #4]
 599 03a4 224A     		ldr	r2, .L33+8
 600 03a6 9342     		cmp	r3, r2
 601 03a8 07D0     		beq	.L31
 602              		.loc 1 314 0 discriminator 3
 603 03aa 7B68     		ldr	r3, [r7, #4]
 604 03ac 214A     		ldr	r2, .L33+12
 605 03ae 9342     		cmp	r3, r2
 606 03b0 03D0     		beq	.L31
 315:common/stm32f10x_tim.c ****      (TIMx == TIM16)|| (TIMx == TIM17))
ARM GAS  /tmp/ccRayNMu.s 			page 18


 607              		.loc 1 315 0 is_stmt 1
 608 03b2 7B68     		ldr	r3, [r7, #4]
 609 03b4 204A     		ldr	r2, .L33+16
 610 03b6 9342     		cmp	r3, r2
 611 03b8 23D1     		bne	.L32
 612              	.L31:
 316:common/stm32f10x_tim.c ****   {
 317:common/stm32f10x_tim.c ****     assert_param(IS_TIM_OUTPUTN_STATE(TIM_OCInitStruct->TIM_OutputNState));
 318:common/stm32f10x_tim.c ****     assert_param(IS_TIM_OCN_POLARITY(TIM_OCInitStruct->TIM_OCNPolarity));
 319:common/stm32f10x_tim.c ****     assert_param(IS_TIM_OCNIDLE_STATE(TIM_OCInitStruct->TIM_OCNIdleState));
 320:common/stm32f10x_tim.c ****     assert_param(IS_TIM_OCIDLE_STATE(TIM_OCInitStruct->TIM_OCIdleState));
 321:common/stm32f10x_tim.c ****     
 322:common/stm32f10x_tim.c ****     /* Reset the Output N Polarity level */
 323:common/stm32f10x_tim.c ****     tmpccer &= (uint16_t)(~((uint16_t)TIM_CCER_CC1NP));
 613              		.loc 1 323 0
 614 03ba FB89     		ldrh	r3, [r7, #14]	@ movhi
 615 03bc 23F00803 		bic	r3, r3, #8
 616 03c0 FB81     		strh	r3, [r7, #14]	@ movhi
 324:common/stm32f10x_tim.c ****     /* Set the Output N Polarity */
 325:common/stm32f10x_tim.c ****     tmpccer |= TIM_OCInitStruct->TIM_OCNPolarity;
 617              		.loc 1 325 0
 618 03c2 3B68     		ldr	r3, [r7]
 619 03c4 5A89     		ldrh	r2, [r3, #10]
 620 03c6 FB89     		ldrh	r3, [r7, #14]	@ movhi
 621 03c8 1343     		orrs	r3, r3, r2
 622 03ca FB81     		strh	r3, [r7, #14]	@ movhi
 326:common/stm32f10x_tim.c ****     
 327:common/stm32f10x_tim.c ****     /* Reset the Output N State */
 328:common/stm32f10x_tim.c ****     tmpccer &= (uint16_t)(~((uint16_t)TIM_CCER_CC1NE));    
 623              		.loc 1 328 0
 624 03cc FB89     		ldrh	r3, [r7, #14]	@ movhi
 625 03ce 23F00403 		bic	r3, r3, #4
 626 03d2 FB81     		strh	r3, [r7, #14]	@ movhi
 329:common/stm32f10x_tim.c ****     /* Set the Output N State */
 330:common/stm32f10x_tim.c ****     tmpccer |= TIM_OCInitStruct->TIM_OutputNState;
 627              		.loc 1 330 0
 628 03d4 3B68     		ldr	r3, [r7]
 629 03d6 9A88     		ldrh	r2, [r3, #4]
 630 03d8 FB89     		ldrh	r3, [r7, #14]	@ movhi
 631 03da 1343     		orrs	r3, r3, r2
 632 03dc FB81     		strh	r3, [r7, #14]	@ movhi
 331:common/stm32f10x_tim.c ****     
 332:common/stm32f10x_tim.c ****     /* Reset the Output Compare and Output Compare N IDLE State */
 333:common/stm32f10x_tim.c ****     tmpcr2 &= (uint16_t)(~((uint16_t)TIM_CR2_OIS1));
 633              		.loc 1 333 0
 634 03de BB89     		ldrh	r3, [r7, #12]	@ movhi
 635 03e0 23F48073 		bic	r3, r3, #256
 636 03e4 BB81     		strh	r3, [r7, #12]	@ movhi
 334:common/stm32f10x_tim.c ****     tmpcr2 &= (uint16_t)(~((uint16_t)TIM_CR2_OIS1N));
 637              		.loc 1 334 0
 638 03e6 BB89     		ldrh	r3, [r7, #12]	@ movhi
 639 03e8 23F40073 		bic	r3, r3, #512
 640 03ec BB81     		strh	r3, [r7, #12]	@ movhi
 335:common/stm32f10x_tim.c ****     
 336:common/stm32f10x_tim.c ****     /* Set the Output Idle state */
 337:common/stm32f10x_tim.c ****     tmpcr2 |= TIM_OCInitStruct->TIM_OCIdleState;
 641              		.loc 1 337 0
ARM GAS  /tmp/ccRayNMu.s 			page 19


 642 03ee 3B68     		ldr	r3, [r7]
 643 03f0 9A89     		ldrh	r2, [r3, #12]
 644 03f2 BB89     		ldrh	r3, [r7, #12]	@ movhi
 645 03f4 1343     		orrs	r3, r3, r2
 646 03f6 BB81     		strh	r3, [r7, #12]	@ movhi
 338:common/stm32f10x_tim.c ****     /* Set the Output N Idle state */
 339:common/stm32f10x_tim.c ****     tmpcr2 |= TIM_OCInitStruct->TIM_OCNIdleState;
 647              		.loc 1 339 0
 648 03f8 3B68     		ldr	r3, [r7]
 649 03fa DA89     		ldrh	r2, [r3, #14]
 650 03fc BB89     		ldrh	r3, [r7, #12]	@ movhi
 651 03fe 1343     		orrs	r3, r3, r2
 652 0400 BB81     		strh	r3, [r7, #12]	@ movhi
 653              	.L32:
 340:common/stm32f10x_tim.c ****   }
 341:common/stm32f10x_tim.c ****   /* Write to TIMx CR2 */
 342:common/stm32f10x_tim.c ****   TIMx->CR2 = tmpcr2;
 654              		.loc 1 342 0
 655 0402 7B68     		ldr	r3, [r7, #4]
 656 0404 BA89     		ldrh	r2, [r7, #12]	@ movhi
 657 0406 9A80     		strh	r2, [r3, #4]	@ movhi
 343:common/stm32f10x_tim.c ****   
 344:common/stm32f10x_tim.c ****   /* Write to TIMx CCMR1 */
 345:common/stm32f10x_tim.c ****   TIMx->CCMR1 = tmpccmrx;
 658              		.loc 1 345 0
 659 0408 7B68     		ldr	r3, [r7, #4]
 660 040a 7A89     		ldrh	r2, [r7, #10]	@ movhi
 661 040c 1A83     		strh	r2, [r3, #24]	@ movhi
 346:common/stm32f10x_tim.c **** 
 347:common/stm32f10x_tim.c ****   /* Set the Capture Compare Register value */
 348:common/stm32f10x_tim.c ****   TIMx->CCR1 = TIM_OCInitStruct->TIM_Pulse; 
 662              		.loc 1 348 0
 663 040e 3B68     		ldr	r3, [r7]
 664 0410 DA88     		ldrh	r2, [r3, #6]
 665 0412 7B68     		ldr	r3, [r7, #4]
 666 0414 9A86     		strh	r2, [r3, #52]	@ movhi
 349:common/stm32f10x_tim.c ****  
 350:common/stm32f10x_tim.c ****   /* Write to TIMx CCER */
 351:common/stm32f10x_tim.c ****   TIMx->CCER = tmpccer;
 667              		.loc 1 351 0
 668 0416 7B68     		ldr	r3, [r7, #4]
 669 0418 FA89     		ldrh	r2, [r7, #14]	@ movhi
 670 041a 1A84     		strh	r2, [r3, #32]	@ movhi
 352:common/stm32f10x_tim.c **** }
 671              		.loc 1 352 0
 672 041c 00BF     		nop
 673 041e 1437     		adds	r7, r7, #20
 674              		.cfi_def_cfa_offset 4
 675 0420 BD46     		mov	sp, r7
 676              		.cfi_def_cfa_register 13
 677              		@ sp needed
 678 0422 80BC     		pop	{r7}
 679              		.cfi_restore 7
 680              		.cfi_def_cfa_offset 0
 681 0424 7047     		bx	lr
 682              	.L34:
 683 0426 00BF     		.align	2
ARM GAS  /tmp/ccRayNMu.s 			page 20


 684              	.L33:
 685 0428 002C0140 		.word	1073818624
 686 042c 00340140 		.word	1073820672
 687 0430 00400140 		.word	1073823744
 688 0434 00440140 		.word	1073824768
 689 0438 00480140 		.word	1073825792
 690              		.cfi_endproc
 691              	.LFE65:
 692              		.size	TIM_OC1Init, .-TIM_OC1Init
 693              		.align	1
 694              		.global	TIM_OC2Init
 695              		.syntax unified
 696              		.thumb
 697              		.thumb_func
 698              		.fpu softvfp
 699              		.type	TIM_OC2Init, %function
 700              	TIM_OC2Init:
 701              	.LFB66:
 353:common/stm32f10x_tim.c **** 
 354:common/stm32f10x_tim.c **** /**
 355:common/stm32f10x_tim.c ****   * @brief  Initializes the TIMx Channel2 according to the specified
 356:common/stm32f10x_tim.c ****   *         parameters in the TIM_OCInitStruct.
 357:common/stm32f10x_tim.c ****   * @param  TIMx: where x can be  1, 2, 3, 4, 5, 8, 9, 12 or 15 to select 
 358:common/stm32f10x_tim.c ****   *         the TIM peripheral.
 359:common/stm32f10x_tim.c ****   * @param  TIM_OCInitStruct: pointer to a TIM_OCInitTypeDef structure
 360:common/stm32f10x_tim.c ****   *         that contains the configuration information for the specified TIM peripheral.
 361:common/stm32f10x_tim.c ****   * @retval None
 362:common/stm32f10x_tim.c ****   */
 363:common/stm32f10x_tim.c **** void TIM_OC2Init(TIM_TypeDef* TIMx, TIM_OCInitTypeDef* TIM_OCInitStruct)
 364:common/stm32f10x_tim.c **** {
 702              		.loc 1 364 0
 703              		.cfi_startproc
 704              		@ args = 0, pretend = 0, frame = 16
 705              		@ frame_needed = 1, uses_anonymous_args = 0
 706              		@ link register save eliminated.
 707 043c 80B4     		push	{r7}
 708              		.cfi_def_cfa_offset 4
 709              		.cfi_offset 7, -4
 710 043e 85B0     		sub	sp, sp, #20
 711              		.cfi_def_cfa_offset 24
 712 0440 00AF     		add	r7, sp, #0
 713              		.cfi_def_cfa_register 7
 714 0442 7860     		str	r0, [r7, #4]
 715 0444 3960     		str	r1, [r7]
 365:common/stm32f10x_tim.c ****   uint16_t tmpccmrx = 0, tmpccer = 0, tmpcr2 = 0;
 716              		.loc 1 365 0
 717 0446 0023     		movs	r3, #0
 718 0448 7B81     		strh	r3, [r7, #10]	@ movhi
 719 044a 0023     		movs	r3, #0
 720 044c FB81     		strh	r3, [r7, #14]	@ movhi
 721 044e 0023     		movs	r3, #0
 722 0450 BB81     		strh	r3, [r7, #12]	@ movhi
 366:common/stm32f10x_tim.c ****    
 367:common/stm32f10x_tim.c ****   /* Check the parameters */
 368:common/stm32f10x_tim.c ****   assert_param(IS_TIM_LIST6_PERIPH(TIMx)); 
 369:common/stm32f10x_tim.c ****   assert_param(IS_TIM_OC_MODE(TIM_OCInitStruct->TIM_OCMode));
 370:common/stm32f10x_tim.c ****   assert_param(IS_TIM_OUTPUT_STATE(TIM_OCInitStruct->TIM_OutputState));
ARM GAS  /tmp/ccRayNMu.s 			page 21


 371:common/stm32f10x_tim.c ****   assert_param(IS_TIM_OC_POLARITY(TIM_OCInitStruct->TIM_OCPolarity));   
 372:common/stm32f10x_tim.c ****    /* Disable the Channel 2: Reset the CC2E Bit */
 373:common/stm32f10x_tim.c ****   TIMx->CCER &= (uint16_t)(~((uint16_t)TIM_CCER_CC2E));
 723              		.loc 1 373 0
 724 0452 7B68     		ldr	r3, [r7, #4]
 725 0454 1B8C     		ldrh	r3, [r3, #32]	@ movhi
 726 0456 9BB2     		uxth	r3, r3
 727 0458 23F01003 		bic	r3, r3, #16
 728 045c 9AB2     		uxth	r2, r3
 729 045e 7B68     		ldr	r3, [r7, #4]
 730 0460 1A84     		strh	r2, [r3, #32]	@ movhi
 374:common/stm32f10x_tim.c ****   
 375:common/stm32f10x_tim.c ****   /* Get the TIMx CCER register value */  
 376:common/stm32f10x_tim.c ****   tmpccer = TIMx->CCER;
 731              		.loc 1 376 0
 732 0462 7B68     		ldr	r3, [r7, #4]
 733 0464 1B8C     		ldrh	r3, [r3, #32]	@ movhi
 734 0466 FB81     		strh	r3, [r7, #14]	@ movhi
 377:common/stm32f10x_tim.c ****   /* Get the TIMx CR2 register value */
 378:common/stm32f10x_tim.c ****   tmpcr2 =  TIMx->CR2;
 735              		.loc 1 378 0
 736 0468 7B68     		ldr	r3, [r7, #4]
 737 046a 9B88     		ldrh	r3, [r3, #4]	@ movhi
 738 046c BB81     		strh	r3, [r7, #12]	@ movhi
 379:common/stm32f10x_tim.c ****   
 380:common/stm32f10x_tim.c ****   /* Get the TIMx CCMR1 register value */
 381:common/stm32f10x_tim.c ****   tmpccmrx = TIMx->CCMR1;
 739              		.loc 1 381 0
 740 046e 7B68     		ldr	r3, [r7, #4]
 741 0470 1B8B     		ldrh	r3, [r3, #24]	@ movhi
 742 0472 7B81     		strh	r3, [r7, #10]	@ movhi
 382:common/stm32f10x_tim.c ****     
 383:common/stm32f10x_tim.c ****   /* Reset the Output Compare mode and Capture/Compare selection Bits */
 384:common/stm32f10x_tim.c ****   tmpccmrx &= (uint16_t)(~((uint16_t)TIM_CCMR1_OC2M));
 743              		.loc 1 384 0
 744 0474 7B89     		ldrh	r3, [r7, #10]	@ movhi
 745 0476 23F4E043 		bic	r3, r3, #28672
 746 047a 7B81     		strh	r3, [r7, #10]	@ movhi
 385:common/stm32f10x_tim.c ****   tmpccmrx &= (uint16_t)(~((uint16_t)TIM_CCMR1_CC2S));
 747              		.loc 1 385 0
 748 047c 7B89     		ldrh	r3, [r7, #10]	@ movhi
 749 047e 23F44073 		bic	r3, r3, #768
 750 0482 7B81     		strh	r3, [r7, #10]	@ movhi
 386:common/stm32f10x_tim.c ****   
 387:common/stm32f10x_tim.c ****   /* Select the Output Compare Mode */
 388:common/stm32f10x_tim.c ****   tmpccmrx |= (uint16_t)(TIM_OCInitStruct->TIM_OCMode << 8);
 751              		.loc 1 388 0
 752 0484 3B68     		ldr	r3, [r7]
 753 0486 1B88     		ldrh	r3, [r3]
 754 0488 1B02     		lsls	r3, r3, #8
 755 048a 9AB2     		uxth	r2, r3
 756 048c 7B89     		ldrh	r3, [r7, #10]	@ movhi
 757 048e 1343     		orrs	r3, r3, r2
 758 0490 7B81     		strh	r3, [r7, #10]	@ movhi
 389:common/stm32f10x_tim.c ****   
 390:common/stm32f10x_tim.c ****   /* Reset the Output Polarity level */
 391:common/stm32f10x_tim.c ****   tmpccer &= (uint16_t)(~((uint16_t)TIM_CCER_CC2P));
ARM GAS  /tmp/ccRayNMu.s 			page 22


 759              		.loc 1 391 0
 760 0492 FB89     		ldrh	r3, [r7, #14]	@ movhi
 761 0494 23F02003 		bic	r3, r3, #32
 762 0498 FB81     		strh	r3, [r7, #14]	@ movhi
 392:common/stm32f10x_tim.c ****   /* Set the Output Compare Polarity */
 393:common/stm32f10x_tim.c ****   tmpccer |= (uint16_t)(TIM_OCInitStruct->TIM_OCPolarity << 4);
 763              		.loc 1 393 0
 764 049a 3B68     		ldr	r3, [r7]
 765 049c 1B89     		ldrh	r3, [r3, #8]
 766 049e 1B01     		lsls	r3, r3, #4
 767 04a0 9AB2     		uxth	r2, r3
 768 04a2 FB89     		ldrh	r3, [r7, #14]	@ movhi
 769 04a4 1343     		orrs	r3, r3, r2
 770 04a6 FB81     		strh	r3, [r7, #14]	@ movhi
 394:common/stm32f10x_tim.c ****   
 395:common/stm32f10x_tim.c ****   /* Set the Output State */
 396:common/stm32f10x_tim.c ****   tmpccer |= (uint16_t)(TIM_OCInitStruct->TIM_OutputState << 4);
 771              		.loc 1 396 0
 772 04a8 3B68     		ldr	r3, [r7]
 773 04aa 5B88     		ldrh	r3, [r3, #2]
 774 04ac 1B01     		lsls	r3, r3, #4
 775 04ae 9AB2     		uxth	r2, r3
 776 04b0 FB89     		ldrh	r3, [r7, #14]	@ movhi
 777 04b2 1343     		orrs	r3, r3, r2
 778 04b4 FB81     		strh	r3, [r7, #14]	@ movhi
 397:common/stm32f10x_tim.c ****     
 398:common/stm32f10x_tim.c ****   if((TIMx == TIM1) || (TIMx == TIM8))
 779              		.loc 1 398 0
 780 04b6 7B68     		ldr	r3, [r7, #4]
 781 04b8 224A     		ldr	r2, .L38
 782 04ba 9342     		cmp	r3, r2
 783 04bc 03D0     		beq	.L36
 784              		.loc 1 398 0 is_stmt 0 discriminator 1
 785 04be 7B68     		ldr	r3, [r7, #4]
 786 04c0 214A     		ldr	r2, .L38+4
 787 04c2 9342     		cmp	r3, r2
 788 04c4 2BD1     		bne	.L37
 789              	.L36:
 399:common/stm32f10x_tim.c ****   {
 400:common/stm32f10x_tim.c ****     assert_param(IS_TIM_OUTPUTN_STATE(TIM_OCInitStruct->TIM_OutputNState));
 401:common/stm32f10x_tim.c ****     assert_param(IS_TIM_OCN_POLARITY(TIM_OCInitStruct->TIM_OCNPolarity));
 402:common/stm32f10x_tim.c ****     assert_param(IS_TIM_OCNIDLE_STATE(TIM_OCInitStruct->TIM_OCNIdleState));
 403:common/stm32f10x_tim.c ****     assert_param(IS_TIM_OCIDLE_STATE(TIM_OCInitStruct->TIM_OCIdleState));
 404:common/stm32f10x_tim.c ****     
 405:common/stm32f10x_tim.c ****     /* Reset the Output N Polarity level */
 406:common/stm32f10x_tim.c ****     tmpccer &= (uint16_t)(~((uint16_t)TIM_CCER_CC2NP));
 790              		.loc 1 406 0 is_stmt 1
 791 04c6 FB89     		ldrh	r3, [r7, #14]	@ movhi
 792 04c8 23F08003 		bic	r3, r3, #128
 793 04cc FB81     		strh	r3, [r7, #14]	@ movhi
 407:common/stm32f10x_tim.c ****     /* Set the Output N Polarity */
 408:common/stm32f10x_tim.c ****     tmpccer |= (uint16_t)(TIM_OCInitStruct->TIM_OCNPolarity << 4);
 794              		.loc 1 408 0
 795 04ce 3B68     		ldr	r3, [r7]
 796 04d0 5B89     		ldrh	r3, [r3, #10]
 797 04d2 1B01     		lsls	r3, r3, #4
 798 04d4 9AB2     		uxth	r2, r3
ARM GAS  /tmp/ccRayNMu.s 			page 23


 799 04d6 FB89     		ldrh	r3, [r7, #14]	@ movhi
 800 04d8 1343     		orrs	r3, r3, r2
 801 04da FB81     		strh	r3, [r7, #14]	@ movhi
 409:common/stm32f10x_tim.c ****     
 410:common/stm32f10x_tim.c ****     /* Reset the Output N State */
 411:common/stm32f10x_tim.c ****     tmpccer &= (uint16_t)(~((uint16_t)TIM_CCER_CC2NE));    
 802              		.loc 1 411 0
 803 04dc FB89     		ldrh	r3, [r7, #14]	@ movhi
 804 04de 23F04003 		bic	r3, r3, #64
 805 04e2 FB81     		strh	r3, [r7, #14]	@ movhi
 412:common/stm32f10x_tim.c ****     /* Set the Output N State */
 413:common/stm32f10x_tim.c ****     tmpccer |= (uint16_t)(TIM_OCInitStruct->TIM_OutputNState << 4);
 806              		.loc 1 413 0
 807 04e4 3B68     		ldr	r3, [r7]
 808 04e6 9B88     		ldrh	r3, [r3, #4]
 809 04e8 1B01     		lsls	r3, r3, #4
 810 04ea 9AB2     		uxth	r2, r3
 811 04ec FB89     		ldrh	r3, [r7, #14]	@ movhi
 812 04ee 1343     		orrs	r3, r3, r2
 813 04f0 FB81     		strh	r3, [r7, #14]	@ movhi
 414:common/stm32f10x_tim.c ****     
 415:common/stm32f10x_tim.c ****     /* Reset the Output Compare and Output Compare N IDLE State */
 416:common/stm32f10x_tim.c ****     tmpcr2 &= (uint16_t)(~((uint16_t)TIM_CR2_OIS2));
 814              		.loc 1 416 0
 815 04f2 BB89     		ldrh	r3, [r7, #12]	@ movhi
 816 04f4 23F48063 		bic	r3, r3, #1024
 817 04f8 BB81     		strh	r3, [r7, #12]	@ movhi
 417:common/stm32f10x_tim.c ****     tmpcr2 &= (uint16_t)(~((uint16_t)TIM_CR2_OIS2N));
 818              		.loc 1 417 0
 819 04fa BB89     		ldrh	r3, [r7, #12]	@ movhi
 820 04fc 23F40063 		bic	r3, r3, #2048
 821 0500 BB81     		strh	r3, [r7, #12]	@ movhi
 418:common/stm32f10x_tim.c ****     
 419:common/stm32f10x_tim.c ****     /* Set the Output Idle state */
 420:common/stm32f10x_tim.c ****     tmpcr2 |= (uint16_t)(TIM_OCInitStruct->TIM_OCIdleState << 2);
 822              		.loc 1 420 0
 823 0502 3B68     		ldr	r3, [r7]
 824 0504 9B89     		ldrh	r3, [r3, #12]
 825 0506 9B00     		lsls	r3, r3, #2
 826 0508 9AB2     		uxth	r2, r3
 827 050a BB89     		ldrh	r3, [r7, #12]	@ movhi
 828 050c 1343     		orrs	r3, r3, r2
 829 050e BB81     		strh	r3, [r7, #12]	@ movhi
 421:common/stm32f10x_tim.c ****     /* Set the Output N Idle state */
 422:common/stm32f10x_tim.c ****     tmpcr2 |= (uint16_t)(TIM_OCInitStruct->TIM_OCNIdleState << 2);
 830              		.loc 1 422 0
 831 0510 3B68     		ldr	r3, [r7]
 832 0512 DB89     		ldrh	r3, [r3, #14]
 833 0514 9B00     		lsls	r3, r3, #2
 834 0516 9AB2     		uxth	r2, r3
 835 0518 BB89     		ldrh	r3, [r7, #12]	@ movhi
 836 051a 1343     		orrs	r3, r3, r2
 837 051c BB81     		strh	r3, [r7, #12]	@ movhi
 838              	.L37:
 423:common/stm32f10x_tim.c ****   }
 424:common/stm32f10x_tim.c ****   /* Write to TIMx CR2 */
 425:common/stm32f10x_tim.c ****   TIMx->CR2 = tmpcr2;
ARM GAS  /tmp/ccRayNMu.s 			page 24


 839              		.loc 1 425 0
 840 051e 7B68     		ldr	r3, [r7, #4]
 841 0520 BA89     		ldrh	r2, [r7, #12]	@ movhi
 842 0522 9A80     		strh	r2, [r3, #4]	@ movhi
 426:common/stm32f10x_tim.c ****   
 427:common/stm32f10x_tim.c ****   /* Write to TIMx CCMR1 */
 428:common/stm32f10x_tim.c ****   TIMx->CCMR1 = tmpccmrx;
 843              		.loc 1 428 0
 844 0524 7B68     		ldr	r3, [r7, #4]
 845 0526 7A89     		ldrh	r2, [r7, #10]	@ movhi
 846 0528 1A83     		strh	r2, [r3, #24]	@ movhi
 429:common/stm32f10x_tim.c **** 
 430:common/stm32f10x_tim.c ****   /* Set the Capture Compare Register value */
 431:common/stm32f10x_tim.c ****   TIMx->CCR2 = TIM_OCInitStruct->TIM_Pulse;
 847              		.loc 1 431 0
 848 052a 3B68     		ldr	r3, [r7]
 849 052c DA88     		ldrh	r2, [r3, #6]
 850 052e 7B68     		ldr	r3, [r7, #4]
 851 0530 1A87     		strh	r2, [r3, #56]	@ movhi
 432:common/stm32f10x_tim.c ****   
 433:common/stm32f10x_tim.c ****   /* Write to TIMx CCER */
 434:common/stm32f10x_tim.c ****   TIMx->CCER = tmpccer;
 852              		.loc 1 434 0
 853 0532 7B68     		ldr	r3, [r7, #4]
 854 0534 FA89     		ldrh	r2, [r7, #14]	@ movhi
 855 0536 1A84     		strh	r2, [r3, #32]	@ movhi
 435:common/stm32f10x_tim.c **** }
 856              		.loc 1 435 0
 857 0538 00BF     		nop
 858 053a 1437     		adds	r7, r7, #20
 859              		.cfi_def_cfa_offset 4
 860 053c BD46     		mov	sp, r7
 861              		.cfi_def_cfa_register 13
 862              		@ sp needed
 863 053e 80BC     		pop	{r7}
 864              		.cfi_restore 7
 865              		.cfi_def_cfa_offset 0
 866 0540 7047     		bx	lr
 867              	.L39:
 868 0542 00BF     		.align	2
 869              	.L38:
 870 0544 002C0140 		.word	1073818624
 871 0548 00340140 		.word	1073820672
 872              		.cfi_endproc
 873              	.LFE66:
 874              		.size	TIM_OC2Init, .-TIM_OC2Init
 875              		.align	1
 876              		.global	TIM_OC3Init
 877              		.syntax unified
 878              		.thumb
 879              		.thumb_func
 880              		.fpu softvfp
 881              		.type	TIM_OC3Init, %function
 882              	TIM_OC3Init:
 883              	.LFB67:
 436:common/stm32f10x_tim.c **** 
 437:common/stm32f10x_tim.c **** /**
ARM GAS  /tmp/ccRayNMu.s 			page 25


 438:common/stm32f10x_tim.c ****   * @brief  Initializes the TIMx Channel3 according to the specified
 439:common/stm32f10x_tim.c ****   *         parameters in the TIM_OCInitStruct.
 440:common/stm32f10x_tim.c ****   * @param  TIMx: where x can be  1, 2, 3, 4, 5 or 8 to select the TIM peripheral.
 441:common/stm32f10x_tim.c ****   * @param  TIM_OCInitStruct: pointer to a TIM_OCInitTypeDef structure
 442:common/stm32f10x_tim.c ****   *         that contains the configuration information for the specified TIM peripheral.
 443:common/stm32f10x_tim.c ****   * @retval None
 444:common/stm32f10x_tim.c ****   */
 445:common/stm32f10x_tim.c **** void TIM_OC3Init(TIM_TypeDef* TIMx, TIM_OCInitTypeDef* TIM_OCInitStruct)
 446:common/stm32f10x_tim.c **** {
 884              		.loc 1 446 0
 885              		.cfi_startproc
 886              		@ args = 0, pretend = 0, frame = 16
 887              		@ frame_needed = 1, uses_anonymous_args = 0
 888              		@ link register save eliminated.
 889 054c 80B4     		push	{r7}
 890              		.cfi_def_cfa_offset 4
 891              		.cfi_offset 7, -4
 892 054e 85B0     		sub	sp, sp, #20
 893              		.cfi_def_cfa_offset 24
 894 0550 00AF     		add	r7, sp, #0
 895              		.cfi_def_cfa_register 7
 896 0552 7860     		str	r0, [r7, #4]
 897 0554 3960     		str	r1, [r7]
 447:common/stm32f10x_tim.c ****   uint16_t tmpccmrx = 0, tmpccer = 0, tmpcr2 = 0;
 898              		.loc 1 447 0
 899 0556 0023     		movs	r3, #0
 900 0558 7B81     		strh	r3, [r7, #10]	@ movhi
 901 055a 0023     		movs	r3, #0
 902 055c FB81     		strh	r3, [r7, #14]	@ movhi
 903 055e 0023     		movs	r3, #0
 904 0560 BB81     		strh	r3, [r7, #12]	@ movhi
 448:common/stm32f10x_tim.c ****    
 449:common/stm32f10x_tim.c ****   /* Check the parameters */
 450:common/stm32f10x_tim.c ****   assert_param(IS_TIM_LIST3_PERIPH(TIMx)); 
 451:common/stm32f10x_tim.c ****   assert_param(IS_TIM_OC_MODE(TIM_OCInitStruct->TIM_OCMode));
 452:common/stm32f10x_tim.c ****   assert_param(IS_TIM_OUTPUT_STATE(TIM_OCInitStruct->TIM_OutputState));
 453:common/stm32f10x_tim.c ****   assert_param(IS_TIM_OC_POLARITY(TIM_OCInitStruct->TIM_OCPolarity));   
 454:common/stm32f10x_tim.c ****   /* Disable the Channel 2: Reset the CC2E Bit */
 455:common/stm32f10x_tim.c ****   TIMx->CCER &= (uint16_t)(~((uint16_t)TIM_CCER_CC3E));
 905              		.loc 1 455 0
 906 0562 7B68     		ldr	r3, [r7, #4]
 907 0564 1B8C     		ldrh	r3, [r3, #32]	@ movhi
 908 0566 9BB2     		uxth	r3, r3
 909 0568 23F48073 		bic	r3, r3, #256
 910 056c 9AB2     		uxth	r2, r3
 911 056e 7B68     		ldr	r3, [r7, #4]
 912 0570 1A84     		strh	r2, [r3, #32]	@ movhi
 456:common/stm32f10x_tim.c ****   
 457:common/stm32f10x_tim.c ****   /* Get the TIMx CCER register value */
 458:common/stm32f10x_tim.c ****   tmpccer = TIMx->CCER;
 913              		.loc 1 458 0
 914 0572 7B68     		ldr	r3, [r7, #4]
 915 0574 1B8C     		ldrh	r3, [r3, #32]	@ movhi
 916 0576 FB81     		strh	r3, [r7, #14]	@ movhi
 459:common/stm32f10x_tim.c ****   /* Get the TIMx CR2 register value */
 460:common/stm32f10x_tim.c ****   tmpcr2 =  TIMx->CR2;
 917              		.loc 1 460 0
ARM GAS  /tmp/ccRayNMu.s 			page 26


 918 0578 7B68     		ldr	r3, [r7, #4]
 919 057a 9B88     		ldrh	r3, [r3, #4]	@ movhi
 920 057c BB81     		strh	r3, [r7, #12]	@ movhi
 461:common/stm32f10x_tim.c ****   
 462:common/stm32f10x_tim.c ****   /* Get the TIMx CCMR2 register value */
 463:common/stm32f10x_tim.c ****   tmpccmrx = TIMx->CCMR2;
 921              		.loc 1 463 0
 922 057e 7B68     		ldr	r3, [r7, #4]
 923 0580 9B8B     		ldrh	r3, [r3, #28]	@ movhi
 924 0582 7B81     		strh	r3, [r7, #10]	@ movhi
 464:common/stm32f10x_tim.c ****     
 465:common/stm32f10x_tim.c ****   /* Reset the Output Compare mode and Capture/Compare selection Bits */
 466:common/stm32f10x_tim.c ****   tmpccmrx &= (uint16_t)(~((uint16_t)TIM_CCMR2_OC3M));
 925              		.loc 1 466 0
 926 0584 7B89     		ldrh	r3, [r7, #10]	@ movhi
 927 0586 23F07003 		bic	r3, r3, #112
 928 058a 7B81     		strh	r3, [r7, #10]	@ movhi
 467:common/stm32f10x_tim.c ****   tmpccmrx &= (uint16_t)(~((uint16_t)TIM_CCMR2_CC3S));  
 929              		.loc 1 467 0
 930 058c 7B89     		ldrh	r3, [r7, #10]	@ movhi
 931 058e 23F00303 		bic	r3, r3, #3
 932 0592 7B81     		strh	r3, [r7, #10]	@ movhi
 468:common/stm32f10x_tim.c ****   /* Select the Output Compare Mode */
 469:common/stm32f10x_tim.c ****   tmpccmrx |= TIM_OCInitStruct->TIM_OCMode;
 933              		.loc 1 469 0
 934 0594 3B68     		ldr	r3, [r7]
 935 0596 1A88     		ldrh	r2, [r3]
 936 0598 7B89     		ldrh	r3, [r7, #10]	@ movhi
 937 059a 1343     		orrs	r3, r3, r2
 938 059c 7B81     		strh	r3, [r7, #10]	@ movhi
 470:common/stm32f10x_tim.c ****   
 471:common/stm32f10x_tim.c ****   /* Reset the Output Polarity level */
 472:common/stm32f10x_tim.c ****   tmpccer &= (uint16_t)(~((uint16_t)TIM_CCER_CC3P));
 939              		.loc 1 472 0
 940 059e FB89     		ldrh	r3, [r7, #14]	@ movhi
 941 05a0 23F40073 		bic	r3, r3, #512
 942 05a4 FB81     		strh	r3, [r7, #14]	@ movhi
 473:common/stm32f10x_tim.c ****   /* Set the Output Compare Polarity */
 474:common/stm32f10x_tim.c ****   tmpccer |= (uint16_t)(TIM_OCInitStruct->TIM_OCPolarity << 8);
 943              		.loc 1 474 0
 944 05a6 3B68     		ldr	r3, [r7]
 945 05a8 1B89     		ldrh	r3, [r3, #8]
 946 05aa 1B02     		lsls	r3, r3, #8
 947 05ac 9AB2     		uxth	r2, r3
 948 05ae FB89     		ldrh	r3, [r7, #14]	@ movhi
 949 05b0 1343     		orrs	r3, r3, r2
 950 05b2 FB81     		strh	r3, [r7, #14]	@ movhi
 475:common/stm32f10x_tim.c ****   
 476:common/stm32f10x_tim.c ****   /* Set the Output State */
 477:common/stm32f10x_tim.c ****   tmpccer |= (uint16_t)(TIM_OCInitStruct->TIM_OutputState << 8);
 951              		.loc 1 477 0
 952 05b4 3B68     		ldr	r3, [r7]
 953 05b6 5B88     		ldrh	r3, [r3, #2]
 954 05b8 1B02     		lsls	r3, r3, #8
 955 05ba 9AB2     		uxth	r2, r3
 956 05bc FB89     		ldrh	r3, [r7, #14]	@ movhi
 957 05be 1343     		orrs	r3, r3, r2
ARM GAS  /tmp/ccRayNMu.s 			page 27


 958 05c0 FB81     		strh	r3, [r7, #14]	@ movhi
 478:common/stm32f10x_tim.c ****     
 479:common/stm32f10x_tim.c ****   if((TIMx == TIM1) || (TIMx == TIM8))
 959              		.loc 1 479 0
 960 05c2 7B68     		ldr	r3, [r7, #4]
 961 05c4 224A     		ldr	r2, .L43
 962 05c6 9342     		cmp	r3, r2
 963 05c8 03D0     		beq	.L41
 964              		.loc 1 479 0 is_stmt 0 discriminator 1
 965 05ca 7B68     		ldr	r3, [r7, #4]
 966 05cc 214A     		ldr	r2, .L43+4
 967 05ce 9342     		cmp	r3, r2
 968 05d0 2BD1     		bne	.L42
 969              	.L41:
 480:common/stm32f10x_tim.c ****   {
 481:common/stm32f10x_tim.c ****     assert_param(IS_TIM_OUTPUTN_STATE(TIM_OCInitStruct->TIM_OutputNState));
 482:common/stm32f10x_tim.c ****     assert_param(IS_TIM_OCN_POLARITY(TIM_OCInitStruct->TIM_OCNPolarity));
 483:common/stm32f10x_tim.c ****     assert_param(IS_TIM_OCNIDLE_STATE(TIM_OCInitStruct->TIM_OCNIdleState));
 484:common/stm32f10x_tim.c ****     assert_param(IS_TIM_OCIDLE_STATE(TIM_OCInitStruct->TIM_OCIdleState));
 485:common/stm32f10x_tim.c ****     
 486:common/stm32f10x_tim.c ****     /* Reset the Output N Polarity level */
 487:common/stm32f10x_tim.c ****     tmpccer &= (uint16_t)(~((uint16_t)TIM_CCER_CC3NP));
 970              		.loc 1 487 0 is_stmt 1
 971 05d2 FB89     		ldrh	r3, [r7, #14]	@ movhi
 972 05d4 23F40063 		bic	r3, r3, #2048
 973 05d8 FB81     		strh	r3, [r7, #14]	@ movhi
 488:common/stm32f10x_tim.c ****     /* Set the Output N Polarity */
 489:common/stm32f10x_tim.c ****     tmpccer |= (uint16_t)(TIM_OCInitStruct->TIM_OCNPolarity << 8);
 974              		.loc 1 489 0
 975 05da 3B68     		ldr	r3, [r7]
 976 05dc 5B89     		ldrh	r3, [r3, #10]
 977 05de 1B02     		lsls	r3, r3, #8
 978 05e0 9AB2     		uxth	r2, r3
 979 05e2 FB89     		ldrh	r3, [r7, #14]	@ movhi
 980 05e4 1343     		orrs	r3, r3, r2
 981 05e6 FB81     		strh	r3, [r7, #14]	@ movhi
 490:common/stm32f10x_tim.c ****     /* Reset the Output N State */
 491:common/stm32f10x_tim.c ****     tmpccer &= (uint16_t)(~((uint16_t)TIM_CCER_CC3NE));
 982              		.loc 1 491 0
 983 05e8 FB89     		ldrh	r3, [r7, #14]	@ movhi
 984 05ea 23F48063 		bic	r3, r3, #1024
 985 05ee FB81     		strh	r3, [r7, #14]	@ movhi
 492:common/stm32f10x_tim.c ****     
 493:common/stm32f10x_tim.c ****     /* Set the Output N State */
 494:common/stm32f10x_tim.c ****     tmpccer |= (uint16_t)(TIM_OCInitStruct->TIM_OutputNState << 8);
 986              		.loc 1 494 0
 987 05f0 3B68     		ldr	r3, [r7]
 988 05f2 9B88     		ldrh	r3, [r3, #4]
 989 05f4 1B02     		lsls	r3, r3, #8
 990 05f6 9AB2     		uxth	r2, r3
 991 05f8 FB89     		ldrh	r3, [r7, #14]	@ movhi
 992 05fa 1343     		orrs	r3, r3, r2
 993 05fc FB81     		strh	r3, [r7, #14]	@ movhi
 495:common/stm32f10x_tim.c ****     /* Reset the Output Compare and Output Compare N IDLE State */
 496:common/stm32f10x_tim.c ****     tmpcr2 &= (uint16_t)(~((uint16_t)TIM_CR2_OIS3));
 994              		.loc 1 496 0
 995 05fe BB89     		ldrh	r3, [r7, #12]	@ movhi
ARM GAS  /tmp/ccRayNMu.s 			page 28


 996 0600 23F48053 		bic	r3, r3, #4096
 997 0604 BB81     		strh	r3, [r7, #12]	@ movhi
 497:common/stm32f10x_tim.c ****     tmpcr2 &= (uint16_t)(~((uint16_t)TIM_CR2_OIS3N));
 998              		.loc 1 497 0
 999 0606 BB89     		ldrh	r3, [r7, #12]	@ movhi
 1000 0608 23F40053 		bic	r3, r3, #8192
 1001 060c BB81     		strh	r3, [r7, #12]	@ movhi
 498:common/stm32f10x_tim.c ****     /* Set the Output Idle state */
 499:common/stm32f10x_tim.c ****     tmpcr2 |= (uint16_t)(TIM_OCInitStruct->TIM_OCIdleState << 4);
 1002              		.loc 1 499 0
 1003 060e 3B68     		ldr	r3, [r7]
 1004 0610 9B89     		ldrh	r3, [r3, #12]
 1005 0612 1B01     		lsls	r3, r3, #4
 1006 0614 9AB2     		uxth	r2, r3
 1007 0616 BB89     		ldrh	r3, [r7, #12]	@ movhi
 1008 0618 1343     		orrs	r3, r3, r2
 1009 061a BB81     		strh	r3, [r7, #12]	@ movhi
 500:common/stm32f10x_tim.c ****     /* Set the Output N Idle state */
 501:common/stm32f10x_tim.c ****     tmpcr2 |= (uint16_t)(TIM_OCInitStruct->TIM_OCNIdleState << 4);
 1010              		.loc 1 501 0
 1011 061c 3B68     		ldr	r3, [r7]
 1012 061e DB89     		ldrh	r3, [r3, #14]
 1013 0620 1B01     		lsls	r3, r3, #4
 1014 0622 9AB2     		uxth	r2, r3
 1015 0624 BB89     		ldrh	r3, [r7, #12]	@ movhi
 1016 0626 1343     		orrs	r3, r3, r2
 1017 0628 BB81     		strh	r3, [r7, #12]	@ movhi
 1018              	.L42:
 502:common/stm32f10x_tim.c ****   }
 503:common/stm32f10x_tim.c ****   /* Write to TIMx CR2 */
 504:common/stm32f10x_tim.c ****   TIMx->CR2 = tmpcr2;
 1019              		.loc 1 504 0
 1020 062a 7B68     		ldr	r3, [r7, #4]
 1021 062c BA89     		ldrh	r2, [r7, #12]	@ movhi
 1022 062e 9A80     		strh	r2, [r3, #4]	@ movhi
 505:common/stm32f10x_tim.c ****   
 506:common/stm32f10x_tim.c ****   /* Write to TIMx CCMR2 */
 507:common/stm32f10x_tim.c ****   TIMx->CCMR2 = tmpccmrx;
 1023              		.loc 1 507 0
 1024 0630 7B68     		ldr	r3, [r7, #4]
 1025 0632 7A89     		ldrh	r2, [r7, #10]	@ movhi
 1026 0634 9A83     		strh	r2, [r3, #28]	@ movhi
 508:common/stm32f10x_tim.c **** 
 509:common/stm32f10x_tim.c ****   /* Set the Capture Compare Register value */
 510:common/stm32f10x_tim.c ****   TIMx->CCR3 = TIM_OCInitStruct->TIM_Pulse;
 1027              		.loc 1 510 0
 1028 0636 3B68     		ldr	r3, [r7]
 1029 0638 DA88     		ldrh	r2, [r3, #6]
 1030 063a 7B68     		ldr	r3, [r7, #4]
 1031 063c 9A87     		strh	r2, [r3, #60]	@ movhi
 511:common/stm32f10x_tim.c ****   
 512:common/stm32f10x_tim.c ****   /* Write to TIMx CCER */
 513:common/stm32f10x_tim.c ****   TIMx->CCER = tmpccer;
 1032              		.loc 1 513 0
 1033 063e 7B68     		ldr	r3, [r7, #4]
 1034 0640 FA89     		ldrh	r2, [r7, #14]	@ movhi
 1035 0642 1A84     		strh	r2, [r3, #32]	@ movhi
ARM GAS  /tmp/ccRayNMu.s 			page 29


 514:common/stm32f10x_tim.c **** }
 1036              		.loc 1 514 0
 1037 0644 00BF     		nop
 1038 0646 1437     		adds	r7, r7, #20
 1039              		.cfi_def_cfa_offset 4
 1040 0648 BD46     		mov	sp, r7
 1041              		.cfi_def_cfa_register 13
 1042              		@ sp needed
 1043 064a 80BC     		pop	{r7}
 1044              		.cfi_restore 7
 1045              		.cfi_def_cfa_offset 0
 1046 064c 7047     		bx	lr
 1047              	.L44:
 1048 064e 00BF     		.align	2
 1049              	.L43:
 1050 0650 002C0140 		.word	1073818624
 1051 0654 00340140 		.word	1073820672
 1052              		.cfi_endproc
 1053              	.LFE67:
 1054              		.size	TIM_OC3Init, .-TIM_OC3Init
 1055              		.align	1
 1056              		.global	TIM_OC4Init
 1057              		.syntax unified
 1058              		.thumb
 1059              		.thumb_func
 1060              		.fpu softvfp
 1061              		.type	TIM_OC4Init, %function
 1062              	TIM_OC4Init:
 1063              	.LFB68:
 515:common/stm32f10x_tim.c **** 
 516:common/stm32f10x_tim.c **** /**
 517:common/stm32f10x_tim.c ****   * @brief  Initializes the TIMx Channel4 according to the specified
 518:common/stm32f10x_tim.c ****   *         parameters in the TIM_OCInitStruct.
 519:common/stm32f10x_tim.c ****   * @param  TIMx: where x can be  1, 2, 3, 4, 5 or 8 to select the TIM peripheral.
 520:common/stm32f10x_tim.c ****   * @param  TIM_OCInitStruct: pointer to a TIM_OCInitTypeDef structure
 521:common/stm32f10x_tim.c ****   *         that contains the configuration information for the specified TIM peripheral.
 522:common/stm32f10x_tim.c ****   * @retval None
 523:common/stm32f10x_tim.c ****   */
 524:common/stm32f10x_tim.c **** void TIM_OC4Init(TIM_TypeDef* TIMx, TIM_OCInitTypeDef* TIM_OCInitStruct)
 525:common/stm32f10x_tim.c **** {
 1064              		.loc 1 525 0
 1065              		.cfi_startproc
 1066              		@ args = 0, pretend = 0, frame = 16
 1067              		@ frame_needed = 1, uses_anonymous_args = 0
 1068              		@ link register save eliminated.
 1069 0658 80B4     		push	{r7}
 1070              		.cfi_def_cfa_offset 4
 1071              		.cfi_offset 7, -4
 1072 065a 85B0     		sub	sp, sp, #20
 1073              		.cfi_def_cfa_offset 24
 1074 065c 00AF     		add	r7, sp, #0
 1075              		.cfi_def_cfa_register 7
 1076 065e 7860     		str	r0, [r7, #4]
 1077 0660 3960     		str	r1, [r7]
 526:common/stm32f10x_tim.c ****   uint16_t tmpccmrx = 0, tmpccer = 0, tmpcr2 = 0;
 1078              		.loc 1 526 0
 1079 0662 0023     		movs	r3, #0
ARM GAS  /tmp/ccRayNMu.s 			page 30


 1080 0664 BB81     		strh	r3, [r7, #12]	@ movhi
 1081 0666 0023     		movs	r3, #0
 1082 0668 7B81     		strh	r3, [r7, #10]	@ movhi
 1083 066a 0023     		movs	r3, #0
 1084 066c FB81     		strh	r3, [r7, #14]	@ movhi
 527:common/stm32f10x_tim.c ****    
 528:common/stm32f10x_tim.c ****   /* Check the parameters */
 529:common/stm32f10x_tim.c ****   assert_param(IS_TIM_LIST3_PERIPH(TIMx)); 
 530:common/stm32f10x_tim.c ****   assert_param(IS_TIM_OC_MODE(TIM_OCInitStruct->TIM_OCMode));
 531:common/stm32f10x_tim.c ****   assert_param(IS_TIM_OUTPUT_STATE(TIM_OCInitStruct->TIM_OutputState));
 532:common/stm32f10x_tim.c ****   assert_param(IS_TIM_OC_POLARITY(TIM_OCInitStruct->TIM_OCPolarity));   
 533:common/stm32f10x_tim.c ****   /* Disable the Channel 2: Reset the CC4E Bit */
 534:common/stm32f10x_tim.c ****   TIMx->CCER &= (uint16_t)(~((uint16_t)TIM_CCER_CC4E));
 1085              		.loc 1 534 0
 1086 066e 7B68     		ldr	r3, [r7, #4]
 1087 0670 1B8C     		ldrh	r3, [r3, #32]	@ movhi
 1088 0672 9BB2     		uxth	r3, r3
 1089 0674 23F48053 		bic	r3, r3, #4096
 1090 0678 9AB2     		uxth	r2, r3
 1091 067a 7B68     		ldr	r3, [r7, #4]
 1092 067c 1A84     		strh	r2, [r3, #32]	@ movhi
 535:common/stm32f10x_tim.c ****   
 536:common/stm32f10x_tim.c ****   /* Get the TIMx CCER register value */
 537:common/stm32f10x_tim.c ****   tmpccer = TIMx->CCER;
 1093              		.loc 1 537 0
 1094 067e 7B68     		ldr	r3, [r7, #4]
 1095 0680 1B8C     		ldrh	r3, [r3, #32]	@ movhi
 1096 0682 7B81     		strh	r3, [r7, #10]	@ movhi
 538:common/stm32f10x_tim.c ****   /* Get the TIMx CR2 register value */
 539:common/stm32f10x_tim.c ****   tmpcr2 =  TIMx->CR2;
 1097              		.loc 1 539 0
 1098 0684 7B68     		ldr	r3, [r7, #4]
 1099 0686 9B88     		ldrh	r3, [r3, #4]	@ movhi
 1100 0688 FB81     		strh	r3, [r7, #14]	@ movhi
 540:common/stm32f10x_tim.c ****   
 541:common/stm32f10x_tim.c ****   /* Get the TIMx CCMR2 register value */
 542:common/stm32f10x_tim.c ****   tmpccmrx = TIMx->CCMR2;
 1101              		.loc 1 542 0
 1102 068a 7B68     		ldr	r3, [r7, #4]
 1103 068c 9B8B     		ldrh	r3, [r3, #28]	@ movhi
 1104 068e BB81     		strh	r3, [r7, #12]	@ movhi
 543:common/stm32f10x_tim.c ****     
 544:common/stm32f10x_tim.c ****   /* Reset the Output Compare mode and Capture/Compare selection Bits */
 545:common/stm32f10x_tim.c ****   tmpccmrx &= (uint16_t)(~((uint16_t)TIM_CCMR2_OC4M));
 1105              		.loc 1 545 0
 1106 0690 BB89     		ldrh	r3, [r7, #12]	@ movhi
 1107 0692 23F4E043 		bic	r3, r3, #28672
 1108 0696 BB81     		strh	r3, [r7, #12]	@ movhi
 546:common/stm32f10x_tim.c ****   tmpccmrx &= (uint16_t)(~((uint16_t)TIM_CCMR2_CC4S));
 1109              		.loc 1 546 0
 1110 0698 BB89     		ldrh	r3, [r7, #12]	@ movhi
 1111 069a 23F44073 		bic	r3, r3, #768
 1112 069e BB81     		strh	r3, [r7, #12]	@ movhi
 547:common/stm32f10x_tim.c ****   
 548:common/stm32f10x_tim.c ****   /* Select the Output Compare Mode */
 549:common/stm32f10x_tim.c ****   tmpccmrx |= (uint16_t)(TIM_OCInitStruct->TIM_OCMode << 8);
 1113              		.loc 1 549 0
ARM GAS  /tmp/ccRayNMu.s 			page 31


 1114 06a0 3B68     		ldr	r3, [r7]
 1115 06a2 1B88     		ldrh	r3, [r3]
 1116 06a4 1B02     		lsls	r3, r3, #8
 1117 06a6 9AB2     		uxth	r2, r3
 1118 06a8 BB89     		ldrh	r3, [r7, #12]	@ movhi
 1119 06aa 1343     		orrs	r3, r3, r2
 1120 06ac BB81     		strh	r3, [r7, #12]	@ movhi
 550:common/stm32f10x_tim.c ****   
 551:common/stm32f10x_tim.c ****   /* Reset the Output Polarity level */
 552:common/stm32f10x_tim.c ****   tmpccer &= (uint16_t)(~((uint16_t)TIM_CCER_CC4P));
 1121              		.loc 1 552 0
 1122 06ae 7B89     		ldrh	r3, [r7, #10]	@ movhi
 1123 06b0 23F40053 		bic	r3, r3, #8192
 1124 06b4 7B81     		strh	r3, [r7, #10]	@ movhi
 553:common/stm32f10x_tim.c ****   /* Set the Output Compare Polarity */
 554:common/stm32f10x_tim.c ****   tmpccer |= (uint16_t)(TIM_OCInitStruct->TIM_OCPolarity << 12);
 1125              		.loc 1 554 0
 1126 06b6 3B68     		ldr	r3, [r7]
 1127 06b8 1B89     		ldrh	r3, [r3, #8]
 1128 06ba 1B03     		lsls	r3, r3, #12
 1129 06bc 9AB2     		uxth	r2, r3
 1130 06be 7B89     		ldrh	r3, [r7, #10]	@ movhi
 1131 06c0 1343     		orrs	r3, r3, r2
 1132 06c2 7B81     		strh	r3, [r7, #10]	@ movhi
 555:common/stm32f10x_tim.c ****   
 556:common/stm32f10x_tim.c ****   /* Set the Output State */
 557:common/stm32f10x_tim.c ****   tmpccer |= (uint16_t)(TIM_OCInitStruct->TIM_OutputState << 12);
 1133              		.loc 1 557 0
 1134 06c4 3B68     		ldr	r3, [r7]
 1135 06c6 5B88     		ldrh	r3, [r3, #2]
 1136 06c8 1B03     		lsls	r3, r3, #12
 1137 06ca 9AB2     		uxth	r2, r3
 1138 06cc 7B89     		ldrh	r3, [r7, #10]	@ movhi
 1139 06ce 1343     		orrs	r3, r3, r2
 1140 06d0 7B81     		strh	r3, [r7, #10]	@ movhi
 558:common/stm32f10x_tim.c ****     
 559:common/stm32f10x_tim.c ****   if((TIMx == TIM1) || (TIMx == TIM8))
 1141              		.loc 1 559 0
 1142 06d2 7B68     		ldr	r3, [r7, #4]
 1143 06d4 124A     		ldr	r2, .L48
 1144 06d6 9342     		cmp	r3, r2
 1145 06d8 03D0     		beq	.L46
 1146              		.loc 1 559 0 is_stmt 0 discriminator 1
 1147 06da 7B68     		ldr	r3, [r7, #4]
 1148 06dc 114A     		ldr	r2, .L48+4
 1149 06de 9342     		cmp	r3, r2
 1150 06e0 0AD1     		bne	.L47
 1151              	.L46:
 560:common/stm32f10x_tim.c ****   {
 561:common/stm32f10x_tim.c ****     assert_param(IS_TIM_OCIDLE_STATE(TIM_OCInitStruct->TIM_OCIdleState));
 562:common/stm32f10x_tim.c ****     /* Reset the Output Compare IDLE State */
 563:common/stm32f10x_tim.c ****     tmpcr2 &= (uint16_t)(~((uint16_t)TIM_CR2_OIS4));
 1152              		.loc 1 563 0 is_stmt 1
 1153 06e2 FB89     		ldrh	r3, [r7, #14]	@ movhi
 1154 06e4 23F48043 		bic	r3, r3, #16384
 1155 06e8 FB81     		strh	r3, [r7, #14]	@ movhi
 564:common/stm32f10x_tim.c ****     /* Set the Output Idle state */
ARM GAS  /tmp/ccRayNMu.s 			page 32


 565:common/stm32f10x_tim.c ****     tmpcr2 |= (uint16_t)(TIM_OCInitStruct->TIM_OCIdleState << 6);
 1156              		.loc 1 565 0
 1157 06ea 3B68     		ldr	r3, [r7]
 1158 06ec 9B89     		ldrh	r3, [r3, #12]
 1159 06ee 9B01     		lsls	r3, r3, #6
 1160 06f0 9AB2     		uxth	r2, r3
 1161 06f2 FB89     		ldrh	r3, [r7, #14]	@ movhi
 1162 06f4 1343     		orrs	r3, r3, r2
 1163 06f6 FB81     		strh	r3, [r7, #14]	@ movhi
 1164              	.L47:
 566:common/stm32f10x_tim.c ****   }
 567:common/stm32f10x_tim.c ****   /* Write to TIMx CR2 */
 568:common/stm32f10x_tim.c ****   TIMx->CR2 = tmpcr2;
 1165              		.loc 1 568 0
 1166 06f8 7B68     		ldr	r3, [r7, #4]
 1167 06fa FA89     		ldrh	r2, [r7, #14]	@ movhi
 1168 06fc 9A80     		strh	r2, [r3, #4]	@ movhi
 569:common/stm32f10x_tim.c ****   
 570:common/stm32f10x_tim.c ****   /* Write to TIMx CCMR2 */  
 571:common/stm32f10x_tim.c ****   TIMx->CCMR2 = tmpccmrx;
 1169              		.loc 1 571 0
 1170 06fe 7B68     		ldr	r3, [r7, #4]
 1171 0700 BA89     		ldrh	r2, [r7, #12]	@ movhi
 1172 0702 9A83     		strh	r2, [r3, #28]	@ movhi
 572:common/stm32f10x_tim.c **** 
 573:common/stm32f10x_tim.c ****   /* Set the Capture Compare Register value */
 574:common/stm32f10x_tim.c ****   TIMx->CCR4 = TIM_OCInitStruct->TIM_Pulse;
 1173              		.loc 1 574 0
 1174 0704 3B68     		ldr	r3, [r7]
 1175 0706 DA88     		ldrh	r2, [r3, #6]
 1176 0708 7B68     		ldr	r3, [r7, #4]
 1177 070a A3F84020 		strh	r2, [r3, #64]	@ movhi
 575:common/stm32f10x_tim.c ****   
 576:common/stm32f10x_tim.c ****   /* Write to TIMx CCER */
 577:common/stm32f10x_tim.c ****   TIMx->CCER = tmpccer;
 1178              		.loc 1 577 0
 1179 070e 7B68     		ldr	r3, [r7, #4]
 1180 0710 7A89     		ldrh	r2, [r7, #10]	@ movhi
 1181 0712 1A84     		strh	r2, [r3, #32]	@ movhi
 578:common/stm32f10x_tim.c **** }
 1182              		.loc 1 578 0
 1183 0714 00BF     		nop
 1184 0716 1437     		adds	r7, r7, #20
 1185              		.cfi_def_cfa_offset 4
 1186 0718 BD46     		mov	sp, r7
 1187              		.cfi_def_cfa_register 13
 1188              		@ sp needed
 1189 071a 80BC     		pop	{r7}
 1190              		.cfi_restore 7
 1191              		.cfi_def_cfa_offset 0
 1192 071c 7047     		bx	lr
 1193              	.L49:
 1194 071e 00BF     		.align	2
 1195              	.L48:
 1196 0720 002C0140 		.word	1073818624
 1197 0724 00340140 		.word	1073820672
 1198              		.cfi_endproc
ARM GAS  /tmp/ccRayNMu.s 			page 33


 1199              	.LFE68:
 1200              		.size	TIM_OC4Init, .-TIM_OC4Init
 1201              		.align	1
 1202              		.global	TIM_ICInit
 1203              		.syntax unified
 1204              		.thumb
 1205              		.thumb_func
 1206              		.fpu softvfp
 1207              		.type	TIM_ICInit, %function
 1208              	TIM_ICInit:
 1209              	.LFB69:
 579:common/stm32f10x_tim.c **** 
 580:common/stm32f10x_tim.c **** /**
 581:common/stm32f10x_tim.c ****   * @brief  Initializes the TIM peripheral according to the specified
 582:common/stm32f10x_tim.c ****   *         parameters in the TIM_ICInitStruct.
 583:common/stm32f10x_tim.c ****   * @param  TIMx: where x can be  1 to 17 except 6 and 7 to select the TIM peripheral.
 584:common/stm32f10x_tim.c ****   * @param  TIM_ICInitStruct: pointer to a TIM_ICInitTypeDef structure
 585:common/stm32f10x_tim.c ****   *         that contains the configuration information for the specified TIM peripheral.
 586:common/stm32f10x_tim.c ****   * @retval None
 587:common/stm32f10x_tim.c ****   */
 588:common/stm32f10x_tim.c **** void TIM_ICInit(TIM_TypeDef* TIMx, TIM_ICInitTypeDef* TIM_ICInitStruct)
 589:common/stm32f10x_tim.c **** {
 1210              		.loc 1 589 0
 1211              		.cfi_startproc
 1212              		@ args = 0, pretend = 0, frame = 8
 1213              		@ frame_needed = 1, uses_anonymous_args = 0
 1214 0728 80B5     		push	{r7, lr}
 1215              		.cfi_def_cfa_offset 8
 1216              		.cfi_offset 7, -8
 1217              		.cfi_offset 14, -4
 1218 072a 82B0     		sub	sp, sp, #8
 1219              		.cfi_def_cfa_offset 16
 1220 072c 00AF     		add	r7, sp, #0
 1221              		.cfi_def_cfa_register 7
 1222 072e 7860     		str	r0, [r7, #4]
 1223 0730 3960     		str	r1, [r7]
 590:common/stm32f10x_tim.c ****   /* Check the parameters */
 591:common/stm32f10x_tim.c ****   assert_param(IS_TIM_CHANNEL(TIM_ICInitStruct->TIM_Channel));  
 592:common/stm32f10x_tim.c ****   assert_param(IS_TIM_IC_SELECTION(TIM_ICInitStruct->TIM_ICSelection));
 593:common/stm32f10x_tim.c ****   assert_param(IS_TIM_IC_PRESCALER(TIM_ICInitStruct->TIM_ICPrescaler));
 594:common/stm32f10x_tim.c ****   assert_param(IS_TIM_IC_FILTER(TIM_ICInitStruct->TIM_ICFilter));
 595:common/stm32f10x_tim.c ****   
 596:common/stm32f10x_tim.c ****   if((TIMx == TIM1) || (TIMx == TIM8) || (TIMx == TIM2) || (TIMx == TIM3) ||
 597:common/stm32f10x_tim.c ****      (TIMx == TIM4) ||(TIMx == TIM5))
 598:common/stm32f10x_tim.c ****   {
 599:common/stm32f10x_tim.c ****     assert_param(IS_TIM_IC_POLARITY(TIM_ICInitStruct->TIM_ICPolarity));
 600:common/stm32f10x_tim.c ****   }
 601:common/stm32f10x_tim.c ****   else
 602:common/stm32f10x_tim.c ****   {
 603:common/stm32f10x_tim.c ****     assert_param(IS_TIM_IC_POLARITY_LITE(TIM_ICInitStruct->TIM_ICPolarity));
 604:common/stm32f10x_tim.c ****   }
 605:common/stm32f10x_tim.c ****   if (TIM_ICInitStruct->TIM_Channel == TIM_Channel_1)
 1224              		.loc 1 605 0
 1225 0732 3B68     		ldr	r3, [r7]
 1226 0734 1B88     		ldrh	r3, [r3]
 1227 0736 002B     		cmp	r3, #0
 1228 0738 0FD1     		bne	.L51
ARM GAS  /tmp/ccRayNMu.s 			page 34


 606:common/stm32f10x_tim.c ****   {
 607:common/stm32f10x_tim.c ****     assert_param(IS_TIM_LIST8_PERIPH(TIMx));
 608:common/stm32f10x_tim.c ****     /* TI1 Configuration */
 609:common/stm32f10x_tim.c ****     TI1_Config(TIMx, TIM_ICInitStruct->TIM_ICPolarity,
 1229              		.loc 1 609 0
 1230 073a 3B68     		ldr	r3, [r7]
 1231 073c 5988     		ldrh	r1, [r3, #2]
 1232 073e 3B68     		ldr	r3, [r7]
 1233 0740 9A88     		ldrh	r2, [r3, #4]
 1234 0742 3B68     		ldr	r3, [r7]
 1235 0744 1B89     		ldrh	r3, [r3, #8]
 1236 0746 7868     		ldr	r0, [r7, #4]
 1237 0748 01F045F9 		bl	TI1_Config
 610:common/stm32f10x_tim.c ****                TIM_ICInitStruct->TIM_ICSelection,
 611:common/stm32f10x_tim.c ****                TIM_ICInitStruct->TIM_ICFilter);
 612:common/stm32f10x_tim.c ****     /* Set the Input Capture Prescaler value */
 613:common/stm32f10x_tim.c ****     TIM_SetIC1Prescaler(TIMx, TIM_ICInitStruct->TIM_ICPrescaler);
 1238              		.loc 1 613 0
 1239 074c 3B68     		ldr	r3, [r7]
 1240 074e DB88     		ldrh	r3, [r3, #6]
 1241 0750 1946     		mov	r1, r3
 1242 0752 7868     		ldr	r0, [r7, #4]
 1243 0754 FFF7FEFF 		bl	TIM_SetIC1Prescaler
 614:common/stm32f10x_tim.c ****   }
 615:common/stm32f10x_tim.c ****   else if (TIM_ICInitStruct->TIM_Channel == TIM_Channel_2)
 616:common/stm32f10x_tim.c ****   {
 617:common/stm32f10x_tim.c ****     assert_param(IS_TIM_LIST6_PERIPH(TIMx));
 618:common/stm32f10x_tim.c ****     /* TI2 Configuration */
 619:common/stm32f10x_tim.c ****     TI2_Config(TIMx, TIM_ICInitStruct->TIM_ICPolarity,
 620:common/stm32f10x_tim.c ****                TIM_ICInitStruct->TIM_ICSelection,
 621:common/stm32f10x_tim.c ****                TIM_ICInitStruct->TIM_ICFilter);
 622:common/stm32f10x_tim.c ****     /* Set the Input Capture Prescaler value */
 623:common/stm32f10x_tim.c ****     TIM_SetIC2Prescaler(TIMx, TIM_ICInitStruct->TIM_ICPrescaler);
 624:common/stm32f10x_tim.c ****   }
 625:common/stm32f10x_tim.c ****   else if (TIM_ICInitStruct->TIM_Channel == TIM_Channel_3)
 626:common/stm32f10x_tim.c ****   {
 627:common/stm32f10x_tim.c ****     assert_param(IS_TIM_LIST3_PERIPH(TIMx));
 628:common/stm32f10x_tim.c ****     /* TI3 Configuration */
 629:common/stm32f10x_tim.c ****     TI3_Config(TIMx,  TIM_ICInitStruct->TIM_ICPolarity,
 630:common/stm32f10x_tim.c ****                TIM_ICInitStruct->TIM_ICSelection,
 631:common/stm32f10x_tim.c ****                TIM_ICInitStruct->TIM_ICFilter);
 632:common/stm32f10x_tim.c ****     /* Set the Input Capture Prescaler value */
 633:common/stm32f10x_tim.c ****     TIM_SetIC3Prescaler(TIMx, TIM_ICInitStruct->TIM_ICPrescaler);
 634:common/stm32f10x_tim.c ****   }
 635:common/stm32f10x_tim.c ****   else
 636:common/stm32f10x_tim.c ****   {
 637:common/stm32f10x_tim.c ****     assert_param(IS_TIM_LIST3_PERIPH(TIMx));
 638:common/stm32f10x_tim.c ****     /* TI4 Configuration */
 639:common/stm32f10x_tim.c ****     TI4_Config(TIMx, TIM_ICInitStruct->TIM_ICPolarity,
 640:common/stm32f10x_tim.c ****                TIM_ICInitStruct->TIM_ICSelection,
 641:common/stm32f10x_tim.c ****                TIM_ICInitStruct->TIM_ICFilter);
 642:common/stm32f10x_tim.c ****     /* Set the Input Capture Prescaler value */
 643:common/stm32f10x_tim.c ****     TIM_SetIC4Prescaler(TIMx, TIM_ICInitStruct->TIM_ICPrescaler);
 644:common/stm32f10x_tim.c ****   }
 645:common/stm32f10x_tim.c **** }
 1244              		.loc 1 645 0
 1245 0758 36E0     		b	.L55
ARM GAS  /tmp/ccRayNMu.s 			page 35


 1246              	.L51:
 615:common/stm32f10x_tim.c ****   {
 1247              		.loc 1 615 0
 1248 075a 3B68     		ldr	r3, [r7]
 1249 075c 1B88     		ldrh	r3, [r3]
 1250 075e 042B     		cmp	r3, #4
 1251 0760 0FD1     		bne	.L53
 619:common/stm32f10x_tim.c ****                TIM_ICInitStruct->TIM_ICSelection,
 1252              		.loc 1 619 0
 1253 0762 3B68     		ldr	r3, [r7]
 1254 0764 5988     		ldrh	r1, [r3, #2]
 1255 0766 3B68     		ldr	r3, [r7]
 1256 0768 9A88     		ldrh	r2, [r3, #4]
 1257 076a 3B68     		ldr	r3, [r7]
 1258 076c 1B89     		ldrh	r3, [r3, #8]
 1259 076e 7868     		ldr	r0, [r7, #4]
 1260 0770 01F0A2F9 		bl	TI2_Config
 623:common/stm32f10x_tim.c ****   }
 1261              		.loc 1 623 0
 1262 0774 3B68     		ldr	r3, [r7]
 1263 0776 DB88     		ldrh	r3, [r3, #6]
 1264 0778 1946     		mov	r1, r3
 1265 077a 7868     		ldr	r0, [r7, #4]
 1266 077c FFF7FEFF 		bl	TIM_SetIC2Prescaler
 1267              		.loc 1 645 0
 1268 0780 22E0     		b	.L55
 1269              	.L53:
 625:common/stm32f10x_tim.c ****   {
 1270              		.loc 1 625 0
 1271 0782 3B68     		ldr	r3, [r7]
 1272 0784 1B88     		ldrh	r3, [r3]
 1273 0786 082B     		cmp	r3, #8
 1274 0788 0FD1     		bne	.L54
 629:common/stm32f10x_tim.c ****                TIM_ICInitStruct->TIM_ICSelection,
 1275              		.loc 1 629 0
 1276 078a 3B68     		ldr	r3, [r7]
 1277 078c 5988     		ldrh	r1, [r3, #2]
 1278 078e 3B68     		ldr	r3, [r7]
 1279 0790 9A88     		ldrh	r2, [r3, #4]
 1280 0792 3B68     		ldr	r3, [r7]
 1281 0794 1B89     		ldrh	r3, [r3, #8]
 1282 0796 7868     		ldr	r0, [r7, #4]
 1283 0798 01F008FA 		bl	TI3_Config
 633:common/stm32f10x_tim.c ****   }
 1284              		.loc 1 633 0
 1285 079c 3B68     		ldr	r3, [r7]
 1286 079e DB88     		ldrh	r3, [r3, #6]
 1287 07a0 1946     		mov	r1, r3
 1288 07a2 7868     		ldr	r0, [r7, #4]
 1289 07a4 FFF7FEFF 		bl	TIM_SetIC3Prescaler
 1290              		.loc 1 645 0
 1291 07a8 0EE0     		b	.L55
 1292              	.L54:
 639:common/stm32f10x_tim.c ****                TIM_ICInitStruct->TIM_ICSelection,
 1293              		.loc 1 639 0
 1294 07aa 3B68     		ldr	r3, [r7]
 1295 07ac 5988     		ldrh	r1, [r3, #2]
ARM GAS  /tmp/ccRayNMu.s 			page 36


 1296 07ae 3B68     		ldr	r3, [r7]
 1297 07b0 9A88     		ldrh	r2, [r3, #4]
 1298 07b2 3B68     		ldr	r3, [r7]
 1299 07b4 1B89     		ldrh	r3, [r3, #8]
 1300 07b6 7868     		ldr	r0, [r7, #4]
 1301 07b8 01F06EFA 		bl	TI4_Config
 643:common/stm32f10x_tim.c ****   }
 1302              		.loc 1 643 0
 1303 07bc 3B68     		ldr	r3, [r7]
 1304 07be DB88     		ldrh	r3, [r3, #6]
 1305 07c0 1946     		mov	r1, r3
 1306 07c2 7868     		ldr	r0, [r7, #4]
 1307 07c4 FFF7FEFF 		bl	TIM_SetIC4Prescaler
 1308              	.L55:
 1309              		.loc 1 645 0
 1310 07c8 00BF     		nop
 1311 07ca 0837     		adds	r7, r7, #8
 1312              		.cfi_def_cfa_offset 8
 1313 07cc BD46     		mov	sp, r7
 1314              		.cfi_def_cfa_register 13
 1315              		@ sp needed
 1316 07ce 80BD     		pop	{r7, pc}
 1317              		.cfi_endproc
 1318              	.LFE69:
 1319              		.size	TIM_ICInit, .-TIM_ICInit
 1320              		.align	1
 1321              		.global	TIM_PWMIConfig
 1322              		.syntax unified
 1323              		.thumb
 1324              		.thumb_func
 1325              		.fpu softvfp
 1326              		.type	TIM_PWMIConfig, %function
 1327              	TIM_PWMIConfig:
 1328              	.LFB70:
 646:common/stm32f10x_tim.c **** 
 647:common/stm32f10x_tim.c **** /**
 648:common/stm32f10x_tim.c ****   * @brief  Configures the TIM peripheral according to the specified
 649:common/stm32f10x_tim.c ****   *         parameters in the TIM_ICInitStruct to measure an external PWM signal.
 650:common/stm32f10x_tim.c ****   * @param  TIMx: where x can be  1, 2, 3, 4, 5, 8, 9, 12 or 15 to select the TIM peripheral.
 651:common/stm32f10x_tim.c ****   * @param  TIM_ICInitStruct: pointer to a TIM_ICInitTypeDef structure
 652:common/stm32f10x_tim.c ****   *         that contains the configuration information for the specified TIM peripheral.
 653:common/stm32f10x_tim.c ****   * @retval None
 654:common/stm32f10x_tim.c ****   */
 655:common/stm32f10x_tim.c **** void TIM_PWMIConfig(TIM_TypeDef* TIMx, TIM_ICInitTypeDef* TIM_ICInitStruct)
 656:common/stm32f10x_tim.c **** {
 1329              		.loc 1 656 0
 1330              		.cfi_startproc
 1331              		@ args = 0, pretend = 0, frame = 16
 1332              		@ frame_needed = 1, uses_anonymous_args = 0
 1333 07d0 80B5     		push	{r7, lr}
 1334              		.cfi_def_cfa_offset 8
 1335              		.cfi_offset 7, -8
 1336              		.cfi_offset 14, -4
 1337 07d2 84B0     		sub	sp, sp, #16
 1338              		.cfi_def_cfa_offset 24
 1339 07d4 00AF     		add	r7, sp, #0
 1340              		.cfi_def_cfa_register 7
ARM GAS  /tmp/ccRayNMu.s 			page 37


 1341 07d6 7860     		str	r0, [r7, #4]
 1342 07d8 3960     		str	r1, [r7]
 657:common/stm32f10x_tim.c ****   uint16_t icoppositepolarity = TIM_ICPolarity_Rising;
 1343              		.loc 1 657 0
 1344 07da 0023     		movs	r3, #0
 1345 07dc FB81     		strh	r3, [r7, #14]	@ movhi
 658:common/stm32f10x_tim.c ****   uint16_t icoppositeselection = TIM_ICSelection_DirectTI;
 1346              		.loc 1 658 0
 1347 07de 0123     		movs	r3, #1
 1348 07e0 BB81     		strh	r3, [r7, #12]	@ movhi
 659:common/stm32f10x_tim.c ****   /* Check the parameters */
 660:common/stm32f10x_tim.c ****   assert_param(IS_TIM_LIST6_PERIPH(TIMx));
 661:common/stm32f10x_tim.c ****   /* Select the Opposite Input Polarity */
 662:common/stm32f10x_tim.c ****   if (TIM_ICInitStruct->TIM_ICPolarity == TIM_ICPolarity_Rising)
 1349              		.loc 1 662 0
 1350 07e2 3B68     		ldr	r3, [r7]
 1351 07e4 5B88     		ldrh	r3, [r3, #2]
 1352 07e6 002B     		cmp	r3, #0
 1353 07e8 02D1     		bne	.L57
 663:common/stm32f10x_tim.c ****   {
 664:common/stm32f10x_tim.c ****     icoppositepolarity = TIM_ICPolarity_Falling;
 1354              		.loc 1 664 0
 1355 07ea 0223     		movs	r3, #2
 1356 07ec FB81     		strh	r3, [r7, #14]	@ movhi
 1357 07ee 01E0     		b	.L58
 1358              	.L57:
 665:common/stm32f10x_tim.c ****   }
 666:common/stm32f10x_tim.c ****   else
 667:common/stm32f10x_tim.c ****   {
 668:common/stm32f10x_tim.c ****     icoppositepolarity = TIM_ICPolarity_Rising;
 1359              		.loc 1 668 0
 1360 07f0 0023     		movs	r3, #0
 1361 07f2 FB81     		strh	r3, [r7, #14]	@ movhi
 1362              	.L58:
 669:common/stm32f10x_tim.c ****   }
 670:common/stm32f10x_tim.c ****   /* Select the Opposite Input */
 671:common/stm32f10x_tim.c ****   if (TIM_ICInitStruct->TIM_ICSelection == TIM_ICSelection_DirectTI)
 1363              		.loc 1 671 0
 1364 07f4 3B68     		ldr	r3, [r7]
 1365 07f6 9B88     		ldrh	r3, [r3, #4]
 1366 07f8 012B     		cmp	r3, #1
 1367 07fa 02D1     		bne	.L59
 672:common/stm32f10x_tim.c ****   {
 673:common/stm32f10x_tim.c ****     icoppositeselection = TIM_ICSelection_IndirectTI;
 1368              		.loc 1 673 0
 1369 07fc 0223     		movs	r3, #2
 1370 07fe BB81     		strh	r3, [r7, #12]	@ movhi
 1371 0800 01E0     		b	.L60
 1372              	.L59:
 674:common/stm32f10x_tim.c ****   }
 675:common/stm32f10x_tim.c ****   else
 676:common/stm32f10x_tim.c ****   {
 677:common/stm32f10x_tim.c ****     icoppositeselection = TIM_ICSelection_DirectTI;
 1373              		.loc 1 677 0
 1374 0802 0123     		movs	r3, #1
 1375 0804 BB81     		strh	r3, [r7, #12]	@ movhi
 1376              	.L60:
ARM GAS  /tmp/ccRayNMu.s 			page 38


 678:common/stm32f10x_tim.c ****   }
 679:common/stm32f10x_tim.c ****   if (TIM_ICInitStruct->TIM_Channel == TIM_Channel_1)
 1377              		.loc 1 679 0
 1378 0806 3B68     		ldr	r3, [r7]
 1379 0808 1B88     		ldrh	r3, [r3]
 1380 080a 002B     		cmp	r3, #0
 1381 080c 1CD1     		bne	.L61
 680:common/stm32f10x_tim.c ****   {
 681:common/stm32f10x_tim.c ****     /* TI1 Configuration */
 682:common/stm32f10x_tim.c ****     TI1_Config(TIMx, TIM_ICInitStruct->TIM_ICPolarity, TIM_ICInitStruct->TIM_ICSelection,
 1382              		.loc 1 682 0
 1383 080e 3B68     		ldr	r3, [r7]
 1384 0810 5988     		ldrh	r1, [r3, #2]
 1385 0812 3B68     		ldr	r3, [r7]
 1386 0814 9A88     		ldrh	r2, [r3, #4]
 1387 0816 3B68     		ldr	r3, [r7]
 1388 0818 1B89     		ldrh	r3, [r3, #8]
 1389 081a 7868     		ldr	r0, [r7, #4]
 1390 081c 01F0DBF8 		bl	TI1_Config
 683:common/stm32f10x_tim.c ****                TIM_ICInitStruct->TIM_ICFilter);
 684:common/stm32f10x_tim.c ****     /* Set the Input Capture Prescaler value */
 685:common/stm32f10x_tim.c ****     TIM_SetIC1Prescaler(TIMx, TIM_ICInitStruct->TIM_ICPrescaler);
 1391              		.loc 1 685 0
 1392 0820 3B68     		ldr	r3, [r7]
 1393 0822 DB88     		ldrh	r3, [r3, #6]
 1394 0824 1946     		mov	r1, r3
 1395 0826 7868     		ldr	r0, [r7, #4]
 1396 0828 FFF7FEFF 		bl	TIM_SetIC1Prescaler
 686:common/stm32f10x_tim.c ****     /* TI2 Configuration */
 687:common/stm32f10x_tim.c ****     TI2_Config(TIMx, icoppositepolarity, icoppositeselection, TIM_ICInitStruct->TIM_ICFilter);
 1397              		.loc 1 687 0
 1398 082c 3B68     		ldr	r3, [r7]
 1399 082e 1B89     		ldrh	r3, [r3, #8]
 1400 0830 BA89     		ldrh	r2, [r7, #12]
 1401 0832 F989     		ldrh	r1, [r7, #14]
 1402 0834 7868     		ldr	r0, [r7, #4]
 1403 0836 01F03FF9 		bl	TI2_Config
 688:common/stm32f10x_tim.c ****     /* Set the Input Capture Prescaler value */
 689:common/stm32f10x_tim.c ****     TIM_SetIC2Prescaler(TIMx, TIM_ICInitStruct->TIM_ICPrescaler);
 1404              		.loc 1 689 0
 1405 083a 3B68     		ldr	r3, [r7]
 1406 083c DB88     		ldrh	r3, [r3, #6]
 1407 083e 1946     		mov	r1, r3
 1408 0840 7868     		ldr	r0, [r7, #4]
 1409 0842 FFF7FEFF 		bl	TIM_SetIC2Prescaler
 690:common/stm32f10x_tim.c ****   }
 691:common/stm32f10x_tim.c ****   else
 692:common/stm32f10x_tim.c ****   { 
 693:common/stm32f10x_tim.c ****     /* TI2 Configuration */
 694:common/stm32f10x_tim.c ****     TI2_Config(TIMx, TIM_ICInitStruct->TIM_ICPolarity, TIM_ICInitStruct->TIM_ICSelection,
 695:common/stm32f10x_tim.c ****                TIM_ICInitStruct->TIM_ICFilter);
 696:common/stm32f10x_tim.c ****     /* Set the Input Capture Prescaler value */
 697:common/stm32f10x_tim.c ****     TIM_SetIC2Prescaler(TIMx, TIM_ICInitStruct->TIM_ICPrescaler);
 698:common/stm32f10x_tim.c ****     /* TI1 Configuration */
 699:common/stm32f10x_tim.c ****     TI1_Config(TIMx, icoppositepolarity, icoppositeselection, TIM_ICInitStruct->TIM_ICFilter);
 700:common/stm32f10x_tim.c ****     /* Set the Input Capture Prescaler value */
 701:common/stm32f10x_tim.c ****     TIM_SetIC1Prescaler(TIMx, TIM_ICInitStruct->TIM_ICPrescaler);
ARM GAS  /tmp/ccRayNMu.s 			page 39


 702:common/stm32f10x_tim.c ****   }
 703:common/stm32f10x_tim.c **** }
 1410              		.loc 1 703 0
 1411 0846 1BE0     		b	.L63
 1412              	.L61:
 694:common/stm32f10x_tim.c ****                TIM_ICInitStruct->TIM_ICFilter);
 1413              		.loc 1 694 0
 1414 0848 3B68     		ldr	r3, [r7]
 1415 084a 5988     		ldrh	r1, [r3, #2]
 1416 084c 3B68     		ldr	r3, [r7]
 1417 084e 9A88     		ldrh	r2, [r3, #4]
 1418 0850 3B68     		ldr	r3, [r7]
 1419 0852 1B89     		ldrh	r3, [r3, #8]
 1420 0854 7868     		ldr	r0, [r7, #4]
 1421 0856 01F02FF9 		bl	TI2_Config
 697:common/stm32f10x_tim.c ****     /* TI1 Configuration */
 1422              		.loc 1 697 0
 1423 085a 3B68     		ldr	r3, [r7]
 1424 085c DB88     		ldrh	r3, [r3, #6]
 1425 085e 1946     		mov	r1, r3
 1426 0860 7868     		ldr	r0, [r7, #4]
 1427 0862 FFF7FEFF 		bl	TIM_SetIC2Prescaler
 699:common/stm32f10x_tim.c ****     /* Set the Input Capture Prescaler value */
 1428              		.loc 1 699 0
 1429 0866 3B68     		ldr	r3, [r7]
 1430 0868 1B89     		ldrh	r3, [r3, #8]
 1431 086a BA89     		ldrh	r2, [r7, #12]
 1432 086c F989     		ldrh	r1, [r7, #14]
 1433 086e 7868     		ldr	r0, [r7, #4]
 1434 0870 01F0B1F8 		bl	TI1_Config
 701:common/stm32f10x_tim.c ****   }
 1435              		.loc 1 701 0
 1436 0874 3B68     		ldr	r3, [r7]
 1437 0876 DB88     		ldrh	r3, [r3, #6]
 1438 0878 1946     		mov	r1, r3
 1439 087a 7868     		ldr	r0, [r7, #4]
 1440 087c FFF7FEFF 		bl	TIM_SetIC1Prescaler
 1441              	.L63:
 1442              		.loc 1 703 0
 1443 0880 00BF     		nop
 1444 0882 1037     		adds	r7, r7, #16
 1445              		.cfi_def_cfa_offset 8
 1446 0884 BD46     		mov	sp, r7
 1447              		.cfi_def_cfa_register 13
 1448              		@ sp needed
 1449 0886 80BD     		pop	{r7, pc}
 1450              		.cfi_endproc
 1451              	.LFE70:
 1452              		.size	TIM_PWMIConfig, .-TIM_PWMIConfig
 1453              		.align	1
 1454              		.global	TIM_BDTRConfig
 1455              		.syntax unified
 1456              		.thumb
 1457              		.thumb_func
 1458              		.fpu softvfp
 1459              		.type	TIM_BDTRConfig, %function
 1460              	TIM_BDTRConfig:
ARM GAS  /tmp/ccRayNMu.s 			page 40


 1461              	.LFB71:
 704:common/stm32f10x_tim.c **** 
 705:common/stm32f10x_tim.c **** /**
 706:common/stm32f10x_tim.c ****   * @brief  Configures the: Break feature, dead time, Lock level, the OSSI,
 707:common/stm32f10x_tim.c ****   *         the OSSR State and the AOE(automatic output enable).
 708:common/stm32f10x_tim.c ****   * @param  TIMx: where x can be  1 or 8 to select the TIM 
 709:common/stm32f10x_tim.c ****   * @param  TIM_BDTRInitStruct: pointer to a TIM_BDTRInitTypeDef structure that
 710:common/stm32f10x_tim.c ****   *         contains the BDTR Register configuration  information for the TIM peripheral.
 711:common/stm32f10x_tim.c ****   * @retval None
 712:common/stm32f10x_tim.c ****   */
 713:common/stm32f10x_tim.c **** void TIM_BDTRConfig(TIM_TypeDef* TIMx, TIM_BDTRInitTypeDef *TIM_BDTRInitStruct)
 714:common/stm32f10x_tim.c **** {
 1462              		.loc 1 714 0
 1463              		.cfi_startproc
 1464              		@ args = 0, pretend = 0, frame = 8
 1465              		@ frame_needed = 1, uses_anonymous_args = 0
 1466              		@ link register save eliminated.
 1467 0888 80B4     		push	{r7}
 1468              		.cfi_def_cfa_offset 4
 1469              		.cfi_offset 7, -4
 1470 088a 83B0     		sub	sp, sp, #12
 1471              		.cfi_def_cfa_offset 16
 1472 088c 00AF     		add	r7, sp, #0
 1473              		.cfi_def_cfa_register 7
 1474 088e 7860     		str	r0, [r7, #4]
 1475 0890 3960     		str	r1, [r7]
 715:common/stm32f10x_tim.c ****   /* Check the parameters */
 716:common/stm32f10x_tim.c ****   assert_param(IS_TIM_LIST2_PERIPH(TIMx));
 717:common/stm32f10x_tim.c ****   assert_param(IS_TIM_OSSR_STATE(TIM_BDTRInitStruct->TIM_OSSRState));
 718:common/stm32f10x_tim.c ****   assert_param(IS_TIM_OSSI_STATE(TIM_BDTRInitStruct->TIM_OSSIState));
 719:common/stm32f10x_tim.c ****   assert_param(IS_TIM_LOCK_LEVEL(TIM_BDTRInitStruct->TIM_LOCKLevel));
 720:common/stm32f10x_tim.c ****   assert_param(IS_TIM_BREAK_STATE(TIM_BDTRInitStruct->TIM_Break));
 721:common/stm32f10x_tim.c ****   assert_param(IS_TIM_BREAK_POLARITY(TIM_BDTRInitStruct->TIM_BreakPolarity));
 722:common/stm32f10x_tim.c ****   assert_param(IS_TIM_AUTOMATIC_OUTPUT_STATE(TIM_BDTRInitStruct->TIM_AutomaticOutput));
 723:common/stm32f10x_tim.c ****   /* Set the Lock level, the Break enable Bit and the Ploarity, the OSSR State,
 724:common/stm32f10x_tim.c ****      the OSSI State, the dead time value and the Automatic Output Enable Bit */
 725:common/stm32f10x_tim.c ****   TIMx->BDTR = (uint32_t)TIM_BDTRInitStruct->TIM_OSSRState | TIM_BDTRInitStruct->TIM_OSSIState |
 1476              		.loc 1 725 0
 1477 0892 3B68     		ldr	r3, [r7]
 1478 0894 1A88     		ldrh	r2, [r3]
 1479 0896 3B68     		ldr	r3, [r7]
 1480 0898 5B88     		ldrh	r3, [r3, #2]
 1481 089a 1343     		orrs	r3, r3, r2
 1482 089c 9AB2     		uxth	r2, r3
 726:common/stm32f10x_tim.c ****              TIM_BDTRInitStruct->TIM_LOCKLevel | TIM_BDTRInitStruct->TIM_DeadTime |
 1483              		.loc 1 726 0
 1484 089e 3B68     		ldr	r3, [r7]
 1485 08a0 9B88     		ldrh	r3, [r3, #4]
 725:common/stm32f10x_tim.c ****              TIM_BDTRInitStruct->TIM_LOCKLevel | TIM_BDTRInitStruct->TIM_DeadTime |
 1486              		.loc 1 725 0
 1487 08a2 1343     		orrs	r3, r3, r2
 1488 08a4 9AB2     		uxth	r2, r3
 1489              		.loc 1 726 0
 1490 08a6 3B68     		ldr	r3, [r7]
 1491 08a8 DB88     		ldrh	r3, [r3, #6]
 725:common/stm32f10x_tim.c ****              TIM_BDTRInitStruct->TIM_LOCKLevel | TIM_BDTRInitStruct->TIM_DeadTime |
 1492              		.loc 1 725 0
ARM GAS  /tmp/ccRayNMu.s 			page 41


 1493 08aa 1343     		orrs	r3, r3, r2
 1494 08ac 9AB2     		uxth	r2, r3
 727:common/stm32f10x_tim.c ****              TIM_BDTRInitStruct->TIM_Break | TIM_BDTRInitStruct->TIM_BreakPolarity |
 1495              		.loc 1 727 0
 1496 08ae 3B68     		ldr	r3, [r7]
 1497 08b0 1B89     		ldrh	r3, [r3, #8]
 725:common/stm32f10x_tim.c ****              TIM_BDTRInitStruct->TIM_LOCKLevel | TIM_BDTRInitStruct->TIM_DeadTime |
 1498              		.loc 1 725 0
 1499 08b2 1343     		orrs	r3, r3, r2
 1500 08b4 9AB2     		uxth	r2, r3
 1501              		.loc 1 727 0
 1502 08b6 3B68     		ldr	r3, [r7]
 1503 08b8 5B89     		ldrh	r3, [r3, #10]
 725:common/stm32f10x_tim.c ****              TIM_BDTRInitStruct->TIM_LOCKLevel | TIM_BDTRInitStruct->TIM_DeadTime |
 1504              		.loc 1 725 0
 1505 08ba 1343     		orrs	r3, r3, r2
 1506 08bc 9AB2     		uxth	r2, r3
 728:common/stm32f10x_tim.c ****              TIM_BDTRInitStruct->TIM_AutomaticOutput;
 1507              		.loc 1 728 0
 1508 08be 3B68     		ldr	r3, [r7]
 1509 08c0 9B89     		ldrh	r3, [r3, #12]
 725:common/stm32f10x_tim.c ****              TIM_BDTRInitStruct->TIM_LOCKLevel | TIM_BDTRInitStruct->TIM_DeadTime |
 1510              		.loc 1 725 0
 1511 08c2 1343     		orrs	r3, r3, r2
 1512 08c4 9AB2     		uxth	r2, r3
 1513 08c6 7B68     		ldr	r3, [r7, #4]
 1514 08c8 A3F84420 		strh	r2, [r3, #68]	@ movhi
 729:common/stm32f10x_tim.c **** }
 1515              		.loc 1 729 0
 1516 08cc 00BF     		nop
 1517 08ce 0C37     		adds	r7, r7, #12
 1518              		.cfi_def_cfa_offset 4
 1519 08d0 BD46     		mov	sp, r7
 1520              		.cfi_def_cfa_register 13
 1521              		@ sp needed
 1522 08d2 80BC     		pop	{r7}
 1523              		.cfi_restore 7
 1524              		.cfi_def_cfa_offset 0
 1525 08d4 7047     		bx	lr
 1526              		.cfi_endproc
 1527              	.LFE71:
 1528              		.size	TIM_BDTRConfig, .-TIM_BDTRConfig
 1529              		.align	1
 1530              		.global	TIM_TimeBaseStructInit
 1531              		.syntax unified
 1532              		.thumb
 1533              		.thumb_func
 1534              		.fpu softvfp
 1535              		.type	TIM_TimeBaseStructInit, %function
 1536              	TIM_TimeBaseStructInit:
 1537              	.LFB72:
 730:common/stm32f10x_tim.c **** 
 731:common/stm32f10x_tim.c **** /**
 732:common/stm32f10x_tim.c ****   * @brief  Fills each TIM_TimeBaseInitStruct member with its default value.
 733:common/stm32f10x_tim.c ****   * @param  TIM_TimeBaseInitStruct : pointer to a TIM_TimeBaseInitTypeDef
 734:common/stm32f10x_tim.c ****   *         structure which will be initialized.
 735:common/stm32f10x_tim.c ****   * @retval None
ARM GAS  /tmp/ccRayNMu.s 			page 42


 736:common/stm32f10x_tim.c ****   */
 737:common/stm32f10x_tim.c **** void TIM_TimeBaseStructInit(TIM_TimeBaseInitTypeDef* TIM_TimeBaseInitStruct)
 738:common/stm32f10x_tim.c **** {
 1538              		.loc 1 738 0
 1539              		.cfi_startproc
 1540              		@ args = 0, pretend = 0, frame = 8
 1541              		@ frame_needed = 1, uses_anonymous_args = 0
 1542              		@ link register save eliminated.
 1543 08d6 80B4     		push	{r7}
 1544              		.cfi_def_cfa_offset 4
 1545              		.cfi_offset 7, -4
 1546 08d8 83B0     		sub	sp, sp, #12
 1547              		.cfi_def_cfa_offset 16
 1548 08da 00AF     		add	r7, sp, #0
 1549              		.cfi_def_cfa_register 7
 1550 08dc 7860     		str	r0, [r7, #4]
 739:common/stm32f10x_tim.c ****   /* Set the default configuration */
 740:common/stm32f10x_tim.c ****   TIM_TimeBaseInitStruct->TIM_Period = 0xFFFF;
 1551              		.loc 1 740 0
 1552 08de 7B68     		ldr	r3, [r7, #4]
 1553 08e0 4FF6FF72 		movw	r2, #65535
 1554 08e4 9A80     		strh	r2, [r3, #4]	@ movhi
 741:common/stm32f10x_tim.c ****   TIM_TimeBaseInitStruct->TIM_Prescaler = 0x0000;
 1555              		.loc 1 741 0
 1556 08e6 7B68     		ldr	r3, [r7, #4]
 1557 08e8 0022     		movs	r2, #0
 1558 08ea 1A80     		strh	r2, [r3]	@ movhi
 742:common/stm32f10x_tim.c ****   TIM_TimeBaseInitStruct->TIM_ClockDivision = TIM_CKD_DIV1;
 1559              		.loc 1 742 0
 1560 08ec 7B68     		ldr	r3, [r7, #4]
 1561 08ee 0022     		movs	r2, #0
 1562 08f0 DA80     		strh	r2, [r3, #6]	@ movhi
 743:common/stm32f10x_tim.c ****   TIM_TimeBaseInitStruct->TIM_CounterMode = TIM_CounterMode_Up;
 1563              		.loc 1 743 0
 1564 08f2 7B68     		ldr	r3, [r7, #4]
 1565 08f4 0022     		movs	r2, #0
 1566 08f6 5A80     		strh	r2, [r3, #2]	@ movhi
 744:common/stm32f10x_tim.c ****   TIM_TimeBaseInitStruct->TIM_RepetitionCounter = 0x0000;
 1567              		.loc 1 744 0
 1568 08f8 7B68     		ldr	r3, [r7, #4]
 1569 08fa 0022     		movs	r2, #0
 1570 08fc 1A72     		strb	r2, [r3, #8]
 745:common/stm32f10x_tim.c **** }
 1571              		.loc 1 745 0
 1572 08fe 00BF     		nop
 1573 0900 0C37     		adds	r7, r7, #12
 1574              		.cfi_def_cfa_offset 4
 1575 0902 BD46     		mov	sp, r7
 1576              		.cfi_def_cfa_register 13
 1577              		@ sp needed
 1578 0904 80BC     		pop	{r7}
 1579              		.cfi_restore 7
 1580              		.cfi_def_cfa_offset 0
 1581 0906 7047     		bx	lr
 1582              		.cfi_endproc
 1583              	.LFE72:
 1584              		.size	TIM_TimeBaseStructInit, .-TIM_TimeBaseStructInit
ARM GAS  /tmp/ccRayNMu.s 			page 43


 1585              		.align	1
 1586              		.global	TIM_OCStructInit
 1587              		.syntax unified
 1588              		.thumb
 1589              		.thumb_func
 1590              		.fpu softvfp
 1591              		.type	TIM_OCStructInit, %function
 1592              	TIM_OCStructInit:
 1593              	.LFB73:
 746:common/stm32f10x_tim.c **** 
 747:common/stm32f10x_tim.c **** /**
 748:common/stm32f10x_tim.c ****   * @brief  Fills each TIM_OCInitStruct member with its default value.
 749:common/stm32f10x_tim.c ****   * @param  TIM_OCInitStruct : pointer to a TIM_OCInitTypeDef structure which will
 750:common/stm32f10x_tim.c ****   *         be initialized.
 751:common/stm32f10x_tim.c ****   * @retval None
 752:common/stm32f10x_tim.c ****   */
 753:common/stm32f10x_tim.c **** void TIM_OCStructInit(TIM_OCInitTypeDef* TIM_OCInitStruct)
 754:common/stm32f10x_tim.c **** {
 1594              		.loc 1 754 0
 1595              		.cfi_startproc
 1596              		@ args = 0, pretend = 0, frame = 8
 1597              		@ frame_needed = 1, uses_anonymous_args = 0
 1598              		@ link register save eliminated.
 1599 0908 80B4     		push	{r7}
 1600              		.cfi_def_cfa_offset 4
 1601              		.cfi_offset 7, -4
 1602 090a 83B0     		sub	sp, sp, #12
 1603              		.cfi_def_cfa_offset 16
 1604 090c 00AF     		add	r7, sp, #0
 1605              		.cfi_def_cfa_register 7
 1606 090e 7860     		str	r0, [r7, #4]
 755:common/stm32f10x_tim.c ****   /* Set the default configuration */
 756:common/stm32f10x_tim.c ****   TIM_OCInitStruct->TIM_OCMode = TIM_OCMode_Timing;
 1607              		.loc 1 756 0
 1608 0910 7B68     		ldr	r3, [r7, #4]
 1609 0912 0022     		movs	r2, #0
 1610 0914 1A80     		strh	r2, [r3]	@ movhi
 757:common/stm32f10x_tim.c ****   TIM_OCInitStruct->TIM_OutputState = TIM_OutputState_Disable;
 1611              		.loc 1 757 0
 1612 0916 7B68     		ldr	r3, [r7, #4]
 1613 0918 0022     		movs	r2, #0
 1614 091a 5A80     		strh	r2, [r3, #2]	@ movhi
 758:common/stm32f10x_tim.c ****   TIM_OCInitStruct->TIM_OutputNState = TIM_OutputNState_Disable;
 1615              		.loc 1 758 0
 1616 091c 7B68     		ldr	r3, [r7, #4]
 1617 091e 0022     		movs	r2, #0
 1618 0920 9A80     		strh	r2, [r3, #4]	@ movhi
 759:common/stm32f10x_tim.c ****   TIM_OCInitStruct->TIM_Pulse = 0x0000;
 1619              		.loc 1 759 0
 1620 0922 7B68     		ldr	r3, [r7, #4]
 1621 0924 0022     		movs	r2, #0
 1622 0926 DA80     		strh	r2, [r3, #6]	@ movhi
 760:common/stm32f10x_tim.c ****   TIM_OCInitStruct->TIM_OCPolarity = TIM_OCPolarity_High;
 1623              		.loc 1 760 0
 1624 0928 7B68     		ldr	r3, [r7, #4]
 1625 092a 0022     		movs	r2, #0
 1626 092c 1A81     		strh	r2, [r3, #8]	@ movhi
ARM GAS  /tmp/ccRayNMu.s 			page 44


 761:common/stm32f10x_tim.c ****   TIM_OCInitStruct->TIM_OCNPolarity = TIM_OCPolarity_High;
 1627              		.loc 1 761 0
 1628 092e 7B68     		ldr	r3, [r7, #4]
 1629 0930 0022     		movs	r2, #0
 1630 0932 5A81     		strh	r2, [r3, #10]	@ movhi
 762:common/stm32f10x_tim.c ****   TIM_OCInitStruct->TIM_OCIdleState = TIM_OCIdleState_Reset;
 1631              		.loc 1 762 0
 1632 0934 7B68     		ldr	r3, [r7, #4]
 1633 0936 0022     		movs	r2, #0
 1634 0938 9A81     		strh	r2, [r3, #12]	@ movhi
 763:common/stm32f10x_tim.c ****   TIM_OCInitStruct->TIM_OCNIdleState = TIM_OCNIdleState_Reset;
 1635              		.loc 1 763 0
 1636 093a 7B68     		ldr	r3, [r7, #4]
 1637 093c 0022     		movs	r2, #0
 1638 093e DA81     		strh	r2, [r3, #14]	@ movhi
 764:common/stm32f10x_tim.c **** }
 1639              		.loc 1 764 0
 1640 0940 00BF     		nop
 1641 0942 0C37     		adds	r7, r7, #12
 1642              		.cfi_def_cfa_offset 4
 1643 0944 BD46     		mov	sp, r7
 1644              		.cfi_def_cfa_register 13
 1645              		@ sp needed
 1646 0946 80BC     		pop	{r7}
 1647              		.cfi_restore 7
 1648              		.cfi_def_cfa_offset 0
 1649 0948 7047     		bx	lr
 1650              		.cfi_endproc
 1651              	.LFE73:
 1652              		.size	TIM_OCStructInit, .-TIM_OCStructInit
 1653              		.align	1
 1654              		.global	TIM_ICStructInit
 1655              		.syntax unified
 1656              		.thumb
 1657              		.thumb_func
 1658              		.fpu softvfp
 1659              		.type	TIM_ICStructInit, %function
 1660              	TIM_ICStructInit:
 1661              	.LFB74:
 765:common/stm32f10x_tim.c **** 
 766:common/stm32f10x_tim.c **** /**
 767:common/stm32f10x_tim.c ****   * @brief  Fills each TIM_ICInitStruct member with its default value.
 768:common/stm32f10x_tim.c ****   * @param  TIM_ICInitStruct: pointer to a TIM_ICInitTypeDef structure which will
 769:common/stm32f10x_tim.c ****   *         be initialized.
 770:common/stm32f10x_tim.c ****   * @retval None
 771:common/stm32f10x_tim.c ****   */
 772:common/stm32f10x_tim.c **** void TIM_ICStructInit(TIM_ICInitTypeDef* TIM_ICInitStruct)
 773:common/stm32f10x_tim.c **** {
 1662              		.loc 1 773 0
 1663              		.cfi_startproc
 1664              		@ args = 0, pretend = 0, frame = 8
 1665              		@ frame_needed = 1, uses_anonymous_args = 0
 1666              		@ link register save eliminated.
 1667 094a 80B4     		push	{r7}
 1668              		.cfi_def_cfa_offset 4
 1669              		.cfi_offset 7, -4
 1670 094c 83B0     		sub	sp, sp, #12
ARM GAS  /tmp/ccRayNMu.s 			page 45


 1671              		.cfi_def_cfa_offset 16
 1672 094e 00AF     		add	r7, sp, #0
 1673              		.cfi_def_cfa_register 7
 1674 0950 7860     		str	r0, [r7, #4]
 774:common/stm32f10x_tim.c ****   /* Set the default configuration */
 775:common/stm32f10x_tim.c ****   TIM_ICInitStruct->TIM_Channel = TIM_Channel_1;
 1675              		.loc 1 775 0
 1676 0952 7B68     		ldr	r3, [r7, #4]
 1677 0954 0022     		movs	r2, #0
 1678 0956 1A80     		strh	r2, [r3]	@ movhi
 776:common/stm32f10x_tim.c ****   TIM_ICInitStruct->TIM_ICPolarity = TIM_ICPolarity_Rising;
 1679              		.loc 1 776 0
 1680 0958 7B68     		ldr	r3, [r7, #4]
 1681 095a 0022     		movs	r2, #0
 1682 095c 5A80     		strh	r2, [r3, #2]	@ movhi
 777:common/stm32f10x_tim.c ****   TIM_ICInitStruct->TIM_ICSelection = TIM_ICSelection_DirectTI;
 1683              		.loc 1 777 0
 1684 095e 7B68     		ldr	r3, [r7, #4]
 1685 0960 0122     		movs	r2, #1
 1686 0962 9A80     		strh	r2, [r3, #4]	@ movhi
 778:common/stm32f10x_tim.c ****   TIM_ICInitStruct->TIM_ICPrescaler = TIM_ICPSC_DIV1;
 1687              		.loc 1 778 0
 1688 0964 7B68     		ldr	r3, [r7, #4]
 1689 0966 0022     		movs	r2, #0
 1690 0968 DA80     		strh	r2, [r3, #6]	@ movhi
 779:common/stm32f10x_tim.c ****   TIM_ICInitStruct->TIM_ICFilter = 0x00;
 1691              		.loc 1 779 0
 1692 096a 7B68     		ldr	r3, [r7, #4]
 1693 096c 0022     		movs	r2, #0
 1694 096e 1A81     		strh	r2, [r3, #8]	@ movhi
 780:common/stm32f10x_tim.c **** }
 1695              		.loc 1 780 0
 1696 0970 00BF     		nop
 1697 0972 0C37     		adds	r7, r7, #12
 1698              		.cfi_def_cfa_offset 4
 1699 0974 BD46     		mov	sp, r7
 1700              		.cfi_def_cfa_register 13
 1701              		@ sp needed
 1702 0976 80BC     		pop	{r7}
 1703              		.cfi_restore 7
 1704              		.cfi_def_cfa_offset 0
 1705 0978 7047     		bx	lr
 1706              		.cfi_endproc
 1707              	.LFE74:
 1708              		.size	TIM_ICStructInit, .-TIM_ICStructInit
 1709              		.align	1
 1710              		.global	TIM_BDTRStructInit
 1711              		.syntax unified
 1712              		.thumb
 1713              		.thumb_func
 1714              		.fpu softvfp
 1715              		.type	TIM_BDTRStructInit, %function
 1716              	TIM_BDTRStructInit:
 1717              	.LFB75:
 781:common/stm32f10x_tim.c **** 
 782:common/stm32f10x_tim.c **** /**
 783:common/stm32f10x_tim.c ****   * @brief  Fills each TIM_BDTRInitStruct member with its default value.
ARM GAS  /tmp/ccRayNMu.s 			page 46


 784:common/stm32f10x_tim.c ****   * @param  TIM_BDTRInitStruct: pointer to a TIM_BDTRInitTypeDef structure which
 785:common/stm32f10x_tim.c ****   *         will be initialized.
 786:common/stm32f10x_tim.c ****   * @retval None
 787:common/stm32f10x_tim.c ****   */
 788:common/stm32f10x_tim.c **** void TIM_BDTRStructInit(TIM_BDTRInitTypeDef* TIM_BDTRInitStruct)
 789:common/stm32f10x_tim.c **** {
 1718              		.loc 1 789 0
 1719              		.cfi_startproc
 1720              		@ args = 0, pretend = 0, frame = 8
 1721              		@ frame_needed = 1, uses_anonymous_args = 0
 1722              		@ link register save eliminated.
 1723 097a 80B4     		push	{r7}
 1724              		.cfi_def_cfa_offset 4
 1725              		.cfi_offset 7, -4
 1726 097c 83B0     		sub	sp, sp, #12
 1727              		.cfi_def_cfa_offset 16
 1728 097e 00AF     		add	r7, sp, #0
 1729              		.cfi_def_cfa_register 7
 1730 0980 7860     		str	r0, [r7, #4]
 790:common/stm32f10x_tim.c ****   /* Set the default configuration */
 791:common/stm32f10x_tim.c ****   TIM_BDTRInitStruct->TIM_OSSRState = TIM_OSSRState_Disable;
 1731              		.loc 1 791 0
 1732 0982 7B68     		ldr	r3, [r7, #4]
 1733 0984 0022     		movs	r2, #0
 1734 0986 1A80     		strh	r2, [r3]	@ movhi
 792:common/stm32f10x_tim.c ****   TIM_BDTRInitStruct->TIM_OSSIState = TIM_OSSIState_Disable;
 1735              		.loc 1 792 0
 1736 0988 7B68     		ldr	r3, [r7, #4]
 1737 098a 0022     		movs	r2, #0
 1738 098c 5A80     		strh	r2, [r3, #2]	@ movhi
 793:common/stm32f10x_tim.c ****   TIM_BDTRInitStruct->TIM_LOCKLevel = TIM_LOCKLevel_OFF;
 1739              		.loc 1 793 0
 1740 098e 7B68     		ldr	r3, [r7, #4]
 1741 0990 0022     		movs	r2, #0
 1742 0992 9A80     		strh	r2, [r3, #4]	@ movhi
 794:common/stm32f10x_tim.c ****   TIM_BDTRInitStruct->TIM_DeadTime = 0x00;
 1743              		.loc 1 794 0
 1744 0994 7B68     		ldr	r3, [r7, #4]
 1745 0996 0022     		movs	r2, #0
 1746 0998 DA80     		strh	r2, [r3, #6]	@ movhi
 795:common/stm32f10x_tim.c ****   TIM_BDTRInitStruct->TIM_Break = TIM_Break_Disable;
 1747              		.loc 1 795 0
 1748 099a 7B68     		ldr	r3, [r7, #4]
 1749 099c 0022     		movs	r2, #0
 1750 099e 1A81     		strh	r2, [r3, #8]	@ movhi
 796:common/stm32f10x_tim.c ****   TIM_BDTRInitStruct->TIM_BreakPolarity = TIM_BreakPolarity_Low;
 1751              		.loc 1 796 0
 1752 09a0 7B68     		ldr	r3, [r7, #4]
 1753 09a2 0022     		movs	r2, #0
 1754 09a4 5A81     		strh	r2, [r3, #10]	@ movhi
 797:common/stm32f10x_tim.c ****   TIM_BDTRInitStruct->TIM_AutomaticOutput = TIM_AutomaticOutput_Disable;
 1755              		.loc 1 797 0
 1756 09a6 7B68     		ldr	r3, [r7, #4]
 1757 09a8 0022     		movs	r2, #0
 1758 09aa 9A81     		strh	r2, [r3, #12]	@ movhi
 798:common/stm32f10x_tim.c **** }
 1759              		.loc 1 798 0
ARM GAS  /tmp/ccRayNMu.s 			page 47


 1760 09ac 00BF     		nop
 1761 09ae 0C37     		adds	r7, r7, #12
 1762              		.cfi_def_cfa_offset 4
 1763 09b0 BD46     		mov	sp, r7
 1764              		.cfi_def_cfa_register 13
 1765              		@ sp needed
 1766 09b2 80BC     		pop	{r7}
 1767              		.cfi_restore 7
 1768              		.cfi_def_cfa_offset 0
 1769 09b4 7047     		bx	lr
 1770              		.cfi_endproc
 1771              	.LFE75:
 1772              		.size	TIM_BDTRStructInit, .-TIM_BDTRStructInit
 1773              		.align	1
 1774              		.global	TIM_Cmd
 1775              		.syntax unified
 1776              		.thumb
 1777              		.thumb_func
 1778              		.fpu softvfp
 1779              		.type	TIM_Cmd, %function
 1780              	TIM_Cmd:
 1781              	.LFB76:
 799:common/stm32f10x_tim.c **** 
 800:common/stm32f10x_tim.c **** /**
 801:common/stm32f10x_tim.c ****   * @brief  Enables or disables the specified TIM peripheral.
 802:common/stm32f10x_tim.c ****   * @param  TIMx: where x can be 1 to 17 to select the TIMx peripheral.
 803:common/stm32f10x_tim.c ****   * @param  NewState: new state of the TIMx peripheral.
 804:common/stm32f10x_tim.c ****   *   This parameter can be: ENABLE or DISABLE.
 805:common/stm32f10x_tim.c ****   * @retval None
 806:common/stm32f10x_tim.c ****   */
 807:common/stm32f10x_tim.c **** void TIM_Cmd(TIM_TypeDef* TIMx, FunctionalState NewState)
 808:common/stm32f10x_tim.c **** {
 1782              		.loc 1 808 0
 1783              		.cfi_startproc
 1784              		@ args = 0, pretend = 0, frame = 8
 1785              		@ frame_needed = 1, uses_anonymous_args = 0
 1786              		@ link register save eliminated.
 1787 09b6 80B4     		push	{r7}
 1788              		.cfi_def_cfa_offset 4
 1789              		.cfi_offset 7, -4
 1790 09b8 83B0     		sub	sp, sp, #12
 1791              		.cfi_def_cfa_offset 16
 1792 09ba 00AF     		add	r7, sp, #0
 1793              		.cfi_def_cfa_register 7
 1794 09bc 7860     		str	r0, [r7, #4]
 1795 09be 0B46     		mov	r3, r1
 1796 09c0 FB70     		strb	r3, [r7, #3]
 809:common/stm32f10x_tim.c ****   /* Check the parameters */
 810:common/stm32f10x_tim.c ****   assert_param(IS_TIM_ALL_PERIPH(TIMx));
 811:common/stm32f10x_tim.c ****   assert_param(IS_FUNCTIONAL_STATE(NewState));
 812:common/stm32f10x_tim.c ****   
 813:common/stm32f10x_tim.c ****   if (NewState != DISABLE)
 1797              		.loc 1 813 0
 1798 09c2 FB78     		ldrb	r3, [r7, #3]	@ zero_extendqisi2
 1799 09c4 002B     		cmp	r3, #0
 1800 09c6 08D0     		beq	.L70
 814:common/stm32f10x_tim.c ****   {
ARM GAS  /tmp/ccRayNMu.s 			page 48


 815:common/stm32f10x_tim.c ****     /* Enable the TIM Counter */
 816:common/stm32f10x_tim.c ****     TIMx->CR1 |= TIM_CR1_CEN;
 1801              		.loc 1 816 0
 1802 09c8 7B68     		ldr	r3, [r7, #4]
 1803 09ca 1B88     		ldrh	r3, [r3]	@ movhi
 1804 09cc 9BB2     		uxth	r3, r3
 1805 09ce 43F00103 		orr	r3, r3, #1
 1806 09d2 9AB2     		uxth	r2, r3
 1807 09d4 7B68     		ldr	r3, [r7, #4]
 1808 09d6 1A80     		strh	r2, [r3]	@ movhi
 817:common/stm32f10x_tim.c ****   }
 818:common/stm32f10x_tim.c ****   else
 819:common/stm32f10x_tim.c ****   {
 820:common/stm32f10x_tim.c ****     /* Disable the TIM Counter */
 821:common/stm32f10x_tim.c ****     TIMx->CR1 &= (uint16_t)(~((uint16_t)TIM_CR1_CEN));
 822:common/stm32f10x_tim.c ****   }
 823:common/stm32f10x_tim.c **** }
 1809              		.loc 1 823 0
 1810 09d8 07E0     		b	.L72
 1811              	.L70:
 821:common/stm32f10x_tim.c ****   }
 1812              		.loc 1 821 0
 1813 09da 7B68     		ldr	r3, [r7, #4]
 1814 09dc 1B88     		ldrh	r3, [r3]	@ movhi
 1815 09de 9BB2     		uxth	r3, r3
 1816 09e0 23F00103 		bic	r3, r3, #1
 1817 09e4 9AB2     		uxth	r2, r3
 1818 09e6 7B68     		ldr	r3, [r7, #4]
 1819 09e8 1A80     		strh	r2, [r3]	@ movhi
 1820              	.L72:
 1821              		.loc 1 823 0
 1822 09ea 00BF     		nop
 1823 09ec 0C37     		adds	r7, r7, #12
 1824              		.cfi_def_cfa_offset 4
 1825 09ee BD46     		mov	sp, r7
 1826              		.cfi_def_cfa_register 13
 1827              		@ sp needed
 1828 09f0 80BC     		pop	{r7}
 1829              		.cfi_restore 7
 1830              		.cfi_def_cfa_offset 0
 1831 09f2 7047     		bx	lr
 1832              		.cfi_endproc
 1833              	.LFE76:
 1834              		.size	TIM_Cmd, .-TIM_Cmd
 1835              		.align	1
 1836              		.global	TIM_CtrlPWMOutputs
 1837              		.syntax unified
 1838              		.thumb
 1839              		.thumb_func
 1840              		.fpu softvfp
 1841              		.type	TIM_CtrlPWMOutputs, %function
 1842              	TIM_CtrlPWMOutputs:
 1843              	.LFB77:
 824:common/stm32f10x_tim.c **** 
 825:common/stm32f10x_tim.c **** /**
 826:common/stm32f10x_tim.c ****   * @brief  Enables or disables the TIM peripheral Main Outputs.
 827:common/stm32f10x_tim.c ****   * @param  TIMx: where x can be 1, 8, 15, 16 or 17 to select the TIMx peripheral.
ARM GAS  /tmp/ccRayNMu.s 			page 49


 828:common/stm32f10x_tim.c ****   * @param  NewState: new state of the TIM peripheral Main Outputs.
 829:common/stm32f10x_tim.c ****   *   This parameter can be: ENABLE or DISABLE.
 830:common/stm32f10x_tim.c ****   * @retval None
 831:common/stm32f10x_tim.c ****   */
 832:common/stm32f10x_tim.c **** void TIM_CtrlPWMOutputs(TIM_TypeDef* TIMx, FunctionalState NewState)
 833:common/stm32f10x_tim.c **** {
 1844              		.loc 1 833 0
 1845              		.cfi_startproc
 1846              		@ args = 0, pretend = 0, frame = 8
 1847              		@ frame_needed = 1, uses_anonymous_args = 0
 1848              		@ link register save eliminated.
 1849 09f4 80B4     		push	{r7}
 1850              		.cfi_def_cfa_offset 4
 1851              		.cfi_offset 7, -4
 1852 09f6 83B0     		sub	sp, sp, #12
 1853              		.cfi_def_cfa_offset 16
 1854 09f8 00AF     		add	r7, sp, #0
 1855              		.cfi_def_cfa_register 7
 1856 09fa 7860     		str	r0, [r7, #4]
 1857 09fc 0B46     		mov	r3, r1
 1858 09fe FB70     		strb	r3, [r7, #3]
 834:common/stm32f10x_tim.c ****   /* Check the parameters */
 835:common/stm32f10x_tim.c ****   assert_param(IS_TIM_LIST2_PERIPH(TIMx));
 836:common/stm32f10x_tim.c ****   assert_param(IS_FUNCTIONAL_STATE(NewState));
 837:common/stm32f10x_tim.c ****   if (NewState != DISABLE)
 1859              		.loc 1 837 0
 1860 0a00 FB78     		ldrb	r3, [r7, #3]	@ zero_extendqisi2
 1861 0a02 002B     		cmp	r3, #0
 1862 0a04 0CD0     		beq	.L74
 838:common/stm32f10x_tim.c ****   {
 839:common/stm32f10x_tim.c ****     /* Enable the TIM Main Output */
 840:common/stm32f10x_tim.c ****     TIMx->BDTR |= TIM_BDTR_MOE;
 1863              		.loc 1 840 0
 1864 0a06 7B68     		ldr	r3, [r7, #4]
 1865 0a08 B3F84430 		ldrh	r3, [r3, #68]	@ movhi
 1866 0a0c 9BB2     		uxth	r3, r3
 1867 0a0e 6FEA4343 		mvn	r3, r3, lsl #17
 1868 0a12 6FEA5343 		mvn	r3, r3, lsr #17
 1869 0a16 9AB2     		uxth	r2, r3
 1870 0a18 7B68     		ldr	r3, [r7, #4]
 1871 0a1a A3F84420 		strh	r2, [r3, #68]	@ movhi
 841:common/stm32f10x_tim.c ****   }
 842:common/stm32f10x_tim.c ****   else
 843:common/stm32f10x_tim.c ****   {
 844:common/stm32f10x_tim.c ****     /* Disable the TIM Main Output */
 845:common/stm32f10x_tim.c ****     TIMx->BDTR &= (uint16_t)(~((uint16_t)TIM_BDTR_MOE));
 846:common/stm32f10x_tim.c ****   }  
 847:common/stm32f10x_tim.c **** }
 1872              		.loc 1 847 0
 1873 0a1e 09E0     		b	.L76
 1874              	.L74:
 845:common/stm32f10x_tim.c ****   }  
 1875              		.loc 1 845 0
 1876 0a20 7B68     		ldr	r3, [r7, #4]
 1877 0a22 B3F84430 		ldrh	r3, [r3, #68]	@ movhi
 1878 0a26 9BB2     		uxth	r3, r3
 1879 0a28 C3F30E03 		ubfx	r3, r3, #0, #15
ARM GAS  /tmp/ccRayNMu.s 			page 50


 1880 0a2c 9AB2     		uxth	r2, r3
 1881 0a2e 7B68     		ldr	r3, [r7, #4]
 1882 0a30 A3F84420 		strh	r2, [r3, #68]	@ movhi
 1883              	.L76:
 1884              		.loc 1 847 0
 1885 0a34 00BF     		nop
 1886 0a36 0C37     		adds	r7, r7, #12
 1887              		.cfi_def_cfa_offset 4
 1888 0a38 BD46     		mov	sp, r7
 1889              		.cfi_def_cfa_register 13
 1890              		@ sp needed
 1891 0a3a 80BC     		pop	{r7}
 1892              		.cfi_restore 7
 1893              		.cfi_def_cfa_offset 0
 1894 0a3c 7047     		bx	lr
 1895              		.cfi_endproc
 1896              	.LFE77:
 1897              		.size	TIM_CtrlPWMOutputs, .-TIM_CtrlPWMOutputs
 1898              		.align	1
 1899              		.global	TIM_ITConfig
 1900              		.syntax unified
 1901              		.thumb
 1902              		.thumb_func
 1903              		.fpu softvfp
 1904              		.type	TIM_ITConfig, %function
 1905              	TIM_ITConfig:
 1906              	.LFB78:
 848:common/stm32f10x_tim.c **** 
 849:common/stm32f10x_tim.c **** /**
 850:common/stm32f10x_tim.c ****   * @brief  Enables or disables the specified TIM interrupts.
 851:common/stm32f10x_tim.c ****   * @param  TIMx: where x can be 1 to 17 to select the TIMx peripheral.
 852:common/stm32f10x_tim.c ****   * @param  TIM_IT: specifies the TIM interrupts sources to be enabled or disabled.
 853:common/stm32f10x_tim.c ****   *   This parameter can be any combination of the following values:
 854:common/stm32f10x_tim.c ****   *     @arg TIM_IT_Update: TIM update Interrupt source
 855:common/stm32f10x_tim.c ****   *     @arg TIM_IT_CC1: TIM Capture Compare 1 Interrupt source
 856:common/stm32f10x_tim.c ****   *     @arg TIM_IT_CC2: TIM Capture Compare 2 Interrupt source
 857:common/stm32f10x_tim.c ****   *     @arg TIM_IT_CC3: TIM Capture Compare 3 Interrupt source
 858:common/stm32f10x_tim.c ****   *     @arg TIM_IT_CC4: TIM Capture Compare 4 Interrupt source
 859:common/stm32f10x_tim.c ****   *     @arg TIM_IT_COM: TIM Commutation Interrupt source
 860:common/stm32f10x_tim.c ****   *     @arg TIM_IT_Trigger: TIM Trigger Interrupt source
 861:common/stm32f10x_tim.c ****   *     @arg TIM_IT_Break: TIM Break Interrupt source
 862:common/stm32f10x_tim.c ****   * @note 
 863:common/stm32f10x_tim.c ****   *   - TIM6 and TIM7 can only generate an update interrupt.
 864:common/stm32f10x_tim.c ****   *   - TIM9, TIM12 and TIM15 can have only TIM_IT_Update, TIM_IT_CC1,
 865:common/stm32f10x_tim.c ****   *      TIM_IT_CC2 or TIM_IT_Trigger. 
 866:common/stm32f10x_tim.c ****   *   - TIM10, TIM11, TIM13, TIM14, TIM16 and TIM17 can have TIM_IT_Update or TIM_IT_CC1.   
 867:common/stm32f10x_tim.c ****   *   - TIM_IT_Break is used only with TIM1, TIM8 and TIM15. 
 868:common/stm32f10x_tim.c ****   *   - TIM_IT_COM is used only with TIM1, TIM8, TIM15, TIM16 and TIM17.    
 869:common/stm32f10x_tim.c ****   * @param  NewState: new state of the TIM interrupts.
 870:common/stm32f10x_tim.c ****   *   This parameter can be: ENABLE or DISABLE.
 871:common/stm32f10x_tim.c ****   * @retval None
 872:common/stm32f10x_tim.c ****   */
 873:common/stm32f10x_tim.c **** void TIM_ITConfig(TIM_TypeDef* TIMx, uint16_t TIM_IT, FunctionalState NewState)
 874:common/stm32f10x_tim.c **** {  
 1907              		.loc 1 874 0
 1908              		.cfi_startproc
 1909              		@ args = 0, pretend = 0, frame = 8
ARM GAS  /tmp/ccRayNMu.s 			page 51


 1910              		@ frame_needed = 1, uses_anonymous_args = 0
 1911              		@ link register save eliminated.
 1912 0a3e 80B4     		push	{r7}
 1913              		.cfi_def_cfa_offset 4
 1914              		.cfi_offset 7, -4
 1915 0a40 83B0     		sub	sp, sp, #12
 1916              		.cfi_def_cfa_offset 16
 1917 0a42 00AF     		add	r7, sp, #0
 1918              		.cfi_def_cfa_register 7
 1919 0a44 7860     		str	r0, [r7, #4]
 1920 0a46 0B46     		mov	r3, r1
 1921 0a48 7B80     		strh	r3, [r7, #2]	@ movhi
 1922 0a4a 1346     		mov	r3, r2
 1923 0a4c 7B70     		strb	r3, [r7, #1]
 875:common/stm32f10x_tim.c ****   /* Check the parameters */
 876:common/stm32f10x_tim.c ****   assert_param(IS_TIM_ALL_PERIPH(TIMx));
 877:common/stm32f10x_tim.c ****   assert_param(IS_TIM_IT(TIM_IT));
 878:common/stm32f10x_tim.c ****   assert_param(IS_FUNCTIONAL_STATE(NewState));
 879:common/stm32f10x_tim.c ****   
 880:common/stm32f10x_tim.c ****   if (NewState != DISABLE)
 1924              		.loc 1 880 0
 1925 0a4e 7B78     		ldrb	r3, [r7, #1]	@ zero_extendqisi2
 1926 0a50 002B     		cmp	r3, #0
 1927 0a52 08D0     		beq	.L78
 881:common/stm32f10x_tim.c ****   {
 882:common/stm32f10x_tim.c ****     /* Enable the Interrupt sources */
 883:common/stm32f10x_tim.c ****     TIMx->DIER |= TIM_IT;
 1928              		.loc 1 883 0
 1929 0a54 7B68     		ldr	r3, [r7, #4]
 1930 0a56 9B89     		ldrh	r3, [r3, #12]	@ movhi
 1931 0a58 9AB2     		uxth	r2, r3
 1932 0a5a 7B88     		ldrh	r3, [r7, #2]	@ movhi
 1933 0a5c 1343     		orrs	r3, r3, r2
 1934 0a5e 9AB2     		uxth	r2, r3
 1935 0a60 7B68     		ldr	r3, [r7, #4]
 1936 0a62 9A81     		strh	r2, [r3, #12]	@ movhi
 884:common/stm32f10x_tim.c ****   }
 885:common/stm32f10x_tim.c ****   else
 886:common/stm32f10x_tim.c ****   {
 887:common/stm32f10x_tim.c ****     /* Disable the Interrupt sources */
 888:common/stm32f10x_tim.c ****     TIMx->DIER &= (uint16_t)~TIM_IT;
 889:common/stm32f10x_tim.c ****   }
 890:common/stm32f10x_tim.c **** }
 1937              		.loc 1 890 0
 1938 0a64 09E0     		b	.L80
 1939              	.L78:
 888:common/stm32f10x_tim.c ****   }
 1940              		.loc 1 888 0
 1941 0a66 7B68     		ldr	r3, [r7, #4]
 1942 0a68 9B89     		ldrh	r3, [r3, #12]	@ movhi
 1943 0a6a 9AB2     		uxth	r2, r3
 1944 0a6c 7B88     		ldrh	r3, [r7, #2]	@ movhi
 1945 0a6e DB43     		mvns	r3, r3
 1946 0a70 9BB2     		uxth	r3, r3
 1947 0a72 1340     		ands	r3, r3, r2
 1948 0a74 9AB2     		uxth	r2, r3
 1949 0a76 7B68     		ldr	r3, [r7, #4]
ARM GAS  /tmp/ccRayNMu.s 			page 52


 1950 0a78 9A81     		strh	r2, [r3, #12]	@ movhi
 1951              	.L80:
 1952              		.loc 1 890 0
 1953 0a7a 00BF     		nop
 1954 0a7c 0C37     		adds	r7, r7, #12
 1955              		.cfi_def_cfa_offset 4
 1956 0a7e BD46     		mov	sp, r7
 1957              		.cfi_def_cfa_register 13
 1958              		@ sp needed
 1959 0a80 80BC     		pop	{r7}
 1960              		.cfi_restore 7
 1961              		.cfi_def_cfa_offset 0
 1962 0a82 7047     		bx	lr
 1963              		.cfi_endproc
 1964              	.LFE78:
 1965              		.size	TIM_ITConfig, .-TIM_ITConfig
 1966              		.align	1
 1967              		.global	TIM_GenerateEvent
 1968              		.syntax unified
 1969              		.thumb
 1970              		.thumb_func
 1971              		.fpu softvfp
 1972              		.type	TIM_GenerateEvent, %function
 1973              	TIM_GenerateEvent:
 1974              	.LFB79:
 891:common/stm32f10x_tim.c **** 
 892:common/stm32f10x_tim.c **** /**
 893:common/stm32f10x_tim.c ****   * @brief  Configures the TIMx event to be generate by software.
 894:common/stm32f10x_tim.c ****   * @param  TIMx: where x can be 1 to 17 to select the TIM peripheral.
 895:common/stm32f10x_tim.c ****   * @param  TIM_EventSource: specifies the event source.
 896:common/stm32f10x_tim.c ****   *   This parameter can be one or more of the following values:	   
 897:common/stm32f10x_tim.c ****   *     @arg TIM_EventSource_Update: Timer update Event source
 898:common/stm32f10x_tim.c ****   *     @arg TIM_EventSource_CC1: Timer Capture Compare 1 Event source
 899:common/stm32f10x_tim.c ****   *     @arg TIM_EventSource_CC2: Timer Capture Compare 2 Event source
 900:common/stm32f10x_tim.c ****   *     @arg TIM_EventSource_CC3: Timer Capture Compare 3 Event source
 901:common/stm32f10x_tim.c ****   *     @arg TIM_EventSource_CC4: Timer Capture Compare 4 Event source
 902:common/stm32f10x_tim.c ****   *     @arg TIM_EventSource_COM: Timer COM event source  
 903:common/stm32f10x_tim.c ****   *     @arg TIM_EventSource_Trigger: Timer Trigger Event source
 904:common/stm32f10x_tim.c ****   *     @arg TIM_EventSource_Break: Timer Break event source
 905:common/stm32f10x_tim.c ****   * @note 
 906:common/stm32f10x_tim.c ****   *   - TIM6 and TIM7 can only generate an update event. 
 907:common/stm32f10x_tim.c ****   *   - TIM_EventSource_COM and TIM_EventSource_Break are used only with TIM1 and TIM8.      
 908:common/stm32f10x_tim.c ****   * @retval None
 909:common/stm32f10x_tim.c ****   */
 910:common/stm32f10x_tim.c **** void TIM_GenerateEvent(TIM_TypeDef* TIMx, uint16_t TIM_EventSource)
 911:common/stm32f10x_tim.c **** { 
 1975              		.loc 1 911 0
 1976              		.cfi_startproc
 1977              		@ args = 0, pretend = 0, frame = 8
 1978              		@ frame_needed = 1, uses_anonymous_args = 0
 1979              		@ link register save eliminated.
 1980 0a84 80B4     		push	{r7}
 1981              		.cfi_def_cfa_offset 4
 1982              		.cfi_offset 7, -4
 1983 0a86 83B0     		sub	sp, sp, #12
 1984              		.cfi_def_cfa_offset 16
 1985 0a88 00AF     		add	r7, sp, #0
ARM GAS  /tmp/ccRayNMu.s 			page 53


 1986              		.cfi_def_cfa_register 7
 1987 0a8a 7860     		str	r0, [r7, #4]
 1988 0a8c 0B46     		mov	r3, r1
 1989 0a8e 7B80     		strh	r3, [r7, #2]	@ movhi
 912:common/stm32f10x_tim.c ****   /* Check the parameters */
 913:common/stm32f10x_tim.c ****   assert_param(IS_TIM_ALL_PERIPH(TIMx));
 914:common/stm32f10x_tim.c ****   assert_param(IS_TIM_EVENT_SOURCE(TIM_EventSource));
 915:common/stm32f10x_tim.c ****   
 916:common/stm32f10x_tim.c ****   /* Set the event sources */
 917:common/stm32f10x_tim.c ****   TIMx->EGR = TIM_EventSource;
 1990              		.loc 1 917 0
 1991 0a90 7B68     		ldr	r3, [r7, #4]
 1992 0a92 7A88     		ldrh	r2, [r7, #2]	@ movhi
 1993 0a94 9A82     		strh	r2, [r3, #20]	@ movhi
 918:common/stm32f10x_tim.c **** }
 1994              		.loc 1 918 0
 1995 0a96 00BF     		nop
 1996 0a98 0C37     		adds	r7, r7, #12
 1997              		.cfi_def_cfa_offset 4
 1998 0a9a BD46     		mov	sp, r7
 1999              		.cfi_def_cfa_register 13
 2000              		@ sp needed
 2001 0a9c 80BC     		pop	{r7}
 2002              		.cfi_restore 7
 2003              		.cfi_def_cfa_offset 0
 2004 0a9e 7047     		bx	lr
 2005              		.cfi_endproc
 2006              	.LFE79:
 2007              		.size	TIM_GenerateEvent, .-TIM_GenerateEvent
 2008              		.align	1
 2009              		.global	TIM_DMAConfig
 2010              		.syntax unified
 2011              		.thumb
 2012              		.thumb_func
 2013              		.fpu softvfp
 2014              		.type	TIM_DMAConfig, %function
 2015              	TIM_DMAConfig:
 2016              	.LFB80:
 919:common/stm32f10x_tim.c **** 
 920:common/stm32f10x_tim.c **** /**
 921:common/stm32f10x_tim.c ****   * @brief  Configures the TIMx's DMA interface.
 922:common/stm32f10x_tim.c ****   * @param  TIMx: where x can be  1, 2, 3, 4, 5, 8, 15, 16 or 17 to select 
 923:common/stm32f10x_tim.c ****   *   the TIM peripheral.
 924:common/stm32f10x_tim.c ****   * @param  TIM_DMABase: DMA Base address.
 925:common/stm32f10x_tim.c ****   *   This parameter can be one of the following values:
 926:common/stm32f10x_tim.c ****   *     @arg TIM_DMABase_CR, TIM_DMABase_CR2, TIM_DMABase_SMCR,
 927:common/stm32f10x_tim.c ****   *          TIM_DMABase_DIER, TIM1_DMABase_SR, TIM_DMABase_EGR,
 928:common/stm32f10x_tim.c ****   *          TIM_DMABase_CCMR1, TIM_DMABase_CCMR2, TIM_DMABase_CCER,
 929:common/stm32f10x_tim.c ****   *          TIM_DMABase_CNT, TIM_DMABase_PSC, TIM_DMABase_ARR,
 930:common/stm32f10x_tim.c ****   *          TIM_DMABase_RCR, TIM_DMABase_CCR1, TIM_DMABase_CCR2,
 931:common/stm32f10x_tim.c ****   *          TIM_DMABase_CCR3, TIM_DMABase_CCR4, TIM_DMABase_BDTR,
 932:common/stm32f10x_tim.c ****   *          TIM_DMABase_DCR.
 933:common/stm32f10x_tim.c ****   * @param  TIM_DMABurstLength: DMA Burst length.
 934:common/stm32f10x_tim.c ****   *   This parameter can be one value between:
 935:common/stm32f10x_tim.c ****   *   TIM_DMABurstLength_1Transfer and TIM_DMABurstLength_18Transfers.
 936:common/stm32f10x_tim.c ****   * @retval None
 937:common/stm32f10x_tim.c ****   */
ARM GAS  /tmp/ccRayNMu.s 			page 54


 938:common/stm32f10x_tim.c **** void TIM_DMAConfig(TIM_TypeDef* TIMx, uint16_t TIM_DMABase, uint16_t TIM_DMABurstLength)
 939:common/stm32f10x_tim.c **** {
 2017              		.loc 1 939 0
 2018              		.cfi_startproc
 2019              		@ args = 0, pretend = 0, frame = 8
 2020              		@ frame_needed = 1, uses_anonymous_args = 0
 2021              		@ link register save eliminated.
 2022 0aa0 80B4     		push	{r7}
 2023              		.cfi_def_cfa_offset 4
 2024              		.cfi_offset 7, -4
 2025 0aa2 83B0     		sub	sp, sp, #12
 2026              		.cfi_def_cfa_offset 16
 2027 0aa4 00AF     		add	r7, sp, #0
 2028              		.cfi_def_cfa_register 7
 2029 0aa6 7860     		str	r0, [r7, #4]
 2030 0aa8 0B46     		mov	r3, r1
 2031 0aaa 7B80     		strh	r3, [r7, #2]	@ movhi
 2032 0aac 1346     		mov	r3, r2	@ movhi
 2033 0aae 3B80     		strh	r3, [r7]	@ movhi
 940:common/stm32f10x_tim.c ****   /* Check the parameters */
 941:common/stm32f10x_tim.c ****   assert_param(IS_TIM_LIST4_PERIPH(TIMx));
 942:common/stm32f10x_tim.c ****   assert_param(IS_TIM_DMA_BASE(TIM_DMABase));
 943:common/stm32f10x_tim.c ****   assert_param(IS_TIM_DMA_LENGTH(TIM_DMABurstLength));
 944:common/stm32f10x_tim.c ****   /* Set the DMA Base and the DMA Burst Length */
 945:common/stm32f10x_tim.c ****   TIMx->DCR = TIM_DMABase | TIM_DMABurstLength;
 2034              		.loc 1 945 0
 2035 0ab0 7A88     		ldrh	r2, [r7, #2]	@ movhi
 2036 0ab2 3B88     		ldrh	r3, [r7]	@ movhi
 2037 0ab4 1343     		orrs	r3, r3, r2
 2038 0ab6 9AB2     		uxth	r2, r3
 2039 0ab8 7B68     		ldr	r3, [r7, #4]
 2040 0aba A3F84820 		strh	r2, [r3, #72]	@ movhi
 946:common/stm32f10x_tim.c **** }
 2041              		.loc 1 946 0
 2042 0abe 00BF     		nop
 2043 0ac0 0C37     		adds	r7, r7, #12
 2044              		.cfi_def_cfa_offset 4
 2045 0ac2 BD46     		mov	sp, r7
 2046              		.cfi_def_cfa_register 13
 2047              		@ sp needed
 2048 0ac4 80BC     		pop	{r7}
 2049              		.cfi_restore 7
 2050              		.cfi_def_cfa_offset 0
 2051 0ac6 7047     		bx	lr
 2052              		.cfi_endproc
 2053              	.LFE80:
 2054              		.size	TIM_DMAConfig, .-TIM_DMAConfig
 2055              		.align	1
 2056              		.global	TIM_DMACmd
 2057              		.syntax unified
 2058              		.thumb
 2059              		.thumb_func
 2060              		.fpu softvfp
 2061              		.type	TIM_DMACmd, %function
 2062              	TIM_DMACmd:
 2063              	.LFB81:
 947:common/stm32f10x_tim.c **** 
ARM GAS  /tmp/ccRayNMu.s 			page 55


 948:common/stm32f10x_tim.c **** /**
 949:common/stm32f10x_tim.c ****   * @brief  Enables or disables the TIMx's DMA Requests.
 950:common/stm32f10x_tim.c ****   * @param  TIMx: where x can be  1, 2, 3, 4, 5, 6, 7, 8, 15, 16 or 17 
 951:common/stm32f10x_tim.c ****   *   to select the TIM peripheral. 
 952:common/stm32f10x_tim.c ****   * @param  TIM_DMASource: specifies the DMA Request sources.
 953:common/stm32f10x_tim.c ****   *   This parameter can be any combination of the following values:
 954:common/stm32f10x_tim.c ****   *     @arg TIM_DMA_Update: TIM update Interrupt source
 955:common/stm32f10x_tim.c ****   *     @arg TIM_DMA_CC1: TIM Capture Compare 1 DMA source
 956:common/stm32f10x_tim.c ****   *     @arg TIM_DMA_CC2: TIM Capture Compare 2 DMA source
 957:common/stm32f10x_tim.c ****   *     @arg TIM_DMA_CC3: TIM Capture Compare 3 DMA source
 958:common/stm32f10x_tim.c ****   *     @arg TIM_DMA_CC4: TIM Capture Compare 4 DMA source
 959:common/stm32f10x_tim.c ****   *     @arg TIM_DMA_COM: TIM Commutation DMA source
 960:common/stm32f10x_tim.c ****   *     @arg TIM_DMA_Trigger: TIM Trigger DMA source
 961:common/stm32f10x_tim.c ****   * @param  NewState: new state of the DMA Request sources.
 962:common/stm32f10x_tim.c ****   *   This parameter can be: ENABLE or DISABLE.
 963:common/stm32f10x_tim.c ****   * @retval None
 964:common/stm32f10x_tim.c ****   */
 965:common/stm32f10x_tim.c **** void TIM_DMACmd(TIM_TypeDef* TIMx, uint16_t TIM_DMASource, FunctionalState NewState)
 966:common/stm32f10x_tim.c **** { 
 2064              		.loc 1 966 0
 2065              		.cfi_startproc
 2066              		@ args = 0, pretend = 0, frame = 8
 2067              		@ frame_needed = 1, uses_anonymous_args = 0
 2068              		@ link register save eliminated.
 2069 0ac8 80B4     		push	{r7}
 2070              		.cfi_def_cfa_offset 4
 2071              		.cfi_offset 7, -4
 2072 0aca 83B0     		sub	sp, sp, #12
 2073              		.cfi_def_cfa_offset 16
 2074 0acc 00AF     		add	r7, sp, #0
 2075              		.cfi_def_cfa_register 7
 2076 0ace 7860     		str	r0, [r7, #4]
 2077 0ad0 0B46     		mov	r3, r1
 2078 0ad2 7B80     		strh	r3, [r7, #2]	@ movhi
 2079 0ad4 1346     		mov	r3, r2
 2080 0ad6 7B70     		strb	r3, [r7, #1]
 967:common/stm32f10x_tim.c ****   /* Check the parameters */
 968:common/stm32f10x_tim.c ****   assert_param(IS_TIM_LIST9_PERIPH(TIMx));
 969:common/stm32f10x_tim.c ****   assert_param(IS_TIM_DMA_SOURCE(TIM_DMASource));
 970:common/stm32f10x_tim.c ****   assert_param(IS_FUNCTIONAL_STATE(NewState));
 971:common/stm32f10x_tim.c ****   
 972:common/stm32f10x_tim.c ****   if (NewState != DISABLE)
 2081              		.loc 1 972 0
 2082 0ad8 7B78     		ldrb	r3, [r7, #1]	@ zero_extendqisi2
 2083 0ada 002B     		cmp	r3, #0
 2084 0adc 08D0     		beq	.L84
 973:common/stm32f10x_tim.c ****   {
 974:common/stm32f10x_tim.c ****     /* Enable the DMA sources */
 975:common/stm32f10x_tim.c ****     TIMx->DIER |= TIM_DMASource; 
 2085              		.loc 1 975 0
 2086 0ade 7B68     		ldr	r3, [r7, #4]
 2087 0ae0 9B89     		ldrh	r3, [r3, #12]	@ movhi
 2088 0ae2 9AB2     		uxth	r2, r3
 2089 0ae4 7B88     		ldrh	r3, [r7, #2]	@ movhi
 2090 0ae6 1343     		orrs	r3, r3, r2
 2091 0ae8 9AB2     		uxth	r2, r3
 2092 0aea 7B68     		ldr	r3, [r7, #4]
ARM GAS  /tmp/ccRayNMu.s 			page 56


 2093 0aec 9A81     		strh	r2, [r3, #12]	@ movhi
 976:common/stm32f10x_tim.c ****   }
 977:common/stm32f10x_tim.c ****   else
 978:common/stm32f10x_tim.c ****   {
 979:common/stm32f10x_tim.c ****     /* Disable the DMA sources */
 980:common/stm32f10x_tim.c ****     TIMx->DIER &= (uint16_t)~TIM_DMASource;
 981:common/stm32f10x_tim.c ****   }
 982:common/stm32f10x_tim.c **** }
 2094              		.loc 1 982 0
 2095 0aee 09E0     		b	.L86
 2096              	.L84:
 980:common/stm32f10x_tim.c ****   }
 2097              		.loc 1 980 0
 2098 0af0 7B68     		ldr	r3, [r7, #4]
 2099 0af2 9B89     		ldrh	r3, [r3, #12]	@ movhi
 2100 0af4 9AB2     		uxth	r2, r3
 2101 0af6 7B88     		ldrh	r3, [r7, #2]	@ movhi
 2102 0af8 DB43     		mvns	r3, r3
 2103 0afa 9BB2     		uxth	r3, r3
 2104 0afc 1340     		ands	r3, r3, r2
 2105 0afe 9AB2     		uxth	r2, r3
 2106 0b00 7B68     		ldr	r3, [r7, #4]
 2107 0b02 9A81     		strh	r2, [r3, #12]	@ movhi
 2108              	.L86:
 2109              		.loc 1 982 0
 2110 0b04 00BF     		nop
 2111 0b06 0C37     		adds	r7, r7, #12
 2112              		.cfi_def_cfa_offset 4
 2113 0b08 BD46     		mov	sp, r7
 2114              		.cfi_def_cfa_register 13
 2115              		@ sp needed
 2116 0b0a 80BC     		pop	{r7}
 2117              		.cfi_restore 7
 2118              		.cfi_def_cfa_offset 0
 2119 0b0c 7047     		bx	lr
 2120              		.cfi_endproc
 2121              	.LFE81:
 2122              		.size	TIM_DMACmd, .-TIM_DMACmd
 2123              		.align	1
 2124              		.global	TIM_InternalClockConfig
 2125              		.syntax unified
 2126              		.thumb
 2127              		.thumb_func
 2128              		.fpu softvfp
 2129              		.type	TIM_InternalClockConfig, %function
 2130              	TIM_InternalClockConfig:
 2131              	.LFB82:
 983:common/stm32f10x_tim.c **** 
 984:common/stm32f10x_tim.c **** /**
 985:common/stm32f10x_tim.c ****   * @brief  Configures the TIMx internal Clock
 986:common/stm32f10x_tim.c ****   * @param  TIMx: where x can be  1, 2, 3, 4, 5, 8, 9, 12 or 15
 987:common/stm32f10x_tim.c ****   *         to select the TIM peripheral.
 988:common/stm32f10x_tim.c ****   * @retval None
 989:common/stm32f10x_tim.c ****   */
 990:common/stm32f10x_tim.c **** void TIM_InternalClockConfig(TIM_TypeDef* TIMx)
 991:common/stm32f10x_tim.c **** {
 2132              		.loc 1 991 0
ARM GAS  /tmp/ccRayNMu.s 			page 57


 2133              		.cfi_startproc
 2134              		@ args = 0, pretend = 0, frame = 8
 2135              		@ frame_needed = 1, uses_anonymous_args = 0
 2136              		@ link register save eliminated.
 2137 0b0e 80B4     		push	{r7}
 2138              		.cfi_def_cfa_offset 4
 2139              		.cfi_offset 7, -4
 2140 0b10 83B0     		sub	sp, sp, #12
 2141              		.cfi_def_cfa_offset 16
 2142 0b12 00AF     		add	r7, sp, #0
 2143              		.cfi_def_cfa_register 7
 2144 0b14 7860     		str	r0, [r7, #4]
 992:common/stm32f10x_tim.c ****   /* Check the parameters */
 993:common/stm32f10x_tim.c ****   assert_param(IS_TIM_LIST6_PERIPH(TIMx));
 994:common/stm32f10x_tim.c ****   /* Disable slave mode to clock the prescaler directly with the internal clock */
 995:common/stm32f10x_tim.c ****   TIMx->SMCR &=  (uint16_t)(~((uint16_t)TIM_SMCR_SMS));
 2145              		.loc 1 995 0
 2146 0b16 7B68     		ldr	r3, [r7, #4]
 2147 0b18 1B89     		ldrh	r3, [r3, #8]	@ movhi
 2148 0b1a 9BB2     		uxth	r3, r3
 2149 0b1c 23F00703 		bic	r3, r3, #7
 2150 0b20 9AB2     		uxth	r2, r3
 2151 0b22 7B68     		ldr	r3, [r7, #4]
 2152 0b24 1A81     		strh	r2, [r3, #8]	@ movhi
 996:common/stm32f10x_tim.c **** }
 2153              		.loc 1 996 0
 2154 0b26 00BF     		nop
 2155 0b28 0C37     		adds	r7, r7, #12
 2156              		.cfi_def_cfa_offset 4
 2157 0b2a BD46     		mov	sp, r7
 2158              		.cfi_def_cfa_register 13
 2159              		@ sp needed
 2160 0b2c 80BC     		pop	{r7}
 2161              		.cfi_restore 7
 2162              		.cfi_def_cfa_offset 0
 2163 0b2e 7047     		bx	lr
 2164              		.cfi_endproc
 2165              	.LFE82:
 2166              		.size	TIM_InternalClockConfig, .-TIM_InternalClockConfig
 2167              		.align	1
 2168              		.global	TIM_ITRxExternalClockConfig
 2169              		.syntax unified
 2170              		.thumb
 2171              		.thumb_func
 2172              		.fpu softvfp
 2173              		.type	TIM_ITRxExternalClockConfig, %function
 2174              	TIM_ITRxExternalClockConfig:
 2175              	.LFB83:
 997:common/stm32f10x_tim.c **** 
 998:common/stm32f10x_tim.c **** /**
 999:common/stm32f10x_tim.c ****   * @brief  Configures the TIMx Internal Trigger as External Clock
1000:common/stm32f10x_tim.c ****   * @param  TIMx: where x can be  1, 2, 3, 4, 5, 9, 12 or 15 to select the TIM peripheral.
1001:common/stm32f10x_tim.c ****   * @param  TIM_ITRSource: Trigger source.
1002:common/stm32f10x_tim.c ****   *   This parameter can be one of the following values:
1003:common/stm32f10x_tim.c ****   * @param  TIM_TS_ITR0: Internal Trigger 0
1004:common/stm32f10x_tim.c ****   * @param  TIM_TS_ITR1: Internal Trigger 1
1005:common/stm32f10x_tim.c ****   * @param  TIM_TS_ITR2: Internal Trigger 2
ARM GAS  /tmp/ccRayNMu.s 			page 58


1006:common/stm32f10x_tim.c ****   * @param  TIM_TS_ITR3: Internal Trigger 3
1007:common/stm32f10x_tim.c ****   * @retval None
1008:common/stm32f10x_tim.c ****   */
1009:common/stm32f10x_tim.c **** void TIM_ITRxExternalClockConfig(TIM_TypeDef* TIMx, uint16_t TIM_InputTriggerSource)
1010:common/stm32f10x_tim.c **** {
 2176              		.loc 1 1010 0
 2177              		.cfi_startproc
 2178              		@ args = 0, pretend = 0, frame = 8
 2179              		@ frame_needed = 1, uses_anonymous_args = 0
 2180 0b30 80B5     		push	{r7, lr}
 2181              		.cfi_def_cfa_offset 8
 2182              		.cfi_offset 7, -8
 2183              		.cfi_offset 14, -4
 2184 0b32 82B0     		sub	sp, sp, #8
 2185              		.cfi_def_cfa_offset 16
 2186 0b34 00AF     		add	r7, sp, #0
 2187              		.cfi_def_cfa_register 7
 2188 0b36 7860     		str	r0, [r7, #4]
 2189 0b38 0B46     		mov	r3, r1
 2190 0b3a 7B80     		strh	r3, [r7, #2]	@ movhi
1011:common/stm32f10x_tim.c ****   /* Check the parameters */
1012:common/stm32f10x_tim.c ****   assert_param(IS_TIM_LIST6_PERIPH(TIMx));
1013:common/stm32f10x_tim.c ****   assert_param(IS_TIM_INTERNAL_TRIGGER_SELECTION(TIM_InputTriggerSource));
1014:common/stm32f10x_tim.c ****   /* Select the Internal Trigger */
1015:common/stm32f10x_tim.c ****   TIM_SelectInputTrigger(TIMx, TIM_InputTriggerSource);
 2191              		.loc 1 1015 0
 2192 0b3c 7B88     		ldrh	r3, [r7, #2]
 2193 0b3e 1946     		mov	r1, r3
 2194 0b40 7868     		ldr	r0, [r7, #4]
 2195 0b42 FFF7FEFF 		bl	TIM_SelectInputTrigger
1016:common/stm32f10x_tim.c ****   /* Select the External clock mode1 */
1017:common/stm32f10x_tim.c ****   TIMx->SMCR |= TIM_SlaveMode_External1;
 2196              		.loc 1 1017 0
 2197 0b46 7B68     		ldr	r3, [r7, #4]
 2198 0b48 1B89     		ldrh	r3, [r3, #8]	@ movhi
 2199 0b4a 9BB2     		uxth	r3, r3
 2200 0b4c 43F00703 		orr	r3, r3, #7
 2201 0b50 9AB2     		uxth	r2, r3
 2202 0b52 7B68     		ldr	r3, [r7, #4]
 2203 0b54 1A81     		strh	r2, [r3, #8]	@ movhi
1018:common/stm32f10x_tim.c **** }
 2204              		.loc 1 1018 0
 2205 0b56 00BF     		nop
 2206 0b58 0837     		adds	r7, r7, #8
 2207              		.cfi_def_cfa_offset 8
 2208 0b5a BD46     		mov	sp, r7
 2209              		.cfi_def_cfa_register 13
 2210              		@ sp needed
 2211 0b5c 80BD     		pop	{r7, pc}
 2212              		.cfi_endproc
 2213              	.LFE83:
 2214              		.size	TIM_ITRxExternalClockConfig, .-TIM_ITRxExternalClockConfig
 2215              		.align	1
 2216              		.global	TIM_TIxExternalClockConfig
 2217              		.syntax unified
 2218              		.thumb
 2219              		.thumb_func
ARM GAS  /tmp/ccRayNMu.s 			page 59


 2220              		.fpu softvfp
 2221              		.type	TIM_TIxExternalClockConfig, %function
 2222              	TIM_TIxExternalClockConfig:
 2223              	.LFB84:
1019:common/stm32f10x_tim.c **** 
1020:common/stm32f10x_tim.c **** /**
1021:common/stm32f10x_tim.c ****   * @brief  Configures the TIMx Trigger as External Clock
1022:common/stm32f10x_tim.c ****   * @param  TIMx: where x can be  1, 2, 3, 4, 5, 9, 12 or 15 to select the TIM peripheral.
1023:common/stm32f10x_tim.c ****   * @param  TIM_TIxExternalCLKSource: Trigger source.
1024:common/stm32f10x_tim.c ****   *   This parameter can be one of the following values:
1025:common/stm32f10x_tim.c ****   *     @arg TIM_TIxExternalCLK1Source_TI1ED: TI1 Edge Detector
1026:common/stm32f10x_tim.c ****   *     @arg TIM_TIxExternalCLK1Source_TI1: Filtered Timer Input 1
1027:common/stm32f10x_tim.c ****   *     @arg TIM_TIxExternalCLK1Source_TI2: Filtered Timer Input 2
1028:common/stm32f10x_tim.c ****   * @param  TIM_ICPolarity: specifies the TIx Polarity.
1029:common/stm32f10x_tim.c ****   *   This parameter can be one of the following values:
1030:common/stm32f10x_tim.c ****   *     @arg TIM_ICPolarity_Rising
1031:common/stm32f10x_tim.c ****   *     @arg TIM_ICPolarity_Falling
1032:common/stm32f10x_tim.c ****   * @param  ICFilter : specifies the filter value.
1033:common/stm32f10x_tim.c ****   *   This parameter must be a value between 0x0 and 0xF.
1034:common/stm32f10x_tim.c ****   * @retval None
1035:common/stm32f10x_tim.c ****   */
1036:common/stm32f10x_tim.c **** void TIM_TIxExternalClockConfig(TIM_TypeDef* TIMx, uint16_t TIM_TIxExternalCLKSource,
1037:common/stm32f10x_tim.c ****                                 uint16_t TIM_ICPolarity, uint16_t ICFilter)
1038:common/stm32f10x_tim.c **** {
 2224              		.loc 1 1038 0
 2225              		.cfi_startproc
 2226              		@ args = 0, pretend = 0, frame = 16
 2227              		@ frame_needed = 1, uses_anonymous_args = 0
 2228 0b5e 80B5     		push	{r7, lr}
 2229              		.cfi_def_cfa_offset 8
 2230              		.cfi_offset 7, -8
 2231              		.cfi_offset 14, -4
 2232 0b60 84B0     		sub	sp, sp, #16
 2233              		.cfi_def_cfa_offset 24
 2234 0b62 00AF     		add	r7, sp, #0
 2235              		.cfi_def_cfa_register 7
 2236 0b64 F860     		str	r0, [r7, #12]
 2237 0b66 0846     		mov	r0, r1
 2238 0b68 1146     		mov	r1, r2
 2239 0b6a 1A46     		mov	r2, r3
 2240 0b6c 0346     		mov	r3, r0	@ movhi
 2241 0b6e 7B81     		strh	r3, [r7, #10]	@ movhi
 2242 0b70 0B46     		mov	r3, r1	@ movhi
 2243 0b72 3B81     		strh	r3, [r7, #8]	@ movhi
 2244 0b74 1346     		mov	r3, r2	@ movhi
 2245 0b76 FB80     		strh	r3, [r7, #6]	@ movhi
1039:common/stm32f10x_tim.c ****   /* Check the parameters */
1040:common/stm32f10x_tim.c ****   assert_param(IS_TIM_LIST6_PERIPH(TIMx));
1041:common/stm32f10x_tim.c ****   assert_param(IS_TIM_TIXCLK_SOURCE(TIM_TIxExternalCLKSource));
1042:common/stm32f10x_tim.c ****   assert_param(IS_TIM_IC_POLARITY(TIM_ICPolarity));
1043:common/stm32f10x_tim.c ****   assert_param(IS_TIM_IC_FILTER(ICFilter));
1044:common/stm32f10x_tim.c ****   /* Configure the Timer Input Clock Source */
1045:common/stm32f10x_tim.c ****   if (TIM_TIxExternalCLKSource == TIM_TIxExternalCLK1Source_TI2)
 2246              		.loc 1 1045 0
 2247 0b78 7B89     		ldrh	r3, [r7, #10]
 2248 0b7a 602B     		cmp	r3, #96
 2249 0b7c 06D1     		bne	.L90
ARM GAS  /tmp/ccRayNMu.s 			page 60


1046:common/stm32f10x_tim.c ****   {
1047:common/stm32f10x_tim.c ****     TI2_Config(TIMx, TIM_ICPolarity, TIM_ICSelection_DirectTI, ICFilter);
 2250              		.loc 1 1047 0
 2251 0b7e FB88     		ldrh	r3, [r7, #6]
 2252 0b80 3989     		ldrh	r1, [r7, #8]
 2253 0b82 0122     		movs	r2, #1
 2254 0b84 F868     		ldr	r0, [r7, #12]
 2255 0b86 00F097FF 		bl	TI2_Config
 2256 0b8a 05E0     		b	.L91
 2257              	.L90:
1048:common/stm32f10x_tim.c ****   }
1049:common/stm32f10x_tim.c ****   else
1050:common/stm32f10x_tim.c ****   {
1051:common/stm32f10x_tim.c ****     TI1_Config(TIMx, TIM_ICPolarity, TIM_ICSelection_DirectTI, ICFilter);
 2258              		.loc 1 1051 0
 2259 0b8c FB88     		ldrh	r3, [r7, #6]
 2260 0b8e 3989     		ldrh	r1, [r7, #8]
 2261 0b90 0122     		movs	r2, #1
 2262 0b92 F868     		ldr	r0, [r7, #12]
 2263 0b94 00F01FFF 		bl	TI1_Config
 2264              	.L91:
1052:common/stm32f10x_tim.c ****   }
1053:common/stm32f10x_tim.c ****   /* Select the Trigger source */
1054:common/stm32f10x_tim.c ****   TIM_SelectInputTrigger(TIMx, TIM_TIxExternalCLKSource);
 2265              		.loc 1 1054 0
 2266 0b98 7B89     		ldrh	r3, [r7, #10]
 2267 0b9a 1946     		mov	r1, r3
 2268 0b9c F868     		ldr	r0, [r7, #12]
 2269 0b9e FFF7FEFF 		bl	TIM_SelectInputTrigger
1055:common/stm32f10x_tim.c ****   /* Select the External clock mode1 */
1056:common/stm32f10x_tim.c ****   TIMx->SMCR |= TIM_SlaveMode_External1;
 2270              		.loc 1 1056 0
 2271 0ba2 FB68     		ldr	r3, [r7, #12]
 2272 0ba4 1B89     		ldrh	r3, [r3, #8]	@ movhi
 2273 0ba6 9BB2     		uxth	r3, r3
 2274 0ba8 43F00703 		orr	r3, r3, #7
 2275 0bac 9AB2     		uxth	r2, r3
 2276 0bae FB68     		ldr	r3, [r7, #12]
 2277 0bb0 1A81     		strh	r2, [r3, #8]	@ movhi
1057:common/stm32f10x_tim.c **** }
 2278              		.loc 1 1057 0
 2279 0bb2 00BF     		nop
 2280 0bb4 1037     		adds	r7, r7, #16
 2281              		.cfi_def_cfa_offset 8
 2282 0bb6 BD46     		mov	sp, r7
 2283              		.cfi_def_cfa_register 13
 2284              		@ sp needed
 2285 0bb8 80BD     		pop	{r7, pc}
 2286              		.cfi_endproc
 2287              	.LFE84:
 2288              		.size	TIM_TIxExternalClockConfig, .-TIM_TIxExternalClockConfig
 2289              		.align	1
 2290              		.global	TIM_ETRClockMode1Config
 2291              		.syntax unified
 2292              		.thumb
 2293              		.thumb_func
 2294              		.fpu softvfp
ARM GAS  /tmp/ccRayNMu.s 			page 61


 2295              		.type	TIM_ETRClockMode1Config, %function
 2296              	TIM_ETRClockMode1Config:
 2297              	.LFB85:
1058:common/stm32f10x_tim.c **** 
1059:common/stm32f10x_tim.c **** /**
1060:common/stm32f10x_tim.c ****   * @brief  Configures the External clock Mode1
1061:common/stm32f10x_tim.c ****   * @param  TIMx: where x can be  1, 2, 3, 4, 5 or 8 to select the TIM peripheral.
1062:common/stm32f10x_tim.c ****   * @param  TIM_ExtTRGPrescaler: The external Trigger Prescaler.
1063:common/stm32f10x_tim.c ****   *   This parameter can be one of the following values:
1064:common/stm32f10x_tim.c ****   *     @arg TIM_ExtTRGPSC_OFF: ETRP Prescaler OFF.
1065:common/stm32f10x_tim.c ****   *     @arg TIM_ExtTRGPSC_DIV2: ETRP frequency divided by 2.
1066:common/stm32f10x_tim.c ****   *     @arg TIM_ExtTRGPSC_DIV4: ETRP frequency divided by 4.
1067:common/stm32f10x_tim.c ****   *     @arg TIM_ExtTRGPSC_DIV8: ETRP frequency divided by 8.
1068:common/stm32f10x_tim.c ****   * @param  TIM_ExtTRGPolarity: The external Trigger Polarity.
1069:common/stm32f10x_tim.c ****   *   This parameter can be one of the following values:
1070:common/stm32f10x_tim.c ****   *     @arg TIM_ExtTRGPolarity_Inverted: active low or falling edge active.
1071:common/stm32f10x_tim.c ****   *     @arg TIM_ExtTRGPolarity_NonInverted: active high or rising edge active.
1072:common/stm32f10x_tim.c ****   * @param  ExtTRGFilter: External Trigger Filter.
1073:common/stm32f10x_tim.c ****   *   This parameter must be a value between 0x00 and 0x0F
1074:common/stm32f10x_tim.c ****   * @retval None
1075:common/stm32f10x_tim.c ****   */
1076:common/stm32f10x_tim.c **** void TIM_ETRClockMode1Config(TIM_TypeDef* TIMx, uint16_t TIM_ExtTRGPrescaler, uint16_t TIM_ExtTRGPo
1077:common/stm32f10x_tim.c ****                              uint16_t ExtTRGFilter)
1078:common/stm32f10x_tim.c **** {
 2298              		.loc 1 1078 0
 2299              		.cfi_startproc
 2300              		@ args = 0, pretend = 0, frame = 24
 2301              		@ frame_needed = 1, uses_anonymous_args = 0
 2302 0bba 80B5     		push	{r7, lr}
 2303              		.cfi_def_cfa_offset 8
 2304              		.cfi_offset 7, -8
 2305              		.cfi_offset 14, -4
 2306 0bbc 86B0     		sub	sp, sp, #24
 2307              		.cfi_def_cfa_offset 32
 2308 0bbe 00AF     		add	r7, sp, #0
 2309              		.cfi_def_cfa_register 7
 2310 0bc0 F860     		str	r0, [r7, #12]
 2311 0bc2 0846     		mov	r0, r1
 2312 0bc4 1146     		mov	r1, r2
 2313 0bc6 1A46     		mov	r2, r3
 2314 0bc8 0346     		mov	r3, r0	@ movhi
 2315 0bca 7B81     		strh	r3, [r7, #10]	@ movhi
 2316 0bcc 0B46     		mov	r3, r1	@ movhi
 2317 0bce 3B81     		strh	r3, [r7, #8]	@ movhi
 2318 0bd0 1346     		mov	r3, r2	@ movhi
 2319 0bd2 FB80     		strh	r3, [r7, #6]	@ movhi
1079:common/stm32f10x_tim.c ****   uint16_t tmpsmcr = 0;
 2320              		.loc 1 1079 0
 2321 0bd4 0023     		movs	r3, #0
 2322 0bd6 FB82     		strh	r3, [r7, #22]	@ movhi
1080:common/stm32f10x_tim.c ****   /* Check the parameters */
1081:common/stm32f10x_tim.c ****   assert_param(IS_TIM_LIST3_PERIPH(TIMx));
1082:common/stm32f10x_tim.c ****   assert_param(IS_TIM_EXT_PRESCALER(TIM_ExtTRGPrescaler));
1083:common/stm32f10x_tim.c ****   assert_param(IS_TIM_EXT_POLARITY(TIM_ExtTRGPolarity));
1084:common/stm32f10x_tim.c ****   assert_param(IS_TIM_EXT_FILTER(ExtTRGFilter));
1085:common/stm32f10x_tim.c ****   /* Configure the ETR Clock source */
1086:common/stm32f10x_tim.c ****   TIM_ETRConfig(TIMx, TIM_ExtTRGPrescaler, TIM_ExtTRGPolarity, ExtTRGFilter);
ARM GAS  /tmp/ccRayNMu.s 			page 62


 2323              		.loc 1 1086 0
 2324 0bd8 FB88     		ldrh	r3, [r7, #6]
 2325 0bda 3A89     		ldrh	r2, [r7, #8]
 2326 0bdc 7989     		ldrh	r1, [r7, #10]
 2327 0bde F868     		ldr	r0, [r7, #12]
 2328 0be0 FFF7FEFF 		bl	TIM_ETRConfig
1087:common/stm32f10x_tim.c ****   
1088:common/stm32f10x_tim.c ****   /* Get the TIMx SMCR register value */
1089:common/stm32f10x_tim.c ****   tmpsmcr = TIMx->SMCR;
 2329              		.loc 1 1089 0
 2330 0be4 FB68     		ldr	r3, [r7, #12]
 2331 0be6 1B89     		ldrh	r3, [r3, #8]	@ movhi
 2332 0be8 FB82     		strh	r3, [r7, #22]	@ movhi
1090:common/stm32f10x_tim.c ****   /* Reset the SMS Bits */
1091:common/stm32f10x_tim.c ****   tmpsmcr &= (uint16_t)(~((uint16_t)TIM_SMCR_SMS));
 2333              		.loc 1 1091 0
 2334 0bea FB8A     		ldrh	r3, [r7, #22]	@ movhi
 2335 0bec 23F00703 		bic	r3, r3, #7
 2336 0bf0 FB82     		strh	r3, [r7, #22]	@ movhi
1092:common/stm32f10x_tim.c ****   /* Select the External clock mode1 */
1093:common/stm32f10x_tim.c ****   tmpsmcr |= TIM_SlaveMode_External1;
 2337              		.loc 1 1093 0
 2338 0bf2 FB8A     		ldrh	r3, [r7, #22]	@ movhi
 2339 0bf4 43F00703 		orr	r3, r3, #7
 2340 0bf8 FB82     		strh	r3, [r7, #22]	@ movhi
1094:common/stm32f10x_tim.c ****   /* Select the Trigger selection : ETRF */
1095:common/stm32f10x_tim.c ****   tmpsmcr &= (uint16_t)(~((uint16_t)TIM_SMCR_TS));
 2341              		.loc 1 1095 0
 2342 0bfa FB8A     		ldrh	r3, [r7, #22]	@ movhi
 2343 0bfc 23F07003 		bic	r3, r3, #112
 2344 0c00 FB82     		strh	r3, [r7, #22]	@ movhi
1096:common/stm32f10x_tim.c ****   tmpsmcr |= TIM_TS_ETRF;
 2345              		.loc 1 1096 0
 2346 0c02 FB8A     		ldrh	r3, [r7, #22]	@ movhi
 2347 0c04 43F07003 		orr	r3, r3, #112
 2348 0c08 FB82     		strh	r3, [r7, #22]	@ movhi
1097:common/stm32f10x_tim.c ****   /* Write to TIMx SMCR */
1098:common/stm32f10x_tim.c ****   TIMx->SMCR = tmpsmcr;
 2349              		.loc 1 1098 0
 2350 0c0a FB68     		ldr	r3, [r7, #12]
 2351 0c0c FA8A     		ldrh	r2, [r7, #22]	@ movhi
 2352 0c0e 1A81     		strh	r2, [r3, #8]	@ movhi
1099:common/stm32f10x_tim.c **** }
 2353              		.loc 1 1099 0
 2354 0c10 00BF     		nop
 2355 0c12 1837     		adds	r7, r7, #24
 2356              		.cfi_def_cfa_offset 8
 2357 0c14 BD46     		mov	sp, r7
 2358              		.cfi_def_cfa_register 13
 2359              		@ sp needed
 2360 0c16 80BD     		pop	{r7, pc}
 2361              		.cfi_endproc
 2362              	.LFE85:
 2363              		.size	TIM_ETRClockMode1Config, .-TIM_ETRClockMode1Config
 2364              		.align	1
 2365              		.global	TIM_ETRClockMode2Config
 2366              		.syntax unified
ARM GAS  /tmp/ccRayNMu.s 			page 63


 2367              		.thumb
 2368              		.thumb_func
 2369              		.fpu softvfp
 2370              		.type	TIM_ETRClockMode2Config, %function
 2371              	TIM_ETRClockMode2Config:
 2372              	.LFB86:
1100:common/stm32f10x_tim.c **** 
1101:common/stm32f10x_tim.c **** /**
1102:common/stm32f10x_tim.c ****   * @brief  Configures the External clock Mode2
1103:common/stm32f10x_tim.c ****   * @param  TIMx: where x can be  1, 2, 3, 4, 5 or 8 to select the TIM peripheral.
1104:common/stm32f10x_tim.c ****   * @param  TIM_ExtTRGPrescaler: The external Trigger Prescaler.
1105:common/stm32f10x_tim.c ****   *   This parameter can be one of the following values:
1106:common/stm32f10x_tim.c ****   *     @arg TIM_ExtTRGPSC_OFF: ETRP Prescaler OFF.
1107:common/stm32f10x_tim.c ****   *     @arg TIM_ExtTRGPSC_DIV2: ETRP frequency divided by 2.
1108:common/stm32f10x_tim.c ****   *     @arg TIM_ExtTRGPSC_DIV4: ETRP frequency divided by 4.
1109:common/stm32f10x_tim.c ****   *     @arg TIM_ExtTRGPSC_DIV8: ETRP frequency divided by 8.
1110:common/stm32f10x_tim.c ****   * @param  TIM_ExtTRGPolarity: The external Trigger Polarity.
1111:common/stm32f10x_tim.c ****   *   This parameter can be one of the following values:
1112:common/stm32f10x_tim.c ****   *     @arg TIM_ExtTRGPolarity_Inverted: active low or falling edge active.
1113:common/stm32f10x_tim.c ****   *     @arg TIM_ExtTRGPolarity_NonInverted: active high or rising edge active.
1114:common/stm32f10x_tim.c ****   * @param  ExtTRGFilter: External Trigger Filter.
1115:common/stm32f10x_tim.c ****   *   This parameter must be a value between 0x00 and 0x0F
1116:common/stm32f10x_tim.c ****   * @retval None
1117:common/stm32f10x_tim.c ****   */
1118:common/stm32f10x_tim.c **** void TIM_ETRClockMode2Config(TIM_TypeDef* TIMx, uint16_t TIM_ExtTRGPrescaler, 
1119:common/stm32f10x_tim.c ****                              uint16_t TIM_ExtTRGPolarity, uint16_t ExtTRGFilter)
1120:common/stm32f10x_tim.c **** {
 2373              		.loc 1 1120 0
 2374              		.cfi_startproc
 2375              		@ args = 0, pretend = 0, frame = 16
 2376              		@ frame_needed = 1, uses_anonymous_args = 0
 2377 0c18 80B5     		push	{r7, lr}
 2378              		.cfi_def_cfa_offset 8
 2379              		.cfi_offset 7, -8
 2380              		.cfi_offset 14, -4
 2381 0c1a 84B0     		sub	sp, sp, #16
 2382              		.cfi_def_cfa_offset 24
 2383 0c1c 00AF     		add	r7, sp, #0
 2384              		.cfi_def_cfa_register 7
 2385 0c1e F860     		str	r0, [r7, #12]
 2386 0c20 0846     		mov	r0, r1
 2387 0c22 1146     		mov	r1, r2
 2388 0c24 1A46     		mov	r2, r3
 2389 0c26 0346     		mov	r3, r0	@ movhi
 2390 0c28 7B81     		strh	r3, [r7, #10]	@ movhi
 2391 0c2a 0B46     		mov	r3, r1	@ movhi
 2392 0c2c 3B81     		strh	r3, [r7, #8]	@ movhi
 2393 0c2e 1346     		mov	r3, r2	@ movhi
 2394 0c30 FB80     		strh	r3, [r7, #6]	@ movhi
1121:common/stm32f10x_tim.c ****   /* Check the parameters */
1122:common/stm32f10x_tim.c ****   assert_param(IS_TIM_LIST3_PERIPH(TIMx));
1123:common/stm32f10x_tim.c ****   assert_param(IS_TIM_EXT_PRESCALER(TIM_ExtTRGPrescaler));
1124:common/stm32f10x_tim.c ****   assert_param(IS_TIM_EXT_POLARITY(TIM_ExtTRGPolarity));
1125:common/stm32f10x_tim.c ****   assert_param(IS_TIM_EXT_FILTER(ExtTRGFilter));
1126:common/stm32f10x_tim.c ****   /* Configure the ETR Clock source */
1127:common/stm32f10x_tim.c ****   TIM_ETRConfig(TIMx, TIM_ExtTRGPrescaler, TIM_ExtTRGPolarity, ExtTRGFilter);
 2395              		.loc 1 1127 0
ARM GAS  /tmp/ccRayNMu.s 			page 64


 2396 0c32 FB88     		ldrh	r3, [r7, #6]
 2397 0c34 3A89     		ldrh	r2, [r7, #8]
 2398 0c36 7989     		ldrh	r1, [r7, #10]
 2399 0c38 F868     		ldr	r0, [r7, #12]
 2400 0c3a FFF7FEFF 		bl	TIM_ETRConfig
1128:common/stm32f10x_tim.c ****   /* Enable the External clock mode2 */
1129:common/stm32f10x_tim.c ****   TIMx->SMCR |= TIM_SMCR_ECE;
 2401              		.loc 1 1129 0
 2402 0c3e FB68     		ldr	r3, [r7, #12]
 2403 0c40 1B89     		ldrh	r3, [r3, #8]	@ movhi
 2404 0c42 9BB2     		uxth	r3, r3
 2405 0c44 43F48043 		orr	r3, r3, #16384
 2406 0c48 9AB2     		uxth	r2, r3
 2407 0c4a FB68     		ldr	r3, [r7, #12]
 2408 0c4c 1A81     		strh	r2, [r3, #8]	@ movhi
1130:common/stm32f10x_tim.c **** }
 2409              		.loc 1 1130 0
 2410 0c4e 00BF     		nop
 2411 0c50 1037     		adds	r7, r7, #16
 2412              		.cfi_def_cfa_offset 8
 2413 0c52 BD46     		mov	sp, r7
 2414              		.cfi_def_cfa_register 13
 2415              		@ sp needed
 2416 0c54 80BD     		pop	{r7, pc}
 2417              		.cfi_endproc
 2418              	.LFE86:
 2419              		.size	TIM_ETRClockMode2Config, .-TIM_ETRClockMode2Config
 2420              		.align	1
 2421              		.global	TIM_ETRConfig
 2422              		.syntax unified
 2423              		.thumb
 2424              		.thumb_func
 2425              		.fpu softvfp
 2426              		.type	TIM_ETRConfig, %function
 2427              	TIM_ETRConfig:
 2428              	.LFB87:
1131:common/stm32f10x_tim.c **** 
1132:common/stm32f10x_tim.c **** /**
1133:common/stm32f10x_tim.c ****   * @brief  Configures the TIMx External Trigger (ETR).
1134:common/stm32f10x_tim.c ****   * @param  TIMx: where x can be  1, 2, 3, 4, 5 or 8 to select the TIM peripheral.
1135:common/stm32f10x_tim.c ****   * @param  TIM_ExtTRGPrescaler: The external Trigger Prescaler.
1136:common/stm32f10x_tim.c ****   *   This parameter can be one of the following values:
1137:common/stm32f10x_tim.c ****   *     @arg TIM_ExtTRGPSC_OFF: ETRP Prescaler OFF.
1138:common/stm32f10x_tim.c ****   *     @arg TIM_ExtTRGPSC_DIV2: ETRP frequency divided by 2.
1139:common/stm32f10x_tim.c ****   *     @arg TIM_ExtTRGPSC_DIV4: ETRP frequency divided by 4.
1140:common/stm32f10x_tim.c ****   *     @arg TIM_ExtTRGPSC_DIV8: ETRP frequency divided by 8.
1141:common/stm32f10x_tim.c ****   * @param  TIM_ExtTRGPolarity: The external Trigger Polarity.
1142:common/stm32f10x_tim.c ****   *   This parameter can be one of the following values:
1143:common/stm32f10x_tim.c ****   *     @arg TIM_ExtTRGPolarity_Inverted: active low or falling edge active.
1144:common/stm32f10x_tim.c ****   *     @arg TIM_ExtTRGPolarity_NonInverted: active high or rising edge active.
1145:common/stm32f10x_tim.c ****   * @param  ExtTRGFilter: External Trigger Filter.
1146:common/stm32f10x_tim.c ****   *   This parameter must be a value between 0x00 and 0x0F
1147:common/stm32f10x_tim.c ****   * @retval None
1148:common/stm32f10x_tim.c ****   */
1149:common/stm32f10x_tim.c **** void TIM_ETRConfig(TIM_TypeDef* TIMx, uint16_t TIM_ExtTRGPrescaler, uint16_t TIM_ExtTRGPolarity,
1150:common/stm32f10x_tim.c ****                    uint16_t ExtTRGFilter)
1151:common/stm32f10x_tim.c **** {
ARM GAS  /tmp/ccRayNMu.s 			page 65


 2429              		.loc 1 1151 0
 2430              		.cfi_startproc
 2431              		@ args = 0, pretend = 0, frame = 24
 2432              		@ frame_needed = 1, uses_anonymous_args = 0
 2433              		@ link register save eliminated.
 2434 0c56 80B4     		push	{r7}
 2435              		.cfi_def_cfa_offset 4
 2436              		.cfi_offset 7, -4
 2437 0c58 87B0     		sub	sp, sp, #28
 2438              		.cfi_def_cfa_offset 32
 2439 0c5a 00AF     		add	r7, sp, #0
 2440              		.cfi_def_cfa_register 7
 2441 0c5c F860     		str	r0, [r7, #12]
 2442 0c5e 0846     		mov	r0, r1
 2443 0c60 1146     		mov	r1, r2
 2444 0c62 1A46     		mov	r2, r3
 2445 0c64 0346     		mov	r3, r0	@ movhi
 2446 0c66 7B81     		strh	r3, [r7, #10]	@ movhi
 2447 0c68 0B46     		mov	r3, r1	@ movhi
 2448 0c6a 3B81     		strh	r3, [r7, #8]	@ movhi
 2449 0c6c 1346     		mov	r3, r2	@ movhi
 2450 0c6e FB80     		strh	r3, [r7, #6]	@ movhi
1152:common/stm32f10x_tim.c ****   uint16_t tmpsmcr = 0;
 2451              		.loc 1 1152 0
 2452 0c70 0023     		movs	r3, #0
 2453 0c72 FB82     		strh	r3, [r7, #22]	@ movhi
1153:common/stm32f10x_tim.c ****   /* Check the parameters */
1154:common/stm32f10x_tim.c ****   assert_param(IS_TIM_LIST3_PERIPH(TIMx));
1155:common/stm32f10x_tim.c ****   assert_param(IS_TIM_EXT_PRESCALER(TIM_ExtTRGPrescaler));
1156:common/stm32f10x_tim.c ****   assert_param(IS_TIM_EXT_POLARITY(TIM_ExtTRGPolarity));
1157:common/stm32f10x_tim.c ****   assert_param(IS_TIM_EXT_FILTER(ExtTRGFilter));
1158:common/stm32f10x_tim.c ****   tmpsmcr = TIMx->SMCR;
 2454              		.loc 1 1158 0
 2455 0c74 FB68     		ldr	r3, [r7, #12]
 2456 0c76 1B89     		ldrh	r3, [r3, #8]	@ movhi
 2457 0c78 FB82     		strh	r3, [r7, #22]	@ movhi
1159:common/stm32f10x_tim.c ****   /* Reset the ETR Bits */
1160:common/stm32f10x_tim.c ****   tmpsmcr &= SMCR_ETR_Mask;
 2458              		.loc 1 1160 0
 2459 0c7a FB8A     		ldrh	r3, [r7, #22]	@ movhi
 2460 0c7c DBB2     		uxtb	r3, r3
 2461 0c7e FB82     		strh	r3, [r7, #22]	@ movhi
1161:common/stm32f10x_tim.c ****   /* Set the Prescaler, the Filter value and the Polarity */
1162:common/stm32f10x_tim.c ****   tmpsmcr |= (uint16_t)(TIM_ExtTRGPrescaler | (uint16_t)(TIM_ExtTRGPolarity | (uint16_t)(ExtTRGFilt
 2462              		.loc 1 1162 0
 2463 0c80 FB88     		ldrh	r3, [r7, #6]	@ movhi
 2464 0c82 1B02     		lsls	r3, r3, #8
 2465 0c84 9AB2     		uxth	r2, r3
 2466 0c86 3B89     		ldrh	r3, [r7, #8]	@ movhi
 2467 0c88 1343     		orrs	r3, r3, r2
 2468 0c8a 9AB2     		uxth	r2, r3
 2469 0c8c 7B89     		ldrh	r3, [r7, #10]	@ movhi
 2470 0c8e 1343     		orrs	r3, r3, r2
 2471 0c90 9AB2     		uxth	r2, r3
 2472 0c92 FB8A     		ldrh	r3, [r7, #22]	@ movhi
 2473 0c94 1343     		orrs	r3, r3, r2
 2474 0c96 FB82     		strh	r3, [r7, #22]	@ movhi
ARM GAS  /tmp/ccRayNMu.s 			page 66


1163:common/stm32f10x_tim.c ****   /* Write to TIMx SMCR */
1164:common/stm32f10x_tim.c ****   TIMx->SMCR = tmpsmcr;
 2475              		.loc 1 1164 0
 2476 0c98 FB68     		ldr	r3, [r7, #12]
 2477 0c9a FA8A     		ldrh	r2, [r7, #22]	@ movhi
 2478 0c9c 1A81     		strh	r2, [r3, #8]	@ movhi
1165:common/stm32f10x_tim.c **** }
 2479              		.loc 1 1165 0
 2480 0c9e 00BF     		nop
 2481 0ca0 1C37     		adds	r7, r7, #28
 2482              		.cfi_def_cfa_offset 4
 2483 0ca2 BD46     		mov	sp, r7
 2484              		.cfi_def_cfa_register 13
 2485              		@ sp needed
 2486 0ca4 80BC     		pop	{r7}
 2487              		.cfi_restore 7
 2488              		.cfi_def_cfa_offset 0
 2489 0ca6 7047     		bx	lr
 2490              		.cfi_endproc
 2491              	.LFE87:
 2492              		.size	TIM_ETRConfig, .-TIM_ETRConfig
 2493              		.align	1
 2494              		.global	TIM_PrescalerConfig
 2495              		.syntax unified
 2496              		.thumb
 2497              		.thumb_func
 2498              		.fpu softvfp
 2499              		.type	TIM_PrescalerConfig, %function
 2500              	TIM_PrescalerConfig:
 2501              	.LFB88:
1166:common/stm32f10x_tim.c **** 
1167:common/stm32f10x_tim.c **** /**
1168:common/stm32f10x_tim.c ****   * @brief  Configures the TIMx Prescaler.
1169:common/stm32f10x_tim.c ****   * @param  TIMx: where x can be 1 to 17 to select the TIM peripheral.
1170:common/stm32f10x_tim.c ****   * @param  Prescaler: specifies the Prescaler Register value
1171:common/stm32f10x_tim.c ****   * @param  TIM_PSCReloadMode: specifies the TIM Prescaler Reload mode
1172:common/stm32f10x_tim.c ****   *   This parameter can be one of the following values:
1173:common/stm32f10x_tim.c ****   *     @arg TIM_PSCReloadMode_Update: The Prescaler is loaded at the update event.
1174:common/stm32f10x_tim.c ****   *     @arg TIM_PSCReloadMode_Immediate: The Prescaler is loaded immediately.
1175:common/stm32f10x_tim.c ****   * @retval None
1176:common/stm32f10x_tim.c ****   */
1177:common/stm32f10x_tim.c **** void TIM_PrescalerConfig(TIM_TypeDef* TIMx, uint16_t Prescaler, uint16_t TIM_PSCReloadMode)
1178:common/stm32f10x_tim.c **** {
 2502              		.loc 1 1178 0
 2503              		.cfi_startproc
 2504              		@ args = 0, pretend = 0, frame = 8
 2505              		@ frame_needed = 1, uses_anonymous_args = 0
 2506              		@ link register save eliminated.
 2507 0ca8 80B4     		push	{r7}
 2508              		.cfi_def_cfa_offset 4
 2509              		.cfi_offset 7, -4
 2510 0caa 83B0     		sub	sp, sp, #12
 2511              		.cfi_def_cfa_offset 16
 2512 0cac 00AF     		add	r7, sp, #0
 2513              		.cfi_def_cfa_register 7
 2514 0cae 7860     		str	r0, [r7, #4]
 2515 0cb0 0B46     		mov	r3, r1
ARM GAS  /tmp/ccRayNMu.s 			page 67


 2516 0cb2 7B80     		strh	r3, [r7, #2]	@ movhi
 2517 0cb4 1346     		mov	r3, r2	@ movhi
 2518 0cb6 3B80     		strh	r3, [r7]	@ movhi
1179:common/stm32f10x_tim.c ****   /* Check the parameters */
1180:common/stm32f10x_tim.c ****   assert_param(IS_TIM_ALL_PERIPH(TIMx));
1181:common/stm32f10x_tim.c ****   assert_param(IS_TIM_PRESCALER_RELOAD(TIM_PSCReloadMode));
1182:common/stm32f10x_tim.c ****   /* Set the Prescaler value */
1183:common/stm32f10x_tim.c ****   TIMx->PSC = Prescaler;
 2519              		.loc 1 1183 0
 2520 0cb8 7B68     		ldr	r3, [r7, #4]
 2521 0cba 7A88     		ldrh	r2, [r7, #2]	@ movhi
 2522 0cbc 1A85     		strh	r2, [r3, #40]	@ movhi
1184:common/stm32f10x_tim.c ****   /* Set or reset the UG Bit */
1185:common/stm32f10x_tim.c ****   TIMx->EGR = TIM_PSCReloadMode;
 2523              		.loc 1 1185 0
 2524 0cbe 7B68     		ldr	r3, [r7, #4]
 2525 0cc0 3A88     		ldrh	r2, [r7]	@ movhi
 2526 0cc2 9A82     		strh	r2, [r3, #20]	@ movhi
1186:common/stm32f10x_tim.c **** }
 2527              		.loc 1 1186 0
 2528 0cc4 00BF     		nop
 2529 0cc6 0C37     		adds	r7, r7, #12
 2530              		.cfi_def_cfa_offset 4
 2531 0cc8 BD46     		mov	sp, r7
 2532              		.cfi_def_cfa_register 13
 2533              		@ sp needed
 2534 0cca 80BC     		pop	{r7}
 2535              		.cfi_restore 7
 2536              		.cfi_def_cfa_offset 0
 2537 0ccc 7047     		bx	lr
 2538              		.cfi_endproc
 2539              	.LFE88:
 2540              		.size	TIM_PrescalerConfig, .-TIM_PrescalerConfig
 2541              		.align	1
 2542              		.global	TIM_CounterModeConfig
 2543              		.syntax unified
 2544              		.thumb
 2545              		.thumb_func
 2546              		.fpu softvfp
 2547              		.type	TIM_CounterModeConfig, %function
 2548              	TIM_CounterModeConfig:
 2549              	.LFB89:
1187:common/stm32f10x_tim.c **** 
1188:common/stm32f10x_tim.c **** /**
1189:common/stm32f10x_tim.c ****   * @brief  Specifies the TIMx Counter Mode to be used.
1190:common/stm32f10x_tim.c ****   * @param  TIMx: where x can be  1, 2, 3, 4, 5 or 8 to select the TIM peripheral.
1191:common/stm32f10x_tim.c ****   * @param  TIM_CounterMode: specifies the Counter Mode to be used
1192:common/stm32f10x_tim.c ****   *   This parameter can be one of the following values:
1193:common/stm32f10x_tim.c ****   *     @arg TIM_CounterMode_Up: TIM Up Counting Mode
1194:common/stm32f10x_tim.c ****   *     @arg TIM_CounterMode_Down: TIM Down Counting Mode
1195:common/stm32f10x_tim.c ****   *     @arg TIM_CounterMode_CenterAligned1: TIM Center Aligned Mode1
1196:common/stm32f10x_tim.c ****   *     @arg TIM_CounterMode_CenterAligned2: TIM Center Aligned Mode2
1197:common/stm32f10x_tim.c ****   *     @arg TIM_CounterMode_CenterAligned3: TIM Center Aligned Mode3
1198:common/stm32f10x_tim.c ****   * @retval None
1199:common/stm32f10x_tim.c ****   */
1200:common/stm32f10x_tim.c **** void TIM_CounterModeConfig(TIM_TypeDef* TIMx, uint16_t TIM_CounterMode)
1201:common/stm32f10x_tim.c **** {
ARM GAS  /tmp/ccRayNMu.s 			page 68


 2550              		.loc 1 1201 0
 2551              		.cfi_startproc
 2552              		@ args = 0, pretend = 0, frame = 16
 2553              		@ frame_needed = 1, uses_anonymous_args = 0
 2554              		@ link register save eliminated.
 2555 0cce 80B4     		push	{r7}
 2556              		.cfi_def_cfa_offset 4
 2557              		.cfi_offset 7, -4
 2558 0cd0 85B0     		sub	sp, sp, #20
 2559              		.cfi_def_cfa_offset 24
 2560 0cd2 00AF     		add	r7, sp, #0
 2561              		.cfi_def_cfa_register 7
 2562 0cd4 7860     		str	r0, [r7, #4]
 2563 0cd6 0B46     		mov	r3, r1
 2564 0cd8 7B80     		strh	r3, [r7, #2]	@ movhi
1202:common/stm32f10x_tim.c ****   uint16_t tmpcr1 = 0;
 2565              		.loc 1 1202 0
 2566 0cda 0023     		movs	r3, #0
 2567 0cdc FB81     		strh	r3, [r7, #14]	@ movhi
1203:common/stm32f10x_tim.c ****   /* Check the parameters */
1204:common/stm32f10x_tim.c ****   assert_param(IS_TIM_LIST3_PERIPH(TIMx));
1205:common/stm32f10x_tim.c ****   assert_param(IS_TIM_COUNTER_MODE(TIM_CounterMode));
1206:common/stm32f10x_tim.c ****   tmpcr1 = TIMx->CR1;
 2568              		.loc 1 1206 0
 2569 0cde 7B68     		ldr	r3, [r7, #4]
 2570 0ce0 1B88     		ldrh	r3, [r3]	@ movhi
 2571 0ce2 FB81     		strh	r3, [r7, #14]	@ movhi
1207:common/stm32f10x_tim.c ****   /* Reset the CMS and DIR Bits */
1208:common/stm32f10x_tim.c ****   tmpcr1 &= (uint16_t)(~((uint16_t)(TIM_CR1_DIR | TIM_CR1_CMS)));
 2572              		.loc 1 1208 0
 2573 0ce4 FB89     		ldrh	r3, [r7, #14]	@ movhi
 2574 0ce6 23F07003 		bic	r3, r3, #112
 2575 0cea FB81     		strh	r3, [r7, #14]	@ movhi
1209:common/stm32f10x_tim.c ****   /* Set the Counter Mode */
1210:common/stm32f10x_tim.c ****   tmpcr1 |= TIM_CounterMode;
 2576              		.loc 1 1210 0
 2577 0cec FA89     		ldrh	r2, [r7, #14]	@ movhi
 2578 0cee 7B88     		ldrh	r3, [r7, #2]	@ movhi
 2579 0cf0 1343     		orrs	r3, r3, r2
 2580 0cf2 FB81     		strh	r3, [r7, #14]	@ movhi
1211:common/stm32f10x_tim.c ****   /* Write to TIMx CR1 register */
1212:common/stm32f10x_tim.c ****   TIMx->CR1 = tmpcr1;
 2581              		.loc 1 1212 0
 2582 0cf4 7B68     		ldr	r3, [r7, #4]
 2583 0cf6 FA89     		ldrh	r2, [r7, #14]	@ movhi
 2584 0cf8 1A80     		strh	r2, [r3]	@ movhi
1213:common/stm32f10x_tim.c **** }
 2585              		.loc 1 1213 0
 2586 0cfa 00BF     		nop
 2587 0cfc 1437     		adds	r7, r7, #20
 2588              		.cfi_def_cfa_offset 4
 2589 0cfe BD46     		mov	sp, r7
 2590              		.cfi_def_cfa_register 13
 2591              		@ sp needed
 2592 0d00 80BC     		pop	{r7}
 2593              		.cfi_restore 7
 2594              		.cfi_def_cfa_offset 0
ARM GAS  /tmp/ccRayNMu.s 			page 69


 2595 0d02 7047     		bx	lr
 2596              		.cfi_endproc
 2597              	.LFE89:
 2598              		.size	TIM_CounterModeConfig, .-TIM_CounterModeConfig
 2599              		.align	1
 2600              		.global	TIM_SelectInputTrigger
 2601              		.syntax unified
 2602              		.thumb
 2603              		.thumb_func
 2604              		.fpu softvfp
 2605              		.type	TIM_SelectInputTrigger, %function
 2606              	TIM_SelectInputTrigger:
 2607              	.LFB90:
1214:common/stm32f10x_tim.c **** 
1215:common/stm32f10x_tim.c **** /**
1216:common/stm32f10x_tim.c ****   * @brief  Selects the Input Trigger source
1217:common/stm32f10x_tim.c ****   * @param  TIMx: where x can be  1, 2, 3, 4, 5, 8, 9, 12 or 15 to select the TIM peripheral.
1218:common/stm32f10x_tim.c ****   * @param  TIM_InputTriggerSource: The Input Trigger source.
1219:common/stm32f10x_tim.c ****   *   This parameter can be one of the following values:
1220:common/stm32f10x_tim.c ****   *     @arg TIM_TS_ITR0: Internal Trigger 0
1221:common/stm32f10x_tim.c ****   *     @arg TIM_TS_ITR1: Internal Trigger 1
1222:common/stm32f10x_tim.c ****   *     @arg TIM_TS_ITR2: Internal Trigger 2
1223:common/stm32f10x_tim.c ****   *     @arg TIM_TS_ITR3: Internal Trigger 3
1224:common/stm32f10x_tim.c ****   *     @arg TIM_TS_TI1F_ED: TI1 Edge Detector
1225:common/stm32f10x_tim.c ****   *     @arg TIM_TS_TI1FP1: Filtered Timer Input 1
1226:common/stm32f10x_tim.c ****   *     @arg TIM_TS_TI2FP2: Filtered Timer Input 2
1227:common/stm32f10x_tim.c ****   *     @arg TIM_TS_ETRF: External Trigger input
1228:common/stm32f10x_tim.c ****   * @retval None
1229:common/stm32f10x_tim.c ****   */
1230:common/stm32f10x_tim.c **** void TIM_SelectInputTrigger(TIM_TypeDef* TIMx, uint16_t TIM_InputTriggerSource)
1231:common/stm32f10x_tim.c **** {
 2608              		.loc 1 1231 0
 2609              		.cfi_startproc
 2610              		@ args = 0, pretend = 0, frame = 16
 2611              		@ frame_needed = 1, uses_anonymous_args = 0
 2612              		@ link register save eliminated.
 2613 0d04 80B4     		push	{r7}
 2614              		.cfi_def_cfa_offset 4
 2615              		.cfi_offset 7, -4
 2616 0d06 85B0     		sub	sp, sp, #20
 2617              		.cfi_def_cfa_offset 24
 2618 0d08 00AF     		add	r7, sp, #0
 2619              		.cfi_def_cfa_register 7
 2620 0d0a 7860     		str	r0, [r7, #4]
 2621 0d0c 0B46     		mov	r3, r1
 2622 0d0e 7B80     		strh	r3, [r7, #2]	@ movhi
1232:common/stm32f10x_tim.c ****   uint16_t tmpsmcr = 0;
 2623              		.loc 1 1232 0
 2624 0d10 0023     		movs	r3, #0
 2625 0d12 FB81     		strh	r3, [r7, #14]	@ movhi
1233:common/stm32f10x_tim.c ****   /* Check the parameters */
1234:common/stm32f10x_tim.c ****   assert_param(IS_TIM_LIST6_PERIPH(TIMx));
1235:common/stm32f10x_tim.c ****   assert_param(IS_TIM_TRIGGER_SELECTION(TIM_InputTriggerSource));
1236:common/stm32f10x_tim.c ****   /* Get the TIMx SMCR register value */
1237:common/stm32f10x_tim.c ****   tmpsmcr = TIMx->SMCR;
 2626              		.loc 1 1237 0
 2627 0d14 7B68     		ldr	r3, [r7, #4]
ARM GAS  /tmp/ccRayNMu.s 			page 70


 2628 0d16 1B89     		ldrh	r3, [r3, #8]	@ movhi
 2629 0d18 FB81     		strh	r3, [r7, #14]	@ movhi
1238:common/stm32f10x_tim.c ****   /* Reset the TS Bits */
1239:common/stm32f10x_tim.c ****   tmpsmcr &= (uint16_t)(~((uint16_t)TIM_SMCR_TS));
 2630              		.loc 1 1239 0
 2631 0d1a FB89     		ldrh	r3, [r7, #14]	@ movhi
 2632 0d1c 23F07003 		bic	r3, r3, #112
 2633 0d20 FB81     		strh	r3, [r7, #14]	@ movhi
1240:common/stm32f10x_tim.c ****   /* Set the Input Trigger source */
1241:common/stm32f10x_tim.c ****   tmpsmcr |= TIM_InputTriggerSource;
 2634              		.loc 1 1241 0
 2635 0d22 FA89     		ldrh	r2, [r7, #14]	@ movhi
 2636 0d24 7B88     		ldrh	r3, [r7, #2]	@ movhi
 2637 0d26 1343     		orrs	r3, r3, r2
 2638 0d28 FB81     		strh	r3, [r7, #14]	@ movhi
1242:common/stm32f10x_tim.c ****   /* Write to TIMx SMCR */
1243:common/stm32f10x_tim.c ****   TIMx->SMCR = tmpsmcr;
 2639              		.loc 1 1243 0
 2640 0d2a 7B68     		ldr	r3, [r7, #4]
 2641 0d2c FA89     		ldrh	r2, [r7, #14]	@ movhi
 2642 0d2e 1A81     		strh	r2, [r3, #8]	@ movhi
1244:common/stm32f10x_tim.c **** }
 2643              		.loc 1 1244 0
 2644 0d30 00BF     		nop
 2645 0d32 1437     		adds	r7, r7, #20
 2646              		.cfi_def_cfa_offset 4
 2647 0d34 BD46     		mov	sp, r7
 2648              		.cfi_def_cfa_register 13
 2649              		@ sp needed
 2650 0d36 80BC     		pop	{r7}
 2651              		.cfi_restore 7
 2652              		.cfi_def_cfa_offset 0
 2653 0d38 7047     		bx	lr
 2654              		.cfi_endproc
 2655              	.LFE90:
 2656              		.size	TIM_SelectInputTrigger, .-TIM_SelectInputTrigger
 2657              		.align	1
 2658              		.global	TIM_EncoderInterfaceConfig
 2659              		.syntax unified
 2660              		.thumb
 2661              		.thumb_func
 2662              		.fpu softvfp
 2663              		.type	TIM_EncoderInterfaceConfig, %function
 2664              	TIM_EncoderInterfaceConfig:
 2665              	.LFB91:
1245:common/stm32f10x_tim.c **** 
1246:common/stm32f10x_tim.c **** /**
1247:common/stm32f10x_tim.c ****   * @brief  Configures the TIMx Encoder Interface.
1248:common/stm32f10x_tim.c ****   * @param  TIMx: where x can be  1, 2, 3, 4, 5 or 8 to select the TIM peripheral.
1249:common/stm32f10x_tim.c ****   * @param  TIM_EncoderMode: specifies the TIMx Encoder Mode.
1250:common/stm32f10x_tim.c ****   *   This parameter can be one of the following values:
1251:common/stm32f10x_tim.c ****   *     @arg TIM_EncoderMode_TI1: Counter counts on TI1FP1 edge depending on TI2FP2 level.
1252:common/stm32f10x_tim.c ****   *     @arg TIM_EncoderMode_TI2: Counter counts on TI2FP2 edge depending on TI1FP1 level.
1253:common/stm32f10x_tim.c ****   *     @arg TIM_EncoderMode_TI12: Counter counts on both TI1FP1 and TI2FP2 edges depending
1254:common/stm32f10x_tim.c ****   *                                on the level of the other input.
1255:common/stm32f10x_tim.c ****   * @param  TIM_IC1Polarity: specifies the IC1 Polarity
1256:common/stm32f10x_tim.c ****   *   This parameter can be one of the following values:
ARM GAS  /tmp/ccRayNMu.s 			page 71


1257:common/stm32f10x_tim.c ****   *     @arg TIM_ICPolarity_Falling: IC Falling edge.
1258:common/stm32f10x_tim.c ****   *     @arg TIM_ICPolarity_Rising: IC Rising edge.
1259:common/stm32f10x_tim.c ****   * @param  TIM_IC2Polarity: specifies the IC2 Polarity
1260:common/stm32f10x_tim.c ****   *   This parameter can be one of the following values:
1261:common/stm32f10x_tim.c ****   *     @arg TIM_ICPolarity_Falling: IC Falling edge.
1262:common/stm32f10x_tim.c ****   *     @arg TIM_ICPolarity_Rising: IC Rising edge.
1263:common/stm32f10x_tim.c ****   * @retval None
1264:common/stm32f10x_tim.c ****   */
1265:common/stm32f10x_tim.c **** void TIM_EncoderInterfaceConfig(TIM_TypeDef* TIMx, uint16_t TIM_EncoderMode,
1266:common/stm32f10x_tim.c ****                                 uint16_t TIM_IC1Polarity, uint16_t TIM_IC2Polarity)
1267:common/stm32f10x_tim.c **** {
 2666              		.loc 1 1267 0
 2667              		.cfi_startproc
 2668              		@ args = 0, pretend = 0, frame = 24
 2669              		@ frame_needed = 1, uses_anonymous_args = 0
 2670              		@ link register save eliminated.
 2671 0d3a 80B4     		push	{r7}
 2672              		.cfi_def_cfa_offset 4
 2673              		.cfi_offset 7, -4
 2674 0d3c 87B0     		sub	sp, sp, #28
 2675              		.cfi_def_cfa_offset 32
 2676 0d3e 00AF     		add	r7, sp, #0
 2677              		.cfi_def_cfa_register 7
 2678 0d40 F860     		str	r0, [r7, #12]
 2679 0d42 0846     		mov	r0, r1
 2680 0d44 1146     		mov	r1, r2
 2681 0d46 1A46     		mov	r2, r3
 2682 0d48 0346     		mov	r3, r0	@ movhi
 2683 0d4a 7B81     		strh	r3, [r7, #10]	@ movhi
 2684 0d4c 0B46     		mov	r3, r1	@ movhi
 2685 0d4e 3B81     		strh	r3, [r7, #8]	@ movhi
 2686 0d50 1346     		mov	r3, r2	@ movhi
 2687 0d52 FB80     		strh	r3, [r7, #6]	@ movhi
1268:common/stm32f10x_tim.c ****   uint16_t tmpsmcr = 0;
 2688              		.loc 1 1268 0
 2689 0d54 0023     		movs	r3, #0
 2690 0d56 FB82     		strh	r3, [r7, #22]	@ movhi
1269:common/stm32f10x_tim.c ****   uint16_t tmpccmr1 = 0;
 2691              		.loc 1 1269 0
 2692 0d58 0023     		movs	r3, #0
 2693 0d5a BB82     		strh	r3, [r7, #20]	@ movhi
1270:common/stm32f10x_tim.c ****   uint16_t tmpccer = 0;
 2694              		.loc 1 1270 0
 2695 0d5c 0023     		movs	r3, #0
 2696 0d5e 7B82     		strh	r3, [r7, #18]	@ movhi
1271:common/stm32f10x_tim.c ****     
1272:common/stm32f10x_tim.c ****   /* Check the parameters */
1273:common/stm32f10x_tim.c ****   assert_param(IS_TIM_LIST5_PERIPH(TIMx));
1274:common/stm32f10x_tim.c ****   assert_param(IS_TIM_ENCODER_MODE(TIM_EncoderMode));
1275:common/stm32f10x_tim.c ****   assert_param(IS_TIM_IC_POLARITY(TIM_IC1Polarity));
1276:common/stm32f10x_tim.c ****   assert_param(IS_TIM_IC_POLARITY(TIM_IC2Polarity));
1277:common/stm32f10x_tim.c **** 
1278:common/stm32f10x_tim.c ****   /* Get the TIMx SMCR register value */
1279:common/stm32f10x_tim.c ****   tmpsmcr = TIMx->SMCR;
 2697              		.loc 1 1279 0
 2698 0d60 FB68     		ldr	r3, [r7, #12]
 2699 0d62 1B89     		ldrh	r3, [r3, #8]	@ movhi
ARM GAS  /tmp/ccRayNMu.s 			page 72


 2700 0d64 FB82     		strh	r3, [r7, #22]	@ movhi
1280:common/stm32f10x_tim.c ****   
1281:common/stm32f10x_tim.c ****   /* Get the TIMx CCMR1 register value */
1282:common/stm32f10x_tim.c ****   tmpccmr1 = TIMx->CCMR1;
 2701              		.loc 1 1282 0
 2702 0d66 FB68     		ldr	r3, [r7, #12]
 2703 0d68 1B8B     		ldrh	r3, [r3, #24]	@ movhi
 2704 0d6a BB82     		strh	r3, [r7, #20]	@ movhi
1283:common/stm32f10x_tim.c ****   
1284:common/stm32f10x_tim.c ****   /* Get the TIMx CCER register value */
1285:common/stm32f10x_tim.c ****   tmpccer = TIMx->CCER;
 2705              		.loc 1 1285 0
 2706 0d6c FB68     		ldr	r3, [r7, #12]
 2707 0d6e 1B8C     		ldrh	r3, [r3, #32]	@ movhi
 2708 0d70 7B82     		strh	r3, [r7, #18]	@ movhi
1286:common/stm32f10x_tim.c ****   
1287:common/stm32f10x_tim.c ****   /* Set the encoder Mode */
1288:common/stm32f10x_tim.c ****   tmpsmcr &= (uint16_t)(~((uint16_t)TIM_SMCR_SMS));
 2709              		.loc 1 1288 0
 2710 0d72 FB8A     		ldrh	r3, [r7, #22]	@ movhi
 2711 0d74 23F00703 		bic	r3, r3, #7
 2712 0d78 FB82     		strh	r3, [r7, #22]	@ movhi
1289:common/stm32f10x_tim.c ****   tmpsmcr |= TIM_EncoderMode;
 2713              		.loc 1 1289 0
 2714 0d7a FA8A     		ldrh	r2, [r7, #22]	@ movhi
 2715 0d7c 7B89     		ldrh	r3, [r7, #10]	@ movhi
 2716 0d7e 1343     		orrs	r3, r3, r2
 2717 0d80 FB82     		strh	r3, [r7, #22]	@ movhi
1290:common/stm32f10x_tim.c ****   
1291:common/stm32f10x_tim.c ****   /* Select the Capture Compare 1 and the Capture Compare 2 as input */
1292:common/stm32f10x_tim.c ****   tmpccmr1 &= (uint16_t)(((uint16_t)~((uint16_t)TIM_CCMR1_CC1S)) & (uint16_t)(~((uint16_t)TIM_CCMR1
 2718              		.loc 1 1292 0
 2719 0d82 BB8A     		ldrh	r3, [r7, #20]	@ movhi
 2720 0d84 23F44073 		bic	r3, r3, #768
 2721 0d88 23F00303 		bic	r3, r3, #3
 2722 0d8c BB82     		strh	r3, [r7, #20]	@ movhi
1293:common/stm32f10x_tim.c ****   tmpccmr1 |= TIM_CCMR1_CC1S_0 | TIM_CCMR1_CC2S_0;
 2723              		.loc 1 1293 0
 2724 0d8e BB8A     		ldrh	r3, [r7, #20]	@ movhi
 2725 0d90 43F48073 		orr	r3, r3, #256
 2726 0d94 43F00103 		orr	r3, r3, #1
 2727 0d98 BB82     		strh	r3, [r7, #20]	@ movhi
1294:common/stm32f10x_tim.c ****   
1295:common/stm32f10x_tim.c ****   /* Set the TI1 and the TI2 Polarities */
1296:common/stm32f10x_tim.c ****   tmpccer &= (uint16_t)(((uint16_t)~((uint16_t)TIM_CCER_CC1P)) & ((uint16_t)~((uint16_t)TIM_CCER_CC
 2728              		.loc 1 1296 0
 2729 0d9a 7B8A     		ldrh	r3, [r7, #18]	@ movhi
 2730 0d9c 23F02203 		bic	r3, r3, #34
 2731 0da0 7B82     		strh	r3, [r7, #18]	@ movhi
1297:common/stm32f10x_tim.c ****   tmpccer |= (uint16_t)(TIM_IC1Polarity | (uint16_t)(TIM_IC2Polarity << (uint16_t)4));
 2732              		.loc 1 1297 0
 2733 0da2 FB88     		ldrh	r3, [r7, #6]	@ movhi
 2734 0da4 1B01     		lsls	r3, r3, #4
 2735 0da6 9AB2     		uxth	r2, r3
 2736 0da8 3B89     		ldrh	r3, [r7, #8]	@ movhi
 2737 0daa 1343     		orrs	r3, r3, r2
 2738 0dac 9AB2     		uxth	r2, r3
ARM GAS  /tmp/ccRayNMu.s 			page 73


 2739 0dae 7B8A     		ldrh	r3, [r7, #18]	@ movhi
 2740 0db0 1343     		orrs	r3, r3, r2
 2741 0db2 7B82     		strh	r3, [r7, #18]	@ movhi
1298:common/stm32f10x_tim.c ****   
1299:common/stm32f10x_tim.c ****   /* Write to TIMx SMCR */
1300:common/stm32f10x_tim.c ****   TIMx->SMCR = tmpsmcr;
 2742              		.loc 1 1300 0
 2743 0db4 FB68     		ldr	r3, [r7, #12]
 2744 0db6 FA8A     		ldrh	r2, [r7, #22]	@ movhi
 2745 0db8 1A81     		strh	r2, [r3, #8]	@ movhi
1301:common/stm32f10x_tim.c ****   /* Write to TIMx CCMR1 */
1302:common/stm32f10x_tim.c ****   TIMx->CCMR1 = tmpccmr1;
 2746              		.loc 1 1302 0
 2747 0dba FB68     		ldr	r3, [r7, #12]
 2748 0dbc BA8A     		ldrh	r2, [r7, #20]	@ movhi
 2749 0dbe 1A83     		strh	r2, [r3, #24]	@ movhi
1303:common/stm32f10x_tim.c ****   /* Write to TIMx CCER */
1304:common/stm32f10x_tim.c ****   TIMx->CCER = tmpccer;
 2750              		.loc 1 1304 0
 2751 0dc0 FB68     		ldr	r3, [r7, #12]
 2752 0dc2 7A8A     		ldrh	r2, [r7, #18]	@ movhi
 2753 0dc4 1A84     		strh	r2, [r3, #32]	@ movhi
1305:common/stm32f10x_tim.c **** }
 2754              		.loc 1 1305 0
 2755 0dc6 00BF     		nop
 2756 0dc8 1C37     		adds	r7, r7, #28
 2757              		.cfi_def_cfa_offset 4
 2758 0dca BD46     		mov	sp, r7
 2759              		.cfi_def_cfa_register 13
 2760              		@ sp needed
 2761 0dcc 80BC     		pop	{r7}
 2762              		.cfi_restore 7
 2763              		.cfi_def_cfa_offset 0
 2764 0dce 7047     		bx	lr
 2765              		.cfi_endproc
 2766              	.LFE91:
 2767              		.size	TIM_EncoderInterfaceConfig, .-TIM_EncoderInterfaceConfig
 2768              		.align	1
 2769              		.global	TIM_ForcedOC1Config
 2770              		.syntax unified
 2771              		.thumb
 2772              		.thumb_func
 2773              		.fpu softvfp
 2774              		.type	TIM_ForcedOC1Config, %function
 2775              	TIM_ForcedOC1Config:
 2776              	.LFB92:
1306:common/stm32f10x_tim.c **** 
1307:common/stm32f10x_tim.c **** /**
1308:common/stm32f10x_tim.c ****   * @brief  Forces the TIMx output 1 waveform to active or inactive level.
1309:common/stm32f10x_tim.c ****   * @param  TIMx: where x can be  1 to 17 except 6 and 7 to select the TIM peripheral.
1310:common/stm32f10x_tim.c ****   * @param  TIM_ForcedAction: specifies the forced Action to be set to the output waveform.
1311:common/stm32f10x_tim.c ****   *   This parameter can be one of the following values:
1312:common/stm32f10x_tim.c ****   *     @arg TIM_ForcedAction_Active: Force active level on OC1REF
1313:common/stm32f10x_tim.c ****   *     @arg TIM_ForcedAction_InActive: Force inactive level on OC1REF.
1314:common/stm32f10x_tim.c ****   * @retval None
1315:common/stm32f10x_tim.c ****   */
1316:common/stm32f10x_tim.c **** void TIM_ForcedOC1Config(TIM_TypeDef* TIMx, uint16_t TIM_ForcedAction)
ARM GAS  /tmp/ccRayNMu.s 			page 74


1317:common/stm32f10x_tim.c **** {
 2777              		.loc 1 1317 0
 2778              		.cfi_startproc
 2779              		@ args = 0, pretend = 0, frame = 16
 2780              		@ frame_needed = 1, uses_anonymous_args = 0
 2781              		@ link register save eliminated.
 2782 0dd0 80B4     		push	{r7}
 2783              		.cfi_def_cfa_offset 4
 2784              		.cfi_offset 7, -4
 2785 0dd2 85B0     		sub	sp, sp, #20
 2786              		.cfi_def_cfa_offset 24
 2787 0dd4 00AF     		add	r7, sp, #0
 2788              		.cfi_def_cfa_register 7
 2789 0dd6 7860     		str	r0, [r7, #4]
 2790 0dd8 0B46     		mov	r3, r1
 2791 0dda 7B80     		strh	r3, [r7, #2]	@ movhi
1318:common/stm32f10x_tim.c ****   uint16_t tmpccmr1 = 0;
 2792              		.loc 1 1318 0
 2793 0ddc 0023     		movs	r3, #0
 2794 0dde FB81     		strh	r3, [r7, #14]	@ movhi
1319:common/stm32f10x_tim.c ****   /* Check the parameters */
1320:common/stm32f10x_tim.c ****   assert_param(IS_TIM_LIST8_PERIPH(TIMx));
1321:common/stm32f10x_tim.c ****   assert_param(IS_TIM_FORCED_ACTION(TIM_ForcedAction));
1322:common/stm32f10x_tim.c ****   tmpccmr1 = TIMx->CCMR1;
 2795              		.loc 1 1322 0
 2796 0de0 7B68     		ldr	r3, [r7, #4]
 2797 0de2 1B8B     		ldrh	r3, [r3, #24]	@ movhi
 2798 0de4 FB81     		strh	r3, [r7, #14]	@ movhi
1323:common/stm32f10x_tim.c ****   /* Reset the OC1M Bits */
1324:common/stm32f10x_tim.c ****   tmpccmr1 &= (uint16_t)~((uint16_t)TIM_CCMR1_OC1M);
 2799              		.loc 1 1324 0
 2800 0de6 FB89     		ldrh	r3, [r7, #14]	@ movhi
 2801 0de8 23F07003 		bic	r3, r3, #112
 2802 0dec FB81     		strh	r3, [r7, #14]	@ movhi
1325:common/stm32f10x_tim.c ****   /* Configure The Forced output Mode */
1326:common/stm32f10x_tim.c ****   tmpccmr1 |= TIM_ForcedAction;
 2803              		.loc 1 1326 0
 2804 0dee FA89     		ldrh	r2, [r7, #14]	@ movhi
 2805 0df0 7B88     		ldrh	r3, [r7, #2]	@ movhi
 2806 0df2 1343     		orrs	r3, r3, r2
 2807 0df4 FB81     		strh	r3, [r7, #14]	@ movhi
1327:common/stm32f10x_tim.c ****   /* Write to TIMx CCMR1 register */
1328:common/stm32f10x_tim.c ****   TIMx->CCMR1 = tmpccmr1;
 2808              		.loc 1 1328 0
 2809 0df6 7B68     		ldr	r3, [r7, #4]
 2810 0df8 FA89     		ldrh	r2, [r7, #14]	@ movhi
 2811 0dfa 1A83     		strh	r2, [r3, #24]	@ movhi
1329:common/stm32f10x_tim.c **** }
 2812              		.loc 1 1329 0
 2813 0dfc 00BF     		nop
 2814 0dfe 1437     		adds	r7, r7, #20
 2815              		.cfi_def_cfa_offset 4
 2816 0e00 BD46     		mov	sp, r7
 2817              		.cfi_def_cfa_register 13
 2818              		@ sp needed
 2819 0e02 80BC     		pop	{r7}
 2820              		.cfi_restore 7
ARM GAS  /tmp/ccRayNMu.s 			page 75


 2821              		.cfi_def_cfa_offset 0
 2822 0e04 7047     		bx	lr
 2823              		.cfi_endproc
 2824              	.LFE92:
 2825              		.size	TIM_ForcedOC1Config, .-TIM_ForcedOC1Config
 2826              		.align	1
 2827              		.global	TIM_ForcedOC2Config
 2828              		.syntax unified
 2829              		.thumb
 2830              		.thumb_func
 2831              		.fpu softvfp
 2832              		.type	TIM_ForcedOC2Config, %function
 2833              	TIM_ForcedOC2Config:
 2834              	.LFB93:
1330:common/stm32f10x_tim.c **** 
1331:common/stm32f10x_tim.c **** /**
1332:common/stm32f10x_tim.c ****   * @brief  Forces the TIMx output 2 waveform to active or inactive level.
1333:common/stm32f10x_tim.c ****   * @param  TIMx: where x can be  1, 2, 3, 4, 5, 8, 9, 12 or 15 to select the TIM peripheral.
1334:common/stm32f10x_tim.c ****   * @param  TIM_ForcedAction: specifies the forced Action to be set to the output waveform.
1335:common/stm32f10x_tim.c ****   *   This parameter can be one of the following values:
1336:common/stm32f10x_tim.c ****   *     @arg TIM_ForcedAction_Active: Force active level on OC2REF
1337:common/stm32f10x_tim.c ****   *     @arg TIM_ForcedAction_InActive: Force inactive level on OC2REF.
1338:common/stm32f10x_tim.c ****   * @retval None
1339:common/stm32f10x_tim.c ****   */
1340:common/stm32f10x_tim.c **** void TIM_ForcedOC2Config(TIM_TypeDef* TIMx, uint16_t TIM_ForcedAction)
1341:common/stm32f10x_tim.c **** {
 2835              		.loc 1 1341 0
 2836              		.cfi_startproc
 2837              		@ args = 0, pretend = 0, frame = 16
 2838              		@ frame_needed = 1, uses_anonymous_args = 0
 2839              		@ link register save eliminated.
 2840 0e06 80B4     		push	{r7}
 2841              		.cfi_def_cfa_offset 4
 2842              		.cfi_offset 7, -4
 2843 0e08 85B0     		sub	sp, sp, #20
 2844              		.cfi_def_cfa_offset 24
 2845 0e0a 00AF     		add	r7, sp, #0
 2846              		.cfi_def_cfa_register 7
 2847 0e0c 7860     		str	r0, [r7, #4]
 2848 0e0e 0B46     		mov	r3, r1
 2849 0e10 7B80     		strh	r3, [r7, #2]	@ movhi
1342:common/stm32f10x_tim.c ****   uint16_t tmpccmr1 = 0;
 2850              		.loc 1 1342 0
 2851 0e12 0023     		movs	r3, #0
 2852 0e14 FB81     		strh	r3, [r7, #14]	@ movhi
1343:common/stm32f10x_tim.c ****   /* Check the parameters */
1344:common/stm32f10x_tim.c ****   assert_param(IS_TIM_LIST6_PERIPH(TIMx));
1345:common/stm32f10x_tim.c ****   assert_param(IS_TIM_FORCED_ACTION(TIM_ForcedAction));
1346:common/stm32f10x_tim.c ****   tmpccmr1 = TIMx->CCMR1;
 2853              		.loc 1 1346 0
 2854 0e16 7B68     		ldr	r3, [r7, #4]
 2855 0e18 1B8B     		ldrh	r3, [r3, #24]	@ movhi
 2856 0e1a FB81     		strh	r3, [r7, #14]	@ movhi
1347:common/stm32f10x_tim.c ****   /* Reset the OC2M Bits */
1348:common/stm32f10x_tim.c ****   tmpccmr1 &= (uint16_t)~((uint16_t)TIM_CCMR1_OC2M);
 2857              		.loc 1 1348 0
 2858 0e1c FB89     		ldrh	r3, [r7, #14]	@ movhi
ARM GAS  /tmp/ccRayNMu.s 			page 76


 2859 0e1e 23F4E043 		bic	r3, r3, #28672
 2860 0e22 FB81     		strh	r3, [r7, #14]	@ movhi
1349:common/stm32f10x_tim.c ****   /* Configure The Forced output Mode */
1350:common/stm32f10x_tim.c ****   tmpccmr1 |= (uint16_t)(TIM_ForcedAction << 8);
 2861              		.loc 1 1350 0
 2862 0e24 7B88     		ldrh	r3, [r7, #2]	@ movhi
 2863 0e26 1B02     		lsls	r3, r3, #8
 2864 0e28 9AB2     		uxth	r2, r3
 2865 0e2a FB89     		ldrh	r3, [r7, #14]	@ movhi
 2866 0e2c 1343     		orrs	r3, r3, r2
 2867 0e2e FB81     		strh	r3, [r7, #14]	@ movhi
1351:common/stm32f10x_tim.c ****   /* Write to TIMx CCMR1 register */
1352:common/stm32f10x_tim.c ****   TIMx->CCMR1 = tmpccmr1;
 2868              		.loc 1 1352 0
 2869 0e30 7B68     		ldr	r3, [r7, #4]
 2870 0e32 FA89     		ldrh	r2, [r7, #14]	@ movhi
 2871 0e34 1A83     		strh	r2, [r3, #24]	@ movhi
1353:common/stm32f10x_tim.c **** }
 2872              		.loc 1 1353 0
 2873 0e36 00BF     		nop
 2874 0e38 1437     		adds	r7, r7, #20
 2875              		.cfi_def_cfa_offset 4
 2876 0e3a BD46     		mov	sp, r7
 2877              		.cfi_def_cfa_register 13
 2878              		@ sp needed
 2879 0e3c 80BC     		pop	{r7}
 2880              		.cfi_restore 7
 2881              		.cfi_def_cfa_offset 0
 2882 0e3e 7047     		bx	lr
 2883              		.cfi_endproc
 2884              	.LFE93:
 2885              		.size	TIM_ForcedOC2Config, .-TIM_ForcedOC2Config
 2886              		.align	1
 2887              		.global	TIM_ForcedOC3Config
 2888              		.syntax unified
 2889              		.thumb
 2890              		.thumb_func
 2891              		.fpu softvfp
 2892              		.type	TIM_ForcedOC3Config, %function
 2893              	TIM_ForcedOC3Config:
 2894              	.LFB94:
1354:common/stm32f10x_tim.c **** 
1355:common/stm32f10x_tim.c **** /**
1356:common/stm32f10x_tim.c ****   * @brief  Forces the TIMx output 3 waveform to active or inactive level.
1357:common/stm32f10x_tim.c ****   * @param  TIMx: where x can be  1, 2, 3, 4, 5 or 8 to select the TIM peripheral.
1358:common/stm32f10x_tim.c ****   * @param  TIM_ForcedAction: specifies the forced Action to be set to the output waveform.
1359:common/stm32f10x_tim.c ****   *   This parameter can be one of the following values:
1360:common/stm32f10x_tim.c ****   *     @arg TIM_ForcedAction_Active: Force active level on OC3REF
1361:common/stm32f10x_tim.c ****   *     @arg TIM_ForcedAction_InActive: Force inactive level on OC3REF.
1362:common/stm32f10x_tim.c ****   * @retval None
1363:common/stm32f10x_tim.c ****   */
1364:common/stm32f10x_tim.c **** void TIM_ForcedOC3Config(TIM_TypeDef* TIMx, uint16_t TIM_ForcedAction)
1365:common/stm32f10x_tim.c **** {
 2895              		.loc 1 1365 0
 2896              		.cfi_startproc
 2897              		@ args = 0, pretend = 0, frame = 16
 2898              		@ frame_needed = 1, uses_anonymous_args = 0
ARM GAS  /tmp/ccRayNMu.s 			page 77


 2899              		@ link register save eliminated.
 2900 0e40 80B4     		push	{r7}
 2901              		.cfi_def_cfa_offset 4
 2902              		.cfi_offset 7, -4
 2903 0e42 85B0     		sub	sp, sp, #20
 2904              		.cfi_def_cfa_offset 24
 2905 0e44 00AF     		add	r7, sp, #0
 2906              		.cfi_def_cfa_register 7
 2907 0e46 7860     		str	r0, [r7, #4]
 2908 0e48 0B46     		mov	r3, r1
 2909 0e4a 7B80     		strh	r3, [r7, #2]	@ movhi
1366:common/stm32f10x_tim.c ****   uint16_t tmpccmr2 = 0;
 2910              		.loc 1 1366 0
 2911 0e4c 0023     		movs	r3, #0
 2912 0e4e FB81     		strh	r3, [r7, #14]	@ movhi
1367:common/stm32f10x_tim.c ****   /* Check the parameters */
1368:common/stm32f10x_tim.c ****   assert_param(IS_TIM_LIST3_PERIPH(TIMx));
1369:common/stm32f10x_tim.c ****   assert_param(IS_TIM_FORCED_ACTION(TIM_ForcedAction));
1370:common/stm32f10x_tim.c ****   tmpccmr2 = TIMx->CCMR2;
 2913              		.loc 1 1370 0
 2914 0e50 7B68     		ldr	r3, [r7, #4]
 2915 0e52 9B8B     		ldrh	r3, [r3, #28]	@ movhi
 2916 0e54 FB81     		strh	r3, [r7, #14]	@ movhi
1371:common/stm32f10x_tim.c ****   /* Reset the OC1M Bits */
1372:common/stm32f10x_tim.c ****   tmpccmr2 &= (uint16_t)~((uint16_t)TIM_CCMR2_OC3M);
 2917              		.loc 1 1372 0
 2918 0e56 FB89     		ldrh	r3, [r7, #14]	@ movhi
 2919 0e58 23F07003 		bic	r3, r3, #112
 2920 0e5c FB81     		strh	r3, [r7, #14]	@ movhi
1373:common/stm32f10x_tim.c ****   /* Configure The Forced output Mode */
1374:common/stm32f10x_tim.c ****   tmpccmr2 |= TIM_ForcedAction;
 2921              		.loc 1 1374 0
 2922 0e5e FA89     		ldrh	r2, [r7, #14]	@ movhi
 2923 0e60 7B88     		ldrh	r3, [r7, #2]	@ movhi
 2924 0e62 1343     		orrs	r3, r3, r2
 2925 0e64 FB81     		strh	r3, [r7, #14]	@ movhi
1375:common/stm32f10x_tim.c ****   /* Write to TIMx CCMR2 register */
1376:common/stm32f10x_tim.c ****   TIMx->CCMR2 = tmpccmr2;
 2926              		.loc 1 1376 0
 2927 0e66 7B68     		ldr	r3, [r7, #4]
 2928 0e68 FA89     		ldrh	r2, [r7, #14]	@ movhi
 2929 0e6a 9A83     		strh	r2, [r3, #28]	@ movhi
1377:common/stm32f10x_tim.c **** }
 2930              		.loc 1 1377 0
 2931 0e6c 00BF     		nop
 2932 0e6e 1437     		adds	r7, r7, #20
 2933              		.cfi_def_cfa_offset 4
 2934 0e70 BD46     		mov	sp, r7
 2935              		.cfi_def_cfa_register 13
 2936              		@ sp needed
 2937 0e72 80BC     		pop	{r7}
 2938              		.cfi_restore 7
 2939              		.cfi_def_cfa_offset 0
 2940 0e74 7047     		bx	lr
 2941              		.cfi_endproc
 2942              	.LFE94:
 2943              		.size	TIM_ForcedOC3Config, .-TIM_ForcedOC3Config
ARM GAS  /tmp/ccRayNMu.s 			page 78


 2944              		.align	1
 2945              		.global	TIM_ForcedOC4Config
 2946              		.syntax unified
 2947              		.thumb
 2948              		.thumb_func
 2949              		.fpu softvfp
 2950              		.type	TIM_ForcedOC4Config, %function
 2951              	TIM_ForcedOC4Config:
 2952              	.LFB95:
1378:common/stm32f10x_tim.c **** 
1379:common/stm32f10x_tim.c **** /**
1380:common/stm32f10x_tim.c ****   * @brief  Forces the TIMx output 4 waveform to active or inactive level.
1381:common/stm32f10x_tim.c ****   * @param  TIMx: where x can be  1, 2, 3, 4, 5 or 8 to select the TIM peripheral.
1382:common/stm32f10x_tim.c ****   * @param  TIM_ForcedAction: specifies the forced Action to be set to the output waveform.
1383:common/stm32f10x_tim.c ****   *   This parameter can be one of the following values:
1384:common/stm32f10x_tim.c ****   *     @arg TIM_ForcedAction_Active: Force active level on OC4REF
1385:common/stm32f10x_tim.c ****   *     @arg TIM_ForcedAction_InActive: Force inactive level on OC4REF.
1386:common/stm32f10x_tim.c ****   * @retval None
1387:common/stm32f10x_tim.c ****   */
1388:common/stm32f10x_tim.c **** void TIM_ForcedOC4Config(TIM_TypeDef* TIMx, uint16_t TIM_ForcedAction)
1389:common/stm32f10x_tim.c **** {
 2953              		.loc 1 1389 0
 2954              		.cfi_startproc
 2955              		@ args = 0, pretend = 0, frame = 16
 2956              		@ frame_needed = 1, uses_anonymous_args = 0
 2957              		@ link register save eliminated.
 2958 0e76 80B4     		push	{r7}
 2959              		.cfi_def_cfa_offset 4
 2960              		.cfi_offset 7, -4
 2961 0e78 85B0     		sub	sp, sp, #20
 2962              		.cfi_def_cfa_offset 24
 2963 0e7a 00AF     		add	r7, sp, #0
 2964              		.cfi_def_cfa_register 7
 2965 0e7c 7860     		str	r0, [r7, #4]
 2966 0e7e 0B46     		mov	r3, r1
 2967 0e80 7B80     		strh	r3, [r7, #2]	@ movhi
1390:common/stm32f10x_tim.c ****   uint16_t tmpccmr2 = 0;
 2968              		.loc 1 1390 0
 2969 0e82 0023     		movs	r3, #0
 2970 0e84 FB81     		strh	r3, [r7, #14]	@ movhi
1391:common/stm32f10x_tim.c ****   /* Check the parameters */
1392:common/stm32f10x_tim.c ****   assert_param(IS_TIM_LIST3_PERIPH(TIMx));
1393:common/stm32f10x_tim.c ****   assert_param(IS_TIM_FORCED_ACTION(TIM_ForcedAction));
1394:common/stm32f10x_tim.c ****   tmpccmr2 = TIMx->CCMR2;
 2971              		.loc 1 1394 0
 2972 0e86 7B68     		ldr	r3, [r7, #4]
 2973 0e88 9B8B     		ldrh	r3, [r3, #28]	@ movhi
 2974 0e8a FB81     		strh	r3, [r7, #14]	@ movhi
1395:common/stm32f10x_tim.c ****   /* Reset the OC2M Bits */
1396:common/stm32f10x_tim.c ****   tmpccmr2 &= (uint16_t)~((uint16_t)TIM_CCMR2_OC4M);
 2975              		.loc 1 1396 0
 2976 0e8c FB89     		ldrh	r3, [r7, #14]	@ movhi
 2977 0e8e 23F4E043 		bic	r3, r3, #28672
 2978 0e92 FB81     		strh	r3, [r7, #14]	@ movhi
1397:common/stm32f10x_tim.c ****   /* Configure The Forced output Mode */
1398:common/stm32f10x_tim.c ****   tmpccmr2 |= (uint16_t)(TIM_ForcedAction << 8);
 2979              		.loc 1 1398 0
ARM GAS  /tmp/ccRayNMu.s 			page 79


 2980 0e94 7B88     		ldrh	r3, [r7, #2]	@ movhi
 2981 0e96 1B02     		lsls	r3, r3, #8
 2982 0e98 9AB2     		uxth	r2, r3
 2983 0e9a FB89     		ldrh	r3, [r7, #14]	@ movhi
 2984 0e9c 1343     		orrs	r3, r3, r2
 2985 0e9e FB81     		strh	r3, [r7, #14]	@ movhi
1399:common/stm32f10x_tim.c ****   /* Write to TIMx CCMR2 register */
1400:common/stm32f10x_tim.c ****   TIMx->CCMR2 = tmpccmr2;
 2986              		.loc 1 1400 0
 2987 0ea0 7B68     		ldr	r3, [r7, #4]
 2988 0ea2 FA89     		ldrh	r2, [r7, #14]	@ movhi
 2989 0ea4 9A83     		strh	r2, [r3, #28]	@ movhi
1401:common/stm32f10x_tim.c **** }
 2990              		.loc 1 1401 0
 2991 0ea6 00BF     		nop
 2992 0ea8 1437     		adds	r7, r7, #20
 2993              		.cfi_def_cfa_offset 4
 2994 0eaa BD46     		mov	sp, r7
 2995              		.cfi_def_cfa_register 13
 2996              		@ sp needed
 2997 0eac 80BC     		pop	{r7}
 2998              		.cfi_restore 7
 2999              		.cfi_def_cfa_offset 0
 3000 0eae 7047     		bx	lr
 3001              		.cfi_endproc
 3002              	.LFE95:
 3003              		.size	TIM_ForcedOC4Config, .-TIM_ForcedOC4Config
 3004              		.align	1
 3005              		.global	TIM_ARRPreloadConfig
 3006              		.syntax unified
 3007              		.thumb
 3008              		.thumb_func
 3009              		.fpu softvfp
 3010              		.type	TIM_ARRPreloadConfig, %function
 3011              	TIM_ARRPreloadConfig:
 3012              	.LFB96:
1402:common/stm32f10x_tim.c **** 
1403:common/stm32f10x_tim.c **** /**
1404:common/stm32f10x_tim.c ****   * @brief  Enables or disables TIMx peripheral Preload register on ARR.
1405:common/stm32f10x_tim.c ****   * @param  TIMx: where x can be  1 to 17 to select the TIM peripheral.
1406:common/stm32f10x_tim.c ****   * @param  NewState: new state of the TIMx peripheral Preload register
1407:common/stm32f10x_tim.c ****   *   This parameter can be: ENABLE or DISABLE.
1408:common/stm32f10x_tim.c ****   * @retval None
1409:common/stm32f10x_tim.c ****   */
1410:common/stm32f10x_tim.c **** void TIM_ARRPreloadConfig(TIM_TypeDef* TIMx, FunctionalState NewState)
1411:common/stm32f10x_tim.c **** {
 3013              		.loc 1 1411 0
 3014              		.cfi_startproc
 3015              		@ args = 0, pretend = 0, frame = 8
 3016              		@ frame_needed = 1, uses_anonymous_args = 0
 3017              		@ link register save eliminated.
 3018 0eb0 80B4     		push	{r7}
 3019              		.cfi_def_cfa_offset 4
 3020              		.cfi_offset 7, -4
 3021 0eb2 83B0     		sub	sp, sp, #12
 3022              		.cfi_def_cfa_offset 16
 3023 0eb4 00AF     		add	r7, sp, #0
ARM GAS  /tmp/ccRayNMu.s 			page 80


 3024              		.cfi_def_cfa_register 7
 3025 0eb6 7860     		str	r0, [r7, #4]
 3026 0eb8 0B46     		mov	r3, r1
 3027 0eba FB70     		strb	r3, [r7, #3]
1412:common/stm32f10x_tim.c ****   /* Check the parameters */
1413:common/stm32f10x_tim.c ****   assert_param(IS_TIM_ALL_PERIPH(TIMx));
1414:common/stm32f10x_tim.c ****   assert_param(IS_FUNCTIONAL_STATE(NewState));
1415:common/stm32f10x_tim.c ****   if (NewState != DISABLE)
 3028              		.loc 1 1415 0
 3029 0ebc FB78     		ldrb	r3, [r7, #3]	@ zero_extendqisi2
 3030 0ebe 002B     		cmp	r3, #0
 3031 0ec0 08D0     		beq	.L104
1416:common/stm32f10x_tim.c ****   {
1417:common/stm32f10x_tim.c ****     /* Set the ARR Preload Bit */
1418:common/stm32f10x_tim.c ****     TIMx->CR1 |= TIM_CR1_ARPE;
 3032              		.loc 1 1418 0
 3033 0ec2 7B68     		ldr	r3, [r7, #4]
 3034 0ec4 1B88     		ldrh	r3, [r3]	@ movhi
 3035 0ec6 9BB2     		uxth	r3, r3
 3036 0ec8 43F08003 		orr	r3, r3, #128
 3037 0ecc 9AB2     		uxth	r2, r3
 3038 0ece 7B68     		ldr	r3, [r7, #4]
 3039 0ed0 1A80     		strh	r2, [r3]	@ movhi
1419:common/stm32f10x_tim.c ****   }
1420:common/stm32f10x_tim.c ****   else
1421:common/stm32f10x_tim.c ****   {
1422:common/stm32f10x_tim.c ****     /* Reset the ARR Preload Bit */
1423:common/stm32f10x_tim.c ****     TIMx->CR1 &= (uint16_t)~((uint16_t)TIM_CR1_ARPE);
1424:common/stm32f10x_tim.c ****   }
1425:common/stm32f10x_tim.c **** }
 3040              		.loc 1 1425 0
 3041 0ed2 07E0     		b	.L106
 3042              	.L104:
1423:common/stm32f10x_tim.c ****   }
 3043              		.loc 1 1423 0
 3044 0ed4 7B68     		ldr	r3, [r7, #4]
 3045 0ed6 1B88     		ldrh	r3, [r3]	@ movhi
 3046 0ed8 9BB2     		uxth	r3, r3
 3047 0eda 23F08003 		bic	r3, r3, #128
 3048 0ede 9AB2     		uxth	r2, r3
 3049 0ee0 7B68     		ldr	r3, [r7, #4]
 3050 0ee2 1A80     		strh	r2, [r3]	@ movhi
 3051              	.L106:
 3052              		.loc 1 1425 0
 3053 0ee4 00BF     		nop
 3054 0ee6 0C37     		adds	r7, r7, #12
 3055              		.cfi_def_cfa_offset 4
 3056 0ee8 BD46     		mov	sp, r7
 3057              		.cfi_def_cfa_register 13
 3058              		@ sp needed
 3059 0eea 80BC     		pop	{r7}
 3060              		.cfi_restore 7
 3061              		.cfi_def_cfa_offset 0
 3062 0eec 7047     		bx	lr
 3063              		.cfi_endproc
 3064              	.LFE96:
 3065              		.size	TIM_ARRPreloadConfig, .-TIM_ARRPreloadConfig
ARM GAS  /tmp/ccRayNMu.s 			page 81


 3066              		.align	1
 3067              		.global	TIM_SelectCOM
 3068              		.syntax unified
 3069              		.thumb
 3070              		.thumb_func
 3071              		.fpu softvfp
 3072              		.type	TIM_SelectCOM, %function
 3073              	TIM_SelectCOM:
 3074              	.LFB97:
1426:common/stm32f10x_tim.c **** 
1427:common/stm32f10x_tim.c **** /**
1428:common/stm32f10x_tim.c ****   * @brief  Selects the TIM peripheral Commutation event.
1429:common/stm32f10x_tim.c ****   * @param  TIMx: where x can be  1, 8, 15, 16 or 17 to select the TIMx peripheral
1430:common/stm32f10x_tim.c ****   * @param  NewState: new state of the Commutation event.
1431:common/stm32f10x_tim.c ****   *   This parameter can be: ENABLE or DISABLE.
1432:common/stm32f10x_tim.c ****   * @retval None
1433:common/stm32f10x_tim.c ****   */
1434:common/stm32f10x_tim.c **** void TIM_SelectCOM(TIM_TypeDef* TIMx, FunctionalState NewState)
1435:common/stm32f10x_tim.c **** {
 3075              		.loc 1 1435 0
 3076              		.cfi_startproc
 3077              		@ args = 0, pretend = 0, frame = 8
 3078              		@ frame_needed = 1, uses_anonymous_args = 0
 3079              		@ link register save eliminated.
 3080 0eee 80B4     		push	{r7}
 3081              		.cfi_def_cfa_offset 4
 3082              		.cfi_offset 7, -4
 3083 0ef0 83B0     		sub	sp, sp, #12
 3084              		.cfi_def_cfa_offset 16
 3085 0ef2 00AF     		add	r7, sp, #0
 3086              		.cfi_def_cfa_register 7
 3087 0ef4 7860     		str	r0, [r7, #4]
 3088 0ef6 0B46     		mov	r3, r1
 3089 0ef8 FB70     		strb	r3, [r7, #3]
1436:common/stm32f10x_tim.c ****   /* Check the parameters */
1437:common/stm32f10x_tim.c ****   assert_param(IS_TIM_LIST2_PERIPH(TIMx));
1438:common/stm32f10x_tim.c ****   assert_param(IS_FUNCTIONAL_STATE(NewState));
1439:common/stm32f10x_tim.c ****   if (NewState != DISABLE)
 3090              		.loc 1 1439 0
 3091 0efa FB78     		ldrb	r3, [r7, #3]	@ zero_extendqisi2
 3092 0efc 002B     		cmp	r3, #0
 3093 0efe 08D0     		beq	.L108
1440:common/stm32f10x_tim.c ****   {
1441:common/stm32f10x_tim.c ****     /* Set the COM Bit */
1442:common/stm32f10x_tim.c ****     TIMx->CR2 |= TIM_CR2_CCUS;
 3094              		.loc 1 1442 0
 3095 0f00 7B68     		ldr	r3, [r7, #4]
 3096 0f02 9B88     		ldrh	r3, [r3, #4]	@ movhi
 3097 0f04 9BB2     		uxth	r3, r3
 3098 0f06 43F00403 		orr	r3, r3, #4
 3099 0f0a 9AB2     		uxth	r2, r3
 3100 0f0c 7B68     		ldr	r3, [r7, #4]
 3101 0f0e 9A80     		strh	r2, [r3, #4]	@ movhi
1443:common/stm32f10x_tim.c ****   }
1444:common/stm32f10x_tim.c ****   else
1445:common/stm32f10x_tim.c ****   {
1446:common/stm32f10x_tim.c ****     /* Reset the COM Bit */
ARM GAS  /tmp/ccRayNMu.s 			page 82


1447:common/stm32f10x_tim.c ****     TIMx->CR2 &= (uint16_t)~((uint16_t)TIM_CR2_CCUS);
1448:common/stm32f10x_tim.c ****   }
1449:common/stm32f10x_tim.c **** }
 3102              		.loc 1 1449 0
 3103 0f10 07E0     		b	.L110
 3104              	.L108:
1447:common/stm32f10x_tim.c ****   }
 3105              		.loc 1 1447 0
 3106 0f12 7B68     		ldr	r3, [r7, #4]
 3107 0f14 9B88     		ldrh	r3, [r3, #4]	@ movhi
 3108 0f16 9BB2     		uxth	r3, r3
 3109 0f18 23F00403 		bic	r3, r3, #4
 3110 0f1c 9AB2     		uxth	r2, r3
 3111 0f1e 7B68     		ldr	r3, [r7, #4]
 3112 0f20 9A80     		strh	r2, [r3, #4]	@ movhi
 3113              	.L110:
 3114              		.loc 1 1449 0
 3115 0f22 00BF     		nop
 3116 0f24 0C37     		adds	r7, r7, #12
 3117              		.cfi_def_cfa_offset 4
 3118 0f26 BD46     		mov	sp, r7
 3119              		.cfi_def_cfa_register 13
 3120              		@ sp needed
 3121 0f28 80BC     		pop	{r7}
 3122              		.cfi_restore 7
 3123              		.cfi_def_cfa_offset 0
 3124 0f2a 7047     		bx	lr
 3125              		.cfi_endproc
 3126              	.LFE97:
 3127              		.size	TIM_SelectCOM, .-TIM_SelectCOM
 3128              		.align	1
 3129              		.global	TIM_SelectCCDMA
 3130              		.syntax unified
 3131              		.thumb
 3132              		.thumb_func
 3133              		.fpu softvfp
 3134              		.type	TIM_SelectCCDMA, %function
 3135              	TIM_SelectCCDMA:
 3136              	.LFB98:
1450:common/stm32f10x_tim.c **** 
1451:common/stm32f10x_tim.c **** /**
1452:common/stm32f10x_tim.c ****   * @brief  Selects the TIMx peripheral Capture Compare DMA source.
1453:common/stm32f10x_tim.c ****   * @param  TIMx: where x can be  1, 2, 3, 4, 5, 8, 15, 16 or 17 to select 
1454:common/stm32f10x_tim.c ****   *         the TIM peripheral.
1455:common/stm32f10x_tim.c ****   * @param  NewState: new state of the Capture Compare DMA source
1456:common/stm32f10x_tim.c ****   *   This parameter can be: ENABLE or DISABLE.
1457:common/stm32f10x_tim.c ****   * @retval None
1458:common/stm32f10x_tim.c ****   */
1459:common/stm32f10x_tim.c **** void TIM_SelectCCDMA(TIM_TypeDef* TIMx, FunctionalState NewState)
1460:common/stm32f10x_tim.c **** {
 3137              		.loc 1 1460 0
 3138              		.cfi_startproc
 3139              		@ args = 0, pretend = 0, frame = 8
 3140              		@ frame_needed = 1, uses_anonymous_args = 0
 3141              		@ link register save eliminated.
 3142 0f2c 80B4     		push	{r7}
 3143              		.cfi_def_cfa_offset 4
ARM GAS  /tmp/ccRayNMu.s 			page 83


 3144              		.cfi_offset 7, -4
 3145 0f2e 83B0     		sub	sp, sp, #12
 3146              		.cfi_def_cfa_offset 16
 3147 0f30 00AF     		add	r7, sp, #0
 3148              		.cfi_def_cfa_register 7
 3149 0f32 7860     		str	r0, [r7, #4]
 3150 0f34 0B46     		mov	r3, r1
 3151 0f36 FB70     		strb	r3, [r7, #3]
1461:common/stm32f10x_tim.c ****   /* Check the parameters */
1462:common/stm32f10x_tim.c ****   assert_param(IS_TIM_LIST4_PERIPH(TIMx));
1463:common/stm32f10x_tim.c ****   assert_param(IS_FUNCTIONAL_STATE(NewState));
1464:common/stm32f10x_tim.c ****   if (NewState != DISABLE)
 3152              		.loc 1 1464 0
 3153 0f38 FB78     		ldrb	r3, [r7, #3]	@ zero_extendqisi2
 3154 0f3a 002B     		cmp	r3, #0
 3155 0f3c 08D0     		beq	.L112
1465:common/stm32f10x_tim.c ****   {
1466:common/stm32f10x_tim.c ****     /* Set the CCDS Bit */
1467:common/stm32f10x_tim.c ****     TIMx->CR2 |= TIM_CR2_CCDS;
 3156              		.loc 1 1467 0
 3157 0f3e 7B68     		ldr	r3, [r7, #4]
 3158 0f40 9B88     		ldrh	r3, [r3, #4]	@ movhi
 3159 0f42 9BB2     		uxth	r3, r3
 3160 0f44 43F00803 		orr	r3, r3, #8
 3161 0f48 9AB2     		uxth	r2, r3
 3162 0f4a 7B68     		ldr	r3, [r7, #4]
 3163 0f4c 9A80     		strh	r2, [r3, #4]	@ movhi
1468:common/stm32f10x_tim.c ****   }
1469:common/stm32f10x_tim.c ****   else
1470:common/stm32f10x_tim.c ****   {
1471:common/stm32f10x_tim.c ****     /* Reset the CCDS Bit */
1472:common/stm32f10x_tim.c ****     TIMx->CR2 &= (uint16_t)~((uint16_t)TIM_CR2_CCDS);
1473:common/stm32f10x_tim.c ****   }
1474:common/stm32f10x_tim.c **** }
 3164              		.loc 1 1474 0
 3165 0f4e 07E0     		b	.L114
 3166              	.L112:
1472:common/stm32f10x_tim.c ****   }
 3167              		.loc 1 1472 0
 3168 0f50 7B68     		ldr	r3, [r7, #4]
 3169 0f52 9B88     		ldrh	r3, [r3, #4]	@ movhi
 3170 0f54 9BB2     		uxth	r3, r3
 3171 0f56 23F00803 		bic	r3, r3, #8
 3172 0f5a 9AB2     		uxth	r2, r3
 3173 0f5c 7B68     		ldr	r3, [r7, #4]
 3174 0f5e 9A80     		strh	r2, [r3, #4]	@ movhi
 3175              	.L114:
 3176              		.loc 1 1474 0
 3177 0f60 00BF     		nop
 3178 0f62 0C37     		adds	r7, r7, #12
 3179              		.cfi_def_cfa_offset 4
 3180 0f64 BD46     		mov	sp, r7
 3181              		.cfi_def_cfa_register 13
 3182              		@ sp needed
 3183 0f66 80BC     		pop	{r7}
 3184              		.cfi_restore 7
 3185              		.cfi_def_cfa_offset 0
ARM GAS  /tmp/ccRayNMu.s 			page 84


 3186 0f68 7047     		bx	lr
 3187              		.cfi_endproc
 3188              	.LFE98:
 3189              		.size	TIM_SelectCCDMA, .-TIM_SelectCCDMA
 3190              		.align	1
 3191              		.global	TIM_CCPreloadControl
 3192              		.syntax unified
 3193              		.thumb
 3194              		.thumb_func
 3195              		.fpu softvfp
 3196              		.type	TIM_CCPreloadControl, %function
 3197              	TIM_CCPreloadControl:
 3198              	.LFB99:
1475:common/stm32f10x_tim.c **** 
1476:common/stm32f10x_tim.c **** /**
1477:common/stm32f10x_tim.c ****   * @brief  Sets or Resets the TIM peripheral Capture Compare Preload Control bit.
1478:common/stm32f10x_tim.c ****   * @param  TIMx: where x can be   1, 2, 3, 4, 5, 8 or 15 
1479:common/stm32f10x_tim.c ****   *         to select the TIMx peripheral
1480:common/stm32f10x_tim.c ****   * @param  NewState: new state of the Capture Compare Preload Control bit
1481:common/stm32f10x_tim.c ****   *   This parameter can be: ENABLE or DISABLE.
1482:common/stm32f10x_tim.c ****   * @retval None
1483:common/stm32f10x_tim.c ****   */
1484:common/stm32f10x_tim.c **** void TIM_CCPreloadControl(TIM_TypeDef* TIMx, FunctionalState NewState)
1485:common/stm32f10x_tim.c **** { 
 3199              		.loc 1 1485 0
 3200              		.cfi_startproc
 3201              		@ args = 0, pretend = 0, frame = 8
 3202              		@ frame_needed = 1, uses_anonymous_args = 0
 3203              		@ link register save eliminated.
 3204 0f6a 80B4     		push	{r7}
 3205              		.cfi_def_cfa_offset 4
 3206              		.cfi_offset 7, -4
 3207 0f6c 83B0     		sub	sp, sp, #12
 3208              		.cfi_def_cfa_offset 16
 3209 0f6e 00AF     		add	r7, sp, #0
 3210              		.cfi_def_cfa_register 7
 3211 0f70 7860     		str	r0, [r7, #4]
 3212 0f72 0B46     		mov	r3, r1
 3213 0f74 FB70     		strb	r3, [r7, #3]
1486:common/stm32f10x_tim.c ****   /* Check the parameters */
1487:common/stm32f10x_tim.c ****   assert_param(IS_TIM_LIST5_PERIPH(TIMx));
1488:common/stm32f10x_tim.c ****   assert_param(IS_FUNCTIONAL_STATE(NewState));
1489:common/stm32f10x_tim.c ****   if (NewState != DISABLE)
 3214              		.loc 1 1489 0
 3215 0f76 FB78     		ldrb	r3, [r7, #3]	@ zero_extendqisi2
 3216 0f78 002B     		cmp	r3, #0
 3217 0f7a 08D0     		beq	.L116
1490:common/stm32f10x_tim.c ****   {
1491:common/stm32f10x_tim.c ****     /* Set the CCPC Bit */
1492:common/stm32f10x_tim.c ****     TIMx->CR2 |= TIM_CR2_CCPC;
 3218              		.loc 1 1492 0
 3219 0f7c 7B68     		ldr	r3, [r7, #4]
 3220 0f7e 9B88     		ldrh	r3, [r3, #4]	@ movhi
 3221 0f80 9BB2     		uxth	r3, r3
 3222 0f82 43F00103 		orr	r3, r3, #1
 3223 0f86 9AB2     		uxth	r2, r3
 3224 0f88 7B68     		ldr	r3, [r7, #4]
ARM GAS  /tmp/ccRayNMu.s 			page 85


 3225 0f8a 9A80     		strh	r2, [r3, #4]	@ movhi
1493:common/stm32f10x_tim.c ****   }
1494:common/stm32f10x_tim.c ****   else
1495:common/stm32f10x_tim.c ****   {
1496:common/stm32f10x_tim.c ****     /* Reset the CCPC Bit */
1497:common/stm32f10x_tim.c ****     TIMx->CR2 &= (uint16_t)~((uint16_t)TIM_CR2_CCPC);
1498:common/stm32f10x_tim.c ****   }
1499:common/stm32f10x_tim.c **** }
 3226              		.loc 1 1499 0
 3227 0f8c 07E0     		b	.L118
 3228              	.L116:
1497:common/stm32f10x_tim.c ****   }
 3229              		.loc 1 1497 0
 3230 0f8e 7B68     		ldr	r3, [r7, #4]
 3231 0f90 9B88     		ldrh	r3, [r3, #4]	@ movhi
 3232 0f92 9BB2     		uxth	r3, r3
 3233 0f94 23F00103 		bic	r3, r3, #1
 3234 0f98 9AB2     		uxth	r2, r3
 3235 0f9a 7B68     		ldr	r3, [r7, #4]
 3236 0f9c 9A80     		strh	r2, [r3, #4]	@ movhi
 3237              	.L118:
 3238              		.loc 1 1499 0
 3239 0f9e 00BF     		nop
 3240 0fa0 0C37     		adds	r7, r7, #12
 3241              		.cfi_def_cfa_offset 4
 3242 0fa2 BD46     		mov	sp, r7
 3243              		.cfi_def_cfa_register 13
 3244              		@ sp needed
 3245 0fa4 80BC     		pop	{r7}
 3246              		.cfi_restore 7
 3247              		.cfi_def_cfa_offset 0
 3248 0fa6 7047     		bx	lr
 3249              		.cfi_endproc
 3250              	.LFE99:
 3251              		.size	TIM_CCPreloadControl, .-TIM_CCPreloadControl
 3252              		.align	1
 3253              		.global	TIM_OC1PreloadConfig
 3254              		.syntax unified
 3255              		.thumb
 3256              		.thumb_func
 3257              		.fpu softvfp
 3258              		.type	TIM_OC1PreloadConfig, %function
 3259              	TIM_OC1PreloadConfig:
 3260              	.LFB100:
1500:common/stm32f10x_tim.c **** 
1501:common/stm32f10x_tim.c **** /**
1502:common/stm32f10x_tim.c ****   * @brief  Enables or disables the TIMx peripheral Preload register on CCR1.
1503:common/stm32f10x_tim.c ****   * @param  TIMx: where x can be  1 to 17 except 6 and 7 to select the TIM peripheral.
1504:common/stm32f10x_tim.c ****   * @param  TIM_OCPreload: new state of the TIMx peripheral Preload register
1505:common/stm32f10x_tim.c ****   *   This parameter can be one of the following values:
1506:common/stm32f10x_tim.c ****   *     @arg TIM_OCPreload_Enable
1507:common/stm32f10x_tim.c ****   *     @arg TIM_OCPreload_Disable
1508:common/stm32f10x_tim.c ****   * @retval None
1509:common/stm32f10x_tim.c ****   */
1510:common/stm32f10x_tim.c **** void TIM_OC1PreloadConfig(TIM_TypeDef* TIMx, uint16_t TIM_OCPreload)
1511:common/stm32f10x_tim.c **** {
 3261              		.loc 1 1511 0
ARM GAS  /tmp/ccRayNMu.s 			page 86


 3262              		.cfi_startproc
 3263              		@ args = 0, pretend = 0, frame = 16
 3264              		@ frame_needed = 1, uses_anonymous_args = 0
 3265              		@ link register save eliminated.
 3266 0fa8 80B4     		push	{r7}
 3267              		.cfi_def_cfa_offset 4
 3268              		.cfi_offset 7, -4
 3269 0faa 85B0     		sub	sp, sp, #20
 3270              		.cfi_def_cfa_offset 24
 3271 0fac 00AF     		add	r7, sp, #0
 3272              		.cfi_def_cfa_register 7
 3273 0fae 7860     		str	r0, [r7, #4]
 3274 0fb0 0B46     		mov	r3, r1
 3275 0fb2 7B80     		strh	r3, [r7, #2]	@ movhi
1512:common/stm32f10x_tim.c ****   uint16_t tmpccmr1 = 0;
 3276              		.loc 1 1512 0
 3277 0fb4 0023     		movs	r3, #0
 3278 0fb6 FB81     		strh	r3, [r7, #14]	@ movhi
1513:common/stm32f10x_tim.c ****   /* Check the parameters */
1514:common/stm32f10x_tim.c ****   assert_param(IS_TIM_LIST8_PERIPH(TIMx));
1515:common/stm32f10x_tim.c ****   assert_param(IS_TIM_OCPRELOAD_STATE(TIM_OCPreload));
1516:common/stm32f10x_tim.c ****   tmpccmr1 = TIMx->CCMR1;
 3279              		.loc 1 1516 0
 3280 0fb8 7B68     		ldr	r3, [r7, #4]
 3281 0fba 1B8B     		ldrh	r3, [r3, #24]	@ movhi
 3282 0fbc FB81     		strh	r3, [r7, #14]	@ movhi
1517:common/stm32f10x_tim.c ****   /* Reset the OC1PE Bit */
1518:common/stm32f10x_tim.c ****   tmpccmr1 &= (uint16_t)~((uint16_t)TIM_CCMR1_OC1PE);
 3283              		.loc 1 1518 0
 3284 0fbe FB89     		ldrh	r3, [r7, #14]	@ movhi
 3285 0fc0 23F00803 		bic	r3, r3, #8
 3286 0fc4 FB81     		strh	r3, [r7, #14]	@ movhi
1519:common/stm32f10x_tim.c ****   /* Enable or Disable the Output Compare Preload feature */
1520:common/stm32f10x_tim.c ****   tmpccmr1 |= TIM_OCPreload;
 3287              		.loc 1 1520 0
 3288 0fc6 FA89     		ldrh	r2, [r7, #14]	@ movhi
 3289 0fc8 7B88     		ldrh	r3, [r7, #2]	@ movhi
 3290 0fca 1343     		orrs	r3, r3, r2
 3291 0fcc FB81     		strh	r3, [r7, #14]	@ movhi
1521:common/stm32f10x_tim.c ****   /* Write to TIMx CCMR1 register */
1522:common/stm32f10x_tim.c ****   TIMx->CCMR1 = tmpccmr1;
 3292              		.loc 1 1522 0
 3293 0fce 7B68     		ldr	r3, [r7, #4]
 3294 0fd0 FA89     		ldrh	r2, [r7, #14]	@ movhi
 3295 0fd2 1A83     		strh	r2, [r3, #24]	@ movhi
1523:common/stm32f10x_tim.c **** }
 3296              		.loc 1 1523 0
 3297 0fd4 00BF     		nop
 3298 0fd6 1437     		adds	r7, r7, #20
 3299              		.cfi_def_cfa_offset 4
 3300 0fd8 BD46     		mov	sp, r7
 3301              		.cfi_def_cfa_register 13
 3302              		@ sp needed
 3303 0fda 80BC     		pop	{r7}
 3304              		.cfi_restore 7
 3305              		.cfi_def_cfa_offset 0
 3306 0fdc 7047     		bx	lr
ARM GAS  /tmp/ccRayNMu.s 			page 87


 3307              		.cfi_endproc
 3308              	.LFE100:
 3309              		.size	TIM_OC1PreloadConfig, .-TIM_OC1PreloadConfig
 3310              		.align	1
 3311              		.global	TIM_OC2PreloadConfig
 3312              		.syntax unified
 3313              		.thumb
 3314              		.thumb_func
 3315              		.fpu softvfp
 3316              		.type	TIM_OC2PreloadConfig, %function
 3317              	TIM_OC2PreloadConfig:
 3318              	.LFB101:
1524:common/stm32f10x_tim.c **** 
1525:common/stm32f10x_tim.c **** /**
1526:common/stm32f10x_tim.c ****   * @brief  Enables or disables the TIMx peripheral Preload register on CCR2.
1527:common/stm32f10x_tim.c ****   * @param  TIMx: where x can be  1, 2, 3, 4, 5, 8, 9, 12 or 15 to select 
1528:common/stm32f10x_tim.c ****   *         the TIM peripheral.
1529:common/stm32f10x_tim.c ****   * @param  TIM_OCPreload: new state of the TIMx peripheral Preload register
1530:common/stm32f10x_tim.c ****   *   This parameter can be one of the following values:
1531:common/stm32f10x_tim.c ****   *     @arg TIM_OCPreload_Enable
1532:common/stm32f10x_tim.c ****   *     @arg TIM_OCPreload_Disable
1533:common/stm32f10x_tim.c ****   * @retval None
1534:common/stm32f10x_tim.c ****   */
1535:common/stm32f10x_tim.c **** void TIM_OC2PreloadConfig(TIM_TypeDef* TIMx, uint16_t TIM_OCPreload)
1536:common/stm32f10x_tim.c **** {
 3319              		.loc 1 1536 0
 3320              		.cfi_startproc
 3321              		@ args = 0, pretend = 0, frame = 16
 3322              		@ frame_needed = 1, uses_anonymous_args = 0
 3323              		@ link register save eliminated.
 3324 0fde 80B4     		push	{r7}
 3325              		.cfi_def_cfa_offset 4
 3326              		.cfi_offset 7, -4
 3327 0fe0 85B0     		sub	sp, sp, #20
 3328              		.cfi_def_cfa_offset 24
 3329 0fe2 00AF     		add	r7, sp, #0
 3330              		.cfi_def_cfa_register 7
 3331 0fe4 7860     		str	r0, [r7, #4]
 3332 0fe6 0B46     		mov	r3, r1
 3333 0fe8 7B80     		strh	r3, [r7, #2]	@ movhi
1537:common/stm32f10x_tim.c ****   uint16_t tmpccmr1 = 0;
 3334              		.loc 1 1537 0
 3335 0fea 0023     		movs	r3, #0
 3336 0fec FB81     		strh	r3, [r7, #14]	@ movhi
1538:common/stm32f10x_tim.c ****   /* Check the parameters */
1539:common/stm32f10x_tim.c ****   assert_param(IS_TIM_LIST6_PERIPH(TIMx));
1540:common/stm32f10x_tim.c ****   assert_param(IS_TIM_OCPRELOAD_STATE(TIM_OCPreload));
1541:common/stm32f10x_tim.c ****   tmpccmr1 = TIMx->CCMR1;
 3337              		.loc 1 1541 0
 3338 0fee 7B68     		ldr	r3, [r7, #4]
 3339 0ff0 1B8B     		ldrh	r3, [r3, #24]	@ movhi
 3340 0ff2 FB81     		strh	r3, [r7, #14]	@ movhi
1542:common/stm32f10x_tim.c ****   /* Reset the OC2PE Bit */
1543:common/stm32f10x_tim.c ****   tmpccmr1 &= (uint16_t)~((uint16_t)TIM_CCMR1_OC2PE);
 3341              		.loc 1 1543 0
 3342 0ff4 FB89     		ldrh	r3, [r7, #14]	@ movhi
 3343 0ff6 23F40063 		bic	r3, r3, #2048
ARM GAS  /tmp/ccRayNMu.s 			page 88


 3344 0ffa FB81     		strh	r3, [r7, #14]	@ movhi
1544:common/stm32f10x_tim.c ****   /* Enable or Disable the Output Compare Preload feature */
1545:common/stm32f10x_tim.c ****   tmpccmr1 |= (uint16_t)(TIM_OCPreload << 8);
 3345              		.loc 1 1545 0
 3346 0ffc 7B88     		ldrh	r3, [r7, #2]	@ movhi
 3347 0ffe 1B02     		lsls	r3, r3, #8
 3348 1000 9AB2     		uxth	r2, r3
 3349 1002 FB89     		ldrh	r3, [r7, #14]	@ movhi
 3350 1004 1343     		orrs	r3, r3, r2
 3351 1006 FB81     		strh	r3, [r7, #14]	@ movhi
1546:common/stm32f10x_tim.c ****   /* Write to TIMx CCMR1 register */
1547:common/stm32f10x_tim.c ****   TIMx->CCMR1 = tmpccmr1;
 3352              		.loc 1 1547 0
 3353 1008 7B68     		ldr	r3, [r7, #4]
 3354 100a FA89     		ldrh	r2, [r7, #14]	@ movhi
 3355 100c 1A83     		strh	r2, [r3, #24]	@ movhi
1548:common/stm32f10x_tim.c **** }
 3356              		.loc 1 1548 0
 3357 100e 00BF     		nop
 3358 1010 1437     		adds	r7, r7, #20
 3359              		.cfi_def_cfa_offset 4
 3360 1012 BD46     		mov	sp, r7
 3361              		.cfi_def_cfa_register 13
 3362              		@ sp needed
 3363 1014 80BC     		pop	{r7}
 3364              		.cfi_restore 7
 3365              		.cfi_def_cfa_offset 0
 3366 1016 7047     		bx	lr
 3367              		.cfi_endproc
 3368              	.LFE101:
 3369              		.size	TIM_OC2PreloadConfig, .-TIM_OC2PreloadConfig
 3370              		.align	1
 3371              		.global	TIM_OC3PreloadConfig
 3372              		.syntax unified
 3373              		.thumb
 3374              		.thumb_func
 3375              		.fpu softvfp
 3376              		.type	TIM_OC3PreloadConfig, %function
 3377              	TIM_OC3PreloadConfig:
 3378              	.LFB102:
1549:common/stm32f10x_tim.c **** 
1550:common/stm32f10x_tim.c **** /**
1551:common/stm32f10x_tim.c ****   * @brief  Enables or disables the TIMx peripheral Preload register on CCR3.
1552:common/stm32f10x_tim.c ****   * @param  TIMx: where x can be  1, 2, 3, 4, 5 or 8 to select the TIM peripheral.
1553:common/stm32f10x_tim.c ****   * @param  TIM_OCPreload: new state of the TIMx peripheral Preload register
1554:common/stm32f10x_tim.c ****   *   This parameter can be one of the following values:
1555:common/stm32f10x_tim.c ****   *     @arg TIM_OCPreload_Enable
1556:common/stm32f10x_tim.c ****   *     @arg TIM_OCPreload_Disable
1557:common/stm32f10x_tim.c ****   * @retval None
1558:common/stm32f10x_tim.c ****   */
1559:common/stm32f10x_tim.c **** void TIM_OC3PreloadConfig(TIM_TypeDef* TIMx, uint16_t TIM_OCPreload)
1560:common/stm32f10x_tim.c **** {
 3379              		.loc 1 1560 0
 3380              		.cfi_startproc
 3381              		@ args = 0, pretend = 0, frame = 16
 3382              		@ frame_needed = 1, uses_anonymous_args = 0
 3383              		@ link register save eliminated.
ARM GAS  /tmp/ccRayNMu.s 			page 89


 3384 1018 80B4     		push	{r7}
 3385              		.cfi_def_cfa_offset 4
 3386              		.cfi_offset 7, -4
 3387 101a 85B0     		sub	sp, sp, #20
 3388              		.cfi_def_cfa_offset 24
 3389 101c 00AF     		add	r7, sp, #0
 3390              		.cfi_def_cfa_register 7
 3391 101e 7860     		str	r0, [r7, #4]
 3392 1020 0B46     		mov	r3, r1
 3393 1022 7B80     		strh	r3, [r7, #2]	@ movhi
1561:common/stm32f10x_tim.c ****   uint16_t tmpccmr2 = 0;
 3394              		.loc 1 1561 0
 3395 1024 0023     		movs	r3, #0
 3396 1026 FB81     		strh	r3, [r7, #14]	@ movhi
1562:common/stm32f10x_tim.c ****   /* Check the parameters */
1563:common/stm32f10x_tim.c ****   assert_param(IS_TIM_LIST3_PERIPH(TIMx));
1564:common/stm32f10x_tim.c ****   assert_param(IS_TIM_OCPRELOAD_STATE(TIM_OCPreload));
1565:common/stm32f10x_tim.c ****   tmpccmr2 = TIMx->CCMR2;
 3397              		.loc 1 1565 0
 3398 1028 7B68     		ldr	r3, [r7, #4]
 3399 102a 9B8B     		ldrh	r3, [r3, #28]	@ movhi
 3400 102c FB81     		strh	r3, [r7, #14]	@ movhi
1566:common/stm32f10x_tim.c ****   /* Reset the OC3PE Bit */
1567:common/stm32f10x_tim.c ****   tmpccmr2 &= (uint16_t)~((uint16_t)TIM_CCMR2_OC3PE);
 3401              		.loc 1 1567 0
 3402 102e FB89     		ldrh	r3, [r7, #14]	@ movhi
 3403 1030 23F00803 		bic	r3, r3, #8
 3404 1034 FB81     		strh	r3, [r7, #14]	@ movhi
1568:common/stm32f10x_tim.c ****   /* Enable or Disable the Output Compare Preload feature */
1569:common/stm32f10x_tim.c ****   tmpccmr2 |= TIM_OCPreload;
 3405              		.loc 1 1569 0
 3406 1036 FA89     		ldrh	r2, [r7, #14]	@ movhi
 3407 1038 7B88     		ldrh	r3, [r7, #2]	@ movhi
 3408 103a 1343     		orrs	r3, r3, r2
 3409 103c FB81     		strh	r3, [r7, #14]	@ movhi
1570:common/stm32f10x_tim.c ****   /* Write to TIMx CCMR2 register */
1571:common/stm32f10x_tim.c ****   TIMx->CCMR2 = tmpccmr2;
 3410              		.loc 1 1571 0
 3411 103e 7B68     		ldr	r3, [r7, #4]
 3412 1040 FA89     		ldrh	r2, [r7, #14]	@ movhi
 3413 1042 9A83     		strh	r2, [r3, #28]	@ movhi
1572:common/stm32f10x_tim.c **** }
 3414              		.loc 1 1572 0
 3415 1044 00BF     		nop
 3416 1046 1437     		adds	r7, r7, #20
 3417              		.cfi_def_cfa_offset 4
 3418 1048 BD46     		mov	sp, r7
 3419              		.cfi_def_cfa_register 13
 3420              		@ sp needed
